(dp0
(Vinsert
p1
I42
VSimpleName: accountDataManager
p2
tp3
I1
s(Vinsert
p4
I42
VSimpleName: pullRequest
p5
tp6
I9
s(Vinsert
p7
I43
VSimpleType: CommitFileView
p8
tp9
I1
s(Vinsert
p10
I42
VSimpleName: commentImageGetter
p11
tp12
I3
s(Vinsert
p13
I42
VSimpleName: searchIssue
p14
tp15
I1
s(Vinsert
p16
I42
VSimpleName: MotionEvent
p17
tp18
I2
s(Vinsert
p19
I42
VSimpleName: getWatchers
p20
tp21
I1
s(Vinsert
p22
I42
VSimpleName: setBodyText
p23
tp24
I1
s(Vinsert
p25
I43
VSimpleType: GitUser
p26
tp27
I1
s(Vinsert
p28
I42
VSimpleName: ViewGistActivity
p29
tp30
I1
s(Vinsert
p31
I42
VSimpleName: getMilestone
p32
tp33
I3
s(Vinsert
p34
I42
VSimpleName: ForkPayload
p35
tp36
I3
s(Vinsert
p37
I42
VSimpleName: resource
p38
tp39
I27
s(Vinsert
p40
I42
VSimpleName: Cursor
p41
tp42
I2
s(Vinsert
p43
I42
VSimpleName: LabelsDialog
p44
tp45
I2
s(Vinsert
p46
I40
VQualifiedName: color.diff_remove_text
p47
tp48
I1
s(Vinsert
p49
I45
VStringLiteral: "+"
p50
tp51
I1
s(Vinsert
p52
I42
VSimpleName: rawFiles
p53
tp54
I3
s(Vinsert
p55
I42
VSimpleName: closedButton
p56
tp57
I1
s(Vinsert
p58
I42
VSimpleName: publicGists
p59
tp60
I1
s(Vinsert
p61
I42
VSimpleName: fragmentPosition
p62
tp63
I2
s(Vinsert
p64
I42
VSimpleName: DownloadPayload
p65
tp66
I1
s(Vinsert
p67
I74
VParameterizedType: List<Commit>
p68
tp69
I1
s(Vinsert
p70
I27
VInfixExpression: +
p71
tp72
I27
s(Vinsert
p73
I42
VSimpleName: path
p74
tp75
I15
s(Vinsert
p76
I42
VSimpleName: canScrollHorizontally
p77
tp78
I1
s(Vinsert
p79
I42
VSimpleName: Account
p80
tp81
I39
s(Vinsert
p82
I43
VSimpleType: RepositoryService
p83
tp84
I5
s(Vinsert
p85
I42
VSimpleName: EXTRA_POSITION
p86
tp87
I2
s(Vinsert
p88
I42
VSimpleName: LinkedList
p89
tp90
I2
s(Vinsert
p91
I43
VSimpleType: Throwable
p92
tp93
I4
s(Vinsert
p94
I42
VSimpleName: editComment
p95
tp96
I2
s(Vinsert
p97
I74
VParameterizedType: ViewHoldingListAdapter<Event>
p98
tp99
I1
s(Vinsert
p100
I42
VSimpleName: addCategory
p101
tp102
I1
s(Vinsert
p103
I40
VQualifiedName: contributor.author.login
p104
tp105
I1
s(Vinsert
p106
I42
VSimpleName: hasCategory
p107
tp108
I1
s(Vinsert
p109
I43
VSimpleType: LayoutInflater
p110
tp111
I3
s(Vinsert
p112
I42
VSimpleName: getAuthorization
p113
tp114
I1
s(Vinsert
p115
I42
VSimpleName: IconAndViewTextManager
p116
tp117
I4
s(Vinsert
p118
I40
VQualifiedName: R.id.user_real_name
p119
tp120
I1
s(Vinsert
p121
I40
VQualifiedName: Intent.ACTION_VIEW
p122
tp123
I2
s(Vinsert
p124
I42
VSimpleName: setAdditionalProperty
p125
tp126
I2
s(Vinsert
p127
I42
VSimpleName: finish
p128
tp129
I2
s(Vinsert
p130
I40
VQualifiedName: rx.schedulers.Schedulers
p131
tp132
I6
s(Vinsert
p133
I42
VSimpleName: getConnection
p134
tp135
I1
s(Vinsert
p136
I42
VSimpleName: titleText
p137
tp138
I5
s(Vinsert
p139
I42
VSimpleName: getLabelsClient
p140
tp141
I1
s(Vinsert
p142
I43
VSimpleType: SharedPreferences.Editor
p143
tp144
I2
s(Vinsert
p145
I42
VSimpleName: setItems
p146
tp147
I1
s(Vinsert
p148
I83
VModifier: protected
p149
tp150
I66
s(Vinsert
p151
I66
VTextElement:  string
p152
tp153
I1
s(Vinsert
p154
I43
VSimpleType: RuntimeException
p155
tp156
I16
s(Vinsert
p157
I42
VSimpleName: listShown
p158
tp159
I2
s(Vinsert
p160
I43
VSimpleType: Matcher
p161
tp162
I3
s(Vinsert
p163
I42
VSimpleName: addIssueFilter
p164
tp165
I1
s(Vinsert
p166
I43
VSimpleType: MemberPayload
p167
tp168
I1
s(Vinsert
p169
I42
VSimpleName: createGist
p170
tp171
I2
s(Vinsert
p172
I42
VSimpleName: ViewPager
p173
tp174
I1
s(Vinsert
p175
I42
VSimpleName: updateLabels
p176
tp177
I1
s(Vinsert
p178
I42
VSimpleName: createDialog
p179
tp180
I2
s(Vinsert
p181
I45
VStringLiteral: "gist.VIEW"
p182
tp183
I2
s(Vinsert
p184
I42
VSimpleName: httpsUri
p185
tp186
I1
s(Vinsert
p187
I42
VSimpleName: LabelsDialogFragment
p188
tp189
I2
s(Vinsert
p190
I43
VSimpleType: UserUrlMatcher
p191
tp192
I2
s(Vinsert
p193
I42
VSimpleName: PullRequestsFragment
p194
tp195
I1
s(Vinsert
p196
I42
VSimpleName: setContent
p197
tp198
I3
s(Vinsert
p199
I42
VSimpleName: IllegalArgumentException
p200
tp201
I1
s(Vinsert
p202
I42
VSimpleName: setOnItemClickListener
p203
tp204
I1
s(Vinsert
p205
I42
VSimpleName: LoaderManager
p206
tp207
I1
s(Vinsert
p208
I42
VSimpleName: matches
p209
tp210
I1
s(Vinsert
p211
I42
VSimpleName: onSaveInstanceState
p212
tp213
I3
s(Vinsert
p214
I74
VParameterizedType: Collection<Gist>
p215
tp216
I3
s(Vinsert
p217
I42
VSimpleName: EXTRA_ISSUE_FILTER
p218
tp219
I1
s(Vinsert
p220
I42
VSimpleName: AuthenticatorConflictException
p221
tp222
I1
s(Vinsert
p223
I42
VSimpleName: indicator
p224
tp225
I2
s(Vinsert
p226
I42
VSimpleName: finishOpenedActivities
p227
tp228
I1
s(Vinsert
p229
I42
VSimpleName: IssuePager
p230
tp231
I1
s(Vinsert
p232
I42
VSimpleName: RecentReposHelper
p233
tp234
I2
s(Vinsert
p235
I42
VSimpleName: setResponseContentType
p236
tp237
I2
s(Vinsert
p238
I42
VSimpleName: dependencies
p239
tp240
I1
s(Vinsert
p241
I43
VSimpleType: StyledText
p242
tp243
I16
s(Vinsert
p244
I42
VSimpleName: addComment
p245
tp246
I1
s(Vinsert
p247
I42
VSimpleName: repoName
p248
tp249
I3
s(Vinsert
p250
I40
VQualifiedName: IssueState.open
p251
tp252
I1
s(Vinsert
p253
I42
VSimpleName: storeProvider
p254
tp255
I1
s(Vinsert
p256
I42
VSimpleName: user
p257
tp258
I68
s(Vinsert
p259
I74
VParameterizedType: Subscriber<? super FullCommit>
p260
tp261
I1
s(Vinsert
p262
I42
VSimpleName: getAllPages
p263
tp264
I1
s(Vinsert
p265
I42
VSimpleName: s
p266
tp267
I2
s(Vinsert
p268
I42
VSimpleName: getAccounts
p269
tp270
I1
s(Vinsert
p271
I42
VSimpleName: addFooter
p272
tp273
I1
s(Vinsert
p274
I42
VSimpleName: pagerAdater
p275
tp276
I1
s(Vinsert
p277
I42
VSimpleName: enter
p278
tp279
I1
s(Vinsert
p280
I42
VSimpleName: ShareGistActivity
p281
tp282
I1
s(Vinsert
p283
I74
VParameterizedType: Page<Repository>
p284
tp285
I1
s(Vinsert
p286
I40
VQualifiedName: issue.labels
p287
tp288
I4
s(Vinsert
p289
I43
VSimpleType: MultipartBuilder
p290
tp291
I1
s(Vinsert
p292
I42
VSimpleName: creation
p293
tp294
I2
s(Vinsert
p295
I42
VSimpleName: getGitReferences
p296
tp297
I1
s(Vinsert
p298
I43
VSimpleType: Authorization
p299
tp300
I1
s(Vinsert
p301
I42
VSimpleName: PADDING_TOP
p302
tp303
I1
s(Vinsert
p304
I42
VSimpleName: milestoneLabel
p305
tp306
I3
s(Vinsert
p307
I42
VSimpleName: RepositoryCommit
p308
tp309
I9
s(Vinsert
p310
I43
VSimpleType: Collection
p311
tp312
I6
s(Vinsert
p313
I45
VStringLiteral: "yyyy-MM-dd'T'HH:mm:ss'Z'"
p314
tp315
I1
s(Vinsert
p316
I43
VSimpleType: AccountManager
p317
tp318
I7
s(Vinsert
p319
I42
VSimpleName: secret
p320
tp321
I1
s(Vinsert
p322
I42
VSimpleName: getRequest
p323
tp324
I1
s(Vinsert
p325
I42
VSimpleName: GetIssuesClient
p326
tp327
I1
s(Vinsert
p328
I42
VSimpleName: args
p329
tp330
I26
s(Vinsert
p331
I42
VSimpleName: setMessage
p332
tp333
I10
s(Vinsert
p334
I40
VQualifiedName: id.ll_gists
p335
tp336
I1
s(Vinsert
p337
I42
VSimpleName: email
p338
tp339
I1
s(Vinsert
p340
I42
VSimpleName: requestBody
p341
tp342
I1
s(Vinsert
p343
I45
VStringLiteral: "brush: "
p344
tp345
I1
s(Vinsert
p346
I42
VSimpleName: positiveText
p347
tp348
I1
s(Vinsert
p349
I43
VSimpleType: GithubEvent
p350
tp351
I3
s(Vinsert
p352
I42
VSimpleName: toSeconds
p353
tp354
I1
s(Vinsert
p355
I42
VSimpleName: contributor
p356
tp357
I2
s(Vinsert
p358
I42
VSimpleName: getComments
p359
tp360
I7
s(Vinsert
p361
I43
VSimpleType: ResultT
p362
tp363
I1
s(Vinsert
p364
I42
VSimpleName: setVisibility
p365
tp366
I27
s(Vinsert
p367
I42
VSimpleName: split
p368
tp369
I3
s(Vinsert
p370
I42
VSimpleName: clearAdapter
p371
tp372
I3
s(Vinsert
p373
I45
VStringLiteral: "='"
p374
tp375
I1
s(Vinsert
p376
I42
VSimpleName: onViewCreated
p377
tp378
I1
s(Vinsert
p379
I66
VTextElement: current assignee
p380
tp381
I1
s(Vinsert
p382
I42
VSimpleName: created
p383
tp384
I9
s(Vinsert
p385
I40
VQualifiedName: client.lastPage
p386
tp387
I1
s(Vinsert
p388
I43
VSimpleType: Pattern
p389
tp390
I1
s(Vinsert
p391
I42
VSimpleName: COMMIT_VIEW
p392
tp393
I1
s(Vinsert
p394
I42
VSimpleName: Inject
p395
tp396
I5
s(Vinsert
p397
I42
VSimpleName: setWatchers
p398
tp399
I1
s(Vinsert
p400
I42
VSimpleName: getIssue
p401
tp402
I11
s(Vinsert
p403
I43
VSimpleType: GistEventMatcher
p404
tp405
I2
s(Vinsert
p406
I42
VSimpleName: OperationCanceledException
p407
tp408
I2
s(Vinsert
p409
I40
VQualifiedName: R.id.et_search
p410
tp411
I1
s(Vinsert
p412
I42
VSimpleName: prefix
p413
tp414
I1
s(Vinsert
p415
I43
VSimpleType: ForkPayload
p416
tp417
I3
s(Vinsert
p418
I42
VSimpleName: milestoneNumber
p419
tp420
I1
s(Vinsert
p421
I42
VSimpleName: WindowManager
p422
tp423
I2
s(Vinsert
p424
I42
VSimpleName: setOnCheckedChangeListener
p425
tp426
I2
s(Vinsert
p427
I42
VSimpleName: value
p428
tp429
I4
s(Vinsert
p430
I42
VSimpleName: argumentCaptor
p431
tp432
I1
s(Vinsert
p433
I40
VQualifiedName: commit.commit.message
p434
tp435
I1
s(Vinsert
p436
I42
VSimpleName: toggleWrap
p437
tp438
I1
s(Vinsert
p439
I66
VTextElement:  content
p440
tp441
I1
s(Vinsert
p442
I43
VSimpleType: Class
p443
tp444
I1
s(Vinsert
p445
I40
VQualifiedName: GitHubEventType.GistEvent
p446
tp447
I1
s(Vinsert
p448
I43
VSimpleType: GitHubEvent
p449
tp450
I2
s(Vinsert
p451
I42
VSimpleName: u2
p452
tp453
I1
s(Vinsert
p454
I5
VArrayType: AuthenticatorDescription[]
p455
tp456
I1
s(Vinsert
p457
I42
VSimpleName: selectedChoice
p458
tp459
I1
s(Vinsert
p460
I42
VSimpleName: ids
p461
tp462
I4
s(Vinsert
p463
I42
VSimpleName: SPLITTER
p464
tp465
I1
s(Vinsert
p466
I42
VSimpleName: enteredDescription
p467
tp468
I1
s(Vinsert
p469
I42
VSimpleName: searchIssues
p470
tp471
I1
s(Vinsert
p472
I40
VQualifiedName: id.v_label1
p473
tp474
I2
s(Vinsert
p475
I66
VTextElement:  list adapter
p476
tp477
I1
s(Vinsert
p478
I40
VQualifiedName: existing.name
p479
tp480
I1
s(Vinsert
p481
I42
VSimpleName: codeFragment
p482
tp483
I4
s(Vinsert
p484
I42
VSimpleName: SearchRepoViewHolder
p485
tp486
I1
s(Vinsert
p487
I42
VSimpleName: mSelectedPosition
p488
tp489
I1
s(Vinsert
p490
I42
VSimpleName: setHtmlUrl
p491
tp492
I2
s(Vinsert
p493
I79
VSingleMemberAnnotation
p494
tp495
I5
s(Vinsert
p496
I42
VSimpleName: searchManager
p497
tp498
I2
s(Vinsert
p499
I42
VSimpleName: getContents
p500
tp501
I1
s(Vinsert
p502
I42
VSimpleName: TabHost
p503
tp504
I1
s(Vinsert
p505
I11
VCastExpression
p506
tp507
I182
s(Vinsert
p508
I42
VSimpleName: CODE_START
p509
tp510
I2
s(Vinsert
p511
I42
VSimpleName: spacing
p512
tp513
I1
s(Vinsert
p514
I42
VSimpleName: canAdmin
p515
tp516
I1
s(Vinsert
p517
I42
VSimpleName: toUpperCase
p518
tp519
I1
s(Vinsert
p520
I42
VSimpleName: tabView
p521
tp522
I1
s(Vinsert
p523
I43
VSimpleType: Map
p524
tp525
I3
s(Vinsert
p526
I42
VSimpleName: REQUEST_DELETE
p527
tp528
I1
s(Vinsert
p529
I42
VSimpleName: UserUrlMatcher
p530
tp531
I2
s(Vinsert
p532
I42
VSimpleName: IssueStory
p533
tp534
I2
s(Vinsert
p535
I42
VSimpleName: Bitmap
p536
tp537
I8
s(Vinsert
p538
I42
VSimpleName: userService
p539
tp540
I2
s(Vinsert
p541
I42
VSimpleName: getCodePreferences
p542
tp543
I2
s(Vinsert
p544
I42
VSimpleName: getFragmentTag
p545
tp546
I1
s(Vinsert
p547
I42
VSimpleName: GitReference
p548
tp549
I6
s(Vinsert
p550
I42
VSimpleName: progress
p551
tp552
I35
s(Vinsert
p553
I40
VQualifiedName: retrofit.client.Response
p554
tp555
I2
s(Vinsert
p556
I42
VSimpleName: thenReturn
p557
tp558
I2
s(Vinsert
p559
I42
VSimpleName: lastIndexOf
p560
tp561
I3
s(Vinsert
p562
I42
VSimpleName: clearRepoQueryHistory
p563
tp564
I1
s(Vinsert
p565
I42
VSimpleName: Boolean
p566
tp567
I19
s(Vinsert
p568
I42
VSimpleName: ACTION_SEND
p569
tp570
I1
s(Vinsert
p571
I42
VSimpleName: window
p572
tp573
I3
s(Vinsert
p574
I74
VParameterizedType: List<Comment>
p575
tp576
I2
s(Vinsert
p577
I42
VSimpleName: pair
p578
tp579
I2
s(Vinsert
p580
I42
VSimpleName: Collections
p581
tp582
I7
s(Vinsert
p583
I42
VSimpleName: setDescription
p584
tp585
I2
s(Vinsert
p586
I42
VSimpleName: header
p587
tp588
I2
s(Vinsert
p589
I43
VSimpleType: Cursor
p590
tp591
I2
s(Vinsert
p592
I42
VSimpleName: getAssigneesClient
p593
tp594
I1
s(Vinsert
p595
I40
VQualifiedName: R.id.m_search
p596
tp597
I2
s(Vinsert
p598
I66
VTextElement:  text
p599
tp600
I1
s(Vinsert
p601
I40
VQualifiedName: roboguice.activity.RoboFragmentActivity
p602
tp603
I1
s(Vinsert
p604
I18
VContinueStatement
p605
tp606
I1
s(Vinsert
p607
I43
VSimpleType: TypedValue
p608
tp609
I2
s(Vinsert
p610
I42
VSimpleName: IssueEvent
p611
tp612
I1
s(Vinsert
p613
I43
VSimpleType: EditGistCommentClient
p614
tp615
I1
s(Vinsert
p616
I42
VSimpleName: setCurrentTabByTag
p617
tp618
I1
s(Vinsert
p619
I42
VSimpleName: isFollowing
p620
tp621
I3
s(Vinsert
p622
I43
VSimpleType: RepositoryCommitCompare
p623
tp624
I1
s(Vinsert
p625
I43
VSimpleType: SearchRepository
p626
tp627
I2
s(Vinsert
p628
I42
VSimpleName: isComplete
p629
tp630
I1
s(Vinsert
p631
I42
VSimpleName: getUserPerformedEvents
p632
tp633
I1
s(Vinsert
p634
I42
VSimpleName: addItem
p635
tp636
I1
s(Vinsert
p637
I42
VSimpleName: Intent
p638
tp639
I47
s(Vinsert
p640
I42
VSimpleName: temp
p641
tp642
I1
s(Vinsert
p643
I42
VSimpleName: compare
p644
tp645
I13
s(Vinsert
p646
I42
VSimpleName: Animation
p647
tp648
I1
s(Vinsert
p649
I42
VSimpleName: width
p650
tp651
I6
s(Vinsert
p652
I45
VStringLiteral: "Apply"
p653
tp654
I1
s(Vinsert
p655
I76
VWildcardType: ? super FullGist
p656
tp657
I1
s(Vinsert
p658
I40
VQualifiedName: R.id.list
p659
tp660
I3
s(Vinsert
p661
I66
VTextElement:  The Gist to edit
p662
tp663
I1
s(Vinsert
p664
I42
VSimpleName: primaryColor
p665
tp666
I1
s(Vinsert
p667
I42
VSimpleName: bindActivity
p668
tp669
I2
s(Vinsert
p670
I42
VSimpleName: Content
p671
tp672
I1
s(Vinsert
p673
I42
VSimpleName: RepoBrowseActivity
p674
tp675
I1
s(Vinsert
p676
I42
VSimpleName: fullIssue
p677
tp678
I5
s(Vinsert
p679
I42
VSimpleName: getClass
p680
tp681
I1
s(Vinsert
p682
I42
VSimpleName: PADDING_BOTTOM
p683
tp684
I1
s(Vinsert
p685
I42
VSimpleName: cache
p686
tp687
I10
s(Vinsert
p688
I40
VQualifiedName: info.view
p689
tp690
I2
s(Vinsert
p691
I42
VSimpleName: getAdapter
p692
tp693
I2
s(Vinsert
p694
I42
VSimpleName: getTabWidget
p695
tp696
I1
s(Vinsert
p697
I42
VSimpleName: VISIBLE
p698
tp699
I4
s(Vinsert
p700
I42
VSimpleName: sortType
p701
tp702
I2
s(Vinsert
p703
I42
VSimpleName: idToRepo
p704
tp705
I1
s(Vinsert
p706
I42
VSimpleName: bg
p707
tp708
I1
s(Vinsert
p709
I42
VSimpleName: separator
p710
tp711
I1
s(Vinsert
p712
I42
VSimpleName: search
p713
tp714
I1
s(Vinsert
p715
I42
VSimpleName: getTextSize
p716
tp717
I1
s(Vinsert
p718
I42
VSimpleName: left
p719
tp720
I1
s(Vinsert
p721
I42
VSimpleName: BaseAdapter
p722
tp723
I2
s(Vinsert
p724
I42
VSimpleName: unfollow
p725
tp726
I2
s(Vinsert
p727
I42
VSimpleName: createIssueInfo
p728
tp729
I2
s(Vinsert
p730
I42
VSimpleName: EXTRA_TITLE
p731
tp732
I1
s(Vinsert
p733
I80
VMemberValuePair
p734
tp735
I2
s(Vinsert
p736
I42
VSimpleName: mockMainActivity
p737
tp738
I3
s(Vinsert
p739
I66
VTextElement: Verify https uri
p740
tp741
I1
s(Vinsert
p742
I42
VSimpleName: RESULT_CANCELED
p743
tp744
I1
s(Vinsert
p745
I34
VNumberLiteral: 0
p746
tp747
I52
s(Vinsert
p748
I42
VSimpleName: repoIcon
p749
tp750
I2
s(Vinsert
p751
I34
VNumberLiteral: 68
p752
tp753
I1
s(Vinsert
p754
I42
VSimpleName: setTitle
p755
tp756
I21
s(Vinsert
p757
I40
VQualifiedName: id.m_wrap
p758
tp759
I2
s(Vinsert
p760
I42
VSimpleName: merged
p761
tp762
I1
s(Vinsert
p763
I43
VSimpleType: Iterable
p764
tp765
I1
s(Vinsert
p766
I42
VSimpleName: a
p767
tp768
I4
s(Vinsert
p769
I43
VSimpleType: IssuesFragment
p770
tp771
I1
s(Vinsert
p772
I43
VSimpleType: ArrayList
p773
tp774
I13
s(Vinsert
p775
I42
VSimpleName: CommitViewActivity
p776
tp777
I5
s(Vinsert
p778
I42
VSimpleName: launchUri
p779
tp780
I3
s(Vinsert
p781
I42
VSimpleName: setListNavigationCallbacks
p782
tp783
I1
s(Vinsert
p784
I42
VSimpleName: loadUrl
p785
tp786
I1
s(Vinsert
p787
I42
VSimpleName: LoginActivity
p788
tp789
I2
s(Vinsert
p790
I42
VSimpleName: abbreviate
p791
tp792
I2
s(Vinsert
p793
I40
VQualifiedName: view.diff
p794
tp795
I1
s(Vinsert
p796
I42
VSimpleName: filters
p797
tp798
I3
s(Vinsert
p799
I42
VSimpleName: rawHtmlCache
p800
tp801
I1
s(Vinsert
p802
I42
VSimpleName: HomePagerAdapter
p803
tp804
I1
s(Vinsert
p805
I42
VSimpleName: RetrofitError
p806
tp807
I5
s(Vinsert
p808
I42
VSimpleName: setId
p809
tp810
I10
s(Vinsert
p811
I43
VSimpleType: TypedArray
p812
tp813
I1
s(Vinsert
p814
I34
VNumberLiteral: 8
p815
tp816
I2
s(Vinsert
p817
I42
VSimpleName: getPassword
p818
tp819
I1
s(Vinsert
p820
I42
VSimpleName: issueId
p821
tp822
I1
s(Vinsert
p823
I42
VSimpleName: putParcelable
p824
tp825
I1
s(Vinsert
p826
I42
VSimpleName: poll
p827
tp828
I2
s(Vinsert
p829
I43
VSimpleType: Gson
p830
tp831
I5
s(Vinsert
p832
I45
VStringLiteral: "Assignee: "
p833
tp834
I1
s(Vinsert
p835
I43
VSimpleType: BaseAdapter
p836
tp837
I2
s(Vinsert
p838
I42
VSimpleName: transform
p839
tp840
I1
s(Vinsert
p841
I66
VTextElement:  possibly null repository
p842
tp843
I1
s(Vinsert
p844
I42
VSimpleName: setBodyHtml
p845
tp846
I2
s(Vinsert
p847
I40
VQualifiedName: id.et_gist_name
p848
tp849
I1
s(Vinsert
p850
I40
VQualifiedName: view.nameText
p851
tp852
I1
s(Vinsert
p853
I42
VSimpleName: setIndeterminate
p854
tp855
I6
s(Vinsert
p856
I42
VSimpleName: isEnabled
p857
tp858
I4
s(Vinsert
p859
I43
VSimpleType: LinkedList
p860
tp861
I1
s(Vinsert
p862
I42
VSimpleName: idText
p863
tp864
I1
s(Vinsert
p865
I42
VSimpleName: AccountLoader
p866
tp867
I1
s(Vinsert
p868
I40
VQualifiedName: Intents.EXTRA_REPOSITORY
p869
tp870
I1
s(Vinsert
p871
I40
VQualifiedName: story.details
p872
tp873
I1
s(Vinsert
p874
I42
VSimpleName: userAvatarDir
p875
tp876
I2
s(Vinsert
p877
I74
VParameterizedType: ObserverAdapter<IssueStory>
p878
tp879
I1
s(Vinsert
p880
I42
VSimpleName: putExtra
p881
tp882
I14
s(Vinsert
p883
I42
VSimpleName: observable
p884
tp885
I14
s(Vinsert
p886
I42
VSimpleName: Deque
p887
tp888
I1
s(Vinsert
p889
I42
VSimpleName: progressBar
p890
tp891
I1
s(Vinsert
p892
I42
VSimpleName: oAuthService
p893
tp894
I2
s(Vinsert
p895
I45
VStringLiteral: "https://api.github.com/repos"
p896
tp897
I1
s(Vinsert
p898
I57
VTypeLiteral
p899
tp900
I31
s(Vinsert
p901
I43
VSimpleType: Uri
p902
tp903
I6
s(Vinsert
p904
I42
VSimpleName: searchRepositories
p905
tp906
I1
s(Vinsert
p907
I42
VSimpleName: createArguments
p908
tp909
I3
s(Vinsert
p910
I5
VArrayType: FixedViewInfo[]
p911
tp912
I1
s(Vinsert
p913
I43
VSimpleType: MenuItem
p914
tp915
I17
s(Vinsert
p916
I42
VSimpleName: moveTo
p917
tp918
I1
s(Vinsert
p919
I42
VSimpleName: bodyView
p920
tp921
I4
s(Vinsert
p922
I42
VSimpleName: _24dp
p923
tp924
I2
s(Vinsert
p925
I43
VSimpleType: Builder
p926
tp927
I8
s(Vinsert
p928
I42
VSimpleName: SuppressWarnings
p929
tp930
I2
s(Vinsert
p931
I42
VSimpleName: bodyViewer
p932
tp933
I1
s(Vinsert
p934
I42
VSimpleName: convertView
p935
tp936
I3
s(Vinsert
p937
I40
VQualifiedName: FragmentEvent.ATTACH
p938
tp939
I1
s(Vinsert
p940
I42
VSimpleName: addPathSegment
p941
tp942
I2
s(Vinsert
p943
I14
VClassInstanceCreation
p944
tp945
I245
s(Vinsert
p946
I42
VSimpleName: ARG_MESSAGE
p947
tp948
I1
s(Vinsert
p949
I42
VSimpleName: info
p950
tp951
I3
s(Vinsert
p952
I42
VSimpleName: RepositoryContentService
p953
tp954
I1
s(Vinsert
p955
I42
VSimpleName: commits
p956
tp957
I8
s(Vinsert
p958
I42
VSimpleName: FragmentTransaction
p959
tp960
I1
s(Vinsert
p961
I42
VSimpleName: SearchPage
p962
tp963
I2
s(Vinsert
p964
I42
VSimpleName: RequestUtils
p965
tp966
I1
s(Vinsert
p967
I42
VSimpleName: shown
p968
tp969
I3
s(Vinsert
p970
I42
VSimpleName: NewIssueCommentClient
p971
tp972
I1
s(Vinsert
p973
I42
VSimpleName: childViewIndex
p974
tp975
I1
s(Vinsert
p976
I42
VSimpleName: isCreator
p977
tp978
I2
s(Vinsert
p979
I43
VSimpleType: RadioButton
p980
tp981
I1
s(Vinsert
p982
I42
VSimpleName: RecentRepos
p983
tp984
I4
s(Vinsert
p985
I65
VTagElement: @param
p986
tp987
I15
s(Vinsert
p988
I42
VSimpleName: slash
p989
tp990
I1
s(Vinsert
p991
I50
VSwitchStatement
p992
tp993
I22
s(Vinsert
p994
I42
VSimpleName: getScheme
p995
tp996
I2
s(Vinsert
p997
I42
VSimpleName: isSuccessful
p998
tp999
I1
s(Vinsert
p1000
I27
VInfixExpression: >=
p1001
tp1002
I2
s(Vinsert
p1003
I42
VSimpleName: fm
p1004
tp1005
I2
s(Vinsert
p1006
I40
VQualifiedName: R.layout.gist_view_file_item
p1007
tp1008
I2
s(Vinsert
p1009
I45
VStringLiteral: "id"
p1010
tp1011
I1
s(Vinsert
p1012
I40
VQualifiedName: id.iv_avatar
p1013
tp1014
I3
s(Vinsert
p1015
I42
VSimpleName: gistPage
p1016
tp1017
I1
s(Vinsert
p1018
I43
VSimpleType: MotionEvent
p1019
tp1020
I2
s(Vinsert
p1021
I42
VSimpleName: getAssignees
p1022
tp1023
I2
s(Vinsert
p1024
I40
VQualifiedName: java.util.Locale.US
p1025
tp1026
I1
s(Vinsert
p1027
I43
VSimpleType: Response
p1028
tp1029
I19
s(Vinsert
p1030
I42
VSimpleName: fastScroll
p1031
tp1032
I1
s(Vinsert
p1033
I42
VSimpleName: dashboardRoot
p1034
tp1035
I2
s(Vinsert
p1036
I42
VSimpleName: times
p1037
tp1038
I1
s(Vinsert
p1039
I42
VSimpleName: HttpRequestUtils
p1040
tp1041
I2
s(Vinsert
p1042
I42
VSimpleName: defaultMessage
p1043
tp1044
I1
s(Vinsert
p1045
I42
VSimpleName: index
p1046
tp1047
I5
s(Vinsert
p1048
I42
VSimpleName: List
p1049
tp1050
I47
s(Vinsert
p1051
I42
VSimpleName: indented
p1052
tp1053
I2
s(Vinsert
p1054
I40
VQualifiedName: com.alorma.github.sdk.bean.dto.request.CommentRequest
p1055
tp1056
I1
s(Vinsert
p1057
I42
VSimpleName: AppBarLayout
p1058
tp1059
I1
s(Vinsert
p1060
I42
VSimpleName: getClassLoader
p1061
tp1062
I1
s(Vinsert
p1063
I42
VSimpleName: Context
p1064
tp1065
I16
s(Vinsert
p1066
I43
VSimpleType: IssueReference
p1067
tp1068
I2
s(Vinsert
p1069
I42
VSimpleName: find
p1070
tp1071
I24
s(Vinsert
p1072
I45
VStringLiteral: "."
p1073
tp1074
I1
s(Vinsert
p1075
I76
VWildcardType: ? super FullCommit
p1076
tp1077
I1
s(Vinsert
p1078
I42
VSimpleName: eraseColor
p1079
tp1080
I1
s(Vinsert
p1081
I42
VSimpleName: setImage
p1082
tp1083
I2
s(Vinsert
p1084
I42
VSimpleName: bodyText
p1085
tp1086
I1
s(Vinsert
p1087
I42
VSimpleName: ITEM_HEADER
p1088
tp1089
I1
s(Vinsert
p1090
I40
VQualifiedName: layout.pager
p1091
tp1092
I1
s(Vinsert
p1093
I42
VSimpleName: getOutputStream
p1094
tp1095
I1
s(Vinsert
p1096
I39
VPrimitiveType: int
p1097
tp1098
I155
s(Vinsert
p1099
I42
VSimpleName: getMenuInflater
p1100
tp1101
I2
s(Vinsert
p1102
I42
VSimpleName: assignees
p1103
tp1104
I1
s(Vinsert
p1105
I43
VSimpleType: GistFragment
p1106
tp1107
I3
s(Vinsert
p1108
I42
VSimpleName: scopes
p1109
tp1110
I3
s(Vinsert
p1111
I42
VSimpleName: onStart
p1112
tp1113
I2
s(Vinsert
p1114
I40
VQualifiedName: android.text.Html
p1115
tp1116
I1
s(Vinsert
p1117
I40
VQualifiedName: owner.id
p1118
tp1119
I1
s(Vinsert
p1120
I42
VSimpleName: replace
p1121
tp1122
I7
s(Vinsert
p1123
I43
VSimpleType: ViewFinder
p1124
tp1125
I2
s(Vinsert
p1126
I42
VSimpleName: loggable
p1127
tp1128
I3
s(Vinsert
p1129
I42
VSimpleName: AccountAuthenticatorResponse
p1130
tp1131
I1
s(Vinsert
p1132
I42
VSimpleName: indentLevel
p1133
tp1134
I4
s(Vinsert
p1135
I5
VArrayType: GistFile[]
p1136
tp1137
I1
s(Vinsert
p1138
I42
VSimpleName: hashed
p1139
tp1140
I1
s(Vinsert
p1141
I42
VSimpleName: setNotifyReleaseStages
p1142
tp1143
I1
s(Vinsert
p1144
I74
VParameterizedType: List<CommitComment>
p1145
tp1146
I2
s(Vinsert
p1147
I43
VSimpleType: SQLException
p1148
tp1149
I1
s(Vinsert
p1150
I42
VSimpleName: getRepositoryLabels
p1151
tp1152
I2
s(Vinsert
p1153
I42
VSimpleName: addToBackStack
p1154
tp1155
I1
s(Vinsert
p1156
I42
VSimpleName: v
p1157
tp1158
I26
s(Vinsert
p1159
I42
VSimpleName: TYPE_PULL_REQUEST_REVIEW_COMMENT
p1160
tp1161
I2
s(Vinsert
p1162
I42
VSimpleName: fileView
p1163
tp1164
I1
s(Vinsert
p1165
I43
VSimpleType: FragmentPagerAdapter
p1166
tp1167
I2
s(Vinsert
p1168
I42
VSimpleName: eventRepoToRepo
p1169
tp1170
I2
s(Vinsert
p1171
I42
VSimpleName: refresh
p1172
tp1173
I6
s(Vinsert
p1174
I42
VSimpleName: getPaintFlags
p1175
tp1176
I2
s(Vinsert
p1177
I42
VSimpleName: which
p1178
tp1179
I6
s(Vinsert
p1180
I42
VSimpleName: response
p1181
tp1182
I15
s(Vinsert
p1183
I43
VSimpleType: CommentItemView
p1184
tp1185
I1
s(Vinsert
p1186
I45
VStringLiteral: "Exception starring gist"
p1187
tp1188
I1
s(Vinsert
p1189
I66
VTextElement: Reference
p1190
tp1191
I1
s(Vinsert
p1192
I42
VSimpleName: configureDotPager
p1193
tp1194
I2
s(Vinsert
p1195
I29
VJavadoc
p1196
tp1197
I13
s(Vinsert
p1198
I42
VSimpleName: setVerticalScrollBarEnabled
p1199
tp1200
I1
s(Vinsert
p1201
I43
VSimpleType: SearchManager
p1202
tp1203
I3
s(Vinsert
p1204
I42
VSimpleName: next
p1205
tp1206
I8
s(Vinsert
p1207
I43
VSimpleType: RequestFacade
p1208
tp1209
I1
s(Vinsert
p1210
I42
VSimpleName: getGravatarId
p1211
tp1212
I3
s(Vinsert
p1213
I42
VSimpleName: setEnabled
p1214
tp1215
I6
s(Vinsert
p1216
I43
VSimpleType: TextView
p1217
tp1218
I77
s(Vinsert
p1219
I34
VNumberLiteral: 1
p1220
tp1221
I41
s(Vinsert
p1222
I42
VSimpleName: delete
p1223
tp1224
I7
s(Vinsert
p1225
I42
VSimpleName: RxLifecycle
p1226
tp1227
I2
s(Vinsert
p1228
I42
VSimpleName: scopeMap
p1229
tp1230
I4
s(Vinsert
p1231
I42
VSimpleName: setActivityIntent
p1232
tp1233
I3
s(Vinsert
p1234
I42
VSimpleName: AlertDialog
p1235
tp1236
I3
s(Vinsert
p1237
I42
VSimpleName: gravatarId
p1238
tp1239
I4
s(Vinsert
p1240
I74
VParameterizedType: ArrayList<User>
p1241
tp1242
I2
s(Vinsert
p1243
I40
VQualifiedName: R.id.rb_asc
p1244
tp1245
I1
s(Vinsert
p1246
I42
VSimpleName: isEditorApplyAvailable
p1247
tp1248
I1
s(Vinsert
p1249
I42
VSimpleName: ObserverAdapter
p1250
tp1251
I5
s(Vinsert
p1252
I42
VSimpleName: EXTRA_BASE
p1253
tp1254
I3
s(Vinsert
p1255
I40
VQualifiedName: Request.Builder
p1256
tp1257
I1
s(Vinsert
p1258
I42
VSimpleName: segment
p1259
tp1260
I2
s(Vinsert
p1261
I42
VSimpleName: html
p1262
tp1263
I19
s(Vinsert
p1264
I42
VSimpleName: page
p1265
tp1266
I31
s(Vinsert
p1267
I42
VSimpleName: closed
p1268
tp1269
I3
s(Vinsert
p1270
I40
VQualifiedName: Intent.ACTION_GET_CONTENT
p1271
tp1272
I2
s(Vinsert
p1273
I42
VSimpleName: userLogin
p1274
tp1275
I1
s(Vinsert
p1276
I42
VSimpleName: ActionBarActivity
p1277
tp1278
I1
s(Vinsert
p1279
I42
VSimpleName: token
p1280
tp1281
I1
s(Vinsert
p1282
I40
VQualifiedName: com.github.mobile.Intents.EXTRA_USER
p1283
tp1284
I1
s(Vinsert
p1285
I42
VSimpleName: getStringArrayExtra
p1286
tp1287
I4
s(Vinsert
p1288
I43
VSimpleType: AccountsException
p1289
tp1290
I1
s(Vinsert
p1291
I74
VParameterizedType: List<Issue>
p1292
tp1293
I5
s(Vinsert
p1294
I43
VSimpleType: GistStore
p1295
tp1296
I1
s(Vinsert
p1297
I42
VSimpleName: CallSuper
p1298
tp1299
I3
s(Vinsert
p1300
I42
VSimpleName: execute
p1301
tp1302
I11
s(Vinsert
p1303
I42
VSimpleName: StyleSpan
p1304
tp1305
I2
s(Vinsert
p1306
I45
VStringLiteral: "'"
p1307
tp1308
I1
s(Vinsert
p1309
I42
VSimpleName: createObserver
p1310
tp1311
I3
s(Vinsert
p1312
I43
VSimpleType: IconAndViewTextManager
p1313
tp1314
I3
s(Vinsert
p1315
I42
VSimpleName: l1
p1316
tp1317
I2
s(Vinsert
p1318
I43
VSimpleType: WebSettings
p1319
tp1320
I1
s(Vinsert
p1321
I42
VSimpleName: mkdirs
p1322
tp1323
I1
s(Vinsert
p1324
I42
VSimpleName: dialog
p1325
tp1326
I25
s(Vinsert
p1327
I42
VSimpleName: AccountsException
p1328
tp1329
I1
s(Vinsert
p1330
I42
VSimpleName: Style
p1331
tp1332
I1
s(Vinsert
p1333
I42
VSimpleName: issueInfo
p1334
tp1335
I1
s(Vinsert
p1336
I42
VSimpleName: getFragmentManager
p1337
tp1338
I1
s(Vinsert
p1339
I33
VNullLiteral
p1340
tp1341
I273
s(Vinsert
p1342
I45
VStringLiteral: "dialog cancel has been invoked"
p1343
tp1344
I1
s(Vinsert
p1345
I43
VSimpleType: UserReposClient
p1346
tp1347
I1
s(Vinsert
p1348
I45
VStringLiteral: "orgs"
p1349
tp1350
I1
s(Vinsert
p1351
I42
VSimpleName: emailStart
p1352
tp1353
I1
s(Vinsert
p1354
I42
VSimpleName: WebSettings
p1355
tp1356
I1
s(Vinsert
p1357
I42
VSimpleName: toDisplay
p1358
tp1359
I1
s(Vinsert
p1360
I42
VSimpleName: getDotCenterY
p1361
tp1362
I2
s(Vinsert
p1363
I42
VSimpleName: getReadableDatabase
p1364
tp1365
I1
s(Vinsert
p1366
I42
VSimpleName: containerId
p1367
tp1368
I1
s(Vinsert
p1369
I42
VSimpleName: tp
p1370
tp1371
I2
s(Vinsert
p1372
I42
VSimpleName: AllReposForUserOrOrg
p1373
tp1374
I1
s(Vinsert
p1375
I45
VStringLiteral: "description"
p1376
tp1377
I1
s(Vinsert
p1378
I40
VQualifiedName: R.string.error_starring_repository
p1379
tp1380
I1
s(Vinsert
p1381
I43
VSimpleType: GZIPInputStream
p1382
tp1383
I1
s(Vinsert
p1384
I42
VSimpleName: pathShowing
p1385
tp1386
I4
s(Vinsert
p1387
I40
VQualifiedName: string.issue_title
p1388
tp1389
I2
s(Vinsert
p1390
I42
VSimpleName: orgSelected
p1391
tp1392
I1
s(Vinsert
p1393
I42
VSimpleName: position
p1394
tp1395
I86
s(Vinsert
p1396
I42
VSimpleName: createTempFile
p1397
tp1398
I1
s(Vinsert
p1399
I42
VSimpleName: NonNull
p1400
tp1401
I13
s(Vinsert
p1402
I43
VSimpleType: SearchView
p1403
tp1404
I4
s(Vinsert
p1405
I43
VSimpleType: HomeActivity
p1406
tp1407
I7
s(Vinsert
p1408
I42
VSimpleName: markerColor
p1409
tp1410
I1
s(Vinsert
p1411
I42
VSimpleName: download
p1412
tp1413
I2
s(Vinsert
p1414
I40
VQualifiedName: org.login
p1415
tp1416
I1
s(Vinsert
p1417
I42
VSimpleName: candidate
p1418
tp1419
I1
s(Vinsert
p1420
I27
VInfixExpression: >
p1421
tp1422
I16
s(Vinsert
p1423
I42
VSimpleName: V
p1424
tp1425
I7
s(Vinsert
p1426
I42
VSimpleName: assigneeText
p1427
tp1428
I3
s(Vinsert
p1429
I42
VSimpleName: loading
p1430
tp1431
I2
s(Vinsert
p1432
I43
VSimpleType: LabelsDrawable
p1433
tp1434
I2
s(Vinsert
p1435
I42
VSimpleName: parseInt
p1436
tp1437
I1
s(Vinsert
p1438
I74
VParameterizedType: List<Contributor>
p1439
tp1440
I1
s(Vinsert
p1441
I42
VSimpleName: getDirection
p1442
tp1443
I1
s(Vinsert
p1444
I42
VSimpleName: swipeLayout
p1445
tp1446
I2
s(Vinsert
p1447
I42
VSimpleName: serviceProvider
p1448
tp1449
I2
s(Vinsert
p1450
I40
VQualifiedName: GitHubIntents.EXTRA_ISSUE_NUMBER
p1451
tp1452
I1
s(Vinsert
p1453
I42
VSimpleName: setProgressStyle
p1454
tp1455
I1
s(Vinsert
p1456
I40
VQualifiedName: names.length
p1457
tp1458
I1
s(Vinsert
p1459
I43
VSimpleType: Content
p1460
tp1461
I1
s(Vinsert
p1462
I42
VSimpleName: MD5
p1463
tp1464
I4
s(Vinsert
p1465
I42
VSimpleName: getMembers
p1466
tp1467
I2
s(Vinsert
p1468
I40
VQualifiedName: com.github.mobile.android.repo.RepoBrowseActivity
p1469
tp1470
I1
s(Vinsert
p1471
I42
VSimpleName: CHARSET_UTF8
p1472
tp1473
I1
s(Vinsert
p1474
I43
VSimpleType: RecentRepos
p1475
tp1476
I5
s(Vinsert
p1477
I42
VSimpleName: addFlags
p1478
tp1479
I7
s(Vinsert
p1480
I42
VSimpleName: to
p1481
tp1482
I1
s(Vinsert
p1483
I42
VSimpleName: setAlpha
p1484
tp1485
I2
s(Vinsert
p1486
I42
VSimpleName: onLoaderReset
p1487
tp1488
I3
s(Vinsert
p1489
I42
VSimpleName: IssuesViewActivity
p1490
tp1491
I2
s(Vinsert
p1492
I43
VSimpleType: NotificationThread
p1493
tp1494
I1
s(Vinsert
p1495
I42
VSimpleName: GithubEvent
p1496
tp1497
I3
s(Vinsert
p1498
I42
VSimpleName: getHtmlUrl
p1499
tp1500
I3
s(Vinsert
p1501
I42
VSimpleName: Menu
p1502
tp1503
I8
s(Vinsert
p1504
I42
VSimpleName: comments
p1505
tp1506
I15
s(Vinsert
p1507
I42
VSimpleName: PostNewIssueClient
p1508
tp1509
I1
s(Vinsert
p1510
I40
VQualifiedName: commit.repository
p1511
tp1512
I2
s(Vinsert
p1513
I43
VSimpleType: TextPaint
p1514
tp1515
I1
s(Vinsert
p1516
I42
VSimpleName: MaterialDialog
p1517
tp1518
I8
s(Vinsert
p1519
I42
VSimpleName: LightAlertDialog
p1520
tp1521
I2
s(Vinsert
p1522
I40
VQualifiedName: layout.pager_with_title
p1523
tp1524
I3
s(Vinsert
p1525
I42
VSimpleName: filter2
p1526
tp1527
I1
s(Vinsert
p1528
I45
VStringLiteral: "aa"
p1529
tp1530
I1
s(Vinsert
p1531
I42
VSimpleName: AnimationUtils
p1532
tp1533
I1
s(Vinsert
p1534
I42
VSimpleName: paddingBottom
p1535
tp1536
I1
s(Vinsert
p1537
I43
VSimpleType: Commit
p1538
tp1539
I7
s(Vinsert
p1540
I42
VSimpleName: commitAuthor
p1541
tp1542
I2
s(Vinsert
p1543
I42
VSimpleName: clearHistory
p1544
tp1545
I1
s(Vinsert
p1546
I42
VSimpleName: DiffStyler
p1547
tp1548
I3
s(Vinsert
p1549
I42
VSimpleName: getAdditions
p1550
tp1551
I2
s(Vinsert
p1552
I43
VSimpleType: PullRequestsFragment
p1553
tp1554
I1
s(Vinsert
p1555
I42
VSimpleName: IssueUtils
p1556
tp1557
I1
s(Vinsert
p1558
I40
VQualifiedName: com.github.mobile.accounts.AccountUtils
p1559
tp1560
I1
s(Vinsert
p1561
I42
VSimpleName: EventRepository
p1562
tp1563
I1
s(Vinsert
p1564
I42
VSimpleName: onResume
p1565
tp1566
I4
s(Vinsert
p1567
I40
VQualifiedName: R.string.editing_comment
p1568
tp1569
I2
s(Vinsert
p1570
I42
VSimpleName: repo1
p1571
tp1572
I2
s(Vinsert
p1573
I43
VSimpleType: CommitComment
p1574
tp1575
I6
s(Vinsert
p1576
I42
VSimpleName: renderedMarkdown
p1577
tp1578
I1
s(Vinsert
p1579
I66
VTextElement:  intent
p1580
tp1581
I1
s(Vinsert
p1582
I42
VSimpleName: UserFollowerService
p1583
tp1584
I1
s(Vinsert
p1585
I2
VArrayAccess
p1586
tp1587
I29
s(Vinsert
p1588
I42
VSimpleName: Contributor
p1589
tp1590
I2
s(Vinsert
p1591
I42
VSimpleName: head
p1592
tp1593
I2
s(Vinsert
p1594
I42
VSimpleName: register
p1595
tp1596
I4
s(Vinsert
p1597
I42
VSimpleName: AccountAuthenticator
p1598
tp1599
I1
s(Vinsert
p1600
I42
VSimpleName: registerOrgSelectionListener
p1601
tp1602
I2
s(Vinsert
p1603
I42
VSimpleName: SearchRepositoryItemView
p1604
tp1605
I1
s(Vinsert
p1606
I42
VSimpleName: setInverseBackgroundForced
p1607
tp1608
I2
s(Vinsert
p1609
I49
VSwitchCase
p1610
tp1611
I21
s(Vinsert
p1612
I42
VSimpleName: UnsupportedOperationException
p1613
tp1614
I1
s(Vinsert
p1615
I74
VParameterizedType: RequestFuture<List<Repository>>
p1616
tp1617
I2
s(Vinsert
p1618
I40
VQualifiedName: repository.owner.login
p1619
tp1620
I2
s(Vinsert
p1621
I45
VStringLiteral: "abc"
p1622
tp1623
I1
s(Vinsert
p1624
I42
VSimpleName: elements
p1625
tp1626
I2
s(Vinsert
p1627
I40
VQualifiedName: android.content.Intent.EXTRA_SUBJECT
p1628
tp1629
I1
s(Vinsert
p1630
I42
VSimpleName: CommentRequest
p1631
tp1632
I6
s(Vinsert
p1633
I43
VSimpleType: LoginWebViewActivity
p1634
tp1635
I2
s(Vinsert
p1636
I86
VLambdaExpression
p1637
tp1638
I29
s(Vinsert
p1639
I42
VSimpleName: d
p1640
tp1641
I35
s(Vinsert
p1642
I74
VParameterizedType: Subscriber<? super FullGist>
p1643
tp1644
I1
s(Vinsert
p1645
I42
VSimpleName: otpCodeText
p1646
tp1647
I1
s(Vinsert
p1648
I42
VSimpleName: UserEventMatcher
p1649
tp1650
I2
s(Vinsert
p1651
I42
VSimpleName: Math
p1652
tp1653
I8
s(Vinsert
p1654
I43
VSimpleType: GitComment
p1655
tp1656
I2
s(Vinsert
p1657
I42
VSimpleName: moveToFirst
p1658
tp1659
I2
s(Vinsert
p1660
I40
VQualifiedName: com.github.mobile.util.HtmlUtils
p1661
tp1662
I2
s(Vinsert
p1663
I42
VSimpleName: commitCommitter
p1664
tp1665
I1
s(Vinsert
p1666
I42
VSimpleName: setOrgs
p1667
tp1668
I1
s(Vinsert
p1669
I42
VSimpleName: request
p1670
tp1671
I29
s(Vinsert
p1672
I42
VSimpleName: ViewGroup
p1673
tp1674
I6
s(Vinsert
p1675
I74
VParameterizedType: ViewHoldingListAdapter<E>
p1676
tp1677
I1
s(Vinsert
p1678
I77
VNormalAnnotation
p1679
tp1680
I1
s(Vinsert
p1681
I74
VParameterizedType: PagedRequest<V>
p1682
tp1683
I2
s(Vinsert
p1684
I43
VSimpleType: ViewGistActivity
p1685
tp1686
I1
s(Vinsert
p1687
I42
VSimpleName: AUTHENTICATOR_CHECKED
p1688
tp1689
I1
s(Vinsert
p1690
I42
VSimpleName: URLEncoder
p1691
tp1692
I1
s(Vinsert
p1693
I42
VSimpleName: MenuItemCompat
p1694
tp1695
I2
s(Vinsert
p1696
I42
VSimpleName: MemberEventPayload
p1697
tp1698
I1
s(Vinsert
p1699
I42
VSimpleName: issueStory
p1700
tp1701
I1
s(Vinsert
p1702
I42
VSimpleName: setAdapter
p1703
tp1704
I6
s(Vinsert
p1705
I42
VSimpleName: viewRepository
p1706
tp1707
I2
s(Vinsert
p1708
I45
VStringLiteral: "Skipping Beam test, device doesn't support Beam API"
p1709
tp1710
I1
s(Vinsert
p1711
I42
VSimpleName: SpannableStringBuilder
p1712
tp1713
I1
s(Vinsert
p1714
I42
VSimpleName: MenuItem
p1715
tp1716
I15
s(Vinsert
p1717
I42
VSimpleName: getMessage
p1718
tp1719
I5
s(Vinsert
p1720
I42
VSimpleName: initialComments
p1721
tp1722
I2
s(Vinsert
p1723
I42
VSimpleName: fadeIn
p1724
tp1725
I2
s(Vinsert
p1726
I42
VSimpleName: addAll
p1727
tp1728
I8
s(Vinsert
p1729
I42
VSimpleName: putAll
p1730
tp1731
I1
s(Vinsert
p1732
I40
VQualifiedName: layout.issue_dashboard
p1733
tp1734
I1
s(Vinsert
p1735
I42
VSimpleName: setFilter
p1736
tp1737
I1
s(Vinsert
p1738
I34
VNumberLiteral: 0L
p1739
tp1740
I1
s(Vinsert
p1741
I42
VSimpleName: AccountManager
p1742
tp1743
I19
s(Vinsert
p1744
I42
VSimpleName: selectedUserViewFactory
p1745
tp1746
I1
s(Vinsert
p1747
I74
VParameterizedType: ThrowableLoader<List<E>>
p1748
tp1749
I1
s(Vinsert
p1750
I40
VQualifiedName: android.support.v4.view.MenuItem
p1751
tp1752
I1
s(Vinsert
p1753
I42
VSimpleName: rendered
p1754
tp1755
I2
s(Vinsert
p1756
I42
VSimpleName: textFragment
p1757
tp1758
I4
s(Vinsert
p1759
I39
VPrimitiveType: byte
p1760
tp1761
I2
s(Vinsert
p1762
I42
VSimpleName: abs
p1763
tp1764
I1
s(Vinsert
p1765
I42
VSimpleName: UriLauncherActivity
p1766
tp1767
I1
s(Vinsert
p1768
I42
VSimpleName: getSerializableExtra
p1769
tp1770
I14
s(Vinsert
p1771
I42
VSimpleName: getQueryParameter
p1772
tp1773
I2
s(Vinsert
p1774
I42
VSimpleName: branch
p1775
tp1776
I6
s(Vinsert
p1777
I42
VSimpleName: round
p1778
tp1779
I3
s(Vinsert
p1780
I43
VSimpleType: Animation
p1781
tp1782
I1
s(Vinsert
p1783
I40
VQualifiedName: org.joda.time.format.DateTimeFormatter
p1784
tp1785
I1
s(Vinsert
p1786
I42
VSimpleName: getItemAtPosition
p1787
tp1788
I12
s(Vinsert
p1789
I42
VSimpleName: createCommitInfo
p1790
tp1791
I2
s(Vinsert
p1792
I42
VSimpleName: setMovementMethod
p1793
tp1794
I4
s(Vinsert
p1795
I5
VArrayType: int[]
p1796
tp1797
I3
s(Vinsert
p1798
I42
VSimpleName: issueFragment
p1799
tp1800
I1
s(Vinsert
p1801
I42
VSimpleName: idWidth
p1802
tp1803
I5
s(Vinsert
p1804
I42
VSimpleName: mFragmentContainerView
p1805
tp1806
I1
s(Vinsert
p1807
I42
VSimpleName: comment
p1808
tp1809
I22
s(Vinsert
p1810
I40
VQualifiedName: repo.description
p1811
tp1812
I1
s(Vinsert
p1813
I42
VSimpleName: transaction
p1814
tp1815
I2
s(Vinsert
p1816
I45
VStringLiteral: "languages"
p1817
tp1818
I1
s(Vinsert
p1819
I42
VSimpleName: singletonList
p1820
tp1821
I3
s(Vinsert
p1822
I40
VQualifiedName: fullTree.reference
p1823
tp1824
I1
s(Vinsert
p1825
I42
VSimpleName: RestAdapter
p1826
tp1827
I2
s(Vinsert
p1828
I42
VSimpleName: startActivity
p1829
tp1830
I18
s(Vinsert
p1831
I42
VSimpleName: setAuthToken
p1832
tp1833
I1
s(Vinsert
p1834
I42
VSimpleName: bindHtml
p1835
tp1836
I2
s(Vinsert
p1837
I42
VSimpleName: from
p1838
tp1839
I4
s(Vinsert
p1840
I42
VSimpleName: randomPage
p1841
tp1842
I2
s(Vinsert
p1843
I42
VSimpleName: container
p1844
tp1845
I9
s(Vinsert
p1846
I42
VSimpleName: FragmentManager
p1847
tp1848
I2
s(Vinsert
p1849
I42
VSimpleName: TextView
p1850
tp1851
I75
s(Vinsert
p1852
I43
VSimpleType: B
p1853
tp1854
I1
s(Vinsert
p1855
I40
VQualifiedName: milestone.title
p1856
tp1857
I1
s(Vinsert
p1858
I42
VSimpleName: getItemId
p1859
tp1860
I26
s(Vinsert
p1861
I42
VSimpleName: getMirrorUrl
p1862
tp1863
I2
s(Vinsert
p1864
I42
VSimpleName: dismiss
p1865
tp1866
I5
s(Vinsert
p1867
I42
VSimpleName: getRootAdapter
p1868
tp1869
I1
s(Vinsert
p1870
I43
VSimpleType: SwipeRefreshLayout
p1871
tp1872
I2
s(Vinsert
p1873
I43
VSimpleType: Resources
p1874
tp1875
I3
s(Vinsert
p1876
I42
VSimpleName: resId
p1877
tp1878
I3
s(Vinsert
p1879
I45
VStringLiteral: "http://github.com/defunkt"
p1880
tp1881
I1
s(Vinsert
p1882
I42
VSimpleName: stateItem
p1883
tp1884
I2
s(Vinsert
p1885
I42
VSimpleName: saveAsync
p1886
tp1887
I1
s(Vinsert
p1888
I42
VSimpleName: object
p1889
tp1890
I5
s(Vinsert
p1891
I42
VSimpleName: ACTION_VIEW
p1892
tp1893
I1
s(Vinsert
p1894
I42
VSimpleName: onPageSelected
p1895
tp1896
I7
s(Vinsert
p1897
I42
VSimpleName: recent1
p1898
tp1899
I1
s(Vinsert
p1900
I42
VSimpleName: shareCommit
p1901
tp1902
I2
s(Vinsert
p1903
I40
VQualifiedName: BaseClient.OnResultCallback
p1904
tp1905
I2
s(Vinsert
p1906
I43
VSimpleType: ViewHoldingListAdapter
p1907
tp1908
I6
s(Vinsert
p1909
I42
VSimpleName: gson
p1910
tp1911
I7
s(Vinsert
p1912
I42
VSimpleName: icon
p1913
tp1914
I6
s(Vinsert
p1915
I43
VSimpleType: Fragment
p1916
tp1917
I5
s(Vinsert
p1918
I42
VSimpleName: EXTRA_COMMENT
p1919
tp1920
I1
s(Vinsert
p1921
I42
VSimpleName: getPaddingLeft
p1922
tp1923
I7
s(Vinsert
p1924
I42
VSimpleName: getRepo
p1925
tp1926
I2
s(Vinsert
p1927
I42
VSimpleName: ListViewUtils
p1928
tp1929
I1
s(Vinsert
p1930
I42
VSimpleName: loginEnabled
p1931
tp1932
I2
s(Vinsert
p1933
I40
VQualifiedName: syncResult.stats.numIoExceptions
p1934
tp1935
I2
s(Vinsert
p1936
I42
VSimpleName: logMessage
p1937
tp1938
I1
s(Vinsert
p1939
I42
VSimpleName: IssueRequest
p1940
tp1941
I3
s(Vinsert
p1942
I43
VSimpleType: HttpRequest
p1943
tp1944
I3
s(Vinsert
p1945
I42
VSimpleName: getBitmap
p1946
tp1947
I1
s(Vinsert
p1948
I42
VSimpleName: loaded
p1949
tp1950
I5
s(Vinsert
p1951
I40
VQualifiedName: java.text.NumberFormat
p1952
tp1953
I6
s(Vinsert
p1954
I42
VSimpleName: progressDialog
p1955
tp1956
I6
s(Vinsert
p1957
I42
VSimpleName: set
p1958
tp1959
I5
s(Vinsert
p1960
I43
VSimpleType: BitmapFileStore
p1961
tp1962
I1
s(Vinsert
p1963
I42
VSimpleName: name
p1964
tp1965
I54
s(Vinsert
p1966
I43
VSimpleType: FilterItemView
p1967
tp1968
I1
s(Vinsert
p1969
I42
VSimpleName: getApplication
p1970
tp1971
I2
s(Vinsert
p1972
I42
VSimpleName: valueOf
p1973
tp1974
I4
s(Vinsert
p1975
I40
VQualifiedName: id.b_filter
p1976
tp1977
I1
s(Vinsert
p1978
I40
VQualifiedName: view.repoIcon
p1979
tp1980
I1
s(Vinsert
p1981
I43
VSimpleType: GetSingleCommitClient
p1982
tp1983
I1
s(Vinsert
p1984
I45
VStringLiteral: "dummy_client"
p1985
tp1986
I1
s(Vinsert
p1987
I42
VSimpleName: Iterable
p1988
tp1989
I1
s(Vinsert
p1990
I42
VSimpleName: getBundleExtra
p1991
tp1992
I1
s(Vinsert
p1993
I45
VStringLiteral: "explore"
p1994
tp1995
I2
s(Vinsert
p1996
I42
VSimpleName: getStoreCredentials
p1997
tp1998
I1
s(Vinsert
p1999
I43
VSimpleType: ThrowableLoader
p2000
tp2001
I2
s(Vinsert
p2002
I45
VStringLiteral: "Updating milestone to: "
p2003
tp2004
I1
s(Vinsert
p2005
I42
VSimpleName: LayoutInflater
p2006
tp2007
I7
s(Vinsert
p2008
I43
VSimpleType: User
p2009
tp2010
I82
s(Vinsert
p2011
I40
VQualifiedName: id.tv_issue_body
p2012
tp2013
I3
s(Vinsert
p2014
I42
VSimpleName: GradientDrawable
p2015
tp2016
I1
s(Vinsert
p2017
I5
VArrayType: Account[]
p2018
tp2019
I6
s(Vinsert
p2020
I43
VSimpleType: PrivilegedAction
p2021
tp2022
I1
s(Vinsert
p2023
I42
VSimpleName: AvatarHelper
p2024
tp2025
I4
s(Vinsert
p2026
I16
VConditionalExpression
p2027
tp2028
I28
s(Vinsert
p2029
I42
VSimpleName: Gist
p2030
tp2031
I56
s(Vinsert
p2032
I42
VSimpleName: getApp
p2033
tp2034
I1
s(Vinsert
p2035
I42
VSimpleName: repo2
p2036
tp2037
I1
s(Vinsert
p2038
I42
VSimpleName: getUsers
p2039
tp2040
I1
s(Vinsert
p2041
I42
VSimpleName: setDisplayHomeAsUpEnabled
p2042
tp2043
I2
s(Vinsert
p2044
I43
VSimpleType: CommitMatch
p2045
tp2046
I2
s(Vinsert
p2047
I43
VSimpleType: EventPayload
p2048
tp2049
I5
s(Vinsert
p2050
I42
VSimpleName: milestoneArea
p2051
tp2052
I3
s(Vinsert
p2053
I43
VSimpleType: GradientDrawable
p2054
tp2055
I1
s(Vinsert
p2056
I43
VSimpleType: LoaderManager
p2057
tp2058
I1
s(Vinsert
p2059
I42
VSimpleName: current
p2060
tp2061
I18
s(Vinsert
p2062
I42
VSimpleName: Authorization
p2063
tp2064
I1
s(Vinsert
p2065
I45
VStringLiteral: "GistFragment"
p2066
tp2067
I1
s(Vinsert
p2068
I40
VQualifiedName: labels.length
p2069
tp2070
I2
s(Vinsert
p2071
I42
VSimpleName: toIssue
p2072
tp2073
I2
s(Vinsert
p2074
I3
VArrayCreation
p2075
tp2076
I11
s(Vinsert
p2077
I42
VSimpleName: Locale
p2078
tp2079
I1
s(Vinsert
p2080
I42
VSimpleName: TypefaceUtils
p2081
tp2082
I10
s(Vinsert
p2083
I40
VQualifiedName: id.tv_pull_request_icon
p2084
tp2085
I2
s(Vinsert
p2086
I42
VSimpleName: pagePublicGists
p2087
tp2088
I3
s(Vinsert
p2089
I42
VSimpleName: PublishGistCommentClient
p2090
tp2091
I2
s(Vinsert
p2092
I42
VSimpleName: setIcon
p2093
tp2094
I6
s(Vinsert
p2095
I42
VSimpleName: GithubIssueLabelsClient
p2096
tp2097
I2
s(Vinsert
p2098
I40
VQualifiedName: id.tv_folder_icon
p2099
tp2100
I1
s(Vinsert
p2101
I42
VSimpleName: getParcelableExtra
p2102
tp2103
I3
s(Vinsert
p2104
I42
VSimpleName: users
p2105
tp2106
I8
s(Vinsert
p2107
I40
VQualifiedName: com.github.mobile.android.util.GitHubIntents.EXTRA_GIST
p2108
tp2109
I1
s(Vinsert
p2110
I42
VSimpleName: EXTRA_REPOSITORIES
p2111
tp2112
I1
s(Vinsert
p2113
I40
VQualifiedName: org.avatar_url
p2114
tp2115
I1
s(Vinsert
p2116
I42
VSimpleName: numberWidth
p2117
tp2118
I8
s(Vinsert
p2119
I42
VSimpleName: getColor
p2120
tp2121
I6
s(Vinsert
p2122
I42
VSimpleName: prompt
p2123
tp2124
I8
s(Vinsert
p2125
I43
VSimpleType: HashMap
p2126
tp2127
I3
s(Vinsert
p2128
I42
VSimpleName: GetReferencesClient
p2129
tp2130
I1
s(Vinsert
p2131
I42
VSimpleName: footers
p2132
tp2133
I2
s(Vinsert
p2134
I42
VSimpleName: ToastUtils
p2135
tp2136
I11
s(Vinsert
p2137
I17
VConstructorInvocation
p2138
tp2139
I1
s(Vinsert
p2140
I42
VSimpleName: credentials
p2141
tp2142
I1
s(Vinsert
p2143
I66
VTextElement: This methods clears any fragments that may not apply to the newly selected org.
p2144
tp2145
I1
s(Vinsert
p2146
I42
VSimpleName: getContributors
p2147
tp2148
I2
s(Vinsert
p2149
I42
VSimpleName: copyHashToClipboard
p2150
tp2151
I1
s(Vinsert
p2152
I42
VSimpleName: getArguments
p2153
tp2154
I4
s(Vinsert
p2155
I74
VParameterizedType: Loader<List<User>>
p2156
tp2157
I2
s(Vinsert
p2158
I34
VNumberLiteral: 410
p2159
tp2160
I1
s(Vinsert
p2161
I42
VSimpleName: lPath
p2162
tp2163
I3
s(Vinsert
p2164
I42
VSimpleName: state
p2165
tp2166
I9
s(Vinsert
p2167
I42
VSimpleName: onOptionsItemSelected
p2168
tp2169
I10
s(Vinsert
p2170
I66
VTextElement:  true if handled, false otherwise
p2171
tp2172
I1
s(Vinsert
p2173
I42
VSimpleName: photoPickerIntent
p2174
tp2175
I4
s(Vinsert
p2176
I42
VSimpleName: save
p2177
tp2178
I1
s(Vinsert
p2179
I42
VSimpleName: gist
p2180
tp2181
I55
s(Vinsert
p2182
I42
VSimpleName: fileHeader
p2183
tp2184
I2
s(Vinsert
p2185
I43
VSimpleType: OperationCanceledException
p2186
tp2187
I2
s(Vinsert
p2188
I42
VSimpleName: configure
p2189
tp2190
I10
s(Vinsert
p2191
I42
VSimpleName: createFromUrl
p2192
tp2193
I1
s(Vinsert
p2194
I43
VSimpleType: SSLContext
p2195
tp2196
I1
s(Vinsert
p2197
I42
VSimpleName: requestFocusFromTouch
p2198
tp2199
I1
s(Vinsert
p2200
I42
VSimpleName: OnLoadListener
p2201
tp2202
I2
s(Vinsert
p2203
I42
VSimpleName: RequestException
p2204
tp2205
I8
s(Vinsert
p2206
I42
VSimpleName: updateHeader
p2207
tp2208
I2
s(Vinsert
p2209
I42
VSimpleName: removeView
p2210
tp2211
I2
s(Vinsert
p2212
I42
VSimpleName: init
p2213
tp2214
I2
s(Vinsert
p2215
I42
VSimpleName: createDirectory
p2216
tp2217
I1
s(Vinsert
p2218
I42
VSimpleName: getCommitId
p2219
tp2220
I1
s(Vinsert
p2221
I42
VSimpleName: showList
p2222
tp2223
I1
s(Vinsert
p2224
I43
VSimpleType: OrgsMembersClient
p2225
tp2226
I1
s(Vinsert
p2227
I42
VSimpleName: setMarkdown
p2228
tp2229
I1
s(Vinsert
p2230
I42
VSimpleName: RepositoryService
p2231
tp2232
I3
s(Vinsert
p2233
I42
VSimpleName: isWhitespace
p2234
tp2235
I1
s(Vinsert
p2236
I42
VSimpleName: toBase64
p2237
tp2238
I1
s(Vinsert
p2239
I42
VSimpleName: setCurrentTab
p2240
tp2241
I3
s(Vinsert
p2242
I40
VQualifiedName: id.gist_create
p2243
tp2244
I1
s(Vinsert
p2245
I42
VSimpleName: matcher
p2246
tp2247
I15
s(Vinsert
p2248
I42
VSimpleName: title
p2249
tp2250
I15
s(Vinsert
p2251
I42
VSimpleName: auths
p2252
tp2253
I2
s(Vinsert
p2254
I40
VQualifiedName: comment.user.login
p2255
tp2256
I2
s(Vinsert
p2257
I43
VSimpleType: IssueInfo
p2258
tp2259
I2
s(Vinsert
p2260
I42
VSimpleName: size
p2261
tp2262
I47
s(Vinsert
p2263
I42
VSimpleName: pageUserReceivedEvents
p2264
tp2265
I1
s(Vinsert
p2266
I42
VSimpleName: queue
p2267
tp2268
I2
s(Vinsert
p2269
I42
VSimpleName: handleLogin
p2270
tp2271
I1
s(Vinsert
p2272
I42
VSimpleName: appendSpan
p2273
tp2274
I1
s(Vinsert
p2275
I42
VSimpleName: member
p2276
tp2277
I2
s(Vinsert
p2278
I42
VSimpleName: resources
p2279
tp2280
I16
s(Vinsert
p2281
I66
VTextElement: Verify authenticator is registered
p2282
tp2283
I1
s(Vinsert
p2284
I42
VSimpleName: RequestBody
p2285
tp2286
I1
s(Vinsert
p2287
I42
VSimpleName: IssueMilestoneService
p2288
tp2289
I1
s(Vinsert
p2290
I42
VSimpleName: isValidRef
p2291
tp2292
I1
s(Vinsert
p2293
I43
VSimpleType: MaterialDialog.Builder
p2294
tp2295
I5
s(Vinsert
p2296
I66
VTextElement:  if true, cached data will not be returned
p2297
tp2298
I1
s(Vinsert
p2299
I42
VSimpleName: item
p2300
tp2301
I39
s(Vinsert
p2302
I42
VSimpleName: submission
p2303
tp2304
I1
s(Vinsert
p2305
I40
VQualifiedName: event.payload
p2306
tp2307
I2
s(Vinsert
p2308
I42
VSimpleName: Typeface
p2309
tp2310
I4
s(Vinsert
p2311
I42
VSimpleName: WebView
p2312
tp2313
I3
s(Vinsert
p2314
I40
VQualifiedName: repository.default_branch
p2315
tp2316
I1
s(Vinsert
p2317
I42
VSimpleName: r
p2318
tp2319
I2
s(Vinsert
p2320
I74
VParameterizedType: AccountManagerFuture<Bundle>
p2321
tp2322
I1
s(Vinsert
p2323
I42
VSimpleName: NO_DESCRIPTION
p2324
tp2325
I3
s(Vinsert
p2326
I42
VSimpleName: states
p2327
tp2328
I3
s(Vinsert
p2329
I27
VInfixExpression: ||
p2330
tp2331
I36
s(Vinsert
p2332
I40
VQualifiedName: current.files
p2333
tp2334
I1
s(Vinsert
p2335
I42
VSimpleName: isLaidOut
p2336
tp2337
I1
s(Vinsert
p2338
I43
VSimpleType: Button
p2339
tp2340
I3
s(Vinsert
p2341
I42
VSimpleName: isValidCommit
p2342
tp2343
I1
s(Vinsert
p2344
I42
VSimpleName: ARG_FILTER
p2345
tp2346
I1
s(Vinsert
p2347
I42
VSimpleName: getEmail
p2348
tp2349
I1
s(Vinsert
p2350
I42
VSimpleName: LinkMovementMethod
p2351
tp2352
I2
s(Vinsert
p2353
I42
VSimpleName: onSuccess
p2354
tp2355
I16
s(Vinsert
p2356
I42
VSimpleName: showMoreFooter
p2357
tp2358
I1
s(Vinsert
p2359
I42
VSimpleName: findFragmentById
p2360
tp2361
I4
s(Vinsert
p2362
I43
VSimpleType: FileInputStream
p2363
tp2364
I1
s(Vinsert
p2365
I42
VSimpleName: savedInstanceState
p2366
tp2367
I37
s(Vinsert
p2368
I42
VSimpleName: reset
p2369
tp2370
I2
s(Vinsert
p2371
I42
VSimpleName: setSpan
p2372
tp2373
I3
s(Vinsert
p2374
I40
VQualifiedName: string.show_raw_markdown
p2375
tp2376
I1
s(Vinsert
p2377
I42
VSimpleName: HOST_DEFAULT
p2378
tp2379
I1
s(Vinsert
p2380
I34
VNumberLiteral: 5
p2381
tp2382
I3
s(Vinsert
p2383
I43
VSimpleType: Reference
p2384
tp2385
I5
s(Vinsert
p2386
I42
VSimpleName: moreButton
p2387
tp2388
I2
s(Vinsert
p2389
I45
VStringLiteral: "rw"
p2390
tp2391
I1
s(Vinsert
p2392
I42
VSimpleName: builder
p2393
tp2394
I60
s(Vinsert
p2395
I42
VSimpleName: assignee
p2396
tp2397
I9
s(Vinsert
p2398
I42
VSimpleName: UserService
p2399
tp2400
I2
s(Vinsert
p2401
I42
VSimpleName: issueFull
p2402
tp2403
I1
s(Vinsert
p2404
I42
VSimpleName: clearException
p2405
tp2406
I1
s(Vinsert
p2407
I42
VSimpleName: isEmpty
p2408
tp2409
I63
s(Vinsert
p2410
I45
VStringLiteral: "body"
p2411
tp2412
I1
s(Vinsert
p2413
I40
VQualifiedName: string.pull_request_commits
p2414
tp2415
I1
s(Vinsert
p2416
I45
VStringLiteral: "http://gist.github.com"
p2417
tp2418
I1
s(Vinsert
p2419
I42
VSimpleName: View
p2420
tp2421
I44
s(Vinsert
p2422
I42
VSimpleName: InfoUtils
p2423
tp2424
I17
s(Vinsert
p2425
I42
VSimpleName: contents
p2426
tp2427
I2
s(Vinsert
p2428
I42
VSimpleName: MAX_LABELS
p2429
tp2430
I1
s(Vinsert
p2431
I42
VSimpleName: EXTRA_SUBTITLE
p2432
tp2433
I1
s(Vinsert
p2434
I42
VSimpleName: Observable
p2435
tp2436
I11
s(Vinsert
p2437
I43
VSimpleType: CheckBox
p2438
tp2439
I1
s(Vinsert
p2440
I42
VSimpleName: HeaderFooterListAdapter
p2441
tp2442
I2
s(Vinsert
p2443
I42
VSimpleName: pages
p2444
tp2445
I3
s(Vinsert
p2446
I42
VSimpleName: pullRequestIcon
p2447
tp2448
I2
s(Vinsert
p2449
I42
VSimpleName: labelService
p2450
tp2451
I1
s(Vinsert
p2452
I42
VSimpleName: createButton
p2453
tp2454
I1
s(Vinsert
p2455
I74
VParameterizedType: Response<Boolean>
p2456
tp2457
I10
s(Vinsert
p2458
I42
VSimpleName: direction
p2459
tp2460
I2
s(Vinsert
p2461
I42
VSimpleName: GitHubAccount
p2462
tp2463
I3
s(Vinsert
p2464
I42
VSimpleName: mockManager
p2465
tp2466
I1
s(Vinsert
p2467
I42
VSimpleName: forksCount
p2468
tp2469
I2
s(Vinsert
p2470
I42
VSimpleName: resetPage
p2471
tp2472
I1
s(Vinsert
p2473
I40
VQualifiedName: java.io.IOException
p2474
tp2475
I1
s(Vinsert
p2476
I42
VSimpleName: SSLSocketFactory
p2477
tp2478
I1
s(Vinsert
p2479
I42
VSimpleName: array
p2480
tp2481
I1
s(Vinsert
p2482
I74
VParameterizedType: Pair<List<GitReference>,Integer>
p2483
tp2484
I1
s(Vinsert
p2485
I42
VSimpleName: gistMatcher
p2486
tp2487
I2
s(Vinsert
p2488
I43
VSimpleType: OrgItemView
p2489
tp2490
I1
s(Vinsert
p2491
I43
VSimpleType: Serializable
p2492
tp2493
I1
s(Vinsert
p2494
I42
VSimpleName: menuItem
p2495
tp2496
I1
s(Vinsert
p2497
I40
VQualifiedName: blob.content
p2498
tp2499
I1
s(Vinsert
p2500
I42
VSimpleName: IssueStoryComment
p2501
tp2502
I1
s(Vinsert
p2503
I45
VStringLiteral: "Organization cannot be null"
p2504
tp2505
I1
s(Vinsert
p2506
I42
VSimpleName: ImageUtils
p2507
tp2508
I1
s(Vinsert
p2509
I42
VSimpleName: isMarkdown
p2510
tp2511
I1
s(Vinsert
p2512
I42
VSimpleName: isValidLogin
p2513
tp2514
I1
s(Vinsert
p2515
I43
VSimpleType: ViewGroup
p2516
tp2517
I6
s(Vinsert
p2518
I76
VWildcardType: ? super IssueStory
p2519
tp2520
I1
s(Vinsert
p2521
I42
VSimpleName: getBrowserList
p2522
tp2523
I2
s(Vinsert
p2524
I42
VSimpleName: setCurrentItem
p2525
tp2526
I3
s(Vinsert
p2527
I42
VSimpleName: spec
p2528
tp2529
I2
s(Vinsert
p2530
I66
VTextElement: Get readable database
p2531
tp2532
I1
s(Vinsert
p2533
I42
VSimpleName: maxNumberCount
p2534
tp2535
I3
s(Vinsert
p2536
I42
VSimpleName: viewType
p2537
tp2538
I2
s(Vinsert
p2539
I42
VSimpleName: parent
p2540
tp2541
I5
s(Vinsert
p2542
I40
VQualifiedName: layout.load_item
p2543
tp2544
I1
s(Vinsert
p2545
I40
VQualifiedName: string.loading_gist
p2546
tp2547
I1
s(Vinsert
p2548
I43
VSimpleType: Repository
p2549
tp2550
I45
s(Vinsert
p2551
I74
VParameterizedType: SingleTypeAdapter<E>
p2552
tp2553
I1
s(Vinsert
p2554
I42
VSimpleName: createTabs
p2555
tp2556
I1
s(Vinsert
p2557
I42
VSimpleName: getUserGists
p2558
tp2559
I1
s(Vinsert
p2560
I42
VSimpleName: getInt
p2561
tp2562
I5
s(Vinsert
p2563
I42
VSimpleName: getGist
p2564
tp2565
I12
s(Vinsert
p2566
I27
VInfixExpression: ==
p2567
tp2568
I97
s(Vinsert
p2569
I42
VSimpleName: onLoadFinished
p2570
tp2571
I4
s(Vinsert
p2572
I9
VBooleanLiteral: true
p2573
tp2574
I34
s(Vinsert
p2575
I42
VSimpleName: getHash
p2576
tp2577
I1
s(Vinsert
p2578
I74
VParameterizedType: ArrayList<IssueFilter>
p2579
tp2580
I1
s(Vinsert
p2581
I42
VSimpleName: StyledText
p2582
tp2583
I16
s(Vinsert
p2584
I40
VQualifiedName: fullRepo.owner
p2585
tp2586
I2
s(Vinsert
p2587
I40
VQualifiedName: Color.BLACK
p2588
tp2589
I2
s(Vinsert
p2590
I42
VSimpleName: callback
p2591
tp2592
I5
s(Vinsert
p2593
I42
VSimpleName: EXTRA_GIST
p2594
tp2595
I1
s(Vinsert
p2596
I42
VSimpleName: createItem
p2597
tp2598
I2
s(Vinsert
p2599
I58
VVariableDeclarationExpression
p2600
tp2601
I6
s(Vinsert
p2602
I42
VSimpleName: dotPageIndicator
p2603
tp2604
I2
s(Vinsert
p2605
I42
VSimpleName: urlLauncher
p2606
tp2607
I2
s(Vinsert
p2608
I42
VSimpleName: count
p2609
tp2610
I6
s(Vinsert
p2611
I42
VSimpleName: manager
p2612
tp2613
I11
s(Vinsert
p2614
I42
VSimpleName: base
p2615
tp2616
I7
s(Vinsert
p2617
I42
VSimpleName: Single
p2618
tp2619
I9
s(Vinsert
p2620
I40
VQualifiedName: GitHubEventType.IssuesEvent
p2621
tp2622
I1
s(Vinsert
p2623
I42
VSimpleName: newIssue
p2624
tp2625
I1
s(Vinsert
p2626
I42
VSimpleName: viewInflatorFor
p2627
tp2628
I5
s(Vinsert
p2629
I42
VSimpleName: typeAdapter
p2630
tp2631
I1
s(Vinsert
p2632
I43
VSimpleType: LabelsDialog
p2633
tp2634
I2
s(Vinsert
p2635
I42
VSimpleName: getTargetContext
p2636
tp2637
I1
s(Vinsert
p2638
I40
VQualifiedName: RequestMarkdown.MODE_GFM
p2639
tp2640
I1
s(Vinsert
p2641
I42
VSimpleName: lastSlash
p2642
tp2643
I2
s(Vinsert
p2644
I32
VMethodInvocation
p2645
tp2646
I2696
s(Vinsert
p2647
I42
VSimpleName: getAuthToken
p2648
tp2649
I2
s(Vinsert
p2650
I42
VSimpleName: waitForIdleSync
p2651
tp2652
I1
s(Vinsert
p2653
I66
VTextElement:  this adapter
p2654
tp2655
I2
s(Vinsert
p2656
I42
VSimpleName: CreateIssueActivity
p2657
tp2658
I1
s(Vinsert
p2659
I42
VSimpleName: EncodingUtils
p2660
tp2661
I2
s(Vinsert
p2662
I40
VQualifiedName: CreateCommitComment.Builder
p2663
tp2664
I1
s(Vinsert
p2665
I42
VSimpleName: dir
p2666
tp2667
I6
s(Vinsert
p2668
I42
VSimpleName: diff
p2669
tp2670
I1
s(Vinsert
p2671
I42
VSimpleName: overrideOAuth
p2672
tp2673
I1
s(Vinsert
p2674
I40
VQualifiedName: gist.files
p2675
tp2676
I3
s(Vinsert
p2677
I42
VSimpleName: getValidRef
p2678
tp2679
I1
s(Vinsert
p2680
I40
VQualifiedName: PageIterator.GitHubRequest
p2681
tp2682
I4
s(Vinsert
p2683
I43
VSimpleType: Callback
p2684
tp2685
I1
s(Vinsert
p2686
I43
VSimpleType: AppBarLayout
p2687
tp2688
I1
s(Vinsert
p2689
I42
VSimpleName: Bugsnag
p2690
tp2691
I1
s(Vinsert
p2692
I40
VQualifiedName: com.github.mobile.android.authenticator.Constants.AUTHTOKEN_TYPE
p2693
tp2694
I1
s(Vinsert
p2695
I42
VSimpleName: getHeaderView
p2696
tp2697
I1
s(Vinsert
p2698
I42
VSimpleName: doOnError
p2699
tp2700
I1
s(Vinsert
p2701
I74
VParameterizedType: BaseClient.OnResultCallback<Object>
p2702
tp2703
I1
s(Vinsert
p2704
I42
VSimpleName: RequestWriter
p2705
tp2706
I1
s(Vinsert
p2707
I43
VSimpleType: SourceEditor
p2708
tp2709
I1
s(Vinsert
p2710
I42
VSimpleName: gistList
p2711
tp2712
I1
s(Vinsert
p2713
I42
VSimpleName: folder
p2714
tp2715
I1
s(Vinsert
p2716
I42
VSimpleName: setPayload
p2717
tp2718
I2
s(Vinsert
p2719
I42
VSimpleName: solo
p2720
tp2721
I1
s(Vinsert
p2722
I40
VQualifiedName: id.tv_branch_icon
p2723
tp2724
I1
s(Vinsert
p2725
I45
VStringLiteral: "js"
p2726
tp2727
I1
s(Vinsert
p2728
I42
VSimpleName: forClass
p2729
tp2730
I1
s(Vinsert
p2731
I45
VStringLiteral: "contact"
p2732
tp2733
I1
s(Vinsert
p2734
I42
VSimpleName: integer
p2735
tp2736
I1
s(Vinsert
p2737
I43
VSimpleType: AccountLoader
p2738
tp2739
I1
s(Vinsert
p2740
I42
VSimpleName: recycle
p2741
tp2742
I1
s(Vinsert
p2743
I42
VSimpleName: getSerializable
p2744
tp2745
I10
s(Vinsert
p2746
I40
VQualifiedName: id.tv_milestone
p2747
tp2748
I2
s(Vinsert
p2749
I42
VSimpleName: beginTransaction
p2750
tp2751
I5
s(Vinsert
p2752
I40
VQualifiedName: milestone.closedIssues
p2753
tp2754
I1
s(Vinsert
p2755
I40
VQualifiedName: file.content
p2756
tp2757
I1
s(Vinsert
p2758
I42
VSimpleName: commit
p2759
tp2760
I44
s(Vinsert
p2761
I42
VSimpleName: findItem
p2762
tp2763
I9
s(Vinsert
p2764
I74
VParameterizedType: BaseClient.OnResultCallback<Response>
p2765
tp2766
I1
s(Vinsert
p2767
I45
VStringLiteral: "pulls"
p2768
tp2769
I1
s(Vinsert
p2770
I42
VSimpleName: AndroidSchedulers
p2771
tp2772
I5
s(Vinsert
p2773
I42
VSimpleName: setNonBlankValidationFor
p2774
tp2775
I1
s(Vinsert
p2776
I42
VSimpleName: refreshView
p2777
tp2778
I1
s(Vinsert
p2779
I40
VQualifiedName: gist.id
p2780
tp2781
I2
s(Vinsert
p2782
I42
VSimpleName: RepositoryIssue
p2783
tp2784
I8
s(Vinsert
p2785
I42
VSimpleName: parse
p2786
tp2787
I16
s(Vinsert
p2788
I42
VSimpleName: compareCommitsClient
p2789
tp2790
I1
s(Vinsert
p2791
I42
VSimpleName: DialogAction
p2792
tp2793
I6
s(Vinsert
p2794
I42
VSimpleName: showIndeterminate
p2795
tp2796
I1
s(Vinsert
p2797
I42
VSimpleName: subSequence
p2798
tp2799
I1
s(Vinsert
p2800
I42
VSimpleName: getBodyViewer
p2801
tp2802
I1
s(Vinsert
p2803
I42
VSimpleName: opening
p2804
tp2805
I2
s(Vinsert
p2806
I43
VSimpleType: Single
p2807
tp2808
I4
s(Vinsert
p2809
I42
VSimpleName: fromIterable
p2810
tp2811
I1
s(Vinsert
p2812
I5
VArrayType: Gist[]
p2813
tp2814
I1
s(Vinsert
p2815
I42
VSimpleName: measureText
p2816
tp2817
I1
s(Vinsert
p2818
I43
VSimpleType: FullIssue
p2819
tp2820
I2
s(Vinsert
p2821
I42
VSimpleName: repoFragment
p2822
tp2823
I3
s(Vinsert
p2824
I43
VSimpleType: GistsFragment
p2825
tp2826
I1
s(Vinsert
p2827
I42
VSimpleName: all
p2828
tp2829
I3
s(Vinsert
p2830
I74
VParameterizedType: ListLoadingFragment<?>
p2831
tp2832
I1
s(Vinsert
p2833
I42
VSimpleName: GetFileContentClient
p2834
tp2835
I1
s(Vinsert
p2836
I42
VSimpleName: listView
p2837
tp2838
I10
s(Vinsert
p2839
I42
VSimpleName: layers
p2840
tp2841
I1
s(Vinsert
p2842
I43
VSimpleType: IssuesPayload
p2843
tp2844
I2
s(Vinsert
p2845
I42
VSimpleName: getInstance
p2846
tp2847
I8
s(Vinsert
p2848
I42
VSimpleName: runOnUiThread
p2849
tp2850
I6
s(Vinsert
p2851
I42
VSimpleName: STATE_OPEN
p2852
tp2853
I2
s(Vinsert
p2854
I42
VSimpleName: result
p2855
tp2856
I5
s(Vinsert
p2857
I42
VSimpleName: gitHubRequest
p2858
tp2859
I4
s(Vinsert
p2860
I9
VBooleanLiteral: false
p2861
tp2862
I23
s(Vinsert
p2863
I42
VSimpleName: ResultT
p2864
tp2865
I1
s(Vinsert
p2866
I42
VSimpleName: UserItemView
p2867
tp2868
I1
s(Vinsert
p2869
I45
VStringLiteral: "</b> opened "
p2870
tp2871
I1
s(Vinsert
p2872
I42
VSimpleName: binarySearch
p2873
tp2874
I3
s(Vinsert
p2875
I42
VSimpleName: getSharedPreferences
p2876
tp2877
I1
s(Vinsert
p2878
I42
VSimpleName: gitBlobClient
p2879
tp2880
I1
s(Vinsert
p2881
I42
VSimpleName: onViewAttachedToWindow
p2882
tp2883
I1
s(Vinsert
p2884
I42
VSimpleName: ITEM_COMMITS
p2885
tp2886
I1
s(Vinsert
p2887
I42
VSimpleName: Layout
p2888
tp2889
I1
s(Vinsert
p2890
I42
VSimpleName: onError
p2891
tp2892
I4
s(Vinsert
p2893
I42
VSimpleName: view
p2894
tp2895
I184
s(Vinsert
p2896
I42
VSimpleName: TYPE_BLOB
p2897
tp2898
I1
s(Vinsert
p2899
I42
VSimpleName: assertTrue
p2900
tp2901
I4
s(Vinsert
p2902
I42
VSimpleName: onNegative
p2903
tp2904
I1
s(Vinsert
p2905
I43
VSimpleType: DefaultRepositoryListAdapter
p2906
tp2907
I1
s(Vinsert
p2908
I40
VQualifiedName: markdownDTO.text
p2909
tp2910
I1
s(Vinsert
p2911
I42
VSimpleName: unwatch
p2912
tp2913
I1
s(Vinsert
p2914
I42
VSimpleName: RefDialog
p2915
tp2916
I1
s(Vinsert
p2917
I42
VSimpleName: getOrgs
p2918
tp2919
I1
s(Vinsert
p2920
I42
VSimpleName: error
p2921
tp2922
I2
s(Vinsert
p2923
I42
VSimpleName: previousOrg
p2924
tp2925
I3
s(Vinsert
p2926
I42
VSimpleName: commentText
p2927
tp2928
I4
s(Vinsert
p2929
I65
VTagElement
p2930
tp2931
I13
s(Vinsert
p2932
I42
VSimpleName: PagedRequest
p2933
tp2934
I2
s(Vinsert
p2935
I42
VSimpleName: testReuseView
p2936
tp2937
I1
s(Vinsert
p2938
I43
VSimpleType: BitmapDrawable
p2939
tp2940
I1
s(Vinsert
p2941
I42
VSimpleName: TYPE_FOLLOW
p2942
tp2943
I1
s(Vinsert
p2944
I42
VSimpleName: Resources
p2945
tp2946
I3
s(Vinsert
p2947
I40
VQualifiedName: Build.VERSION.SDK_INT
p2948
tp2949
I3
s(Vinsert
p2950
I42
VSimpleName: getText
p2951
tp2952
I4
s(Vinsert
p2953
I42
VSimpleName: io
p2954
tp2955
I17
s(Vinsert
p2956
I42
VSimpleName: SDK_INT
p2957
tp2958
I1
s(Vinsert
p2959
I40
VQualifiedName: id.ll_assignee
p2960
tp2961
I1
s(Vinsert
p2962
I42
VSimpleName: Throwable
p2963
tp2964
I6
s(Vinsert
p2965
I42
VSimpleName: avatars
p2966
tp2967
I8
s(Vinsert
p2968
I42
VSimpleName: milestoneTask
p2969
tp2970
I1
s(Vinsert
p2971
I42
VSimpleName: invalidateOptionsMenu
p2972
tp2973
I2
s(Vinsert
p2974
I45
VStringLiteral: "n"
p2975
tp2976
I1
s(Vinsert
p2977
I42
VSimpleName: attrs
p2978
tp2979
I1
s(Vinsert
p2980
I43
VSimpleType: AtomicInteger
p2981
tp2982
I2
s(Vinsert
p2983
I40
VQualifiedName: id.tv_filter_labels
p2984
tp2985
I2
s(Vinsert
p2986
I42
VSimpleName: setDirection
p2987
tp2988
I1
s(Vinsert
p2989
I40
VQualifiedName: android.text.ClipboardManager
p2990
tp2991
I2
s(Vinsert
p2992
I74
VParameterizedType: PageIterator.GitHubRequest<Response<Page<Label>>>
p2993
tp2994
I1
s(Vinsert
p2995
I42
VSimpleName: createRepoFromData
p2996
tp2997
I4
s(Vinsert
p2998
I42
VSimpleName: success
p2999
tp3000
I1
s(Vinsert
p3001
I42
VSimpleName: getLoaderManager
p3002
tp3003
I2
s(Vinsert
p3004
I42
VSimpleName: setClickListener
p3005
tp3006
I1
s(Vinsert
p3007
I43
VSimpleType: HtmlViewer
p3008
tp3009
I2
s(Vinsert
p3010
I42
VSimpleName: getIntExtra
p3011
tp3012
I3
s(Vinsert
p3013
I74
VParameterizedType: Observable<Response<Boolean>>
p3014
tp3015
I1
s(Vinsert
p3016
I40
VQualifiedName: current.stats
p3017
tp3018
I1
s(Vinsert
p3019
I43
VSimpleType: SSLSocketFactory
p3020
tp3021
I1
s(Vinsert
p3022
I42
VSimpleName: login
p3023
tp3024
I49
s(Vinsert
p3025
I42
VSimpleName: followObservable
p3026
tp3027
I2
s(Vinsert
p3028
I45
VStringLiteral: "Will display toast : "
p3029
tp3030
I1
s(Vinsert
p3031
I42
VSimpleName: getActionView
p3032
tp3033
I2
s(Vinsert
p3034
I40
VQualifiedName: id.tv_issue_number
p3035
tp3036
I2
s(Vinsert
p3037
I45
VStringLiteral: "<b>"
p3038
tp3039
I1
s(Vinsert
p3040
I42
VSimpleName: GetGitBlobClient
p3041
tp3042
I3
s(Vinsert
p3043
I74
VParameterizedType: Map<String,String>
p3044
tp3045
I1
s(Vinsert
p3046
I42
VSimpleName: updateViewFor
p3047
tp3048
I7
s(Vinsert
p3049
I40
VQualifiedName: ShareGistActivity.RESULT_CREATED
p3050
tp3051
I1
s(Vinsert
p3052
I42
VSimpleName: file
p3053
tp3054
I19
s(Vinsert
p3055
I43
VSimpleType: FullCommit
p3056
tp3057
I2
s(Vinsert
p3058
I42
VSimpleName: styled
p3059
tp3060
I2
s(Vinsert
p3061
I40
VQualifiedName: id.issue_labels
p3062
tp3063
I1
s(Vinsert
p3064
I42
VSimpleName: startActivityForResult
p3065
tp3066
I3
s(Vinsert
p3067
I42
VSimpleName: getOpenIssues
p3068
tp3069
I1
s(Vinsert
p3070
I42
VSimpleName: updateList
p3071
tp3072
I2
s(Vinsert
p3073
I40
VQualifiedName: id.login
p3074
tp3075
I1
s(Vinsert
p3076
I42
VSimpleName: bind
p3077
tp3078
I15
s(Vinsert
p3079
I42
VSimpleName: UPDATE_COUNT
p3080
tp3081
I4
s(Vinsert
p3082
I42
VSimpleName: ACCOUNT_TYPE
p3083
tp3084
I1
s(Vinsert
p3085
I45
VStringLiteral: "%20"
p3086
tp3087
I1
s(Vinsert
p3088
I28
VInitializer
p3089
tp3090
I1
s(Vinsert
p3091
I42
VSimpleName: homeAdapter
p3092
tp3093
I1
s(Vinsert
p3094
I42
VSimpleName: removeListener
p3095
tp3096
I4
s(Vinsert
p3097
I42
VSimpleName: AuthenticatorException
p3098
tp3099
I1
s(Vinsert
p3100
I42
VSimpleName: startLength
p3101
tp3102
I1
s(Vinsert
p3103
I42
VSimpleName: keyCode
p3104
tp3105
I1
s(Vinsert
p3106
I42
VSimpleName: bodyHtml
p3107
tp3108
I4
s(Vinsert
p3109
I42
VSimpleName: favicon
p3110
tp3111
I1
s(Vinsert
p3112
I42
VSimpleName: isStarred
p3113
tp3114
I2
s(Vinsert
p3115
I40
VQualifiedName: Event.TYPE_ISSUE_COMMENT
p3116
tp3117
I1
s(Vinsert
p3118
I43
VSimpleType: SherlockFragment
p3119
tp3120
I3
s(Vinsert
p3121
I43
VSimpleType: RecentRepositories
p3122
tp3123
I1
s(Vinsert
p3124
I40
VQualifiedName: android.graphics.Color.WHITE
p3125
tp3126
I1
s(Vinsert
p3127
I42
VSimpleName: AvatarLoader
p3128
tp3129
I2
s(Vinsert
p3130
I42
VSimpleName: getBooleanArrayExtra
p3131
tp3132
I4
s(Vinsert
p3133
I42
VSimpleName: orgAdapter
p3134
tp3135
I1
s(Vinsert
p3136
I42
VSimpleName: intent
p3137
tp3138
I48
s(Vinsert
p3139
I42
VSimpleName: toArray
p3140
tp3141
I12
s(Vinsert
p3142
I42
VSimpleName: getOrganizations
p3143
tp3144
I1
s(Vinsert
p3145
I40
VQualifiedName: repo.permissions.pull
p3146
tp3147
I1
s(Vinsert
p3148
I42
VSimpleName: message
p3149
tp3150
I15
s(Vinsert
p3151
I42
VSimpleName: provider
p3152
tp3153
I3
s(Vinsert
p3154
I42
VSimpleName: GitHubAccountScope
p3155
tp3156
I2
s(Vinsert
p3157
I42
VSimpleName: openGist
p3158
tp3159
I1
s(Vinsert
p3160
I43
VSimpleType: OrganizationSelectionProvider
p3161
tp3162
I6
s(Vinsert
p3163
I42
VSimpleName: File
p3164
tp3165
I7
s(Vinsert
p3166
I43
VSimpleType: HttpURLConnection
p3167
tp3168
I5
s(Vinsert
p3169
I42
VSimpleName: widths
p3170
tp3171
I2
s(Vinsert
p3172
I42
VSimpleName: password
p3173
tp3174
I4
s(Vinsert
p3175
I74
VParameterizedType: List<PullRequest>
p3176
tp3177
I1
s(Vinsert
p3178
I42
VSimpleName: negativeText
p3179
tp3180
I1
s(Vinsert
p3181
I42
VSimpleName: getActivity
p3182
tp3183
I37
s(Vinsert
p3184
I42
VSimpleName: getChannel
p3185
tp3186
I1
s(Vinsert
p3187
I42
VSimpleName: RepositoryId
p3188
tp3189
I10
s(Vinsert
p3190
I43
VSimpleType: CheckUserCollaboratorClient
p3191
tp3192
I2
s(Vinsert
p3193
I42
VSimpleName: CharSequence
p3194
tp3195
I15
s(Vinsert
p3196
I42
VSimpleName: afterTextChanged
p3197
tp3198
I1
s(Vinsert
p3199
I42
VSimpleName: searchItem
p3200
tp3201
I5
s(Vinsert
p3202
I43
VSimpleType: SharedPreferences
p3203
tp3204
I3
s(Vinsert
p3205
I43
VSimpleType: GistService
p3206
tp3207
I4
s(Vinsert
p3208
I42
VSimpleName: HtmlFormatter
p3209
tp3210
I1
s(Vinsert
p3211
I42
VSimpleName: authToken
p3212
tp3213
I3
s(Vinsert
p3214
I40
VQualifiedName: android.webkit.WebView
p3215
tp3216
I4
s(Vinsert
p3217
I42
VSimpleName: fragmentManager
p3218
tp3219
I4
s(Vinsert
p3220
I40
VQualifiedName: org.eclipse.egit.github.core.event.Event.TYPE_PULL_REQUEST_REVIEW_COMMENT
p3221
tp3222
I1
s(Vinsert
p3223
I74
VParameterizedType: PageIterator.GitHubRequest<Response<Page<GitReference>>>
p3224
tp3225
I1
s(Vinsert
p3226
I42
VSimpleName: Log
p3227
tp3228
I29
s(Vinsert
p3229
I42
VSimpleName: append
p3230
tp3231
I23
s(Vinsert
p3232
I43
VSimpleType: LoginActivity
p3233
tp3234
I1
s(Vinsert
p3235
I42
VSimpleName: last
p3236
tp3237
I3
s(Vinsert
p3238
I42
VSimpleName: getGistComments
p3239
tp3240
I2
s(Vinsert
p3241
I40
VQualifiedName: string.icon_tag
p3242
tp3243
I1
s(Vinsert
p3244
I70
VEnhancedForStatement
p3245
tp3246
I21
s(Vinsert
p3247
I42
VSimpleName: InjectView
p3248
tp3249
I2
s(Vinsert
p3250
I42
VSimpleName: userComparatorProvider
p3251
tp3252
I3
s(Vinsert
p3253
I42
VSimpleName: n
p3254
tp3255
I1
s(Vinsert
p3256
I42
VSimpleName: removeTextColor
p3257
tp3258
I1
s(Vinsert
p3259
I42
VSimpleName: store
p3260
tp3261
I15
s(Vinsert
p3262
I42
VSimpleName: processed
p3263
tp3264
I2
s(Vinsert
p3265
I42
VSimpleName: Provides
p3266
tp3267
I2
s(Vinsert
p3268
I42
VSimpleName: filterData
p3269
tp3270
I3
s(Vinsert
p3271
I40
VQualifiedName: string.gist
p3272
tp3273
I1
s(Vinsert
p3274
I40
VQualifiedName: android.widget.ProgressBar
p3275
tp3276
I1
s(Vinsert
p3277
I42
VSimpleName: getSupportFragmentManager
p3278
tp3279
I8
s(Vinsert
p3280
I42
VSimpleName: setTypeface
p3281
tp3282
I6
s(Vinsert
p3283
I42
VSimpleName: GetAuthUserClient
p3284
tp3285
I1
s(Vinsert
p3286
I42
VSimpleName: getFollowing
p3287
tp3288
I2
s(Vinsert
p3289
I42
VSimpleName: iconAndViewTextManager
p3290
tp3291
I5
s(Vinsert
p3292
I43
VSimpleType: Context
p3293
tp3294
I15
s(Vinsert
p3295
I42
VSimpleName: action
p3296
tp3297
I1
s(Vinsert
p3298
I43
VSimpleType: IssueAssigneeService
p3299
tp3300
I1
s(Vinsert
p3301
I68
VMethodRef
p3302
tp3303
I1
s(Vinsert
p3304
I39
VPrimitiveType: float
p3305
tp3306
I7
s(Vinsert
p3307
I42
VSimpleName: fromCallable
p3308
tp3309
I2
s(Vinsert
p3310
I42
VSimpleName: optionsMenu
p3311
tp3312
I8
s(Vinsert
p3313
I42
VSimpleName: configureRequest
p3314
tp3315
I2
s(Vinsert
p3316
I43
VSimpleType: IssueService
p3317
tp3318
I2
s(Vinsert
p3319
I42
VSimpleName: keepAlive
p3320
tp3321
I2
s(Vinsert
p3322
I43
VSimpleType: Pair
p3323
tp3324
I1
s(Vinsert
p3325
I42
VSimpleName: l2
p3326
tp3327
I1
s(Vinsert
p3328
I40
VQualifiedName: pair.first
p3329
tp3330
I1
s(Vinsert
p3331
I42
VSimpleName: dropDownViewFactory
p3332
tp3333
I1
s(Vinsert
p3334
I42
VSimpleName: inflate
p3335
tp3336
I22
s(Vinsert
p3337
I42
VSimpleName: IssueCommentPayload
p3338
tp3339
I1
s(Vinsert
p3340
I42
VSimpleName: searchView
p3341
tp3342
I4
s(Vinsert
p3343
I43
VSimpleType: MaterialDialog
p3344
tp3345
I9
s(Vinsert
p3346
I43
VSimpleType: Event
p3347
tp3348
I20
s(Vinsert
p3349
I42
VSimpleName: length
p3350
tp3351
I29
s(Vinsert
p3352
I42
VSimpleName: ServiceUtils
p3353
tp3354
I1
s(Vinsert
p3355
I43
VSimpleType: ObserverAdapter
p3356
tp3357
I2
s(Vinsert
p3358
I42
VSimpleName: mirrorUrl
p3359
tp3360
I2
s(Vinsert
p3361
I40
VQualifiedName: id.tv_comment_body
p3362
tp3363
I1
s(Vinsert
p3364
I42
VSimpleName: scheme
p3365
tp3366
I1
s(Vinsert
p3367
I43
VSimpleType: GetReferenceClient
p3368
tp3369
I1
s(Vinsert
p3370
I42
VSimpleName: htmlUrl
p3371
tp3372
I2
s(Vinsert
p3373
I42
VSimpleName: EXTRA_PATH
p3374
tp3375
I2
s(Vinsert
p3376
I74
VParameterizedType: ArrayList<String>
p3377
tp3378
I1
s(Vinsert
p3379
I42
VSimpleName: setQuery
p3380
tp3381
I2
s(Vinsert
p3382
I43
VSimpleType: HttpImageGetter
p3383
tp3384
I8
s(Vinsert
p3385
I42
VSimpleName: onItemClick
p3386
tp3387
I2
s(Vinsert
p3388
I42
VSimpleName: TimeUtils
p3389
tp3390
I1
s(Vinsert
p3391
I43
VSimpleType: Repo
p3392
tp3393
I2
s(Vinsert
p3394
I40
VQualifiedName: client.last
p3395
tp3396
I2
s(Vinsert
p3397
I42
VSimpleName: Avatar
p3398
tp3399
I2
s(Vinsert
p3400
I40
VQualifiedName: id.tv_repo_icon
p3401
tp3402
I6
s(Vinsert
p3403
I42
VSimpleName: setIndicator
p3404
tp3405
I1
s(Vinsert
p3406
I42
VSimpleName: removeIssueFilter
p3407
tp3408
I1
s(Vinsert
p3409
I42
VSimpleName: EditIssueActivity
p3410
tp3411
I1
s(Vinsert
p3412
I42
VSimpleName: onPrepareOptionsMenu
p3413
tp3414
I3
s(Vinsert
p3415
I42
VSimpleName: Label
p3416
tp3417
I10
s(Vinsert
p3418
I42
VSimpleName: UrlProviderInterface
p3419
tp3420
I1
s(Vinsert
p3421
I42
VSimpleName: ArgumentCaptor
p3422
tp3423
I1
s(Vinsert
p3424
I42
VSimpleName: orgSelectionListeners
p3425
tp3426
I1
s(Vinsert
p3427
I42
VSimpleName: recentRepos
p3428
tp3429
I8
s(Vinsert
p3430
I42
VSimpleName: choices
p3431
tp3432
I1
s(Vinsert
p3433
I42
VSimpleName: LightProgressDialog
p3434
tp3435
I2
s(Vinsert
p3436
I42
VSimpleName: compile
p3437
tp3438
I3
s(Vinsert
p3439
I42
VSimpleName: RxProgress
p3440
tp3441
I1
s(Vinsert
p3442
I42
VSimpleName: getProvider
p3443
tp3444
I1
s(Vinsert
p3445
I65
VTagElement: @link
p3446
tp3447
I2
s(Vinsert
p3448
I42
VSimpleName: getSha
p3449
tp3450
I7
s(Vinsert
p3451
I42
VSimpleName: onCheckedChanged
p3452
tp3453
I1
s(Vinsert
p3454
I42
VSimpleName: usersAndOrgs
p3455
tp3456
I1
s(Vinsert
p3457
I42
VSimpleName: CORNER_RADIUS_IN_DIP
p3458
tp3459
I1
s(Vinsert
p3460
I45
VStringLiteral: "https?://.+/([^/]+)/([^/]+)/commit/([a-fA-F0-9]+)"
p3461
tp3462
I1
s(Vinsert
p3463
I43
VSimpleType: UserPair
p3464
tp3465
I1
s(Vinsert
p3466
I42
VSimpleName: getViewPager
p3467
tp3468
I2
s(Vinsert
p3469
I43
VSimpleType: GitHubAccount
p3470
tp3471
I3
s(Vinsert
p3472
I43
VSimpleType: RefreshUserTask
p3473
tp3474
I3
s(Vinsert
p3475
I42
VSimpleName: format
p3476
tp3477
I14
s(Vinsert
p3478
I42
VSimpleName: isUnauthorized
p3479
tp3480
I3
s(Vinsert
p3481
I66
VTextElement: Filter assignee text view
p3482
tp3483
I1
s(Vinsert
p3484
I42
VSimpleName: deleteRepository
p3485
tp3486
I1
s(Vinsert
p3487
I42
VSimpleName: getContext
p3488
tp3489
I17
s(Vinsert
p3490
I42
VSimpleName: Exception
p3491
tp3492
I70
s(Vinsert
p3493
I42
VSimpleName: ListLoadingFragment
p3494
tp3495
I1
s(Vinsert
p3496
I74
VParameterizedType: HashMap<>
p3497
tp3498
I1
s(Vinsert
p3499
I43
VSimpleType: FullCommitFile
p3500
tp3501
I3
s(Vinsert
p3502
I42
VSimpleName: paint
p3503
tp3504
I8
s(Vinsert
p3505
I42
VSimpleName: toBlocking
p3506
tp3507
I30
s(Vinsert
p3508
I42
VSimpleName: IRepositoryIdProvider
p3509
tp3510
I3
s(Vinsert
p3511
I42
VSimpleName: httpPostConnectionFor
p3512
tp3513
I1
s(Vinsert
p3514
I42
VSimpleName: getAuthenticatorTypes
p3515
tp3516
I1
s(Vinsert
p3517
I43
VSimpleType: UserItemView
p3518
tp3519
I1
s(Vinsert
p3520
I42
VSimpleName: helper
p3521
tp3522
I8
s(Vinsert
p3523
I42
VSimpleName: gitService
p3524
tp3525
I2
s(Vinsert
p3526
I42
VSimpleName: isUsable
p3527
tp3528
I2
s(Vinsert
p3529
I42
VSimpleName: setIconAndFormatStyledText
p3530
tp3531
I1
s(Vinsert
p3532
I42
VSimpleName: FullGist
p3533
tp3534
I2
s(Vinsert
p3535
I42
VSimpleName: scopedObjects
p3536
tp3537
I1
s(Vinsert
p3538
I42
VSimpleName: LinkedHashMap
p3539
tp3540
I1
s(Vinsert
p3541
I42
VSimpleName: SearchView
p3542
tp3543
I4
s(Vinsert
p3544
I42
VSimpleName: FixedViewInfo
p3545
tp3546
I1
s(Vinsert
p3547
I43
VSimpleType: SingleTypeAdapter
p3548
tp3549
I1
s(Vinsert
p3550
I42
VSimpleName: gistComments
p3551
tp3552
I2
s(Vinsert
p3553
I42
VSimpleName: forks
p3554
tp3555
I1
s(Vinsert
p3556
I43
VSimpleType: BigInteger
p3557
tp3558
I1
s(Vinsert
p3559
I42
VSimpleName: gitHubAccountScope
p3560
tp3561
I5
s(Vinsert
p3562
I42
VSimpleName: appBarLayout
p3563
tp3564
I1
s(Vinsert
p3565
I42
VSimpleName: FORMAT
p3566
tp3567
I6
s(Vinsert
p3568
I40
VQualifiedName: choices.length
p3569
tp3570
I1
s(Vinsert
p3571
I42
VSimpleName: when_event_type_is_commit_comment_then_icon_should_be_comment
p3572
tp3573
I1
s(Vinsert
p3574
I40
VQualifiedName: IssueFilter.DIRECTION_ASCENDING
p3575
tp3576
I1
s(Vinsert
p3577
I42
VSimpleName: paddingTop
p3578
tp3579
I1
s(Vinsert
p3580
I74
VParameterizedType: Collection<E>
p3581
tp3582
I1
s(Vinsert
p3583
I40
VQualifiedName: id.tv_signup
p3584
tp3585
I1
s(Vinsert
p3586
I42
VSimpleName: gitBlob
p3587
tp3588
I2
s(Vinsert
p3589
I42
VSimpleName: accessToken
p3590
tp3591
I4
s(Vinsert
p3592
I42
VSimpleName: currentSyncCampaign
p3593
tp3594
I2
s(Vinsert
p3595
I42
VSimpleName: watch
p3596
tp3597
I1
s(Vinsert
p3598
I42
VSimpleName: IssueService
p3599
tp3600
I2
s(Vinsert
p3601
I42
VSimpleName: start
p3602
tp3603
I16
s(Vinsert
p3604
I42
VSimpleName: commentCount
p3605
tp3606
I1
s(Vinsert
p3607
I42
VSimpleName: getAvatarUrl
p3608
tp3609
I4
s(Vinsert
p3610
I66
VTextElement: Primary language in repository
p3611
tp3612
I1
s(Vinsert
p3613
I42
VSimpleName: putBoolean
p3614
tp3615
I2
s(Vinsert
p3616
I42
VSimpleName: getPayload
p3617
tp3618
I10
s(Vinsert
p3619
I40
VQualifiedName: commit.stats
p3620
tp3621
I1
s(Vinsert
p3622
I43
VSimpleType: IssuesPagerAdapter
p3623
tp3624
I1
s(Vinsert
p3625
I42
VSimpleName: fragments
p3626
tp3627
I2
s(Vinsert
p3628
I42
VSimpleName: GistEventMatcher
p3629
tp3630
I2
s(Vinsert
p3631
I73
VTypeParameter
p3632
tp3633
I2
s(Vinsert
p3634
I66
VTextElement:  this task
p3635
tp3636
I1
s(Vinsert
p3637
I40
VQualifiedName: parent.sha
p3638
tp3639
I1
s(Vinsert
p3640
I42
VSimpleName: trim
p3641
tp3642
I1
s(Vinsert
p3643
I42
VSimpleName: createCommitIntent
p3644
tp3645
I1
s(Vinsert
p3646
I43
VSimpleType: RequestException
p3647
tp3648
I8
s(Vinsert
p3649
I43
VSimpleType: Subscriber
p3650
tp3651
I5
s(Vinsert
p3652
I74
VParameterizedType: ArrayList<RepositoryId>
p3653
tp3654
I1
s(Vinsert
p3655
I74
VParameterizedType: LinkedList<ListSeparator>
p3656
tp3657
I1
s(Vinsert
p3658
I42
VSimpleName: starred
p3659
tp3660
I1
s(Vinsert
p3661
I42
VSimpleName: fromStart
p3662
tp3663
I1
s(Vinsert
p3664
I42
VSimpleName: getRepositoryHtml
p3665
tp3666
I1
s(Vinsert
p3667
I42
VSimpleName: previousOrgId
p3668
tp3669
I2
s(Vinsert
p3670
I74
VParameterizedType: TabPagerActivity<V>
p3671
tp3672
I1
s(Vinsert
p3673
I43
VSimpleType: IssueFragment
p3674
tp3675
I3
s(Vinsert
p3676
I42
VSimpleName: formatDownload
p3677
tp3678
I1
s(Vinsert
p3679
I42
VSimpleName: publicCheckBox
p3680
tp3681
I1
s(Vinsert
p3682
I40
VQualifiedName: com.github.pockethub.android.core.PageIterator
p3683
tp3684
I3
s(Vinsert
p3685
I43
VSimpleType: SpannableStringBuilder
p3686
tp3687
I1
s(Vinsert
p3688
I42
VSimpleName: codeView
p3689
tp3690
I1
s(Vinsert
p3691
I42
VSimpleName: setPullRequest
p3692
tp3693
I1
s(Vinsert
p3694
I43
VSimpleType: ObjectInputStream
p3695
tp3696
I1
s(Vinsert
p3697
I40
VQualifiedName: com.github.mobile.android.guice.GitHubAccountScope
p3698
tp3699
I1
s(Vinsert
p3700
I45
VStringLiteral: "#00"
p3701
tp3702
I1
s(Vinsert
p3703
I42
VSimpleName: assigneeAvatar
p3704
tp3705
I1
s(Vinsert
p3706
I42
VSimpleName: PADDING_LEFT
p3707
tp3708
I1
s(Vinsert
p3709
I45
VStringLiteral: "<br>"
p3710
tp3711
I1
s(Vinsert
p3712
I40
VQualifiedName: com.alorma.github.sdk.bean.dto.response.Repo
p3713
tp3714
I1
s(Vinsert
p3715
I42
VSimpleName: addColor
p3716
tp3717
I1
s(Vinsert
p3718
I74
VParameterizedType: PageIterator.GitHubRequest<Response<Page<Milestone>>>
p3719
tp3720
I1
s(Vinsert
p3721
I40
VQualifiedName: repo.permissions.push
p3722
tp3723
I1
s(Vinsert
p3724
I40
VQualifiedName: id.et_password
p3725
tp3726
I1
s(Vinsert
p3727
I42
VSimpleName: peekAuthToken
p3728
tp3729
I1
s(Vinsert
p3730
I43
VSimpleType: OutputStream
p3731
tp3732
I1
s(Vinsert
p3733
I42
VSimpleName: open
p3734
tp3735
I3
s(Vinsert
p3736
I43
VSimpleType: Observable
p3737
tp3738
I3
s(Vinsert
p3739
I42
VSimpleName: visible
p3740
tp3741
I2
s(Vinsert
p3742
I42
VSimpleName: getStringArray
p3743
tp3744
I2
s(Vinsert
p3745
I42
VSimpleName: totalItemCount
p3746
tp3747
I3
s(Vinsert
p3748
I42
VSimpleName: getReadable
p3749
tp3750
I1
s(Vinsert
p3751
I42
VSimpleName: activityUsedToStartLoginProcess
p3752
tp3753
I1
s(Vinsert
p3754
I40
VQualifiedName: Base64.DEFAULT
p3755
tp3756
I1
s(Vinsert
p3757
I43
VSimpleType: Runnable
p3758
tp3759
I3
s(Vinsert
p3760
I42
VSimpleName: PublishGistClient
p3761
tp3762
I1
s(Vinsert
p3763
I42
VSimpleName: Gson
p3764
tp3765
I5
s(Vinsert
p3766
I43
VSimpleType: Layout
p3767
tp3768
I1
s(Vinsert
p3769
I43
VSimpleType: T
p3770
tp3771
I7
s(Vinsert
p3772
I43
VSimpleType: AuthenticatorDescription
p3773
tp3774
I1
s(Vinsert
p3775
I43
VSimpleType: PagedRequest
p3776
tp3777
I2
s(Vinsert
p3778
I42
VSimpleName: RESULT_OK
p3779
tp3780
I1
s(Vinsert
p3781
I42
VSimpleName: ServiceGenerator
p3782
tp3783
I18
s(Vinsert
p3784
I42
VSimpleName: onNext
p3785
tp3786
I16
s(Vinsert
p3787
I42
VSimpleName: just
p3788
tp3789
I3
s(Vinsert
p3790
I45
VStringLiteral: "Milestone: "
p3791
tp3792
I1
s(Vinsert
p3793
I66
VTextElement: Comment count
p3794
tp3795
I1
s(Vinsert
p3796
I42
VSimpleName: isPullRequest
p3797
tp3798
I2
s(Vinsert
p3799
I42
VSimpleName: filterHeader
p3800
tp3801
I1
s(Vinsert
p3802
I42
VSimpleName: createEvent
p3803
tp3804
I2
s(Vinsert
p3805
I42
VSimpleName: create
p3806
tp3807
I18
s(Vinsert
p3808
I42
VSimpleName: HttpImageGetter
p3809
tp3810
I6
s(Vinsert
p3811
I42
VSimpleName: RefreshRepsitoryTask
p3812
tp3813
I1
s(Vinsert
p3814
I40
VQualifiedName: commit.parents
p3815
tp3816
I1
s(Vinsert
p3817
I42
VSimpleName: toMap
p3818
tp3819
I3
s(Vinsert
p3820
I40
VQualifiedName: R.string.account_type
p3821
tp3822
I1
s(Vinsert
p3823
I40
VQualifiedName: id.tv_milestone_title
p3824
tp3825
I2
s(Vinsert
p3826
I13
VCharacterLiteral: '-'
p3827
tp3828
I1
s(Vinsert
p3829
I42
VSimpleName: remove
p3830
tp3831
I6
s(Vinsert
p3832
I38
VPrefixExpression: -
p3833
tp3834
I9
s(Vinsert
p3835
I42
VSimpleName: TabPagerActivity
p3836
tp3837
I1
s(Vinsert
p3838
I42
VSimpleName: CommitFile
p3839
tp3840
I10
s(Vinsert
p3841
I42
VSimpleName: showError
p3842
tp3843
I3
s(Vinsert
p3844
I42
VSimpleName: heights
p3845
tp3846
I1
s(Vinsert
p3847
I43
VSimpleType: Date
p3848
tp3849
I4
s(Vinsert
p3850
I43
VSimpleType: NewIssueCommentClient
p3851
tp3852
I2
s(Vinsert
p3853
I13
VCharacterLiteral: '+'
p3854
tp3855
I1
s(Vinsert
p3856
I42
VSimpleName: REGEX
p3857
tp3858
I3
s(Vinsert
p3859
I61
VWhileStatement
p3860
tp3861
I12
s(Vinsert
p3862
I45
VStringLiteral: "Enter id:"
p3863
tp3864
I1
s(Vinsert
p3865
I42
VSimpleName: setShadowLayer
p3866
tp3867
I2
s(Vinsert
p3868
I42
VSimpleName: FragmentPagerAdapter
p3869
tp3870
I2
s(Vinsert
p3871
I42
VSimpleName: ISSUE_LABELS_UPDATE
p3872
tp3873
I1
s(Vinsert
p3874
I42
VSimpleName: setPaintFlags
p3875
tp3876
I3
s(Vinsert
p3877
I42
VSimpleName: call
p3878
tp3879
I11
s(Vinsert
p3880
I42
VSimpleName: rhs
p3881
tp3882
I7
s(Vinsert
p3883
I42
VSimpleName: spyIconAndViewTextManager
p3884
tp3885
I2
s(Vinsert
p3886
I85
VDimension
p3887
tp3888
I39
s(Vinsert
p3889
I40
VQualifiedName: com.github.pockethub.util.RequestUtils
p3890
tp3891
I1
s(Vinsert
p3892
I42
VSimpleName: query
p3893
tp3894
I5
s(Vinsert
p3895
I42
VSimpleName: suggestions
p3896
tp3897
I2
s(Vinsert
p3898
I42
VSimpleName: Editable
p3899
tp3900
I2
s(Vinsert
p3901
I42
VSimpleName: getBlob
p3902
tp3903
I2
s(Vinsert
p3904
I42
VSimpleName: getContent
p3905
tp3906
I2
s(Vinsert
p3907
I42
VSimpleName: skip
p3908
tp3909
I1
s(Vinsert
p3910
I42
VSimpleName: toMillis
p3911
tp3912
I1
s(Vinsert
p3913
I42
VSimpleName: getOctocons
p3914
tp3915
I3
s(Vinsert
p3916
I45
VStringLiteral: "m"
p3917
tp3918
I1
s(Vinsert
p3919
I42
VSimpleName: getOwner
p3920
tp3921
I14
s(Vinsert
p3922
I42
VSimpleName: updateMilestone
p3923
tp3924
I1
s(Vinsert
p3925
I42
VSimpleName: TextUtils
p3926
tp3927
I33
s(Vinsert
p3928
I42
VSimpleName: is
p3929
tp3930
I1
s(Vinsert
p3931
I42
VSimpleName: UnfollowUserClient
p3932
tp3933
I1
s(Vinsert
p3934
I34
VNumberLiteral: 20
p3935
tp3936
I1
s(Vinsert
p3937
I42
VSimpleName: setCustomTabView
p3938
tp3939
I1
s(Vinsert
p3940
I42
VSimpleName: issue
p3941
tp3942
I86
s(Vinsert
p3943
I42
VSimpleName: clearAllTabs
p3944
tp3945
I1
s(Vinsert
p3946
I42
VSimpleName: getRefType
p3947
tp3948
I1
s(Vinsert
p3949
I42
VSimpleName: otherReposSortedByName
p3950
tp3951
I1
s(Vinsert
p3952
I40
VQualifiedName: FragmentEvent.CREATE
p3953
tp3954
I1
s(Vinsert
p3955
I74
VParameterizedType: Iterable<Repository>
p3956
tp3957
I1
s(Vinsert
p3958
I42
VSimpleName: repoText
p3959
tp3960
I2
s(Vinsert
p3961
I42
VSimpleName: storeToken
p3962
tp3963
I1
s(Vinsert
p3964
I42
VSimpleName: getListView
p3965
tp3966
I3
s(Vinsert
p3967
I45
VStringLiteral: "abcd"
p3968
tp3969
I3
s(Vinsert
p3970
I42
VSimpleName: code
p3971
tp3972
I6
s(Vinsert
p3973
I40
VQualifiedName: R.string.updating_milestone
p3974
tp3975
I1
s(Vinsert
p3976
I40
VQualifiedName: milestone.openIssues
p3977
tp3978
I1
s(Vinsert
p3979
I42
VSimpleName: getDescription
p3980
tp3981
I3
s(Vinsert
p3982
I42
VSimpleName: FullCommit
p3983
tp3984
I3
s(Vinsert
p3985
I42
VSimpleName: issueCommentClient
p3986
tp3987
I2
s(Vinsert
p3988
I42
VSimpleName: element
p3989
tp3990
I1
s(Vinsert
p3991
I74
VParameterizedType: ViewHoldingListAdapter<User>
p3992
tp3993
I1
s(Vinsert
p3994
I42
VSimpleName: getCommit
p3995
tp3996
I9
s(Vinsert
p3997
I43
VSimpleType: GithubComment
p3998
tp3999
I1
s(Vinsert
p4000
I42
VSimpleName: getScopes
p4001
tp4002
I1
s(Vinsert
p4003
I43
VSimpleType: DiffStyler
p4004
tp4005
I3
s(Vinsert
p4006
I42
VSimpleName: auth
p4007
tp4008
I3
s(Vinsert
p4009
I42
VSimpleName: factory
p4010
tp4011
I1
s(Vinsert
p4012
I42
VSimpleName: anyObject
p4013
tp4014
I1
s(Vinsert
p4015
I42
VSimpleName: repositorySearchPage
p4016
tp4017
I1
s(Vinsert
p4018
I42
VSimpleName: changed
p4019
tp4020
I2
s(Vinsert
p4021
I43
VSimpleType: WindowManager
p4022
tp4023
I2
s(Vinsert
p4024
I78
VMarkerAnnotation
p4025
tp4026
I102
s(Vinsert
p4027
I42
VSimpleName: GetRepoClient
p4028
tp4029
I2
s(Vinsert
p4030
I42
VSimpleName: load
p4031
tp4032
I3
s(Vinsert
p4033
I42
VSimpleName: main
p4034
tp4035
I17
s(Vinsert
p4036
I42
VSimpleName: descriptionText
p4037
tp4038
I2
s(Vinsert
p4039
I40
VQualifiedName: rx.Observable
p4040
tp4041
I1
s(Vinsert
p4042
I42
VSimpleName: getFilename
p4043
tp4044
I7
s(Vinsert
p4045
I42
VSimpleName: filename
p4046
tp4047
I10
s(Vinsert
p4048
I42
VSimpleName: hasRunningLoaders
p4049
tp4050
I4
s(Vinsert
p4051
I74
VParameterizedType: ProgressObserverAdapter<Response<Boolean>>
p4052
tp4053
I1
s(Vinsert
p4054
I45
VStringLiteral: "<p>"
p4055
tp4056
I1
s(Vinsert
p4057
I42
VSimpleName: when_event_type_is_issues_and_action_is_reopened_then_icon_should_be_issue_reopen_and_its_text_should_be_formatted
p4058
tp4059
I1
s(Vinsert
p4060
I42
VSimpleName: subscriber
p4061
tp4062
I8
s(Vinsert
p4063
I83
VModifier: public
p4064
tp4065
I144
s(Vinsert
p4066
I42
VSimpleName: EventPayload
p4067
tp4068
I6
s(Vinsert
p4069
I45
VStringLiteral: "Exception requesting users and orgs"
p4070
tp4071
I1
s(Vinsert
p4072
I42
VSimpleName: isPublic
p4073
tp4074
I3
s(Vinsert
p4075
I42
VSimpleName: id1
p4076
tp4077
I1
s(Vinsert
p4078
I66
VTextElement: Create intent to browse issue filters
p4079
tp4080
I1
s(Vinsert
p4081
I42
VSimpleName: exists
p4082
tp4083
I1
s(Vinsert
p4084
I42
VSimpleName: addHeaderView
p4085
tp4086
I1
s(Vinsert
p4087
I45
VStringLiteral: "%2E"
p4088
tp4089
I1
s(Vinsert
p4090
I74
VParameterizedType: Page<User>
p4091
tp4092
I1
s(Vinsert
p4093
I42
VSimpleName: pullRequests
p4094
tp4095
I2
s(Vinsert
p4096
I42
VSimpleName: UserReposClient
p4097
tp4098
I1
s(Vinsert
p4099
I42
VSimpleName: getDisplayWidth
p4100
tp4101
I1
s(Vinsert
p4102
I43
VSimpleType: RepositoryEventMatcher
p4103
tp4104
I2
s(Vinsert
p4105
I40
VQualifiedName: R.string.github_oauth
p4106
tp4107
I1
s(Vinsert
p4108
I42
VSimpleName: CommitStore
p4109
tp4110
I1
s(Vinsert
p4111
I42
VSimpleName: setFork
p4112
tp4113
I1
s(Vinsert
p4114
I7
VAssignment: +=
p4115
tp4116
I4
s(Vinsert
p4117
I42
VSimpleName: getAuthor
p4118
tp4119
I4
s(Vinsert
p4120
I42
VSimpleName: application
p4121
tp4122
I1
s(Vinsert
p4123
I13
VCharacterLiteral: ' '
p4124
tp4125
I1
s(Vinsert
p4126
I42
VSimpleName: ghAccount
p4127
tp4128
I1
s(Vinsert
p4129
I40
VQualifiedName: other.sortType
p4130
tp4131
I1
s(Vinsert
p4132
I42
VSimpleName: digits
p4133
tp4134
I2
s(Vinsert
p4135
I45
VStringLiteral: "pas"
p4136
tp4137
I1
s(Vinsert
p4138
I27
VInfixExpression: -
p4139
tp4140
I5
s(Vinsert
p4141
I42
VSimpleName: getPixels
p4142
tp4143
I2
s(Vinsert
p4144
I43
VSimpleType: ActionBar
p4145
tp4146
I11
s(Vinsert
p4147
I42
VSimpleName: values
p4148
tp4149
I8
s(Vinsert
p4150
I42
VSimpleName: eventManager
p4151
tp4152
I2
s(Vinsert
p4153
I42
VSimpleName: CheckBox
p4154
tp4155
I1
s(Vinsert
p4156
I40
VQualifiedName: android.R.attr.layout_height
p4157
tp4158
I1
s(Vinsert
p4159
I42
VSimpleName: styler
p4160
tp4161
I1
s(Vinsert
p4162
I42
VSimpleName: IssueViewHolder
p4163
tp4164
I1
s(Vinsert
p4165
I40
VQualifiedName: drawable.diff_marker_background
p4166
tp4167
I1
s(Vinsert
p4168
I42
VSimpleName: loadListener
p4169
tp4170
I2
s(Vinsert
p4171
I42
VSimpleName: segments
p4172
tp4173
I11
s(Vinsert
p4174
I40
VQualifiedName: id.tv_forks_icon
p4175
tp4176
I4
s(Vinsert
p4177
I43
VSimpleType: View
p4178
tp4179
I46
s(Vinsert
p4180
I42
VSimpleName: Integer
p4181
tp4182
I7
s(Vinsert
p4183
I42
VSimpleName: getFragment
p4184
tp4185
I2
s(Vinsert
p4186
I42
VSimpleName: numberView
p4187
tp4188
I2
s(Vinsert
p4189
I42
VSimpleName: sp
p4190
tp4191
I1
s(Vinsert
p4192
I42
VSimpleName: ViewFinder
p4193
tp4194
I2
s(Vinsert
p4195
I43
VSimpleType: SearchIssue
p4196
tp4197
I2
s(Vinsert
p4198
I42
VSimpleName: setClosedAt
p4199
tp4200
I1
s(Vinsert
p4201
I40
VQualifiedName: id.tv_commit_comments
p4202
tp4203
I1
s(Vinsert
p4204
I42
VSimpleName: mock
p4205
tp4206
I1
s(Vinsert
p4207
I40
VQualifiedName: com.meisolsson.githubsdk.core.ServiceGenerator
p4208
tp4209
I1
s(Vinsert
p4210
I42
VSimpleName: onSearchRequested
p4211
tp4212
I1
s(Vinsert
p4213
I42
VSimpleName: pull_requests
p4214
tp4215
I1
s(Vinsert
p4216
I43
VSimpleType: HomePagerAdapter
p4217
tp4218
I1
s(Vinsert
p4219
I43
VSimpleType: GistCommentService
p4220
tp4221
I1
s(Vinsert
p4222
I42
VSimpleName: getTheme
p4223
tp4224
I3
s(Vinsert
p4225
I40
VQualifiedName: rx.functions.Func1
p4226
tp4227
I1
s(Vinsert
p4228
I42
VSimpleName: forkRepository
p4229
tp4230
I3
s(Vinsert
p4231
I45
VStringLiteral: "blog"
p4232
tp4233
I1
s(Vinsert
p4234
I43
VSimpleType: AuthenticatorException
p4235
tp4236
I1
s(Vinsert
p4237
I40
VQualifiedName: MaterialDialog.Builder
p4238
tp4239
I7
s(Vinsert
p4240
I42
VSimpleName: obj
p4241
tp4242
I3
s(Vinsert
p4243
I45
VStringLiteral: "MilestoneDialog"
p4244
tp4245
I1
s(Vinsert
p4246
I42
VSimpleName: setList
p4247
tp4248
I2
s(Vinsert
p4249
I42
VSimpleName: USER_TOKEN
p4250
tp4251
I1
s(Vinsert
p4252
I42
VSimpleName: lifecycleSubject
p4253
tp4254
I4
s(Vinsert
p4255
I43
VSimpleType: IssueLabelService
p4256
tp4257
I1
s(Vinsert
p4258
I42
VSimpleName: userName
p4259
tp4260
I3
s(Vinsert
p4261
I45
VStringLiteral: " orgs for account "
p4262
tp4263
I1
s(Vinsert
p4264
I42
VSimpleName: Page
p4265
tp4266
I9
s(Vinsert
p4267
I42
VSimpleName: isDirectory
p4268
tp4269
I1
s(Vinsert
p4270
I45
VStringLiteral: "/"
p4271
tp4272
I1
s(Vinsert
p4273
I42
VSimpleName: Map
p4274
tp4275
I4
s(Vinsert
p4276
I42
VSimpleName: menu
p4277
tp4278
I11
s(Vinsert
p4279
I42
VSimpleName: SPACING
p4280
tp4281
I1
s(Vinsert
p4282
I42
VSimpleName: setImageResource
p4283
tp4284
I1
s(Vinsert
p4285
I42
VSimpleName: body
p4286
tp4287
I46
s(Vinsert
p4288
I42
VSimpleName: REPO_NAME_ORDER
p4289
tp4290
I1
s(Vinsert
p4291
I42
VSimpleName: totalBytesSkipped
p4292
tp4293
I2
s(Vinsert
p4294
I42
VSimpleName: System
p4295
tp4296
I1
s(Vinsert
p4297
I42
VSimpleName: hide
p4298
tp4299
I2
s(Vinsert
p4300
I42
VSimpleName: edited
p4301
tp4302
I5
s(Vinsert
p4303
I40
VQualifiedName: R.string.app_name
p4304
tp4305
I1
s(Vinsert
p4306
I42
VSimpleName: getVisibility
p4307
tp4308
I3
s(Vinsert
p4309
I42
VSimpleName: IssueBodyViewHolder
p4310
tp4311
I1
s(Vinsert
p4312
I5
VArrayType: Comment[]
p4313
tp4314
I2
s(Vinsert
p4315
I42
VSimpleName: full
p4316
tp4317
I5
s(Vinsert
p4318
I42
VSimpleName: getTitle
p4319
tp4320
I7
s(Vinsert
p4321
I40
VQualifiedName: id.m_apply
p4322
tp4323
I2
s(Vinsert
p4324
I42
VSimpleName: getName
p4325
tp4326
I17
s(Vinsert
p4327
I42
VSimpleName: configureTabPager
p4328
tp4329
I3
s(Vinsert
p4330
I40
VQualifiedName: com.alorma.github.sdk.services.gists.PublishGistCommentClient
p4331
tp4332
I1
s(Vinsert
p4333
I42
VSimpleName: MAX_SIZE
p4334
tp4335
I1
s(Vinsert
p4336
I42
VSimpleName: outValue
p4337
tp4338
I1
s(Vinsert
p4339
I42
VSimpleName: diffStyler
p4340
tp4341
I5
s(Vinsert
p4342
I74
VParameterizedType: RequestFuture<List<Issue>>
p4343
tp4344
I1
s(Vinsert
p4345
I42
VSimpleName: encoding
p4346
tp4347
I1
s(Vinsert
p4348
I42
VSimpleName: types
p4349
tp4350
I1
s(Vinsert
p4351
I42
VSimpleName: handleIntent
p4352
tp4353
I4
s(Vinsert
p4354
I43
VSimpleType: GetMarkdownClient
p4355
tp4356
I2
s(Vinsert
p4357
I24
VForStatement
p4358
tp4359
I7
s(Vinsert
p4360
I42
VSimpleName: showLoading
p4361
tp4362
I2
s(Vinsert
p4363
I45
VStringLiteral: "DBCache"
p4364
tp4365
I1
s(Vinsert
p4366
I42
VSimpleName: landscape
p4367
tp4368
I1
s(Vinsert
p4369
I40
VQualifiedName: layout.show_more_item
p4370
tp4371
I1
s(Vinsert
p4372
I40
VQualifiedName: SharedPreferences.Editor
p4373
tp4374
I2
s(Vinsert
p4375
I42
VSimpleName: userId
p4376
tp4377
I2
s(Vinsert
p4378
I42
VSimpleName: default_branch
p4379
tp4380
I1
s(Vinsert
p4381
I42
VSimpleName: setCancelable
p4382
tp4383
I1
s(Vinsert
p4384
I42
VSimpleName: getDisplayMetrics
p4385
tp4386
I1
s(Vinsert
p4387
I42
VSimpleName: getResponse
p4388
tp4389
I1
s(Vinsert
p4390
I40
VQualifiedName: current.updated_at
p4391
tp4392
I1
s(Vinsert
p4393
I42
VSimpleName: fieldName
p4394
tp4395
I4
s(Vinsert
p4396
I40
VQualifiedName: TypefaceUtils.ICON_ISSUE_COMMENT
p4397
tp4398
I1
s(Vinsert
p4399
I74
VParameterizedType: Page<GitHubComment>
p4400
tp4401
I1
s(Vinsert
p4402
I42
VSimpleName: Toast
p4403
tp4404
I5
s(Vinsert
p4405
I40
VQualifiedName: EventType.GistEvent
p4406
tp4407
I1
s(Vinsert
p4408
I43
VSimpleType: CommitUser
p4409
tp4410
I2
s(Vinsert
p4411
I34
VNumberLiteral: 4
p4412
tp4413
I3
s(Vinsert
p4414
I42
VSimpleName: HttpRequest
p4415
tp4416
I6
s(Vinsert
p4417
I42
VSimpleName: selectedChoices
p4418
tp4419
I2
s(Vinsert
p4420
I42
VSimpleName: IssueFragment
p4421
tp4422
I1
s(Vinsert
p4423
I42
VSimpleName: editCommentListener
p4424
tp4425
I2
s(Vinsert
p4426
I42
VSimpleName: GitService
p4427
tp4428
I1
s(Vinsert
p4429
I42
VSimpleName: rotation
p4430
tp4431
I1
s(Vinsert
p4432
I42
VSimpleName: getView
p4433
tp4434
I3
s(Vinsert
p4435
I42
VSimpleName: milestoneClosed
p4436
tp4437
I1
s(Vinsert
p4438
I42
VSimpleName: SQLException
p4439
tp4440
I1
s(Vinsert
p4441
I42
VSimpleName: NumberFormat
p4442
tp4443
I12
s(Vinsert
p4444
I42
VSimpleName: EXTRA_REPOSITORY_NAME
p4445
tp4446
I1
s(Vinsert
p4447
I42
VSimpleName: refreshGist
p4448
tp4449
I2
s(Vinsert
p4450
I43
VSimpleType: GetRepoClient
p4451
tp4452
I2
s(Vinsert
p4453
I42
VSimpleName: tags
p4454
tp4455
I3
s(Vinsert
p4456
I48
VSuperMethodInvocation
p4457
tp4458
I74
s(Vinsert
p4459
I42
VSimpleName: isOwner
p4460
tp4461
I5
s(Vinsert
p4462
I42
VSimpleName: createRepoId
p4463
tp4464
I1
s(Vinsert
p4465
I42
VSimpleName: addTextChangedListener
p4466
tp4467
I2
s(Vinsert
p4468
I43
VSimpleType: EventRepository
p4469
tp4470
I1
s(Vinsert
p4471
I42
VSimpleName: FullIssue
p4472
tp4473
I2
s(Vinsert
p4474
I42
VSimpleName: GetRepoEventsClient
p4475
tp4476
I1
s(Vinsert
p4477
I43
VSimpleType: RefDialog
p4478
tp4479
I1
s(Vinsert
p4480
I42
VSimpleName: shareRepositoryURL
p4481
tp4482
I1
s(Vinsert
p4483
I43
VSimpleType: File
p4484
tp4485
I7
s(Vinsert
p4486
I42
VSimpleName: deletions
p4487
tp4488
I1
s(Vinsert
p4489
I43
VSimpleType: GistListAdapter
p4490
tp4491
I1
s(Vinsert
p4492
I42
VSimpleName: onDialogResult
p4493
tp4494
I4
s(Vinsert
p4495
I42
VSimpleName: collaborator
p4496
tp4497
I4
s(Vinsert
p4498
I42
VSimpleName: withZoneUTC
p4499
tp4500
I1
s(Vinsert
p4501
I42
VSimpleName: userImage
p4502
tp4503
I1
s(Vinsert
p4504
I45
VStringLiteral: " added "
p4505
tp4506
I1
s(Vinsert
p4507
I42
VSimpleName: GistFragment
p4508
tp4509
I3
s(Vinsert
p4510
I45
VStringLiteral: "://"
p4511
tp4512
I1
s(Vinsert
p4513
I42
VSimpleName: setGone
p4514
tp4515
I23
s(Vinsert
p4516
I42
VSimpleName: animate
p4517
tp4518
I1
s(Vinsert
p4519
I42
VSimpleName: layout
p4520
tp4521
I1
s(Vinsert
p4522
I42
VSimpleName: assigneLogin
p4523
tp4524
I3
s(Vinsert
p4525
I42
VSimpleName: RefUtils
p4526
tp4527
I6
s(Vinsert
p4528
I45
VStringLiteral: "logout"
p4529
tp4530
I1
s(Vinsert
p4531
I42
VSimpleName: ViewInflator
p4532
tp4533
I2
s(Vinsert
p4534
I42
VSimpleName: Activity
p4535
tp4536
I7
s(Vinsert
p4537
I42
VSimpleName: RecentRepositories
p4538
tp4539
I1
s(Vinsert
p4540
I43
VSimpleType: Editable
p4541
tp4542
I2
s(Vinsert
p4543
I42
VSimpleName: UserUriMatcher
p4544
tp4545
I4
s(Vinsert
p4546
I42
VSimpleName: getFiles
p4547
tp4548
I6
s(Vinsert
p4549
I42
VSimpleName: getNavigationItemCount
p4550
tp4551
I1
s(Vinsert
p4552
I42
VSimpleName: getCommits
p4553
tp4554
I2
s(Vinsert
p4555
I43
VSimpleType: Observable.Transformer
p4556
tp4557
I2
s(Vinsert
p4558
I42
VSimpleName: ViewUtils
p4559
tp4560
I14
s(Vinsert
p4561
I42
VSimpleName: REF_UPDATE
p4562
tp4563
I2
s(Vinsert
p4564
I42
VSimpleName: getIntent
p4565
tp4566
I23
s(Vinsert
p4567
I42
VSimpleName: positionOffsetPixels
p4568
tp4569
I2
s(Vinsert
p4570
I42
VSimpleName: l
p4571
tp4572
I5
s(Vinsert
p4573
I42
VSimpleName: pageUserEvents
p4574
tp4575
I2
s(Vinsert
p4576
I42
VSimpleName: newFixedThreadPool
p4577
tp4578
I1
s(Vinsert
p4579
I42
VSimpleName: PublicGistsClient
p4580
tp4581
I1
s(Vinsert
p4582
I66
VTextElement:  true if the name has a markdown extension, false otherwise
p4583
tp4584
I1
s(Vinsert
p4585
I42
VSimpleName: MilestoneDialogFragment
p4586
tp4587
I1
s(Vinsert
p4588
I43
VSimpleType: GistsPagerAdapter
p4589
tp4590
I1
s(Vinsert
p4591
I42
VSimpleName: defaultBranch
p4592
tp4593
I2
s(Vinsert
p4594
I43
VSimpleType: CommitView
p4595
tp4596
I1
s(Vinsert
p4597
I43
VSimpleType: Team
p4598
tp4599
I1
s(Vinsert
p4600
I42
VSimpleName: CommentItemView
p4601
tp4602
I1
s(Vinsert
p4603
I42
VSimpleName: setRefreshItem
p4604
tp4605
I1
s(Vinsert
p4606
I42
VSimpleName: Repo
p4607
tp4608
I2
s(Vinsert
p4609
I42
VSimpleName: findDrawableByLayerId
p4610
tp4611
I1
s(Vinsert
p4612
I42
VSimpleName: GITHUB_ACCOUNT_NAME
p4613
tp4614
I1
s(Vinsert
p4615
I42
VSimpleName: total
p4616
tp4617
I1
s(Vinsert
p4618
I43
VSimpleType: CommentListAdapter
p4619
tp4620
I3
s(Vinsert
p4621
I42
VSimpleName: write
p4622
tp4623
I1
s(Vinsert
p4624
I42
VSimpleName: arguments
p4625
tp4626
I23
s(Vinsert
p4627
I42
VSimpleName: setSelected
p4628
tp4629
I2
s(Vinsert
p4630
I40
VQualifiedName: android.view.View.VISIBLE
p4631
tp4632
I2
s(Vinsert
p4633
I22
VFieldAccess
p4634
tp4635
I47
s(Vinsert
p4636
I42
VSimpleName: Character
p4637
tp4638
I1
s(Vinsert
p4639
I45
VStringLiteral: "java"
p4640
tp4641
I1
s(Vinsert
p4642
I74
VParameterizedType: PageIterator.GitHubRequest<Response<Page<User>>>
p4643
tp4644
I1
s(Vinsert
p4645
I40
VQualifiedName: drawable.tab_selector_left
p4646
tp4647
I1
s(Vinsert
p4648
I42
VSimpleName: reference
p4649
tp4650
I9
s(Vinsert
p4651
I42
VSimpleName: getData
p4652
tp4653
I1
s(Vinsert
p4654
I42
VSimpleName: IssueInfo
p4655
tp4656
I1
s(Vinsert
p4657
I42
VSimpleName: ConfirmDialogFragment
p4658
tp4659
I3
s(Vinsert
p4660
I42
VSimpleName: suffix
p4661
tp4662
I1
s(Vinsert
p4663
I40
VQualifiedName: current.description
p4664
tp4665
I1
s(Vinsert
p4666
I42
VSimpleName: isOpen
p4667
tp4668
I1
s(Vinsert
p4669
I42
VSimpleName: getDisplay
p4670
tp4671
I3
s(Vinsert
p4672
I42
VSimpleName: IssuesPayload
p4673
tp4674
I2
s(Vinsert
p4675
I43
VSimpleType: GetReferencesClient
p4676
tp4677
I1
s(Vinsert
p4678
I42
VSimpleName: getChildAt
p4679
tp4680
I1
s(Vinsert
p4681
I40
VQualifiedName: com.github.pockethub.util.InfoUtils
p4682
tp4683
I2
s(Vinsert
p4684
I40
VQualifiedName: R.string.github_secret
p4685
tp4686
I1
s(Vinsert
p4687
I42
VSimpleName: accountProvider
p4688
tp4689
I3
s(Vinsert
p4690
I45
VStringLiteral: "Updating labels..."
p4691
tp4692
I1
s(Vinsert
p4693
I42
VSimpleName: createLoginIntent
p4694
tp4695
I1
s(Vinsert
p4696
I42
VSimpleName: setOctocons
p4697
tp4698
I1
s(Vinsert
p4699
I42
VSimpleName: getUserToken
p4700
tp4701
I1
s(Vinsert
p4702
I42
VSimpleName: insetPx
p4703
tp4704
I1
s(Vinsert
p4705
I43
VSimpleType: DialogFragmentActivity
p4706
tp4707
I1
s(Vinsert
p4708
I42
VSimpleName: observeOn
p4709
tp4710
I10
s(Vinsert
p4711
I42
VSimpleName: createIntent
p4712
tp4713
I29
s(Vinsert
p4714
I42
VSimpleName: subscribe
p4715
tp4716
I33
s(Vinsert
p4717
I42
VSimpleName: CommitFileView
p4718
tp4719
I1
s(Vinsert
p4720
I42
VSimpleName: expectedInstance
p4721
tp4722
I1
s(Vinsert
p4723
I42
VSimpleName: getParent
p4724
tp4725
I2
s(Vinsert
p4726
I42
VSimpleName: getRecentReposFile
p4727
tp4728
I1
s(Vinsert
p4729
I5
VArrayType: Object[]
p4730
tp4731
I1
s(Vinsert
p4732
I43
VSimpleType: IssueStoryComment
p4733
tp4734
I1
s(Vinsert
p4735
I42
VSimpleName: removeLast
p4736
tp4737
I1
s(Vinsert
p4738
I42
VSimpleName: mAccountAuthenticatorResponse
p4739
tp4740
I2
s(Vinsert
p4741
I42
VSimpleName: String
p4742
tp4743
I178
s(Vinsert
p4744
I42
VSimpleName: repoMatcher
p4745
tp4746
I2
s(Vinsert
p4747
I42
VSimpleName: AtomicInteger
p4748
tp4749
I2
s(Vinsert
p4750
I42
VSimpleName: getCurrentItem
p4751
tp4752
I7
s(Vinsert
p4753
I66
VTextElement: initial call to 
p4754
tp4755
I1
s(Vinsert
p4756
I42
VSimpleName: getPullRequest
p4757
tp4758
I4
s(Vinsert
p4759
I42
VSimpleName: computeMaxDigits
p4760
tp4761
I2
s(Vinsert
p4762
I42
VSimpleName: host
p4763
tp4764
I5
s(Vinsert
p4765
I40
VQualifiedName: com.actionbarsherlock.R.drawable
p4766
tp4767
I1
s(Vinsert
p4768
I42
VSimpleName: assertNull
p4769
tp4770
I8
s(Vinsert
p4771
I40
VQualifiedName: IssueService.FILTER_STATE
p4772
tp4773
I1
s(Vinsert
p4774
I42
VSimpleName: setNotificationVisibility
p4775
tp4776
I1
s(Vinsert
p4777
I43
VSimpleType: EditText
p4778
tp4779
I8
s(Vinsert
p4780
I42
VSimpleName: c
p4781
tp4782
I2
s(Vinsert
p4783
I42
VSimpleName: createScaledBitmap
p4784
tp4785
I1
s(Vinsert
p4786
I40
VQualifiedName: id.issue_state
p4787
tp4788
I1
s(Vinsert
p4789
I42
VSimpleName: contributorId
p4790
tp4791
I1
s(Vinsert
p4792
I42
VSimpleName: Parcel
p4793
tp4794
I4
s(Vinsert
p4795
I42
VSimpleName: HashSet
p4796
tp4797
I1
s(Vinsert
p4798
I40
VQualifiedName: repo.owner.login
p4799
tp4800
I1
s(Vinsert
p4801
I42
VSimpleName: Object
p4802
tp4803
I28
s(Vinsert
p4804
I42
VSimpleName: LabelsDrawable
p4805
tp4806
I2
s(Vinsert
p4807
I42
VSimpleName: Solo
p4808
tp4809
I1
s(Vinsert
p4810
I42
VSimpleName: makeText
p4811
tp4812
I5
s(Vinsert
p4813
I42
VSimpleName: Serializable
p4814
tp4815
I1
s(Vinsert
p4816
I25
VIfStatement
p4817
tp4818
I303
s(Vinsert
p4819
I42
VSimpleName: instantiateItem
p4820
tp4821
I2
s(Vinsert
p4822
I42
VSimpleName: contentText
p4823
tp4824
I2
s(Vinsert
p4825
I40
VQualifiedName: R.id.rb_closed
p4826
tp4827
I1
s(Vinsert
p4828
I40
VQualifiedName: android.R.id.list
p4829
tp4830
I1
s(Vinsert
p4831
I40
VQualifiedName: id.iv_user_avatar
p4832
tp4833
I1
s(Vinsert
p4834
I42
VSimpleName: getUrl
p4835
tp4836
I4
s(Vinsert
p4837
I42
VSimpleName: ProgressDialog
p4838
tp4839
I12
s(Vinsert
p4840
I42
VSimpleName: BOLD
p4841
tp4842
I2
s(Vinsert
p4843
I42
VSimpleName: IssuesFragment
p4844
tp4845
I1
s(Vinsert
p4846
I42
VSimpleName: dbCache
p4847
tp4848
I2
s(Vinsert
p4849
I42
VSimpleName: getSubject
p4850
tp4851
I1
s(Vinsert
p4852
I42
VSimpleName: loadInBackground
p4853
tp4854
I8
s(Vinsert
p4855
I40
VQualifiedName: Build.VERSION_CODES.LOLLIPOP_MR1
p4856
tp4857
I1
s(Vinsert
p4858
I43
VSimpleType: Paint
p4859
tp4860
I6
s(Vinsert
p4861
I43
VSimpleType: GetAssigneesClient
p4862
tp4863
I2
s(Vinsert
p4864
I42
VSimpleName: findFirstAppBarLayout
p4865
tp4866
I1
s(Vinsert
p4867
I42
VSimpleName: toFilterMap
p4868
tp4869
I1
s(Vinsert
p4870
I43
VSimpleType: RepositoryIssue
p4871
tp4872
I8
s(Vinsert
p4873
I40
VQualifiedName: client.next
p4874
tp4875
I1
s(Vinsert
p4876
I40
VQualifiedName: Build.VERSION_CODES.LOLLIPOP
p4877
tp4878
I1
s(Vinsert
p4879
I43
VSimpleType: WebView
p4880
tp4881
I3
s(Vinsert
p4882
I42
VSimpleName: toJson
p4883
tp4884
I2
s(Vinsert
p4885
I40
VQualifiedName: id.tv_comment_icon
p4886
tp4887
I1
s(Vinsert
p4888
I43
VSimpleType: Menu
p4889
tp4890
I9
s(Vinsert
p4891
I42
VSimpleName: ViewCompat
p4892
tp4893
I1
s(Vinsert
p4894
I42
VSimpleName: fullCommit
p4895
tp4896
I1
s(Vinsert
p4897
I42
VSimpleName: milestone
p4898
tp4899
I8
s(Vinsert
p4900
I43
VSimpleType: WebResourceRequest
p4901
tp4902
I1
s(Vinsert
p4903
I42
VSimpleName: RepositoryUriMatcher
p4904
tp4905
I3
s(Vinsert
p4906
I40
VQualifiedName: layout.org_dropdown_item
p4907
tp4908
I1
s(Vinsert
p4909
I40
VQualifiedName: R.id.clear_search_history
p4910
tp4911
I1
s(Vinsert
p4912
I42
VSimpleName: getEvent
p4913
tp4914
I1
s(Vinsert
p4915
I39
VPrimitiveType: long
p4916
tp4917
I28
s(Vinsert
p4918
I66
VTextElement: Start an activity to view the given repository
p4919
tp4920
I1
s(Vinsert
p4921
I42
VSimpleName: setImageBitmap
p4922
tp4923
I2
s(Vinsert
p4924
I38
VPrefixExpression: !
p4925
tp4926
I47
s(Vinsert
p4927
I43
VSimpleType: LinearLayout
p4928
tp4929
I3
s(Vinsert
p4930
I42
VSimpleName: in
p4931
tp4932
I8
s(Vinsert
p4933
I42
VSimpleName: userGists
p4934
tp4935
I2
s(Vinsert
p4936
I43
VSimpleType: Boolean
p4937
tp4938
I17
s(Vinsert
p4939
I42
VSimpleName: setAuthor
p4940
tp4941
I1
s(Vinsert
p4942
I42
VSimpleName: assigneeLabel
p4943
tp4944
I1
s(Vinsert
p4945
I45
VStringLiteral: "https://gist.github.com/TEST"
p4946
tp4947
I1
s(Vinsert
p4948
I40
VQualifiedName: id.ll_milestone_graph
p4949
tp4950
I1
s(Vinsert
p4951
I42
VSimpleName: PreferenceUtils
p4952
tp4953
I1
s(Vinsert
p4954
I42
VSimpleName: getStringExtra
p4955
tp4956
I8
s(Vinsert
p4957
I42
VSimpleName: getFD
p4958
tp4959
I1
s(Vinsert
p4960
I66
VTextElement: <p>
p4961
tp4962
I1
s(Vinsert
p4963
I42
VSimpleName: Callback
p4964
tp4965
I1
s(Vinsert
p4966
I42
VSimpleName: EditAssigneeTask
p4967
tp4968
I1
s(Vinsert
p4969
I42
VSimpleName: repoDescription
p4970
tp4971
I4
s(Vinsert
p4972
I42
VSimpleName: toPosY
p4973
tp4974
I4
s(Vinsert
p4975
I74
VParameterizedType: ArrayList<>
p4976
tp4977
I1
s(Vinsert
p4978
I42
VSimpleName: CommitService
p4979
tp4980
I1
s(Vinsert
p4981
I42
VSimpleName: indexOf
p4982
tp4983
I5
s(Vinsert
p4984
I42
VSimpleName: EditText
p4985
tp4986
I9
s(Vinsert
p4987
I42
VSimpleName: url
p4988
tp4989
I22
s(Vinsert
p4990
I42
VSimpleName: setFocusable
p4991
tp4992
I1
s(Vinsert
p4993
I42
VSimpleName: requestFuture
p4994
tp4995
I1
s(Vinsert
p4996
I40
VQualifiedName: repo.mirror_url
p4997
tp4998
I1
s(Vinsert
p4999
I42
VSimpleName: random
p5000
tp5001
I1
s(Vinsert
p5002
I42
VSimpleName: sharedPreferences
p5003
tp5004
I2
s(Vinsert
p5005
I66
VTextElement: Event details text view
p5006
tp5007
I1
s(Vinsert
p5008
I42
VSimpleName: registerNoSeparator
p5009
tp5010
I2
s(Vinsert
p5011
I42
VSimpleName: style
p5012
tp5013
I1
s(Vinsert
p5014
I43
VSimpleType: PublicGistsClient
p5015
tp5016
I1
s(Vinsert
p5017
I40
VQualifiedName: body.length
p5018
tp5019
I1
s(Vinsert
p5020
I34
VNumberLiteral: 10
p5021
tp5022
I1
s(Vinsert
p5023
I42
VSimpleName: am
p5024
tp5025
I2
s(Vinsert
p5026
I43
VSimpleType: Request.Builder
p5027
tp5028
I1
s(Vinsert
p5029
I42
VSimpleName: EditIssueRequestDTO
p5030
tp5031
I1
s(Vinsert
p5032
I42
VSimpleName: ViewHoldingListAdapter
p5033
tp5034
I3
s(Vinsert
p5035
I42
VSimpleName: authorAvatar
p5036
tp5037
I1
s(Vinsert
p5038
I40
VQualifiedName: android.view.MenuInflater
p5039
tp5040
I1
s(Vinsert
p5041
I42
VSimpleName: mTabStrip
p5042
tp5043
I1
s(Vinsert
p5044
I42
VSimpleName: u1
p5045
tp5046
I2
s(Vinsert
p5047
I40
VQualifiedName: com.meisolsson.githubsdk.model.Repository
p5048
tp5049
I1
s(Vinsert
p5050
I42
VSimpleName: setUseWideViewPort
p5051
tp5052
I1
s(Vinsert
p5053
I34
VNumberLiteral: 24
p5054
tp5055
I1
s(Vinsert
p5056
I42
VSimpleName: issues
p5057
tp5058
I12
s(Vinsert
p5059
I42
VSimpleName: slidingTabsLayout
p5060
tp5061
I2
s(Vinsert
p5062
I42
VSimpleName: PullRequest
p5063
tp5064
I1
s(Vinsert
p5065
I43
VSimpleType: AccountAuthenticatorResponse
p5066
tp5067
I1
s(Vinsert
p5068
I42
VSimpleName: rounded
p5069
tp5070
I1
s(Vinsert
p5071
I74
VParameterizedType: SearchPage<User>
p5072
tp5073
I1
s(Vinsert
p5074
I40
VQualifiedName: id.tv_stats
p5075
tp5076
I1
s(Vinsert
p5077
I43
VSimpleType: GitReference
p5078
tp5079
I3
s(Vinsert
p5080
I42
VSimpleName: repoId
p5081
tp5082
I7
s(Vinsert
p5083
I42
VSimpleName: GITHUB_ACCOUNT_TYPE
p5084
tp5085
I3
s(Vinsert
p5086
I43
VSimpleType: AuthenticatorConflictException
p5087
tp5088
I1
s(Vinsert
p5089
I45
VStringLiteral: "\u005cuf207"
p5090
tp5091
I1
s(Vinsert
p5092
I42
VSimpleName: formatIssues
p5093
tp5094
I1
s(Vinsert
p5095
I42
VSimpleName: PrivilegedAction
p5096
tp5097
I1
s(Vinsert
p5098
I42
VSimpleName: rawAvatar
p5099
tp5100
I2
s(Vinsert
p5101
I42
VSimpleName: NotificationThread
p5102
tp5103
I1
s(Vinsert
p5104
I45
VStringLiteral: "merged"
p5105
tp5106
I1
s(Vinsert
p5107
I43
VSimpleType: EditIssueClient
p5108
tp5109
I1
s(Vinsert
p5110
I42
VSimpleName: digest
p5111
tp5112
I1
s(Vinsert
p5113
I42
VSimpleName: configureList
p5114
tp5115
I1
s(Vinsert
p5116
I42
VSimpleName: reported
p5117
tp5118
I1
s(Vinsert
p5119
I43
VSimpleType: ListAdapter
p5120
tp5121
I3
s(Vinsert
p5122
I43
VSimpleType: SQLiteDatabase
p5123
tp5124
I1
s(Vinsert
p5125
I42
VSimpleName: lineComments
p5126
tp5127
I1
s(Vinsert
p5128
I43
VSimpleType: IRepositoryIdProvider
p5129
tp5130
I3
s(Vinsert
p5131
I42
VSimpleName: putInt
p5132
tp5133
I2
s(Vinsert
p5134
I43
VSimpleType: GetIssuesClient
p5135
tp5136
I1
s(Vinsert
p5137
I42
VSimpleName: GistViewHolder
p5138
tp5139
I1
s(Vinsert
p5140
I42
VSimpleName: getState
p5141
tp5142
I1
s(Vinsert
p5143
I42
VSimpleName: WebResourceRequest
p5144
tp5145
I1
s(Vinsert
p5146
I42
VSimpleName: actor
p5147
tp5148
I5
s(Vinsert
p5149
I42
VSimpleName: getTypeface
p5150
tp5151
I2
s(Vinsert
p5152
I42
VSimpleName: RuntimeException
p5153
tp5154
I16
s(Vinsert
p5155
I43
VSimpleType: List
p5156
tp5157
I45
s(Vinsert
p5158
I43
VSimpleType: PageIterator
p5159
tp5160
I5
s(Vinsert
p5161
I43
VSimpleType: PublishGistCommentClient
p5162
tp5163
I3
s(Vinsert
p5164
I42
VSimpleName: ActionBar
p5165
tp5166
I11
s(Vinsert
p5167
I42
VSimpleName: getBodyText
p5168
tp5169
I1
s(Vinsert
p5170
I42
VSimpleName: restAdapter
p5171
tp5172
I4
s(Vinsert
p5173
I34
VNumberLiteral: 3
p5174
tp5175
I2
s(Vinsert
p5176
I42
VSimpleName: setType
p5177
tp5178
I6
s(Vinsert
p5179
I42
VSimpleName: lSlash
p5180
tp5181
I2
s(Vinsert
p5182
I40
VQualifiedName: com.actionbarsherlock.app.ActionBar
p5183
tp5184
I1
s(Vinsert
p5185
I45
VStringLiteral: "https://github.com"
p5186
tp5187
I2
s(Vinsert
p5188
I42
VSimpleName: findViewById
p5189
tp5190
I98
s(Vinsert
p5191
I42
VSimpleName: getMenu
p5192
tp5193
I1
s(Vinsert
p5194
I42
VSimpleName: QUERY
p5195
tp5196
I1
s(Vinsert
p5197
I42
VSimpleName: outState
p5198
tp5199
I10
s(Vinsert
p5200
I43
VSimpleType: ResolveInfo
p5201
tp5202
I2
s(Vinsert
p5203
I43
VSimpleType: GistPayload
p5204
tp5205
I1
s(Vinsert
p5206
I42
VSimpleName: color
p5207
tp5208
I5
s(Vinsert
p5209
I42
VSimpleName: future
p5210
tp5211
I3
s(Vinsert
p5212
I42
VSimpleName: rowHeight
p5213
tp5214
I2
s(Vinsert
p5215
I42
VSimpleName: getChildFragmentManager
p5216
tp5217
I2
s(Vinsert
p5218
I42
VSimpleName: FullCommitFile
p5219
tp5220
I3
s(Vinsert
p5221
I42
VSimpleName: COL_AVATAR
p5222
tp5223
I1
s(Vinsert
p5224
I42
VSimpleName: repoOwner
p5225
tp5226
I6
s(Vinsert
p5227
I40
VQualifiedName: file.filename
p5228
tp5229
I4
s(Vinsert
p5230
I40
VQualifiedName: layout.commit_item
p5231
tp5232
I1
s(Vinsert
p5233
I43
VSimpleType: Bitmap
p5234
tp5235
I7
s(Vinsert
p5236
I42
VSimpleName: getMaxDigits
p5237
tp5238
I2
s(Vinsert
p5239
I42
VSimpleName: addAccount
p5240
tp5241
I1
s(Vinsert
p5242
I42
VSimpleName: getCommentCount
p5243
tp5244
I2
s(Vinsert
p5245
I74
VParameterizedType: Observable.Transformer<T,T>
p5246
tp5247
I2
s(Vinsert
p5248
I42
VSimpleName: writeString
p5249
tp5250
I1
s(Vinsert
p5251
I42
VSimpleName: changeState
p5252
tp5253
I1
s(Vinsert
p5254
I42
VSimpleName: EditGistCommentClient
p5255
tp5256
I1
s(Vinsert
p5257
I42
VSimpleName: textBounds
p5258
tp5259
I1
s(Vinsert
p5260
I42
VSimpleName: gitHubAccountProvider
p5261
tp5262
I4
s(Vinsert
p5263
I43
VSimpleType: Loader
p5264
tp5265
I1
s(Vinsert
p5266
I43
VSimpleType: AlertDialog
p5267
tp5268
I3
s(Vinsert
p5269
I42
VSimpleName: setWrap
p5270
tp5271
I1
s(Vinsert
p5272
I66
VTextElement: Issue opener text view
p5273
tp5274
I1
s(Vinsert
p5275
I74
VParameterizedType: PrivilegedAction<Object>
p5276
tp5277
I1
s(Vinsert
p5278
I45
VStringLiteral: "Excepting retrieving account"
p5279
tp5280
I1
s(Vinsert
p5281
I43
VSimpleType: RefreshRepsitoryTask
p5282
tp5283
I1
s(Vinsert
p5284
I42
VSimpleName: currentEncoded
p5285
tp5286
I3
s(Vinsert
p5287
I42
VSimpleName: avatar
p5288
tp5289
I1
s(Vinsert
p5290
I42
VSimpleName: recentReposHelper
p5291
tp5292
I2
s(Vinsert
p5293
I42
VSimpleName: BitmapFactory
p5294
tp5295
I2
s(Vinsert
p5296
I43
VSimpleType: Integer
p5297
tp5298
I6
s(Vinsert
p5299
I42
VSimpleName: type
p5300
tp5301
I11
s(Vinsert
p5302
I42
VSimpleName: labelsDialog
p5303
tp5304
I4
s(Vinsert
p5305
I42
VSimpleName: allowScanningByMediaScanner
p5306
tp5307
I1
s(Vinsert
p5308
I42
VSimpleName: updateFilterSummary
p5309
tp5310
I1
s(Vinsert
p5311
I42
VSimpleName: REPO_NAME
p5312
tp5313
I1
s(Vinsert
p5314
I42
VSimpleName: setAssignee
p5315
tp5316
I4
s(Vinsert
p5317
I42
VSimpleName: Matcher
p5318
tp5319
I3
s(Vinsert
p5320
I43
VSimpleType: DialogInterface
p5321
tp5322
I1
s(Vinsert
p5323
I42
VSimpleName: GONE
p5324
tp5325
I5
s(Vinsert
p5326
I54
VTryStatement
p5327
tp5328
I31
s(Vinsert
p5329
I40
VQualifiedName: com.alorma.github.sdk.bean.dto.response.GithubComment
p5330
tp5331
I1
s(Vinsert
p5332
I42
VSimpleName: removeFromCache
p5333
tp5334
I1
s(Vinsert
p5335
I42
VSimpleName: commitPosition
p5336
tp5337
I2
s(Vinsert
p5338
I42
VSimpleName: os
p5339
tp5340
I1
s(Vinsert
p5341
I42
VSimpleName: GitComment
p5342
tp5343
I3
s(Vinsert
p5344
I43
VSimpleType: IOException
p5345
tp5346
I15
s(Vinsert
p5347
I43
VSimpleType: DownloadPayload
p5348
tp5349
I1
s(Vinsert
p5350
I40
VQualifiedName: com.alorma.github.sdk.services.issues.PostNewIssueClient
p5351
tp5352
I1
s(Vinsert
p5353
I42
VSimpleName: listLoader
p5354
tp5355
I2
s(Vinsert
p5356
I43
VSimpleType: ProgressDialog
p5357
tp5358
I11
s(Vinsert
p5359
I42
VSimpleName: IssueStore
p5360
tp5361
I1
s(Vinsert
p5362
I42
VSimpleName: clear
p5363
tp5364
I6
s(Vinsert
p5365
I42
VSimpleName: issueNumber
p5366
tp5367
I15
s(Vinsert
p5368
I42
VSimpleName: GistsActivity
p5369
tp5370
I3
s(Vinsert
p5371
I42
VSimpleName: selectionProvider
p5372
tp5373
I11
s(Vinsert
p5374
I42
VSimpleName: span
p5375
tp5376
I1
s(Vinsert
p5377
I66
VTextElement: Verity URI with name
p5378
tp5379
I1
s(Vinsert
p5380
I42
VSimpleName: setFastScrollEnabled
p5381
tp5382
I8
s(Vinsert
p5383
I42
VSimpleName: ivEdit
p5384
tp5385
I2
s(Vinsert
p5386
I42
VSimpleName: noSeparators
p5387
tp5388
I2
s(Vinsert
p5389
I45
VStringLiteral: "unchecked"
p5390
tp5391
I1
s(Vinsert
p5392
I42
VSimpleName: appBar
p5393
tp5394
I2
s(Vinsert
p5395
I42
VSimpleName: avatarDir
p5396
tp5397
I1
s(Vinsert
p5398
I40
VQualifiedName: request.labels
p5399
tp5400
I1
s(Vinsert
p5401
I42
VSimpleName: formatted
p5402
tp5403
I5
s(Vinsert
p5404
I42
VSimpleName: emailEnd
p5405
tp5406
I1
s(Vinsert
p5407
I42
VSimpleName: EXTRA_TEXT
p5408
tp5409
I1
s(Vinsert
p5410
I42
VSimpleName: editor
p5411
tp5412
I11
s(Vinsert
p5413
I42
VSimpleName: entry
p5414
tp5415
I1
s(Vinsert
p5416
I42
VSimpleName: fire
p5417
tp5418
I2
s(Vinsert
p5419
I43
VSimpleType: FragmentActivity
p5420
tp5421
I1
s(Vinsert
p5422
I45
VStringLiteral: "RepositoryCodeFragment"
p5423
tp5424
I1
s(Vinsert
p5425
I42
VSimpleName: MediumTest
p5426
tp5427
I1
s(Vinsert
p5428
I42
VSimpleName: CASE_INSENSITIVE_ORDER
p5429
tp5430
I2
s(Vinsert
p5431
I40
VQualifiedName: id.ll_labels
p5432
tp5433
I1
s(Vinsert
p5434
I42
VSimpleName: getDecorView
p5435
tp5436
I1
s(Vinsert
p5437
I42
VSimpleName: forSingle
p5438
tp5439
I6
s(Vinsert
p5440
I40
VQualifiedName: gist.description
p5441
tp5442
I1
s(Vinsert
p5443
I42
VSimpleName: formatErrors
p5444
tp5445
I2
s(Vinsert
p5446
I40
VQualifiedName: com.meisolsson.githubsdk.model.payload.ForkPayload
p5447
tp5448
I1
s(Vinsert
p5449
I42
VSimpleName: setLogin
p5450
tp5451
I5
s(Vinsert
p5452
I42
VSimpleName: source
p5453
tp5454
I2
s(Vinsert
p5455
I42
VSimpleName: number
p5456
tp5457
I14
s(Vinsert
p5458
I42
VSimpleName: detailsText
p5459
tp5460
I2
s(Vinsert
p5461
I45
VStringLiteral: "</p>"
p5462
tp5463
I1
s(Vinsert
p5464
I42
VSimpleName: dialogHolder
p5465
tp5466
I4
s(Vinsert
p5467
I36
VParenthesizedExpression
p5468
tp5469
I53
s(Vinsert
p5470
I42
VSimpleName: numbers
p5471
tp5472
I4
s(Vinsert
p5473
I66
VTextElement:  What state to change to
p5474
tp5475
I1
s(Vinsert
p5476
I42
VSimpleName: empytPage
p5477
tp5478
I1
s(Vinsert
p5479
I42
VSimpleName: onCreate
p5480
tp5481
I20
s(Vinsert
p5482
I42
VSimpleName: accounts
p5483
tp5484
I9
s(Vinsert
p5485
I40
VQualifiedName: android.widget.ImageView
p5486
tp5487
I2
s(Vinsert
p5488
I42
VSimpleName: SherlockFragment
p5489
tp5490
I5
s(Vinsert
p5491
I52
VThisExpression
p5492
tp5493
I120
s(Vinsert
p5494
I42
VSimpleName: bitmap
p5495
tp5496
I8
s(Vinsert
p5497
I42
VSimpleName: isWatching
p5498
tp5499
I1
s(Vinsert
p5500
I42
VSimpleName: shareFile
p5501
tp5502
I2
s(Vinsert
p5503
I42
VSimpleName: onException
p5504
tp5505
I29
s(Vinsert
p5506
I40
VQualifiedName: request.labels.length
p5507
tp5508
I1
s(Vinsert
p5509
I43
VSimpleType: AllReposForUserOrOrg
p5510
tp5511
I1
s(Vinsert
p5512
I42
VSimpleName: requestAndStore
p5513
tp5514
I3
s(Vinsert
p5515
I42
VSimpleName: filter
p5516
tp5517
I17
s(Vinsert
p5518
I42
VSimpleName: linkViews
p5519
tp5520
I2
s(Vinsert
p5521
I43
VSimpleType: GistFilesMap
p5522
tp5523
I4
s(Vinsert
p5524
I40
VQualifiedName: org.mockito.Mockito.spy
p5525
tp5526
I1
s(Vinsert
p5527
I5
VArrayType: CharSequence[]
p5528
tp5529
I3
s(Vinsert
p5530
I43
VSimpleType: FullGist
p5531
tp5532
I2
s(Vinsert
p5533
I42
VSimpleName: setComments
p5534
tp5535
I4
s(Vinsert
p5536
I42
VSimpleName: injectMembers
p5537
tp5538
I7
s(Vinsert
p5539
I42
VSimpleName: pageFollowing
p5540
tp5541
I2
s(Vinsert
p5542
I45
VStringLiteral: "Can't create new GitHub account - no activity available"
p5543
tp5544
I1
s(Vinsert
p5545
I42
VSimpleName: labels
p5546
tp5547
I21
s(Vinsert
p5548
I40
VQualifiedName: com.alorma.github.sdk.bean.dto.request.IssueRequest
p5549
tp5550
I1
s(Vinsert
p5551
I42
VSimpleName: createPager
p5552
tp5553
I2
s(Vinsert
p5554
I42
VSimpleName: Response
p5555
tp5556
I18
s(Vinsert
p5557
I42
VSimpleName: CookieManager
p5558
tp5559
I1
s(Vinsert
p5560
I43
VSimpleType: RandomAccessFile
p5561
tp5562
I1
s(Vinsert
p5563
I40
VQualifiedName: org.name
p5564
tp5565
I1
s(Vinsert
p5566
I42
VSimpleName: User
p5567
tp5568
I94
s(Vinsert
p5569
I42
VSimpleName: encode
p5570
tp5571
I7
s(Vinsert
p5572
I42
VSimpleName: createFromAsset
p5573
tp5574
I2
s(Vinsert
p5575
I42
VSimpleName: PullRequestViewHolder
p5576
tp5577
I1
s(Vinsert
p5578
I42
VSimpleName: GistFilesMap
p5579
tp5580
I4
s(Vinsert
p5581
I42
VSimpleName: match
p5582
tp5583
I2
s(Vinsert
p5584
I42
VSimpleName: icicle
p5585
tp5586
I4
s(Vinsert
p5587
I42
VSimpleName: getApplicationContext
p5588
tp5589
I2
s(Vinsert
p5590
I42
VSimpleName: navigationView
p5591
tp5592
I1
s(Vinsert
p5593
I40
VQualifiedName: id.tv_labels
p5594
tp5595
I1
s(Vinsert
p5596
I42
VSimpleName: observer
p5597
tp5598
I9
s(Vinsert
p5599
I42
VSimpleName: MenuInflater
p5600
tp5601
I3
s(Vinsert
p5602
I42
VSimpleName: hasNext
p5603
tp5604
I4
s(Vinsert
p5605
I40
VQualifiedName: retrofit2.Response
p5606
tp5607
I3
s(Vinsert
p5608
I42
VSimpleName: getNumber
p5609
tp5610
I13
s(Vinsert
p5611
I40
VQualifiedName: com.github.mobile.android.util.HtmlFormatter
p5612
tp5613
I1
s(Vinsert
p5614
I42
VSimpleName: repository
p5615
tp5616
I80
s(Vinsert
p5617
I42
VSimpleName: iterator
p5618
tp5619
I6
s(Vinsert
p5620
I42
VSimpleName: button
p5621
tp5622
I1
s(Vinsert
p5623
I42
VSimpleName: after
p5624
tp5625
I2
s(Vinsert
p5626
I42
VSimpleName: TreeMap
p5627
tp5628
I1
s(Vinsert
p5629
I40
VQualifiedName: commit.files
p5630
tp5631
I1
s(Vinsert
p5632
I42
VSimpleName: getGists
p5633
tp5634
I2
s(Vinsert
p5635
I42
VSimpleName: HashMap
p5636
tp5637
I2
s(Vinsert
p5638
I43
VSimpleType: BaseClient.OnResultCallback
p5639
tp5640
I2
s(Vinsert
p5641
I42
VSimpleName: GistService
p5642
tp5643
I1
s(Vinsert
p5644
I42
VSimpleName: gistServiceProvider
p5645
tp5646
I1
s(Vinsert
p5647
I42
VSimpleName: getFilesDir
p5648
tp5649
I2
s(Vinsert
p5650
I42
VSimpleName: EditIssueCommentClient
p5651
tp5652
I1
s(Vinsert
p5653
I40
VQualifiedName: syncResult.stats.numUpdates
p5654
tp5655
I1
s(Vinsert
p5656
I83
VModifier: final
p5657
tp5658
I214
s(Vinsert
p5659
I42
VSimpleName: ShareUtils
p5660
tp5661
I3
s(Vinsert
p5662
I43
VSimpleType: ItemReference
p5663
tp5664
I2
s(Vinsert
p5665
I66
VTextElement: Repository description text
p5666
tp5667
I1
s(Vinsert
p5668
I43
VSimpleType: Drawable
p5669
tp5670
I1
s(Vinsert
p5671
I43
VSimpleType: GetRepoEventsClient
p5672
tp5673
I1
s(Vinsert
p5674
I42
VSimpleName: sortedCopy
p5675
tp5676
I1
s(Vinsert
p5677
I42
VSimpleName: Fragment
p5678
tp5679
I4
s(Vinsert
p5680
I74
VParameterizedType: Page<Gist>
p5681
tp5682
I1
s(Vinsert
p5683
I42
VSimpleName: brush
p5684
tp5685
I1
s(Vinsert
p5686
I42
VSimpleName: toString
p5687
tp5688
I4
s(Vinsert
p5689
I42
VSimpleName: REQUEST_LABELS
p5690
tp5691
I1
s(Vinsert
p5692
I43
VSimpleType: GetGistDetailClient
p5693
tp5694
I1
s(Vinsert
p5695
I45
VStringLiteral: "deprecation"
p5696
tp5697
I1
s(Vinsert
p5698
I40
VQualifiedName: id.iv_assignee_avatar
p5699
tp5700
I1
s(Vinsert
p5701
I42
VSimpleName: DialogFragmentActivity
p5702
tp5703
I1
s(Vinsert
p5704
I74
VParameterizedType: Observable<Response>
p5705
tp5706
I2
s(Vinsert
p5707
I42
VSimpleName: Reference
p5708
tp5709
I5
s(Vinsert
p5710
I42
VSimpleName: close
p5711
tp5712
I5
s(Vinsert
p5713
I42
VSimpleName: numberOfDigits
p5714
tp5715
I1
s(Vinsert
p5716
I42
VSimpleName: shouldOverrideUrlLoading
p5717
tp5718
I1
s(Vinsert
p5719
I42
VSimpleName: containsState
p5720
tp5721
I1
s(Vinsert
p5722
I40
VQualifiedName: reference.ref
p5723
tp5724
I1
s(Vinsert
p5725
I42
VSimpleName: HttpURLConnection
p5726
tp5727
I6
s(Vinsert
p5728
I42
VSimpleName: forceReload
p5729
tp5730
I3
s(Vinsert
p5731
I42
VSimpleName: EXTRA_REPOSITORY
p5732
tp5733
I4
s(Vinsert
p5734
I42
VSimpleName: labelNames
p5735
tp5736
I4
s(Vinsert
p5737
I40
VQualifiedName: View.VISIBLE
p5738
tp5739
I3
s(Vinsert
p5740
I42
VSimpleName: deleteCommentListener
p5741
tp5742
I1
s(Vinsert
p5743
I42
VSimpleName: userFor
p5744
tp5745
I1
s(Vinsert
p5746
I37
VPostfixExpression: ++
p5747
tp5748
I17
s(Vinsert
p5749
I43
VSimpleType: Label
p5750
tp5751
I8
s(Vinsert
p5752
I43
VSimpleType: Download
p5753
tp5754
I1
s(Vinsert
p5755
I45
VStringLiteral: "commits.compare.VIEW"
p5756
tp5757
I1
s(Vinsert
p5758
I43
VSimpleType: ImageResourceStore
p5759
tp5760
I1
s(Vinsert
p5761
I42
VSimpleName: toBuilder
p5762
tp5763
I7
s(Vinsert
p5764
I42
VSimpleName: repoList
p5765
tp5766
I1
s(Vinsert
p5767
I66
VTextElement:  representing the changed issue
p5768
tp5769
I1
s(Vinsert
p5770
I42
VSimpleName: randomButton
p5771
tp5772
I1
s(Vinsert
p5773
I42
VSimpleName: RandomAccessFile
p5774
tp5775
I1
s(Vinsert
p5776
I42
VSimpleName: getLeft
p5777
tp5778
I1
s(Vinsert
p5779
I42
VSimpleName: getPageTitle
p5780
tp5781
I3
s(Vinsert
p5782
I40
VQualifiedName: id.iv_gravatar
p5783
tp5784
I2
s(Vinsert
p5785
I43
VSimpleType: ListLoadingFragment
p5786
tp5787
I1
s(Vinsert
p5788
I42
VSimpleName: first
p5789
tp5790
I9
s(Vinsert
p5791
I42
VSimpleName: bundle
p5792
tp5793
I4
s(Vinsert
p5794
I42
VSimpleName: canEdit
p5795
tp5796
I1
s(Vinsert
p5797
I42
VSimpleName: SearchIssue
p5798
tp5799
I2
s(Vinsert
p5800
I42
VSimpleName: testHasAuthenticator
p5801
tp5802
I1
s(Vinsert
p5803
I42
VSimpleName: substring
p5804
tp5805
I3
s(Vinsert
p5806
I42
VSimpleName: setName
p5807
tp5808
I4
s(Vinsert
p5809
I42
VSimpleName: mAuthThread
p5810
tp5811
I2
s(Vinsert
p5812
I42
VSimpleName: filterMilestone
p5813
tp5814
I1
s(Vinsert
p5815
I42
VSimpleName: nextPos
p5816
tp5817
I2
s(Vinsert
p5818
I42
VSimpleName: getPatch
p5819
tp5820
I1
s(Vinsert
p5821
I40
VQualifiedName: android.util.Log
p5822
tp5823
I2
s(Vinsert
p5824
I42
VSimpleName: Time
p5825
tp5826
I1
s(Vinsert
p5827
I42
VSimpleName: styledAuthor
p5828
tp5829
I2
s(Vinsert
p5830
I42
VSimpleName: AtomicReference
p5831
tp5832
I4
s(Vinsert
p5833
I43
VSimpleType: FragmentTransaction
p5834
tp5835
I1
s(Vinsert
p5836
I74
VParameterizedType: Subscriber<? super IssueFilter>
p5837
tp5838
I1
s(Vinsert
p5839
I40
VQualifiedName: android.R.id.home
p5840
tp5841
I1
s(Vinsert
p5842
I42
VSimpleName: gists
p5843
tp5844
I17
s(Vinsert
p5845
I42
VSimpleName: nrLabels
p5846
tp5847
I2
s(Vinsert
p5848
I42
VSimpleName: owner
p5849
tp5850
I50
s(Vinsert
p5851
I42
VSimpleName: output
p5852
tp5853
I7
s(Vinsert
p5854
I42
VSimpleName: newLinkedList
p5855
tp5856
I1
s(Vinsert
p5857
I42
VSimpleName: getResources
p5858
tp5859
I18
s(Vinsert
p5860
I42
VSimpleName: update
p5861
tp5862
I5
s(Vinsert
p5863
I43
VSimpleType: RestAdapter
p5864
tp5865
I2
s(Vinsert
p5866
I42
VSimpleName: settings
p5867
tp5868
I1
s(Vinsert
p5869
I43
VSimpleType: StyleSpan
p5870
tp5871
I2
s(Vinsert
p5872
I43
VSimpleType: UserService
p5873
tp5874
I2
s(Vinsert
p5875
I42
VSimpleName: testEmptyPatch
p5876
tp5877
I1
s(Vinsert
p5878
I42
VSimpleName: getDrawable
p5879
tp5880
I1
s(Vinsert
p5881
I42
VSimpleName: getAvatar
p5882
tp5883
I1
s(Vinsert
p5884
I74
VParameterizedType: Response<Page<Milestone>>
p5885
tp5886
I1
s(Vinsert
p5887
I42
VSimpleName: formatIssueComment
p5888
tp5889
I1
s(Vinsert
p5890
I40
VQualifiedName: owner.avatar_url
p5891
tp5892
I1
s(Vinsert
p5893
I42
VSimpleName: addIssue
p5894
tp5895
I3
s(Vinsert
p5896
I43
VSimpleType: ListSeparator
p5897
tp5898
I2
s(Vinsert
p5899
I42
VSimpleName: saveMenu
p5900
tp5901
I2
s(Vinsert
p5902
I42
VSimpleName: getChildViewIds
p5903
tp5904
I1
s(Vinsert
p5905
I74
VParameterizedType: List<Integer>
p5906
tp5907
I1
s(Vinsert
p5908
I7
VAssignment: =
p5909
tp5910
I256
s(Vinsert
p5911
I42
VSimpleName: eventsIterator
p5912
tp5913
I1
s(Vinsert
p5914
I42
VSimpleName: onSharedPreferenceChanged
p5915
tp5916
I1
s(Vinsert
p5917
I42
VSimpleName: OnResumeEvent
p5918
tp5919
I2
s(Vinsert
p5920
I40
VQualifiedName: repo.has_issues
p5921
tp5922
I1
s(Vinsert
p5923
I42
VSimpleName: getIssueFilters
p5924
tp5925
I1
s(Vinsert
p5926
I42
VSimpleName: typeface
p5927
tp5928
I1
s(Vinsert
p5929
I42
VSimpleName: getUnchecked
p5930
tp5931
I1
s(Vinsert
p5932
I42
VSimpleName: checkIfGistIsStarred
p5933
tp5934
I1
s(Vinsert
p5935
I42
VSimpleName: setProperty
p5936
tp5937
I1
s(Vinsert
p5938
I42
VSimpleName: names
p5939
tp5940
I2
s(Vinsert
p5941
I43
VSimpleType: EditIssueCommentClient
p5942
tp5943
I1
s(Vinsert
p5944
I74
VParameterizedType: ArrayList<CommitComment>
p5945
tp5946
I1
s(Vinsert
p5947
I43
VSimpleType: Milestone
p5948
tp5949
I4
s(Vinsert
p5950
I42
VSimpleName: getRelativeTimeSpanString
p5951
tp5952
I1
s(Vinsert
p5953
I42
VSimpleName: EXTRA_SUBJECT
p5954
tp5955
I1
s(Vinsert
p5956
I42
VSimpleName: Date
p5957
tp5958
I4
s(Vinsert
p5959
I42
VSimpleName: SearchRepositoryListFragment
p5960
tp5961
I1
s(Vinsert
p5962
I42
VSimpleName: display
p5963
tp5964
I2
s(Vinsert
p5965
I42
VSimpleName: userMatcher
p5966
tp5967
I2
s(Vinsert
p5968
I42
VSimpleName: setClosedOnly
p5969
tp5970
I1
s(Vinsert
p5971
I42
VSimpleName: resolveAttribute
p5972
tp5973
I2
s(Vinsert
p5974
I42
VSimpleName: Issue
p5975
tp5976
I48
s(Vinsert
p5977
I42
VSimpleName: rawCommit
p5978
tp5979
I11
s(Vinsert
p5980
I45
VStringLiteral: "defunkt"
p5981
tp5982
I2
s(Vinsert
p5983
I42
VSimpleName: executor
p5984
tp5985
I2
s(Vinsert
p5986
I42
VSimpleName: saveRecentRepoQuery
p5987
tp5988
I1
s(Vinsert
p5989
I43
VSimpleType: GistFile
p5990
tp5991
I14
s(Vinsert
p5992
I42
VSimpleName: digested
p5993
tp5994
I1
s(Vinsert
p5995
I42
VSimpleName: HOST_GISTS
p5996
tp5997
I1
s(Vinsert
p5998
I42
VSimpleName: DeletePayload
p5999
tp6000
I2
s(Vinsert
p6001
I42
VSimpleName: Collection
p6002
tp6003
I6
s(Vinsert
p6004
I42
VSimpleName: notifyDataSetChanged
p6005
tp6006
I3
s(Vinsert
p6007
I42
VSimpleName: resourcePage
p6008
tp6009
I2
s(Vinsert
p6010
I42
VSimpleName: applyDimension
p6011
tp6012
I3
s(Vinsert
p6013
I43
VSimpleType: RequestWriter
p6014
tp6015
I1
s(Vinsert
p6016
I42
VSimpleName: ConvertUtils
p6017
tp6018
I1
s(Vinsert
p6019
I42
VSimpleName: getRepository
p6020
tp6021
I19
s(Vinsert
p6022
I42
VSimpleName: getMilestonesClient
p6023
tp6024
I1
s(Vinsert
p6025
I42
VSimpleName: CreateCommitComment
p6026
tp6027
I1
s(Vinsert
p6028
I42
VSimpleName: setFilename
p6029
tp6030
I1
s(Vinsert
p6031
I42
VSimpleName: roundCorners
p6032
tp6033
I2
s(Vinsert
p6034
I42
VSimpleName: teamService
p6035
tp6036
I1
s(Vinsert
p6037
I66
VTextElement: Get list adapter
p6038
tp6039
I1
s(Vinsert
p6040
I42
VSimpleName: checkOauthConfig
p6041
tp6042
I1
s(Vinsert
p6043
I42
VSimpleName: EMAIL_END
p6044
tp6045
I1
s(Vinsert
p6046
I42
VSimpleName: sha
p6047
tp6048
I9
s(Vinsert
p6049
I66
VTextElement:  true if valid, false otherwise
p6050
tp6051
I3
s(Vinsert
p6052
I43
VSimpleType: GetGitBlobClient
p6053
tp6054
I3
s(Vinsert
p6055
I40
VQualifiedName: id.tv_gist_files
p6056
tp6057
I1
s(Vinsert
p6058
I43
VSimpleType: CommitFile
p6059
tp6060
I10
s(Vinsert
p6061
I42
VSimpleName: GetGistDetailClient
p6062
tp6063
I1
s(Vinsert
p6064
I42
VSimpleName: dest
p6065
tp6066
I6
s(Vinsert
p6067
I42
VSimpleName: execSQL
p6068
tp6069
I1
s(Vinsert
p6070
I74
VParameterizedType: Response<Page<User>>
p6071
tp6072
I1
s(Vinsert
p6073
I43
VSimpleType: CompareCommitsClient
p6074
tp6075
I2
s(Vinsert
p6076
I42
VSimpleName: putString
p6077
tp6078
I6
s(Vinsert
p6079
I42
VSimpleName: DateTimeFormat
p6080
tp6081
I2
s(Vinsert
p6082
I42
VSimpleName: isChecked
p6083
tp6084
I1
s(Vinsert
p6085
I42
VSimpleName: getResult
p6086
tp6087
I3
s(Vinsert
p6088
I42
VSimpleName: wrapItem
p6089
tp6090
I1
s(Vinsert
p6091
I42
VSimpleName: EditIssueClient
p6092
tp6093
I1
s(Vinsert
p6094
I42
VSimpleName: resultCode
p6095
tp6096
I5
s(Vinsert
p6097
I42
VSimpleName: getWindow
p6098
tp6099
I1
s(Vinsert
p6100
I45
VStringLiteral: "code"
p6101
tp6102
I2
s(Vinsert
p6103
I42
VSimpleName: SQLiteDatabase
p6104
tp6105
I1
s(Vinsert
p6106
I76
VWildcardType: ? super IssueFilter
p6107
tp6108
I1
s(Vinsert
p6109
I42
VSimpleName: removeOnPageChangeListener
p6110
tp6111
I1
s(Vinsert
p6112
I42
VSimpleName: verify
p6113
tp6114
I1
s(Vinsert
p6115
I42
VSimpleName: LinearLayout
p6116
tp6117
I3
s(Vinsert
p6118
I40
VQualifiedName: com.github.mobile.android.util.Avatar
p6119
tp6120
I1
s(Vinsert
p6121
I42
VSimpleName: showing
p6122
tp6123
I1
s(Vinsert
p6124
I42
VSimpleName: ClipboardManager
p6125
tp6126
I2
s(Vinsert
p6127
I42
VSimpleName: setView
p6128
tp6129
I2
s(Vinsert
p6130
I43
VSimpleType: RequestFuture
p6131
tp6132
I2
s(Vinsert
p6133
I42
VSimpleName: Schedulers
p6134
tp6135
I8
s(Vinsert
p6136
I40
VQualifiedName: account.name
p6137
tp6138
I2
s(Vinsert
p6139
I42
VSimpleName: isValid
p6140
tp6141
I8
s(Vinsert
p6142
I42
VSimpleName: HtmlUtils
p6143
tp6144
I7
s(Vinsert
p6145
I8
VBlock
p6146
tp6147
I795
s(Vinsert
p6148
I40
VQualifiedName: assignee.login
p6149
tp6150
I1
s(Vinsert
p6151
I43
VSimpleType: E
p6152
tp6153
I8
s(Vinsert
p6154
I42
VSimpleName: when
p6155
tp6156
I3
s(Vinsert
p6157
I43
VSimpleType: SearchUser
p6158
tp6159
I1
s(Vinsert
p6160
I42
VSimpleName: account
p6161
tp6162
I38
s(Vinsert
p6163
I76
VWildcardType: ?
p6164
tp6165
I1
s(Vinsert
p6166
I42
VSimpleName: GetMarkdownClient
p6167
tp6168
I2
s(Vinsert
p6169
I46
VSuperConstructorInvocation
p6170
tp6171
I21
s(Vinsert
p6172
I42
VSimpleName: key
p6173
tp6174
I2
s(Vinsert
p6175
I40
VQualifiedName: java.util.ArrayList
p6176
tp6177
I1
s(Vinsert
p6178
I42
VSimpleName: onCompleted
p6179
tp6180
I1
s(Vinsert
p6181
I42
VSimpleName: loadData
p6182
tp6183
I4
s(Vinsert
p6184
I42
VSimpleName: fromJson
p6185
tp6186
I2
s(Vinsert
p6187
I40
VQualifiedName: R.string.creating_issue
p6188
tp6189
I1
s(Vinsert
p6190
I42
VSimpleName: getOrganizationEvents
p6191
tp6192
I1
s(Vinsert
p6193
I42
VSimpleName: getOrgCount
p6194
tp6195
I1
s(Vinsert
p6196
I74
VParameterizedType: AtomicReference<Integer>
p6197
tp6198
I1
s(Vinsert
p6199
I34
VNumberLiteral: 14
p6200
tp6201
I2
s(Vinsert
p6202
I43
VSimpleType: CommitCommentPayload
p6203
tp6204
I3
s(Vinsert
p6205
I42
VSimpleName: Display
p6206
tp6207
I1
s(Vinsert
p6208
I40
VQualifiedName: gist.updated_at
p6209
tp6210
I1
s(Vinsert
p6211
I43
VSimpleType: PushPayload
p6212
tp6213
I1
s(Vinsert
p6214
I42
VSimpleName: removeFooter
p6215
tp6216
I1
s(Vinsert
p6217
I42
VSimpleName: language
p6218
tp6219
I9
s(Vinsert
p6220
I42
VSimpleName: setLogo
p6221
tp6222
I2
s(Vinsert
p6223
I66
VTextElement:  A 
p6224
tp6225
I1
s(Vinsert
p6226
I42
VSimpleName: listFiles
p6227
tp6228
I1
s(Vinsert
p6229
I5
VArrayType: byte[]
p6230
tp6231
I2
s(Vinsert
p6232
I40
VQualifiedName: image.length
p6233
tp6234
I1
s(Vinsert
p6235
I42
VSimpleName: getUserStarredGists
p6236
tp6237
I1
s(Vinsert
p6238
I40
VQualifiedName: TypefaceUtils.ICON_MILESTONE
p6239
tp6240
I1
s(Vinsert
p6241
I42
VSimpleName: setItem
p6242
tp6243
I1
s(Vinsert
p6244
I40
VQualifiedName: drawable.tab_selector_left_right
p6245
tp6246
I1
s(Vinsert
p6247
I42
VSimpleName: RepositoryCommitCompare
p6248
tp6249
I1
s(Vinsert
p6250
I42
VSimpleName: selectedTitle
p6251
tp6252
I2
s(Vinsert
p6253
I42
VSimpleName: IssueLabelService
p6254
tp6255
I1
s(Vinsert
p6256
I43
VSimpleType: IssueStory
p6257
tp6258
I2
s(Vinsert
p6259
I42
VSimpleName: startImagePicker
p6260
tp6261
I2
s(Vinsert
p6262
I42
VSimpleName: order
p6263
tp6264
I2
s(Vinsert
p6265
I43
VSimpleType: SearchRepoListFragment
p6266
tp6267
I1
s(Vinsert
p6268
I43
VSimpleType: CommitService
p6269
tp6270
I1
s(Vinsert
p6271
I40
VQualifiedName: string.gist_title
p6272
tp6273
I1
s(Vinsert
p6274
I42
VSimpleName: toV1Single
p6275
tp6276
I27
s(Vinsert
p6277
I42
VSimpleName: ITEM_CODE
p6278
tp6279
I1
s(Vinsert
p6280
I43
VSimpleType: AvatarHelper
p6281
tp6282
I4
s(Vinsert
p6283
I42
VSimpleName: details
p6284
tp6285
I9
s(Vinsert
p6286
I42
VSimpleName: refreshIssue
p6287
tp6288
I2
s(Vinsert
p6289
I42
VSimpleName: raw
p6290
tp6291
I2
s(Vinsert
p6292
I42
VSimpleName: RESULT_LOG_IN
p6293
tp6294
I1
s(Vinsert
p6295
I42
VSimpleName: EventType
p6296
tp6297
I1
s(Vinsert
p6298
I42
VSimpleName: startSearch
p6299
tp6300
I1
s(Vinsert
p6301
I42
VSimpleName: onBackPressed
p6302
tp6303
I3
s(Vinsert
p6304
I42
VSimpleName: RequestUserClient
p6305
tp6306
I2
s(Vinsert
p6307
I42
VSimpleName: authorName
p6308
tp6309
I1
s(Vinsert
p6310
I42
VSimpleName: GithubDeveloperCredentials
p6311
tp6312
I1
s(Vinsert
p6313
I43
VSimpleType: IllegalArgumentException
p6314
tp6315
I1
s(Vinsert
p6316
I42
VSimpleName: getHeaderViewsCount
p6317
tp6318
I2
s(Vinsert
p6319
I42
VSimpleName: pager
p6320
tp6321
I11
s(Vinsert
p6322
I42
VSimpleName: NewsListAdapter
p6323
tp6324
I4
s(Vinsert
p6325
I42
VSimpleName: getAuthTokenLabel
p6326
tp6327
I1
s(Vinsert
p6328
I42
VSimpleName: CommitUriMatcher
p6329
tp6330
I1
s(Vinsert
p6331
I42
VSimpleName: CommentListAdapter
p6332
tp6333
I2
s(Vinsert
p6334
I42
VSimpleName: getLanguage
p6335
tp6336
I3
s(Vinsert
p6337
I42
VSimpleName: getBoolean
p6338
tp6339
I3
s(Vinsert
p6340
I42
VSimpleName: RefDialogFragment
p6341
tp6342
I2
s(Vinsert
p6343
I45
VStringLiteral: "?"
p6344
tp6345
I1
s(Vinsert
p6346
I43
VSimpleType: TestListAdapter
p6347
tp6348
I2
s(Vinsert
p6349
I74
VParameterizedType: Response<Page<GitReference>>
p6350
tp6351
I1
s(Vinsert
p6352
I42
VSimpleName: apply
p6353
tp6354
I2
s(Vinsert
p6355
I40
VQualifiedName: IssueService.STATE_OPEN
p6356
tp6357
I1
s(Vinsert
p6358
I43
VSimpleType: Deque
p6359
tp6360
I1
s(Vinsert
p6361
I42
VSimpleName: g2
p6362
tp6363
I2
s(Vinsert
p6364
I66
VTextElement: Gist author text view
p6365
tp6366
I1
s(Vinsert
p6367
I43
VSimpleType: Exception
p6368
tp6369
I69
s(Vinsert
p6370
I42
VSimpleName: userRealName
p6371
tp6372
I2
s(Vinsert
p6373
I42
VSimpleName: RepositoryItemView
p6374
tp6375
I2
s(Vinsert
p6376
I74
VParameterizedType: List<User>
p6377
tp6378
I9
s(Vinsert
p6379
I74
VParameterizedType: ViewHoldingListAdapter<Comment>
p6380
tp6381
I2
s(Vinsert
p6382
I42
VSimpleName: setTextColor
p6383
tp6384
I3
s(Vinsert
p6385
I39
VPrimitiveType: char
p6386
tp6387
I1
s(Vinsert
p6388
I42
VSimpleName: executeSync
p6389
tp6390
I20
s(Vinsert
p6391
I42
VSimpleName: ACTION_SEARCH
p6392
tp6393
I3
s(Vinsert
p6394
I42
VSimpleName: GithubComment
p6395
tp6396
I1
s(Vinsert
p6397
I45
VStringLiteral: "GHAT"
p6398
tp6399
I1
s(Vinsert
p6400
I43
VSimpleType: ActionBarActivity
p6401
tp6402
I1
s(Vinsert
p6403
I1
VAnonymousClassDeclaration
p6404
tp6405
I30
s(Vinsert
p6406
I42
VSimpleName: getScopedObjectMap
p6407
tp6408
I1
s(Vinsert
p6409
I42
VSimpleName: get
p6410
tp6411
I55
s(Vinsert
p6412
I74
VParameterizedType: Single<Issue>
p6413
tp6414
I1
s(Vinsert
p6415
I43
VSimpleType: ClipboardManager
p6416
tp6417
I2
s(Vinsert
p6418
I42
VSimpleName: PAINT_SELECTED
p6419
tp6420
I3
s(Vinsert
p6421
I43
VSimpleType: FragmentManager
p6422
tp6423
I2
s(Vinsert
p6424
I44
VSingleVariableDeclaration
p6425
tp6426
I503
s(Vinsert
p6427
I43
VSimpleType: TabPagerActivity
p6428
tp6429
I1
s(Vinsert
p6430
I42
VSimpleName: getChoices
p6431
tp6432
I1
s(Vinsert
p6433
I42
VSimpleName: fromPosY
p6434
tp6435
I2
s(Vinsert
p6436
I40
VQualifiedName: R.string.unexpected_bad_things
p6437
tp6438
I1
s(Vinsert
p6439
I42
VSimpleName: previousHeader
p6440
tp6441
I1
s(Vinsert
p6442
I42
VSimpleName: RadioButton
p6443
tp6444
I1
s(Vinsert
p6445
I42
VSimpleName: signupText
p6446
tp6447
I2
s(Vinsert
p6448
I42
VSimpleName: Uri
p6449
tp6450
I20
s(Vinsert
p6451
I42
VSimpleName: org2
p6452
tp6453
I1
s(Vinsert
p6454
I42
VSimpleName: RepositoryCommitService
p6455
tp6456
I2
s(Vinsert
p6457
I42
VSimpleName: getRef
p6458
tp6459
I1
s(Vinsert
p6460
I43
VSimpleType: android.text.ClipboardManager
p6461
tp6462
I2
s(Vinsert
p6463
I40
VQualifiedName: issue.repository
p6464
tp6465
I2
s(Vinsert
p6466
I40
VQualifiedName: user.avatar_url
p6467
tp6468
I2
s(Vinsert
p6469
I42
VSimpleName: setUp
p6470
tp6471
I5
s(Vinsert
p6472
I42
VSimpleName: KEY_ACCOUNT_AUTHENTICATOR_RESPONSE
p6473
tp6474
I1
s(Vinsert
p6475
I40
VQualifiedName: repo.forks_count
p6476
tp6477
I1
s(Vinsert
p6478
I42
VSimpleName: loadedLabels
p6479
tp6480
I2
s(Vinsert
p6481
I34
VNumberLiteral: 0.5F
p6482
tp6483
I1
s(Vinsert
p6484
I42
VSimpleName: commitsView
p6485
tp6486
I1
s(Vinsert
p6487
I42
VSimpleName: gistsList
p6488
tp6489
I1
s(Vinsert
p6490
I40
VQualifiedName: id.rb_selected
p6491
tp6492
I1
s(Vinsert
p6493
I42
VSimpleName: COL_LOGIN
p6494
tp6495
I1
s(Vinsert
p6496
I42
VSimpleName: Bundle
p6497
tp6498
I38
s(Vinsert
p6499
I40
VQualifiedName: other.direction
p6500
tp6501
I1
s(Vinsert
p6502
I42
VSimpleName: setButton
p6503
tp6504
I2
s(Vinsert
p6505
I40
VQualifiedName: view.watchers
p6506
tp6507
I3
s(Vinsert
p6508
I42
VSimpleName: getString
p6509
tp6510
I39
s(Vinsert
p6511
I42
VSimpleName: IssueAssigneeService
p6512
tp6513
I1
s(Vinsert
p6514
I40
VQualifiedName: owner.login
p6515
tp6516
I1
s(Vinsert
p6517
I42
VSimpleName: permission
p6518
tp6519
I1
s(Vinsert
p6520
I42
VSimpleName: formatCommitComment
p6521
tp6522
I1
s(Vinsert
p6523
I42
VSimpleName: TypefaceHelper
p6524
tp6525
I5
s(Vinsert
p6526
I42
VSimpleName: filter1
p6527
tp6528
I1
s(Vinsert
p6529
I40
VQualifiedName: ViewGistActivity.RESULT_DELETED
p6530
tp6531
I1
s(Vinsert
p6532
I40
VQualifiedName: layout.gist_view_content_item
p6533
tp6534
I1
s(Vinsert
p6535
I42
VSimpleName: getClosedIssues
p6536
tp6537
I1
s(Vinsert
p6538
I42
VSimpleName: markdownDTO
p6539
tp6540
I1
s(Vinsert
p6541
I42
VSimpleName: setOnClickListener
p6542
tp6543
I5
s(Vinsert
p6544
I42
VSimpleName: dividerHeight
p6545
tp6546
I1
s(Vinsert
p6547
I42
VSimpleName: ArrayList
p6548
tp6549
I13
s(Vinsert
p6550
I43
VSimpleType: String
p6551
tp6552
I170
s(Vinsert
p6553
I42
VSimpleName: FilterItemView
p6554
tp6555
I1
s(Vinsert
p6556
I41
VReturnStatement
p6557
tp6558
I233
s(Vinsert
p6559
I42
VSimpleName: assigneeDialog
p6560
tp6561
I1
s(Vinsert
p6562
I42
VSimpleName: getListAdapter
p6563
tp6564
I6
s(Vinsert
p6565
I42
VSimpleName: folders
p6566
tp6567
I1
s(Vinsert
p6568
I42
VSimpleName: TYPE_FILE_HEADER
p6569
tp6570
I1
s(Vinsert
p6571
I42
VSimpleName: Download
p6572
tp6573
I1
s(Vinsert
p6574
I42
VSimpleName: getToken
p6575
tp6576
I1
s(Vinsert
p6577
I42
VSimpleName: repoIds
p6578
tp6579
I4
s(Vinsert
p6580
I5
VArrayType: String[]
p6581
tp6582
I7
s(Vinsert
p6583
I43
VSimpleType: EditIssueRequestDTO
p6584
tp6585
I1
s(Vinsert
p6586
I40
VQualifiedName: com.alorma.github.sdk.services.user.GetAuthUserClient
p6587
tp6588
I1
s(Vinsert
p6589
I40
VQualifiedName: IssueFilter.DIRECTION_DESCENDING
p6590
tp6591
I1
s(Vinsert
p6592
I42
VSimpleName: MemberPayload
p6593
tp6594
I1
s(Vinsert
p6595
I42
VSimpleName: putCharSequence
p6596
tp6597
I1
s(Vinsert
p6598
I43
VSimpleType: Parcel
p6599
tp6600
I3
s(Vinsert
p6601
I42
VSimpleName: root
p6602
tp6603
I2
s(Vinsert
p6604
I27
VInfixExpression: <
p6605
tp6606
I18
s(Vinsert
p6607
I42
VSimpleName: T
p6608
tp6609
I9
s(Vinsert
p6610
I43
VSimpleType: Void
p6611
tp6612
I4
s(Vinsert
p6613
I42
VSimpleName: threads
p6614
tp6615
I1
s(Vinsert
p6616
I42
VSimpleName: testGuiceConfigurationDoesNotBlowUp
p6617
tp6618
I1
s(Vinsert
p6619
I74
VParameterizedType: ArrayList<Label>
p6620
tp6621
I1
s(Vinsert
p6622
I42
VSimpleName: UserViewActivity
p6623
tp6624
I2
s(Vinsert
p6625
I43
VSimpleType: ProgressBar
p6626
tp6627
I3
s(Vinsert
p6628
I42
VSimpleName: run
p6629
tp6630
I38
s(Vinsert
p6631
I42
VSimpleName: nameText
p6632
tp6633
I4
s(Vinsert
p6634
I42
VSimpleName: id
p6635
tp6636
I83
s(Vinsert
p6637
I42
VSimpleName: headers
p6638
tp6639
I3
s(Vinsert
p6640
I42
VSimpleName: setMember
p6641
tp6642
I1
s(Vinsert
p6643
I42
VSimpleName: TypedArray
p6644
tp6645
I1
s(Vinsert
p6646
I42
VSimpleName: getBodyHtml
p6647
tp6648
I2
s(Vinsert
p6649
I42
VSimpleName: instanceOf
p6650
tp6651
I1
s(Vinsert
p6652
I40
VQualifiedName: android.text.TextUtils
p6653
tp6654
I2
s(Vinsert
p6655
I42
VSimpleName: recentIds
p6656
tp6657
I1
s(Vinsert
p6658
I40
VQualifiedName: repo.watchers_count
p6659
tp6660
I1
s(Vinsert
p6661
I83
VModifier: static
p6662
tp6663
I25
s(Vinsert
p6664
I42
VSimpleName: getMasterBranch
p6665
tp6666
I1
s(Vinsert
p6667
I45
VStringLiteral: "\u005cuf241"
p6668
tp6669
I1
s(Vinsert
p6670
I40
VQualifiedName: file.sha
p6671
tp6672
I1
s(Vinsert
p6673
I42
VSimpleName: testUriWithTrailingSlashes
p6674
tp6675
I1
s(Vinsert
p6676
I42
VSimpleName: MAX_RECENT_REPOS
p6677
tp6678
I1
s(Vinsert
p6679
I40
VQualifiedName: R.layout.frament_test
p6680
tp6681
I1
s(Vinsert
p6682
I40
VQualifiedName: R.string.are_you_sure
p6683
tp6684
I1
s(Vinsert
p6685
I42
VSimpleName: unfollowUser
p6686
tp6687
I1
s(Vinsert
p6688
I42
VSimpleName: onAttach
p6689
tp6690
I2
s(Vinsert
p6691
I42
VSimpleName: Builder
p6692
tp6693
I9
s(Vinsert
p6694
I43
VSimpleType: GetFileContentClient
p6695
tp6696
I1
s(Vinsert
p6697
I42
VSimpleName: IssueStoryLoader
p6698
tp6699
I1
s(Vinsert
p6700
I45
VStringLiteral: "Created "
p6701
tp6702
I1
s(Vinsert
p6703
I42
VSimpleName: loadAnimation
p6704
tp6705
I1
s(Vinsert
p6706
I42
VSimpleName: getDefault
p6707
tp6708
I2
s(Vinsert
p6709
I42
VSimpleName: HtmlViewer
p6710
tp6711
I2
s(Vinsert
p6712
I42
VSimpleName: finder
p6713
tp6714
I20
s(Vinsert
p6715
I42
VSimpleName: previous
p6716
tp6717
I2
s(Vinsert
p6718
I10
VBreakStatement
p6719
tp6720
I11
s(Vinsert
p6721
I4
VArrayInitializer
p6722
tp6723
I6
s(Vinsert
p6724
I45
VStringLiteral: "gist content"
p6725
tp6726
I1
s(Vinsert
p6727
I74
VParameterizedType: Collection<String>
p6728
tp6729
I1
s(Vinsert
p6730
I42
VSimpleName: getCreatedAt
p6731
tp6732
I6
s(Vinsert
p6733
I42
VSimpleName: equals
p6734
tp6735
I57
s(Vinsert
p6736
I12
VCatchClause
p6737
tp6738
I11
s(Vinsert
p6739
I43
VSimpleType: Style
p6740
tp6741
I1
s(Vinsert
p6742
I42
VSimpleName: bindToLifecycle
p6743
tp6744
I11
s(Vinsert
p6745
I42
VSimpleName: setSupportProgressBarIndeterminateVisibility
p6746
tp6747
I4
s(Vinsert
p6748
I42
VSimpleName: AccountsHelper
p6749
tp6750
I1
s(Vinsert
p6751
I66
VTextElement: Remove Object from cache store.
p6752
tp6753
I1
s(Vinsert
p6754
I42
VSimpleName: getSupportActionBar
p6755
tp6756
I15
s(Vinsert
p6757
I42
VSimpleName: STYLE_SPINNER
p6758
tp6759
I1
s(Vinsert
p6760
I42
VSimpleName: convert
p6761
tp6762
I2
s(Vinsert
p6763
I42
VSimpleName: GistStore
p6764
tp6765
I1
s(Vinsert
p6766
I42
VSimpleName: issueNumbers
p6767
tp6768
I2
s(Vinsert
p6769
I42
VSimpleName: readLine
p6770
tp6771
I1
s(Vinsert
p6772
I74
VParameterizedType: List<Repository>
p6773
tp6774
I2
s(Vinsert
p6775
I43
VSimpleType: UserFollowerService
p6776
tp6777
I1
s(Vinsert
p6778
I42
VSimpleName: setUserAgent
p6779
tp6780
I1
s(Vinsert
p6781
I42
VSimpleName: setOnEditorActionListener
p6782
tp6783
I2
s(Vinsert
p6784
I43
VSimpleType: HomeDropdownListAdapter
p6785
tp6786
I1
s(Vinsert
p6787
I43
VSimpleType: IssueCommentPayload
p6788
tp6789
I2
s(Vinsert
p6790
I42
VSimpleName: persistableResource
p6791
tp6792
I4
s(Vinsert
p6793
I42
VSimpleName: Event
p6794
tp6795
I22
s(Vinsert
p6796
I42
VSimpleName: charAt
p6797
tp6798
I3
s(Vinsert
p6799
I42
VSimpleName: getSupportMenuInflater
p6800
tp6801
I2
s(Vinsert
p6802
I42
VSimpleName: getRelativeTime
p6803
tp6804
I1
s(Vinsert
p6805
I45
VStringLiteral: ""
p6806
tp6807
I5
s(Vinsert
p6808
I43
VSimpleType: LightAlertDialog
p6809
tp6810
I1
s(Vinsert
p6811
I43
VSimpleType: DeletePayload
p6812
tp6813
I2
s(Vinsert
p6814
I43
VSimpleType: IssueMilestoneService
p6815
tp6816
I1
s(Vinsert
p6817
I42
VSimpleName: OutputStream
p6818
tp6819
I1
s(Vinsert
p6820
I42
VSimpleName: CommitUser
p6821
tp6822
I2
s(Vinsert
p6823
I42
VSimpleName: userSearchPage
p6824
tp6825
I1
s(Vinsert
p6826
I42
VSimpleName: b
p6827
tp6828
I4
s(Vinsert
p6829
I40
VQualifiedName: id.et_gist_description
p6830
tp6831
I1
s(Vinsert
p6832
I42
VSimpleName: PushPayload
p6833
tp6834
I1
s(Vinsert
p6835
I42
VSimpleName: ViewIssueActivity
p6836
tp6837
I2
s(Vinsert
p6838
I42
VSimpleName: subject
p6839
tp6840
I2
s(Vinsert
p6841
I42
VSimpleName: createRepoInfo
p6842
tp6843
I13
s(Vinsert
p6844
I42
VSimpleName: max
p6845
tp6846
I3
s(Vinsert
p6847
I42
VSimpleName: getFollowers
p6848
tp6849
I2
s(Vinsert
p6850
I45
VStringLiteral: "u"
p6851
tp6852
I1
s(Vinsert
p6853
I42
VSimpleName: setTarget
p6854
tp6855
I1
s(Vinsert
p6856
I42
VSimpleName: updateDrawState
p6857
tp6858
I1
s(Vinsert
p6859
I42
VSimpleName: tabHost
p6860
tp6861
I2
s(Vinsert
p6862
I42
VSimpleName: IssueUriMatcher
p6863
tp6864
I1
s(Vinsert
p6865
I42
VSimpleName: InjectExtra
p6866
tp6867
I3
s(Vinsert
p6868
I42
VSimpleName: ImageView
p6869
tp6870
I23
s(Vinsert
p6871
I42
VSimpleName: getUser
p6872
tp6873
I19
s(Vinsert
p6874
I40
VQualifiedName: R.id.iv_notification
p6875
tp6876
I1
s(Vinsert
p6877
I42
VSimpleName: isShowing
p6878
tp6879
I3
s(Vinsert
p6880
I42
VSimpleName: IssueFilterViewHolder
p6881
tp6882
I1
s(Vinsert
p6883
I42
VSimpleName: FollowPayload
p6884
tp6885
I2
s(Vinsert
p6886
I43
VSimpleType: IssueRequest
p6887
tp6888
I2
s(Vinsert
p6889
I42
VSimpleName: orgListAdapter
p6890
tp6891
I1
s(Vinsert
p6892
I42
VSimpleName: onDetach
p6893
tp6894
I1
s(Vinsert
p6895
I42
VSimpleName: forPattern
p6896
tp6897
I2
s(Vinsert
p6898
I43
VSimpleType: Intent
p6899
tp6900
I47
s(Vinsert
p6901
I13
VCharacterLiteral: '/'
p6902
tp6903
I1
s(Vinsert
p6904
I40
VQualifiedName: R.layout.repo_search
p6905
tp6906
I1
s(Vinsert
p6907
I42
VSimpleName: fullRepo
p6908
tp6909
I1
s(Vinsert
p6910
I42
VSimpleName: getItem
p6911
tp6912
I15
s(Vinsert
p6913
I42
VSimpleName: bold
p6914
tp6915
I8
s(Vinsert
p6916
I40
VQualifiedName: id.b_show_more
p6917
tp6918
I1
s(Vinsert
p6919
I42
VSimpleName: subtitle
p6920
tp6921
I4
s(Vinsert
p6922
I42
VSimpleName: hasMore
p6923
tp6924
I4
s(Vinsert
p6925
I42
VSimpleName: getWrap
p6926
tp6927
I1
s(Vinsert
p6928
I42
VSimpleName: wrapped
p6929
tp6930
I1
s(Vinsert
p6931
I74
VParameterizedType: List<Team>
p6932
tp6933
I1
s(Vinsert
p6934
I40
VQualifiedName: R.layout.repo_list
p6935
tp6936
I1
s(Vinsert
p6937
I42
VSimpleName: mode
p6938
tp6939
I1
s(Vinsert
p6940
I42
VSimpleName: setOnItemLongClickListener
p6941
tp6942
I1
s(Vinsert
p6943
I42
VSimpleName: SearchManager
p6944
tp6945
I3
s(Vinsert
p6946
I42
VSimpleName: sharingIntent
p6947
tp6948
I1
s(Vinsert
p6949
I42
VSimpleName: TypedValue
p6950
tp6951
I5
s(Vinsert
p6952
I42
VSimpleName: IssuesPagerAdapter
p6953
tp6954
I1
s(Vinsert
p6955
I40
VQualifiedName: layout.commit_file_details_header
p6956
tp6957
I1
s(Vinsert
p6958
I40
VQualifiedName: R.string.gists
p6959
tp6960
I1
s(Vinsert
p6961
I40
VQualifiedName: R.string.loading_refs
p6962
tp6963
I1
s(Vinsert
p6964
I40
VQualifiedName: users.from
p6965
tp6966
I1
s(Vinsert
p6967
I74
VParameterizedType: HashSet<IssueFilter>
p6968
tp6969
I1
s(Vinsert
p6970
I42
VSimpleName: leaveBreadcrumb
p6971
tp6972
I1
s(Vinsert
p6973
I42
VSimpleName: files
p6974
tp6975
I23
s(Vinsert
p6976
I42
VSimpleName: paddingRight
p6977
tp6978
I3
s(Vinsert
p6979
I42
VSimpleName: hasAuthenticator
p6980
tp6981
I1
s(Vinsert
p6982
I42
VSimpleName: getPublicGists
p6983
tp6984
I2
s(Vinsert
p6985
I40
VQualifiedName: R.string.not_sure
p6986
tp6987
I1
s(Vinsert
p6988
I42
VSimpleName: recentReposFrom
p6989
tp6990
I2
s(Vinsert
p6991
I42
VSimpleName: contains
p6992
tp6993
I3
s(Vinsert
p6994
I42
VSimpleName: deleteGist
p6995
tp6996
I1
s(Vinsert
p6997
I43
VSimpleType: IssueEvent
p6998
tp6999
I1
s(Vinsert
p7000
I42
VSimpleName: height
p7001
tp7002
I5
s(Vinsert
p7003
I42
VSimpleName: RequestFuture
p7004
tp7005
I1
s(Vinsert
p7006
I42
VSimpleName: getCount
p7007
tp7008
I3
s(Vinsert
p7009
I45
VStringLiteral: "owner"
p7010
tp7011
I1
s(Vinsert
p7012
I42
VSimpleName: milestoneText
p7013
tp7014
I3
s(Vinsert
p7015
I42
VSimpleName: formatAddMember
p7016
tp7017
I1
s(Vinsert
p7018
I42
VSimpleName: boldActor
p7019
tp7020
I1
s(Vinsert
p7021
I40
VQualifiedName: R.menu.gists
p7022
tp7023
I1
s(Vinsert
p7024
I42
VSimpleName: pageRepositories
p7025
tp7026
I1
s(Vinsert
p7027
I43
VSimpleType: NumberFormat
p7028
tp7029
I6
s(Vinsert
p7030
I42
VSimpleName: db
p7031
tp7032
I3
s(Vinsert
p7033
I42
VSimpleName: cause
p7034
tp7035
I4
s(Vinsert
p7036
I42
VSimpleName: checkedId
p7037
tp7038
I1
s(Vinsert
p7039
I42
VSimpleName: Void
p7040
tp7041
I4
s(Vinsert
p7042
I42
VSimpleName: getApiObservable
p7043
tp7044
I2
s(Vinsert
p7045
I42
VSimpleName: green
p7046
tp7047
I1
s(Vinsert
p7048
I42
VSimpleName: aBoolean
p7049
tp7050
I1
s(Vinsert
p7051
I42
VSimpleName: labelsText
p7052
tp7053
I4
s(Vinsert
p7054
I40
VQualifiedName: com.github.mobile.android.R.id
p7055
tp7056
I1
s(Vinsert
p7057
I74
VParameterizedType: SearchPage<Repository>
p7058
tp7059
I1
s(Vinsert
p7060
I40
VQualifiedName: string.error_issue_load
p7061
tp7062
I1
s(Vinsert
p7063
I42
VSimpleName: B
p7064
tp7065
I1
s(Vinsert
p7066
I42
VSimpleName: upstream
p7067
tp7068
I1
s(Vinsert
p7069
I42
VSimpleName: GitUser
p7070
tp7071
I1
s(Vinsert
p7072
I42
VSimpleName: toIntent
p7073
tp7074
I7
s(Vinsert
p7075
I42
VSimpleName: listElements
p7076
tp7077
I2
s(Vinsert
p7078
I90
VExpressionMethodReference
p7079
tp7080
I2
s(Vinsert
p7081
I42
VSimpleName: FileInputStream
p7082
tp7083
I1
s(Vinsert
p7084
I42
VSimpleName: octocons
p7085
tp7086
I1
s(Vinsert
p7087
I42
VSimpleName: GetAssigneesClient
p7088
tp7089
I2
s(Vinsert
p7090
I42
VSimpleName: ListAdapter
p7091
tp7092
I3
s(Vinsert
p7093
I74
VParameterizedType: OnLoadListener<Gist>
p7094
tp7095
I1
s(Vinsert
p7096
I42
VSimpleName: textView
p7097
tp7098
I12
s(Vinsert
p7099
I42
VSimpleName: payload
p7100
tp7101
I33
s(Vinsert
p7102
I42
VSimpleName: CreateCommentActivity
p7103
tp7104
I3
s(Vinsert
p7105
I66
VTextElement: Get comment text
p7106
tp7107
I1
s(Vinsert
p7108
I45
VStringLiteral: "commits.VIEW"
p7109
tp7110
I1
s(Vinsert
p7111
I43
VSimpleType: RetrofitError
p7112
tp7113
I5
s(Vinsert
p7114
I42
VSimpleName: setPositiveButton
p7115
tp7116
I2
s(Vinsert
p7117
I42
VSimpleName: userReference
p7118
tp7119
I3
s(Vinsert
p7120
I42
VSimpleName: flatMap
p7121
tp7122
I6
s(Vinsert
p7123
I23
VFieldDeclaration
p7124
tp7125
I27
s(Vinsert
p7126
I42
VSimpleName: commitCommentBuilder
p7127
tp7128
I1
s(Vinsert
p7129
I42
VSimpleName: loadingBar
p7130
tp7131
I3
s(Vinsert
p7132
I42
VSimpleName: commentRoot
p7133
tp7134
I3
s(Vinsert
p7135
I42
VSimpleName: ProgressBar
p7136
tp7137
I3
s(Vinsert
p7138
I43
VSimpleType: HttpsURLConnection
p7139
tp7140
I1
s(Vinsert
p7141
I42
VSimpleName: setOnCancelListener
p7142
tp7143
I1
s(Vinsert
p7144
I40
VQualifiedName: R.string.error_unstarring_repository
p7145
tp7146
I1
s(Vinsert
p7147
I40
VQualifiedName: R.menu.activity_create_gist
p7148
tp7149
I1
s(Vinsert
p7150
I42
VSimpleName: recentLabel
p7151
tp7152
I2
s(Vinsert
p7153
I42
VSimpleName: AccountManagerFuture
p7154
tp7155
I1
s(Vinsert
p7156
I42
VSimpleName: input
p7157
tp7158
I8
s(Vinsert
p7159
I42
VSimpleName: createComment
p7160
tp7161
I2
s(Vinsert
p7162
I66
VTextElement: Dismiss and clear progress dialog field
p7163
tp7164
I1
s(Vinsert
p7165
I42
VSimpleName: getWrappedAdapter
p7166
tp7167
I6
s(Vinsert
p7168
I42
VSimpleName: getUserRecievedEvents
p7169
tp7170
I1
s(Vinsert
p7171
I42
VSimpleName: inflater
p7172
tp7173
I19
s(Vinsert
p7174
I42
VSimpleName: m2
p7175
tp7176
I1
s(Vinsert
p7177
I42
VSimpleName: createdAt
p7178
tp7179
I5
s(Vinsert
p7180
I42
VSimpleName: events
p7181
tp7182
I1
s(Vinsert
p7183
I62
VInstanceofExpression
p7184
tp7185
I22
s(Vinsert
p7186
I42
VSimpleName: enterWith
p7187
tp7188
I4
s(Vinsert
p7189
I42
VSimpleName: lId
p7190
tp7191
I1
s(Vinsert
p7192
I66
VTextElement: request     
p7193
tp7194
I1
s(Vinsert
p7195
I42
VSimpleName: topRecentRepoIds
p7196
tp7197
I1
s(Vinsert
p7198
I42
VSimpleName: m1
p7199
tp7200
I2
s(Vinsert
p7201
I42
VSimpleName: maxWidth
p7202
tp7203
I1
s(Vinsert
p7204
I42
VSimpleName: getInstrumentation
p7205
tp7206
I1
s(Vinsert
p7207
I42
VSimpleName: timeString
p7208
tp7209
I2
s(Vinsert
p7210
I34
VNumberLiteral: 2
p7211
tp7212
I8
s(Vinsert
p7213
I43
VSimpleType: Page
p7214
tp7215
I8
s(Vinsert
p7216
I42
VSimpleName: dismissProgress
p7217
tp7218
I7
s(Vinsert
p7219
I43
VSimpleType: IssueBodyViewHolder
p7220
tp7221
I1
s(Vinsert
p7222
I42
VSimpleName: assertThat
p7223
tp7224
I2
s(Vinsert
p7225
I42
VSimpleName: onClick
p7226
tp7227
I15
s(Vinsert
p7228
I42
VSimpleName: SharedPreferences
p7229
tp7230
I2
s(Vinsert
p7231
I43
VSimpleType: ListView
p7232
tp7233
I4
s(Vinsert
p7234
I40
VQualifiedName: issue.assignee
p7235
tp7236
I1
s(Vinsert
p7237
I42
VSimpleName: SourceEditor
p7238
tp7239
I1
s(Vinsert
p7240
I42
VSimpleName: loader
p7241
tp7242
I10
s(Vinsert
p7243
I42
VSimpleName: initialize
p7244
tp7245
I7
s(Vinsert
p7246
I42
VSimpleName: parentView
p7247
tp7248
I1
s(Vinsert
p7249
I65
VTagElement: @return
p7250
tp7251
I20
s(Vinsert
p7252
I74
VParameterizedType: PageIterator<Gist>
p7253
tp7254
I1
s(Vinsert
p7255
I42
VSimpleName: checkTabletOrLandscape
p7256
tp7257
I1
s(Vinsert
p7258
I42
VSimpleName: setSubtitle
p7259
tp7260
I5
s(Vinsert
p7261
I43
VSimpleType: DialogAction
p7262
tp7263
I6
s(Vinsert
p7264
I42
VSimpleName: toV1Observable
p7265
tp7266
I5
s(Vinsert
p7267
I40
VQualifiedName: info.data
p7268
tp7269
I1
s(Vinsert
p7270
I5
VArrayType: boolean[]
p7271
tp7272
I5
s(Vinsert
p7273
I45
VStringLiteral: "features"
p7274
tp7275
I2
s(Vinsert
p7276
I42
VSimpleName: description
p7277
tp7278
I10
s(Vinsert
p7279
I43
VSimpleType: Options
p7280
tp7281
I2
s(Vinsert
p7282
I42
VSimpleName: loginMenu
p7283
tp7284
I2
s(Vinsert
p7285
I42
VSimpleName: refType
p7286
tp7287
I2
s(Vinsert
p7288
I40
VQualifiedName: size.y
p7289
tp7290
I1
s(Vinsert
p7291
I42
VSimpleName: CommitComment
p7292
tp7293
I6
s(Vinsert
p7294
I42
VSimpleName: data
p7295
tp7296
I22
s(Vinsert
p7297
I42
VSimpleName: mockedMenuItem
p7298
tp7299
I1
s(Vinsert
p7300
I42
VSimpleName: putStringArray
p7301
tp7302
I1
s(Vinsert
p7303
I42
VSimpleName: background
p7304
tp7305
I4
s(Vinsert
p7306
I42
VSimpleName: Pattern
p7307
tp7308
I4
s(Vinsert
p7309
I31
VMethodDeclaration
p7310
tp7311
I142
s(Vinsert
p7312
I42
VSimpleName: setArguments
p7313
tp7314
I2
s(Vinsert
p7315
I66
VTextElement: Create repository pager adapter
p7316
tp7317
I1
s(Vinsert
p7318
I42
VSimpleName: isValidRepo
p7319
tp7320
I1
s(Vinsert
p7321
I27
VInfixExpression: *
p7322
tp7323
I5
s(Vinsert
p7324
I42
VSimpleName: isEqual
p7325
tp7326
I2
s(Vinsert
p7327
I39
VPrimitiveType: void
p7328
tp7329
I122
s(Vinsert
p7330
I42
VSimpleName: setRepository
p7331
tp7332
I2
s(Vinsert
p7333
I42
VSimpleName: BitmapDrawable
p7334
tp7335
I1
s(Vinsert
p7336
I42
VSimpleName: notificationThreadPage
p7337
tp7338
I1
s(Vinsert
p7339
I42
VSimpleName: removeItem
p7340
tp7341
I1
s(Vinsert
p7342
I43
VSimpleType: android.webkit.WebView
p7343
tp7344
I4
s(Vinsert
p7345
I40
VQualifiedName: repo.name
p7346
tp7347
I1
s(Vinsert
p7348
I40
VQualifiedName: id.createGistButton
p7349
tp7350
I1
s(Vinsert
p7351
I74
VParameterizedType: Subscriber<? super IssueStory>
p7352
tp7353
I1
s(Vinsert
p7354
I42
VSimpleName: formatStats
p7355
tp7356
I1
s(Vinsert
p7357
I45
VStringLiteral: "o"
p7358
tp7359
I1
s(Vinsert
p7360
I42
VSimpleName: updateSaveMenu
p7361
tp7362
I3
s(Vinsert
p7363
I40
VQualifiedName: string.milestone_prefix
p7364
tp7365
I1
s(Vinsert
p7366
I43
VSimpleType: SearchUserListAdapter
p7367
tp7368
I1
s(Vinsert
p7369
I42
VSimpleName: commitsFragment
p7370
tp7371
I4
s(Vinsert
p7372
I42
VSimpleName: commitId
p7373
tp7374
I1
s(Vinsert
p7375
I43
VSimpleType: OnLoadListener
p7376
tp7377
I2
s(Vinsert
p7378
I43
VSimpleType: RepositoryCommitService
p7379
tp7380
I3
s(Vinsert
p7381
I42
VSimpleName: setMilestone
p7382
tp7383
I2
s(Vinsert
p7384
I42
VSimpleName: writeParcelable
p7385
tp7386
I2
s(Vinsert
p7387
I42
VSimpleName: footerView
p7388
tp7389
I3
s(Vinsert
p7390
I45
VStringLiteral: "HA"
p7391
tp7392
I1
s(Vinsert
p7393
I42
VSimpleName: isUser
p7394
tp7395
I3
s(Vinsert
p7396
I42
VSimpleName: avatarWidth
p7397
tp7398
I3
s(Vinsert
p7399
I43
VSimpleType: CommitStore
p7400
tp7401
I1
s(Vinsert
p7402
I27
VInfixExpression: !=
p7403
tp7404
I165
s(Vinsert
p7405
I42
VSimpleName: end
p7406
tp7407
I1
s(Vinsert
p7408
I42
VSimpleName: leavingBlankTextFieldWarner
p7409
tp7410
I1
s(Vinsert
p7411
I45
VStringLiteral: "name"
p7412
tp7413
I1
s(Vinsert
p7414
I42
VSimpleName: connection
p7415
tp7416
I2
s(Vinsert
p7417
I42
VSimpleName: image
p7418
tp7419
I7
s(Vinsert
p7420
I42
VSimpleName: committer
p7421
tp7422
I4
s(Vinsert
p7423
I40
VQualifiedName: commit.sha
p7424
tp7425
I3
s(Vinsert
p7426
I42
VSimpleName: getPaint
p7427
tp7428
I2
s(Vinsert
p7429
I43
VSimpleType: GistsActivity
p7430
tp7431
I3
s(Vinsert
p7432
I39
VPrimitiveType: boolean
p7433
tp7434
I56
s(Vinsert
p7435
I42
VSimpleName: hashCode
p7436
tp7437
I4
s(Vinsert
p7438
I66
VTextElement:  text view
p7439
tp7440
I1
s(Vinsert
p7441
I42
VSimpleName: CreatePayload
p7442
tp7443
I2
s(Vinsert
p7444
I42
VSimpleName: AuthenticatorDescription
p7445
tp7446
I1
s(Vinsert
p7447
I42
VSimpleName: EXTRA_HEAD
p7448
tp7449
I1
s(Vinsert
p7450
I42
VSimpleName: checked
p7451
tp7452
I1
s(Vinsert
p7453
I42
VSimpleName: setColor
p7454
tp7455
I3
s(Vinsert
p7456
I42
VSimpleName: avatarLoaders
p7457
tp7458
I1
s(Vinsert
p7459
I42
VSimpleName: optionMenu
p7460
tp7461
I1
s(Vinsert
p7462
I42
VSimpleName: lock
p7463
tp7464
I2
s(Vinsert
p7465
I42
VSimpleName: deleteCharAt
p7466
tp7467
I1
s(Vinsert
p7468
I42
VSimpleName: requestPermissions
p7469
tp7470
I1
s(Vinsert
p7471
I66
VTextElement: Separator
p7472
tp7473
I1
s(Vinsert
p7474
I74
VParameterizedType: HashMap<String,Integer>
p7475
tp7476
I1
s(Vinsert
p7477
I42
VSimpleName: getSystemService
p7478
tp7479
I8
s(Vinsert
p7480
I42
VSimpleName: setElevation
p7481
tp7482
I2
s(Vinsert
p7483
I42
VSimpleName: stack
p7484
tp7485
I1
s(Vinsert
p7486
I42
VSimpleName: OrganizationSelectionProvider
p7487
tp7488
I10
s(Vinsert
p7489
I42
VSimpleName: GitHubClient
p7490
tp7491
I5
s(Vinsert
p7492
I42
VSimpleName: currentUser
p7493
tp7494
I1
s(Vinsert
p7495
I42
VSimpleName: commentRequest
p7496
tp7497
I2
s(Vinsert
p7498
I42
VSimpleName: compose
p7499
tp7500
I11
s(Vinsert
p7501
I42
VSimpleName: setBackgroundResource
p7502
tp7503
I2
s(Vinsert
p7504
I42
VSimpleName: encoded
p7505
tp7506
I4
s(Vinsert
p7507
I43
VSimpleType: Typeface
p7508
tp7509
I2
s(Vinsert
p7510
I40
VQualifiedName: layout.issue_search
p7511
tp7512
I1
s(Vinsert
p7513
I42
VSimpleName: Milestone
p7514
tp7515
I3
s(Vinsert
p7516
I42
VSimpleName: dp
p7517
tp7518
I3
s(Vinsert
p7519
I42
VSimpleName: additions
p7520
tp7521
I1
s(Vinsert
p7522
I42
VSimpleName: CommitView
p7523
tp7524
I1
s(Vinsert
p7525
I42
VSimpleName: Commit
p7526
tp7527
I7
s(Vinsert
p7528
I42
VSimpleName: setExpanded
p7529
tp7530
I1
s(Vinsert
p7531
I45
VStringLiteral: "No description"
p7532
tp7533
I1
s(Vinsert
p7534
I42
VSimpleName: addHeader
p7535
tp7536
I3
s(Vinsert
p7537
I66
VTextElement:  this activity
p7538
tp7539
I1
s(Vinsert
p7540
I42
VSimpleName: markdownClient
p7541
tp7542
I2
s(Vinsert
p7543
I42
VSimpleName: SearchRepository
p7544
tp7545
I2
s(Vinsert
p7546
I42
VSimpleName: getAccount
p7547
tp7548
I3
s(Vinsert
p7549
I42
VSimpleName: ok
p7550
tp7551
I2
s(Vinsert
p7552
I42
VSimpleName: GistsPagerAdapter
p7553
tp7554
I1
s(Vinsert
p7555
I66
VTextElement:  readable database or null if it failed to create/open
p7556
tp7557
I1
s(Vinsert
p7558
I74
VParameterizedType: Class<T>
p7559
tp7560
I1
s(Vinsert
p7561
I42
VSimpleName: p
p7562
tp7563
I3
s(Vinsert
p7564
I42
VSimpleName: TabSpec
p7565
tp7566
I1
s(Vinsert
p7567
I66
VTextElement:  The issue number to change
p7568
tp7569
I1
s(Vinsert
p7570
I42
VSimpleName: setJavaScriptEnabled
p7571
tp7572
I1
s(Vinsert
p7573
I40
VQualifiedName: layout.commit_file_view
p7574
tp7575
I2
s(Vinsert
p7576
I42
VSimpleName: HTTP_UNAUTHORIZED
p7577
tp7578
I1
s(Vinsert
p7579
I42
VSimpleName: getClosedAt
p7580
tp7581
I2
s(Vinsert
p7582
I42
VSimpleName: notificationIcon
p7583
tp7584
I2
s(Vinsert
p7585
I42
VSimpleName: imageGetter
p7586
tp7587
I12
s(Vinsert
p7588
I42
VSimpleName: GitHubComment
p7589
tp7590
I3
s(Vinsert
p7591
I42
VSimpleName: GZIPInputStream
p7592
tp7593
I1
s(Vinsert
p7594
I42
VSimpleName: ActivityCompat
p7595
tp7596
I1
s(Vinsert
p7597
I43
VSimpleType: RequestUserClient
p7598
tp7599
I2
s(Vinsert
p7600
I42
VSimpleName: textViews
p7601
tp7602
I2
s(Vinsert
p7603
I42
VSimpleName: clickListener
p7604
tp7605
I4
s(Vinsert
p7606
I42
VSimpleName: getPath
p7607
tp7608
I3
s(Vinsert
p7609
I42
VSimpleName: RequestMarkdown
p7610
tp7611
I1
s(Vinsert
p7612
I42
VSimpleName: RequestFacade
p7613
tp7614
I1
s(Vinsert
p7615
I42
VSimpleName: getStatus
p7616
tp7617
I4
s(Vinsert
p7618
I43
VSimpleType: Comment
p7619
tp7620
I16
s(Vinsert
p7621
I42
VSimpleName: show
p7622
tp7623
I28
s(Vinsert
p7624
I42
VSimpleName: REPO_OWNER_LOGIN
p7625
tp7626
I2
s(Vinsert
p7627
I43
VSimpleType: AvatarLoader
p7628
tp7629
I1
s(Vinsert
p7630
I42
VSimpleName: Application
p7631
tp7632
I2
s(Vinsert
p7633
I42
VSimpleName: beamedIssue
p7634
tp7635
I2
s(Vinsert
p7636
I40
VQualifiedName: android.R.layout.simple_list_item_1
p7637
tp7638
I1
s(Vinsert
p7639
I42
VSimpleName: commentService
p7640
tp7641
I1
s(Vinsert
p7642
I42
VSimpleName: GetSingleCommitClient
p7643
tp7644
I1
s(Vinsert
p7645
I42
VSimpleName: issue2
p7646
tp7647
I1
s(Vinsert
p7648
I42
VSimpleName: CODE_VIEW
p7649
tp7650
I2
s(Vinsert
p7651
I42
VSimpleName: setSelectedDotColor
p7652
tp7653
I1
s(Vinsert
p7654
I40
VQualifiedName: TypedValue.COMPLEX_UNIT_DIP
p7655
tp7656
I1
s(Vinsert
p7657
I42
VSimpleName: Runnable
p7658
tp7659
I3
s(Vinsert
p7660
I42
VSimpleName: getViewTreeObserver
p7661
tp7662
I1
s(Vinsert
p7663
I42
VSimpleName: getRepositories
p7664
tp7665
I1
s(Vinsert
p7666
I42
VSimpleName: removeAccount
p7667
tp7668
I5
s(Vinsert
p7669
I42
VSimpleName: usernameEdit
p7670
tp7671
I1
s(Vinsert
p7672
I42
VSimpleName: createPost
p7673
tp7674
I1
s(Vinsert
p7675
I51
VSynchronizedStatement
p7676
tp7677
I2
s(Vinsert
p7678
I42
VSimpleName: SwipeRefreshLayout
p7679
tp7680
I1
s(Vinsert
p7681
I40
VQualifiedName: options.inJustDecodeBounds
p7682
tp7683
I1
s(Vinsert
p7684
I42
VSimpleName: replaceFirst
p7685
tp7686
I1
s(Vinsert
p7687
I42
VSimpleName: i
p7688
tp7689
I61
s(Vinsert
p7690
I42
VSimpleName: RepositoryViewActivity
p7691
tp7692
I1
s(Vinsert
p7693
I43
VSimpleType: BaseProgressDialog
p7694
tp7695
I2
s(Vinsert
p7696
I42
VSimpleName: desc
p7697
tp7698
I3
s(Vinsert
p7699
I40
VQualifiedName: commit.url
p7700
tp7701
I1
s(Vinsert
p7702
I43
VSimpleType: UrlProviderInterface
p7703
tp7704
I1
s(Vinsert
p7705
I42
VSimpleName: listener
p7706
tp7707
I5
s(Vinsert
p7708
I42
VSimpleName: webview
p7709
tp7710
I1
s(Vinsert
p7711
I42
VSimpleName: olCount
p7712
tp7713
I1
s(Vinsert
p7714
I42
VSimpleName: converted
p7715
tp7716
I2
s(Vinsert
p7717
I42
VSimpleName: issue1
p7718
tp7719
I2
s(Vinsert
p7720
I42
VSimpleName: addTab
p7721
tp7722
I1
s(Vinsert
p7723
I42
VSimpleName: event
p7724
tp7725
I48
s(Vinsert
p7726
I42
VSimpleName: flags
p7727
tp7728
I4
s(Vinsert
p7729
I42
VSimpleName: json
p7730
tp7731
I3
s(Vinsert
p7732
I42
VSimpleName: RepositoryEventMatcher
p7733
tp7734
I2
s(Vinsert
p7735
I42
VSimpleName: updateCreateMenu
p7736
tp7737
I1
s(Vinsert
p7738
I40
VQualifiedName: R.string.creating_comment
p7739
tp7740
I1
s(Vinsert
p7741
I42
VSimpleName: fragmentTag
p7742
tp7743
I1
s(Vinsert
p7744
I40
VQualifiedName: id.gistDescriptionText
p7745
tp7746
I1
s(Vinsert
p7747
I40
VQualifiedName: GitHubIntents.EXTRA_ISSUE_FILTER
p7748
tp7749
I1
s(Vinsert
p7750
I42
VSimpleName: tearDown
p7751
tp7752
I1
s(Vinsert
p7753
I42
VSimpleName: getAccentsColor
p7754
tp7755
I2
s(Vinsert
p7756
I42
VSimpleName: lhsLogin
p7757
tp7758
I1
s(Vinsert
p7759
I42
VSimpleName: collaboratorService
p7760
tp7761
I1
s(Vinsert
p7762
I42
VSimpleName: accountManager
p7763
tp7764
I10
s(Vinsert
p7765
I40
VQualifiedName: rx.android.schedulers.AndroidSchedulers
p7766
tp7767
I4
s(Vinsert
p7768
I42
VSimpleName: setBackgroundDrawable
p7769
tp7770
I1
s(Vinsert
p7771
I40
VQualifiedName: id.tv_repo_description
p7772
tp7773
I1
s(Vinsert
p7774
I42
VSimpleName: ItemReference
p7775
tp7776
I2
s(Vinsert
p7777
I43
VSimpleType: V
p7778
tp7779
I6
s(Vinsert
p7780
I42
VSimpleName: onListItemClick
p7781
tp7782
I1
s(Vinsert
p7783
I42
VSimpleName: issueMatcher
p7784
tp7785
I1
s(Vinsert
p7786
I42
VSimpleName: branchFooterView
p7787
tp7788
I1
s(Vinsert
p7789
I42
VSimpleName: GetReferenceClient
p7790
tp7791
I1
s(Vinsert
p7792
I42
VSimpleName: getTeams
p7793
tp7794
I1
s(Vinsert
p7795
I40
VQualifiedName: Build.VERSION_CODES.HONEYCOMB
p7796
tp7797
I2
s(Vinsert
p7798
I42
VSimpleName: getPathSegments
p7799
tp7800
I3
s(Vinsert
p7801
I42
VSimpleName: topRecentRepos
p7802
tp7803
I1
s(Vinsert
p7804
I45
VStringLiteral: "commit"
p7805
tp7806
I1
s(Vinsert
p7807
I42
VSimpleName: additionalProperties
p7808
tp7809
I2
s(Vinsert
p7810
I66
VTextElement:  bodyViewer
p7811
tp7812
I1
s(Vinsert
p7813
I42
VSimpleName: AssigneeDialogFragment
p7814
tp7815
I1
s(Vinsert
p7816
I42
VSimpleName: ShaUrl
p7817
tp7818
I2
s(Vinsert
p7819
I66
VTextElement:  int
p7820
tp7821
I1
s(Vinsert
p7822
I42
VSimpleName: generateId
p7823
tp7824
I13
s(Vinsert
p7825
I42
VSimpleName: Repository
p7826
tp7827
I51
s(Vinsert
p7828
I42
VSimpleName: isPrivate
p7829
tp7830
I4
s(Vinsert
p7831
I42
VSimpleName: mUsername
p7832
tp7833
I1
s(Vinsert
p7834
I43
VSimpleType: GitHubAccountScope
p7835
tp7836
I1
s(Vinsert
p7837
I42
VSimpleName: GistsFragment
p7838
tp7839
I1
s(Vinsert
p7840
I42
VSimpleName: options
p7841
tp7842
I7
s(Vinsert
p7843
I42
VSimpleName: getWidth
p7844
tp7845
I4
s(Vinsert
p7846
I40
VQualifiedName: com.meisolsson.githubsdk.model.SearchPage
p7847
tp7848
I2
s(Vinsert
p7849
I42
VSimpleName: doNothing
p7850
tp7851
I2
s(Vinsert
p7852
I42
VSimpleName: issueRepo
p7853
tp7854
I1
s(Vinsert
p7855
I40
VQualifiedName: repository.name
p7856
tp7857
I2
s(Vinsert
p7858
I43
VSimpleType: Gist
p7859
tp7860
I51
s(Vinsert
p7861
I42
VSimpleName: progressView
p7862
tp7863
I1
s(Vinsert
p7864
I42
VSimpleName: setCreatedAt
p7865
tp7866
I1
s(Vinsert
p7867
I42
VSimpleName: OrgItemView
p7868
tp7869
I1
s(Vinsert
p7870
I40
VQualifiedName: R.layout.tab
p7871
tp7872
I1
s(Vinsert
p7873
I40
VQualifiedName: issueStory.details
p7874
tp7875
I1
s(Vinsert
p7876
I42
VSimpleName: compareCommit
p7877
tp7878
I1
s(Vinsert
p7879
I40
VQualifiedName: com.github.mobile.util.TypefaceUtils
p7880
tp7881
I1
s(Vinsert
p7882
I42
VSimpleName: KEYCODE_ENTER
p7883
tp7884
I1
s(Vinsert
p7885
I66
VTextElement: Number formatter
p7886
tp7887
I3
s(Vinsert
p7888
I42
VSimpleName: initialPosition
p7889
tp7890
I1
s(Vinsert
p7891
I40
VQualifiedName: string.new_issue
p7892
tp7893
I1
s(Vinsert
p7894
I42
VSimpleName: loadedCollaborators
p7895
tp7896
I2
s(Vinsert
p7897
I42
VSimpleName: GetMilestonesClient
p7898
tp7899
I2
s(Vinsert
p7900
I42
VSimpleName: getUsername
p7901
tp7902
I4
s(Vinsert
p7903
I42
VSimpleName: removed
p7904
tp7905
I3
s(Vinsert
p7906
I42
VSimpleName: TAG
p7907
tp7908
I12
s(Vinsert
p7909
I42
VSimpleName: optional
p7910
tp7911
I1
s(Vinsert
p7912
I74
VParameterizedType: HashMap<String,String>
p7913
tp7914
I1
s(Vinsert
p7915
I40
VQualifiedName: current.parent
p7916
tp7917
I1
s(Vinsert
p7918
I42
VSimpleName: populated
p7919
tp7920
I1
s(Vinsert
p7921
I43
VSimpleType: GitService
p7922
tp7923
I1
s(Vinsert
p7924
I43
VSimpleType: SearchPage
p7925
tp7926
I2
s(Vinsert
p7927
I42
VSimpleName: getLabels
p7928
tp7929
I4
s(Vinsert
p7930
I45
VStringLiteral: " commit <b>%s</b> into <tt>%s</tt> from <tt>%s</tt> "
p7931
tp7932
I1
s(Vinsert
p7933
I42
VSimpleName: add
p7934
tp7935
I33
s(Vinsert
p7936
I42
VSimpleName: assertEquals
p7937
tp7938
I5
s(Vinsert
p7939
I42
VSimpleName: edit
p7940
tp7941
I4
s(Vinsert
p7942
I42
VSimpleName: relativeTimeFor
p7943
tp7944
I4
s(Vinsert
p7945
I40
VQualifiedName: layout.issue_edit
p7946
tp7947
I1
s(Vinsert
p7948
I42
VSimpleName: patch
p7949
tp7950
I3
s(Vinsert
p7951
I42
VSimpleName: MessageFormat
p7952
tp7953
I2
s(Vinsert
p7954
I43
VSimpleType: PullRequest
p7955
tp7956
I1
s(Vinsert
p7957
I43
VSimpleType: HeaderFooterListAdapter
p7958
tp7959
I2
s(Vinsert
p7960
I74
VParameterizedType: HeaderFooterListAdapter<CommentListAdapter>
p7961
tp7962
I2
s(Vinsert
p7963
I42
VSimpleName: getCharSequenceArrayExtra
p7964
tp7965
I2
s(Vinsert
p7966
I42
VSimpleName: ACTION_NDEF_DISCOVERED
p7967
tp7968
I2
s(Vinsert
p7969
I42
VSimpleName: interrupt
p7970
tp7971
I1
s(Vinsert
p7972
I40
VQualifiedName: view.eventText
p7973
tp7974
I1
s(Vinsert
p7975
I42
VSimpleName: UserPair
p7976
tp7977
I1
s(Vinsert
p7978
I42
VSimpleName: assertFalse
p7979
tp7980
I3
s(Vinsert
p7981
I43
VSimpleType: GetMilestonesClient
p7982
tp7983
I2
s(Vinsert
p7984
I43
VSimpleType: IssuePager
p7985
tp7986
I2
s(Vinsert
p7987
I42
VSimpleName: REQUEST_VIEW
p7988
tp7989
I2
s(Vinsert
p7990
I42
VSimpleName: intercept
p7991
tp7992
I2
s(Vinsert
p7993
I40
VQualifiedName: R.string.updating_labels
p7994
tp7995
I1
s(Vinsert
p7996
I42
VSimpleName: setOcticons
p7997
tp7998
I7
s(Vinsert
p7999
I42
VSimpleName: getSelected
p8000
tp8001
I7
s(Vinsert
p8002
I74
VParameterizedType: Single<IssueFilter>
p8003
tp8004
I1
s(Vinsert
p8005
I40
VQualifiedName: Observable.OnSubscribe
p8006
tp8007
I2
s(Vinsert
p8008
I40
VQualifiedName: layout.gist_files
p8009
tp8010
I1
s(Vinsert
p8011
I74
VParameterizedType: Page<GitReference>
p8012
tp8013
I1
s(Vinsert
p8014
I42
VSimpleName: zip
p8015
tp8016
I1
s(Vinsert
p8017
I42
VSimpleName: loadExternalUrl
p8018
tp8019
I1
s(Vinsert
p8020
I42
VSimpleName: SearchUser
p8021
tp8022
I1
s(Vinsert
p8023
I42
VSimpleName: saveRecentQuery
p8024
tp8025
I1
s(Vinsert
p8026
I42
VSimpleName: textLightColor
p8027
tp8028
I1
s(Vinsert
p8029
I27
VInfixExpression: &&
p8030
tp8031
I57
s(Vinsert
p8032
I42
VSimpleName: ARG_CHOICES
p8033
tp8034
I1
s(Vinsert
p8035
I42
VSimpleName: setCommentText
p8036
tp8037
I1
s(Vinsert
p8038
I74
VParameterizedType: AtomicReference<User>
p8039
tp8040
I1
s(Vinsert
p8041
I74
VParameterizedType: ImageResourceStore<String,Bitmap>
p8042
tp8043
I1
s(Vinsert
p8044
I42
VSimpleName: reader
p8045
tp8046
I1
s(Vinsert
p8047
I42
VSimpleName: cursor
p8048
tp8049
I13
s(Vinsert
p8050
I42
VSimpleName: CompareCommitsClient
p8051
tp8052
I2
s(Vinsert
p8053
I59
VVariableDeclarationFragment
p8054
tp8055
I670
s(Vinsert
p8056
I42
VSimpleName: DefaultRepositoryListAdapter
p8057
tp8058
I1
s(Vinsert
p8059
I42
VSimpleName: starRepoClient
p8060
tp8061
I1
s(Vinsert
p8062
I42
VSimpleName: MultipartBuilder
p8063
tp8064
I1
s(Vinsert
p8065
I34
VNumberLiteral: 9
p8066
tp8067
I1
s(Vinsert
p8068
I42
VSimpleName: obtainStyledAttributes
p8069
tp8070
I1
s(Vinsert
p8071
I74
VParameterizedType: ArrayList<GistFile>
p8072
tp8073
I1
s(Vinsert
p8074
I42
VSimpleName: passwordEdit
p8075
tp8076
I1
s(Vinsert
p8077
I43
VSimpleType: ViewPager
p8078
tp8079
I1
s(Vinsert
p8080
I40
VQualifiedName: com.google.gson.Gson
p8081
tp8082
I1
s(Vinsert
p8083
I42
VSimpleName: Comment
p8084
tp8085
I18
s(Vinsert
p8086
I42
VSimpleName: onPause
p8087
tp8088
I4
s(Vinsert
p8089
I40
VQualifiedName: Uri.EMPTY
p8090
tp8091
I1
s(Vinsert
p8092
I43
VSimpleType: GetAuthUserClient
p8093
tp8094
I1
s(Vinsert
p8095
I42
VSimpleName: decode
p8096
tp8097
I1
s(Vinsert
p8098
I42
VSimpleName: getIntegerInstance
p8099
tp8100
I7
s(Vinsert
p8101
I42
VSimpleName: Html
p8102
tp8103
I2
s(Vinsert
p8104
I42
VSimpleName: repositoryId
p8105
tp8106
I5
s(Vinsert
p8107
I42
VSimpleName: emptyList
p8108
tp8109
I4
s(Vinsert
p8110
I42
VSimpleName: createService
p8111
tp8112
I24
s(Vinsert
p8113
I42
VSimpleName: canDelete
p8114
tp8115
I1
s(Vinsert
p8116
I45
VStringLiteral: "owner/repo"
p8117
tp8118
I1
s(Vinsert
p8119
I43
VSimpleType: UserEventMatcher
p8120
tp8121
I2
s(Vinsert
p8122
I42
VSimpleName: bytesSkipped
p8123
tp8124
I1
s(Vinsert
p8125
I45
VStringLiteral: "repo.issues.filters.VIEW"
p8126
tp8127
I1
s(Vinsert
p8128
I43
VSimpleType: Activity
p8129
tp8130
I7
s(Vinsert
p8131
I66
VTextElement:  true if complete, false otherwise
p8132
tp8133
I1
s(Vinsert
p8134
I42
VSimpleName: avatarFile
p8135
tp8136
I2
s(Vinsert
p8137
I42
VSimpleName: FragmentActivity
p8138
tp8139
I1
s(Vinsert
p8140
I42
VSimpleName: gone
p8141
tp8142
I5
s(Vinsert
p8143
I42
VSimpleName: redirectUri
p8144
tp8145
I2
s(Vinsert
p8146
I42
VSimpleName: getInjector
p8147
tp8148
I3
s(Vinsert
p8149
I42
VSimpleName: lhs
p8150
tp8151
I13
s(Vinsert
p8152
I66
VTextElement: Is the filter valid?
p8153
tp8154
I1
s(Vinsert
p8155
I42
VSimpleName: RxJavaInterop
p8156
tp8157
I6
s(Vinsert
p8158
I27
VInfixExpression: /
p8159
tp8160
I1
s(Vinsert
p8161
I45
VStringLiteral: "{0} forked repository {1}"
p8162
tp8163
I1
s(Vinsert
p8164
I40
VQualifiedName: repo1.id
p8165
tp8166
I1
s(Vinsert
p8167
I42
VSimpleName: createMenu
p8168
tp8169
I2
s(Vinsert
p8170
I42
VSimpleName: cornerRadius
p8171
tp8172
I2
s(Vinsert
p8173
I74
VParameterizedType: Single<Gist>
p8174
tp8175
I2
s(Vinsert
p8176
I42
VSimpleName: post
p8177
tp8178
I4
s(Vinsert
p8179
I42
VSimpleName: setText
p8180
tp8181
I45
s(Vinsert
p8182
I40
VQualifiedName: string.error_gists_load
p8183
tp8184
I1
s(Vinsert
p8185
I40
VQualifiedName: R.string.updating_assignee
p8186
tp8187
I1
s(Vinsert
p8188
I40
VQualifiedName: com.github.mobile.android.util.GitHubIntents.EXTRA_GIST_ID
p8189
tp8190
I1
s(Vinsert
p8191
I42
VSimpleName: HttpsURLConnection
p8192
tp8193
I1
s(Vinsert
p8194
I74
VParameterizedType: ObserverAdapter<Response<Boolean>>
p8195
tp8196
I2
s(Vinsert
p8197
I42
VSimpleName: pageIssueEvents
p8198
tp8199
I1
s(Vinsert
p8200
I42
VSimpleName: allRefs
p8201
tp8202
I1
s(Vinsert
p8203
I42
VSimpleName: forkee
p8204
tp8205
I1
s(Vinsert
p8206
I42
VSimpleName: content
p8207
tp8208
I9
s(Vinsert
p8209
I42
VSimpleName: allAccounts
p8210
tp8211
I1
s(Vinsert
p8212
I42
VSimpleName: OrgsMembersClient
p8213
tp8214
I1
s(Vinsert
p8215
I43
VSimpleType: ImageView
p8216
tp8217
I21
s(Vinsert
p8218
I74
VParameterizedType: Map<String,GistFile>
p8219
tp8220
I1
s(Vinsert
p8221
I42
VSimpleName: Paint
p8222
tp8223
I6
s(Vinsert
p8224
I42
VSimpleName: setOAuth2Token
p8225
tp8226
I1
s(Vinsert
p8227
I42
VSimpleName: uri
p8228
tp8229
I14
s(Vinsert
p8230
I45
VStringLiteral: "repo.issues.VIEW"
p8231
tp8232
I1
s(Vinsert
p8233
I42
VSimpleName: getTime
p8234
tp8235
I1
s(Vinsert
p8236
I43
VSimpleType: PostNewIssueClient
p8237
tp8238
I2
s(Vinsert
p8239
I42
VSimpleName: getIssues
p8240
tp8241
I2
s(Vinsert
p8242
I42
VSimpleName: getSimpleName
p8243
tp8244
I3
s(Vinsert
p8245
I42
VSimpleName: line
p8246
tp8247
I4
s(Vinsert
p8248
I40
VQualifiedName: user.login
p8249
tp8250
I6
s(Vinsert
p8251
I42
VSimpleName: getCursor
p8252
tp8253
I1
s(Vinsert
p8254
I43
VSimpleType: IssueFilter
p8255
tp8256
I11
s(Vinsert
p8257
I43
VSimpleType: GithubIssueLabelsClient
p8258
tp8259
I2
s(Vinsert
p8260
I43
VSimpleType: CreatePayload
p8261
tp8262
I2
s(Vinsert
p8263
I42
VSimpleName: getExtras
p8264
tp8265
I1
s(Vinsert
p8266
I43
VSimpleType: EditAssigneeTask
p8267
tp8268
I1
s(Vinsert
p8269
I45
VStringLiteral: "issues.VIEW"
p8270
tp8271
I1
s(Vinsert
p8272
I42
VSimpleName: currentAccountProvider
p8273
tp8274
I2
s(Vinsert
p8275
I40
VQualifiedName: Observable.Transformer
p8276
tp8277
I2
s(Vinsert
p8278
I42
VSimpleName: g1
p8279
tp8280
I1
s(Vinsert
p8281
I42
VSimpleName: deleteComment
p8282
tp8283
I2
s(Vinsert
p8284
I45
VStringLiteral: "http://gist.github.com/"
p8285
tp8286
I1
s(Vinsert
p8287
I42
VSimpleName: org
p8288
tp8289
I23
s(Vinsert
p8290
I43
VSimpleType: Folder
p8291
tp8292
I3
s(Vinsert
p8293
I42
VSimpleName: bounds
p8294
tp8295
I2
s(Vinsert
p8296
I42
VSimpleName: updateEnablement
p8297
tp8298
I1
s(Vinsert
p8299
I42
VSimpleName: author
p8300
tp8301
I4
s(Vinsert
p8302
I42
VSimpleName: getLayoutInflater
p8303
tp8304
I7
s(Vinsert
p8305
I42
VSimpleName: mainThread
p8306
tp8307
I5
s(Vinsert
p8308
I42
VSimpleName: GistUriMatcher
p8309
tp8310
I3
s(Vinsert
p8311
I42
VSimpleName: gistFiles
p8312
tp8313
I2
s(Vinsert
p8314
I43
VSimpleType: Issue
p8315
tp8316
I46
s(Vinsert
p8317
I40
VQualifiedName: result.login
p8318
tp8319
I1
s(Vinsert
p8320
I42
VSimpleName: htmlString
p8321
tp8322
I2
s(Vinsert
p8323
I42
VSimpleName: toV2Observable
p8324
tp8325
I11
s(Vinsert
p8326
I42
VSimpleName: cancelAnyCurrentCampaign
p8327
tp8328
I1
s(Vinsert
p8329
I42
VSimpleName: LabelDrawableSpan
p8330
tp8331
I1
s(Vinsert
p8332
I42
VSimpleName: ListView
p8333
tp8334
I4
s(Vinsert
p8335
I42
VSimpleName: WRAP
p8336
tp8337
I2
s(Vinsert
p8338
I42
VSimpleName: GistFile
p8339
tp8340
I17
s(Vinsert
p8341
I42
VSimpleName: setOnResultCallback
p8342
tp8343
I7
s(Vinsert
p8344
I40
VQualifiedName: IssueState.closed
p8345
tp8346
I1
s(Vinsert
p8347
I42
VSimpleName: requestDisallowInterceptTouchEvent
p8348
tp8349
I1
s(Vinsert
p8350
I42
VSimpleName: CommitMatch
p8351
tp8352
I2
s(Vinsert
p8353
I42
VSimpleName: PARAM_AUTHTOKEN_TYPE
p8354
tp8355
I1
s(Vinsert
p8356
I42
VSimpleName: clientId
p8357
tp8358
I1
s(Vinsert
p8359
I42
VSimpleName: PageIterator
p8360
tp8361
I5
s(Vinsert
p8362
I42
VSimpleName: setSource
p8363
tp8364
I2
s(Vinsert
p8365
I42
VSimpleName: actionBar
p8366
tp8367
I25
s(Vinsert
p8368
I42
VSimpleName: CommitFileViewActivity
p8369
tp8370
I3
s(Vinsert
p8371
I43
VSimpleType: RepositoryId
p8372
tp8373
I6
s(Vinsert
p8374
I42
VSimpleName: branchIconView
p8375
tp8376
I3
s(Vinsert
p8377
I40
VQualifiedName: R.string.github_client
p8378
tp8379
I1
s(Vinsert
p8380
I42
VSimpleName: setEmpty
p8381
tp8382
I1
s(Vinsert
p8383
I43
VSimpleType: Bundle
p8384
tp8385
I41
s(Vinsert
p8386
I42
VSimpleName: selectedLabels
p8387
tp8388
I2
s(Vinsert
p8389
I43
VSimpleType: EventType
p8390
tp8391
I1
s(Vinsert
p8392
I74
VParameterizedType: Page<NotificationThread>
p8393
tp8394
I1
s(Vinsert
p8395
I42
VSimpleName: textHeight
p8396
tp8397
I1
s(Vinsert
p8398
I42
VSimpleName: MainActivity
p8399
tp8400
I1
s(Vinsert
p8401
I74
VParameterizedType: ArrayList<Gist>
p8402
tp8403
I2
s(Vinsert
p8404
I42
VSimpleName: recent
p8405
tp8406
I4
s(Vinsert
p8407
I42
VSimpleName: fromBase64
p8408
tp8409
I1
s(Vinsert
p8410
I43
VSimpleType: SearchRepositoryItemView
p8411
tp8412
I1
s(Vinsert
p8413
I40
VQualifiedName: repo2.id
p8414
tp8415
I1
s(Vinsert
p8416
I42
VSimpleName: imageView
p8417
tp8418
I4
s(Vinsert
p8419
I42
VSimpleName: rowStart
p8420
tp8421
I1
s(Vinsert
p8422
I45
VStringLiteral: " "
p8423
tp8424
I1
s(Vinsert
p8425
I43
VSimpleType: RepositoryContentService
p8426
tp8427
I1
s(Vinsert
p8428
I42
VSimpleName: setNumber
p8429
tp8430
I3
s(Vinsert
p8431
I42
VSimpleName: applyItem
p8432
tp8433
I2
s(Vinsert
p8434
I42
VSimpleName: gistId
p8435
tp8436
I11
s(Vinsert
p8437
I74
VParameterizedType: BitmapFileStore<String>
p8438
tp8439
I1
s(Vinsert
p8440
I34
VNumberLiteral: 6
p8441
tp8442
I1
s(Vinsert
p8443
I43
VSimpleType: CommentRequest
p8444
tp8445
I4
s(Vinsert
p8446
I43
VSimpleType: AtomicReference
p8447
tp8448
I4
s(Vinsert
p8449
I43
VSimpleType: FixedViewInfo
p8450
tp8451
I1
s(Vinsert
p8452
I42
VSimpleName: assertNotNull
p8453
tp8454
I4
s(Vinsert
p8455
I42
VSimpleName: list
p8456
tp8457
I9
s(Vinsert
p8458
I42
VSimpleName: GitHubEvent
p8459
tp8460
I1
s(Vinsert
p8461
I42
VSimpleName: isTag
p8462
tp8463
I1
s(Vinsert
p8464
I42
VSimpleName: gravatar
p8465
tp8466
I2
s(Vinsert
p8467
I42
VSimpleName: createPagedRequest
p8468
tp8469
I2
s(Vinsert
p8470
I42
VSimpleName: spy
p8471
tp8472
I2
s(Vinsert
p8473
I42
VSimpleName: organization
p8474
tp8475
I4
s(Vinsert
p8476
I45
VStringLiteral: "https://github.com/"
p8477
tp8478
I2
s(Vinsert
p8479
I42
VSimpleName: getPaddingRight
p8480
tp8481
I1
s(Vinsert
p8482
I42
VSimpleName: printStackTrace
p8483
tp8484
I1
s(Vinsert
p8485
I42
VSimpleName: appData
p8486
tp8487
I1
s(Vinsert
p8488
I40
VQualifiedName: R.layout.home
p8489
tp8490
I1
s(Vinsert
p8491
I42
VSimpleName: blob
p8492
tp8493
I6
s(Vinsert
p8494
I42
VSimpleName: closedAt
p8495
tp8496
I4
s(Vinsert
p8497
I43
VSimpleType: FollowPayload
p8498
tp8499
I2
s(Vinsert
p8500
I42
VSimpleName: RepoIssueViewHolder
p8501
tp8502
I1
s(Vinsert
p8503
I40
VQualifiedName: id.issue_milestone
p8504
tp8505
I1
s(Vinsert
p8506
I40
VQualifiedName: updater.view
p8507
tp8508
I1
s(Vinsert
p8509
I42
VSimpleName: repoIssue
p8510
tp8511
I3
s(Vinsert
p8512
I42
VSimpleName: service
p8513
tp8514
I58
s(Vinsert
p8515
I42
VSimpleName: date
p8516
tp8517
I4
s(Vinsert
p8518
I42
VSimpleName: getIntPixels
p8519
tp8520
I1
s(Vinsert
p8521
I42
VSimpleName: Image
p8522
tp8523
I1
s(Vinsert
p8524
I45
VStringLiteral: "demilestoned"
p8525
tp8526
I1
s(Vinsert
p8527
I42
VSimpleName: BitmapFileStore
p8528
tp8529
I1
s(Vinsert
p8530
I45
VStringLiteral: "/pull/"
p8531
tp8532
I1
s(Vinsert
p8533
I42
VSimpleName: commentClient
p8534
tp8535
I2
s(Vinsert
p8536
I42
VSimpleName: visibleItemCount
p8537
tp8538
I3
s(Vinsert
p8539
I42
VSimpleName: CommitUtils
p8540
tp8541
I1
s(Vinsert
p8542
I40
VQualifiedName: view.sha
p8543
tp8544
I1
s(Vinsert
p8545
I42
VSimpleName: onCreateOptionsMenu
p8546
tp8547
I12
s(Vinsert
p8548
I42
VSimpleName: setGoneAgent
p8549
tp8550
I1
s(Vinsert
p8551
I42
VSimpleName: CODE_CREATE
p8552
tp8553
I1
s(Vinsert
p8554
I40
VQualifiedName: android.util.TypedValue
p8555
tp8556
I1
s(Vinsert
p8557
I42
VSimpleName: headerView
p8558
tp8559
I2
s(Vinsert
p8560
I45
VStringLiteral: "Remove not supported"
p8561
tp8562
I1
s(Vinsert
p8563
I42
VSimpleName: requestCode
p8564
tp8565
I12
s(Vinsert
p8566
I42
VSimpleName: Loader
p8567
tp8568
I1
s(Vinsert
p8569
I42
VSimpleName: HomeActivity
p8570
tp8571
I10
s(Vinsert
p8572
I42
VSimpleName: getOrCreateAccountFor
p8573
tp8574
I1
s(Vinsert
p8575
I42
VSimpleName: pagedSingleCall
p8576
tp8577
I2
s(Vinsert
p8578
I42
VSimpleName: items
p8579
tp8580
I25
s(Vinsert
p8581
I42
VSimpleName: TextPaint
p8582
tp8583
I1
s(Vinsert
p8584
I42
VSimpleName: infoText
p8585
tp8586
I1
s(Vinsert
p8587
I42
VSimpleName: getChildCount
p8588
tp8589
I1
s(Vinsert
p8590
I42
VSimpleName: isBeamApiAvailable
p8591
tp8592
I1
s(Vinsert
p8593
I42
VSimpleName: Test
p8594
tp8595
I3
s(Vinsert
p8596
I42
VSimpleName: ViewGistFileActivity
p8597
tp8598
I1
s(Vinsert
p8599
I42
VSimpleName: milestoneDialog
p8600
tp8601
I4
s(Vinsert
p8602
I42
VSimpleName: subscribeOn
p8603
tp8604
I35
s(Vinsert
p8605
I42
VSimpleName: context
p8606
tp8607
I76
s(Vinsert
p8608
I42
VSimpleName: isFork
p8609
tp8610
I2
s(Vinsert
p8611
I40
VQualifiedName: Context.SEARCH_SERVICE
p8612
tp8613
I3
s(Vinsert
p8614
I40
VQualifiedName: ref.ref
p8615
tp8616
I1
s(Vinsert
p8617
I42
VSimpleName: added
p8618
tp8619
I3
s(Vinsert
p8620
I42
VSimpleName: EXTRA_ISSUE_NUMBERS
p8621
tp8622
I1
s(Vinsert
p8623
I42
VSimpleName: Folder
p8624
tp8625
I3
s(Vinsert
p8626
I42
VSimpleName: force
p8627
tp8628
I2
s(Vinsert
p8629
I42
VSimpleName: pixels
p8630
tp8631
I1
s(Vinsert
p8632
I42
VSimpleName: userAvatar
p8633
tp8634
I2
s(Vinsert
p8635
I45
VStringLiteral: "Basic "
p8636
tp8637
I1
s(Vinsert
p8638
I42
VSimpleName: getStyle
p8639
tp8640
I1
s(Vinsert
p8641
I42
VSimpleName: handle
p8642
tp8643
I1
s(Vinsert
p8644
I42
VSimpleName: p_event
p8645
tp8646
I1
s(Vinsert
p8647
I42
VSimpleName: getRepositoryMilestones
p8648
tp8649
I2
s(Vinsert
p8650
I5
VArrayType: User[]
p8651
tp8652
I1
s(Vinsert
p8653
I42
VSimpleName: isCollaborator
p8654
tp8655
I3
s(Vinsert
p8656
I42
VSimpleName: activity
p8657
tp8658
I57
s(Vinsert
p8659
I74
VParameterizedType: ArrayList<Event>
p8660
tp8661
I1
s(Vinsert
p8662
I42
VSimpleName: testOriginalRepoIsNotChanged
p8663
tp8664
I1
s(Vinsert
p8665
I42
VSimpleName: SSLContext
p8666
tp8667
I2
s(Vinsert
p8668
I74
VParameterizedType: Response<Page<Label>>
p8669
tp8670
I1
s(Vinsert
p8671
I42
VSimpleName: authTokenType
p8672
tp8673
I3
s(Vinsert
p8674
I42
VSimpleName: editedIssue
p8675
tp8676
I13
s(Vinsert
p8677
I42
VSimpleName: setImageDrawable
p8678
tp8679
I1
s(Vinsert
p8680
I42
VSimpleName: ColorInt
p8681
tp8682
I2
s(Vinsert
p8683
I42
VSimpleName: build
p8684
tp8685
I30
s(Vinsert
p8686
I42
VSimpleName: isSelectable
p8687
tp8688
I1
s(Vinsert
p8689
I74
VParameterizedType: AtomicReference<RecentRepos>
p8690
tp8691
I2
s(Vinsert
p8692
I42
VSimpleName: showPassword
p8693
tp8694
I1
s(Vinsert
p8695
I45
VStringLiteral: ".jpg"
p8696
tp8697
I1
s(Vinsert
p8698
I42
VSimpleName: CommitCommentPayload
p8699
tp8700
I2
s(Vinsert
p8701
I42
VSimpleName: clazz
p8702
tp8703
I1
s(Vinsert
p8704
I42
VSimpleName: getCacheDir
p8705
tp8706
I1
s(Vinsert
p8707
I40
VQualifiedName: id.v_header_separator
p8708
tp8709
I1
s(Vinsert
p8710
I42
VSimpleName: getURL
p8711
tp8712
I1
s(Vinsert
p8713
I43
VSimpleType: GitHubComment
p8714
tp8715
I3
s(Vinsert
p8716
I45
VStringLiteral: "pascal"
p8717
tp8718
I1
s(Vinsert
p8719
I42
VSimpleName: SingleTypeAdapter
p8720
tp8721
I1
s(Vinsert
p8722
I43
VSimpleType: GitHubClient
p8723
tp8724
I4
s(Vinsert
p8725
I42
VSimpleName: passwordText
p8726
tp8727
I1
s(Vinsert
p8728
I42
VSimpleName: isHasIssues
p8729
tp8730
I2
s(Vinsert
p8731
I40
VQualifiedName: android.content.Intent
p8732
tp8733
I1
s(Vinsert
p8734
I42
VSimpleName: VERSION_RECENT_REPOS
p8735
tp8736
I1
s(Vinsert
p8737
I74
VParameterizedType: Collection<V>
p8738
tp8739
I1
s(Vinsert
p8740
I40
VQualifiedName: view.language
p8741
tp8742
I3
s(Vinsert
p8743
I42
VSimpleName: exception
p8744
tp8745
I2
s(Vinsert
p8746
I40
VQualifiedName: view.labelsText
p8747
tp8748
I2
s(Vinsert
p8749
I42
VSimpleName: ThrowableLoader
p8750
tp8751
I2
s(Vinsert
p8752
I42
VSimpleName: commentPosition
p8753
tp8754
I1
s(Vinsert
p8755
I42
VSimpleName: repos
p8756
tp8757
I10
s(Vinsert
p8758
I42
VSimpleName: editText
p8759
tp8760
I4
s(Vinsert
p8761
I74
VParameterizedType: List<Gist>
p8762
tp8763
I5
s(Vinsert
p8764
I43
VSimpleType: OnResumeEvent
p8765
tp8766
I2
s(Vinsert
p8767
I42
VSimpleName: avatarHelper
p8768
tp8769
I16
s(Vinsert
p8770
I42
VSimpleName: getSettings
p8771
tp8772
I6
s(Vinsert
p8773
I45
VStringLiteral: "a"
p8774
tp8775
I2
s(Vinsert
p8776
I42
VSimpleName: avatarUrl
p8777
tp8778
I8
s(Vinsert
p8779
I40
VQualifiedName: View.GONE
p8780
tp8781
I8
s(Vinsert
p8782
I40
VQualifiedName: Activity.RESULT_OK
p8783
tp8784
I1
s(Vinsert
p8785
I42
VSimpleName: labelsTask
p8786
tp8787
I1
s(Vinsert
p8788
I40
VQualifiedName: org.joda.time.format.DateTimeFormat
p8789
tp8790
I1
s(Vinsert
p8791
I40
VQualifiedName: id.pb_loading
p8792
tp8793
I2
s(Vinsert
p8794
I40
VQualifiedName: id.tv_filter_assignee
p8795
tp8796
I1
s(Vinsert
p8797
I42
VSimpleName: widget
p8798
tp8799
I1
s(Vinsert
p8800
I42
VSimpleName: adapter
p8801
tp8802
I22
s(Vinsert
p8803
I42
VSimpleName: otpCode
p8804
tp8805
I1
s(Vinsert
p8806
I43
VSimpleType: Contributor
p8807
tp8808
I2
s(Vinsert
p8809
I42
VSimpleName: getId
p8810
tp8811
I50
s(Vinsert
p8812
I42
VSimpleName: getHost
p8813
tp8814
I4
s(Vinsert
p8815
I42
VSimpleName: fragment
p8816
tp8817
I29
s(Vinsert
p8818
I40
VQualifiedName: created.body_html
p8819
tp8820
I1
s(Vinsert
p8821
I42
VSimpleName: getAction
p8822
tp8823
I1
s(Vinsert
p8824
I40
VQualifiedName: com.github.mobile.ui.StyledText
p8825
tp8826
I2
s(Vinsert
p8827
I42
VSimpleName: StringRes
p8828
tp8829
I2
s(Vinsert
p8830
I42
VSimpleName: headerSeparator
p8831
tp8832
I1
s(Vinsert
p8833
I42
VSimpleName: onActivityCreated
p8834
tp8835
I6
s(Vinsert
p8836
I42
VSimpleName: isDefaultUser
p8837
tp8838
I4
s(Vinsert
p8839
I42
VSimpleName: milestones
p8840
tp8841
I2
s(Vinsert
p8842
I40
VQualifiedName: id.tpi_header
p8843
tp8844
I1
s(Vinsert
p8845
I42
VSimpleName: e
p8846
tp8847
I70
s(Vinsert
p8848
I42
VSimpleName: ForkEvent
p8849
tp8850
I1
s(Vinsert
p8851
I43
VSimpleType: Object
p8852
tp8853
I25
s(Vinsert
p8854
I43
VSimpleType: CharSequence
p8855
tp8856
I12
s(Vinsert
p8857
I42
VSimpleName: getAuthorizations
p8858
tp8859
I1
s(Vinsert
p8860
I42
VSimpleName: setRequestProperty
p8861
tp8862
I1
s(Vinsert
p8863
I42
VSimpleName: repositoryLoaded
p8864
tp8865
I2
s(Vinsert
p8866
I42
VSimpleName: continueBind
p8867
tp8868
I1
s(Vinsert
p8869
I42
VSimpleName: repo
p8870
tp8871
I74
s(Vinsert
p8872
I42
VSimpleName: GitHubFile
p8873
tp8874
I2
s(Vinsert
p8875
I42
VSimpleName: DialogInterface
p8876
tp8877
I1
s(Vinsert
p8878
I40
VQualifiedName: layout.contributor_item
p8879
tp8880
I1
s(Vinsert
p8881
I42
VSimpleName: setSelection
p8882
tp8883
I1
s(Vinsert
p8884
I42
VSimpleName: toLowerCase
p8885
tp8886
I1
s(Vinsert
p8887
I42
VSimpleName: RoboAsyncLoader
p8888
tp8889
I1
s(Vinsert
p8890
I42
VSimpleName: target
p8891
tp8892
I1
s(Vinsert
p8893
I60
VVariableDeclarationStatement
p8894
tp8895
I475
s(Vinsert
p8896
I66
VTextElement:  preferences
p8897
tp8898
I1
s(Vinsert
p8899
I42
VSimpleName: onTouch
p8900
tp8901
I1
s(Vinsert
p8902
I42
VSimpleName: decodeByteArray
p8903
tp8904
I2
s(Vinsert
p8905
I43
VSimpleType: TabHost
p8906
tp8907
I1
s(Vinsert
p8908
I42
VSimpleName: savePrefsFrom
p8909
tp8910
I1
s(Vinsert
p8911
I42
VSimpleName: addGist
p8912
tp8913
I4
s(Vinsert
p8914
I40
VQualifiedName: info.isSelectable
p8915
tp8916
I1
s(Vinsert
p8917
I42
VSimpleName: ceil
p8918
tp8919
I3
s(Vinsert
p8920
I42
VSimpleName: RefreshUserTask
p8921
tp8922
I3
s(Vinsert
p8923
I42
VSimpleName: getCommentText
p8924
tp8925
I1
s(Vinsert
p8926
I42
VSimpleName: userOrOrgIsAuthenticatedUser
p8927
tp8928
I1
s(Vinsert
p8929
I43
VSimpleType: Application
p8930
tp8931
I2
s(Vinsert
p8932
I43
VSimpleType: ConfirmDialogFragment
p8933
tp8934
I2
s(Vinsert
p8935
I76
VWildcardType: ? super GistFile
p8936
tp8937
I1
s(Vinsert
p8938
I42
VSimpleName: Class
p8939
tp8940
I1
s(Vinsert
p8941
I42
VSimpleName: mPassword
p8942
tp8943
I1
s(Vinsert
p8944
I42
VSimpleName: findFragmentByTag
p8945
tp8946
I3
s(Vinsert
p8947
I42
VSimpleName: setCredentials
p8948
tp8949
I2
s(Vinsert
p8950
I42
VSimpleName: Options
p8951
tp8952
I2
s(Vinsert
p8953
I42
VSimpleName: ObjectInputStream
p8954
tp8955
I1
s(Vinsert
p8956
I42
VSimpleName: Drawable
p8957
tp8958
I2
s(Vinsert
p8959
I42
VSimpleName: secureRequests
p8960
tp8961
I1
s(Vinsert
p8962
I42
VSimpleName: push
p8963
tp8964
I1
s(Vinsert
p8965
I74
VParameterizedType: List<String>
p8966
tp8967
I4
s(Vinsert
p8968
I43
VSimpleType: AccountManagerFuture
p8969
tp8970
I1
s(Vinsert
p8971
I42
VSimpleName: viewIssue
p8972
tp8973
I1
s(Vinsert
p8974
I43
VSimpleType: RepositoryCommit
p8975
tp8976
I9
s(Vinsert
p8977
I42
VSimpleName: collaboratorClient
p8978
tp8979
I2
s(Vinsert
p8980
I42
VSimpleName: Override
p8981
tp8982
I94
s(Vinsert
p8983
I42
VSimpleName: writeToParcel
p8984
tp8985
I2
s(Vinsert
p8986
I34
VNumberLiteral: 198
p8987
tp8988
I1
s(Vinsert
p8989
I42
VSimpleName: setTag
p8990
tp8991
I3
s(Vinsert
p8992
I42
VSimpleName: parents
p8993
tp8994
I1
s(Vinsert
p8995
I45
VStringLiteral: "z"
p8996
tp8997
I1
s(Vinsert
p8998
I43
VSimpleType: IssueStoryLoader
p8999
tp9000
I1
s(Vinsert
p9001
I42
VSimpleName: firstVisibleItem
p9002
tp9003
I2
s(Vinsert
p9004
I43
VSimpleType: SearchRepositoryListFragment
p9005
tp9006
I1
s(Vinsert
p9007
I42
VSimpleName: positionOffset
p9008
tp9009
I1
s(Vinsert
p9010
I40
VQualifiedName: user.id
p9011
tp9012
I2
s(Vinsert
p9013
I42
VSimpleName: Color
p9014
tp9015
I2
s(Vinsert
p9016
I40
VQualifiedName: edited.body_html
p9017
tp9018
I1
s(Vinsert
p9019
I42
VSimpleName: orgs
p9020
tp9021
I8
s(Vinsert
p9022
I42
VSimpleName: unfollowUserClient
p9023
tp9024
I1
s(Vinsert
p9025
I42
VSimpleName: ISSUE_VIEW
p9026
tp9027
I2
s(Vinsert
p9028
I40
VQualifiedName: gist.isPublic
p9029
tp9030
I1
s(Vinsert
p9031
I42
VSimpleName: tag
p9032
tp9033
I2
s(Vinsert
p9034
I40
VQualifiedName: current.url
p9035
tp9036
I1
s(Vinsert
p9037
I42
VSimpleName: isForcedReload
p9038
tp9039
I2
s(Vinsert
p9040
I43
VSimpleType: RecentReposHelper
p9041
tp9042
I2
s(Vinsert
p9043
I42
VSimpleName: IOException
p9044
tp9045
I14
s(Vinsert
p9046
I42
VSimpleName: setViewPager
p9047
tp9048
I2
s(Vinsert
p9049
I43
VSimpleType: Account
p9050
tp9051
I38
s(Vinsert
p9052
I42
VSimpleName: orgsList
p9053
tp9054
I1
s(Vinsert
p9055
I42
VSimpleName: fileName
p9056
tp9057
I1
s(Vinsert
p9058
I74
VParameterizedType: List<E>
p9059
tp9060
I5
s(Vinsert
p9061
I42
VSimpleName: text
p9062
tp9063
I19
s(Vinsert
p9064
I40
VQualifiedName: R.attr.ic_action_issue_close
p9065
tp9066
I1
s(Vinsert
p9067
I42
VSimpleName: getEmailAddresses
p9068
tp9069
I1
s(Vinsert
p9070
I83
VModifier: private
p9071
tp9072
I56
s(Vinsert
p9073
I42
VSimpleName: HomeDropdownListAdapter
p9074
tp9075
I1
s(Vinsert
p9076
I43
VSimpleType: ShaUrl
p9077
tp9078
I2
s(Vinsert
p9079
I42
VSimpleName: drawable
p9080
tp9081
I3
s(Vinsert
p9082
I40
VQualifiedName: id.tv_milestone_description
p9083
tp9084
I1
s(Vinsert
p9085
I42
VSimpleName: createIterator
p9086
tp9087
I9
s(Vinsert
p9088
I42
VSimpleName: extension
p9089
tp9090
I4
s(Vinsert
p9091
I42
VSimpleName: comparator
p9092
tp9093
I1
s(Vinsert
p9094
I45
VStringLiteral: " on "
p9095
tp9096
I1
s(Vinsert
p9097
I43
VSimpleType: PublishGistClient
p9098
tp9099
I1
s(Vinsert
p9100
I42
VSimpleName: setOnCheckUserIsCollaborator
p9101
tp9102
I1
s(Vinsert
p9103
I42
VSimpleName: iter
p9104
tp9105
I1
s(Vinsert
p9106
I42
VSimpleName: pageIssues
p9107
tp9108
I2
s(Vinsert
p9109
I42
VSimpleName: bodyImageGetter
p9110
tp9111
I3
s(Vinsert
p9112
I42
VSimpleName: canWrite
p9113
tp9114
I1
s(Vinsert
p9115
I74
VParameterizedType: Subscriber<? super GistFile>
p9116
tp9117
I1
s(Vinsert
p9118
I42
VSimpleName: put
p9119
tp9120
I27
s(Vinsert
p9121
I42
VSimpleName: Button
p9122
tp9123
I3
s(Vinsert
p9124
I42
VSimpleName: selected
p9125
tp9126
I7
s(Vinsert
p9127
I42
VSimpleName: isSecure
p9128
tp9129
I3
s(Vinsert
p9130
I42
VSimpleName: RoboGuice
p9131
tp9132
I8
s(Vinsert
p9133
I42
VSimpleName: tv_pull_request_submission
p9134
tp9135
I1
s(Vinsert
p9136
I42
VSimpleName: label
p9137
tp9138
I9
s(Vinsert
p9139
I43
VSimpleType: Display
p9140
tp9141
I1
s(Vinsert
p9142
I42
VSimpleName: refreshItem
p9143
tp9144
I4
s(Vinsert
p9145
I42
VSimpleName: E
p9146
tp9147
I11
s(Vinsert
p9148
I42
VSimpleName: equalsIgnoreCase
p9149
tp9150
I1
s(Vinsert
p9151
I66
VTextElement: This can be called when the tabs changed but must be called after an
p9152
tp9153
I1
s(Vinsert
p9154
I42
VSimpleName: readParcelable
p9155
tp9156
I2
s(Vinsert
p9157
I42
VSimpleName: ListSeparator
p9158
tp9159
I2
s(Vinsert
p9160
I42
VSimpleName: hideSoftInput
p9161
tp9162
I1
s(Vinsert
p9163
I42
VSimpleName: addFirst
p9164
tp9165
I2
s(Vinsert
p9166
I43
VSimpleType: PageIterator.GitHubRequest
p9167
tp9168
I4
s(Vinsert
p9169
I42
VSimpleName: throwable
p9170
tp9171
I6
s(Vinsert
p9172
I42
VSimpleName: TestListAdapter
p9173
tp9174
I2
s(Vinsert
p9175
I42
VSimpleName: setContentView
p9176
tp9177
I15
s(Vinsert
p9178
I42
VSimpleName: PATTERN
p9179
tp9180
I5
s(Vinsert
p9181
I40
VQualifiedName: repo.language
p9182
tp9183
I1
s(Vinsert
p9184
I42
VSimpleName: FragmentStatePagerAdapter
p9185
tp9186
I1
s(Vinsert
p9187
I53
VThrowStatement
p9188
tp9189
I2
s(Vinsert
p9190
I42
VSimpleName: storeRepoVisit
p9191
tp9192
I1
s(Vinsert
p9193
I42
VSimpleName: putSerializable
p9194
tp9195
I10
s(Vinsert
p9196
I42
VSimpleName: issueBody
p9197
tp9198
I2
s(Vinsert
p9199
I42
VSimpleName: clearAnimation
p9200
tp9201
I1
s(Vinsert
p9202
I42
VSimpleName: getAccountsByType
p9203
tp9204
I3
s(Vinsert
p9205
I43
VSimpleType: Blob
p9206
tp9207
I2
s(Vinsert
p9208
I42
VSimpleName: loadingAvatar
p9209
tp9210
I2
s(Vinsert
p9211
I42
VSimpleName: skipBtn
p9212
tp9213
I1
s(Vinsert
p9214
I34
VNumberLiteral: 225
p9215
tp9216
I1
s(Vinsert
p9217
I42
VSimpleName: IssueReference
p9218
tp9219
I2
s(Vinsert
p9220
I42
VSimpleName: Blob
p9221
tp9222
I3
s(Vinsert
p9223
I42
VSimpleName: getTag
p9224
tp9225
I2
s(Vinsert
p9226
I42
VSimpleName: setOnMenuItemClickListener
p9227
tp9228
I1
s(Vinsert
p9229
I40
VQualifiedName: accounts.length
p9230
tp9231
I1
s(Vinsert
p9232
I42
VSimpleName: client
p9233
tp9234
I9
s(Vinsert
p9235
I42
VSimpleName: updateUIWithValidation
p9236
tp9237
I2
s(Vinsert
p9238
I42
VSimpleName: onPositive
p9239
tp9240
I1
s(Vinsert
p9241
I42
VSimpleName: contextScope
p9242
tp9243
I2
s(Vinsert
p9244
I42
VSimpleName: setRef
p9245
tp9246
I3
s(Vinsert
p9247
I42
VSimpleName: avatarView
p9248
tp9249
I7
s(Vinsert
p9250
I42
VSimpleName: getAccountsByTypeAndFeatures
p9251
tp9252
I1
s(Vinsert
p9253
I42
VSimpleName: setOwner
p9254
tp9255
I2
s(Vinsert
p9256
I37
VPostfixExpression: --
p9257
tp9258
I1
s(Vinsert
p9259
I45
VStringLiteral: "Pull Request "
p9260
tp9261
I1
s(Vinsert
p9262
I42
VSimpleName: paddingLeft
p9263
tp9264
I2
s(Vinsert
p9265
I42
VSimpleName: addFooterView
p9266
tp9267
I1
s(Vinsert
p9268
I42
VSimpleName: map
p9269
tp9270
I14
s(Vinsert
p9271
I42
VSimpleName: collaborators
p9272
tp9273
I1
s(Vinsert
p9274
I42
VSimpleName: BigInteger
p9275
tp9276
I1
s(Vinsert
p9277
I21
VExpressionStatement
p9278
tp9279
I974
s(Vinsert
p9280
I43
VSimpleType: HashSet
p9281
tp9282
I1
s(Vinsert
p9283
I66
VTextElement: Pass back button pressed event down to fragments
p9284
tp9285
I1
s(Vinsert
p9286
I26
VImportDeclaration
p9287
tp9288
I58
s(Vinsert
p9289
I42
VSimpleName: ref
p9290
tp9291
I17
s(Vinsert
p9292
I42
VSimpleName: AccountUtils
p9293
tp9294
I7
s(Vinsert
p9295
I42
VSimpleName: browserList
p9296
tp9297
I4
s(Vinsert
p9298
I43
VSimpleType: MenuInflater
p9299
tp9300
I3
s(Vinsert
p9301
I43
VSimpleType: IssueStore
p9302
tp9303
I2
s(Vinsert
p9304
I43
VSimpleType: RequestBody
p9305
tp9306
I1
s(Vinsert
p9307
I42
VSimpleName: getLogin
p9308
tp9309
I34
s(Vinsert
p9310
I42
VSimpleName: resolveInfo
p9311
tp9312
I2
s(Vinsert
p9313
I43
VSimpleType: CommitUrlMatcher
p9314
tp9315
I2
s(Vinsert
p9316
I42
VSimpleName: commentId
p9317
tp9318
I1
s(Vinsert
p9319
I42
VSimpleName: CommitUrlMatcher
p9320
tp9321
I2
s(Vinsert
p9322
I42
VSimpleName: IssueFilter
p9323
tp9324
I11
s.