(dp0
(Vinsert
p1
I42
VSimpleName: allNeg
p2
tp3
I5
s(Vinsert
p4
I42
VSimpleName: sqrt
p5
tp6
I4
s(Vinsert
p7
I40
VQualifiedName: io.realm.RealmObject
p8
tp9
I1
s(Vinsert
p10
I42
VSimpleName: setValueTypeface
p11
tp12
I9
s(Vinsert
p13
I42
VSimpleName: getFactor
p14
tp15
I1
s(Vinsert
p16
I42
VSimpleName: setBarWidth
p17
tp18
I3
s(Vinsert
p19
I42
VSimpleName: mHighlightLinePath
p20
tp21
I1
s(Vinsert
p22
I42
VSimpleName: MotionEvent
p23
tp24
I7
s(Vinsert
p25
I42
VSimpleName: onChartTranslate
p26
tp27
I1
s(Vinsert
p28
I45
VStringLiteral: "Unable to execute zoomAndCenterAnimated(...) on API level < 11"
p29
tp30
I1
s(Vinsert
p31
I42
VSimpleName: getBarWidth
p32
tp33
I1
s(Vinsert
p34
I40
VQualifiedName: R.id.animateX
p35
tp36
I5
s(Vinsert
p37
I43
VSimpleType: IBubbleDataSet
p38
tp39
I2
s(Vinsert
p40
I42
VSimpleName: disableDashedLine
p41
tp42
I2
s(Vinsert
p43
I66
VTextElement: API LEVEL 11 (Android 3.0.x) AND HIGHER.
p44
tp45
I1
s(Vinsert
p46
I42
VSimpleName: renderer
p47
tp48
I4
s(Vinsert
p49
I42
VSimpleName: disableFiltering
p50
tp51
I1
s(Vinsert
p52
I45
VStringLiteral: "sine.txt"
p53
tp54
I1
s(Vinsert
p55
I34
VNumberLiteral: 10f
p56
tp57
I8
s(Vinsert
p58
I45
VStringLiteral: " %"
p59
tp60
I1
s(Vinsert
p61
I43
VSimpleType: BarEntry
p62
tp63
I12
s(Vinsert
p64
I27
VInfixExpression: +
p65
tp66
I119
s(Vinsert
p67
I42
VSimpleName: isOffContentBottom
p68
tp69
I2
s(Vinsert
p70
I42
VSimpleName: path
p71
tp72
I4
s(Vinsert
p73
I42
VSimpleName: isHighlightPerDragEnabled
p74
tp75
I1
s(Vinsert
p76
I42
VSimpleName: posx
p77
tp78
I1
s(Vinsert
p79
I42
VSimpleName: MoveViewJob
p80
tp81
I4
s(Vinsert
p82
I42
VSimpleName: mLimitLines
p83
tp84
I7
s(Vinsert
p85
I42
VSimpleName: granularity
p86
tp87
I2
s(Vinsert
p88
I43
VSimpleType: Canvas
p89
tp90
I2
s(Vinsert
p91
I74
VParameterizedType: List<IBubbleDataSet>
p92
tp93
I2
s(Vinsert
p94
I42
VSimpleName: setOffsetRight
p95
tp96
I1
s(Vinsert
p97
I76
VWildcardType: ? extends Entry
p98
tp99
I1
s(Vinsert
p100
I42
VSimpleName: rgb
p101
tp102
I20
s(Vinsert
p103
I42
VSimpleName: println
p104
tp105
I1
s(Vinsert
p106
I40
VQualifiedName: Intent.ACTION_VIEW
p107
tp108
I2
s(Vinsert
p109
I42
VSimpleName: longBitsToDouble
p110
tp111
I1
s(Vinsert
p112
I42
VSimpleName: DisplayMetrics
p113
tp114
I1
s(Vinsert
p115
I42
VSimpleName: config
p116
tp117
I1
s(Vinsert
p118
I42
VSimpleName: makeMeasureSpec
p119
tp120
I2
s(Vinsert
p121
I83
VModifier: protected
p122
tp123
I31
s(Vinsert
p124
I42
VSimpleName: drawBorder
p125
tp126
I4
s(Vinsert
p127
I66
VTextElement: sets a typeface for the paint object of the y-legend
p128
tp129
I1
s(Vinsert
p130
I43
VSimpleType: RuntimeException
p131
tp132
I1
s(Vinsert
p133
I45
VStringLiteral: "size: "
p134
tp135
I1
s(Vinsert
p136
I40
VQualifiedName: com.github.mikephil.charting.components.YAxis.AxisDependency
p137
tp138
I1
s(Vinsert
p139
I66
VTextElement: Returns true if successful, false if not.
p140
tp141
I1
s(Vinsert
p142
I42
VSimpleName: getGroupSpace
p143
tp144
I6
s(Vinsert
p145
I42
VSimpleName: polyline2Width
p146
tp147
I1
s(Vinsert
p148
I42
VSimpleName: IllegalArgumentException
p149
tp150
I2
s(Vinsert
p151
I42
VSimpleName: contentLeft
p152
tp153
I11
s(Vinsert
p154
I42
VSimpleName: addUpdateListener
p155
tp156
I3
s(Vinsert
p157
I43
VSimpleType: IDataSet
p158
tp159
I6
s(Vinsert
p160
I42
VSimpleName: ePrev
p161
tp162
I1
s(Vinsert
p163
I42
VSimpleName: isDragEnabled
p164
tp165
I1
s(Vinsert
p166
I45
VStringLiteral: "value"
p167
tp168
I1
s(Vinsert
p169
I42
VSimpleName: maxYRange
p170
tp171
I2
s(Vinsert
p172
I42
VSimpleName: mYAxisRenderer
p173
tp174
I1
s(Vinsert
p175
I45
VStringLiteral: "OpenSans-Light.ttf"
p176
tp177
I2
s(Vinsert
p178
I42
VSimpleName: colorsForComputeLegend
p179
tp180
I2
s(Vinsert
p181
I42
VSimpleName: setHoleRadius
p182
tp183
I1
s(Vinsert
p184
I42
VSimpleName: calcAngle
p185
tp186
I2
s(Vinsert
p187
I34
VNumberLiteral: 12f
p188
tp189
I1
s(Vinsert
p190
I42
VSimpleName: IBarLineScatterCandleBubbleDataSet
p191
tp192
I3
s(Vinsert
p193
I42
VSimpleName: dataList
p194
tp195
I1
s(Vinsert
p196
I42
VSimpleName: offsetRight
p197
tp198
I3
s(Vinsert
p199
I42
VSimpleName: enableGridDashedLine
p200
tp201
I1
s(Vinsert
p202
I42
VSimpleName: mAxisRange
p203
tp204
I4
s(Vinsert
p205
I42
VSimpleName: onEntryMoved
p206
tp207
I1
s(Vinsert
p208
I42
VSimpleName: s
p209
tp210
I4
s(Vinsert
p211
I42
VSimpleName: setStrokeWidth
p212
tp213
I14
s(Vinsert
p214
I34
VNumberLiteral: 0.5f
p215
tp216
I12
s(Vinsert
p217
I42
VSimpleName: formatNumber
p218
tp219
I3
s(Vinsert
p220
I42
VSimpleName: mYLabelPaint
p221
tp222
I3
s(Vinsert
p223
I42
VSimpleName: PointF
p224
tp225
I16
s(Vinsert
p226
I42
VSimpleName: set
p227
tp228
I193
s(Vinsert
p229
I42
VSimpleName: offset
p230
tp231
I6
s(Vinsert
p232
I40
VQualifiedName: LegendPosition.BELOW_CHART_RIGHT
p233
tp234
I2
s(Vinsert
p235
I42
VSimpleName: foundObjects
p236
tp237
I1
s(Vinsert
p238
I42
VSimpleName: ScatterShape
p239
tp240
I1
s(Vinsert
p241
I42
VSimpleName: xvals
p242
tp243
I1
s(Vinsert
p244
I43
VSimpleType: Collection
p245
tp246
I1
s(Vinsert
p247
I42
VSimpleName: d
p248
tp249
I17
s(Vinsert
p250
I42
VSimpleName: remove
p251
tp252
I4
s(Vinsert
p253
I42
VSimpleName: vals
p254
tp255
I5
s(Vinsert
p256
I42
VSimpleName: mAxis
p257
tp258
I4
s(Vinsert
p259
I42
VSimpleName: mYMin
p260
tp261
I15
s(Vinsert
p262
I42
VSimpleName: mAxisLineWidth
p263
tp264
I1
s(Vinsert
p265
I42
VSimpleName: setMessage
p266
tp267
I2
s(Vinsert
p268
I42
VSimpleName: getNegativeSum
p269
tp270
I4
s(Vinsert
p271
I42
VSimpleName: getYLabels
p272
tp273
I8
s(Vinsert
p274
I42
VSimpleName: setYRange
p275
tp276
I2
s(Vinsert
p277
I43
VSimpleType: AxisDependency
p278
tp279
I3
s(Vinsert
p280
I42
VSimpleName: setMinMaxScaleY
p281
tp282
I1
s(Vinsert
p283
I42
VSimpleName: vCount
p284
tp285
I1
s(Vinsert
p286
I42
VSimpleName: setVisibility
p287
tp288
I2
s(Vinsert
p289
I42
VSimpleName: tvContent
p290
tp291
I5
s(Vinsert
p292
I42
VSimpleName: h
p293
tp294
I17
s(Vinsert
p295
I43
VSimpleType: LegendEntry
p296
tp297
I2
s(Vinsert
p298
I42
VSimpleName: mLeftAxisMax
p299
tp300
I1
s(Vinsert
p301
I42
VSimpleName: split
p302
tp303
I2
s(Vinsert
p304
I42
VSimpleName: Math
p305
tp306
I100
s(Vinsert
p307
I42
VSimpleName: setWebLineWidthInner
p308
tp309
I1
s(Vinsert
p310
I43
VSimpleType: RealmBarDataSet
p311
tp312
I2
s(Vinsert
p313
I42
VSimpleName: renderLimitLines
p314
tp315
I1
s(Vinsert
p316
I34
VNumberLiteral: 1.5f
p317
tp318
I2
s(Vinsert
p319
I42
VSimpleName: isNormalizeSizeEnabled
p320
tp321
I1
s(Vinsert
p322
I42
VSimpleName: getPositiveSum
p323
tp324
I1
s(Vinsert
p325
I42
VSimpleName: value
p326
tp327
I31
s(Vinsert
p328
I42
VSimpleName: mCircleColors
p329
tp330
I5
s(Vinsert
p331
I42
VSimpleName: zoomOriginX
p332
tp333
I3
s(Vinsert
p334
I42
VSimpleName: dragTriggerDistance
p335
tp336
I2
s(Vinsert
p337
I42
VSimpleName: mYValueSum
p338
tp339
I2
s(Vinsert
p340
I42
VSimpleName: setBackgroundColor
p341
tp342
I4
s(Vinsert
p343
I42
VSimpleName: measure
p344
tp345
I1
s(Vinsert
p346
I42
VSimpleName: uptimeMillis
p347
tp348
I1
s(Vinsert
p349
I42
VSimpleName: shouldDrawValues
p350
tp351
I1
s(Vinsert
p352
I42
VSimpleName: Path
p353
tp354
I11
s(Vinsert
p355
I42
VSimpleName: mScaleY
p356
tp357
I1
s(Vinsert
p358
I42
VSimpleName: setDragEnabled
p359
tp360
I6
s(Vinsert
p361
I42
VSimpleName: setTypeAndTolerance
p362
tp363
I1
s(Vinsert
p364
I42
VSimpleName: holeRadius
p365
tp366
I10
s(Vinsert
p367
I40
VQualifiedName: r.right
p368
tp369
I2
s(Vinsert
p370
I40
VQualifiedName: holder.tvNew
p371
tp372
I2
s(Vinsert
p373
I42
VSimpleName: id1
p374
tp375
I1
s(Vinsert
p376
I79
VSingleMemberAnnotation
p377
tp378
I1
s(Vinsert
p379
I42
VSimpleName: removeJob
p380
tp381
I1
s(Vinsert
p382
I42
VSimpleName: h1
p383
tp384
I2
s(Vinsert
p385
I11
VCastExpression
p386
tp387
I139
s(Vinsert
p388
I42
VSimpleName: setDrawingEnabled
p389
tp390
I1
s(Vinsert
p391
I40
VQualifiedName: point.x
p392
tp393
I2
s(Vinsert
p394
I42
VSimpleName: onEntryAdded
p395
tp396
I1
s(Vinsert
p397
I42
VSimpleName: Bitmap
p398
tp399
I3
s(Vinsert
p400
I42
VSimpleName: S
p401
tp402
I3
s(Vinsert
p403
I42
VSimpleName: mListener
p404
tp405
I8
s(Vinsert
p406
I40
VQualifiedName: Rounding.UP
p407
tp408
I1
s(Vinsert
p409
I42
VSimpleName: mValueTextSize
p410
tp411
I1
s(Vinsert
p412
I42
VSimpleName: animation
p413
tp414
I1
s(Vinsert
p415
I42
VSimpleName: removeLimitLine
p416
tp417
I1
s(Vinsert
p418
I42
VSimpleName: setPadding
p419
tp420
I1
s(Vinsert
p421
I40
VQualifiedName: LegendPosition.LEFT_OF_CHART_CENTER
p422
tp423
I2
s(Vinsert
p424
I42
VSimpleName: getCustomScatterShape
p425
tp426
I1
s(Vinsert
p427
I43
VSimpleType: RealmResults
p428
tp429
I19
s(Vinsert
p430
I42
VSimpleName: arrow
p431
tp432
I2
s(Vinsert
p433
I74
VParameterizedType: RealmResults<RealmDemoData>
p434
tp435
I19
s(Vinsert
p436
I42
VSimpleName: highlight
p437
tp438
I15
s(Vinsert
p439
I42
VSimpleName: setDescription
p440
tp441
I5
s(Vinsert
p442
I42
VSimpleName: IPieDataSet
p443
tp444
I2
s(Vinsert
p445
I42
VSimpleName: labelsForComputeLegend
p446
tp447
I1
s(Vinsert
p448
I42
VSimpleName: mMinX
p449
tp450
I3
s(Vinsert
p451
I42
VSimpleName: getFillLinePosition
p452
tp453
I1
s(Vinsert
p454
I18
VContinueStatement
p455
tp456
I10
s(Vinsert
p457
I42
VSimpleName: convertStrings
p458
tp459
I1
s(Vinsert
p460
I34
VNumberLiteral: 120
p461
tp462
I1
s(Vinsert
p463
I42
VSimpleName: mMatrixTouch
p464
tp465
I5
s(Vinsert
p466
I42
VSimpleName: setOffsetLeft
p467
tp468
I1
s(Vinsert
p469
I42
VSimpleName: rectValueToPixelHorizontal
p470
tp471
I1
s(Vinsert
p472
I42
VSimpleName: notifyDataChanged
p473
tp474
I2
s(Vinsert
p475
I34
VNumberLiteral: 16f
p476
tp477
I1
s(Vinsert
p478
I45
VStringLiteral: "scale-X: "
p479
tp480
I1
s(Vinsert
p481
I42
VSimpleName: calcTextWidth
p482
tp483
I7
s(Vinsert
p484
I42
VSimpleName: ILineDataSet
p485
tp486
I3
s(Vinsert
p487
I61
VWhileStatement
p488
tp489
I5
s(Vinsert
p490
I42
VSimpleName: ContentItem
p491
tp492
I2
s(Vinsert
p493
I42
VSimpleName: compare
p494
tp495
I1
s(Vinsert
p496
I74
VParameterizedType: WeakReference<Bitmap>
p497
tp498
I4
s(Vinsert
p499
I34
VNumberLiteral: 85
p500
tp501
I1
s(Vinsert
p502
I42
VSimpleName: getParent
p503
tp504
I1
s(Vinsert
p505
I42
VSimpleName: YAxis
p506
tp507
I6
s(Vinsert
p508
I42
VSimpleName: oldDist
p509
tp510
I1
s(Vinsert
p511
I40
VQualifiedName: mSize.height
p512
tp513
I1
s(Vinsert
p514
I40
VQualifiedName: mXLabels.mLabelHeight
p515
tp516
I1
s(Vinsert
p517
I34
VNumberLiteral: 0.0d
p518
tp519
I1
s(Vinsert
p520
I42
VSimpleName: xOrigin
p521
tp522
I3
s(Vinsert
p523
I42
VSimpleName: mGridClippingRect
p524
tp525
I6
s(Vinsert
p526
I42
VSimpleName: saveToPath
p527
tp528
I2
s(Vinsert
p529
I42
VSimpleName: zeroLinePath
p530
tp531
I5
s(Vinsert
p532
I34
VNumberLiteral: 53
p533
tp534
I1
s(Vinsert
p535
I42
VSimpleName: getMaxScaleY
p536
tp537
I1
s(Vinsert
p538
I42
VSimpleName: setTextSize
p539
tp540
I13
s(Vinsert
p541
I42
VSimpleName: getHighlightLineWidth
p542
tp543
I4
s(Vinsert
p544
I42
VSimpleName: yPos
p545
tp546
I2
s(Vinsert
p547
I42
VSimpleName: interval
p548
tp549
I7
s(Vinsert
p550
I42
VSimpleName: getAxisLeft
p551
tp552
I11
s(Vinsert
p553
I42
VSimpleName: mDrawZeroLinePath
p554
tp555
I1
s(Vinsert
p556
I74
VParameterizedType: ArrayList<ScatterDataSet>
p557
tp558
I1
s(Vinsert
p559
I42
VSimpleName: closeField
p560
tp561
I1
s(Vinsert
p562
I5
VArrayType: BorderStyle[]
p563
tp564
I1
s(Vinsert
p565
I42
VSimpleName: getTextSize
p566
tp567
I3
s(Vinsert
p568
I42
VSimpleName: distanceX
p569
tp570
I1
s(Vinsert
p571
I42
VSimpleName: currentTime
p572
tp573
I1
s(Vinsert
p574
I42
VSimpleName: instances
p575
tp576
I1
s(Vinsert
p577
I40
VQualifiedName: result.xOrigin
p578
tp579
I1
s(Vinsert
p580
I42
VSimpleName: mOffsetBottom
p581
tp582
I3
s(Vinsert
p583
I42
VSimpleName: xValSpaceChars
p584
tp585
I2
s(Vinsert
p586
I42
VSimpleName: getValueCount
p587
tp588
I1
s(Vinsert
p589
I43
VSimpleType: HorizontalBarChart
p590
tp591
I1
s(Vinsert
p592
I42
VSimpleName: mCandleRenderer
p593
tp594
I4
s(Vinsert
p595
I42
VSimpleName: mShadowPaint
p596
tp597
I2
s(Vinsert
p598
I42
VSimpleName: setAxisLineWidth
p599
tp600
I1
s(Vinsert
p601
I42
VSimpleName: itemcount
p602
tp603
I1
s(Vinsert
p604
I42
VSimpleName: steps
p605
tp606
I2
s(Vinsert
p607
I42
VSimpleName: setTitle
p608
tp609
I2
s(Vinsert
p610
I42
VSimpleName: BarBuffer
p611
tp612
I1
s(Vinsert
p613
I40
VQualifiedName: p2.y
p614
tp615
I1
s(Vinsert
p616
I42
VSimpleName: barChart
p617
tp618
I1
s(Vinsert
p619
I42
VSimpleName: a
p620
tp621
I2
s(Vinsert
p622
I42
VSimpleName: getYValueByTouchPoint
p623
tp624
I1
s(Vinsert
p625
I42
VSimpleName: MPPointF
p626
tp627
I27
s(Vinsert
p628
I43
VSimpleType: ArrayList
p629
tp630
I88
s(Vinsert
p631
I40
VQualifiedName: mXLabels.mYAxisLabelModulus
p632
tp633
I1
s(Vinsert
p634
I42
VSimpleName: contentRight
p635
tp636
I4
s(Vinsert
p637
I42
VSimpleName: labelWidth
p638
tp639
I1
s(Vinsert
p640
I42
VSimpleName: getX
p641
tp642
I21
s(Vinsert
p643
I42
VSimpleName: high
p644
tp645
I32
s(Vinsert
p646
I42
VSimpleName: loadEntriesFromAssets
p647
tp648
I1
s(Vinsert
p649
I42
VSimpleName: setDefaultConfiguration
p650
tp651
I1
s(Vinsert
p652
I39
VPrimitiveType: long
p653
tp654
I6
s(Vinsert
p655
I43
VSimpleType: FileOutputStream
p656
tp657
I2
s(Vinsert
p658
I42
VSimpleName: setFormatter
p659
tp660
I1
s(Vinsert
p661
I34
VNumberLiteral: 8
p662
tp663
I1
s(Vinsert
p664
I42
VSimpleName: mXMin
p665
tp666
I14
s(Vinsert
p667
I42
VSimpleName: time
p668
tp669
I1
s(Vinsert
p670
I40
VQualifiedName: mTouchStartPoint.x
p671
tp672
I3
s(Vinsert
p673
I34
VNumberLiteral: 50f
p674
tp675
I1
s(Vinsert
p676
I40
VQualifiedName: mDrawPaints.length
p677
tp678
I1
s(Vinsert
p679
I74
VParameterizedType: RealmBarDataSet<RealmDemoData>
p680
tp681
I2
s(Vinsert
p682
I42
VSimpleName: onChartDoubleTapped
p683
tp684
I1
s(Vinsert
p685
I42
VSimpleName: getLimitLine
p686
tp687
I1
s(Vinsert
p688
I42
VSimpleName: isEnabled
p689
tp690
I21
s(Vinsert
p691
I42
VSimpleName: isDrawLabelsEnabled
p692
tp693
I6
s(Vinsert
p694
I42
VSimpleName: mSeekBarY
p695
tp696
I1
s(Vinsert
p697
I76
VWildcardType: ? extends DataSet
p698
tp699
I1
s(Vinsert
p700
I42
VSimpleName: endValue
p701
tp702
I6
s(Vinsert
p703
I43
VSimpleType: XLabels
p704
tp705
I3
s(Vinsert
p706
I34
VNumberLiteral: 4.5f
p707
tp708
I1
s(Vinsert
p709
I42
VSimpleName: tri
p710
tp711
I3
s(Vinsert
p712
I42
VSimpleName: setOffsetTop
p713
tp714
I1
s(Vinsert
p715
I40
VQualifiedName: DataSet.Rounding.DOWN
p716
tp717
I3
s(Vinsert
p718
I42
VSimpleName: chart
p719
tp720
I15
s(Vinsert
p721
I43
VSimpleType: MenuItem
p722
tp723
I2
s(Vinsert
p724
I42
VSimpleName: moveTo
p725
tp726
I8
s(Vinsert
p727
I42
VSimpleName: convertView
p728
tp729
I10
s(Vinsert
p730
I14
VClassInstanceCreation
p731
tp732
I156
s(Vinsert
p733
I42
VSimpleName: getFormattedLabel
p734
tp735
I1
s(Vinsert
p736
I42
VSimpleName: getPool
p737
tp738
I2
s(Vinsert
p739
I66
VTextElement: Returns the body size (difference between open and close).
p740
tp741
I1
s(Vinsert
p742
I74
VParameterizedType: ArrayList<PieDataSet>
p743
tp744
I1
s(Vinsert
p745
I42
VSimpleName: xmax
p746
tp747
I1
s(Vinsert
p748
I43
VSimpleType: Matrix
p749
tp750
I30
s(Vinsert
p751
I42
VSimpleName: set2
p752
tp753
I4
s(Vinsert
p754
I42
VSimpleName: buffer
p755
tp756
I10
s(Vinsert
p757
I42
VSimpleName: mDataNotSet
p758
tp759
I1
s(Vinsert
p760
I42
VSimpleName: removed
p761
tp762
I3
s(Vinsert
p763
I42
VSimpleName: getCircleSize
p764
tp765
I1
s(Vinsert
p766
I42
VSimpleName: getTrans
p767
tp768
I1
s(Vinsert
p769
I42
VSimpleName: labelRotationAngleDegrees
p770
tp771
I1
s(Vinsert
p772
I42
VSimpleName: xoffset
p773
tp774
I2
s(Vinsert
p775
I40
VQualifiedName: R.id.actionRemoveDataSet
p776
tp777
I1
s(Vinsert
p778
I65
VTagElement: @param
p779
tp780
I60
s(Vinsert
p781
I42
VSimpleName: zoom
p782
tp783
I2
s(Vinsert
p784
I42
VSimpleName: touchDistanceToCenter
p785
tp786
I1
s(Vinsert
p787
I42
VSimpleName: isDrawFilledEnabled
p788
tp789
I5
s(Vinsert
p790
I42
VSimpleName: postScale
p791
tp792
I1
s(Vinsert
p793
I27
VInfixExpression: >=
p794
tp795
I19
s(Vinsert
p796
I42
VSimpleName: colors
p797
tp798
I19
s(Vinsert
p799
I42
VSimpleName: makePretty
p800
tp801
I1
s(Vinsert
p802
I42
VSimpleName: boundingRect
p803
tp804
I2
s(Vinsert
p805
I43
VSimpleType: MotionEvent
p806
tp807
I7
s(Vinsert
p808
I42
VSimpleName: e2
p809
tp810
I2
s(Vinsert
p811
I40
VQualifiedName: Paint.FontMetrics
p812
tp813
I3
s(Vinsert
p814
I42
VSimpleName: barSpaceHalf
p815
tp816
I1
s(Vinsert
p817
I42
VSimpleName: yValueSum
p818
tp819
I2
s(Vinsert
p820
I42
VSimpleName: index
p821
tp822
I27
s(Vinsert
p823
I42
VSimpleName: List
p824
tp825
I26
s(Vinsert
p826
I42
VSimpleName: BufferedReader
p827
tp828
I2
s(Vinsert
p829
I42
VSimpleName: determineYear
p830
tp831
I1
s(Vinsert
p832
I42
VSimpleName: CENTER
p833
tp834
I1
s(Vinsert
p835
I45
VStringLiteral: "."
p836
tp837
I1
s(Vinsert
p838
I42
VSimpleName: mDrawPaints
p839
tp840
I1
s(Vinsert
p841
I42
VSimpleName: floatToIntBits
p842
tp843
I1
s(Vinsert
p844
I40
VQualifiedName: p.y
p845
tp846
I1
s(Vinsert
p847
I42
VSimpleName: addOval
p848
tp849
I1
s(Vinsert
p850
I42
VSimpleName: setGranularityEnabled
p851
tp852
I2
s(Vinsert
p853
I39
VPrimitiveType: int
p854
tp855
I209
s(Vinsert
p856
I42
VSimpleName: getMenuInflater
p857
tp858
I3
s(Vinsert
p859
I42
VSimpleName: setWebColor
p860
tp861
I1
s(Vinsert
p862
I42
VSimpleName: setUsePercentValues
p863
tp864
I2
s(Vinsert
p865
I42
VSimpleName: getXAxisInset
p866
tp867
I1
s(Vinsert
p868
I42
VSimpleName: mZeroLineWidth
p869
tp870
I1
s(Vinsert
p871
I42
VSimpleName: newInstance
p872
tp873
I2
s(Vinsert
p874
I42
VSimpleName: spaceForBar
p875
tp876
I2
s(Vinsert
p877
I42
VSimpleName: replace
p878
tp879
I1
s(Vinsert
p880
I43
VSimpleType: Paint.Style
p881
tp882
I1
s(Vinsert
p883
I43
VSimpleType: DynamicRealmObject
p884
tp885
I31
s(Vinsert
p886
I42
VSimpleName: convertIntegers
p887
tp888
I2
s(Vinsert
p889
I42
VSimpleName: t
p890
tp891
I4
s(Vinsert
p892
I42
VSimpleName: setValueFormatter
p893
tp894
I4
s(Vinsert
p895
I42
VSimpleName: toEntry
p896
tp897
I2
s(Vinsert
p898
I42
VSimpleName: getPointerId
p899
tp900
I1
s(Vinsert
p901
I42
VSimpleName: newangle
p902
tp903
I1
s(Vinsert
p904
I42
VSimpleName: getXChartMin
p905
tp906
I4
s(Vinsert
p907
I42
VSimpleName: minSpacedRadius
p908
tp909
I3
s(Vinsert
p910
I42
VSimpleName: mTransparentCirclePaint
p911
tp912
I2
s(Vinsert
p913
I42
VSimpleName: mMarkerPosX
p914
tp915
I1
s(Vinsert
p916
I40
VQualifiedName: mXAxis.mEntries
p917
tp918
I2
s(Vinsert
p919
I27
VInfixExpression: ^
p920
tp921
I1
s(Vinsert
p922
I42
VSimpleName: v
p923
tp924
I10
s(Vinsert
p925
I40
VQualifiedName: e.mXIndex
p926
tp927
I1
s(Vinsert
p928
I42
VSimpleName: finishNewDrawingEntry
p929
tp930
I1
s(Vinsert
p931
I66
VTextElement:  an easing function to be used on the animation phase
p932
tp933
I1
s(Vinsert
p934
I42
VSimpleName: sizeOfFirst
p935
tp936
I1
s(Vinsert
p937
I42
VSimpleName: refresh
p938
tp939
I4
s(Vinsert
p940
I42
VSimpleName: equalsIgnoreCase
p941
tp942
I2
s(Vinsert
p943
I42
VSimpleName: entryTo
p944
tp945
I4
s(Vinsert
p946
I40
VQualifiedName: com.github.mikephil.charting.utils.XLabels.XLabelPosition
p947
tp948
I1
s(Vinsert
p949
I29
VJavadoc
p950
tp951
I24
s(Vinsert
p952
I42
VSimpleName: topSpaceLeft
p953
tp954
I1
s(Vinsert
p955
I42
VSimpleName: fixedValues
p956
tp957
I6
s(Vinsert
p958
I42
VSimpleName: next
p959
tp960
I1
s(Vinsert
p961
I74
VParameterizedType: ArrayList<BubbleEntry>
p962
tp963
I1
s(Vinsert
p964
I45
VStringLiteral: "Bar 1"
p965
tp966
I1
s(Vinsert
p967
I42
VSimpleName: setEnabled
p968
tp969
I43
s(Vinsert
p970
I43
VSimpleType: TextView
p971
tp972
I2
s(Vinsert
p973
I34
VNumberLiteral: 1
p974
tp975
I68
s(Vinsert
p976
I42
VSimpleName: score4
p977
tp978
I1
s(Vinsert
p979
I66
VTextElement:  the entry count of the dataset with the most entries
p980
tp981
I1
s(Vinsert
p982
I76
VWildcardType: ? extends BarLineScatterCandleRadarDataSet<? extends Entry>
p983
tp984
I1
s(Vinsert
p985
I42
VSimpleName: velocityX
p986
tp987
I2
s(Vinsert
p988
I40
VQualifiedName: R.id.button5
p989
tp990
I1
s(Vinsert
p991
I42
VSimpleName: setXOffset
p992
tp993
I3
s(Vinsert
p994
I42
VSimpleName: mDataSets
p995
tp996
I31
s(Vinsert
p997
I42
VSimpleName: setHighlightLineWidth
p998
tp999
I2
s(Vinsert
p1000
I42
VSimpleName: setReplenishPercentage
p1001
tp1002
I3
s(Vinsert
p1003
I42
VSimpleName: lowX
p1004
tp1005
I1
s(Vinsert
p1006
I43
VSimpleType: DataRenderer
p1007
tp1008
I1
s(Vinsert
p1009
I42
VSimpleName: getHighlightByTouchPoint
p1010
tp1011
I2
s(Vinsert
p1012
I42
VSimpleName: setCircleHoleRadius
p1013
tp1014
I3
s(Vinsert
p1015
I42
VSimpleName: getAxisMaxValue
p1016
tp1017
I6
s(Vinsert
p1018
I42
VSimpleName: o
p1019
tp1020
I3
s(Vinsert
p1021
I42
VSimpleName: where
p1022
tp1023
I16
s(Vinsert
p1024
I42
VSimpleName: y2
p1025
tp1026
I2
s(Vinsert
p1027
I45
VStringLiteral: "Pizza"
p1028
tp1029
I1
s(Vinsert
p1030
I5
VArrayType: Highlight[]
p1031
tp1032
I3
s(Vinsert
p1033
I74
VParameterizedType: BarLineScatterCandleRadarDataSet<? extends Entry>
p1034
tp1035
I1
s(Vinsert
p1036
I42
VSimpleName: setTransparentCircleAlpha
p1037
tp1038
I1
s(Vinsert
p1039
I42
VSimpleName: getMatrixTouch
p1040
tp1041
I2
s(Vinsert
p1042
I39
VPrimitiveType: float
p1043
tp1044
I337
s(Vinsert
p1045
I42
VSimpleName: setAxisMinValue
p1046
tp1047
I16
s(Vinsert
p1048
I66
VTextElement: that are drawn inside
p1049
tp1050
I1
s(Vinsert
p1051
I42
VSimpleName: getPosition
p1052
tp1053
I26
s(Vinsert
p1054
I42
VSimpleName: setMarkerView
p1055
tp1056
I3
s(Vinsert
p1057
I42
VSimpleName: getWidth
p1058
tp1059
I3
s(Vinsert
p1060
I42
VSimpleName: addColorsForDataSets
p1061
tp1062
I1
s(Vinsert
p1063
I42
VSimpleName: dialog
p1064
tp1065
I2
s(Vinsert
p1066
I42
VSimpleName: formattedLabel
p1067
tp1068
I1
s(Vinsert
p1069
I33
VNullLiteral
p1070
tp1071
I131
s(Vinsert
p1072
I42
VSimpleName: getAllData
p1073
tp1074
I2
s(Vinsert
p1075
I42
VSimpleName: stackIndex
p1076
tp1077
I1
s(Vinsert
p1078
I42
VSimpleName: setCustomViewResource
p1079
tp1080
I1
s(Vinsert
p1081
I42
VSimpleName: setSpaceBottom
p1082
tp1083
I1
s(Vinsert
p1084
I42
VSimpleName: getMinimumDistance
p1085
tp1086
I1
s(Vinsert
p1087
I43
VSimpleType: CandleEntry
p1088
tp1089
I10
s(Vinsert
p1090
I42
VSimpleName: position
p1091
tp1092
I15
s(Vinsert
p1093
I42
VSimpleName: getNumericValue
p1094
tp1095
I1
s(Vinsert
p1096
I42
VSimpleName: setDataIndex
p1097
tp1098
I2
s(Vinsert
p1099
I42
VSimpleName: getLineData
p1100
tp1101
I3
s(Vinsert
p1102
I43
VSimpleType: InputStreamReader
p1103
tp1104
I2
s(Vinsert
p1105
I42
VSimpleName: setYLabelCount
p1106
tp1107
I2
s(Vinsert
p1108
I43
VSimpleType: Double
p1109
tp1110
I3
s(Vinsert
p1111
I43
VSimpleType: Drawable
p1112
tp1113
I4
s(Vinsert
p1114
I40
VQualifiedName: c.isNew
p1115
tp1116
I1
s(Vinsert
p1117
I42
VSimpleName: Series
p1118
tp1119
I8
s(Vinsert
p1120
I42
VSimpleName: d2
p1121
tp1122
I3
s(Vinsert
p1123
I27
VInfixExpression: >
p1124
tp1125
I50
s(Vinsert
p1126
I42
VSimpleName: V
p1127
tp1128
I1
s(Vinsert
p1129
I42
VSimpleName: isScaleYEnabled
p1130
tp1131
I3
s(Vinsert
p1132
I42
VSimpleName: getXMin
p1133
tp1134
I6
s(Vinsert
p1135
I42
VSimpleName: yVals1
p1136
tp1137
I1
s(Vinsert
p1138
I42
VSimpleName: scatterData
p1139
tp1140
I1
s(Vinsert
p1141
I42
VSimpleName: angle
p1142
tp1143
I5
s(Vinsert
p1144
I42
VSimpleName: getChartWidth
p1145
tp1146
I9
s(Vinsert
p1147
I42
VSimpleName: getFormSize
p1148
tp1149
I1
s(Vinsert
p1150
I74
VParameterizedType: ArrayList<T>
p1151
tp1152
I3
s(Vinsert
p1153
I66
VTextElement: returns the value displayed at the touched position of the chart
p1154
tp1155
I1
s(Vinsert
p1156
I42
VSimpleName: posX
p1157
tp1158
I10
s(Vinsert
p1159
I40
VQualifiedName: LineDataSet.Mode.CUBIC_BEZIER
p1160
tp1161
I1
s(Vinsert
p1162
I42
VSimpleName: setOffsetBottom
p1163
tp1164
I3
s(Vinsert
p1165
I42
VSimpleName: drawDataSet
p1166
tp1167
I1
s(Vinsert
p1168
I42
VSimpleName: ds2
p1169
tp1170
I1
s(Vinsert
p1171
I43
VSimpleType: ViewHolder
p1172
tp1173
I4
s(Vinsert
p1174
I40
VQualifiedName: AxisDependency.LEFT
p1175
tp1176
I5
s(Vinsert
p1177
I42
VSimpleName: scaleX
p1178
tp1179
I8
s(Vinsert
p1180
I42
VSimpleName: to
p1181
tp1182
I11
s(Vinsert
p1183
I42
VSimpleName: mShadowWidth
p1184
tp1185
I2
s(Vinsert
p1186
I42
VSimpleName: setAlpha
p1187
tp1188
I3
s(Vinsert
p1189
I42
VSimpleName: btn1
p1190
tp1191
I1
s(Vinsert
p1192
I43
VSimpleType: ContentItem
p1193
tp1194
I1
s(Vinsert
p1195
I42
VSimpleName: mNoDataTextDescription
p1196
tp1197
I2
s(Vinsert
p1198
I40
VQualifiedName: mCircleBox.bottom
p1199
tp1200
I1
s(Vinsert
p1201
I42
VSimpleName: Menu
p1202
tp1203
I3
s(Vinsert
p1204
I66
VTextElement: .
p1205
tp1206
I2
s(Vinsert
p1207
I42
VSimpleName: legend
p1208
tp1209
I3
s(Vinsert
p1210
I42
VSimpleName: indexTo
p1211
tp1212
I1
s(Vinsert
p1213
I43
VSimpleType: YAxis.AxisDependency
p1214
tp1215
I1
s(Vinsert
p1216
I42
VSimpleName: getPoolCapacity
p1217
tp1218
I1
s(Vinsert
p1219
I40
VQualifiedName: pointF.x
p1220
tp1221
I1
s(Vinsert
p1222
I40
VQualifiedName: com.github.mikephil.charting.utils.Utils
p1223
tp1224
I1
s(Vinsert
p1225
I83
VModifier: abstract
p1226
tp1227
I1
s(Vinsert
p1228
I66
VTextElement: Returns a recyclable PointD instance
p1229
tp1230
I1
s(Vinsert
p1231
I42
VSimpleName: mColors
p1232
tp1233
I5
s(Vinsert
p1234
I42
VSimpleName: getSkipWebLineCount
p1235
tp1236
I1
s(Vinsert
p1237
I42
VSimpleName: xPositionField
p1238
tp1239
I1
s(Vinsert
p1240
I40
VQualifiedName: com.xxmassdeveloper.mpchartexample.custom.RadarMarkerView
p1241
tp1242
I1
s(Vinsert
p1243
I74
VParameterizedType: ArrayList<CandleDataSet>
p1244
tp1245
I1
s(Vinsert
p1246
I2
VArrayAccess
p1247
tp1248
I92
s(Vinsert
p1249
I66
VTextElement: in dp.
p1250
tp1251
I1
s(Vinsert
p1252
I42
VSimpleName: mAxisPaint
p1253
tp1254
I3
s(Vinsert
p1255
I42
VSimpleName: RealmDemoData
p1256
tp1257
I35
s(Vinsert
p1258
I42
VSimpleName: drawingEnabled
p1259
tp1260
I1
s(Vinsert
p1261
I42
VSimpleName: yOffset
p1262
tp1263
I6
s(Vinsert
p1264
I42
VSimpleName: mapRect
p1265
tp1266
I4
s(Vinsert
p1267
I49
VSwitchCase
p1268
tp1269
I44
s(Vinsert
p1270
I42
VSimpleName: commitTransaction
p1271
tp1272
I3
s(Vinsert
p1273
I42
VSimpleName: allPos
p1274
tp1275
I4
s(Vinsert
p1276
I42
VSimpleName: offsetLeft
p1277
tp1278
I5
s(Vinsert
p1279
I42
VSimpleName: setTextAlign
p1280
tp1281
I12
s(Vinsert
p1282
I42
VSimpleName: setDrawCubic
p1283
tp1284
I2
s(Vinsert
p1285
I42
VSimpleName: absoluteAngles
p1286
tp1287
I2
s(Vinsert
p1288
I42
VSimpleName: Nullable
p1289
tp1290
I1
s(Vinsert
p1291
I42
VSimpleName: toXVals
p1292
tp1293
I7
s(Vinsert
p1294
I43
VSimpleType: Entry
p1295
tp1296
I64
s(Vinsert
p1297
I40
VQualifiedName: result.yOrigin
p1298
tp1299
I1
s(Vinsert
p1300
I42
VSimpleName: outputPoint
p1301
tp1302
I3
s(Vinsert
p1303
I42
VSimpleName: mimeType
p1304
tp1305
I1
s(Vinsert
p1306
I42
VSimpleName: BarData
p1307
tp1308
I6
s(Vinsert
p1309
I42
VSimpleName: mRightAxisTransformer
p1310
tp1311
I2
s(Vinsert
p1312
I42
VSimpleName: ScatterChartRenderer
p1313
tp1314
I1
s(Vinsert
p1315
I42
VSimpleName: getSelectionShift
p1316
tp1317
I1
s(Vinsert
p1318
I42
VSimpleName: isValueLineVariableLength
p1319
tp1320
I1
s(Vinsert
p1321
I42
VSimpleName: translateX
p1322
tp1323
I1
s(Vinsert
p1324
I42
VSimpleName: isAvoidFirstLastClippingEnabled
p1325
tp1326
I1
s(Vinsert
p1327
I42
VSimpleName: valueLineLength2
p1328
tp1329
I1
s(Vinsert
p1330
I42
VSimpleName: getLabelCount
p1331
tp1332
I1
s(Vinsert
p1333
I42
VSimpleName: getType
p1334
tp1335
I1
s(Vinsert
p1336
I40
VQualifiedName: Color.DKGRAY
p1337
tp1338
I4
s(Vinsert
p1339
I66
VTextElement: the tolerance
p1340
tp1341
I2
s(Vinsert
p1342
I42
VSimpleName: getPhaseY
p1343
tp1344
I14
s(Vinsert
p1345
I45
VStringLiteral: "Can't select by touch. No data set."
p1346
tp1347
I2
s(Vinsert
p1348
I43
VSimpleType: BubbleDataSet
p1349
tp1350
I5
s(Vinsert
p1351
I42
VSimpleName: intBitsToFloat
p1352
tp1353
I1
s(Vinsert
p1354
I42
VSimpleName: year
p1355
tp1356
I2
s(Vinsert
p1357
I40
VQualifiedName: R.id.actionToggleHighlight
p1358
tp1359
I2
s(Vinsert
p1360
I42
VSimpleName: mZeroLinePaint
p1361
tp1362
I3
s(Vinsert
p1363
I42
VSimpleName: requiredWidth
p1364
tp1365
I1
s(Vinsert
p1366
I42
VSimpleName: addAll
p1367
tp1368
I2
s(Vinsert
p1369
I43
VSimpleType: Transformer
p1370
tp1371
I6
s(Vinsert
p1372
I42
VSimpleName: getOffsetTop
p1373
tp1374
I1
s(Vinsert
p1375
I42
VSimpleName: oldScaleY
p1376
tp1377
I1
s(Vinsert
p1378
I42
VSimpleName: mDrawValues
p1379
tp1380
I1
s(Vinsert
p1381
I42
VSimpleName: setWebLineWidth
p1382
tp1383
I1
s(Vinsert
p1384
I42
VSimpleName: abs
p1385
tp1386
I38
s(Vinsert
p1387
I42
VSimpleName: mAutoScaleLastHighestVisibleXIndex
p1388
tp1389
I1
s(Vinsert
p1390
I42
VSimpleName: gridLinePath
p1391
tp1392
I3
s(Vinsert
p1393
I42
VSimpleName: refillPool
p1394
tp1395
I1
s(Vinsert
p1396
I42
VSimpleName: round
p1397
tp1398
I5
s(Vinsert
p1399
I42
VSimpleName: eventY
p1400
tp1401
I1
s(Vinsert
p1402
I43
VSimpleType: RectF
p1403
tp1404
I6
s(Vinsert
p1405
I42
VSimpleName: getBarShadowColor
p1406
tp1407
I2
s(Vinsert
p1408
I40
VQualifiedName: R.id.actionToggleStartzero
p1409
tp1410
I1
s(Vinsert
p1411
I42
VSimpleName: limitTo
p1412
tp1413
I5
s(Vinsert
p1414
I5
VArrayType: int[]
p1415
tp1416
I2
s(Vinsert
p1417
I42
VSimpleName: ViewCompat
p1418
tp1419
I1
s(Vinsert
p1420
I43
VSimpleType: GestureDetector
p1421
tp1422
I1
s(Vinsert
p1423
I40
VQualifiedName: entry.formLineDashEffect
p1424
tp1425
I1
s(Vinsert
p1426
I42
VSimpleName: setValueTextSize
p1427
tp1428
I8
s(Vinsert
p1429
I34
VNumberLiteral: 240
p1430
tp1431
I3
s(Vinsert
p1432
I42
VSimpleName: isInBoundsY
p1433
tp1434
I4
s(Vinsert
p1435
I42
VSimpleName: isRotationEnabled
p1436
tp1437
I1
s(Vinsert
p1438
I42
VSimpleName: startActivity
p1439
tp1440
I1
s(Vinsert
p1441
I42
VSimpleName: yVal
p1442
tp1443
I2
s(Vinsert
p1444
I42
VSimpleName: from
p1445
tp1446
I17
s(Vinsert
p1447
I42
VSimpleName: container
p1448
tp1449
I5
s(Vinsert
p1450
I42
VSimpleName: tf
p1451
tp1452
I13
s(Vinsert
p1453
I42
VSimpleName: TextView
p1454
tp1455
I3
s(Vinsert
p1456
I42
VSimpleName: drawFilledPath
p1457
tp1458
I1
s(Vinsert
p1459
I42
VSimpleName: MenuItem
p1460
tp1461
I3
s(Vinsert
p1462
I42
VSimpleName: getItemId
p1463
tp1464
I2
s(Vinsert
p1465
I42
VSimpleName: MeasureSpec
p1466
tp1467
I2
s(Vinsert
p1468
I42
VSimpleName: dismiss
p1469
tp1470
I1
s(Vinsert
p1471
I43
VSimpleType: MyYAxisValueFormatter
p1472
tp1473
I1
s(Vinsert
p1474
I45
VStringLiteral: "floatValue"
p1475
tp1476
I1
s(Vinsert
p1477
I42
VSimpleName: hasDescription
p1478
tp1479
I1
s(Vinsert
p1480
I42
VSimpleName: object
p1481
tp1482
I26
s(Vinsert
p1483
I42
VSimpleName: setZoom
p1484
tp1485
I1
s(Vinsert
p1486
I42
VSimpleName: mTouchMode
p1487
tp1488
I9
s(Vinsert
p1489
I66
VTextElement: Returns true if the hole in the center of the PieChart is transparent,
p1490
tp1491
I1
s(Vinsert
p1492
I42
VSimpleName: posY
p1493
tp1494
I4
s(Vinsert
p1495
I42
VSimpleName: totalTime
p1496
tp1497
I1
s(Vinsert
p1498
I42
VSimpleName: icon
p1499
tp1500
I5
s(Vinsert
p1501
I42
VSimpleName: ChartAnimator
p1502
tp1503
I1
s(Vinsert
p1504
I42
VSimpleName: mPhaseY
p1505
tp1506
I2
s(Vinsert
p1507
I42
VSimpleName: getXMax
p1508
tp1509
I3
s(Vinsert
p1510
I42
VSimpleName: mYAxis
p1511
tp1512
I13
s(Vinsert
p1513
I42
VSimpleName: getEntryIndex
p1514
tp1515
I5
s(Vinsert
p1516
I42
VSimpleName: initBuffers
p1517
tp1518
I4
s(Vinsert
p1519
I42
VSimpleName: getFormLineDashEffect
p1520
tp1521
I1
s(Vinsert
p1522
I42
VSimpleName: GestureDetector
p1523
tp1524
I1
s(Vinsert
p1525
I40
VQualifiedName: holder.chart
p1526
tp1527
I4
s(Vinsert
p1528
I42
VSimpleName: getLabelPosition
p1529
tp1530
I1
s(Vinsert
p1531
I42
VSimpleName: dataSet
p1532
tp1533
I100
s(Vinsert
p1534
I66
VTextElement: returns the average value of all values the chart holds
p1535
tp1536
I1
s(Vinsert
p1537
I42
VSimpleName: isDrawCirclesEnabled
p1538
tp1539
I2
s(Vinsert
p1540
I42
VSimpleName: dates
p1541
tp1542
I1
s(Vinsert
p1543
I42
VSimpleName: LONGPRESS
p1544
tp1545
I1
s(Vinsert
p1546
I42
VSimpleName: posForGetHighestVisibleX
p1547
tp1548
I1
s(Vinsert
p1549
I42
VSimpleName: Realm
p1550
tp1551
I4
s(Vinsert
p1552
I42
VSimpleName: valueOf
p1553
tp1554
I2
s(Vinsert
p1555
I40
VQualifiedName: klick.x
p1556
tp1557
I1
s(Vinsert
p1558
I42
VSimpleName: releaseBitmap
p1559
tp1560
I4
s(Vinsert
p1561
I42
VSimpleName: canZoomOutMoreY
p1562
tp1563
I1
s(Vinsert
p1564
I42
VSimpleName: cachedStrings
p1565
tp1566
I1
s(Vinsert
p1567
I42
VSimpleName: getBarSpace
p1568
tp1569
I2
s(Vinsert
p1570
I42
VSimpleName: yleft
p1571
tp1572
I1
s(Vinsert
p1573
I32
VMethodInvocation
p1574
tp1575
I2180
s(Vinsert
p1576
I42
VSimpleName: clipPath
p1577
tp1578
I1
s(Vinsert
p1579
I42
VSimpleName: valsAtIndex
p1580
tp1581
I5
s(Vinsert
p1582
I42
VSimpleName: LayoutInflater
p1583
tp1584
I5
s(Vinsert
p1585
I42
VSimpleName: getSeriesForXIndex
p1586
tp1587
I1
s(Vinsert
p1588
I42
VSimpleName: getVal
p1589
tp1590
I23
s(Vinsert
p1591
I40
VQualifiedName: R.id.listView1
p1592
tp1593
I1
s(Vinsert
p1594
I42
VSimpleName: spaceLength
p1595
tp1596
I1
s(Vinsert
p1597
I16
VConditionalExpression
p1598
tp1599
I50
s(Vinsert
p1600
I42
VSimpleName: copyToRealm
p1601
tp1602
I6
s(Vinsert
p1603
I43
VSimpleType: Fragment
p1604
tp1605
I1
s(Vinsert
p1606
I42
VSimpleName: mLimitLinePath
p1607
tp1608
I1
s(Vinsert
p1609
I42
VSimpleName: setXEntrySpace
p1610
tp1611
I2
s(Vinsert
p1612
I42
VSimpleName: getEntryPosition
p1613
tp1614
I2
s(Vinsert
p1615
I43
VSimpleType: LimitLine
p1616
tp1617
I5
s(Vinsert
p1618
I34
VNumberLiteral: 12
p1619
tp1620
I5
s(Vinsert
p1621
I42
VSimpleName: RealmUtils
p1622
tp1623
I7
s(Vinsert
p1624
I42
VSimpleName: mDrawUnitInChart
p1625
tp1626
I4
s(Vinsert
p1627
I42
VSimpleName: setOnChartGestureListener
p1628
tp1629
I1
s(Vinsert
p1630
I42
VSimpleName: centerViewPort
p1631
tp1632
I1
s(Vinsert
p1633
I42
VSimpleName: getXValueFormatter
p1634
tp1635
I1
s(Vinsert
p1636
I7
VAssignment: /=
p1637
tp1638
I1
s(Vinsert
p1639
I66
VTextElement: not.
p1640
tp1641
I1
s(Vinsert
p1642
I40
VQualifiedName: Color.GREEN
p1643
tp1644
I1
s(Vinsert
p1645
I43
VSimpleType: LineData
p1646
tp1647
I3
s(Vinsert
p1648
I40
VQualifiedName: R.id.animateY
p1649
tp1650
I6
s(Vinsert
p1651
I43
VSimpleType: ScatterChart.ScatterShape
p1652
tp1653
I2
s(Vinsert
p1654
I42
VSimpleName: setDrawVerticalGrid
p1655
tp1656
I1
s(Vinsert
p1657
I3
VArrayCreation
p1658
tp1659
I23
s(Vinsert
p1660
I34
VNumberLiteral: 99
p1661
tp1662
I2
s(Vinsert
p1663
I42
VSimpleName: getValuesByTouchPoint
p1664
tp1665
I13
s(Vinsert
p1666
I42
VSimpleName: onValueSelected
p1667
tp1668
I1
s(Vinsert
p1669
I42
VSimpleName: mOffsetLeft
p1670
tp1671
I4
s(Vinsert
p1672
I42
VSimpleName: mDragTriggerDist
p1673
tp1674
I3
s(Vinsert
p1675
I42
VSimpleName: inverted
p1676
tp1677
I2
s(Vinsert
p1678
I42
VSimpleName: POST_ZOOM
p1679
tp1680
I1
s(Vinsert
p1681
I42
VSimpleName: BarChart
p1682
tp1683
I4
s(Vinsert
p1684
I42
VSimpleName: getValueToPixelMatrix
p1685
tp1686
I1
s(Vinsert
p1687
I42
VSimpleName: getColor
p1688
tp1689
I11
s(Vinsert
p1690
I43
VSimpleType: HashMap
p1691
tp1692
I2
s(Vinsert
p1693
I42
VSimpleName: startYear
p1694
tp1695
I4
s(Vinsert
p1696
I42
VSimpleName: mDrawingContext
p1697
tp1698
I3
s(Vinsert
p1699
I42
VSimpleName: mMaxSize
p1700
tp1701
I1
s(Vinsert
p1702
I42
VSimpleName: posy
p1703
tp1704
I2
s(Vinsert
p1705
I42
VSimpleName: RIGHT_OF_CHART
p1706
tp1707
I1
s(Vinsert
p1708
I43
VSimpleType: Series
p1709
tp1710
I8
s(Vinsert
p1711
I42
VSimpleName: mHighlightLineWidth
p1712
tp1713
I2
s(Vinsert
p1714
I42
VSimpleName: secondHoleRadius
p1715
tp1716
I1
s(Vinsert
p1717
I42
VSimpleName: shapeHoleColor
p1718
tp1719
I1
s(Vinsert
p1720
I42
VSimpleName: isDoubleTapToZoomEnabled
p1721
tp1722
I1
s(Vinsert
p1723
I66
VTextElement:  true if hole is transparent.
p1724
tp1725
I1
s(Vinsert
p1726
I42
VSimpleName: lineLength
p1727
tp1728
I1
s(Vinsert
p1729
I42
VSimpleName: cur
p1730
tp1731
I2
s(Vinsert
p1732
I42
VSimpleName: open
p1733
tp1734
I3
s(Vinsert
p1735
I40
VQualifiedName: valuePoints.length
p1736
tp1737
I6
s(Vinsert
p1738
I42
VSimpleName: onOptionsItemSelected
p1739
tp1740
I2
s(Vinsert
p1741
I34
VNumberLiteral: 1.0f
p1742
tp1743
I1
s(Vinsert
p1744
I43
VSimpleType: K
p1745
tp1746
I1
s(Vinsert
p1747
I43
VSimpleType: PieDataSet
p1748
tp1749
I3
s(Vinsert
p1750
I42
VSimpleName: setRatios
p1751
tp1752
I1
s(Vinsert
p1753
I43
VSimpleType: Rect
p1754
tp1755
I7
s(Vinsert
p1756
I42
VSimpleName: bds
p1757
tp1758
I2
s(Vinsert
p1759
I66
VTextElement: Finishes a drawing entry and adds values at the beginning and the end to fill up the line
p1760
tp1761
I1
s(Vinsert
p1762
I42
VSimpleName: minYRange
p1763
tp1764
I2
s(Vinsert
p1765
I42
VSimpleName: distanceToCenter
p1766
tp1767
I2
s(Vinsert
p1768
I45
VStringLiteral: "reduction: "
p1769
tp1770
I1
s(Vinsert
p1771
I34
VNumberLiteral: 11f
p1772
tp1773
I2
s(Vinsert
p1774
I45
VStringLiteral: "unused"
p1775
tp1776
I1
s(Vinsert
p1777
I42
VSimpleName: MIN_SCALE
p1778
tp1779
I1
s(Vinsert
p1780
I42
VSimpleName: xLabels
p1781
tp1782
I1
s(Vinsert
p1783
I40
VQualifiedName: mYLegend.mDecimals
p1784
tp1785
I1
s(Vinsert
p1786
I42
VSimpleName: isInfinite
p1787
tp1788
I5
s(Vinsert
p1789
I42
VSimpleName: cubicFillPath
p1790
tp1791
I1
s(Vinsert
p1792
I42
VSimpleName: getDecreasingColor
p1793
tp1794
I2
s(Vinsert
p1795
I42
VSimpleName: init
p1796
tp1797
I3
s(Vinsert
p1798
I34
VNumberLiteral: 16
p1799
tp1800
I4
s(Vinsert
p1801
I34
VNumberLiteral: 255
p1802
tp1803
I3
s(Vinsert
p1804
I42
VSimpleName: addListener
p1805
tp1806
I1
s(Vinsert
p1807
I43
VSimpleType: PieEntry
p1808
tp1809
I2
s(Vinsert
p1810
I42
VSimpleName: setMaximumScaleX
p1811
tp1812
I1
s(Vinsert
p1813
I42
VSimpleName: mScatterShapeHoleRadius
p1814
tp1815
I2
s(Vinsert
p1816
I42
VSimpleName: getXValAverageLength
p1817
tp1818
I1
s(Vinsert
p1819
I42
VSimpleName: size
p1820
tp1821
I144
s(Vinsert
p1822
I42
VSimpleName: upIndex
p1823
tp1824
I1
s(Vinsert
p1825
I42
VSimpleName: getVisibleXRange
p1826
tp1827
I1
s(Vinsert
p1828
I42
VSimpleName: bufferIndex
p1829
tp1830
I2
s(Vinsert
p1831
I42
VSimpleName: mXMax
p1832
tp1833
I9
s(Vinsert
p1834
I42
VSimpleName: setDrawBarShadow
p1835
tp1836
I2
s(Vinsert
p1837
I42
VSimpleName: setLastHighlighted
p1838
tp1839
I2
s(Vinsert
p1840
I43
VSimpleType: BarDataSet
p1841
tp1842
I32
s(Vinsert
p1843
I42
VSimpleName: mMBuffer1
p1844
tp1845
I2
s(Vinsert
p1846
I42
VSimpleName: getContentRect
p1847
tp1848
I7
s(Vinsert
p1849
I42
VSimpleName: mCloseBuffers
p1850
tp1851
I2
s(Vinsert
p1852
I42
VSimpleName: mLimitLinePaint
p1853
tp1854
I14
s(Vinsert
p1855
I42
VSimpleName: mAxisRight
p1856
tp1857
I10
s(Vinsert
p1858
I42
VSimpleName: pointValuesToPixel
p1859
tp1860
I11
s(Vinsert
p1861
I42
VSimpleName: mBarRenderer
p1862
tp1863
I4
s(Vinsert
p1864
I42
VSimpleName: entryCount
p1865
tp1866
I10
s(Vinsert
p1867
I42
VSimpleName: item
p1868
tp1869
I5
s(Vinsert
p1870
I42
VSimpleName: setDrawBorder
p1871
tp1872
I1
s(Vinsert
p1873
I42
VSimpleName: isInBoundsX
p1874
tp1875
I2
s(Vinsert
p1876
I42
VSimpleName: getData
p1877
tp1878
I91
s(Vinsert
p1879
I42
VSimpleName: setHighlightIndicatorEnabled
p1880
tp1881
I1
s(Vinsert
p1882
I42
VSimpleName: drawData
p1883
tp1884
I3
s(Vinsert
p1885
I66
VTextElement: Returns a recyclable PointD instance.
p1886
tp1887
I1
s(Vinsert
p1888
I42
VSimpleName: roundToNextSignificant
p1889
tp1890
I5
s(Vinsert
p1891
I27
VInfixExpression: ||
p1892
tp1893
I24
s(Vinsert
p1894
I42
VSimpleName: canvas
p1895
tp1896
I4
s(Vinsert
p1897
I42
VSimpleName: sweepAngleOuter
p1898
tp1899
I1
s(Vinsert
p1900
I42
VSimpleName: ce
p1901
tp1902
I1
s(Vinsert
p1903
I42
VSimpleName: savedInstanceState
p1904
tp1905
I9
s(Vinsert
p1906
I42
VSimpleName: reset
p1907
tp1908
I24
s(Vinsert
p1909
I42
VSimpleName: getMaxWidth
p1910
tp1911
I1
s(Vinsert
p1912
I74
VParameterizedType: ArrayList<>
p1913
tp1914
I3
s(Vinsert
p1915
I42
VSimpleName: getLabel
p1916
tp1917
I13
s(Vinsert
p1918
I34
VNumberLiteral: 5
p1919
tp1920
I8
s(Vinsert
p1921
I42
VSimpleName: mLastEnd
p1922
tp1923
I1
s(Vinsert
p1924
I42
VSimpleName: getJobs
p1925
tp1926
I1
s(Vinsert
p1927
I45
VStringLiteral: "Contentrect prepared. Width: "
p1928
tp1929
I1
s(Vinsert
p1930
I40
VQualifiedName: R.id.button1
p1931
tp1932
I1
s(Vinsert
p1933
I42
VSimpleName: mostEntries
p1934
tp1935
I2
s(Vinsert
p1936
I42
VSimpleName: sleep
p1937
tp1938
I1
s(Vinsert
p1939
I42
VSimpleName: getIntrinsicWidth
p1940
tp1941
I2
s(Vinsert
p1942
I42
VSimpleName: isEmpty
p1943
tp1944
I13
s(Vinsert
p1945
I42
VSimpleName: View
p1946
tp1947
I8
s(Vinsert
p1948
I42
VSimpleName: entriesOutput
p1949
tp1950
I1
s(Vinsert
p1951
I42
VSimpleName: durationMillisY
p1952
tp1953
I2
s(Vinsert
p1954
I42
VSimpleName: getScaleY
p1955
tp1956
I1
s(Vinsert
p1957
I41
VReturnStatement
p1958
tp1959
I112
s(Vinsert
p1960
I42
VSimpleName: Uri
p1961
tp1962
I2
s(Vinsert
p1963
I42
VSimpleName: Canvas
p1964
tp1965
I2
s(Vinsert
p1966
I42
VSimpleName: mStackValueFieldName
p1967
tp1968
I1
s(Vinsert
p1969
I42
VSimpleName: direction
p1970
tp1971
I2
s(Vinsert
p1972
I42
VSimpleName: mXIndex
p1973
tp1974
I1
s(Vinsert
p1975
I42
VSimpleName: getOnChartGestureListener
p1976
tp1977
I4
s(Vinsert
p1978
I42
VSimpleName: setOffsets
p1979
tp1980
I4
s(Vinsert
p1981
I42
VSimpleName: sets
p1982
tp1983
I39
s(Vinsert
p1984
I42
VSimpleName: setHighLightCircleWidth
p1985
tp1986
I4
s(Vinsert
p1987
I42
VSimpleName: days
p1988
tp1989
I2
s(Vinsert
p1990
I42
VSimpleName: isNaN
p1991
tp1992
I18
s(Vinsert
p1993
I42
VSimpleName: zoomOriginY
p1994
tp1995
I3
s(Vinsert
p1996
I42
VSimpleName: xIndex
p1997
tp1998
I23
s(Vinsert
p1999
I42
VSimpleName: mCalculatedLabelSizes
p2000
tp2001
I2
s(Vinsert
p2002
I42
VSimpleName: getYChartMin
p2003
tp2004
I3
s(Vinsert
p2005
I40
VQualifiedName: Color.WHITE
p2006
tp2007
I2
s(Vinsert
p2008
I40
VQualifiedName: BorderStyle.BOTTOM
p2009
tp2010
I1
s(Vinsert
p2011
I34
VNumberLiteral: 10000000f
p2012
tp2013
I1
s(Vinsert
p2014
I42
VSimpleName: mDescription
p2015
tp2016
I2
s(Vinsert
p2017
I43
VSimpleType: BarBuffer
p2018
tp2019
I1
s(Vinsert
p2020
I42
VSimpleName: alreadyHasValue
p2021
tp2022
I1
s(Vinsert
p2023
I42
VSimpleName: setHighlightDrawPos
p2024
tp2025
I2
s(Vinsert
p2026
I42
VSimpleName: onDetachedFromWindow
p2027
tp2028
I2
s(Vinsert
p2029
I66
VTextElement: backwards.
p2030
tp2031
I1
s(Vinsert
p2032
I5
VArrayType: String[]
p2033
tp2034
I6
s(Vinsert
p2035
I43
VSimpleType: ViewGroup
p2036
tp2037
I6
s(Vinsert
p2038
I42
VSimpleName: getFontSpacing
p2039
tp2040
I1
s(Vinsert
p2041
I42
VSimpleName: mTrans
p2042
tp2043
I19
s(Vinsert
p2044
I42
VSimpleName: Float
p2045
tp2046
I16
s(Vinsert
p2047
I42
VSimpleName: getXOffset
p2048
tp2049
I13
s(Vinsert
p2050
I42
VSimpleName: h2
p2051
tp2052
I3
s(Vinsert
p2053
I42
VSimpleName: parent
p2054
tp2055
I2
s(Vinsert
p2056
I42
VSimpleName: maxHeight
p2057
tp2058
I1
s(Vinsert
p2059
I42
VSimpleName: customShape
p2060
tp2061
I1
s(Vinsert
p2062
I42
VSimpleName: mFontMetricsBuffer
p2063
tp2064
I1
s(Vinsert
p2065
I42
VSimpleName: ascent
p2066
tp2067
I1
s(Vinsert
p2068
I43
VSimpleType: PointD
p2069
tp2070
I8
s(Vinsert
p2071
I40
VQualifiedName: point.y
p2072
tp2073
I2
s(Vinsert
p2074
I42
VSimpleName: getDataByIndex
p2075
tp2076
I1
s(Vinsert
p2077
I42
VSimpleName: getInt
p2078
tp2079
I1
s(Vinsert
p2080
I42
VSimpleName: LOG_TAG
p2081
tp2082
I8
s(Vinsert
p2083
I42
VSimpleName: setPosition
p2084
tp2085
I7
s(Vinsert
p2086
I27
VInfixExpression: ==
p2087
tp2088
I115
s(Vinsert
p2089
I42
VSimpleName: llXAxis
p2090
tp2091
I3
s(Vinsert
p2092
I42
VSimpleName: lineTo
p2093
tp2094
I11
s(Vinsert
p2095
I9
VBooleanLiteral: true
p2096
tp2097
I19
s(Vinsert
p2098
I42
VSimpleName: setCenterText
p2099
tp2100
I1
s(Vinsert
p2101
I43
VSimpleType: ObjectAnimator
p2102
tp2103
I1
s(Vinsert
p2104
I40
VQualifiedName: Color.BLACK
p2105
tp2106
I4
s(Vinsert
p2107
I45
VStringLiteral: " $"
p2108
tp2109
I1
s(Vinsert
p2110
I42
VSimpleName: PINCH_ZOOM
p2111
tp2112
I2
s(Vinsert
p2113
I43
VSimpleType: Parcel
p2114
tp2115
I1
s(Vinsert
p2116
I58
VVariableDeclarationExpression
p2117
tp2118
I59
s(Vinsert
p2119
I7
VAssignment: *=
p2120
tp2121
I4
s(Vinsert
p2122
I42
VSimpleName: valOffset
p2123
tp2124
I1
s(Vinsert
p2125
I42
VSimpleName: count
p2126
tp2127
I16
s(Vinsert
p2128
I42
VSimpleName: getRanges
p2129
tp2130
I1
s(Vinsert
p2131
I42
VSimpleName: base
p2132
tp2133
I1
s(Vinsert
p2134
I42
VSimpleName: mData
p2135
tp2136
I56
s(Vinsert
p2137
I42
VSimpleName: mYVals
p2138
tp2139
I42
s(Vinsert
p2140
I40
VQualifiedName: YLabelPosition.RIGHT_INSIDE
p2141
tp2142
I1
s(Vinsert
p2143
I74
VParameterizedType: ArrayList<Entry>
p2144
tp2145
I16
s(Vinsert
p2146
I42
VSimpleName: btn5
p2147
tp2148
I1
s(Vinsert
p2149
I42
VSimpleName: convertDpToPixel
p2150
tp2151
I54
s(Vinsert
p2152
I45
VStringLiteral: ", (2)"
p2153
tp2154
I1
s(Vinsert
p2155
I40
VQualifiedName: R.id.actionToggleHighlightArrow
p2156
tp2157
I1
s(Vinsert
p2158
I42
VSimpleName: getXVals
p2159
tp2160
I6
s(Vinsert
p2161
I42
VSimpleName: valueText
p2162
tp2163
I2
s(Vinsert
p2164
I42
VSimpleName: s1
p2165
tp2166
I1
s(Vinsert
p2167
I42
VSimpleName: setDrawGridBackground
p2168
tp2169
I5
s(Vinsert
p2170
I42
VSimpleName: HSVToColor
p2171
tp2172
I1
s(Vinsert
p2173
I40
VQualifiedName: outputFSize.height
p2174
tp2175
I1
s(Vinsert
p2176
I42
VSimpleName: isDrawIconsEnabled
p2177
tp2178
I9
s(Vinsert
p2179
I42
VSimpleName: diff
p2180
tp2181
I5
s(Vinsert
p2182
I42
VSimpleName: K
p2183
tp2184
I1
s(Vinsert
p2185
I66
VTextElement: converts to dp internally
p2186
tp2187
I1
s(Vinsert
p2188
I42
VSimpleName: getFormattedString
p2189
tp2190
I1
s(Vinsert
p2191
I42
VSimpleName: mAxisRendererLeft
p2192
tp2193
I1
s(Vinsert
p2194
I39
VPrimitiveType: double
p2195
tp2196
I14
s(Vinsert
p2197
I42
VSimpleName: xAxis
p2198
tp2199
I9
s(Vinsert
p2200
I43
VSimpleType: Score
p2201
tp2202
I4
s(Vinsert
p2203
I42
VSimpleName: drawValueAboveBar
p2204
tp2205
I1
s(Vinsert
p2206
I42
VSimpleName: trans
p2207
tp2208
I16
s(Vinsert
p2209
I42
VSimpleName: bd
p2210
tp2211
I4
s(Vinsert
p2212
I42
VSimpleName: CandleStickChartRenderer
p2213
tp2214
I2
s(Vinsert
p2215
I74
VParameterizedType: ArrayList<Highlight>
p2216
tp2217
I2
s(Vinsert
p2218
I5
VArrayType: Series[]
p2219
tp2220
I1
s(Vinsert
p2221
I42
VSimpleName: distanceY
p2222
tp2223
I1
s(Vinsert
p2224
I42
VSimpleName: filled
p2225
tp2226
I1
s(Vinsert
p2227
I42
VSimpleName: setScatterShapeSize
p2228
tp2229
I3
s(Vinsert
p2230
I43
VSimpleType: Easing.EasingOption
p2231
tp2232
I1
s(Vinsert
p2233
I42
VSimpleName: mMovingEntry
p2234
tp2235
I2
s(Vinsert
p2236
I42
VSimpleName: recycle
p2237
tp2238
I6
s(Vinsert
p2239
I42
VSimpleName: getGreatestShapeSize
p2240
tp2241
I1
s(Vinsert
p2242
I42
VSimpleName: me
p2243
tp2244
I4
s(Vinsert
p2245
I42
VSimpleName: beginTransaction
p2246
tp2247
I2
s(Vinsert
p2248
I45
VStringLiteral: "Revenues\u005cnQuarters 2015"
p2249
tp2250
I1
s(Vinsert
p2251
I42
VSimpleName: isInBoundsRight
p2252
tp2253
I7
s(Vinsert
p2254
I42
VSimpleName: getYOffset
p2255
tp2256
I5
s(Vinsert
p2257
I42
VSimpleName: getLineColor
p2258
tp2259
I1
s(Vinsert
p2260
I42
VSimpleName: selectionDetail
p2261
tp2262
I1
s(Vinsert
p2263
I45
VStringLiteral: "Bubble DataSet"
p2264
tp2265
I1
s(Vinsert
p2266
I42
VSimpleName: isDrawCubicEnabled
p2267
tp2268
I2
s(Vinsert
p2269
I42
VSimpleName: entrySpace
p2270
tp2271
I2
s(Vinsert
p2272
I42
VSimpleName: mAxisMaximum
p2273
tp2274
I3
s(Vinsert
p2275
I42
VSimpleName: AxisDependency
p2276
tp2277
I6
s(Vinsert
p2278
I42
VSimpleName: SuppressWarnings
p2279
tp2280
I1
s(Vinsert
p2281
I43
VSimpleType: DefaultAxisValueFormatter
p2282
tp2283
I1
s(Vinsert
p2284
I42
VSimpleName: getY
p2285
tp2286
I19
s(Vinsert
p2287
I34
VNumberLiteral: 0xFF
p2288
tp2289
I2
s(Vinsert
p2290
I42
VSimpleName: mDrawLegend
p2291
tp2292
I1
s(Vinsert
p2293
I42
VSimpleName: isDrawValueAboveBarEnabled
p2294
tp2295
I1
s(Vinsert
p2296
I42
VSimpleName: all
p2297
tp2298
I2
s(Vinsert
p2299
I42
VSimpleName: tolerance
p2300
tp2301
I2
s(Vinsert
p2302
I42
VSimpleName: mYLegendPaint
p2303
tp2304
I1
s(Vinsert
p2305
I42
VSimpleName: setDrawHighlightCircleEnabled
p2306
tp2307
I1
s(Vinsert
p2308
I42
VSimpleName: argb
p2309
tp2310
I2
s(Vinsert
p2311
I42
VSimpleName: initShapeRenderer
p2312
tp2313
I1
s(Vinsert
p2314
I40
VQualifiedName: R.color.vordiplom_2
p2315
tp2316
I1
s(Vinsert
p2317
I42
VSimpleName: valsInView
p2318
tp2319
I2
s(Vinsert
p2320
I42
VSimpleName: sliceSpaceMiddleAngle
p2321
tp2322
I2
s(Vinsert
p2323
I42
VSimpleName: getInstance
p2324
tp2325
I20
s(Vinsert
p2326
I40
VQualifiedName: offsets.bottom
p2327
tp2328
I1
s(Vinsert
p2329
I42
VSimpleName: result
p2330
tp2331
I46
s(Vinsert
p2332
I42
VSimpleName: setLabelPosition
p2333
tp2334
I1
s(Vinsert
p2335
I9
VBooleanLiteral: false
p2336
tp2337
I40
s(Vinsert
p2338
I42
VSimpleName: Paint
p2339
tp2340
I9
s(Vinsert
p2341
I42
VSimpleName: mValues
p2342
tp2343
I25
s(Vinsert
p2344
I42
VSimpleName: recycleInstances
p2345
tp2346
I1
s(Vinsert
p2347
I45
VStringLiteral: "Set"
p2348
tp2349
I1
s(Vinsert
p2350
I42
VSimpleName: getXLabels
p2351
tp2352
I6
s(Vinsert
p2353
I43
VSimpleType: FSize
p2354
tp2355
I1
s(Vinsert
p2356
I42
VSimpleName: assertTrue
p2357
tp2358
I1
s(Vinsert
p2359
I42
VSimpleName: originPosX
p2360
tp2361
I1
s(Vinsert
p2362
I42
VSimpleName: range
p2363
tp2364
I6
s(Vinsert
p2365
I42
VSimpleName: getRequiredHeightSpace
p2366
tp2367
I1
s(Vinsert
p2368
I40
VQualifiedName: buffer.buffer
p2369
tp2370
I12
s(Vinsert
p2371
I65
VTagElement
p2372
tp2373
I33
s(Vinsert
p2374
I42
VSimpleName: setAvoidFirstLastClipping
p2375
tp2376
I2
s(Vinsert
p2377
I42
VSimpleName: px
p2378
tp2379
I1
s(Vinsert
p2380
I42
VSimpleName: mYEntrySpace
p2381
tp2382
I1
s(Vinsert
p2383
I40
VQualifiedName: Build.VERSION.SDK_INT
p2384
tp2385
I1
s(Vinsert
p2386
I42
VSimpleName: getDataSetColors
p2387
tp2388
I2
s(Vinsert
p2389
I42
VSimpleName: setUnit
p2390
tp2391
I1
s(Vinsert
p2392
I42
VSimpleName: getCircleHoleColor
p2393
tp2394
I1
s(Vinsert
p2395
I42
VSimpleName: mDrawBitmap
p2396
tp2397
I11
s(Vinsert
p2398
I42
VSimpleName: setYEntrySpace
p2399
tp2400
I2
s(Vinsert
p2401
I43
VSimpleType: BufferedReader
p2402
tp2403
I2
s(Vinsert
p2404
I42
VSimpleName: mRenderGridLinesPath
p2405
tp2406
I1
s(Vinsert
p2407
I40
VQualifiedName: LegendPosition.BELOW_CHART_LEFT
p2408
tp2409
I2
s(Vinsert
p2410
I42
VSimpleName: setStartAtZero
p2411
tp2412
I6
s(Vinsert
p2413
I42
VSimpleName: set3
p2414
tp2415
I3
s(Vinsert
p2416
I42
VSimpleName: hasValueAtdataSetIndex
p2417
tp2418
I1
s(Vinsert
p2419
I42
VSimpleName: deltaRatio
p2420
tp2421
I1
s(Vinsert
p2422
I42
VSimpleName: minScaleX
p2423
tp2424
I1
s(Vinsert
p2425
I42
VSimpleName: success
p2426
tp2427
I2
s(Vinsert
p2428
I40
VQualifiedName: R.id.actionSave
p2429
tp2430
I2
s(Vinsert
p2431
I40
VQualifiedName: AlertDialog.Builder
p2432
tp2433
I4
s(Vinsert
p2434
I43
VSimpleType: ViewParent
p2435
tp2436
I1
s(Vinsert
p2437
I42
VSimpleName: mIndexField
p2438
tp2439
I1
s(Vinsert
p2440
I42
VSimpleName: lineChart
p2441
tp2442
I1
s(Vinsert
p2443
I42
VSimpleName: lineData
p2444
tp2445
I3
s(Vinsert
p2446
I42
VSimpleName: e1
p2447
tp2448
I2
s(Vinsert
p2449
I43
VSimpleType: StringBuffer
p2450
tp2451
I3
s(Vinsert
p2452
I34
VNumberLiteral: 11
p2453
tp2454
I2
s(Vinsert
p2455
I42
VSimpleName: score5
p2456
tp2457
I5
s(Vinsert
p2458
I42
VSimpleName: drawable
p2459
tp2460
I4
s(Vinsert
p2461
I42
VSimpleName: setLogEnabled
p2462
tp2463
I1
s(Vinsert
p2464
I42
VSimpleName: limitLines
p2465
tp2466
I3
s(Vinsert
p2467
I34
VNumberLiteral: 80f
p2468
tp2469
I4
s(Vinsert
p2470
I40
VQualifiedName: labels.length
p2471
tp2472
I2
s(Vinsert
p2473
I34
VNumberLiteral: 134
p2474
tp2475
I1
s(Vinsert
p2476
I42
VSimpleName: mType
p2477
tp2478
I1
s(Vinsert
p2479
I42
VSimpleName: callListener
p2480
tp2481
I3
s(Vinsert
p2482
I42
VSimpleName: mHighLightColor
p2483
tp2484
I1
s(Vinsert
p2485
I42
VSimpleName: setDrawYValues
p2486
tp2487
I5
s(Vinsert
p2488
I40
VQualifiedName: mXAxis.mCenteredEntries
p2489
tp2490
I1
s(Vinsert
p2491
I45
VStringLiteral: ", maxTransX: "
p2492
tp2493
I1
s(Vinsert
p2494
I42
VSimpleName: setBarSpacePercent
p2495
tp2496
I2
s(Vinsert
p2497
I42
VSimpleName: instance
p2498
tp2499
I1
s(Vinsert
p2500
I45
VStringLiteral: "xIndex"
p2501
tp2502
I3
s(Vinsert
p2503
I42
VSimpleName: isFilterSet
p2504
tp2505
I2
s(Vinsert
p2506
I42
VSimpleName: invalidate
p2507
tp2508
I13
s(Vinsert
p2509
I42
VSimpleName: getDashPathEffectHighlight
p2510
tp2511
I1
s(Vinsert
p2512
I34
VNumberLiteral: 3000
p2513
tp2514
I5
s(Vinsert
p2515
I42
VSimpleName: toArray
p2516
tp2517
I2
s(Vinsert
p2518
I43
VSimpleType: ChartData
p2519
tp2520
I2
s(Vinsert
p2521
I42
VSimpleName: cubicPath
p2522
tp2523
I2
s(Vinsert
p2524
I42
VSimpleName: setYLegendTypeface
p2525
tp2526
I1
s(Vinsert
p2527
I34
VNumberLiteral: 2.5f
p2528
tp2529
I1
s(Vinsert
p2530
I42
VSimpleName: y
p2531
tp2532
I49
s(Vinsert
p2533
I42
VSimpleName: getOffsetLeft
p2534
tp2535
I3
s(Vinsert
p2536
I42
VSimpleName: isCenterAxisLabelsEnabled
p2537
tp2538
I2
s(Vinsert
p2539
I42
VSimpleName: FSize
p2540
tp2541
I4
s(Vinsert
p2542
I42
VSimpleName: mJobs
p2543
tp2544
I5
s(Vinsert
p2545
I42
VSimpleName: Highlight
p2546
tp2547
I21
s(Vinsert
p2548
I43
VSimpleType: LineChart
p2549
tp2550
I2
s(Vinsert
p2551
I74
VParameterizedType: List<IScatterDataSet>
p2552
tp2553
I1
s(Vinsert
p2554
I42
VSimpleName: yOrigin
p2555
tp2556
I5
s(Vinsert
p2557
I42
VSimpleName: containsKey
p2558
tp2559
I2
s(Vinsert
p2560
I40
VQualifiedName: lastSample.angle
p2561
tp2562
I1
s(Vinsert
p2563
I42
VSimpleName: getActivity
p2564
tp2565
I8
s(Vinsert
p2566
I43
VSimpleType: Range
p2567
tp2568
I3
s(Vinsert
p2569
I40
VQualifiedName: Align.CENTER
p2570
tp2571
I2
s(Vinsert
p2572
I42
VSimpleName: formSize
p2573
tp2574
I1
s(Vinsert
p2575
I42
VSimpleName: shapeSize
p2576
tp2577
I2
s(Vinsert
p2578
I42
VSimpleName: LineChart
p2579
tp2580
I4
s(Vinsert
p2581
I42
VSimpleName: setFakeBoldText
p2582
tp2583
I7
s(Vinsert
p2584
I42
VSimpleName: series
p2585
tp2586
I7
s(Vinsert
p2587
I42
VSimpleName: invert
p2588
tp2589
I11
s(Vinsert
p2590
I34
VNumberLiteral: 0
p2591
tp2592
I208
s(Vinsert
p2593
I42
VSimpleName: Log
p2594
tp2595
I31
s(Vinsert
p2596
I42
VSimpleName: append
p2597
tp2598
I10
s(Vinsert
p2599
I42
VSimpleName: velocityY
p2600
tp2601
I3
s(Vinsert
p2602
I42
VSimpleName: mBarShadow
p2603
tp2604
I1
s(Vinsert
p2605
I42
VSimpleName: dataSetIndex
p2606
tp2607
I23
s(Vinsert
p2608
I42
VSimpleName: getYValsAtIndex
p2609
tp2610
I1
s(Vinsert
p2611
I42
VSimpleName: applyValueTextStyle
p2612
tp2613
I1
s(Vinsert
p2614
I42
VSimpleName: getCircleColors
p2615
tp2616
I1
s(Vinsert
p2617
I42
VSimpleName: legendBottom
p2618
tp2619
I1
s(Vinsert
p2620
I74
VParameterizedType: List<Boolean>
p2621
tp2622
I3
s(Vinsert
p2623
I42
VSimpleName: yValues
p2624
tp2625
I2
s(Vinsert
p2626
I70
VEnhancedForStatement
p2627
tp2628
I34
s(Vinsert
p2629
I42
VSimpleName: mLock
p2630
tp2631
I1
s(Vinsert
p2632
I42
VSimpleName: eventX
p2633
tp2634
I1
s(Vinsert
p2635
I40
VQualifiedName: R.id.tvContent
p2636
tp2637
I1
s(Vinsert
p2638
I42
VSimpleName: setTypeface
p2639
tp2640
I17
s(Vinsert
p2641
I34
VNumberLiteral: 194
p2642
tp2643
I1
s(Vinsert
p2644
I42
VSimpleName: y1
p2645
tp2646
I1
s(Vinsert
p2647
I43
VSimpleType: ScatterChartRenderer
p2648
tp2649
I1
s(Vinsert
p2650
I42
VSimpleName: xVals
p2651
tp2652
I7
s(Vinsert
p2653
I42
VSimpleName: datas
p2654
tp2655
I1
s(Vinsert
p2656
I42
VSimpleName: getYValCount
p2657
tp2658
I9
s(Vinsert
p2659
I42
VSimpleName: isSeparateThousandsEnabled
p2660
tp2661
I1
s(Vinsert
p2662
I42
VSimpleName: xl
p2663
tp2664
I5
s(Vinsert
p2665
I43
VSimpleType: BubbleEntry
p2666
tp2667
I2
s(Vinsert
p2668
I42
VSimpleName: drawText
p2669
tp2670
I10
s(Vinsert
p2671
I42
VSimpleName: setBarBorderWidth
p2672
tp2673
I7
s(Vinsert
p2674
I42
VSimpleName: shapeRendererList
p2675
tp2676
I4
s(Vinsert
p2677
I42
VSimpleName: getMode
p2678
tp2679
I2
s(Vinsert
p2680
I42
VSimpleName: isAutoScaleMinMaxEnabled
p2681
tp2682
I15
s(Vinsert
p2683
I42
VSimpleName: inflate
p2684
tp2685
I8
s(Vinsert
p2686
I40
VQualifiedName: R.id.report
p2687
tp2688
I1
s(Vinsert
p2689
I42
VSimpleName: setDrawValuesForWholeStack
p2690
tp2691
I1
s(Vinsert
p2692
I42
VSimpleName: length
p2693
tp2694
I6
s(Vinsert
p2695
I66
VTextElement:  state
p2696
tp2697
I1
s(Vinsert
p2698
I45
VStringLiteral: "yValue"
p2699
tp2700
I2
s(Vinsert
p2701
I42
VSimpleName: setMinimumScaleX
p2702
tp2703
I3
s(Vinsert
p2704
I42
VSimpleName: reduced
p2705
tp2706
I1
s(Vinsert
p2707
I42
VSimpleName: getDataSetIndexForIndex
p2708
tp2709
I1
s(Vinsert
p2710
I42
VSimpleName: valuePoints
p2711
tp2712
I8
s(Vinsert
p2713
I42
VSimpleName: mCustomAxisMax
p2714
tp2715
I1
s(Vinsert
p2716
I42
VSimpleName: mOffsetRight
p2717
tp2718
I3
s(Vinsert
p2719
I42
VSimpleName: animateXY
p2720
tp2721
I2
s(Vinsert
p2722
I43
VSimpleType: BubbleData
p2723
tp2724
I1
s(Vinsert
p2725
I43
VSimpleType: ILineDataSet
p2726
tp2727
I2
s(Vinsert
p2728
I42
VSimpleName: RealmPieDataSet
p2729
tp2730
I3
s(Vinsert
p2731
I40
VQualifiedName: mCircleBox.right
p2732
tp2733
I1
s(Vinsert
p2734
I42
VSimpleName: step
p2735
tp2736
I7
s(Vinsert
p2737
I42
VSimpleName: X_ZOOM
p2738
tp2739
I2
s(Vinsert
p2740
I42
VSimpleName: getLimit
p2741
tp2742
I1
s(Vinsert
p2743
I45
VStringLiteral: "START"
p2744
tp2745
I1
s(Vinsert
p2746
I42
VSimpleName: intervalSigDigit
p2747
tp2748
I1
s(Vinsert
p2749
I66
VTextElement: Sets the size of the label-text.
p2750
tp2751
I1
s(Vinsert
p2752
I42
VSimpleName: center
p2753
tp2754
I8
s(Vinsert
p2755
I42
VSimpleName: ds3
p2756
tp2757
I1
s(Vinsert
p2758
I42
VSimpleName: getBodyRange
p2759
tp2760
I1
s(Vinsert
p2761
I40
VQualifiedName: Legend.LegendHorizontalAlignment.CENTER
p2762
tp2763
I1
s(Vinsert
p2764
I42
VSimpleName: getVals
p2765
tp2766
I6
s(Vinsert
p2767
I42
VSimpleName: scaleY
p2768
tp2769
I11
s(Vinsert
p2770
I42
VSimpleName: postJob
p2771
tp2772
I1
s(Vinsert
p2773
I42
VSimpleName: calculatedLabelSizes
p2774
tp2775
I1
s(Vinsert
p2776
I42
VSimpleName: mLastHighlight
p2777
tp2778
I3
s(Vinsert
p2779
I66
VTextElement: Sets the radius of the hole in the shape
p2780
tp2781
I2
s(Vinsert
p2782
I42
VSimpleName: format
p2783
tp2784
I20
s(Vinsert
p2785
I42
VSimpleName: pointBuffer
p2786
tp2787
I1
s(Vinsert
p2788
I42
VSimpleName: setGroupSpace
p2789
tp2790
I1
s(Vinsert
p2791
I42
VSimpleName: getContext
p2792
tp2793
I4
s(Vinsert
p2794
I66
VTextElement: DataSet, there is no group-space needed).
p2795
tp2796
I1
s(Vinsert
p2797
I74
VParameterizedType: HashMap<>
p2798
tp2799
I2
s(Vinsert
p2800
I40
VQualifiedName: com.github.mikephil.charting.utils.MPPointF
p2801
tp2802
I2
s(Vinsert
p2803
I42
VSimpleName: getDefaultValueFormatter
p2804
tp2805
I1
s(Vinsert
p2806
I42
VSimpleName: setPathEffect
p2807
tp2808
I7
s(Vinsert
p2809
I42
VSimpleName: paint
p2810
tp2811
I7
s(Vinsert
p2812
I40
VQualifiedName: center.x
p2813
tp2814
I2
s(Vinsert
p2815
I42
VSimpleName: BarLineChartTouchListener
p2816
tp2817
I2
s(Vinsert
p2818
I42
VSimpleName: minWidth
p2819
tp2820
I2
s(Vinsert
p2821
I42
VSimpleName: setColorTemplate
p2822
tp2823
I2
s(Vinsert
p2824
I42
VSimpleName: isZoomingOut
p2825
tp2826
I3
s(Vinsert
p2827
I43
VSimpleType: Thread
p2828
tp2829
I1
s(Vinsert
p2830
I42
VSimpleName: easing
p2831
tp2832
I4
s(Vinsert
p2833
I42
VSimpleName: mYValCount
p2834
tp2835
I1
s(Vinsert
p2836
I42
VSimpleName: mApproximator
p2837
tp2838
I2
s(Vinsert
p2839
I45
VStringLiteral: "MPChart-FileUtils"
p2840
tp2841
I1
s(Vinsert
p2842
I42
VSimpleName: getDecreasingColors
p2843
tp2844
I1
s(Vinsert
p2845
I42
VSimpleName: LineDataSet
p2846
tp2847
I33
s(Vinsert
p2848
I40
VQualifiedName: MotionEvent.ACTION_DOWN
p2849
tp2850
I1
s(Vinsert
p2851
I42
VSimpleName: setZeroLineWidth
p2852
tp2853
I2
s(Vinsert
p2854
I42
VSimpleName: mBarSpace
p2855
tp2856
I1
s(Vinsert
p2857
I42
VSimpleName: dataIndices
p2858
tp2859
I2
s(Vinsert
p2860
I42
VSimpleName: ViewPortHandler
p2861
tp2862
I4
s(Vinsert
p2863
I42
VSimpleName: newTransX
p2864
tp2865
I1
s(Vinsert
p2866
I66
VTextElement: returns the y-value at the given index
p2867
tp2868
I1
s(Vinsert
p2869
I42
VSimpleName: mDescriptionPosition
p2870
tp2871
I1
s(Vinsert
p2872
I42
VSimpleName: start
p2873
tp2874
I10
s(Vinsert
p2875
I74
VParameterizedType: ArrayList<BubbleDataSet>
p2876
tp2877
I1
s(Vinsert
p2878
I42
VSimpleName: enableDashedLine
p2879
tp2880
I3
s(Vinsert
p2881
I42
VSimpleName: getXValue
p2882
tp2883
I1
s(Vinsert
p2884
I42
VSimpleName: isLegendCustom
p2885
tp2886
I3
s(Vinsert
p2887
I42
VSimpleName: sin
p2888
tp2889
I1
s(Vinsert
p2890
I42
VSimpleName: readLine
p2891
tp2892
I1
s(Vinsert
p2893
I40
VQualifiedName: ColorTemplate.FRESH_COLORS
p2894
tp2895
I1
s(Vinsert
p2896
I42
VSimpleName: drawCycles
p2897
tp2898
I1
s(Vinsert
p2899
I42
VSimpleName: barData
p2900
tp2901
I4
s(Vinsert
p2902
I42
VSimpleName: SpannableString
p2903
tp2904
I3
s(Vinsert
p2905
I42
VSimpleName: xIndexField
p2906
tp2907
I1
s(Vinsert
p2908
I42
VSimpleName: mOriginalData
p2909
tp2910
I10
s(Vinsert
p2911
I66
VTextElement:  - the maximum y-value in the data object for this axis
p2912
tp2913
I1
s(Vinsert
p2914
I34
VNumberLiteral: 120f
p2915
tp2916
I1
s(Vinsert
p2917
I42
VSimpleName: setBorderStyles
p2918
tp2919
I1
s(Vinsert
p2920
I66
VTextElement: sets the starting angle of the rotation, this is only used by the touch listener, x and y is the touch position
p2921
tp2922
I1
s(Vinsert
p2923
I42
VSimpleName: log10
p2924
tp2925
I1
s(Vinsert
p2926
I42
VSimpleName: setDragDecelerationFrictionCoef
p2927
tp2928
I2
s(Vinsert
p2929
I42
VSimpleName: mLineData
p2930
tp2931
I2
s(Vinsert
p2932
I42
VSimpleName: translateY
p2933
tp2934
I2
s(Vinsert
p2935
I42
VSimpleName: mCandleData
p2936
tp2937
I1
s(Vinsert
p2938
I42
VSimpleName: setDrawUnitsInYLabel
p2939
tp2940
I1
s(Vinsert
p2941
I74
VParameterizedType: ArrayList<DataSet>
p2942
tp2943
I8
s(Vinsert
p2944
I42
VSimpleName: addColor
p2945
tp2946
I2
s(Vinsert
p2947
I42
VSimpleName: low
p2948
tp2949
I13
s(Vinsert
p2950
I43
VSimpleType: DialogInterface
p2951
tp2952
I1
s(Vinsert
p2953
I42
VSimpleName: barWidthHalf
p2954
tp2955
I2
s(Vinsert
p2956
I42
VSimpleName: bottom
p2957
tp2958
I6
s(Vinsert
p2959
I66
VTextElement: ChartData object.
p2960
tp2961
I1
s(Vinsert
p2962
I42
VSimpleName: setScatterShapes
p2963
tp2964
I1
s(Vinsert
p2965
I42
VSimpleName: getYVals
p2966
tp2967
I11
s(Vinsert
p2968
I42
VSimpleName: fillColor
p2969
tp2970
I1
s(Vinsert
p2971
I42
VSimpleName: getValueTextColor
p2972
tp2973
I8
s(Vinsert
p2974
I43
VSimpleType: Runnable
p2975
tp2976
I6
s(Vinsert
p2977
I42
VSimpleName: isDrawCircleHoleEnabled
p2978
tp2979
I1
s(Vinsert
p2980
I42
VSimpleName: prevDx
p2981
tp2982
I1
s(Vinsert
p2983
I42
VSimpleName: contentBottom
p2984
tp2985
I3
s(Vinsert
p2986
I43
VSimpleType: T
p2987
tp2988
I13
s(Vinsert
p2989
I42
VSimpleName: mRes
p2990
tp2991
I1
s(Vinsert
p2992
I42
VSimpleName: small
p2993
tp2994
I2
s(Vinsert
p2995
I42
VSimpleName: maxLeft
p2996
tp2997
I2
s(Vinsert
p2998
I42
VSimpleName: getDataCurrent
p2999
tp3000
I8
s(Vinsert
p3001
I42
VSimpleName: animateY
p3002
tp3003
I7
s(Vinsert
p3004
I42
VSimpleName: rounding
p3005
tp3006
I3
s(Vinsert
p3007
I42
VSimpleName: RealmObject
p3008
tp3009
I1
s(Vinsert
p3010
I42
VSimpleName: holder
p3011
tp3012
I4
s(Vinsert
p3013
I42
VSimpleName: mDrawValueAboveBar
p3014
tp3015
I1
s(Vinsert
p3016
I42
VSimpleName: getTextStyle
p3017
tp3018
I1
s(Vinsert
p3019
I43
VSimpleType: IBarDataSet
p3020
tp3021
I10
s(Vinsert
p3022
I40
VQualifiedName: AxisDependency.RIGHT
p3023
tp3024
I2
s(Vinsert
p3025
I38
VPrefixExpression: -
p3026
tp3027
I44
s(Vinsert
p3028
I42
VSimpleName: fromParts
p3029
tp3030
I1
s(Vinsert
p3031
I43
VSimpleType: DisplayMetrics
p3032
tp3033
I1
s(Vinsert
p3034
I43
VSimpleType: Date
p3035
tp3036
I1
s(Vinsert
p3037
I42
VSimpleName: getIntrinsicHeight
p3038
tp3039
I1
s(Vinsert
p3040
I42
VSimpleName: Score
p3041
tp3042
I4
s(Vinsert
p3043
I42
VSimpleName: shapeHalf
p3044
tp3045
I7
s(Vinsert
p3046
I42
VSimpleName: Intent
p3047
tp3048
I4
s(Vinsert
p3049
I42
VSimpleName: mOffsetTop
p3050
tp3051
I4
s(Vinsert
p3052
I42
VSimpleName: pOut
p3053
tp3054
I3
s(Vinsert
p3055
I42
VSimpleName: isDrawYValuesEnabled
p3056
tp3057
I1
s(Vinsert
p3058
I34
VNumberLiteral: 7f
p3059
tp3060
I2
s(Vinsert
p3061
I42
VSimpleName: getFormatter
p3062
tp3063
I3
s(Vinsert
p3064
I42
VSimpleName: mYMax
p3065
tp3066
I14
s(Vinsert
p3067
I42
VSimpleName: getScatterShapeNames
p3068
tp3069
I4
s(Vinsert
p3070
I85
VDimension
p3071
tp3072
I51
s(Vinsert
p3073
I42
VSimpleName: getIncreasingColor
p3074
tp3075
I3
s(Vinsert
p3076
I43
VSimpleType: BarChart
p3077
tp3078
I4
s(Vinsert
p3079
I42
VSimpleName: mDeltaX
p3080
tp3081
I8
s(Vinsert
p3082
I42
VSimpleName: getFormToTextSpace
p3083
tp3084
I3
s(Vinsert
p3085
I42
VSimpleName: maxDistIndex
p3086
tp3087
I1
s(Vinsert
p3088
I42
VSimpleName: div
p3089
tp3090
I1
s(Vinsert
p3091
I42
VSimpleName: reduceWithDouglasPeucker
p3092
tp3093
I1
s(Vinsert
p3094
I42
VSimpleName: minRight
p3095
tp3096
I3
s(Vinsert
p3097
I40
VQualifiedName: Double.POSITIVE_INFINITY
p3098
tp3099
I1
s(Vinsert
p3100
I40
VQualifiedName: Style.FILL
p3101
tp3102
I3
s(Vinsert
p3103
I42
VSimpleName: WeakReference
p3104
tp3105
I4
s(Vinsert
p3106
I42
VSimpleName: drawTransparentCircleHole
p3107
tp3108
I2
s(Vinsert
p3109
I42
VSimpleName: dataSets
p3110
tp3111
I28
s(Vinsert
p3112
I42
VSimpleName: setScatterShape
p3113
tp3114
I3
s(Vinsert
p3115
I42
VSimpleName: mPhaseX
p3116
tp3117
I2
s(Vinsert
p3118
I42
VSimpleName: formTextSpaceAndForm
p3119
tp3120
I1
s(Vinsert
p3121
I42
VSimpleName: setSpaceBetweenLabels
p3122
tp3123
I1
s(Vinsert
p3124
I42
VSimpleName: clipRect
p3125
tp3126
I2
s(Vinsert
p3127
I66
VTextElement: Returns the Transformer class that contains all matrices and is
p3128
tp3129
I1
s(Vinsert
p3130
I42
VSimpleName: setRotationAngle
p3131
tp3132
I1
s(Vinsert
p3133
I42
VSimpleName: ApproximatorType
p3134
tp3135
I2
s(Vinsert
p3136
I45
VStringLiteral: "Utils NOT INITIALIZED. You need to call Utils.init(...) at least once before calling Utils.convertDpToPixel(...). Otherwise conversion does not take place."
p3137
tp3138
I1
s(Vinsert
p3139
I40
VQualifiedName: mOffset2.x
p3140
tp3141
I2
s(Vinsert
p3142
I40
VQualifiedName: mYAxis.mAxisMaximum
p3143
tp3144
I1
s(Vinsert
p3145
I34
VNumberLiteral: 1008f
p3146
tp3147
I1
s(Vinsert
p3148
I42
VSimpleName: resetAnimator
p3149
tp3150
I1
s(Vinsert
p3151
I42
VSimpleName: DataRenderer
p3152
tp3153
I1
s(Vinsert
p3154
I43
VSimpleType: MoveViewJob
p3155
tp3156
I2
s(Vinsert
p3157
I42
VSimpleName: setLineWidth
p3158
tp3159
I4
s(Vinsert
p3160
I40
VQualifiedName: mYLegend.mEntries
p3161
tp3162
I1
s(Vinsert
p3163
I42
VSimpleName: OnChartGestureListener
p3164
tp3165
I4
s(Vinsert
p3166
I78
VMarkerAnnotation
p3167
tp3168
I30
s(Vinsert
p3169
I42
VSimpleName: LINE
p3170
tp3171
I1
s(Vinsert
p3172
I40
VQualifiedName: klick.y
p3173
tp3174
I1
s(Vinsert
p3175
I42
VSimpleName: mCustomGranularity
p3176
tp3177
I1
s(Vinsert
p3178
I42
VSimpleName: onClick
p3179
tp3180
I2
s(Vinsert
p3181
I42
VSimpleName: bubbleData
p3182
tp3183
I1
s(Vinsert
p3184
I42
VSimpleName: realmObject
p3185
tp3186
I2
s(Vinsert
p3187
I42
VSimpleName: mTfRegular
p3188
tp3189
I1
s(Vinsert
p3190
I42
VSimpleName: ViewParent
p3191
tp3192
I1
s(Vinsert
p3193
I42
VSimpleName: scaleRatio
p3194
tp3195
I1
s(Vinsert
p3196
I43
VSimpleType: Button
p3197
tp3198
I2
s(Vinsert
p3199
I42
VSimpleName: mMatrixOffset
p3200
tp3201
I6
s(Vinsert
p3202
I42
VSimpleName: getDataSetByLabel
p3203
tp3204
I2
s(Vinsert
p3205
I83
VModifier: public
p3206
tp3207
I117
s(Vinsert
p3208
I42
VSimpleName: setBitmap
p3209
tp3210
I2
s(Vinsert
p3211
I42
VSimpleName: getEntryForIndex
p3212
tp3213
I10
s(Vinsert
p3214
I42
VSimpleName: setVisibleXRange
p3215
tp3216
I1
s(Vinsert
p3217
I42
VSimpleName: phaseY
p3218
tp3219
I14
s(Vinsert
p3220
I42
VSimpleName: thread
p3221
tp3222
I4
s(Vinsert
p3223
I42
VSimpleName: AnimatedZoomJob
p3224
tp3225
I1
s(Vinsert
p3226
I74
VParameterizedType: List<ICandleDataSet>
p3227
tp3228
I1
s(Vinsert
p3229
I42
VSimpleName: getSelectionDetail
p3230
tp3231
I1
s(Vinsert
p3232
I42
VSimpleName: outputMatrix
p3233
tp3234
I5
s(Vinsert
p3235
I42
VSimpleName: formLineDashEffect
p3236
tp3237
I1
s(Vinsert
p3238
I42
VSimpleName: useCustomSuffix
p3239
tp3240
I2
s(Vinsert
p3241
I42
VSimpleName: yValue
p3242
tp3243
I5
s(Vinsert
p3244
I66
VTextElement: Returns the space that is left out between groups of bars. Always returns
p3245
tp3246
I1
s(Vinsert
p3247
I42
VSimpleName: setHighLightColor
p3248
tp3249
I2
s(Vinsert
p3250
I42
VSimpleName: reduction
p3251
tp3252
I1
s(Vinsert
p3253
I45
VStringLiteral: "Age Distribution"
p3254
tp3255
I1
s(Vinsert
p3256
I42
VSimpleName: mBitmapCanvas
p3257
tp3258
I6
s(Vinsert
p3259
I66
VTextElement: enables intercept touchevents
p3260
tp3261
I1
s(Vinsert
p3262
I5
VArrayType: Double[]
p3263
tp3264
I2
s(Vinsert
p3265
I42
VSimpleName: setSpaceTop
p3266
tp3267
I5
s(Vinsert
p3268
I40
VQualifiedName: rotatedSize.height
p3269
tp3270
I1
s(Vinsert
p3271
I42
VSimpleName: setMode
p3272
tp3273
I2
s(Vinsert
p3274
I7
VAssignment: +=
p3275
tp3276
I43
s(Vinsert
p3277
I42
VSimpleName: generateCenterText
p3278
tp3279
I1
s(Vinsert
p3280
I42
VSimpleName: xAxisModulus
p3281
tp3282
I3
s(Vinsert
p3283
I42
VSimpleName: digits
p3284
tp3285
I3
s(Vinsert
p3286
I40
VQualifiedName: result.view
p3287
tp3288
I1
s(Vinsert
p3289
I27
VInfixExpression: -
p3290
tp3291
I61
s(Vinsert
p3292
I45
VStringLiteral: "New DataSet "
p3293
tp3294
I1
s(Vinsert
p3295
I42
VSimpleName: val2
p3296
tp3297
I2
s(Vinsert
p3298
I40
VQualifiedName: YAxis.AxisDependency.RIGHT
p3299
tp3300
I1
s(Vinsert
p3301
I42
VSimpleName: values
p3302
tp3303
I23
s(Vinsert
p3304
I40
VQualifiedName: XAxisPosition.TOP
p3305
tp3306
I2
s(Vinsert
p3307
I74
VParameterizedType: DataSet<?>
p3308
tp3309
I7
s(Vinsert
p3310
I42
VSimpleName: point
p3311
tp3312
I1
s(Vinsert
p3313
I42
VSimpleName: setDrawGridLines
p3314
tp3315
I11
s(Vinsert
p3316
I43
VSimpleType: View
p3317
tp3318
I9
s(Vinsert
p3319
I42
VSimpleName: Thread
p3320
tp3321
I2
s(Vinsert
p3322
I42
VSimpleName: Integer
p3323
tp3324
I17
s(Vinsert
p3325
I42
VSimpleName: mValueColors
p3326
tp3327
I2
s(Vinsert
p3328
I42
VSimpleName: setSpaceMax
p3329
tp3330
I3
s(Vinsert
p3331
I42
VSimpleName: getAngleForPoint
p3332
tp3333
I2
s(Vinsert
p3334
I42
VSimpleName: mScatterShape
p3335
tp3336
I2
s(Vinsert
p3337
I42
VSimpleName: getValues
p3338
tp3339
I7
s(Vinsert
p3340
I42
VSimpleName: firstEntry
p3341
tp3342
I1
s(Vinsert
p3343
I42
VSimpleName: setColors
p3344
tp3345
I9
s(Vinsert
p3346
I66
VTextElement: dimensions or adds the job to the execution queue.
p3347
tp3348
I1
s(Vinsert
p3349
I42
VSimpleName: skippedIndexes
p3350
tp3351
I1
s(Vinsert
p3352
I42
VSimpleName: objectCount
p3353
tp3354
I2
s(Vinsert
p3355
I43
VSimpleType: DataSetImageCache
p3356
tp3357
I1
s(Vinsert
p3358
I42
VSimpleName: getSum
p3359
tp3360
I1
s(Vinsert
p3361
I42
VSimpleName: mShadowHigh
p3362
tp3363
I1
s(Vinsert
p3364
I42
VSimpleName: TestPoolable
p3365
tp3366
I2
s(Vinsert
p3367
I42
VSimpleName: filtered
p3368
tp3369
I1
s(Vinsert
p3370
I4
VArrayInitializer
p3371
tp3372
I17
s(Vinsert
p3373
I42
VSimpleName: mYChartMax
p3374
tp3375
I3
s(Vinsert
p3376
I42
VSimpleName: setDescriptionColor
p3377
tp3378
I1
s(Vinsert
p3379
I42
VSimpleName: stackValues
p3380
tp3381
I2
s(Vinsert
p3382
I42
VSimpleName: maxScale
p3383
tp3384
I2
s(Vinsert
p3385
I42
VSimpleName: topColors
p3386
tp3387
I1
s(Vinsert
p3388
I42
VSimpleName: posForGetLowestVisibleX
p3389
tp3390
I1
s(Vinsert
p3391
I74
VParameterizedType: ArrayList<S>
p3392
tp3393
I1
s(Vinsert
p3394
I42
VSimpleName: endsWith
p3395
tp3396
I1
s(Vinsert
p3397
I34
VNumberLiteral: 15
p3398
tp3399
I2
s(Vinsert
p3400
I42
VSimpleName: previousColor
p3401
tp3402
I1
s(Vinsert
p3403
I42
VSimpleName: TOP
p3404
tp3405
I1
s(Vinsert
p3406
I42
VSimpleName: mChartHeight
p3407
tp3408
I1
s(Vinsert
p3409
I42
VSimpleName: drawLabel
p3410
tp3411
I1
s(Vinsert
p3412
I42
VSimpleName: lowestVisibleXIndex
p3413
tp3414
I1
s(Vinsert
p3415
I42
VSimpleName: findAll
p3416
tp3417
I10
s(Vinsert
p3418
I42
VSimpleName: entryIndex
p3419
tp3420
I4
s(Vinsert
p3421
I42
VSimpleName: menu
p3422
tp3423
I3
s(Vinsert
p3424
I42
VSimpleName: numericValue2
p3425
tp3426
I1
s(Vinsert
p3427
I34
VNumberLiteral: 10.f
p3428
tp3429
I1
s(Vinsert
p3430
I42
VSimpleName: getLowestVisibleX
p3431
tp3432
I3
s(Vinsert
p3433
I42
VSimpleName: prepareMatrixOffset
p3434
tp3435
I2
s(Vinsert
p3436
I42
VSimpleName: filePath
p3437
tp3438
I1
s(Vinsert
p3439
I42
VSimpleName: getDouble
p3440
tp3441
I1
s(Vinsert
p3442
I42
VSimpleName: System
p3443
tp3444
I4
s(Vinsert
p3445
I42
VSimpleName: transformRect
p3446
tp3447
I3
s(Vinsert
p3448
I43
VSimpleType: Paint.FontMetrics
p3449
tp3450
I3
s(Vinsert
p3451
I42
VSimpleName: AnimationUtils
p3452
tp3453
I1
s(Vinsert
p3454
I42
VSimpleName: setShadowColor
p3455
tp3456
I3
s(Vinsert
p3457
I40
VQualifiedName: com.github.mikephil.charting.utils.XLabels
p3458
tp3459
I1
s(Vinsert
p3460
I42
VSimpleName: rects
p3461
tp3462
I2
s(Vinsert
p3463
I45
VStringLiteral: ", y: "
p3464
tp3465
I1
s(Vinsert
p3466
I42
VSimpleName: mVal
p3467
tp3468
I1
s(Vinsert
p3469
I40
VQualifiedName: point.dy
p3470
tp3471
I1
s(Vinsert
p3472
I42
VSimpleName: getEntryForXIndex
p3473
tp3474
I5
s(Vinsert
p3475
I42
VSimpleName: animatorX
p3476
tp3477
I1
s(Vinsert
p3478
I66
VTextElement: Sets the width of the candle-shadow-line in pixels. Default 3f.
p3479
tp3480
I2
s(Vinsert
p3481
I42
VSimpleName: mInfoPaint
p3482
tp3483
I2
s(Vinsert
p3484
I42
VSimpleName: getSliceSpace
p3485
tp3486
I2
s(Vinsert
p3487
I42
VSimpleName: LineChartFrag
p3488
tp3489
I1
s(Vinsert
p3490
I42
VSimpleName: mPosition
p3491
tp3492
I2
s(Vinsert
p3493
I66
VTextElement:  if true, the search is not case-sensitive
p3494
tp3495
I1
s(Vinsert
p3496
I42
VSimpleName: dataSetFromAssets
p3497
tp3498
I1
s(Vinsert
p3499
I42
VSimpleName: filledPath
p3500
tp3501
I1
s(Vinsert
p3502
I42
VSimpleName: mGestureDetector
p3503
tp3504
I1
s(Vinsert
p3505
I42
VSimpleName: setDrawIcons
p3506
tp3507
I5
s(Vinsert
p3508
I24
VForStatement
p3509
tp3510
I59
s(Vinsert
p3511
I42
VSimpleName: rotationAngle
p3512
tp3513
I2
s(Vinsert
p3514
I42
VSimpleName: allObjects
p3515
tp3516
I4
s(Vinsert
p3517
I43
VSimpleType: MPPointF
p3518
tp3519
I8
s(Vinsert
p3520
I42
VSimpleName: PointD
p3521
tp3522
I11
s(Vinsert
p3523
I42
VSimpleName: entries1
p3524
tp3525
I1
s(Vinsert
p3526
I42
VSimpleName: getDisplayMetrics
p3527
tp3528
I2
s(Vinsert
p3529
I42
VSimpleName: negOffset
p3530
tp3531
I5
s(Vinsert
p3532
I42
VSimpleName: wasStacked
p3533
tp3534
I3
s(Vinsert
p3535
I42
VSimpleName: isLegal
p3536
tp3537
I1
s(Vinsert
p3538
I42
VSimpleName: getIcon
p3539
tp3540
I10
s(Vinsert
p3541
I34
VNumberLiteral: 1.f
p3542
tp3543
I5
s(Vinsert
p3544
I42
VSimpleName: textView
p3545
tp3546
I3
s(Vinsert
p3547
I40
VQualifiedName: com.github.mikephil.charting.utils.Legend.LegendPosition
p3548
tp3549
I1
s(Vinsert
p3550
I42
VSimpleName: CANDLE
p3551
tp3552
I1
s(Vinsert
p3553
I42
VSimpleName: Toast
p3554
tp3555
I2
s(Vinsert
p3556
I42
VSimpleName: setDecreasingPaintStyle
p3557
tp3558
I1
s(Vinsert
p3559
I42
VSimpleName: closest
p3560
tp3561
I10
s(Vinsert
p3562
I42
VSimpleName: getPaintTransparentCircle
p3563
tp3564
I1
s(Vinsert
p3565
I34
VNumberLiteral: 4
p3566
tp3567
I4
s(Vinsert
p3568
I42
VSimpleName: drawPath
p3569
tp3570
I1
s(Vinsert
p3571
I42
VSimpleName: mRenderPaint
p3572
tp3573
I29
s(Vinsert
p3574
I45
VStringLiteral: ".png"
p3575
tp3576
I1
s(Vinsert
p3577
I42
VSimpleName: addEmptyData
p3578
tp3579
I1
s(Vinsert
p3580
I42
VSimpleName: DataSet
p3581
tp3582
I23
s(Vinsert
p3583
I42
VSimpleName: mMatrix
p3584
tp3585
I5
s(Vinsert
p3586
I42
VSimpleName: setDrawUnitsInChart
p3587
tp3588
I1
s(Vinsert
p3589
I42
VSimpleName: entryFrom
p3590
tp3591
I5
s(Vinsert
p3592
I42
VSimpleName: j
p3593
tp3594
I56
s(Vinsert
p3595
I42
VSimpleName: ColorTemplate
p3596
tp3597
I2
s(Vinsert
p3598
I48
VSuperMethodInvocation
p3599
tp3600
I16
s(Vinsert
p3601
I42
VSimpleName: type
p3602
tp3603
I5
s(Vinsert
p3604
I42
VSimpleName: isInBoundsBottom
p3605
tp3606
I1
s(Vinsert
p3607
I42
VSimpleName: durationMillisX
p3608
tp3609
I1
s(Vinsert
p3610
I42
VSimpleName: getScaleX
p3611
tp3612
I4
s(Vinsert
p3613
I42
VSimpleName: setAxisDependency
p3614
tp3615
I2
s(Vinsert
p3616
I42
VSimpleName: bodySpace
p3617
tp3618
I1
s(Vinsert
p3619
I42
VSimpleName: getAxisMinValue
p3620
tp3621
I5
s(Vinsert
p3622
I42
VSimpleName: mLogEnabled
p3623
tp3624
I3
s(Vinsert
p3625
I42
VSimpleName: beforeRound
p3626
tp3627
I1
s(Vinsert
p3628
I34
VNumberLiteral: 2.0
p3629
tp3630
I1
s(Vinsert
p3631
I42
VSimpleName: setHighlightCircleWidth
p3632
tp3633
I1
s(Vinsert
p3634
I40
VQualifiedName: R.id.actionToggleHorizontalCubic
p3635
tp3636
I1
s(Vinsert
p3637
I66
VTextElement:  a predefined easing option
p3638
tp3639
I1
s(Vinsert
p3640
I42
VSimpleName: layout
p3641
tp3642
I3
s(Vinsert
p3643
I42
VSimpleName: toSimpleString
p3644
tp3645
I2
s(Vinsert
p3646
I45
VStringLiteral: "Pasta"
p3647
tp3648
I1
s(Vinsert
p3649
I42
VSimpleName: metrics
p3650
tp3651
I2
s(Vinsert
p3652
I43
VSimpleType: IScatterDataSet
p3653
tp3654
I1
s(Vinsert
p3655
I42
VSimpleName: IBarDataSet
p3656
tp3657
I10
s(Vinsert
p3658
I42
VSimpleName: writeToDBStack
p3659
tp3660
I2
s(Vinsert
p3661
I42
VSimpleName: mBarBuffers
p3662
tp3663
I1
s(Vinsert
p3664
I42
VSimpleName: getEntryForXPos
p3665
tp3666
I6
s(Vinsert
p3667
I43
VSimpleType: S
p3668
tp3669
I3
s(Vinsert
p3670
I42
VSimpleName: addDataSetColors
p3671
tp3672
I1
s(Vinsert
p3673
I42
VSimpleName: getIndexInSeries
p3674
tp3675
I1
s(Vinsert
p3676
I40
VQualifiedName: Paint.Style.FILL
p3677
tp3678
I2
s(Vinsert
p3679
I60
VVariableDeclarationStatement
p3680
tp3681
I422
s(Vinsert
p3682
I42
VSimpleName: usesCustomApprox
p3683
tp3684
I1
s(Vinsert
p3685
I42
VSimpleName: mExtraLabels
p3686
tp3687
I1
s(Vinsert
p3688
I42
VSimpleName: LegendEntry
p3689
tp3690
I2
s(Vinsert
p3691
I45
VStringLiteral: "10"
p3692
tp3693
I1
s(Vinsert
p3694
I34
VNumberLiteral: 0.2f
p3695
tp3696
I1
s(Vinsert
p3697
I43
VSimpleType: AxisBase
p3698
tp3699
I5
s(Vinsert
p3700
I40
VQualifiedName: Align.RIGHT
p3701
tp3702
I3
s(Vinsert
p3703
I42
VSimpleName: getXPx
p3704
tp3705
I1
s(Vinsert
p3706
I42
VSimpleName: yl
p3707
tp3708
I5
s(Vinsert
p3709
I42
VSimpleName: renderAxisLine
p3710
tp3711
I2
s(Vinsert
p3712
I42
VSimpleName: mDrawable
p3713
tp3714
I2
s(Vinsert
p3715
I42
VSimpleName: xShadow
p3716
tp3717
I2
s(Vinsert
p3718
I42
VSimpleName: mVals
p3719
tp3720
I2
s(Vinsert
p3721
I42
VSimpleName: Typeface
p3722
tp3723
I15
s(Vinsert
p3724
I42
VSimpleName: mValueFormatter
p3725
tp3726
I1
s(Vinsert
p3727
I40
VQualifiedName: com.github.mikephil.charting.utils.YLabels.YLabelPosition
p3728
tp3729
I1
s(Vinsert
p3730
I42
VSimpleName: clrs
p3731
tp3732
I10
s(Vinsert
p3733
I42
VSimpleName: getYMax
p3734
tp3735
I8
s(Vinsert
p3736
I45
VStringLiteral: "---"
p3737
tp3738
I1
s(Vinsert
p3739
I42
VSimpleName: mDecimals
p3740
tp3741
I1
s(Vinsert
p3742
I22
VFieldAccess
p3743
tp3744
I40
s(Vinsert
p3745
I42
VSimpleName: mBorderPaint
p3746
tp3747
I2
s(Vinsert
p3748
I42
VSimpleName: Character
p3749
tp3750
I1
s(Vinsert
p3751
I40
VQualifiedName: c1.x
p3752
tp3753
I1
s(Vinsert
p3754
I42
VSimpleName: reference
p3755
tp3756
I1
s(Vinsert
p3757
I42
VSimpleName: drawZeroLine
p3758
tp3759
I2
s(Vinsert
p3760
I42
VSimpleName: r
p3761
tp3762
I18
s(Vinsert
p3763
I42
VSimpleName: month
p3764
tp3765
I1
s(Vinsert
p3766
I42
VSimpleName: strokeWidth
p3767
tp3768
I1
s(Vinsert
p3769
I34
VNumberLiteral: 9500000f
p3770
tp3771
I1
s(Vinsert
p3772
I42
VSimpleName: xOffset
p3773
tp3774
I8
s(Vinsert
p3775
I42
VSimpleName: getChildAt
p3776
tp3777
I2
s(Vinsert
p3778
I42
VSimpleName: maxx
p3779
tp3780
I4
s(Vinsert
p3781
I42
VSimpleName: canZoomMoreX
p3782
tp3783
I1
s(Vinsert
p3784
I42
VSimpleName: resetZoom
p3785
tp3786
I3
s(Vinsert
p3787
I42
VSimpleName: decimals
p3788
tp3789
I1
s(Vinsert
p3790
I40
VQualifiedName: outputPoint.y
p3791
tp3792
I1
s(Vinsert
p3793
I42
VSimpleName: getAssets
p3794
tp3795
I9
s(Vinsert
p3796
I42
VSimpleName: ICandleDataSet
p3797
tp3798
I3
s(Vinsert
p3799
I43
VSimpleType: Message
p3800
tp3801
I1
s(Vinsert
p3802
I40
VQualifiedName: R.id.actionToggleValues
p3803
tp3804
I1
s(Vinsert
p3805
I42
VSimpleName: spacing
p3806
tp3807
I2
s(Vinsert
p3808
I42
VSimpleName: prevPrev
p3809
tp3810
I2
s(Vinsert
p3811
I40
VQualifiedName: bottomRight.y
p3812
tp3813
I1
s(Vinsert
p3814
I42
VSimpleName: cos
p3815
tp3816
I5
s(Vinsert
p3817
I42
VSimpleName: be
p3818
tp3819
I2
s(Vinsert
p3820
I43
VSimpleType: XAxisValue
p3821
tp3822
I7
s(Vinsert
p3823
I42
VSimpleName: mXChartMax
p3824
tp3825
I1
s(Vinsert
p3826
I45
VStringLiteral: "Simple demonstration of a time-chart."
p3827
tp3828
I1
s(Vinsert
p3829
I74
VParameterizedType: ArrayList<BarDataSet>
p3830
tp3831
I2
s(Vinsert
p3832
I43
VSimpleType: AnimationEasing.EasingFunction
p3833
tp3834
I1
s(Vinsert
p3835
I42
VSimpleName: mLabels
p3836
tp3837
I3
s(Vinsert
p3838
I42
VSimpleName: String
p3839
tp3840
I62
s(Vinsert
p3841
I42
VSimpleName: maxDataSetIndex
p3842
tp3843
I4
s(Vinsert
p3844
I34
VNumberLiteral: 0.f
p3845
tp3846
I17
s(Vinsert
p3847
I40
VQualifiedName: android.graphics.Paint
p3848
tp3849
I1
s(Vinsert
p3850
I43
VSimpleType: RealmObject
p3851
tp3852
I1
s(Vinsert
p3853
I42
VSimpleName: isScaleXEnabled
p3854
tp3855
I2
s(Vinsert
p3856
I42
VSimpleName: strings
p3857
tp3858
I1
s(Vinsert
p3859
I42
VSimpleName: getHighestVisibleX
p3860
tp3861
I3
s(Vinsert
p3862
I40
VQualifiedName: MeasureSpec.UNSPECIFIED
p3863
tp3864
I2
s(Vinsert
p3865
I42
VSimpleName: getCenter
p3866
tp3867
I2
s(Vinsert
p3868
I34
VNumberLiteral: 15f
p3869
tp3870
I1
s(Vinsert
p3871
I42
VSimpleName: getCircleColorCount
p3872
tp3873
I1
s(Vinsert
p3874
I42
VSimpleName: c
p3875
tp3876
I39
s(Vinsert
p3877
I43
VSimpleType: ForegroundColorSpan
p3878
tp3879
I1
s(Vinsert
p3880
I34
VNumberLiteral: 0.0
p3881
tp3882
I4
s(Vinsert
p3883
I42
VSimpleName: yAxis
p3884
tp3885
I4
s(Vinsert
p3886
I42
VSimpleName: xPosition
p3887
tp3888
I2
s(Vinsert
p3889
I42
VSimpleName: Parcel
p3890
tp3891
I1
s(Vinsert
p3892
I42
VSimpleName: clipRestoreCount
p3893
tp3894
I4
s(Vinsert
p3895
I42
VSimpleName: getFloat
p3896
tp3897
I4
s(Vinsert
p3898
I42
VSimpleName: endYear
p3899
tp3900
I5
s(Vinsert
p3901
I42
VSimpleName: formToTextSpace
p3902
tp3903
I2
s(Vinsert
p3904
I42
VSimpleName: TextUtils
p3905
tp3906
I1
s(Vinsert
p3907
I42
VSimpleName: hasMovedToPoint
p3908
tp3909
I2
s(Vinsert
p3910
I42
VSimpleName: Message
p3911
tp3912
I1
s(Vinsert
p3913
I42
VSimpleName: yIndex
p3914
tp3915
I1
s(Vinsert
p3916
I42
VSimpleName: makeText
p3917
tp3918
I3
s(Vinsert
p3919
I25
VIfStatement
p3920
tp3921
I294
s(Vinsert
p3922
I40
VQualifiedName: Legend.LegendDirection.RIGHT_TO_LEFT
p3923
tp3924
I2
s(Vinsert
p3925
I42
VSimpleName: intervalMagnitude
p3926
tp3927
I2
s(Vinsert
p3928
I66
VTextElement: Sets the width of the highlight line in dp.
p3929
tp3930
I2
s(Vinsert
p3931
I40
VQualifiedName: mDecelerationVelocity.y
p3932
tp3933
I1
s(Vinsert
p3934
I42
VSimpleName: Approximator
p3935
tp3936
I3
s(Vinsert
p3937
I42
VSimpleName: hasChartDimens
p3938
tp3939
I3
s(Vinsert
p3940
I40
VQualifiedName: R.color.vordiplom_3
p3941
tp3942
I1
s(Vinsert
p3943
I42
VSimpleName: dX
p3944
tp3945
I3
s(Vinsert
p3946
I42
VSimpleName: setChartDimens
p3947
tp3948
I1
s(Vinsert
p3949
I43
VSimpleType: DashPathEffect
p3950
tp3951
I2
s(Vinsert
p3952
I42
VSimpleName: minSelectionDistance
p3953
tp3954
I1
s(Vinsert
p3955
I42
VSimpleName: sliceangle
p3956
tp3957
I2
s(Vinsert
p3958
I42
VSimpleName: getDefaultInstance
p3959
tp3960
I2
s(Vinsert
p3961
I43
VSimpleType: Paint
p3962
tp3963
I8
s(Vinsert
p3964
I42
VSimpleName: ScatterDataSet
p3965
tp3966
I6
s(Vinsert
p3967
I42
VSimpleName: mTextSize
p3968
tp3969
I2
s(Vinsert
p3970
I43
VSimpleType: Menu
p3971
tp3972
I3
s(Vinsert
p3973
I42
VSimpleName: mIndicesToHightlight
p3974
tp3975
I3
s(Vinsert
p3976
I42
VSimpleName: DynamicRealmObject
p3977
tp3978
I32
s(Vinsert
p3979
I43
VSimpleType: Approximator
p3980
tp3981
I3
s(Vinsert
p3982
I42
VSimpleName: newDist
p3983
tp3984
I3
s(Vinsert
p3985
I40
VQualifiedName: mXAxis.mAxisRange
p3986
tp3987
I2
s(Vinsert
p3988
I42
VSimpleName: mXVals
p3989
tp3990
I2
s(Vinsert
p3991
I42
VSimpleName: job
p3992
tp3993
I4
s(Vinsert
p3994
I42
VSimpleName: mRightAxisMin
p3995
tp3996
I2
s(Vinsert
p3997
I43
VSimpleType: BarData
p3998
tp3999
I6
s(Vinsert
p4000
I42
VSimpleName: isHighLightPerTapEnabled
p4001
tp4002
I2
s(Vinsert
p4003
I42
VSimpleName: fitsBounds
p4004
tp4005
I1
s(Vinsert
p4006
I38
VPrefixExpression: !
p4007
tp4008
I54
s(Vinsert
p4009
I43
VSimpleType: IPieDataSet
p4010
tp4011
I2
s(Vinsert
p4012
I34
VNumberLiteral: 70
p4013
tp4014
I2
s(Vinsert
p4015
I40
VQualifiedName: R.id.actionToggleBarValues
p4016
tp4017
I1
s(Vinsert
p4018
I42
VSimpleName: setExtraRightOffset
p4019
tp4020
I1
s(Vinsert
p4021
I42
VSimpleName: in
p4022
tp4023
I2
s(Vinsert
p4024
I42
VSimpleName: getMeasuredWidth
p4025
tp4026
I2
s(Vinsert
p4027
I40
VQualifiedName: dragPoint.y
p4028
tp4029
I1
s(Vinsert
p4030
I42
VSimpleName: setLabelCount
p4031
tp4032
I4
s(Vinsert
p4033
I42
VSimpleName: mult
p4034
tp4035
I2
s(Vinsert
p4036
I42
VSimpleName: mRenderers
p4037
tp4038
I5
s(Vinsert
p4039
I42
VSimpleName: getAverage
p4040
tp4041
I1
s(Vinsert
p4042
I42
VSimpleName: getGridLineWidth
p4043
tp4044
I4
s(Vinsert
p4045
I40
VQualifiedName: com.github.mikephil.charting.utils.ColorTemplate
p4046
tp4047
I2
s(Vinsert
p4048
I42
VSimpleName: getMeasuredHeight
p4049
tp4050
I1
s(Vinsert
p4051
I42
VSimpleName: lv
p4052
tp4053
I2
s(Vinsert
p4054
I42
VSimpleName: dataSetCount
p4055
tp4056
I3
s(Vinsert
p4057
I42
VSimpleName: setSpan
p4058
tp4059
I3
s(Vinsert
p4060
I42
VSimpleName: pool
p4061
tp4062
I7
s(Vinsert
p4063
I42
VSimpleName: indexOf
p4064
tp4065
I2
s(Vinsert
p4066
I42
VSimpleName: deltaT
p4067
tp4068
I2
s(Vinsert
p4069
I42
VSimpleName: longest
p4070
tp4071
I2
s(Vinsert
p4072
I42
VSimpleName: XBounds
p4073
tp4074
I2
s(Vinsert
p4075
I40
VQualifiedName: com.github.mikephil.charting.utils.PointD
p4076
tp4077
I2
s(Vinsert
p4078
I42
VSimpleName: getEntryForXValue
p4079
tp4080
I3
s(Vinsert
p4081
I42
VSimpleName: setHorizontalAlignment
p4082
tp4083
I15
s(Vinsert
p4084
I42
VSimpleName: random
p4085
tp4086
I12
s(Vinsert
p4087
I40
VQualifiedName: mExtraLabels.length
p4088
tp4089
I1
s(Vinsert
p4090
I43
VSimpleType: AnimatedZoomJob
p4091
tp4092
I1
s(Vinsert
p4093
I42
VSimpleName: copyIntegers
p4094
tp4095
I1
s(Vinsert
p4096
I34
VNumberLiteral: 10
p4097
tp4098
I6
s(Vinsert
p4099
I42
VSimpleName: am
p4100
tp4101
I2
s(Vinsert
p4102
I42
VSimpleName: IRadarDataSet
p4103
tp4104
I4
s(Vinsert
p4105
I20
VEmptyStatement
p4106
tp4107
I1
s(Vinsert
p4108
I42
VSimpleName: mZoomOutMatrixBuffer
p4109
tp4110
I2
s(Vinsert
p4111
I42
VSimpleName: getColors
p4112
tp4113
I11
s(Vinsert
p4114
I42
VSimpleName: setData
p4115
tp4116
I23
s(Vinsert
p4117
I42
VSimpleName: refreshContent
p4118
tp4119
I3
s(Vinsert
p4120
I66
VTextElement: sets a specific typeface for the legend labels
p4121
tp4122
I1
s(Vinsert
p4123
I42
VSimpleName: subLow
p4124
tp4125
I1
s(Vinsert
p4126
I42
VSimpleName: drawImage
p4127
tp4128
I1
s(Vinsert
p4129
I66
VTextElement: Removes the last Entry (at index size-1) of this DataSet from the entries array.
p4130
tp4131
I1
s(Vinsert
p4132
I45
VStringLiteral: "n.txt"
p4133
tp4134
I1
s(Vinsert
p4135
I42
VSimpleName: objects
p4136
tp4137
I2
s(Vinsert
p4138
I42
VSimpleName: setBarShadowColor
p4139
tp4140
I1
s(Vinsert
p4141
I42
VSimpleName: shadowBuffer
p4142
tp4143
I2
s(Vinsert
p4144
I42
VSimpleName: mWebLineWidth
p4145
tp4146
I1
s(Vinsert
p4147
I42
VSimpleName: getLongestLabel
p4148
tp4149
I3
s(Vinsert
p4150
I43
VSimpleType: BarLineScatterCandleRadarDataSet
p4151
tp4152
I1
s(Vinsert
p4153
I40
VQualifiedName: Matrix.MSCALE_X
p4154
tp4155
I1
s(Vinsert
p4156
I40
VQualifiedName: R.id.lineChart1
p4157
tp4158
I1
s(Vinsert
p4159
I42
VSimpleName: setValueDigits
p4160
tp4161
I1
s(Vinsert
p4162
I74
VParameterizedType: ArrayList<IRadarDataSet>
p4163
tp4164
I1
s(Vinsert
p4165
I40
VQualifiedName: mXAxis.mLabelWidth
p4166
tp4167
I1
s(Vinsert
p4168
I40
VQualifiedName: mDecelerationCurrentPoint.y
p4169
tp4170
I1
s(Vinsert
p4171
I40
VQualifiedName: ColorTemplate.COLOR_NONE
p4172
tp4173
I8
s(Vinsert
p4174
I40
VQualifiedName: mLegend.mTextHeightMax
p4175
tp4176
I2
s(Vinsert
p4177
I42
VSimpleName: x
p4178
tp4179
I45
s(Vinsert
p4180
I42
VSimpleName: disableScroll
p4181
tp4182
I2
s(Vinsert
p4183
I42
VSimpleName: dataMax
p4184
tp4185
I1
s(Vinsert
p4186
I42
VSimpleName: formatter
p4187
tp4188
I3
s(Vinsert
p4189
I42
VSimpleName: setGridLineWidth
p4190
tp4191
I1
s(Vinsert
p4192
I45
VStringLiteral: "###,###,###,##0.0"
p4193
tp4194
I2
s(Vinsert
p4195
I42
VSimpleName: getBarBorderWidth
p4196
tp4197
I2
s(Vinsert
p4198
I43
VSimpleType: Path
p4199
tp4200
I11
s(Vinsert
p4201
I42
VSimpleName: randomMultiplier
p4202
tp4203
I1
s(Vinsert
p4204
I42
VSimpleName: getTypeface
p4205
tp4206
I2
s(Vinsert
p4207
I42
VSimpleName: highlightsforDrawHighlighted
p4208
tp4209
I1
s(Vinsert
p4210
I42
VSimpleName: getHighestVisibleXIndex
p4211
tp4212
I3
s(Vinsert
p4213
I40
VQualifiedName: XAxisPosition.TOP_INSIDE
p4214
tp4215
I2
s(Vinsert
p4216
I43
VSimpleType: List
p4217
tp4218
I27
s(Vinsert
p4219
I40
VQualifiedName: Color.GRAY
p4220
tp4221
I2
s(Vinsert
p4222
I42
VSimpleName: cubicTo
p4223
tp4224
I2
s(Vinsert
p4225
I42
VSimpleName: createRenderers
p4226
tp4227
I1
s(Vinsert
p4228
I34
VNumberLiteral: 3
p4229
tp4230
I8
s(Vinsert
p4231
I66
VTextElement: the legend object this renderer renders 
p4232
tp4233
I1
s(Vinsert
p4234
I66
VTextElement: Removes the specified LimitLine from the axis.
p4235
tp4236
I1
s(Vinsert
p4237
I42
VSimpleName: sliceAngle
p4238
tp4239
I1
s(Vinsert
p4240
I34
VNumberLiteral: 2.f
p4241
tp4242
I7
s(Vinsert
p4243
I42
VSimpleName: setDrawLimitLinesBehindData
p4244
tp4245
I1
s(Vinsert
p4246
I42
VSimpleName: findViewById
p4247
tp4248
I6
s(Vinsert
p4249
I42
VSimpleName: mSeekBarX
p4250
tp4251
I3
s(Vinsert
p4252
I34
VNumberLiteral: 0f
p4253
tp4254
I33
s(Vinsert
p4255
I42
VSimpleName: getTransformer
p4256
tp4257
I5
s(Vinsert
p4258
I40
VQualifiedName: r.left
p4259
tp4260
I3
s(Vinsert
p4261
I42
VSimpleName: dataProvider
p4262
tp4263
I1
s(Vinsert
p4264
I42
VSimpleName: space
p4265
tp4266
I12
s(Vinsert
p4267
I42
VSimpleName: rightRange
p4268
tp4269
I1
s(Vinsert
p4270
I42
VSimpleName: ranges
p4271
tp4272
I1
s(Vinsert
p4273
I42
VSimpleName: color
p4274
tp4275
I14
s(Vinsert
p4276
I42
VSimpleName: xValues
p4277
tp4278
I1
s(Vinsert
p4279
I42
VSimpleName: BarEntry
p4280
tp4281
I15
s(Vinsert
p4282
I34
VNumberLiteral: 244
p4283
tp4284
I1
s(Vinsert
p4285
I42
VSimpleName: setHighlightFullBarEnabled
p4286
tp4287
I3
s(Vinsert
p4288
I43
VSimpleType: Bitmap
p4289
tp4290
I2
s(Vinsert
p4291
I42
VSimpleName: mStackSpace
p4292
tp4293
I1
s(Vinsert
p4294
I74
VParameterizedType: ArrayList<XAxisValue>
p4295
tp4296
I1
s(Vinsert
p4297
I34
VNumberLiteral: 2f
p4298
tp4299
I11
s(Vinsert
p4300
I40
VQualifiedName: Paint.Style
p4301
tp4302
I1
s(Vinsert
p4303
I34
VNumberLiteral: 4f
p4304
tp4305
I3
s(Vinsert
p4306
I42
VSimpleName: BubbleEntry
p4307
tp4308
I2
s(Vinsert
p4309
I42
VSimpleName: posOffset
p4310
tp4311
I3
s(Vinsert
p4312
I5
VArrayType: Entry[]
p4313
tp4314
I1
s(Vinsert
p4315
I40
VQualifiedName: android.os.Build.VERSION.SDK_INT
p4316
tp4317
I2
s(Vinsert
p4318
I43
VSimpleType: DataSet
p4319
tp4320
I25
s(Vinsert
p4321
I66
VTextElement:  An output variable, modified by the function.
p4322
tp4323
I1
s(Vinsert
p4324
I66
VTextElement: Sets the text-size of the value-labels of this DataSet in dp.
p4325
tp4326
I1
s(Vinsert
p4327
I42
VSimpleName: mShadowLow
p4328
tp4329
I1
s(Vinsert
p4330
I40
VQualifiedName: Legend.LegendForm.NONE
p4331
tp4332
I1
s(Vinsert
p4333
I40
VQualifiedName: android.graphics.Color
p4334
tp4335
I4
s(Vinsert
p4336
I43
VSimpleType: SpannableString
p4337
tp4338
I2
s(Vinsert
p4339
I42
VSimpleName: getDeltaY
p4340
tp4341
I6
s(Vinsert
p4342
I42
VSimpleName: mDrawingEnabled
p4343
tp4344
I1
s(Vinsert
p4345
I42
VSimpleName: top
p4346
tp4347
I6
s(Vinsert
p4348
I40
VQualifiedName: positions.length
p4349
tp4350
I1
s(Vinsert
p4351
I42
VSimpleName: newEntry
p4352
tp4353
I1
s(Vinsert
p4354
I43
VSimpleType: Integer
p4355
tp4356
I16
s(Vinsert
p4357
I40
VQualifiedName: beforeLastSample.angle
p4358
tp4359
I1
s(Vinsert
p4360
I40
VQualifiedName: ColorTemplate.VORDIPLOM_COLORS
p4361
tp4362
I2
s(Vinsert
p4363
I42
VSimpleName: mBarData
p4364
tp4365
I2
s(Vinsert
p4366
I42
VSimpleName: isGrouped
p4367
tp4368
I1
s(Vinsert
p4369
I42
VSimpleName: getXValCount
p4370
tp4371
I12
s(Vinsert
p4372
I54
VTryStatement
p4373
tp4374
I4
s(Vinsert
p4375
I42
VSimpleName: setInterpolator
p4376
tp4377
I1
s(Vinsert
p4378
I42
VSimpleName: outputFSize
p4379
tp4380
I2
s(Vinsert
p4381
I42
VSimpleName: mDrawFilled
p4382
tp4383
I1
s(Vinsert
p4384
I42
VSimpleName: iSet
p4385
tp4386
I14
s(Vinsert
p4387
I42
VSimpleName: getDataSetByType
p4388
tp4389
I1
s(Vinsert
p4390
I42
VSimpleName: getFieldType
p4391
tp4392
I1
s(Vinsert
p4393
I40
VQualifiedName: com.github.mikephil.charting.interfaces.dataprovider.ChartInterface
p4394
tp4395
I1
s(Vinsert
p4396
I66
VTextElement: This is the angle for drawing the X axis labels (in degrees)
p4397
tp4398
I1
s(Vinsert
p4399
I42
VSimpleName: values1
p4400
tp4401
I1
s(Vinsert
p4402
I42
VSimpleName: clear
p4403
tp4404
I21
s(Vinsert
p4405
I40
VQualifiedName: entries.length
p4406
tp4407
I1
s(Vinsert
p4408
I42
VSimpleName: Object
p4409
tp4410
I1
s(Vinsert
p4411
I42
VSimpleName: getRequiredLegendOffset
p4412
tp4413
I1
s(Vinsert
p4414
I66
VTextElement: Updates the min and max y-value according to the set limits.
p4415
tp4416
I1
s(Vinsert
p4417
I42
VSimpleName: mMaxHighlightDistance
p4418
tp4419
I1
s(Vinsert
p4420
I42
VSimpleName: dist
p4421
tp4422
I2
s(Vinsert
p4423
I42
VSimpleName: calcStackSize
p4424
tp4425
I2
s(Vinsert
p4426
I42
VSimpleName: getEntrySpace
p4427
tp4428
I1
s(Vinsert
p4429
I42
VSimpleName: setGranularity
p4430
tp4431
I2
s(Vinsert
p4432
I43
VSimpleType: MyMarkerView
p4433
tp4434
I5
s(Vinsert
p4435
I42
VSimpleName: getYMin
p4436
tp4437
I13
s(Vinsert
p4438
I66
VTextElement: Sets the width and height of the chart.
p4439
tp4440
I1
s(Vinsert
p4441
I42
VSimpleName: yLegend
p4442
tp4443
I1
s(Vinsert
p4444
I42
VSimpleName: arrowWidth
p4445
tp4446
I1
s(Vinsert
p4447
I40
VQualifiedName: System.out
p4448
tp4449
I1
s(Vinsert
p4450
I42
VSimpleName: entry
p4451
tp4452
I37
s(Vinsert
p4453
I42
VSimpleName: DecimalFormat
p4454
tp4455
I3
s(Vinsert
p4456
I42
VSimpleName: sliceYBase
p4457
tp4458
I1
s(Vinsert
p4459
I42
VSimpleName: isHighlightEnabled
p4460
tp4461
I13
s(Vinsert
p4462
I42
VSimpleName: mv
p4463
tp4464
I13
s(Vinsert
p4465
I42
VSimpleName: PieDataSet
p4466
tp4467
I3
s(Vinsert
p4468
I42
VSimpleName: xScale
p4469
tp4470
I1
s(Vinsert
p4471
I40
VQualifiedName: center.y
p4472
tp4473
I3
s(Vinsert
p4474
I66
VTextElement: label.
p4475
tp4476
I1
s(Vinsert
p4477
I42
VSimpleName: number
p4478
tp4479
I6
s(Vinsert
p4480
I42
VSimpleName: MyMarkerView
p4481
tp4482
I5
s(Vinsert
p4483
I42
VSimpleName: getOffsetBottom
p4484
tp4485
I1
s(Vinsert
p4486
I42
VSimpleName: isDrawSteppedEnabled
p4487
tp4488
I4
s(Vinsert
p4489
I42
VSimpleName: setYRangeFixed
p4490
tp4491
I1
s(Vinsert
p4492
I66
VTextElement: selected.
p4493
tp4494
I1
s(Vinsert
p4495
I42
VSimpleName: q
p4496
tp4497
I2
s(Vinsert
p4498
I36
VParenthesizedExpression
p4499
tp4500
I119
s(Vinsert
p4501
I5
VArrayType: ScatterShape[]
p4502
tp4503
I1
s(Vinsert
p4504
I42
VSimpleName: mCalculatedLabelBreakPoints
p4505
tp4506
I1
s(Vinsert
p4507
I42
VSimpleName: getZeroLineWidth
p4508
tp4509
I1
s(Vinsert
p4510
I42
VSimpleName: onCreate
p4511
tp4512
I3
s(Vinsert
p4513
I42
VSimpleName: mRenderer
p4514
tp4515
I3
s(Vinsert
p4516
I52
VThisExpression
p4517
tp4518
I59
s(Vinsert
p4519
I40
VQualifiedName: other.x
p4520
tp4521
I1
s(Vinsert
p4522
I42
VSimpleName: btn2
p4523
tp4524
I1
s(Vinsert
p4525
I42
VSimpleName: filter
p4526
tp4527
I2
s(Vinsert
p4528
I42
VSimpleName: mStartTimestamp
p4529
tp4530
I1
s(Vinsert
p4531
I43
VSimpleType: BarLineScatterCandleBubbleDataProvider
p4532
tp4533
I2
s(Vinsert
p4534
I42
VSimpleName: onDoubleTap
p4535
tp4536
I2
s(Vinsert
p4537
I42
VSimpleName: mNoDataText
p4538
tp4539
I1
s(Vinsert
p4540
I42
VSimpleName: vertical
p4541
tp4542
I2
s(Vinsert
p4543
I42
VSimpleName: labels
p4544
tp4545
I9
s(Vinsert
p4546
I40
VQualifiedName: c.x
p4547
tp4548
I2
s(Vinsert
p4549
I42
VSimpleName: calculatedLabelSizesIndex
p4550
tp4551
I2
s(Vinsert
p4552
I42
VSimpleName: Arrays
p4553
tp4554
I1
s(Vinsert
p4555
I40
VQualifiedName: R.id.button2
p4556
tp4557
I1
s(Vinsert
p4558
I42
VSimpleName: setChartView
p4559
tp4560
I7
s(Vinsert
p4561
I42
VSimpleName: addLimitLine
p4562
tp4563
I1
s(Vinsert
p4564
I42
VSimpleName: lineHeight
p4565
tp4566
I2
s(Vinsert
p4567
I42
VSimpleName: setMaxHighlightDistance
p4568
tp4569
I3
s(Vinsert
p4570
I74
VParameterizedType: ArrayList<? extends DataSet>
p4571
tp4572
I1
s(Vinsert
p4573
I42
VSimpleName: createFromAsset
p4574
tp4575
I9
s(Vinsert
p4576
I45
VStringLiteral: ", newTransX: "
p4577
tp4578
I1
s(Vinsert
p4579
I42
VSimpleName: mYOffset
p4580
tp4581
I3
s(Vinsert
p4582
I42
VSimpleName: ofFloat
p4583
tp4584
I3
s(Vinsert
p4585
I42
VSimpleName: maxRight
p4586
tp4587
I2
s(Vinsert
p4588
I42
VSimpleName: f
p4589
tp4590
I6
s(Vinsert
p4591
I42
VSimpleName: pointF
p4592
tp4593
I2
s(Vinsert
p4594
I42
VSimpleName: getApplicationContext
p4595
tp4596
I3
s(Vinsert
p4597
I42
VSimpleName: ChartInterface
p4598
tp4599
I3
s(Vinsert
p4600
I42
VSimpleName: drawYLabels
p4601
tp4602
I1
s(Vinsert
p4603
I42
VSimpleName: setLabels
p4604
tp4605
I2
s(Vinsert
p4606
I42
VSimpleName: cachedValues
p4607
tp4608
I2
s(Vinsert
p4609
I42
VSimpleName: mFormToTextSpace
p4610
tp4611
I2
s(Vinsert
p4612
I42
VSimpleName: HashMap
p4613
tp4614
I2
s(Vinsert
p4615
I42
VSimpleName: distMax
p4616
tp4617
I1
s(Vinsert
p4618
I42
VSimpleName: setCenterXLabelText
p4619
tp4620
I1
s(Vinsert
p4621
I42
VSimpleName: setDrawValueAboveBar
p4622
tp4623
I4
s(Vinsert
p4624
I42
VSimpleName: yoffset
p4625
tp4626
I5
s(Vinsert
p4627
I40
VQualifiedName: mXAxis.mAxisMinimum
p4628
tp4629
I1
s(Vinsert
p4630
I40
VQualifiedName: R.color.vordiplom_4
p4631
tp4632
I1
s(Vinsert
p4633
I42
VSimpleName: setLayoutParams
p4634
tp4635
I1
s(Vinsert
p4636
I83
VModifier: final
p4637
tp4638
I35
s(Vinsert
p4639
I42
VSimpleName: filteredEntries
p4640
tp4641
I1
s(Vinsert
p4642
I42
VSimpleName: mMaxShift
p4643
tp4644
I1
s(Vinsert
p4645
I40
VQualifiedName: R.id.actionDashedLine
p4646
tp4647
I1
s(Vinsert
p4648
I42
VSimpleName: getAxisLineWidth
p4649
tp4650
I1
s(Vinsert
p4651
I42
VSimpleName: BarLineScatterCandleDataProvider
p4652
tp4653
I1
s(Vinsert
p4654
I42
VSimpleName: getDataSetByHighlight
p4655
tp4656
I1
s(Vinsert
p4657
I42
VSimpleName: setValueTextColors
p4658
tp4659
I1
s(Vinsert
p4660
I42
VSimpleName: shift
p4661
tp4662
I2
s(Vinsert
p4663
I42
VSimpleName: deltaX
p4664
tp4665
I1
s(Vinsert
p4666
I40
VQualifiedName: selectionDetail.xValue
p4667
tp4668
I1
s(Vinsert
p4669
I42
VSimpleName: Fragment
p4670
tp4671
I1
s(Vinsert
p4672
I83
VModifier: static
p4673
tp4674
I7
s(Vinsert
p4675
I42
VSimpleName: toString
p4676
tp4677
I5
s(Vinsert
p4678
I42
VSimpleName: mAutoScaleLastLowestVisibleXIndex
p4679
tp4680
I1
s(Vinsert
p4681
I42
VSimpleName: setDrawZeroLine
p4682
tp4683
I4
s(Vinsert
p4684
I42
VSimpleName: mGridLineWidth
p4685
tp4686
I1
s(Vinsert
p4687
I42
VSimpleName: offsetY
p4688
tp4689
I1
s(Vinsert
p4690
I42
VSimpleName: inverse
p4691
tp4692
I1
s(Vinsert
p4693
I42
VSimpleName: close
p4694
tp4695
I4
s(Vinsert
p4696
I74
VParameterizedType: ArrayList<BarEntry>
p4697
tp4698
I2
s(Vinsert
p4699
I66
VTextElement: Returns the used offset on the x-axis for drawing the axis labels.
p4700
tp4701
I1
s(Vinsert
p4702
I42
VSimpleName: original
p4703
tp4704
I1
s(Vinsert
p4705
I40
VQualifiedName: R.id.animateXY
p4706
tp4707
I1
s(Vinsert
p4708
I42
VSimpleName: mCachedValuesHashMap
p4709
tp4710
I1
s(Vinsert
p4711
I43
VSimpleType: Realm
p4712
tp4713
I1
s(Vinsert
p4714
I42
VSimpleName: alpha
p4715
tp4716
I5
s(Vinsert
p4717
I42
VSimpleName: getProgress
p4718
tp4719
I4
s(Vinsert
p4720
I42
VSimpleName: BarLineScatterCandleBubbleDataProvider
p4721
tp4722
I2
s(Vinsert
p4723
I42
VSimpleName: surface
p4724
tp4725
I1
s(Vinsert
p4726
I42
VSimpleName: lineSpacing
p4727
tp4728
I1
s(Vinsert
p4729
I42
VSimpleName: contains
p4730
tp4731
I1
s(Vinsert
p4732
I42
VSimpleName: minLeft
p4733
tp4734
I4
s(Vinsert
p4735
I37
VPostfixExpression: ++
p4736
tp4737
I61
s(Vinsert
p4738
I42
VSimpleName: mMatrixValueToPx
p4739
tp4740
I8
s(Vinsert
p4741
I42
VSimpleName: getFormattedValue
p4742
tp4743
I17
s(Vinsert
p4744
I43
VSimpleType: RadarDataSet
p4745
tp4746
I4
s(Vinsert
p4747
I42
VSimpleName: mCustomApprox
p4748
tp4749
I1
s(Vinsert
p4750
I42
VSimpleName: cnt
p4751
tp4752
I4
s(Vinsert
p4753
I42
VSimpleName: rawCount
p4754
tp4755
I2
s(Vinsert
p4756
I42
VSimpleName: distDp
p4757
tp4758
I2
s(Vinsert
p4759
I42
VSimpleName: first
p4760
tp4761
I3
s(Vinsert
p4762
I40
VQualifiedName: colors.length
p4763
tp4764
I1
s(Vinsert
p4765
I42
VSimpleName: drawValues
p4766
tp4767
I1
s(Vinsert
p4768
I42
VSimpleName: mCirclesBuffer
p4769
tp4770
I1
s(Vinsert
p4771
I40
VQualifiedName: mLegend.mTextWidthMax
p4772
tp4773
I3
s(Vinsert
p4774
I42
VSimpleName: setDrawValues
p4775
tp4776
I8
s(Vinsert
p4777
I74
VParameterizedType: RealmPieDataSet<RealmDemoData>
p4778
tp4779
I3
s(Vinsert
p4780
I40
VQualifiedName: android.util.Log
p4781
tp4782
I1
s(Vinsert
p4783
I42
VSimpleName: getFillColor
p4784
tp4785
I4
s(Vinsert
p4786
I66
VTextElement: Adds a new x-value to the chart data.
p4787
tp4788
I1
s(Vinsert
p4789
I40
VQualifiedName: R.id.actionToggleRound
p4790
tp4791
I1
s(Vinsert
p4792
I5
VArrayType: float[]
p4793
tp4794
I28
s(Vinsert
p4795
I42
VSimpleName: mDeltaY
p4796
tp4797
I2
s(Vinsert
p4798
I42
VSimpleName: poolCapacity
p4799
tp4800
I1
s(Vinsert
p4801
I42
VSimpleName: colorCount
p4802
tp4803
I1
s(Vinsert
p4804
I42
VSimpleName: maxScaleX
p4805
tp4806
I1
s(Vinsert
p4807
I42
VSimpleName: entries
p4808
tp4809
I56
s(Vinsert
p4810
I42
VSimpleName: getResources
p4811
tp4812
I7
s(Vinsert
p4813
I42
VSimpleName: c2
p4814
tp4815
I1
s(Vinsert
p4816
I43
VSimpleType: YLabels
p4817
tp4818
I1
s(Vinsert
p4819
I34
VNumberLiteral: 106
p4820
tp4821
I1
s(Vinsert
p4822
I42
VSimpleName: mHighlightPaint
p4823
tp4824
I1
s(Vinsert
p4825
I42
VSimpleName: getDrawable
p4826
tp4827
I1
s(Vinsert
p4828
I42
VSimpleName: mLegendFormPaint
p4829
tp4830
I2
s(Vinsert
p4831
I34
VNumberLiteral: 21
p4832
tp4833
I1
s(Vinsert
p4834
I40
VQualifiedName: DataSet.Rounding
p4835
tp4836
I1
s(Vinsert
p4837
I42
VSimpleName: outputRect
p4838
tp4839
I4
s(Vinsert
p4840
I43
VSimpleType: ChartAnimator
p4841
tp4842
I2
s(Vinsert
p4843
I42
VSimpleName: updateMinMax
p4844
tp4845
I1
s(Vinsert
p4846
I42
VSimpleName: hsv
p4847
tp4848
I2
s(Vinsert
p4849
I66
VTextElement: Disables the line to be drawn in dashed mode.
p4850
tp4851
I1
s(Vinsert
p4852
I40
VQualifiedName: anchor.x
p4853
tp4854
I1
s(Vinsert
p4855
I42
VSimpleName: positions
p4856
tp4857
I9
s(Vinsert
p4858
I74
VParameterizedType: List<Integer>
p4859
tp4860
I2
s(Vinsert
p4861
I7
VAssignment: =
p4862
tp4863
I288
s(Vinsert
p4864
I40
VQualifiedName: XAxisPosition.BOTH_SIDED
p4865
tp4866
I3
s(Vinsert
p4867
I50
VSwitchStatement
p4868
tp4869
I6
s(Vinsert
p4870
I42
VSimpleName: mGridPaint
p4871
tp4872
I3
s(Vinsert
p4873
I45
VStringLiteral: "Circle radius cannot be < 1"
p4874
tp4875
I1
s(Vinsert
p4876
I40
VQualifiedName: com.github.mikephil.charting.utils.YLabels
p4877
tp4878
I1
s(Vinsert
p4879
I42
VSimpleName: xmin
p4880
tp4881
I1
s(Vinsert
p4882
I74
VParameterizedType: List<IRadarDataSet>
p4883
tp4884
I2
s(Vinsert
p4885
I42
VSimpleName: getIndexOfDataSet
p4886
tp4887
I1
s(Vinsert
p4888
I42
VSimpleName: minValueRatio
p4889
tp4890
I1
s(Vinsert
p4891
I40
VQualifiedName: bounds.min
p4892
tp4893
I2
s(Vinsert
p4894
I42
VSimpleName: getMarkerPosition
p4895
tp4896
I2
s(Vinsert
p4897
I42
VSimpleName: mLastStart
p4898
tp4899
I1
s(Vinsert
p4900
I42
VSimpleName: Date
p4901
tp4902
I1
s(Vinsert
p4903
I42
VSimpleName: entry1
p4904
tp4905
I2
s(Vinsert
p4906
I40
VQualifiedName: mCircleBox.top
p4907
tp4908
I1
s(Vinsert
p4909
I66
VTextElement: Sets the width of the border surrounding the chart in dp.
p4910
tp4911
I2
s(Vinsert
p4912
I42
VSimpleName: setShadowColorSameAsCandle
p4913
tp4914
I1
s(Vinsert
p4915
I42
VSimpleName: easingX
p4916
tp4917
I1
s(Vinsert
p4918
I42
VSimpleName: objectsPointer
p4919
tp4920
I1
s(Vinsert
p4921
I66
VTextElement: the distance of movement that will be counted as a drag
p4922
tp4923
I1
s(Vinsert
p4924
I42
VSimpleName: highestVisibleXIndex
p4925
tp4926
I1
s(Vinsert
p4927
I42
VSimpleName: p2
p4928
tp4929
I2
s(Vinsert
p4930
I42
VSimpleName: getClosestDataSetIndex
p4931
tp4932
I1
s(Vinsert
p4933
I42
VSimpleName: mShadowBuffers
p4934
tp4935
I2
s(Vinsert
p4936
I42
VSimpleName: Collection
p4937
tp4938
I1
s(Vinsert
p4939
I42
VSimpleName: notifyDataSetChanged
p4940
tp4941
I3
s(Vinsert
p4942
I42
VSimpleName: phaseX
p4943
tp4944
I7
s(Vinsert
p4945
I42
VSimpleName: mFormat
p4946
tp4947
I14
s(Vinsert
p4948
I74
VParameterizedType: ArrayList<CandleEntry>
p4949
tp4950
I1
s(Vinsert
p4951
I42
VSimpleName: RealmResults
p4952
tp4953
I19
s(Vinsert
p4954
I65
VTagElement: @inheritDoc
p4955
tp4956
I1
s(Vinsert
p4957
I42
VSimpleName: removeDataSet
p4958
tp4959
I2
s(Vinsert
p4960
I42
VSimpleName: MarkerView
p4961
tp4962
I2
s(Vinsert
p4963
I40
VQualifiedName: mYAxis.mDecimals
p4964
tp4965
I1
s(Vinsert
p4966
I42
VSimpleName: limitLinePath
p4967
tp4968
I7
s(Vinsert
p4969
I42
VSimpleName: scatterShapeNames
p4970
tp4971
I3
s(Vinsert
p4972
I42
VSimpleName: mCalcTextSizeRect
p4973
tp4974
I1
s(Vinsert
p4975
I42
VSimpleName: stackValueFieldName
p4976
tp4977
I1
s(Vinsert
p4978
I42
VSimpleName: setNoDataTextDescription
p4979
tp4980
I2
s(Vinsert
p4981
I43
VSimpleType: ChartInterface
p4982
tp4983
I3
s(Vinsert
p4984
I34
VNumberLiteral: 192
p4985
tp4986
I1
s(Vinsert
p4987
I42
VSimpleName: getGranularity
p4988
tp4989
I1
s(Vinsert
p4990
I42
VSimpleName: getEntryForHighlight
p4991
tp4992
I4
s(Vinsert
p4993
I40
VQualifiedName: Easing.EasingOption
p4994
tp4995
I2
s(Vinsert
p4996
I42
VSimpleName: setMeasuredDimension
p4997
tp4998
I1
s(Vinsert
p4999
I43
VSimpleType: ViewPortHandler
p5000
tp5001
I4
s(Vinsert
p5002
I42
VSimpleName: Double
p5003
tp5004
I6
s(Vinsert
p5005
I42
VSimpleName: currentAnimationTimeMillis
p5006
tp5007
I1
s(Vinsert
p5008
I42
VSimpleName: setVals
p5009
tp5010
I1
s(Vinsert
p5011
I42
VSimpleName: getAxisDependency
p5012
tp5013
I14
s(Vinsert
p5014
I42
VSimpleName: isDrawHighlightArrowEnabled
p5015
tp5016
I1
s(Vinsert
p5017
I66
VTextElement: Sets the color of the no data text.
p5018
tp5019
I1
s(Vinsert
p5020
I42
VSimpleName: getSmallestContentExtension
p5021
tp5022
I1
s(Vinsert
p5023
I34
VNumberLiteral: 100f
p5024
tp5025
I2
s(Vinsert
p5026
I42
VSimpleName: transformPointArray
p5027
tp5028
I1
s(Vinsert
p5029
I42
VSimpleName: isHoleTransparent
p5030
tp5031
I2
s(Vinsert
p5032
I42
VSimpleName: set4
p5033
tp5034
I2
s(Vinsert
p5035
I8
VBlock
p5036
tp5037
I683
s(Vinsert
p5038
I42
VSimpleName: mLabelField
p5039
tp5040
I1
s(Vinsert
p5041
I40
VQualifiedName: outputFSize.width
p5042
tp5043
I1
s(Vinsert
p5044
I34
VNumberLiteral: 1000
p5045
tp5046
I4
s(Vinsert
p5047
I42
VSimpleName: timeLong
p5048
tp5049
I3
s(Vinsert
p5050
I76
VWildcardType: ?
p5051
tp5052
I7
s(Vinsert
p5053
I42
VSimpleName: mFormatter
p5054
tp5055
I1
s(Vinsert
p5056
I46
VSuperConstructorInvocation
p5057
tp5058
I11
s(Vinsert
p5059
I42
VSimpleName: key
p5060
tp5061
I2
s(Vinsert
p5062
I42
VSimpleName: spacedRadius
p5063
tp5064
I2
s(Vinsert
p5065
I42
VSimpleName: floatValue
p5066
tp5067
I1
s(Vinsert
p5068
I42
VSimpleName: onChartScale
p5069
tp5070
I2
s(Vinsert
p5071
I42
VSimpleName: restrainViewPort
p5072
tp5073
I4
s(Vinsert
p5074
I66
VTextElement: responsible for transforming values into pixels on the screen and
p5075
tp5076
I1
s(Vinsert
p5077
I42
VSimpleName: closestXIndex
p5078
tp5079
I1
s(Vinsert
p5080
I34
VNumberLiteral: 14
p5081
tp5082
I1
s(Vinsert
p5083
I42
VSimpleName: mXAxis
p5084
tp5085
I19
s(Vinsert
p5086
I42
VSimpleName: DashPathEffect
p5087
tp5088
I2
s(Vinsert
p5089
I42
VSimpleName: xVal
p5090
tp5091
I5
s(Vinsert
p5092
I43
VSimpleType: CandleDataSet
p5093
tp5094
I3
s(Vinsert
p5095
I43
VSimpleType: DecimalFormat
p5096
tp5097
I3
s(Vinsert
p5098
I42
VSimpleName: ll1
p5099
tp5100
I1
s(Vinsert
p5101
I7
VAssignment: -=
p5102
tp5103
I8
s(Vinsert
p5104
I42
VSimpleName: createBitmap
p5105
tp5106
I1
s(Vinsert
p5107
I42
VSimpleName: getTransparentCircleRadius
p5108
tp5109
I1
s(Vinsert
p5110
I42
VSimpleName: getPixelsForValues
p5111
tp5112
I3
s(Vinsert
p5113
I42
VSimpleName: setDrawAxisLine
p5114
tp5115
I5
s(Vinsert
p5116
I43
VSimpleType: RealmDemoData
p5117
tp5118
I31
s(Vinsert
p5119
I42
VSimpleName: drawLine
p5120
tp5121
I7
s(Vinsert
p5122
I40
VQualifiedName: point.dx
p5123
tp5124
I1
s(Vinsert
p5125
I34
VNumberLiteral: 1400
p5126
tp5127
I1
s(Vinsert
p5128
I42
VSimpleName: pow
p5129
tp5130
I2
s(Vinsert
p5131
I40
VQualifiedName: com.xxmassdeveloper.mpchartexample.custom.MyMarkerView
p5132
tp5133
I1
s(Vinsert
p5134
I42
VSimpleName: mDrawAngles
p5135
tp5136
I2
s(Vinsert
p5137
I43
VSimpleType: ZoomJob
p5138
tp5139
I1
s(Vinsert
p5140
I42
VSimpleName: timeDelta
p5141
tp5142
I1
s(Vinsert
p5143
I42
VSimpleName: ZoomJob
p5144
tp5145
I1
s(Vinsert
p5146
I42
VSimpleName: chartMaxY
p5147
tp5148
I1
s(Vinsert
p5149
I45
VStringLiteral: "++"
p5150
tp5151
I1
s(Vinsert
p5152
I43
VSimpleType: IllegalArgumentException
p5153
tp5154
I2
s(Vinsert
p5155
I42
VSimpleName: mTo
p5156
tp5157
I4
s(Vinsert
p5158
I42
VSimpleName: mDescPaint
p5159
tp5160
I1
s(Vinsert
p5161
I42
VSimpleName: getContentCenter
p5162
tp5163
I2
s(Vinsert
p5164
I40
VQualifiedName: to.length
p5165
tp5166
I1
s(Vinsert
p5167
I42
VSimpleName: mLegendLabelPaint
p5168
tp5169
I5
s(Vinsert
p5170
I42
VSimpleName: yMin
p5171
tp5172
I5
s(Vinsert
p5173
I40
VQualifiedName: iconsOffset.y
p5174
tp5175
I4
s(Vinsert
p5176
I42
VSimpleName: ds4
p5177
tp5178
I1
s(Vinsert
p5179
I74
VParameterizedType: ArrayList<Series>
p5180
tp5181
I5
s(Vinsert
p5182
I42
VSimpleName: calculate
p5183
tp5184
I4
s(Vinsert
p5185
I74
VParameterizedType: List<IBarDataSet>
p5186
tp5187
I2
s(Vinsert
p5188
I42
VSimpleName: RealmBarDataSet
p5189
tp5190
I2
s(Vinsert
p5191
I74
VParameterizedType: List<FSize>
p5192
tp5193
I1
s(Vinsert
p5194
I42
VSimpleName: setTextColor
p5195
tp5196
I2
s(Vinsert
p5197
I34
VNumberLiteral: 7
p5198
tp5199
I2
s(Vinsert
p5200
I42
VSimpleName: radius
p5201
tp5202
I2
s(Vinsert
p5203
I42
VSimpleName: setScatterShapeHoleRadius
p5204
tp5205
I3
s(Vinsert
p5206
I42
VSimpleName: getOffsetRight
p5207
tp5208
I3
s(Vinsert
p5209
I42
VSimpleName: isOffContentTop
p5210
tp5211
I1
s(Vinsert
p5212
I42
VSimpleName: xLabelField
p5213
tp5214
I1
s(Vinsert
p5215
I42
VSimpleName: getEntriesForXIndex
p5216
tp5217
I1
s(Vinsert
p5218
I1
VAnonymousClassDeclaration
p5219
tp5220
I2
s(Vinsert
p5221
I42
VSimpleName: XLabels
p5222
tp5223
I3
s(Vinsert
p5224
I42
VSimpleName: get
p5225
tp5226
I94
s(Vinsert
p5227
I34
VNumberLiteral: 117
p5228
tp5229
I2
s(Vinsert
p5230
I42
VSimpleName: barWidth
p5231
tp5232
I1
s(Vinsert
p5233
I42
VSimpleName: minDataSetIndex
p5234
tp5235
I1
s(Vinsert
p5236
I42
VSimpleName: xTo
p5237
tp5238
I1
s(Vinsert
p5239
I42
VSimpleName: setAdapter
p5240
tp5241
I1
s(Vinsert
p5242
I42
VSimpleName: shape
p5243
tp5244
I7
s(Vinsert
p5245
I42
VSimpleName: m
p5246
tp5247
I6
s(Vinsert
p5248
I40
VQualifiedName: LegendPosition.ABOVE_CHART_CENTER
p5249
tp5250
I3
s(Vinsert
p5251
I42
VSimpleName: recycleInstance
p5252
tp5253
I28
s(Vinsert
p5254
I42
VSimpleName: mYChartMin
p5255
tp5256
I11
s(Vinsert
p5257
I42
VSimpleName: strokeColor
p5258
tp5259
I1
s(Vinsert
p5260
I42
VSimpleName: BubbleData
p5261
tp5262
I1
s(Vinsert
p5263
I42
VSimpleName: legendTop
p5264
tp5265
I3
s(Vinsert
p5266
I42
VSimpleName: mCirclePathBuffer
p5267
tp5268
I1
s(Vinsert
p5269
I27
VInfixExpression: %
p5270
tp5271
I4
s(Vinsert
p5272
I44
VSingleVariableDeclaration
p5273
tp5274
I335
s(Vinsert
p5275
I42
VSimpleName: Bundle
p5276
tp5277
I7
s(Vinsert
p5278
I34
VNumberLiteral: 5f
p5279
tp5280
I4
s(Vinsert
p5281
I42
VSimpleName: Y_ZOOM
p5282
tp5283
I2
s(Vinsert
p5284
I42
VSimpleName: yMax
p5285
tp5286
I2
s(Vinsert
p5287
I42
VSimpleName: needsDefaultFormatter
p5288
tp5289
I1
s(Vinsert
p5290
I42
VSimpleName: getLineHeight
p5291
tp5292
I2
s(Vinsert
p5293
I40
VQualifiedName: LegendPosition.BELOW_CHART_CENTER
p5294
tp5295
I1
s(Vinsert
p5296
I42
VSimpleName: setDrawOrder
p5297
tp5298
I1
s(Vinsert
p5299
I42
VSimpleName: save
p5300
tp5301
I23
s(Vinsert
p5302
I42
VSimpleName: getMaxEntryCountSet
p5303
tp5304
I6
s(Vinsert
p5305
I42
VSimpleName: phase
p5306
tp5307
I3
s(Vinsert
p5308
I42
VSimpleName: drawLabels
p5309
tp5310
I2
s(Vinsert
p5311
I40
VQualifiedName: Matrix.MSCALE_Y
p5312
tp5313
I1
s(Vinsert
p5314
I42
VSimpleName: getWebModulus
p5315
tp5316
I1
s(Vinsert
p5317
I42
VSimpleName: mDecelarationVelocity
p5318
tp5319
I1
s(Vinsert
p5320
I42
VSimpleName: setOnClickListener
p5321
tp5322
I2
s(Vinsert
p5323
I42
VSimpleName: SelectionDetail
p5324
tp5325
I2
s(Vinsert
p5326
I34
VNumberLiteral: 360f
p5327
tp5328
I1
s(Vinsert
p5329
I42
VSimpleName: ArrayList
p5330
tp5331
I91
s(Vinsert
p5332
I40
VQualifiedName: c1.y
p5333
tp5334
I1
s(Vinsert
p5335
I42
VSimpleName: getMaxSizePercent
p5336
tp5337
I4
s(Vinsert
p5338
I42
VSimpleName: sliceSpace
p5339
tp5340
I5
s(Vinsert
p5341
I42
VSimpleName: ROTATE
p5342
tp5343
I2
s(Vinsert
p5344
I40
VQualifiedName: ScatterShape.SQUARE
p5345
tp5346
I1
s(Vinsert
p5347
I42
VSimpleName: bottomSpaceLeft
p5348
tp5349
I2
s(Vinsert
p5350
I40
VQualifiedName: ScatterChart.ScatterShape
p5351
tp5352
I2
s(Vinsert
p5353
I43
VSimpleType: PointF
p5354
tp5355
I10
s(Vinsert
p5356
I42
VSimpleName: InputStreamReader
p5357
tp5358
I2
s(Vinsert
p5359
I66
VTextElement: Either posts a job immediately if the chart has already setup it's
p5360
tp5361
I1
s(Vinsert
p5362
I42
VSimpleName: firstIndex
p5363
tp5364
I1
s(Vinsert
p5365
I42
VSimpleName: yVals
p5366
tp5367
I5
s(Vinsert
p5368
I42
VSimpleName: innerRadius
p5369
tp5370
I1
s(Vinsert
p5371
I27
VInfixExpression: <
p5372
tp5373
I133
s(Vinsert
p5374
I42
VSimpleName: T
p5375
tp5376
I13
s(Vinsert
p5377
I42
VSimpleName: setHighLightPerTapEnabled
p5378
tp5379
I1
s(Vinsert
p5380
I45
VStringLiteral: "Chart double-tapped."
p5381
tp5382
I1
s(Vinsert
p5383
I40
VQualifiedName: R.layout.list_item_barchart
p5384
tp5385
I1
s(Vinsert
p5386
I42
VSimpleName: isDragXEnabled
p5387
tp5388
I1
s(Vinsert
p5389
I42
VSimpleName: run
p5390
tp5391
I3
s(Vinsert
p5392
I66
VTextElement: in dp, default 8f
p5393
tp5394
I1
s(Vinsert
p5395
I42
VSimpleName: getTextBounds
p5396
tp5397
I3
s(Vinsert
p5398
I74
VParameterizedType: BarLineScatterCandleData<? extends BarLineScatterCandleRadarDataSet<? extends Entry>>
p5399
tp5400
I1
s(Vinsert
p5401
I42
VSimpleName: Range
p5402
tp5403
I3
s(Vinsert
p5404
I42
VSimpleName: elapsed
p5405
tp5406
I1
s(Vinsert
p5407
I42
VSimpleName: pts
p5408
tp5409
I33
s(Vinsert
p5410
I42
VSimpleName: setNoDataTextColor
p5411
tp5412
I1
s(Vinsert
p5413
I42
VSimpleName: mXLabelPaint
p5414
tp5415
I3
s(Vinsert
p5416
I42
VSimpleName: draw
p5417
tp5418
I2
s(Vinsert
p5419
I42
VSimpleName: view
p5420
tp5421
I2
s(Vinsert
p5422
I42
VSimpleName: mAnimatorX
p5423
tp5424
I5
s(Vinsert
p5425
I34
VNumberLiteral: 6f
p5426
tp5427
I3
s(Vinsert
p5428
I42
VSimpleName: BubbleDataSet
p5429
tp5430
I5
s(Vinsert
p5431
I42
VSimpleName: enabled
p5432
tp5433
I2
s(Vinsert
p5434
I40
VQualifiedName: LimitLine.LimitLabelPosition.LEFT_TOP
p5435
tp5436
I4
s(Vinsert
p5437
I45
VStringLiteral: "###,###,###"
p5438
tp5439
I1
s(Vinsert
p5440
I42
VSimpleName: DefaultAxisValueFormatter
p5441
tp5442
I1
s(Vinsert
p5443
I42
VSimpleName: drawCircle
p5444
tp5445
I1
s(Vinsert
p5446
I42
VSimpleName: isStacked
p5447
tp5448
I3
s(Vinsert
p5449
I42
VSimpleName: isVisible
p5450
tp5451
I1
s(Vinsert
p5452
I42
VSimpleName: leftAxis
p5453
tp5454
I9
s(Vinsert
p5455
I42
VSimpleName: scale
p5456
tp5457
I2
s(Vinsert
p5458
I66
VTextElement: Default: 70dp
p5459
tp5460
I1
s(Vinsert
p5461
I40
VQualifiedName: outputPoint.x
p5462
tp5463
I1
s(Vinsert
p5464
I42
VSimpleName: previous
p5465
tp5466
I1
s(Vinsert
p5467
I42
VSimpleName: sum
p5468
tp5469
I8
s(Vinsert
p5470
I10
VBreakStatement
p5471
tp5472
I28
s(Vinsert
p5473
I42
VSimpleName: animateX
p5474
tp5475
I11
s(Vinsert
p5476
I42
VSimpleName: isPinchZoomEnabled
p5477
tp5478
I7
s(Vinsert
p5479
I42
VSimpleName: equals
p5480
tp5481
I7
s(Vinsert
p5482
I40
VQualifiedName: Float.MAX_VALUE
p5483
tp5484
I13
s(Vinsert
p5485
I42
VSimpleName: copy
p5486
tp5487
I1
s(Vinsert
p5488
I40
VQualifiedName: pos.y
p5489
tp5490
I1
s(Vinsert
p5491
I42
VSimpleName: rightAxis
p5492
tp5493
I7
s(Vinsert
p5494
I40
VQualifiedName: labelRotatedSize.width
p5495
tp5496
I1
s(Vinsert
p5497
I42
VSimpleName: computeAxis
p5498
tp5499
I3
s(Vinsert
p5500
I42
VSimpleName: setCountJ
p5501
tp5502
I1
s(Vinsert
p5503
I42
VSimpleName: leftdist
p5504
tp5505
I1
s(Vinsert
p5506
I42
VSimpleName: getLowestVisibleXIndex
p5507
tp5508
I1
s(Vinsert
p5509
I42
VSimpleName: hasHoleColor
p5510
tp5511
I1
s(Vinsert
p5512
I66
VTextElement: Sets the used x-axis offset for the labels on this axis.
p5513
tp5514
I3
s(Vinsert
p5515
I45
VStringLiteral: "Time Chart"
p5516
tp5517
I1
s(Vinsert
p5518
I34
VNumberLiteral: 1.0
p5519
tp5520
I1
s(Vinsert
p5521
I42
VSimpleName: charAt
p5522
tp5523
I1
s(Vinsert
p5524
I40
VQualifiedName: reference.y
p5525
tp5526
I2
s(Vinsert
p5527
I45
VStringLiteral: ""
p5528
tp5529
I5
s(Vinsert
p5530
I42
VSimpleName: generateTransformedValuesHorizontalBarChart
p5531
tp5532
I1
s(Vinsert
p5533
I42
VSimpleName: yScale
p5534
tp5535
I2
s(Vinsert
p5536
I42
VSimpleName: valueTextWidth
p5537
tp5538
I1
s(Vinsert
p5539
I42
VSimpleName: setSliceSpace
p5540
tp5541
I1
s(Vinsert
p5542
I42
VSimpleName: b
p5543
tp5544
I13
s(Vinsert
p5545
I42
VSimpleName: getLegend
p5546
tp5547
I4
s(Vinsert
p5548
I42
VSimpleName: pointForGetYValueByTouchPoint
p5549
tp5550
I1
s(Vinsert
p5551
I66
VTextElement: number.
p5552
tp5553
I1
s(Vinsert
p5554
I42
VSimpleName: max
p5555
tp5556
I32
s(Vinsert
p5557
I42
VSimpleName: isStartAtZeroEnabled
p5558
tp5559
I6
s(Vinsert
p5560
I42
VSimpleName: maxXRange
p5561
tp5562
I2
s(Vinsert
p5563
I42
VSimpleName: highlights
p5564
tp5565
I3
s(Vinsert
p5566
I42
VSimpleName: getDataSetForEntry
p5567
tp5568
I1
s(Vinsert
p5569
I42
VSimpleName: isSingleColor
p5570
tp5571
I2
s(Vinsert
p5572
I42
VSimpleName: xlabelwidth
p5573
tp5574
I1
s(Vinsert
p5575
I40
VQualifiedName: mDecelerationVelocity.x
p5576
tp5577
I1
s(Vinsert
p5578
I43
VSimpleType: Intent
p5579
tp5580
I4
s(Vinsert
p5581
I42
VSimpleName: readFloat
p5582
tp5583
I1
s(Vinsert
p5584
I42
VSimpleName: convertPixelsToDp
p5585
tp5586
I1
s(Vinsert
p5587
I42
VSimpleName: dY
p5588
tp5589
I4
s(Vinsert
p5590
I34
VNumberLiteral: 167
p5591
tp5592
I1
s(Vinsert
p5593
I42
VSimpleName: floor
p5594
tp5595
I2
s(Vinsert
p5596
I42
VSimpleName: calcTextHeight
p5597
tp5598
I12
s(Vinsert
p5599
I42
VSimpleName: durationMillis
p5600
tp5601
I2
s(Vinsert
p5602
I42
VSimpleName: Transformer
p5603
tp5604
I6
s(Vinsert
p5605
I42
VSimpleName: mRealm
p5606
tp5607
I30
s(Vinsert
p5608
I34
VNumberLiteral: 0.3f
p5609
tp5610
I1
s(Vinsert
p5611
I40
VQualifiedName: xLabels.length
p5612
tp5613
I1
s(Vinsert
p5614
I42
VSimpleName: setDraw
p5615
tp5616
I3
s(Vinsert
p5617
I42
VSimpleName: isDrawLimitLinesBehindDataEnabled
p5618
tp5619
I3
s(Vinsert
p5620
I42
VSimpleName: mode
p5621
tp5622
I1
s(Vinsert
p5623
I42
VSimpleName: which
p5624
tp5625
I1
s(Vinsert
p5626
I42
VSimpleName: getScatterShapeSize
p5627
tp5628
I4
s(Vinsert
p5629
I42
VSimpleName: getLabelRotationAngle
p5630
tp5631
I2
s(Vinsert
p5632
I42
VSimpleName: XAxis
p5633
tp5634
I2
s(Vinsert
p5635
I40
VQualifiedName: drawOffset.y
p5636
tp5637
I1
s(Vinsert
p5638
I42
VSimpleName: getTouchMatrix
p5639
tp5640
I1
s(Vinsert
p5641
I34
VNumberLiteral: 20f
p5642
tp5643
I1
s(Vinsert
p5644
I42
VSimpleName: isDashedLineEnabled
p5645
tp5646
I3
s(Vinsert
p5647
I42
VSimpleName: holeRect
p5648
tp5649
I1
s(Vinsert
p5650
I42
VSimpleName: mExtraEntries
p5651
tp5652
I1
s(Vinsert
p5653
I42
VSimpleName: highlightTouch
p5654
tp5655
I1
s(Vinsert
p5656
I40
VQualifiedName: Intent.ACTION_SENDTO
p5657
tp5658
I1
s(Vinsert
p5659
I42
VSimpleName: yShift
p5660
tp5661
I2
s(Vinsert
p5662
I42
VSimpleName: mHighlightWidth
p5663
tp5664
I1
s(Vinsert
p5665
I66
VTextElement: Sets the color of the description text.
p5666
tp5667
I1
s(Vinsert
p5668
I74
VParameterizedType: List<MPPointF>
p5669
tp5670
I1
s(Vinsert
p5671
I40
VQualifiedName: View.VISIBLE
p5672
tp5673
I1
s(Vinsert
p5674
I42
VSimpleName: setCircleSize
p5675
tp5676
I1
s(Vinsert
p5677
I42
VSimpleName: setFillColor
p5678
tp5679
I2
s(Vinsert
p5680
I74
VParameterizedType: ArrayList<Integer>
p5681
tp5682
I10
s(Vinsert
p5683
I42
VSimpleName: height
p5684
tp5685
I9
s(Vinsert
p5686
I42
VSimpleName: addXValue
p5687
tp5688
I2
s(Vinsert
p5689
I42
VSimpleName: set1
p5690
tp5691
I18
s(Vinsert
p5692
I42
VSimpleName: getIndexByTouchPoint
p5693
tp5694
I1
s(Vinsert
p5695
I42
VSimpleName: right
p5696
tp5697
I8
s(Vinsert
p5698
I42
VSimpleName: mLegendLabels
p5699
tp5700
I1
s(Vinsert
p5701
I42
VSimpleName: chartMinY
p5702
tp5703
I1
s(Vinsert
p5704
I42
VSimpleName: XAxisValue
p5705
tp5706
I7
s(Vinsert
p5707
I42
VSimpleName: RuntimeException
p5708
tp5709
I1
s(Vinsert
p5710
I42
VSimpleName: setTouchEnabled
p5711
tp5712
I1
s(Vinsert
p5713
I42
VSimpleName: radiusPercent
p5714
tp5715
I1
s(Vinsert
p5716
I42
VSimpleName: topSpace
p5717
tp5718
I1
s(Vinsert
p5719
I43
VSimpleType: IRadarDataSet
p5720
tp5721
I4
s(Vinsert
p5722
I42
VSimpleName: prepareContentRect
p5723
tp5724
I1
s(Vinsert
p5725
I34
VNumberLiteral: 0.0f
p5726
tp5727
I2
s(Vinsert
p5728
I43
VSimpleType: SelectionDetail
p5729
tp5730
I2
s(Vinsert
p5731
I42
VSimpleName: setFitBars
p5732
tp5733
I7
s(Vinsert
p5734
I42
VSimpleName: setFlags
p5735
tp5736
I1
s(Vinsert
p5737
I42
VSimpleName: axis
p5738
tp5739
I20
s(Vinsert
p5740
I43
VSimpleType: ICandleDataSet
p5741
tp5742
I2
s(Vinsert
p5743
I45
VStringLiteral: "stackValues"
p5744
tp5745
I2
s(Vinsert
p5746
I42
VSimpleName: bar
p5747
tp5748
I3
s(Vinsert
p5749
I42
VSimpleName: mAxisLeft
p5750
tp5751
I12
s(Vinsert
p5752
I42
VSimpleName: drawCircleHole
p5753
tp5754
I1
s(Vinsert
p5755
I42
VSimpleName: xLegendOffset
p5756
tp5757
I1
s(Vinsert
p5758
I42
VSimpleName: BAR
p5759
tp5760
I1
s(Vinsert
p5761
I66
VTextElement: custom set), return true.
p5762
tp5763
I1
s(Vinsert
p5764
I40
VQualifiedName: ScatterShape.CIRCLE
p5765
tp5766
I1
s(Vinsert
p5767
I42
VSimpleName: dy
p5768
tp5769
I1
s(Vinsert
p5770
I42
VSimpleName: mRanges
p5771
tp5772
I1
s(Vinsert
p5773
I23
VFieldDeclaration
p5774
tp5775
I12
s(Vinsert
p5776
I42
VSimpleName: setDrawXVals
p5777
tp5778
I1
s(Vinsert
p5779
I42
VSimpleName: compress
p5780
tp5781
I1
s(Vinsert
p5782
I42
VSimpleName: YAxisRendererHorizontalBarChart
p5783
tp5784
I1
s(Vinsert
p5785
I42
VSimpleName: getVerticalAlignment
p5786
tp5787
I1
s(Vinsert
p5788
I40
VQualifiedName: mDecelerationCurrentPoint.x
p5789
tp5790
I1
s(Vinsert
p5791
I42
VSimpleName: Entry
p5792
tp5793
I69
s(Vinsert
p5794
I42
VSimpleName: dataMin
p5795
tp5796
I1
s(Vinsert
p5797
I42
VSimpleName: inflater
p5798
tp5799
I5
s(Vinsert
p5800
I42
VSimpleName: rnd
p5801
tp5802
I3
s(Vinsert
p5803
I42
VSimpleName: realm
p5804
tp5805
I1
s(Vinsert
p5806
I40
VQualifiedName: R.layout.custom_marker_view
p5807
tp5808
I5
s(Vinsert
p5809
I66
VTextElement: Sets the font size of the values that are drawn inside the chart.
p5810
tp5811
I1
s(Vinsert
p5812
I62
VInstanceofExpression
p5813
tp5814
I8
s(Vinsert
p5815
I42
VSimpleName: mZoomMatrixBuffer
p5816
tp5817
I2
s(Vinsert
p5818
I42
VSimpleName: mActivities
p5819
tp5820
I1
s(Vinsert
p5821
I42
VSimpleName: getMaxSize
p5822
tp5823
I1
s(Vinsert
p5824
I66
VTextElement: returns all colors specified for the circles
p5825
tp5826
I1
s(Vinsert
p5827
I42
VSimpleName: setWebColorInner
p5828
tp5829
I2
s(Vinsert
p5830
I42
VSimpleName: maxWidth
p5831
tp5832
I2
s(Vinsert
p5833
I45
VStringLiteral: "Center content x: "
p5834
tp5835
I1
s(Vinsert
p5836
I42
VSimpleName: calculateOffsets
p5837
tp5838
I4
s(Vinsert
p5839
I42
VSimpleName: realmConfig
p5840
tp5841
I1
s(Vinsert
p5842
I42
VSimpleName: onChartGestureEnd
p5843
tp5844
I1
s(Vinsert
p5845
I34
VNumberLiteral: 2
p5846
tp5847
I57
s(Vinsert
p5848
I42
VSimpleName: fromX
p5849
tp5850
I4
s(Vinsert
p5851
I42
VSimpleName: isDragYEnabled
p5852
tp5853
I1
s(Vinsert
p5854
I42
VSimpleName: setBounds
p5855
tp5856
I1
s(Vinsert
p5857
I42
VSimpleName: setCount
p5858
tp5859
I11
s(Vinsert
p5860
I42
VSimpleName: approx
p5861
tp5862
I3
s(Vinsert
p5863
I43
VSimpleType: ListView
p5864
tp5865
I2
s(Vinsert
p5866
I42
VSimpleName: sliceSpaceRadius
p5867
tp5868
I1
s(Vinsert
p5869
I66
VTextElement: Transform a rectangle with all matrices with potential animation phases.
p5870
tp5871
I1
s(Vinsert
p5872
I65
VTagElement: @return
p5873
tp5874
I20
s(Vinsert
p5875
I42
VSimpleName: animator
p5876
tp5877
I2
s(Vinsert
p5878
I42
VSimpleName: tmp
p5879
tp5880
I9
s(Vinsert
p5881
I42
VSimpleName: description
p5882
tp5883
I1
s(Vinsert
p5884
I34
VNumberLiteral: 247
p5885
tp5886
I1
s(Vinsert
p5887
I42
VSimpleName: out
p5888
tp5889
I2
s(Vinsert
p5890
I42
VSimpleName: totalDist
p5891
tp5892
I1
s(Vinsert
p5893
I42
VSimpleName: mFrom
p5894
tp5895
I2
s(Vinsert
p5896
I42
VSimpleName: barSpace
p5897
tp5898
I3
s(Vinsert
p5899
I42
VSimpleName: data
p5900
tp5901
I27
s(Vinsert
p5902
I31
VMethodDeclaration
p5903
tp5904
I63
s(Vinsert
p5905
I42
VSimpleName: mCurrentDrawingEntries
p5906
tp5907
I2
s(Vinsert
p5908
I42
VSimpleName: val
p5909
tp5910
I30
s(Vinsert
p5911
I42
VSimpleName: isAutomaticallyDisableSliceSpacing
p5912
tp5913
I1
s(Vinsert
p5914
I66
VTextElement: chart will
p5915
tp5916
I1
s(Vinsert
p5917
I27
VInfixExpression: *
p5918
tp5919
I78
s(Vinsert
p5920
I42
VSimpleName: val1
p5921
tp5922
I2
s(Vinsert
p5923
I40
VQualifiedName: mLegend.mNeededHeight
p5924
tp5925
I1
s(Vinsert
p5926
I39
VPrimitiveType: void
p5927
tp5928
I121
s(Vinsert
p5929
I42
VSimpleName: getExtraColors
p5930
tp5931
I2
s(Vinsert
p5932
I42
VSimpleName: onAnimationUpdate
p5933
tp5934
I1
s(Vinsert
p5935
I42
VSimpleName: imageCache
p5936
tp5937
I1
s(Vinsert
p5938
I42
VSimpleName: startX
p5939
tp5940
I1
s(Vinsert
p5941
I42
VSimpleName: mDrawDataSetSurfacePathBuffer
p5942
tp5943
I1
s(Vinsert
p5944
I42
VSimpleName: fillMin
p5945
tp5946
I3
s(Vinsert
p5947
I42
VSimpleName: WEBP
p5948
tp5949
I1
s(Vinsert
p5950
I42
VSimpleName: mFormSize
p5951
tp5952
I2
s(Vinsert
p5953
I66
VTextElement: 1 DataSet).
p5954
tp5955
I1
s(Vinsert
p5956
I43
VSimpleType: LineDataSet
p5957
tp5958
I33
s(Vinsert
p5959
I42
VSimpleName: getTextColor
p5960
tp5961
I2
s(Vinsert
p5962
I42
VSimpleName: mDrawHighlightCirclePathBuffer
p5963
tp5964
I1
s(Vinsert
p5965
I27
VInfixExpression: !=
p5966
tp5967
I63
s(Vinsert
p5968
I42
VSimpleName: end
p5969
tp5970
I4
s(Vinsert
p5971
I66
VTextElement: 0 if the BarData object only contains one DataSet (because for one
p5972
tp5973
I1
s(Vinsert
p5974
I42
VSimpleName: getRadius
p5975
tp5976
I1
s(Vinsert
p5977
I42
VSimpleName: centeringEnabled
p5978
tp5979
I1
s(Vinsert
p5980
I66
VTextElement: Returns the index of the provided DataSet in the DataSet array of this data object, or -1 if it does not exist.
p5981
tp5982
I1
s(Vinsert
p5983
I34
VNumberLiteral: 0.1f
p5984
tp5985
I2
s(Vinsert
p5986
I43
VSimpleType: AlertDialog.Builder
p5987
tp5988
I2
s(Vinsert
p5989
I39
VPrimitiveType: boolean
p5990
tp5991
I34
s(Vinsert
p5992
I42
VSimpleName: lineEntries2
p5993
tp5994
I2
s(Vinsert
p5995
I42
VSimpleName: getSDKInt
p5996
tp5997
I2
s(Vinsert
p5998
I42
VSimpleName: hashCode
p5999
tp6000
I1
s(Vinsert
p6001
I34
VNumberLiteral: 18
p6002
tp6003
I1
s(Vinsert
p6004
I42
VSimpleName: minScale
p6005
tp6006
I1
s(Vinsert
p6007
I42
VSimpleName: yValuesField
p6008
tp6009
I3
s(Vinsert
p6010
I42
VSimpleName: getSpaceBottom
p6011
tp6012
I1
s(Vinsert
p6013
I42
VSimpleName: getLow
p6014
tp6015
I2
s(Vinsert
p6016
I42
VSimpleName: setColor
p6017
tp6018
I46
s(Vinsert
p6019
I42
VSimpleName: setYOffset
p6020
tp6021
I3
s(Vinsert
p6022
I42
VSimpleName: replaceAll
p6023
tp6024
I1
s(Vinsert
p6025
I42
VSimpleName: numericValue1
p6026
tp6027
I1
s(Vinsert
p6028
I42
VSimpleName: getSliceAngle
p6029
tp6030
I2
s(Vinsert
p6031
I42
VSimpleName: setInvertYAxisEnabled
p6032
tp6033
I2
s(Vinsert
p6034
I34
VNumberLiteral: 1f
p6035
tp6036
I10
s(Vinsert
p6037
I42
VSimpleName: RectF
p6038
tp6039
I6
s(Vinsert
p6040
I42
VSimpleName: setPinchZoom
p6041
tp6042
I13
s(Vinsert
p6043
I43
VSimpleType: Typeface
p6044
tp6045
I5
s(Vinsert
p6046
I42
VSimpleName: FLOAT_EPSILON
p6047
tp6048
I1
s(Vinsert
p6049
I42
VSimpleName: viewPortHandler
p6050
tp6051
I4
s(Vinsert
p6052
I42
VSimpleName: dp
p6053
tp6054
I1
s(Vinsert
p6055
I42
VSimpleName: pos
p6056
tp6057
I7
s(Vinsert
p6058
I42
VSimpleName: prepareLegend
p6059
tp6060
I1
s(Vinsert
p6061
I42
VSimpleName: setFormLineDashEffect
p6062
tp6063
I1
s(Vinsert
p6064
I59
VVariableDeclarationFragment
p6065
tp6066
I629
s(Vinsert
p6067
I42
VSimpleName: bodyBuffer
p6068
tp6069
I1
s(Vinsert
p6070
I66
VTextElement: only applies for non custom shapes.
p6071
tp6072
I1
s(Vinsert
p6073
I42
VSimpleName: Utils
p6074
tp6075
I78
s(Vinsert
p6076
I42
VSimpleName: negRemain
p6077
tp6078
I2
s(Vinsert
p6079
I42
VSimpleName: setProgress
p6080
tp6081
I2
s(Vinsert
p6082
I40
VQualifiedName: com.github.mikephil.charting.highlight.Range
p6083
tp6084
I1
s(Vinsert
p6085
I42
VSimpleName: setup
p6086
tp6087
I1
s(Vinsert
p6088
I42
VSimpleName: offsetBottom
p6089
tp6090
I5
s(Vinsert
p6091
I42
VSimpleName: p
p6092
tp6093
I15
s(Vinsert
p6094
I42
VSimpleName: mDecreasingColors
p6095
tp6096
I3
s(Vinsert
p6097
I42
VSimpleName: deltaY
p6098
tp6099
I1
s(Vinsert
p6100
I42
VSimpleName: horizontal
p6101
tp6102
I1
s(Vinsert
p6103
I42
VSimpleName: approximator
p6104
tp6105
I1
s(Vinsert
p6106
I42
VSimpleName: results
p6107
tp6108
I22
s(Vinsert
p6109
I66
VTextElement: Returns true if this BarData object contains grouped DataSets (more than
p6110
tp6111
I1
s(Vinsert
p6112
I40
VQualifiedName: other.y
p6113
tp6114
I1
s(Vinsert
p6115
I40
VQualifiedName: mVals.length
p6116
tp6117
I2
s(Vinsert
p6118
I42
VSimpleName: mAxisDependency
p6119
tp6120
I1
s(Vinsert
p6121
I74
VParameterizedType: List<Entry>
p6122
tp6123
I2
s(Vinsert
p6124
I43
VSimpleType: ScatterShape
p6125
tp6126
I1
s(Vinsert
p6127
I42
VSimpleName: addBar
p6128
tp6129
I2
s(Vinsert
p6130
I42
VSimpleName: mCurrentData
p6131
tp6132
I7
s(Vinsert
p6133
I42
VSimpleName: getMaxShift
p6134
tp6135
I1
s(Vinsert
p6136
I42
VSimpleName: getChildCount
p6137
tp6138
I3
s(Vinsert
p6139
I40
VQualifiedName: Utils.FDEG2RAD
p6140
tp6141
I1
s(Vinsert
p6142
I42
VSimpleName: getAnimator
p6143
tp6144
I3
s(Vinsert
p6145
I42
VSimpleName: parse
p6146
tp6147
I1
s(Vinsert
p6148
I42
VSimpleName: mDrawCanvas
p6149
tp6150
I12
s(Vinsert
p6151
I42
VSimpleName: AxisBase
p6152
tp6153
I5
s(Vinsert
p6154
I42
VSimpleName: setTransparentCircleRadius
p6155
tp6156
I2
s(Vinsert
p6157
I42
VSimpleName: Runnable
p6158
tp6159
I7
s(Vinsert
p6160
I42
VSimpleName: textDrop
p6161
tp6162
I1
s(Vinsert
p6163
I42
VSimpleName: highlightValues
p6164
tp6165
I4
s(Vinsert
p6166
I34
VNumberLiteral: 60
p6167
tp6168
I1
s(Vinsert
p6169
I42
VSimpleName: calculatedLabelBreakPoints
p6170
tp6171
I2
s(Vinsert
p6172
I42
VSimpleName: mAxisRendererRight
p6173
tp6174
I2
s(Vinsert
p6175
I51
VSynchronizedStatement
p6176
tp6177
I1
s(Vinsert
p6178
I42
VSimpleName: LineData
p6179
tp6180
I3
s(Vinsert
p6181
I43
VSimpleType: XAxis
p6182
tp6183
I2
s(Vinsert
p6184
I42
VSimpleName: i
p6185
tp6186
I338
s(Vinsert
p6187
I45
VStringLiteral: "image/webp"
p6188
tp6189
I1
s(Vinsert
p6190
I42
VSimpleName: isVerticalHighlightIndicatorEnabled
p6191
tp6192
I1
s(Vinsert
p6193
I42
VSimpleName: calcMinMax
p6194
tp6195
I14
s(Vinsert
p6196
I42
VSimpleName: setCenterTextTypeface
p6197
tp6198
I2
s(Vinsert
p6199
I74
VParameterizedType: ArrayList<LineDataSet>
p6200
tp6201
I5
s(Vinsert
p6202
I42
VSimpleName: feed
p6203
tp6204
I1
s(Vinsert
p6205
I42
VSimpleName: valueTextHeight
p6206
tp6207
I2
s(Vinsert
p6208
I42
VSimpleName: groupSpace
p6209
tp6210
I2
s(Vinsert
p6211
I40
VQualifiedName: mYAxis.mEntries
p6212
tp6213
I3
s(Vinsert
p6214
I66
VTextElement: Sets the width of the web lines that come from the center.
p6215
tp6216
I1
s(Vinsert
p6217
I42
VSimpleName: xShift
p6218
tp6219
I2
s(Vinsert
p6220
I42
VSimpleName: event
p6221
tp6222
I10
s(Vinsert
p6223
I42
VSimpleName: setValueTextColor
p6224
tp6225
I9
s(Vinsert
p6226
I34
VNumberLiteral: 30f
p6227
tp6228
I3
s(Vinsert
p6229
I40
VQualifiedName: Utils.DEG2RAD
p6230
tp6231
I1
s(Vinsert
p6232
I42
VSimpleName: newInterval
p6233
tp6234
I1
s(Vinsert
p6235
I42
VSimpleName: currentTimeMillis
p6236
tp6237
I2
s(Vinsert
p6238
I42
VSimpleName: isDrawingValuesAllowed
p6239
tp6240
I1
s(Vinsert
p6241
I42
VSimpleName: mScaleX
p6242
tp6243
I2
s(Vinsert
p6244
I66
VTextElement: Default radius = 2f
p6245
tp6246
I2
s(Vinsert
p6247
I43
VSimpleType: V
p6248
tp6249
I1
s(Vinsert
p6250
I42
VSimpleName: setCircleColor
p6251
tp6252
I2
s(Vinsert
p6253
I42
VSimpleName: getExtraLabels
p6254
tp6255
I1
s(Vinsert
p6256
I42
VSimpleName: resetTracking
p6257
tp6258
I3
s(Vinsert
p6259
I42
VSimpleName: setHighlightPerDragEnabled
p6260
tp6261
I1
s(Vinsert
p6262
I42
VSimpleName: setValues
p6263
tp6264
I3
s(Vinsert
p6265
I66
VTextElement: sets a typeface for the value-paint
p6266
tp6267
I1
s(Vinsert
p6268
I43
VSimpleType: BarLineChartTouchListener
p6269
tp6270
I2
s(Vinsert
p6271
I42
VSimpleName: isUseCustomSuffix
p6272
tp6273
I1
s(Vinsert
p6274
I42
VSimpleName: ObjectAnimator
p6275
tp6276
I4
s(Vinsert
p6277
I42
VSimpleName: isInvertYAxisEnabled
p6278
tp6279
I1
s(Vinsert
p6280
I42
VSimpleName: leftRange
p6281
tp6282
I1
s(Vinsert
p6283
I40
VQualifiedName: ScatterShape.TRIANGLE
p6284
tp6285
I1
s(Vinsert
p6286
I42
VSimpleName: newAngle
p6287
tp6288
I1
s(Vinsert
p6289
I42
VSimpleName: isYLegendRounded
p6290
tp6291
I1
s(Vinsert
p6292
I43
VSimpleType: BorderStyle
p6293
tp6294
I1
s(Vinsert
p6295
I42
VSimpleName: startY
p6296
tp6297
I1
s(Vinsert
p6298
I42
VSimpleName: ViewGroup
p6299
tp6300
I6
s(Vinsert
p6301
I42
VSimpleName: mContentRect
p6302
tp6303
I7
s(Vinsert
p6304
I42
VSimpleName: dataObject
p6305
tp6306
I1
s(Vinsert
p6307
I42
VSimpleName: isInBoundsLeft
p6308
tp6309
I3
s(Vinsert
p6310
I42
VSimpleName: left
p6311
tp6312
I4
s(Vinsert
p6313
I42
VSimpleName: dynamicObject
p6314
tp6315
I20
s(Vinsert
p6316
I42
VSimpleName: getDataSetIndex
p6317
tp6318
I24
s(Vinsert
p6319
I42
VSimpleName: stack
p6320
tp6321
I3
s(Vinsert
p6322
I42
VSimpleName: SystemClock
p6323
tp6324
I1
s(Vinsert
p6325
I34
VNumberLiteral: 9f
p6326
tp6327
I1
s(Vinsert
p6328
I42
VSimpleName: mChart
p6329
tp6330
I219
s(Vinsert
p6331
I43
VSimpleType: YAxisRendererHorizontalBarChart
p6332
tp6333
I1
s(Vinsert
p6334
I40
VQualifiedName: DataSet.Rounding.UP
p6335
tp6336
I1
s(Vinsert
p6337
I43
VSimpleType: ContentValues
p6338
tp6339
I2
s(Vinsert
p6340
I42
VSimpleName: mDrawBarShadow
p6341
tp6342
I1
s(Vinsert
p6343
I42
VSimpleName: setFormSize
p6344
tp6345
I1
s(Vinsert
p6346
I42
VSimpleName: getYValueSum
p6347
tp6348
I6
s(Vinsert
p6349
I34
VNumberLiteral: 10.0f
p6350
tp6351
I6
s(Vinsert
p6352
I42
VSimpleName: mUnit
p6353
tp6354
I3
s(Vinsert
p6355
I66
VTextElement: Returns a recyclable MPPointF instance.
p6356
tp6357
I2
s(Vinsert
p6358
I42
VSimpleName: barHighlighter
p6359
tp6360
I3
s(Vinsert
p6361
I42
VSimpleName: add
p6362
tp6363
I84
s(Vinsert
p6364
I42
VSimpleName: assertEquals
p6365
tp6366
I11
s(Vinsert
p6367
I42
VSimpleName: mChartWidth
p6368
tp6369
I1
s(Vinsert
p6370
I42
VSimpleName: onChartSingleTapped
p6371
tp6372
I2
s(Vinsert
p6373
I42
VSimpleName: setScaleMinima
p6374
tp6375
I1
s(Vinsert
p6376
I42
VSimpleName: getViewPortHandler
p6377
tp6378
I3
s(Vinsert
p6379
I43
VSimpleType: OnChartGestureListener
p6380
tp6381
I4
s(Vinsert
p6382
I42
VSimpleName: mLabel
p6383
tp6384
I1
s(Vinsert
p6385
I42
VSimpleName: closestEntry
p6386
tp6387
I1
s(Vinsert
p6388
I40
VQualifiedName: anchor.y
p6389
tp6390
I1
s(Vinsert
p6391
I45
VStringLiteral: "Scatter DataSet"
p6392
tp6393
I1
s(Vinsert
p6394
I42
VSimpleName: interrupt
p6395
tp6396
I1
s(Vinsert
p6397
I42
VSimpleName: matrix
p6398
tp6399
I2
s(Vinsert
p6400
I45
VStringLiteral: "Total Value\u005cn"
p6401
tp6402
I1
s(Vinsert
p6403
I42
VSimpleName: mAxisValueFormatter
p6404
tp6405
I3
s(Vinsert
p6406
I42
VSimpleName: getAxisPaint
p6407
tp6408
I2
s(Vinsert
p6409
I42
VSimpleName: toX
p6410
tp6411
I3
s(Vinsert
p6412
I42
VSimpleName: distance
p6413
tp6414
I5
s(Vinsert
p6415
I34
VNumberLiteral: 234
p6416
tp6417
I1
s(Vinsert
p6418
I42
VSimpleName: StringBuffer
p6419
tp6420
I3
s(Vinsert
p6421
I40
VQualifiedName: R.id.tvNew
p6422
tp6423
I1
s(Vinsert
p6424
I27
VInfixExpression: &&
p6425
tp6426
I47
s(Vinsert
p6427
I42
VSimpleName: entry2
p6428
tp6429
I1
s(Vinsert
p6430
I40
VQualifiedName: Float.MIN_VALUE
p6431
tp6432
I5
s(Vinsert
p6433
I43
VSimpleType: Highlight
p6434
tp6435
I18
s(Vinsert
p6436
I42
VSimpleName: setStartAngle
p6437
tp6438
I1
s(Vinsert
p6439
I42
VSimpleName: reader
p6440
tp6441
I4
s(Vinsert
p6442
I42
VSimpleName: setExtra
p6443
tp6444
I1
s(Vinsert
p6445
I40
VQualifiedName: mCircleBox.left
p6446
tp6447
I1
s(Vinsert
p6448
I40
VQualifiedName: LegendPosition.LEFT_OF_CHART
p6449
tp6450
I2
s(Vinsert
p6451
I40
VQualifiedName: android.graphics.Typeface
p6452
tp6453
I1
s(Vinsert
p6454
I42
VSimpleName: ContentValues
p6455
tp6456
I2
s(Vinsert
p6457
I34
VNumberLiteral: 9
p6458
tp6459
I3
s(Vinsert
p6460
I42
VSimpleName: maxTransX
p6461
tp6462
I2
s(Vinsert
p6463
I42
VSimpleName: angleDegrees
p6464
tp6465
I1
s(Vinsert
p6466
I40
VQualifiedName: ApproximatorType.NONE
p6467
tp6468
I2
s(Vinsert
p6469
I42
VSimpleName: mYLabels
p6470
tp6471
I4
s(Vinsert
p6472
I40
VQualifiedName: mTouchStartPoint.y
p6473
tp6474
I3
s(Vinsert
p6475
I45
VStringLiteral: "TEST"
p6476
tp6477
I1
s(Vinsert
p6478
I42
VSimpleName: onPause
p6479
tp6480
I2
s(Vinsert
p6481
I34
VNumberLiteral: 0.01
p6482
tp6483
I1
s(Vinsert
p6484
I40
VQualifiedName: Color.RED
p6485
tp6486
I1
s(Vinsert
p6487
I42
VSimpleName: isHighlightFullBarEnabled
p6488
tp6489
I2
s(Vinsert
p6490
I42
VSimpleName: getCandleData
p6491
tp6492
I2
s(Vinsert
p6493
I42
VSimpleName: newMatrix
p6494
tp6495
I1
s(Vinsert
p6496
I42
VSimpleName: postInvalidateOnAnimation
p6497
tp6498
I2
s(Vinsert
p6499
I42
VSimpleName: min
p6500
tp6501
I27
s(Vinsert
p6502
I42
VSimpleName: mExtraColors
p6503
tp6504
I2
s(Vinsert
p6505
I27
VInfixExpression: <=
p6506
tp6507
I18
s(Vinsert
p6508
I42
VSimpleName: getStackSize
p6509
tp6510
I1
s(Vinsert
p6511
I42
VSimpleName: LimitLine
p6512
tp6513
I5
s(Vinsert
p6514
I42
VSimpleName: setExtraBottomOffset
p6515
tp6516
I1
s(Vinsert
p6517
I42
VSimpleName: getFontMetrics
p6518
tp6519
I2
s(Vinsert
p6520
I43
VSimpleType: RealmList
p6521
tp6522
I1
s(Vinsert
p6523
I42
VSimpleName: getDrawY
p6524
tp6525
I1
s(Vinsert
p6526
I42
VSimpleName: scatterShapeName
p6527
tp6528
I1
s(Vinsert
p6529
I27
VInfixExpression: /
p6530
tp6531
I61
s(Vinsert
p6532
I42
VSimpleName: isDrawBarShadowEnabled
p6533
tp6534
I1
s(Vinsert
p6535
I42
VSimpleName: postTranslate
p6536
tp6537
I6
s(Vinsert
p6538
I42
VSimpleName: isInBoundsTop
p6539
tp6540
I2
s(Vinsert
p6541
I42
VSimpleName: RealmList
p6542
tp6543
I1
s(Vinsert
p6544
I42
VSimpleName: mImageCaches
p6545
tp6546
I1
s(Vinsert
p6547
I45
VStringLiteral: "Sine function"
p6548
tp6549
I1
s(Vinsert
p6550
I40
VQualifiedName: bottomLeft.y
p6551
tp6552
I1
s(Vinsert
p6553
I42
VSimpleName: post
p6554
tp6555
I2
s(Vinsert
p6556
I42
VSimpleName: prepareValuePxMatrix
p6557
tp6558
I1
s(Vinsert
p6559
I42
VSimpleName: setText
p6560
tp6561
I3
s(Vinsert
p6562
I42
VSimpleName: prepareMatrixValuePx
p6563
tp6564
I2
s(Vinsert
p6565
I66
VTextElement: Returns the highest x-index (value on the x-axis) that is still visible
p6566
tp6567
I2
s(Vinsert
p6568
I42
VSimpleName: getXChartMax
p6569
tp6570
I2
s(Vinsert
p6571
I45
VStringLiteral: "Steak"
p6572
tp6573
I1
s(Vinsert
p6574
I42
VSimpleName: mHighlightCircleWidth
p6575
tp6576
I2
s(Vinsert
p6577
I42
VSimpleName: calcOffsetRight
p6578
tp6579
I1
s(Vinsert
p6580
I42
VSimpleName: textSize
p6581
tp6582
I1
s(Vinsert
p6583
I66
VTextElement: Draws the RadarDataSet
p6584
tp6585
I1
s(Vinsert
p6586
I42
VSimpleName: drawAngles
p6587
tp6588
I1
s(Vinsert
p6589
I42
VSimpleName: calculatedLineSizes
p6590
tp6591
I1
s(Vinsert
p6592
I42
VSimpleName: mCircleHoleRadius
p6593
tp6594
I2
s(Vinsert
p6595
I42
VSimpleName: setScaleXRange
p6596
tp6597
I1
s(Vinsert
p6598
I42
VSimpleName: ForegroundColorSpan
p6599
tp6600
I1
s(Vinsert
p6601
I42
VSimpleName: getDecimalDigits
p6602
tp6603
I4
s(Vinsert
p6604
I42
VSimpleName: isInverted
p6605
tp6606
I4
s(Vinsert
p6607
I42
VSimpleName: getYValue
p6608
tp6609
I2
s(Vinsert
p6610
I42
VSimpleName: MyYAxisValueFormatter
p6611
tp6612
I1
s(Vinsert
p6613
I42
VSimpleName: legendRight
p6614
tp6615
I4
s(Vinsert
p6616
I42
VSimpleName: indexFrom
p6617
tp6618
I1
s(Vinsert
p6619
I43
VSimpleType: CandleStickChartRenderer
p6620
tp6621
I2
s(Vinsert
p6622
I27
VInfixExpression: >>
p6623
tp6624
I1
s(Vinsert
p6625
I42
VSimpleName: moveViewTo
p6626
tp6627
I1
s(Vinsert
p6628
I42
VSimpleName: line
p6629
tp6630
I3
s(Vinsert
p6631
I40
VQualifiedName: io.realm.RealmResults
p6632
tp6633
I1
s(Vinsert
p6634
I40
VQualifiedName: com.github.mikephil.charting.utils.ViewPortHandler
p6635
tp6636
I1
s(Vinsert
p6637
I42
VSimpleName: minx
p6638
tp6639
I10
s(Vinsert
p6640
I42
VSimpleName: mTouchEnabled
p6641
tp6642
I1
s(Vinsert
p6643
I40
VQualifiedName: R.color.colorful_1
p6644
tp6645
I1
s(Vinsert
p6646
I34
VNumberLiteral: 0.7f
p6647
tp6648
I1
s(Vinsert
p6649
I74
VParameterizedType: ArrayList<RadarDataSet>
p6650
tp6651
I2
s(Vinsert
p6652
I34
VNumberLiteral: 13
p6653
tp6654
I2
s(Vinsert
p6655
I42
VSimpleName: mLineBuffer
p6656
tp6657
I1
s(Vinsert
p6658
I42
VSimpleName: getHeight
p6659
tp6660
I2
s(Vinsert
p6661
I42
VSimpleName: drawForm
p6662
tp6663
I3
s(Vinsert
p6664
I42
VSimpleName: mBarRect
p6665
tp6666
I5
s(Vinsert
p6667
I42
VSimpleName: rawInterval
p6668
tp6669
I1
s(Vinsert
p6670
I42
VSimpleName: setCircleColors
p6671
tp6672
I1
s(Vinsert
p6673
I42
VSimpleName: getDataSetCount
p6674
tp6675
I21
s(Vinsert
p6676
I42
VSimpleName: xBoundsBuffer
p6677
tp6678
I4
s(Vinsert
p6679
I42
VSimpleName: bounds
p6680
tp6681
I8
s(Vinsert
p6682
I43
VSimpleType: MarkerView
p6683
tp6684
I1
s(Vinsert
p6685
I42
VSimpleName: copyBounds
p6686
tp6687
I1
s(Vinsert
p6688
I42
VSimpleName: getSelectionDetailsAtIndex
p6689
tp6690
I1
s(Vinsert
p6691
I42
VSimpleName: ListView
p6692
tp6693
I2
s(Vinsert
p6694
I42
VSimpleName: drawRect
p6695
tp6696
I7
s(Vinsert
p6697
I42
VSimpleName: mAxisLinePaint
p6698
tp6699
I4
s(Vinsert
p6700
I42
VSimpleName: requestDisallowInterceptTouchEvent
p6701
tp6702
I1
s(Vinsert
p6703
I43
VSimpleType: BarLineScatterCandleData
p6704
tp6705
I1
s(Vinsert
p6706
I42
VSimpleName: mTypeFaceLight
p6707
tp6708
I1
s(Vinsert
p6709
I42
VSimpleName: mValuePaint
p6710
tp6711
I10
s(Vinsert
p6712
I74
VParameterizedType: List<LegendEntry>
p6713
tp6714
I1
s(Vinsert
p6715
I42
VSimpleName: mMinScalePointerDistance
p6716
tp6717
I1
s(Vinsert
p6718
I42
VSimpleName: gc
p6719
tp6720
I2
s(Vinsert
p6721
I42
VSimpleName: getXIndex
p6722
tp6723
I40
s(Vinsert
p6724
I42
VSimpleName: w
p6725
tp6726
I2
s(Vinsert
p6727
I43
VSimpleType: Bundle
p6728
tp6729
I7
s(Vinsert
p6730
I40
VQualifiedName: mLegend.mNeededWidth
p6731
tp6732
I2
s(Vinsert
p6733
I42
VSimpleName: getDataSet
p6734
tp6735
I3
s(Vinsert
p6736
I40
VQualifiedName: AnimationEasing.EasingFunction
p6737
tp6738
I1
s(Vinsert
p6739
I42
VSimpleName: dataSetSpace
p6740
tp6741
I1
s(Vinsert
p6742
I42
VSimpleName: getAxis
p6743
tp6744
I3
s(Vinsert
p6745
I42
VSimpleName: asList
p6746
tp6747
I2
s(Vinsert
p6748
I42
VSimpleName: getNeutralColor
p6749
tp6750
I1
s(Vinsert
p6751
I42
VSimpleName: setDecreasingColor
p6752
tp6753
I2
s(Vinsert
p6754
I42
VSimpleName: labelRadius
p6755
tp6756
I2
s(Vinsert
p6757
I42
VSimpleName: xValuesField
p6758
tp6759
I7
s(Vinsert
p6760
I40
VQualifiedName: iconsOffset.x
p6761
tp6762
I1
s(Vinsert
p6763
I42
VSimpleName: getEntryCount
p6764
tp6765
I32
s(Vinsert
p6766
I42
VSimpleName: restoreToCount
p6767
tp6768
I1
s(Vinsert
p6769
I42
VSimpleName: labelCount
p6770
tp6771
I3
s(Vinsert
p6772
I42
VSimpleName: getHighlighter
p6773
tp6774
I2
s(Vinsert
p6775
I42
VSimpleName: BorderStyle
p6776
tp6777
I1
s(Vinsert
p6778
I42
VSimpleName: getDataIndex
p6779
tp6780
I5
s(Vinsert
p6781
I42
VSimpleName: mXOffset
p6782
tp6783
I4
s(Vinsert
p6784
I42
VSimpleName: setDuration
p6785
tp6786
I1
s(Vinsert
p6787
I34
VNumberLiteral: 6
p6788
tp6789
I2
s(Vinsert
p6790
I42
VSimpleName: mLineWidth
p6791
tp6792
I3
s(Vinsert
p6793
I42
VSimpleName: setHighlightEnabled
p6794
tp6795
I6
s(Vinsert
p6796
I42
VSimpleName: getIndexForAngle
p6797
tp6798
I1
s(Vinsert
p6799
I42
VSimpleName: BarDataSet
p6800
tp6801
I32
s(Vinsert
p6802
I42
VSimpleName: list
p6803
tp6804
I1
s(Vinsert
p6805
I42
VSimpleName: inset
p6806
tp6807
I5
s(Vinsert
p6808
I42
VSimpleName: l
p6809
tp6810
I23
s(Vinsert
p6811
I45
VStringLiteral: ", height: "
p6812
tp6813
I1
s(Vinsert
p6814
I42
VSimpleName: setDrawCircles
p6815
tp6816
I3
s(Vinsert
p6817
I45
VStringLiteral: "Sarah"
p6818
tp6819
I3
s(Vinsert
p6820
I45
VStringLiteral: "Burger"
p6821
tp6822
I1
s(Vinsert
p6823
I42
VSimpleName: labelLineHeight
p6824
tp6825
I3
s(Vinsert
p6826
I40
VQualifiedName: YAxis.AxisDependency
p6827
tp6828
I1
s(Vinsert
p6829
I45
VStringLiteral: "label"
p6830
tp6831
I2
s(Vinsert
p6832
I42
VSimpleName: removeLast
p6833
tp6834
I1
s(Vinsert
p6835
I45
VStringLiteral: "MPChartLib-Utils"
p6836
tp6837
I1
s(Vinsert
p6838
I42
VSimpleName: curTime
p6839
tp6840
I1
s(Vinsert
p6841
I42
VSimpleName: getRandom
p6842
tp6843
I2
s(Vinsert
p6844
I27
VInfixExpression: &
p6845
tp6846
I1
s(Vinsert
p6847
I45
VStringLiteral: "colors array and labels array need to be of same size"
p6848
tp6849
I1
s(Vinsert
p6850
I42
VSimpleName: getChartHeight
p6851
tp6852
I4
s(Vinsert
p6853
I42
VSimpleName: mShapeSize
p6854
tp6855
I1
s(Vinsert
p6856
I42
VSimpleName: onCreateOptionsMenu
p6857
tp6858
I3
s(Vinsert
p6859
I42
VSimpleName: groupBars
p6860
tp6861
I3
s(Vinsert
p6862
I42
VSimpleName: removeEntry
p6863
tp6864
I1
s(Vinsert
p6865
I45
VStringLiteral: "LineDataSet"
p6866
tp6867
I1
s(Vinsert
p6868
I42
VSimpleName: ignorecase
p6869
tp6870
I5
s(Vinsert
p6871
I42
VSimpleName: clearValues
p6872
tp6873
I1
s(Vinsert
p6874
I42
VSimpleName: mLegend
p6875
tp6876
I44
s(Vinsert
p6877
I42
VSimpleName: createColors
p6878
tp6879
I2
s(Vinsert
p6880
I42
VSimpleName: getAxisRight
p6881
tp6882
I25
s(Vinsert
p6883
I42
VSimpleName: mAutoScaleMinMaxEnabled
p6884
tp6885
I1
s(Vinsert
p6886
I42
VSimpleName: enableScroll
p6887
tp6888
I3
s(Vinsert
p6889
I42
VSimpleName: width
p6890
tp6891
I47
s(Vinsert
p6892
I40
VQualifiedName: dragPoint.x
p6893
tp6894
I1
s(Vinsert
p6895
I42
VSimpleName: replenishPercentage
p6896
tp6897
I1
s(Vinsert
p6898
I66
VTextElement: false if not.
p6899
tp6900
I1
s(Vinsert
p6901
I42
VSimpleName: mClosestDataSetToTouch
p6902
tp6903
I2
s(Vinsert
p6904
I42
VSimpleName: ev
p6905
tp6906
I2
s(Vinsert
p6907
I42
VSimpleName: initShapeRenderers
p6908
tp6909
I1
s(Vinsert
p6910
I34
VNumberLiteral: 209
p6911
tp6912
I1
s(Vinsert
p6913
I34
VNumberLiteral: 140
p6914
tp6915
I3
s(Vinsert
p6916
I42
VSimpleName: setDrawXLabels
p6917
tp6918
I1
s(Vinsert
p6919
I42
VSimpleName: addEntry
p6920
tp6921
I8
s(Vinsert
p6922
I42
VSimpleName: mAnimator
p6923
tp6924
I12
s(Vinsert
p6925
I42
VSimpleName: BOTTOM
p6926
tp6927
I2
s(Vinsert
p6928
I42
VSimpleName: context
p6929
tp6930
I2
s(Vinsert
p6931
I42
VSimpleName: setNeutralColor
p6932
tp6933
I2
s(Vinsert
p6934
I40
VQualifiedName: time.isNew
p6935
tp6936
I1
s(Vinsert
p6937
I74
VParameterizedType: List<ILineDataSet>
p6938
tp6939
I2
s(Vinsert
p6940
I42
VSimpleName: canZoomMoreY
p6941
tp6942
I1
s(Vinsert
p6943
I42
VSimpleName: isDrawValuesEnabled
p6944
tp6945
I7
s(Vinsert
p6946
I40
VQualifiedName: com.github.mikephil.charting.data.Entry
p6947
tp6948
I1
s(Vinsert
p6949
I42
VSimpleName: monthName
p6950
tp6951
I1
s(Vinsert
p6952
I42
VSimpleName: pixels
p6953
tp6954
I1
s(Vinsert
p6955
I42
VSimpleName: FileUtils
p6956
tp6957
I2
s(Vinsert
p6958
I42
VSimpleName: mRectBuffer
p6959
tp6960
I1
s(Vinsert
p6961
I42
VSimpleName: setAxisMaxValue
p6962
tp6963
I3
s(Vinsert
p6964
I42
VSimpleName: firstSeries
p6965
tp6966
I1
s(Vinsert
p6967
I42
VSimpleName: setDrawFilled
p6968
tp6969
I3
s(Vinsert
p6970
I42
VSimpleName: LOG
p6971
tp6972
I2
s(Vinsert
p6973
I43
VSimpleType: WeakReference
p6974
tp6975
I4
s(Vinsert
p6976
I45
VStringLiteral: "OpenSans-Regular.ttf"
p6977
tp6978
I3
s(Vinsert
p6979
I42
VSimpleName: pixelsToValue
p6980
tp6981
I1
s(Vinsert
p6982
I42
VSimpleName: YLabels
p6983
tp6984
I1
s(Vinsert
p6985
I42
VSimpleName: setShadowWidth
p6986
tp6987
I3
s(Vinsert
p6988
I42
VSimpleName: mAnimatorY
p6989
tp6990
I2
s(Vinsert
p6991
I42
VSimpleName: build
p6992
tp6993
I5
s(Vinsert
p6994
I43
VSimpleType: DataSet.Rounding
p6995
tp6996
I1
s(Vinsert
p6997
I66
VTextElement: sets the text size of the legend labels, default 9f
p6998
tp6999
I1
s(Vinsert
p7000
I42
VSimpleName: getXAxis
p7001
tp7002
I15
s(Vinsert
p7003
I42
VSimpleName: ViewHolder
p7004
tp7005
I4
s(Vinsert
p7006
I42
VSimpleName: getSeriesByDataSetIndex
p7007
tp7008
I1
s(Vinsert
p7009
I42
VSimpleName: getTextAlign
p7010
tp7011
I1
s(Vinsert
p7012
I42
VSimpleName: yright
p7013
tp7014
I2
s(Vinsert
p7015
I42
VSimpleName: prev
p7016
tp7017
I3
s(Vinsert
p7018
I66
VTextElement: on the chart.
p7019
tp7020
I2
s(Vinsert
p7021
I42
VSimpleName: mScatterData
p7022
tp7023
I1
s(Vinsert
p7024
I40
VQualifiedName: pointF.y
p7025
tp7026
I2
s(Vinsert
p7027
I42
VSimpleName: cachedValue
p7028
tp7029
I1
s(Vinsert
p7030
I42
VSimpleName: setAdjustXLegend
p7031
tp7032
I2
s(Vinsert
p7033
I40
VQualifiedName: mIndicesToHightlight.length
p7034
tp7035
I1
s(Vinsert
p7036
I66
VTextElement: Init default ShapeRenderers.
p7037
tp7038
I1
s(Vinsert
p7039
I42
VSimpleName: getLineSpacing
p7040
tp7041
I1
s(Vinsert
p7042
I42
VSimpleName: ChartData
p7043
tp7044
I2
s(Vinsert
p7045
I42
VSimpleName: factor
p7046
tp7047
I4
s(Vinsert
p7048
I45
VStringLiteral: "9.5m"
p7049
tp7050
I1
s(Vinsert
p7051
I43
VSimpleType: DrawingContext
p7052
tp7053
I2
s(Vinsert
p7054
I42
VSimpleName: hasText
p7055
tp7056
I1
s(Vinsert
p7057
I42
VSimpleName: CandleDataSet
p7058
tp7059
I3
s(Vinsert
p7060
I42
VSimpleName: ret
p7061
tp7062
I1
s(Vinsert
p7063
I42
VSimpleName: ylabelwidth
p7064
tp7065
I2
s(Vinsert
p7066
I42
VSimpleName: mLimitLineSegmentsBuffer
p7067
tp7068
I1
s(Vinsert
p7069
I42
VSimpleName: mDrawZeroLinePathBuffer
p7070
tp7071
I1
s(Vinsert
p7072
I42
VSimpleName: getDataSets
p7073
tp7074
I17
s(Vinsert
p7075
I42
VSimpleName: setBorderWidth
p7076
tp7077
I1
s(Vinsert
p7078
I34
VNumberLiteral: 0.01f
p7079
tp7080
I6
s(Vinsert
p7081
I42
VSimpleName: DrawingContext
p7082
tp7083
I2
s(Vinsert
p7084
I42
VSimpleName: setFilter
p7085
tp7086
I8
s(Vinsert
p7087
I42
VSimpleName: RadarDataSet
p7088
tp7089
I4
s(Vinsert
p7090
I43
VSimpleType: String
p7091
tp7092
I58
s(Vinsert
p7093
I45
VStringLiteral: "DataSet "
p7094
tp7095
I1
s(Vinsert
p7096
I42
VSimpleName: getAction
p7097
tp7098
I2
s(Vinsert
p7099
I45
VStringLiteral: "colors array or labels array is NULL"
p7100
tp7101
I1
s(Vinsert
p7102
I40
VQualifiedName: reference.x
p7103
tp7104
I2
s(Vinsert
p7105
I42
VSimpleName: poolCount
p7106
tp7107
I1
s(Vinsert
p7108
I42
VSimpleName: xValCount
p7109
tp7110
I2
s(Vinsert
p7111
I42
VSimpleName: spline
p7112
tp7113
I3
s(Vinsert
p7114
I45
VStringLiteral: "Feature not available"
p7115
tp7116
I2
s(Vinsert
p7117
I40
VQualifiedName: mMonths.length
p7118
tp7119
I1
s(Vinsert
p7120
I42
VSimpleName: setBodySpace
p7121
tp7122
I1
s(Vinsert
p7123
I66
VTextElement: Adds a new LimitLine to this axis.
p7124
tp7125
I1
s(Vinsert
p7126
I42
VSimpleName: e
p7127
tp7128
I107
s(Vinsert
p7129
I42
VSimpleName: duration
p7130
tp7131
I4
s(Vinsert
p7132
I43
VSimpleType: Object
p7133
tp7134
I1
s(Vinsert
p7135
I40
VQualifiedName: mXAxis.mLabelRotatedWidth
p7136
tp7137
I1
s(Vinsert
p7138
I42
VSimpleName: limitFrom
p7139
tp7140
I2
s(Vinsert
p7141
I42
VSimpleName: outerRadius
p7142
tp7143
I1
s(Vinsert
p7144
I42
VSimpleName: valueTextColor
p7145
tp7146
I2
s(Vinsert
p7147
I42
VSimpleName: setInverted
p7148
tp7149
I2
s(Vinsert
p7150
I43
VSimpleType: ScatterDataSet
p7151
tp7152
I5
s(Vinsert
p7153
I42
VSimpleName: DialogInterface
p7154
tp7155
I1
s(Vinsert
p7156
I42
VSimpleName: dataObjects
p7157
tp7158
I2
s(Vinsert
p7159
I42
VSimpleName: layoutResource
p7160
tp7161
I1
s(Vinsert
p7162
I42
VSimpleName: closestYIndex
p7163
tp7164
I1
s(Vinsert
p7165
I42
VSimpleName: PieEntry
p7166
tp7167
I2
s(Vinsert
p7168
I42
VSimpleName: mRenderLimitLinesPathBuffer
p7169
tp7170
I1
s(Vinsert
p7171
I42
VSimpleName: msg
p7172
tp7173
I1
s(Vinsert
p7174
I42
VSimpleName: onTouch
p7175
tp7176
I1
s(Vinsert
p7177
I42
VSimpleName: getHigh
p7178
tp7179
I3
s(Vinsert
p7180
I43
VSimpleType: ApproximatorType
p7181
tp7182
I2
s(Vinsert
p7183
I42
VSimpleName: rotate
p7184
tp7185
I1
s(Vinsert
p7186
I42
VSimpleName: mCt
p7187
tp7188
I5
s(Vinsert
p7189
I42
VSimpleName: ceil
p7190
tp7191
I17
s(Vinsert
p7192
I40
VQualifiedName: R.color.vordiplom_1
p7193
tp7194
I1
s(Vinsert
p7195
I42
VSimpleName: IScatterDataSet
p7196
tp7197
I1
s(Vinsert
p7198
I42
VSimpleName: getPhaseX
p7199
tp7200
I1
s(Vinsert
p7201
I42
VSimpleName: getHighlight
p7202
tp7203
I7
s(Vinsert
p7204
I42
VSimpleName: getAxisLineColor
p7205
tp7206
I1
s(Vinsert
p7207
I42
VSimpleName: IBubbleDataSet
p7208
tp7209
I2
s(Vinsert
p7210
I45
VStringLiteral: "You need to set data for the chart before grouping bars."
p7211
tp7212
I1
s(Vinsert
p7213
I42
VSimpleName: sort
p7214
tp7215
I1
s(Vinsert
p7216
I42
VSimpleName: containedTriangleHeight
p7217
tp7218
I1
s(Vinsert
p7219
I42
VSimpleName: xValue
p7220
tp7221
I4
s(Vinsert
p7222
I42
VSimpleName: Drawable
p7223
tp7224
I4
s(Vinsert
p7225
I42
VSimpleName: IDataSet
p7226
tp7227
I7
s(Vinsert
p7228
I42
VSimpleName: contentTop
p7229
tp7230
I7
s(Vinsert
p7231
I42
VSimpleName: setStyle
p7232
tp7233
I15
s(Vinsert
p7234
I74
VParameterizedType: List<String>
p7235
tp7236
I2
s(Vinsert
p7237
I34
VNumberLiteral: 0.15f
p7238
tp7239
I1
s(Vinsert
p7240
I40
VQualifiedName: p.x
p7241
tp7242
I2
s(Vinsert
p7243
I42
VSimpleName: getCenterOffsets
p7244
tp7245
I1
s(Vinsert
p7246
I42
VSimpleName: Override
p7247
tp7248
I33
s(Vinsert
p7249
I42
VSimpleName: getSpaceTop
p7250
tp7251
I1
s(Vinsert
p7252
I43
VSimpleType: IBarLineScatterCandleBubbleDataSet
p7253
tp7254
I2
s(Vinsert
p7255
I42
VSimpleName: setDragTriggerDist
p7256
tp7257
I1
s(Vinsert
p7258
I42
VSimpleName: BarLineScatterCandleRadarDataSet
p7259
tp7260
I1
s(Vinsert
p7261
I42
VSimpleName: calcXBounds
p7262
tp7263
I4
s(Vinsert
p7264
I42
VSimpleName: drawArc
p7265
tp7266
I2
s(Vinsert
p7267
I42
VSimpleName: highlightValue
p7268
tp7269
I1
s(Vinsert
p7270
I42
VSimpleName: mZeroLineClippingRect
p7271
tp7272
I3
s(Vinsert
p7273
I42
VSimpleName: getCenterTextRadiusPercent
p7274
tp7275
I1
s(Vinsert
p7276
I42
VSimpleName: getShapeRenderer
p7277
tp7278
I1
s(Vinsert
p7279
I42
VSimpleName: DataSetImageCache
p7280
tp7281
I1
s(Vinsert
p7282
I42
VSimpleName: Color
p7283
tp7284
I21
s(Vinsert
p7285
I42
VSimpleName: mViewPortHandler
p7286
tp7287
I83
s(Vinsert
p7288
I40
VQualifiedName: Paint.Style.STROKE
p7289
tp7290
I2
s(Vinsert
p7291
I42
VSimpleName: setRoundedYLegend
p7292
tp7293
I3
s(Vinsert
p7294
I74
VParameterizedType: ArrayList<String>
p7295
tp7296
I1
s(Vinsert
p7297
I42
VSimpleName: translate
p7298
tp7299
I2
s(Vinsert
p7300
I42
VSimpleName: getDataOriginal
p7301
tp7302
I2
s(Vinsert
p7303
I42
VSimpleName: startsfrom
p7304
tp7305
I2
s(Vinsert
p7306
I66
VTextElement: Zooms out to original size.
p7307
tp7308
I2
s(Vinsert
p7309
I42
VSimpleName: getDataSetByIndex
p7310
tp7311
I14
s(Vinsert
p7312
I42
VSimpleName: d1
p7313
tp7314
I2
s(Vinsert
p7315
I42
VSimpleName: distReference
p7316
tp7317
I2
s(Vinsert
p7318
I42
VSimpleName: getBarData
p7319
tp7320
I6
s(Vinsert
p7321
I42
VSimpleName: fileName
p7322
tp7323
I2
s(Vinsert
p7324
I42
VSimpleName: text
p7325
tp7326
I8
s(Vinsert
p7327
I40
VQualifiedName: R.id.actionToggleIcons
p7328
tp7329
I2
s(Vinsert
p7330
I83
VModifier: private
p7331
tp7332
I32
s(Vinsert
p7333
I42
VSimpleName: generateTransformedValuesCandle
p7334
tp7335
I1
s(Vinsert
p7336
I40
VQualifiedName: R.id.actionTogglePinch
p7337
tp7338
I6
s(Vinsert
p7339
I43
VSimpleType: RadarChart
p7340
tp7341
I3
s(Vinsert
p7342
I42
VSimpleName: mMarkerView
p7343
tp7344
I6
s(Vinsert
p7345
I42
VSimpleName: put
p7346
tp7347
I4
s(Vinsert
p7348
I42
VSimpleName: Button
p7349
tp7350
I2
s(Vinsert
p7351
I42
VSimpleName: doubleToLongBits
p7352
tp7353
I1
s(Vinsert
p7354
I42
VSimpleName: label
p7355
tp7356
I16
s(Vinsert
p7357
I43
VSimpleType: RealmPieDataSet
p7358
tp7359
I3
s(Vinsert
p7360
I42
VSimpleName: mGranularityEnabled
p7361
tp7362
I1
s(Vinsert
p7363
I45
VStringLiteral: "Salad"
p7364
tp7365
I1
s(Vinsert
p7366
I42
VSimpleName: CandleEntry
p7367
tp7368
I11
s(Vinsert
p7369
I42
VSimpleName: getDaysForMonth
p7370
tp7371
I1
s(Vinsert
p7372
I42
VSimpleName: equalTo
p7373
tp7374
I4
s(Vinsert
p7375
I40
VQualifiedName: Color.LTGRAY
p7376
tp7377
I1
s(Vinsert
p7378
I74
VParameterizedType: RealmList<>
p7379
tp7380
I1
s(Vinsert
p7381
I53
VThrowStatement
p7382
tp7383
I3
s(Vinsert
p7384
I42
VSimpleName: mBubbleData
p7385
tp7386
I3
s(Vinsert
p7387
I42
VSimpleName: Rect
p7388
tp7389
I7
s(Vinsert
p7390
I42
VSimpleName: ct
p7391
tp7392
I2
s(Vinsert
p7393
I42
VSimpleName: mTypeFaceRegular
p7394
tp7395
I1
s(Vinsert
p7396
I42
VSimpleName: Matrix
p7397
tp7398
I30
s(Vinsert
p7399
I42
VSimpleName: getStyle
p7400
tp7401
I1
s(Vinsert
p7402
I42
VSimpleName: offsetTop
p7403
tp7404
I6
s(Vinsert
p7405
I42
VSimpleName: anchor
p7406
tp7407
I1
s(Vinsert
p7408
I40
VQualifiedName: Paint.ANTI_ALIAS_FLAG
p7409
tp7410
I4
s(Vinsert
p7411
I40
VQualifiedName: p1.y
p7412
tp7413
I1
s(Vinsert
p7414
I34
VNumberLiteral: 238
p7415
tp7416
I2
s(Vinsert
p7417
I40
VQualifiedName: YAxis.AxisDependency.LEFT
p7418
tp7419
I2
s(Vinsert
p7420
I43
VSimpleType: YAxis
p7421
tp7422
I6
s(Vinsert
p7423
I42
VSimpleName: mFormatValue
p7424
tp7425
I2
s(Vinsert
p7426
I37
VPostfixExpression: --
p7427
tp7428
I2
s(Vinsert
p7429
I66
VTextElement: sets the size in pixels of the legend forms, this is internally converted
p7430
tp7431
I1
s(Vinsert
p7432
I42
VSimpleName: mapPoints
p7433
tp7434
I7
s(Vinsert
p7435
I42
VSimpleName: z
p7436
tp7437
I2
s(Vinsert
p7438
I42
VSimpleName: mLabelRotationAngle
p7439
tp7440
I1
s(Vinsert
p7441
I42
VSimpleName: PieData
p7442
tp7443
I1
s(Vinsert
p7444
I45
VStringLiteral: "8"
p7445
tp7446
I2
s(Vinsert
p7447
I42
VSimpleName: getActionIndex
p7448
tp7449
I1
s(Vinsert
p7450
I21
VExpressionStatement
p7451
tp7452
I1019
s(Vinsert
p7453
I42
VSimpleName: getScatterShape
p7454
tp7455
I1
s(Vinsert
p7456
I42
VSimpleName: demoText
p7457
tp7458
I3
s(Vinsert
p7459
I26
VImportDeclaration
p7460
tp7461
I21
s(Vinsert
p7462
I66
VTextElement: DataSet
p7463
tp7464
I1
s(Vinsert
p7465
I42
VSimpleName: mDecelarationLastTime
p7466
tp7467
I1
s(Vinsert
p7468
I45
VStringLiteral: "\u005cn"
p7469
tp7470
I1
s(Vinsert
p7471
I42
VSimpleName: RadarChart
p7472
tp7473
I3
s(Vinsert
p7474
I42
VSimpleName: clockwise
p7475
tp7476
I1
s(Vinsert
p7477
I43
VSimpleType: PieData
p7478
tp7479
I1
s.