(lp0
(Vinsert
p1
I42
VSimpleName: isInBoundsX
p2
tp3
a(Vinsert
p4
I42
VSimpleName: sqrt
p5
tp6
a(Vinsert
p7
I42
VSimpleName: getData
p8
tp9
a(Vinsert
p10
I42
VSimpleName: setValueTypeface
p11
tp12
a(Vinsert
p13
I42
VSimpleName: drawData
p14
tp15
a(Vinsert
p16
I42
VSimpleName: getYMax
p17
tp18
a(Vinsert
p19
I42
VSimpleName: setBarWidth
p20
tp21
a(Vinsert
p22
I42
VSimpleName: roundToNextSignificant
p23
tp24
a(Vinsert
p25
I42
VSimpleName: longBitsToDouble
p26
tp27
a(Vinsert
p28
I42
VSimpleName: setOnClickListener
p29
tp30
a(Vinsert
p31
I42
VSimpleName: disableDashedLine
p32
tp33
a(Vinsert
p34
I42
VSimpleName: isDashedLineEnabled
p35
tp36
a(Vinsert
p37
I42
VSimpleName: setGroupSpace
p38
tp39
a(Vinsert
p40
I42
VSimpleName: setFillColor
p41
tp42
a(Vinsert
p43
I42
VSimpleName: reset
p44
tp45
a(Vinsert
p46
I42
VSimpleName: getLabel
p47
tp48
a(Vinsert
p49
I42
VSimpleName: height
p50
tp51
a(Vinsert
p52
I42
VSimpleName: addXValue
p53
tp54
a(Vinsert
p55
I42
VSimpleName: getFactor
p56
tp57
a(Vinsert
p58
I42
VSimpleName: getAssets
p59
tp60
a(Vinsert
p61
I42
VSimpleName: setTextAlign
p62
tp63
a(Vinsert
p64
I42
VSimpleName: formatNumber
p65
tp66
a(Vinsert
p67
I42
VSimpleName: setTouchEnabled
p68
tp69
a(Vinsert
p70
I42
VSimpleName: sleep
p71
tp72
a(Vinsert
p73
I42
VSimpleName: cos
p74
tp75
a(Vinsert
p76
I42
VSimpleName: setDrawLimitLinesBehindData
p77
tp78
a(Vinsert
p79
I42
VSimpleName: isEmpty
p80
tp81
a(Vinsert
p82
I42
VSimpleName: isHighlightPerDragEnabled
p83
tp84
a(Vinsert
p85
I42
VSimpleName: getHighlightLineWidth
p86
tp87
a(Vinsert
p88
I42
VSimpleName: setFitBars
p89
tp90
a(Vinsert
p91
I42
VSimpleName: getScaleY
p92
tp93
a(Vinsert
p94
I42
VSimpleName: setFlags
p95
tp96
a(Vinsert
p97
I42
VSimpleName: rgb
p98
tp99
a(Vinsert
p100
I42
VSimpleName: getWebModulus
p101
tp102
a(Vinsert
p103
I42
VSimpleName: println
p104
tp105
a(Vinsert
p106
I42
VSimpleName: getOnChartGestureListener
p107
tp108
a(Vinsert
p109
I42
VSimpleName: setOffsets
p110
tp111
a(Vinsert
p112
I42
VSimpleName: setHighLightCircleWidth
p113
tp114
a(Vinsert
p115
I42
VSimpleName: getCircleColorCount
p116
tp117
a(Vinsert
p118
I42
VSimpleName: addOval
p119
tp120
a(Vinsert
p121
I42
VSimpleName: clear
p122
tp123
a(Vinsert
p124
I42
VSimpleName: convertIntegers
p125
tp126
a(Vinsert
p127
I42
VSimpleName: equalsIgnoreCase
p128
tp129
a(Vinsert
p130
I42
VSimpleName: getFloat
p131
tp132
a(Vinsert
p133
I42
VSimpleName: makeText
p134
tp135
a(Vinsert
p136
I42
VSimpleName: getFontSpacing
p137
tp138
a(Vinsert
p139
I42
VSimpleName: contentLeft
p140
tp141
a(Vinsert
p142
I42
VSimpleName: setDrawXVals
p143
tp144
a(Vinsert
p145
I42
VSimpleName: getXOffset
p146
tp147
a(Vinsert
p148
I42
VSimpleName: addUpdateListener
p149
tp150
a(Vinsert
p151
I42
VSimpleName: getClosestDataSetIndex
p152
tp153
a(Vinsert
p154
I42
VSimpleName: hasChartDimens
p155
tp156
a(Vinsert
p157
I42
VSimpleName: isDragEnabled
p158
tp159
a(Vinsert
p160
I42
VSimpleName: isDrawSteppedEnabled
p161
tp162
a(Vinsert
p163
I42
VSimpleName: ascent
p164
tp165
a(Vinsert
p166
I42
VSimpleName: getInt
p167
tp168
a(Vinsert
p169
I42
VSimpleName: getDefaultInstance
p170
tp171
a(Vinsert
p172
I42
VSimpleName: lineTo
p173
tp174
a(Vinsert
p175
I42
VSimpleName: offsetLeft
p176
tp177
a(Vinsert
p178
I42
VSimpleName: getMeasuredWidth
p179
tp180
a(Vinsert
p181
I42
VSimpleName: getMaxSize
p182
tp183
a(Vinsert
p184
I42
VSimpleName: round
p185
tp186
a(Vinsert
p187
I42
VSimpleName: calculateOffsets
p188
tp189
a(Vinsert
p190
I42
VSimpleName: getRanges
p191
tp192
a(Vinsert
p193
I42
VSimpleName: isInBoundsY
p194
tp195
a(Vinsert
p196
I42
VSimpleName: isDragYEnabled
p197
tp198
a(Vinsert
p199
I42
VSimpleName: setStrokeWidth
p200
tp201
a(Vinsert
p202
I42
VSimpleName: set
p203
tp204
a(Vinsert
p205
I42
VSimpleName: convertDpToPixel
p206
tp207
a(Vinsert
p208
I42
VSimpleName: isHighLightPerTapEnabled
p209
tp210
a(Vinsert
p211
I42
VSimpleName: setFilter
p212
tp213
a(Vinsert
p214
I42
VSimpleName: getXVals
p215
tp216
a(Vinsert
p217
I42
VSimpleName: setDrawGridBackground
p218
tp219
a(Vinsert
p220
I42
VSimpleName: setExtraRightOffset
p221
tp222
a(Vinsert
p223
I42
VSimpleName: remove
p224
tp225
a(Vinsert
p226
I42
VSimpleName: clearValues
p227
tp228
a(Vinsert
p229
I42
VSimpleName: postTranslate
p230
tp231
a(Vinsert
p232
I42
VSimpleName: setFormatter
p233
tp234
a(Vinsert
p235
I42
VSimpleName: isDrawIconsEnabled
p236
tp237
a(Vinsert
p238
I42
VSimpleName: setLabelCount
p239
tp240
a(Vinsert
p241
I42
VSimpleName: setMessage
p242
tp243
a(Vinsert
p244
I42
VSimpleName: getNegativeSum
p245
tp246
a(Vinsert
p247
I42
VSimpleName: getYLabels
p248
tp249
a(Vinsert
p250
I42
VSimpleName: floor
p251
tp252
a(Vinsert
p253
I42
VSimpleName: getGridLineWidth
p254
tp255
a(Vinsert
p256
I42
VSimpleName: isAutomaticallyDisableSliceSpacing
p257
tp258
a(Vinsert
p259
I42
VSimpleName: getContext
p260
tp261
a(Vinsert
p262
I42
VSimpleName: getExtraColors
p263
tp264
a(Vinsert
p265
I42
VSimpleName: setSpan
p266
tp267
a(Vinsert
p268
I42
VSimpleName: setMinMaxScaleY
p269
tp270
a(Vinsert
p271
I42
VSimpleName: indexOf
p272
tp273
a(Vinsert
p274
I42
VSimpleName: setVisibility
p275
tp276
a(Vinsert
p277
I42
VSimpleName: getYMin
p278
tp279
a(Vinsert
p280
I42
VSimpleName: getEntryForXValue
p281
tp282
a(Vinsert
p283
I42
VSimpleName: split
p284
tp285
a(Vinsert
p286
I42
VSimpleName: setHorizontalAlignment
p287
tp288
a(Vinsert
p289
I42
VSimpleName: random
p290
tp291
a(Vinsert
p292
I42
VSimpleName: setScatterShapeSize
p293
tp294
a(Vinsert
p295
I42
VSimpleName: setWebLineWidthInner
p296
tp297
a(Vinsert
p298
I42
VSimpleName: recycle
p299
tp300
a(Vinsert
p301
I42
VSimpleName: getGreatestShapeSize
p302
tp303
a(Vinsert
p304
I42
VSimpleName: beginTransaction
p305
tp306
a(Vinsert
p307
I42
VSimpleName: getColors
p308
tp309
a(Vinsert
p310
I42
VSimpleName: isInBoundsRight
p311
tp312
a(Vinsert
p313
I42
VSimpleName: getYOffset
p314
tp315
a(Vinsert
p316
I42
VSimpleName: isNormalizeSizeEnabled
p317
tp318
a(Vinsert
p319
I42
VSimpleName: abs
p320
tp321
a(Vinsert
p322
I42
VSimpleName: getPositiveSum
p323
tp324
a(Vinsert
p325
I42
VSimpleName: setData
p326
tp327
a(Vinsert
p328
I42
VSimpleName: isDrawCubicEnabled
p329
tp330
a(Vinsert
p331
I42
VSimpleName: getFillColor
p332
tp333
a(Vinsert
p334
I42
VSimpleName: setDrawHighlightCircleEnabled
p335
tp336
a(Vinsert
p337
I42
VSimpleName: setPinchZoom
p338
tp339
a(Vinsert
p340
I42
VSimpleName: refreshContent
p341
tp342
a(Vinsert
p343
I42
VSimpleName: setBackgroundColor
p344
tp345
a(Vinsert
p346
I42
VSimpleName: uptimeMillis
p347
tp348
a(Vinsert
p349
I42
VSimpleName: setYEntrySpace
p350
tp351
a(Vinsert
p352
I42
VSimpleName: setZeroLineWidth
p353
tp354
a(Vinsert
p355
I42
VSimpleName: setDragEnabled
p356
tp357
a(Vinsert
p358
I42
VSimpleName: getY
p359
tp360
a(Vinsert
p361
I42
VSimpleName: setDrawValues
p362
tp363
a(Vinsert
p364
I42
VSimpleName: isInvertYAxisEnabled
p365
tp366
a(Vinsert
p367
I42
VSimpleName: getSpaceBottom
p368
tp369
a(Vinsert
p370
I42
VSimpleName: getLow
p371
tp372
a(Vinsert
p373
I42
VSimpleName: setColor
p374
tp375
a(Vinsert
p376
I42
VSimpleName: setYOffset
p377
tp378
a(Vinsert
p379
I42
VSimpleName: replaceAll
p380
tp381
a(Vinsert
p382
I42
VSimpleName: getGroupSpace
p383
tp384
a(Vinsert
p385
I42
VSimpleName: argb
p386
tp387
a(Vinsert
p388
I42
VSimpleName: disableScroll
p389
tp390
a(Vinsert
p391
I42
VSimpleName: setDrawingEnabled
p392
tp393
a(Vinsert
p394
I42
VSimpleName: getInstance
p395
tp396
a(Vinsert
p397
I42
VSimpleName: min
p398
tp399
a(Vinsert
p400
I42
VSimpleName: prepareLegend
p401
tp402
a(Vinsert
p403
I42
VSimpleName: setPadding
p404
tp405
a(Vinsert
p406
I42
VSimpleName: getSelectionShift
p407
tp408
a(Vinsert
p409
I42
VSimpleName: getXLabels
p410
tp411
a(Vinsert
p412
I42
VSimpleName: getMaxEntryCountSet
p413
tp414
a(Vinsert
p415
I42
VSimpleName: cubicTo
p416
tp417
a(Vinsert
p418
I42
VSimpleName: setup
p419
tp420
a(Vinsert
p421
I42
VSimpleName: createRenderers
p422
tp423
a(Vinsert
p424
I42
VSimpleName: offsetBottom
p425
tp426
a(Vinsert
p427
I42
VSimpleName: getIntrinsicWidth
p428
tp429
a(Vinsert
p430
I42
VSimpleName: getFillLinePosition
p431
tp432
a(Vinsert
p433
I42
VSimpleName: convertStrings
p434
tp435
a(Vinsert
p436
I42
VSimpleName: isDrawCircleHoleEnabled
p437
tp438
a(Vinsert
p439
I42
VSimpleName: notifyDataChanged
p440
tp441
a(Vinsert
p442
I42
VSimpleName: getTransformer
p443
tp444
a(Vinsert
p445
I42
VSimpleName: fromParts
p446
tp447
a(Vinsert
p448
I42
VSimpleName: centerViewPort
p449
tp450
a(Vinsert
p451
I42
VSimpleName: getChildCount
p452
tp453
a(Vinsert
p454
I42
VSimpleName: getAnimator
p455
tp456
a(Vinsert
p457
I42
VSimpleName: setHighlightFullBarEnabled
p458
tp459
a(Vinsert
p460
I42
VSimpleName: parse
p461
tp462
a(Vinsert
p463
I42
VSimpleName: setStartAtZero
p464
tp465
a(Vinsert
p466
I42
VSimpleName: setTransparentCircleRadius
p467
tp468
a(Vinsert
p469
I42
VSimpleName: saveToPath
p470
tp471
a(Vinsert
p472
I42
VSimpleName: setTextSize
p473
tp474
a(Vinsert
p475
I42
VSimpleName: granularity
p476
tp477
a(Vinsert
p478
I42
VSimpleName: setBarShadowColor
p479
tp480
a(Vinsert
p481
I42
VSimpleName: getAxisLeft
p482
tp483
a(Vinsert
p484
I42
VSimpleName: i
p485
tp486
a(Vinsert
p487
I42
VSimpleName: getTextSize
p488
tp489
a(Vinsert
p490
I42
VSimpleName: calcMinMax
p491
tp492
a(Vinsert
p493
I42
VSimpleName: getDataOriginal
p494
tp495
a(Vinsert
p496
I42
VSimpleName: setLogEnabled
p497
tp498
a(Vinsert
p499
I42
VSimpleName: setRoundedYLegend
p500
tp501
a(Vinsert
p502
I42
VSimpleName: isInBoundsBottom
p503
tp504
a(Vinsert
p505
I42
VSimpleName: setValueTextColor
p506
tp507
a(Vinsert
p508
I42
VSimpleName: getIndexForAngle
p509
tp510
a(Vinsert
p511
I42
VSimpleName: setDrawYValues
p512
tp513
a(Vinsert
p514
I42
VSimpleName: getFieldType
p515
tp516
a(Vinsert
p517
I42
VSimpleName: setBarSpacePercent
p518
tp519
a(Vinsert
p520
I42
VSimpleName: contentRight
p521
tp522
a(Vinsert
p523
I42
VSimpleName: isScaleXEnabled
p524
tp525
a(Vinsert
p526
I42
VSimpleName: getX
p527
tp528
a(Vinsert
p529
I42
VSimpleName: invalidate
p530
tp531
a(Vinsert
p532
I42
VSimpleName: toArray
p533
tp534
a(Vinsert
p535
I42
VSimpleName: loadEntriesFromAssets
p536
tp537
a(Vinsert
p538
I42
VSimpleName: resetTracking
p539
tp540
a(Vinsert
p541
I42
VSimpleName: setHighlightPerDragEnabled
p542
tp543
a(Vinsert
p544
I42
VSimpleName: setValues
p545
tp546
a(Vinsert
p547
I42
VSimpleName: setGranularity
p548
tp549
a(Vinsert
p550
I42
VSimpleName: getMatrixTouch
p551
tp552
a(Vinsert
p553
I42
VSimpleName: renderLimitLines
p554
tp555
a(Vinsert
p556
I42
VSimpleName: drawImage
p557
tp558
a(Vinsert
p559
I42
VSimpleName: containsKey
p560
tp561
a(Vinsert
p562
I42
VSimpleName: isEnabled
p563
tp564
a(Vinsert
p565
I42
VSimpleName: isHighlightEnabled
p566
tp567
a(Vinsert
p568
I42
VSimpleName: isDrawLabelsEnabled
p569
tp570
a(Vinsert
p571
I42
VSimpleName: setDecreasingPaintStyle
p572
tp573
a(Vinsert
p574
I42
VSimpleName: setInvertYAxisEnabled
p575
tp576
a(Vinsert
p577
I42
VSimpleName: isInBoundsLeft
p578
tp579
a(Vinsert
p580
I42
VSimpleName: setFakeBoldText
p581
tp582
a(Vinsert
p583
I42
VSimpleName: invert
p584
tp585
a(Vinsert
p586
I42
VSimpleName: getXValCount
p587
tp588
a(Vinsert
p589
I42
VSimpleName: getDataSetIndex
p590
tp591
a(Vinsert
p592
I42
VSimpleName: getZeroLineWidth
p593
tp594
a(Vinsert
p595
I42
VSimpleName: append
p596
tp597
a(Vinsert
p598
I42
VSimpleName: getLineColor
p599
tp600
a(Vinsert
p601
I42
VSimpleName: moveTo
p602
tp603
a(Vinsert
p604
I42
VSimpleName: filter
p605
tp606
a(Vinsert
p607
I42
VSimpleName: getPool
p608
tp609
a(Vinsert
p610
I42
VSimpleName: getXAxisInset
p611
tp612
a(Vinsert
p613
I42
VSimpleName: setFormSize
p614
tp615
a(Vinsert
p616
I42
VSimpleName: getYValueSum
p617
tp618
a(Vinsert
p619
I42
VSimpleName: setTypeface
p620
tp621
a(Vinsert
p622
I42
VSimpleName: add
p623
tp624
a(Vinsert
p625
I42
VSimpleName: getCircleSize
p626
tp627
a(Vinsert
p628
I42
VSimpleName: setChartView
p629
tp630
a(Vinsert
p631
I42
VSimpleName: isSeparateThousandsEnabled
p632
tp633
a(Vinsert
p634
I42
VSimpleName: setMaxHighlightDistance
p635
tp636
a(Vinsert
p637
I42
VSimpleName: getViewPortHandler
p638
tp639
a(Vinsert
p640
I42
VSimpleName: createFromAsset
p641
tp642
a(Vinsert
p643
I42
VSimpleName: zoom
p644
tp645
a(Vinsert
p646
I42
VSimpleName: drawText
p647
tp648
a(Vinsert
p649
I42
VSimpleName: isDrawFilledEnabled
p650
tp651
a(Vinsert
p652
I42
VSimpleName: ofFloat
p653
tp654
a(Vinsert
p655
I42
VSimpleName: postScale
p656
tp657
a(Vinsert
p658
I42
VSimpleName: setBarBorderWidth
p659
tp660
a(Vinsert
p661
I42
VSimpleName: getMode
p662
tp663
a(Vinsert
p664
I42
VSimpleName: isAutoScaleMinMaxEnabled
p665
tp666
a(Vinsert
p667
I42
VSimpleName: inflate
p668
tp669
a(Vinsert
p670
I42
VSimpleName: setDrawValuesForWholeStack
p671
tp672
a(Vinsert
p673
I42
VSimpleName: length
p674
tp675
a(Vinsert
p676
I42
VSimpleName: isHoleTransparent
p677
tp678
a(Vinsert
p679
I42
VSimpleName: getAxisPaint
p680
tp681
a(Vinsert
p682
I42
VSimpleName: setMinimumScaleX
p683
tp684
a(Vinsert
p685
I42
VSimpleName: setCenterXLabelText
p686
tp687
a(Vinsert
p688
I42
VSimpleName: floatToIntBits
p689
tp690
a(Vinsert
p691
I42
VSimpleName: setDrawValueAboveBar
p692
tp693
a(Vinsert
p694
I42
VSimpleName: getSkipWebLineCount
p695
tp696
a(Vinsert
p697
I42
VSimpleName: setGranularityEnabled
p698
tp699
a(Vinsert
p700
I42
VSimpleName: setLayoutParams
p701
tp702
a(Vinsert
p703
I42
VSimpleName: animateXY
p704
tp705
a(Vinsert
p706
I42
VSimpleName: newInstance
p707
tp708
a(Vinsert
p709
I42
VSimpleName: replace
p710
tp711
a(Vinsert
p712
I42
VSimpleName: setStartAngle
p713
tp714
a(Vinsert
p715
I42
VSimpleName: setValueTextColors
p716
tp717
a(Vinsert
p718
I42
VSimpleName: log10
p719
tp720
a(Vinsert
p721
I42
VSimpleName: setValueFormatter
p722
tp723
a(Vinsert
p724
I42
VSimpleName: toString
p725
tp726
a(Vinsert
p727
I42
VSimpleName: getPointerId
p728
tp729
a(Vinsert
p730
I42
VSimpleName: setDrawZeroLine
p731
tp732
a(Vinsert
p733
I42
VSimpleName: getXChartMin
p734
tp735
a(Vinsert
p736
I42
VSimpleName: getVals
p737
tp738
a(Vinsert
p739
I42
VSimpleName: close
p740
tp741
a(Vinsert
p742
I42
VSimpleName: setTypeAndTolerance
p743
tp744
a(Vinsert
p745
I42
VSimpleName: refresh
p746
tp747
a(Vinsert
p748
I42
VSimpleName: alpha
p749
tp750
a(Vinsert
p751
I42
VSimpleName: getProgress
p752
tp753
a(Vinsert
p754
I42
VSimpleName: isHighlightFullBarEnabled
p755
tp756
a(Vinsert
p757
I42
VSimpleName: contains
p758
tp759
a(Vinsert
p760
I42
VSimpleName: getCandleData
p761
tp762
a(Vinsert
p763
I42
VSimpleName: getIndexByTouchPoint
p764
tp765
a(Vinsert
p766
I42
VSimpleName: getDefaultValueFormatter
p767
tp768
a(Vinsert
p769
I42
VSimpleName: setPathEffect
p770
tp771
a(Vinsert
p772
I42
VSimpleName: postInvalidateOnAnimation
p773
tp774
a(Vinsert
p775
I42
VSimpleName: getFormattedValue
p776
tp777
a(Vinsert
p778
I42
VSimpleName: isNaN
p779
tp780
a(Vinsert
p781
I42
VSimpleName: setEnabled
p782
tp783
a(Vinsert
p784
I42
VSimpleName: setColorTemplate
p785
tp786
a(Vinsert
p787
I42
VSimpleName: getStackSize
p788
tp789
a(Vinsert
p790
I42
VSimpleName: setExtraBottomOffset
p791
tp792
a(Vinsert
p793
I42
VSimpleName: getFontMetrics
p794
tp795
a(Vinsert
p796
I42
VSimpleName: getDrawY
p797
tp798
a(Vinsert
p799
I42
VSimpleName: drawValues
p800
tp801
a(Vinsert
p802
I42
VSimpleName: getXAxis
p803
tp804
a(Vinsert
p805
I42
VSimpleName: isDrawBarShadowEnabled
p806
tp807
a(Vinsert
p808
I42
VSimpleName: setXOffset
p809
tp810
a(Vinsert
p811
I42
VSimpleName: isInBoundsTop
p812
tp813
a(Vinsert
p814
I42
VSimpleName: setReplenishPercentage
p815
tp816
a(Vinsert
p817
I42
VSimpleName: setText
p818
tp819
a(Vinsert
p820
I42
VSimpleName: setCircleHoleRadius
p821
tp822
a(Vinsert
p823
I42
VSimpleName: getYChartMin
p824
tp825
a(Vinsert
p826
I42
VSimpleName: getSDKInt
p827
tp828
a(Vinsert
p829
I42
VSimpleName: prepareMatrixValuePx
p830
tp831
a(Vinsert
p832
I42
VSimpleName: setDescription
p833
tp834
a(Vinsert
p835
I42
VSimpleName: start
p836
tp837
a(Vinsert
p838
I42
VSimpleName: getYValCount
p839
tp840
a(Vinsert
p841
I42
VSimpleName: where
p842
tp843
a(Vinsert
p844
I42
VSimpleName: compress
p845
tp846
a(Vinsert
p847
I42
VSimpleName: setScaleXRange
p848
tp849
a(Vinsert
p850
I42
VSimpleName: isLegendCustom
p851
tp852
a(Vinsert
p853
I42
VSimpleName: setOffsetBottom
p854
tp855
a(Vinsert
p856
I42
VSimpleName: sin
p857
tp858
a(Vinsert
p859
I42
VSimpleName: setTransparentCircleAlpha
p860
tp861
a(Vinsert
p862
I42
VSimpleName: getDecimalDigits
p863
tp864
a(Vinsert
p865
I42
VSimpleName: isInverted
p866
tp867
a(Vinsert
p868
I42
VSimpleName: setAxisMinValue
p869
tp870
a(Vinsert
p871
I42
VSimpleName: getDrawable
p872
tp873
a(Vinsert
p874
I42
VSimpleName: getPosition
p875
tp876
a(Vinsert
p877
I42
VSimpleName: setMarkerView
p878
tp879
a(Vinsert
p880
I42
VSimpleName: getWidth
p881
tp882
a(Vinsert
p883
I42
VSimpleName: addColorsForDataSets
p884
tp885
a(Vinsert
p886
I42
VSimpleName: moveViewTo
p887
tp888
a(Vinsert
p889
I42
VSimpleName: drawForm
p890
tp891
a(Vinsert
p892
I42
VSimpleName: setSpaceBottom
p893
tp894
a(Vinsert
p895
I42
VSimpleName: getIndexOfDataSet
p896
tp897
a(Vinsert
p898
I42
VSimpleName: setDragDecelerationFrictionCoef
p899
tp900
a(Vinsert
p901
I42
VSimpleName: getDataSetCount
p902
tp903
a(Vinsert
p904
I42
VSimpleName: setCenterTextTypeface
p905
tp906
a(Vinsert
p907
I42
VSimpleName: setDrawUnitsInYLabel
p908
tp909
a(Vinsert
p910
I42
VSimpleName: setUsePercentValues
p911
tp912
a(Vinsert
p913
I42
VSimpleName: setOnChartGestureListener
p914
tp915
a(Vinsert
p916
I42
VSimpleName: addColor
p917
tp918
a(Vinsert
p919
I42
VSimpleName: setDataIndex
p920
tp921
a(Vinsert
p922
I42
VSimpleName: getLineData
p923
tp924
a(Vinsert
p925
I42
VSimpleName: copyBounds
p926
tp927
a(Vinsert
p928
I42
VSimpleName: setYLabelCount
p929
tp930
a(Vinsert
p931
I42
VSimpleName: drawRect
p932
tp933
a(Vinsert
p934
I42
VSimpleName: isScaleYEnabled
p935
tp936
a(Vinsert
p937
I42
VSimpleName: setValueTextSize
p938
tp939
a(Vinsert
p940
I42
VSimpleName: getYVals
p941
tp942
a(Vinsert
p943
I42
VSimpleName: setShadowColorSameAsCandle
p944
tp945
a(Vinsert
p946
I42
VSimpleName: requestDisallowInterceptTouchEvent
p947
tp948
a(Vinsert
p949
I42
VSimpleName: getValueTextColor
p950
tp951
a(Vinsert
p952
I42
VSimpleName: findViewById
p953
tp954
a(Vinsert
p955
I42
VSimpleName: getChartWidth
p956
tp957
a(Vinsert
p958
I42
VSimpleName: getFormSize
p959
tp960
a(Vinsert
p961
I42
VSimpleName: contentBottom
p962
tp963
a(Vinsert
p964
I42
VSimpleName: getScatterShapeNames
p965
tp966
a(Vinsert
p967
I42
VSimpleName: getDataCurrent
p968
tp969
a(Vinsert
p970
I42
VSimpleName: animateY
p971
tp972
a(Vinsert
p973
I42
VSimpleName: gc
p974
tp975
a(Vinsert
p976
I42
VSimpleName: notifyDataSetChanged
p977
tp978
a(Vinsert
p979
I42
VSimpleName: getXIndex
p980
tp981
a(Vinsert
p982
I42
VSimpleName: w
p983
tp984
a(Vinsert
p985
I42
VSimpleName: getTextStyle
p986
tp987
a(Vinsert
p988
I42
VSimpleName: getDataSet
p989
tp990
a(Vinsert
p991
I42
VSimpleName: getDataSetColors
p992
tp993
a(Vinsert
p994
I42
VSimpleName: setAlpha
p995
tp996
a(Vinsert
p997
I42
VSimpleName: setAdjustXLegend
p998
tp999
a(Vinsert
p1000
I42
VSimpleName: asList
p1001
tp1002
a(Vinsert
p1003
I42
VSimpleName: removeDataSet
p1004
tp1005
a(Vinsert
p1006
I42
VSimpleName: setDecreasingColor
p1007
tp1008
a(Vinsert
p1009
I42
VSimpleName: getEntryCount
p1010
tp1011
a(Vinsert
p1012
I42
VSimpleName: setBodySpace
p1013
tp1014
a(Vinsert
p1015
I42
VSimpleName: highlightTouch
p1016
tp1017
a(Vinsert
p1018
I42
VSimpleName: getLowestVisibleX
p1019
tp1020
a(Vinsert
p1021
I42
VSimpleName: getDataIndex
p1022
tp1023
a(Vinsert
p1024
I42
VSimpleName: setNoDataTextDescription
p1025
tp1026
a(Vinsert
p1027
I42
VSimpleName: getGranularity
p1028
tp1029
a(Vinsert
p1030
I42
VSimpleName: getEntryForHighlight
p1031
tp1032
a(Vinsert
p1033
I42
VSimpleName: getFormatter
p1034
tp1035
a(Vinsert
p1036
I42
VSimpleName: setVals
p1037
tp1038
a(Vinsert
p1039
I42
VSimpleName: getIncreasingColor
p1040
tp1041
a(Vinsert
p1042
I42
VSimpleName: getAxisDependency
p1043
tp1044
a(Vinsert
p1045
I42
VSimpleName: getMeasuredHeight
p1046
tp1047
a(Vinsert
p1048
I42
VSimpleName: isDrawHighlightArrowEnabled
p1049
tp1050
a(Vinsert
p1051
I42
VSimpleName: enableGridDashedLine
p1052
tp1053
a(Vinsert
p1054
I42
VSimpleName: setDrawCircles
p1055
tp1056
a(Vinsert
p1057
I42
VSimpleName: getFormToTextSpace
p1058
tp1059
a(Vinsert
p1060
I42
VSimpleName: setPosition
p1061
tp1062
a(Vinsert
p1063
I42
VSimpleName: reduceWithDouglasPeucker
p1064
tp1065
a(Vinsert
p1066
I42
VSimpleName: getHighestVisibleX
p1067
tp1068
a(Vinsert
p1069
I42
VSimpleName: mapRect
p1070
tp1071
a(Vinsert
p1072
I42
VSimpleName: getChartHeight
p1073
tp1074
a(Vinsert
p1075
I42
VSimpleName: setScatterShape
p1076
tp1077
a(Vinsert
p1078
I42
VSimpleName: commitTransaction
p1079
tp1080
a(Vinsert
p1081
I42
VSimpleName: setHoleRadius
p1082
tp1083
a(Vinsert
p1084
I42
VSimpleName: groupBars
p1085
tp1086
a(Vinsert
p1087
I42
VSimpleName: clipRect
p1088
tp1089
a(Vinsert
p1090
I42
VSimpleName: setDrawCubic
p1091
tp1092
a(Vinsert
p1093
I42
VSimpleName: toXVals
p1094
tp1095
a(Vinsert
p1096
I42
VSimpleName: createColors
p1097
tp1098
a(Vinsert
p1099
I42
VSimpleName: onChartScale
p1100
tp1101
a(Vinsert
p1102
I42
VSimpleName: restrainViewPort
p1103
tp1104
a(Vinsert
p1105
I42
VSimpleName: getAxisRight
p1106
tp1107
a(Vinsert
p1108
I42
VSimpleName: enableScroll
p1109
tp1110
a(Vinsert
p1111
I42
VSimpleName: width
p1112
tp1113
a(Vinsert
p1114
I42
VSimpleName: resetAnimator
p1115
tp1116
a(Vinsert
p1117
I42
VSimpleName: setDrawXLabels
p1118
tp1119
a(Vinsert
p1120
I42
VSimpleName: calcTextWidth
p1121
tp1122
a(Vinsert
p1123
I42
VSimpleName: setLineWidth
p1124
tp1125
a(Vinsert
p1126
I42
VSimpleName: getLabelCount
p1127
tp1128
a(Vinsert
p1129
I42
VSimpleName: getType
p1130
tp1131
a(Vinsert
p1132
I42
VSimpleName: setNeutralColor
p1133
tp1134
a(Vinsert
p1135
I42
VSimpleName: getPixelsForValues
p1136
tp1137
a(Vinsert
p1138
I42
VSimpleName: getPhaseY
p1139
tp1140
a(Vinsert
p1141
I42
VSimpleName: setDrawAxisLine
p1142
tp1143
a(Vinsert
p1144
I42
VSimpleName: isDrawValuesEnabled
p1145
tp1146
a(Vinsert
p1147
I42
VSimpleName: drawLine
p1148
tp1149
a(Vinsert
p1150
I42
VSimpleName: addAll
p1151
tp1152
a(Vinsert
p1153
I42
VSimpleName: pow
p1154
tp1155
a(Vinsert
p1156
I42
VSimpleName: setYRangeFixed
p1157
tp1158
a(Vinsert
p1159
I42
VSimpleName: getDataSetByLabel
p1160
tp1161
a(Vinsert
p1162
I42
VSimpleName: getEntryForIndex
p1163
tp1164
a(Vinsert
p1165
I42
VSimpleName: setVisibleXRange
p1166
tp1167
a(Vinsert
p1168
I42
VSimpleName: refillPool
p1169
tp1170
a(Vinsert
p1171
I42
VSimpleName: getContentCenter
p1172
tp1173
a(Vinsert
p1174
I42
VSimpleName: isCenterAxisLabelsEnabled
p1175
tp1176
a(Vinsert
p1177
I42
VSimpleName: setHighLightColor
p1178
tp1179
a(Vinsert
p1180
I42
VSimpleName: calculate
p1181
tp1182
a(Vinsert
p1183
I42
VSimpleName: getXMin
p1184
tp1185
a(Vinsert
p1186
I42
VSimpleName: setSpaceTop
p1187
tp1188
a(Vinsert
p1189
I42
VSimpleName: addListener
p1190
tp1191
a(Vinsert
p1192
I42
VSimpleName: setDrawGridLines
p1193
tp1194
a(Vinsert
p1195
I42
VSimpleName: setTextColor
p1196
tp1197
a(Vinsert
p1198
I42
VSimpleName: isRotationEnabled
p1199
tp1200
a(Vinsert
p1201
I42
VSimpleName: setAvoidFirstLastClipping
p1202
tp1203
a(Vinsert
p1204
I42
VSimpleName: from
p1205
tp1206
a(Vinsert
p1207
I42
VSimpleName: setScatterShapeHoleRadius
p1208
tp1209
a(Vinsert
p1210
I42
VSimpleName: getOffsetRight
p1211
tp1212
a(Vinsert
p1213
I42
VSimpleName: limitFrom
p1214
tp1215
a(Vinsert
p1216
I42
VSimpleName: get
p1217
tp1218
a(Vinsert
p1219
I42
VSimpleName: getTransparentCircleRadius
p1220
tp1221
a(Vinsert
p1222
I42
VSimpleName: setAdapter
p1223
tp1224
a(Vinsert
p1225
I42
VSimpleName: intBitsToFloat
p1226
tp1227
a(Vinsert
p1228
I42
VSimpleName: getItemId
p1229
tp1230
a(Vinsert
p1231
I42
VSimpleName: dismiss
p1232
tp1233
a(Vinsert
p1234
I42
VSimpleName: highlightValues
p1235
tp1236
a(Vinsert
p1237
I42
VSimpleName: getDataSets
p1238
tp1239
a(Vinsert
p1240
I42
VSimpleName: recycleInstance
p1241
tp1242
a(Vinsert
p1243
I42
VSimpleName: setSpaceMax
p1244
tp1245
a(Vinsert
p1246
I42
VSimpleName: getAngleForPoint
p1247
tp1248
a(Vinsert
p1249
I42
VSimpleName: getValues
p1250
tp1251
a(Vinsert
p1252
I42
VSimpleName: setColors
p1253
tp1254
a(Vinsert
p1255
I42
VSimpleName: getAction
p1256
tp1257
a(Vinsert
p1258
I42
VSimpleName: getSum
p1259
tp1260
a(Vinsert
p1261
I42
VSimpleName: getXMax
p1262
tp1263
a(Vinsert
p1264
I42
VSimpleName: e
p1265
tp1266
a(Vinsert
p1267
I42
VSimpleName: getEntryIndex
p1268
tp1269
a(Vinsert
p1270
I42
VSimpleName: getLineHeight
p1271
tp1272
a(Vinsert
p1273
I42
VSimpleName: initBuffers
p1274
tp1275
a(Vinsert
p1276
I42
VSimpleName: getFormLineDashEffect
p1277
tp1278
a(Vinsert
p1279
I42
VSimpleName: setDrawOrder
p1280
tp1281
a(Vinsert
p1282
I42
VSimpleName: save
p1283
tp1284
a(Vinsert
p1285
I42
VSimpleName: getLegend
p1286
tp1287
a(Vinsert
p1288
I42
VSimpleName: endsWith
p1289
tp1290
a(Vinsert
p1291
I42
VSimpleName: getLabelPosition
p1292
tp1293
a(Vinsert
p1294
I42
VSimpleName: drawLabel
p1295
tp1296
a(Vinsert
p1297
I42
VSimpleName: findAll
p1298
tp1299
a(Vinsert
p1300
I42
VSimpleName: isDrawCirclesEnabled
p1301
tp1302
a(Vinsert
p1303
I42
VSimpleName: onTouch
p1304
tp1305
a(Vinsert
p1306
I42
VSimpleName: getMaxSizePercent
p1307
tp1308
a(Vinsert
p1309
I42
VSimpleName: getHigh
p1310
tp1311
a(Vinsert
p1312
I42
VSimpleName: ceil
p1313
tp1314
a(Vinsert
p1315
I42
VSimpleName: getDouble
p1316
tp1317
a(Vinsert
p1318
I42
VSimpleName: valueOf
p1319
tp1320
a(Vinsert
p1321
I42
VSimpleName: mapPoints
p1322
tp1323
a(Vinsert
p1324
I42
VSimpleName: setShadowColor
p1325
tp1326
a(Vinsert
p1327
I42
VSimpleName: releaseBitmap
p1328
tp1329
a(Vinsert
p1330
I42
VSimpleName: canZoomOutMoreY
p1331
tp1332
a(Vinsert
p1333
I42
VSimpleName: getVisibleXRange
p1334
tp1335
a(Vinsert
p1336
I42
VSimpleName: getBarSpace
p1337
tp1338
a(Vinsert
p1339
I42
VSimpleName: setYRange
p1340
tp1341
a(Vinsert
p1342
I42
VSimpleName: getEntryForXIndex
p1343
tp1344
a(Vinsert
p1345
I42
VSimpleName: setHighLightPerTapEnabled
p1346
tp1347
a(Vinsert
p1348
I42
VSimpleName: sort
p1349
tp1350
a(Vinsert
p1351
I42
VSimpleName: getVal
p1352
tp1353
a(Vinsert
p1354
I42
VSimpleName: getSliceSpace
p1355
tp1356
a(Vinsert
p1357
I42
VSimpleName: getTextBounds
p1358
tp1359
a(Vinsert
p1360
I42
VSimpleName: contentTop
p1361
tp1362
a(Vinsert
p1363
I42
VSimpleName: setStyle
p1364
tp1365
a(Vinsert
p1366
I42
VSimpleName: copyToRealm
p1367
tp1368
a(Vinsert
p1369
I42
VSimpleName: setLabelPosition
p1370
tp1371
a(Vinsert
p1372
I42
VSimpleName: setXEntrySpace
p1373
tp1374
a(Vinsert
p1375
I42
VSimpleName: getEntryPosition
p1376
tp1377
a(Vinsert
p1378
I42
VSimpleName: draw
p1379
tp1380
a(Vinsert
p1381
I42
VSimpleName: setProgress
p1382
tp1383
a(Vinsert
p1384
I42
VSimpleName: allObjects
p1385
tp1386
a(Vinsert
p1387
I42
VSimpleName: setHighlightEnabled
p1388
tp1389
a(Vinsert
p1390
I42
VSimpleName: calcXBounds
p1391
tp1392
a(Vinsert
p1393
I42
VSimpleName: drawArc
p1394
tp1395
a(Vinsert
p1396
I42
VSimpleName: getXValueFormatter
p1397
tp1398
a(Vinsert
p1399
I42
VSimpleName: getCenterTextRadiusPercent
p1400
tp1401
a(Vinsert
p1402
I42
VSimpleName: getShapeRenderer
p1403
tp1404
a(Vinsert
p1405
I42
VSimpleName: getDisplayMetrics
p1406
tp1407
a(Vinsert
p1408
I42
VSimpleName: drawCircle
p1409
tp1410
a(Vinsert
p1411
I42
VSimpleName: translate
p1412
tp1413
a(Vinsert
p1414
I42
VSimpleName: getIcon
p1415
tp1416
a(Vinsert
p1417
I42
VSimpleName: isStacked
p1418
tp1419
a(Vinsert
p1420
I42
VSimpleName: isVisible
p1421
tp1422
a(Vinsert
p1423
I42
VSimpleName: getDataSetByIndex
p1424
tp1425
a(Vinsert
p1426
I42
VSimpleName: getMinimumDistance
p1427
tp1428
a(Vinsert
p1429
I42
VSimpleName: getBarData
p1430
tp1431
a(Vinsert
p1432
I42
VSimpleName: getValuesByTouchPoint
p1433
tp1434
a(Vinsert
p1435
I42
VSimpleName: onChartSingleTapped
p1436
tp1437
a(Vinsert
p1438
I42
VSimpleName: animateX
p1439
tp1440
a(Vinsert
p1441
I42
VSimpleName: equals
p1442
tp1443
a(Vinsert
p1444
I42
VSimpleName: getColor
p1445
tp1446
a(Vinsert
p1447
I42
VSimpleName: computeAxis
p1448
tp1449
a(Vinsert
p1450
I42
VSimpleName: put
p1451
tp1452
a(Vinsert
p1453
I42
VSimpleName: needsDefaultFormatter
p1454
tp1455
a(Vinsert
p1456
I42
VSimpleName: getXChartMax
p1457
tp1458
a(Vinsert
p1459
I42
VSimpleName: getLowestVisibleXIndex
p1460
tp1461
a(Vinsert
p1462
I42
VSimpleName: isDoubleTapToZoomEnabled
p1463
tp1464
a(Vinsert
p1465
I42
VSimpleName: getScaleX
p1466
tp1467
a(Vinsert
p1468
I42
VSimpleName: getHeight
p1469
tp1470
a(Vinsert
p1471
I42
VSimpleName: open
p1472
tp1473
a(Vinsert
p1474
I42
VSimpleName: setAxisDependency
p1475
tp1476
a(Vinsert
p1477
I42
VSimpleName: equalTo
p1478
tp1479
a(Vinsert
p1480
I42
VSimpleName: getAxisMinValue
p1481
tp1482
a(Vinsert
p1483
I42
VSimpleName: setRatios
p1484
tp1485
a(Vinsert
p1486
I42
VSimpleName: setDraw
p1487
tp1488
a(Vinsert
p1489
I42
VSimpleName: generateTransformedValuesHorizontalBarChart
p1490
tp1491
a(Vinsert
p1492
I42
VSimpleName: setHighlightCircleWidth
p1493
tp1494
a(Vinsert
p1495
I42
VSimpleName: setSpaceBetweenLabels
p1496
tp1497
a(Vinsert
p1498
I42
VSimpleName: setSliceSpace
p1499
tp1500
a(Vinsert
p1501
I42
VSimpleName: setRotationAngle
p1502
tp1503
a(Vinsert
p1504
I42
VSimpleName: layout
p1505
tp1506
a(Vinsert
p1507
I42
VSimpleName: max
p1508
tp1509
a(Vinsert
p1510
I42
VSimpleName: toSimpleString
p1511
tp1512
a(Vinsert
p1513
I42
VSimpleName: isStartAtZeroEnabled
p1514
tp1515
a(Vinsert
p1516
I42
VSimpleName: isInfinite
p1517
tp1518
a(Vinsert
p1519
I42
VSimpleName: setAxisMaxValue
p1520
tp1521
a(Vinsert
p1522
I42
VSimpleName: getDecreasingColor
p1523
tp1524
a(Vinsert
p1525
I42
VSimpleName: init
p1526
tp1527
a(Vinsert
p1528
I42
VSimpleName: setMode
p1529
tp1530
a(Vinsert
p1531
I42
VSimpleName: getDataSetForEntry
p1532
tp1533
a(Vinsert
p1534
I42
VSimpleName: getEntryForXPos
p1535
tp1536
a(Vinsert
p1537
I42
VSimpleName: setInverted
p1538
tp1539
a(Vinsert
p1540
I42
VSimpleName: addDataSetColors
p1541
tp1542
a(Vinsert
p1543
I42
VSimpleName: setMaximumScaleX
p1544
tp1545
a(Vinsert
p1546
I42
VSimpleName: getXValAverageLength
p1547
tp1548
a(Vinsert
p1549
I42
VSimpleName: size
p1550
tp1551
a(Vinsert
p1552
I42
VSimpleName: getHighlight
p1553
tp1554
a(Vinsert
p1555
I42
VSimpleName: readFloat
p1556
tp1557
a(Vinsert
p1558
I42
VSimpleName: setDrawBarShadow
p1559
tp1560
a(Vinsert
p1561
I42
VSimpleName: setDrawIcons
p1562
tp1563
a(Vinsert
p1564
I42
VSimpleName: setLastHighlighted
p1565
tp1566
a(Vinsert
p1567
I42
VSimpleName: calcTextHeight
p1568
tp1569
a(Vinsert
p1570
I42
VSimpleName: getContentRect
p1571
tp1572
a(Vinsert
p1573
I42
VSimpleName: format
p1574
tp1575
a(Vinsert
p1576
I42
VSimpleName: pointValuesToPixel
p1577
tp1578
a(Vinsert
p1579
I42
VSimpleName: getXPx
p1580
tp1581
a(Vinsert
p1582
I42
VSimpleName: getScatterShapeSize
p1583
tp1584
a(Vinsert
p1585
I42
VSimpleName: getLabelRotationAngle
p1586
tp1587
a(Vinsert
p1588
I42
VSimpleName: renderAxisLine
p1589
tp1590
a.