(dp0
(Vinsert
p1
I42
VSimpleName: getUsername
p2
Vinsert
p3
I42
VSimpleName: other
p4
tp5
I1
s(Vinsert
p6
I42
VSimpleName: getTagId
p7
Vinsert
p8
I27
VInfixExpression: ==
p9
tp10
I2
s(g1
I42
g2
Vinsert
p11
I42
VSimpleName: getUsername
p12
tp13
I1
s(Vinsert
p14
I42
VSimpleName: put
p15
Vinsert
p16
I36
VParenthesizedExpression
p17
tp18
I1
s(Vinsert
p19
I42
VSimpleName: getTitle
p20
Vinsert
p21
I42
VSimpleName: getTitle
p22
tp23
I3
s(Vinsert
p24
I42
VSimpleName: insertSelective
p25
Vinsert
p26
I42
VSimpleName: upmsOrganization
p27
tp28
I1
s(Vinsert
p29
I42
VSimpleName: append
p30
Vinsert
p31
I45
VStringLiteral: ", tagId="
p32
tp33
I1
s(Vinsert
p34
I42
VSimpleName: getSalt
p35
Vinsert
p36
I42
VSimpleName: other
p37
tp38
I2
s(Vinsert
p39
I42
VSimpleName: getLogger
p40
Vinsert
p41
I42
VSimpleName: _log
p42
tp43
I2
s(g34
I42
g35
Vinsert
p44
I27
VInfixExpression: ==
p45
tp46
I2
s(Vinsert
p47
I42
VSimpleName: getContent
p48
Vinsert
p49
I16
VConditionalExpression
p50
tp51
I2
s(Vinsert
p52
I42
VSimpleName: getOauthId
p53
Vinsert
p54
I33
VNullLiteral
p55
tp56
I2
s(Vinsert
p57
I42
VSimpleName: getType
p58
Vinsert
p59
I36
VParenthesizedExpression
p60
tp61
I1
s(Vinsert
p62
I42
VSimpleName: setUserId
p63
Vinsert
p64
I42
VSimpleName: cmsComment
p65
tp66
I9
s(Vinsert
p67
I42
VSimpleName: println
p68
Vinsert
p69
I39
VPrimitiveType: void
p70
tp71
I16
s(Vinsert
p72
I42
VSimpleName: addMethod
p73
Vinsert
p74
I42
VSimpleName: integerWrapper
p75
tp76
I1
s(Vinsert
p77
I42
VSimpleName: equals
p78
Vinsert
p79
I27
VInfixExpression: ==
p80
tp81
I2
s(Vinsert
p82
I42
VSimpleName: getAbsoluteFile
p83
Vinsert
p84
I42
VSimpleName: RESULT
p85
tp86
I1
s(Vinsert
p87
I42
VSimpleName: isEmpty
p88
Vinsert
p89
I60
VVariableDeclarationStatement
p90
tp91
I1
s(Vinsert
p92
I42
VSimpleName: getOrders
p93
Vinsert
p94
I27
VInfixExpression: ==
p95
tp96
I3
s(Vinsert
p97
I42
VSimpleName: create
p98
Vinsert
p99
I83
VModifier: public
p100
tp101
I1
s(g82
I42
g83
Vinsert
p102
I32
VMethodInvocation
p103
tp104
I3
s(Vinsert
p105
I42
VSimpleName: printStackTrace
p106
Vinsert
p107
I21
VExpressionStatement
p108
tp109
I2
s(Vinsert
p110
I42
VSimpleName: toString
p111
Vinsert
p112
I42
VSimpleName: result
p113
tp114
I1
s(g97
I42
g98
Vinsert
p115
I77
VNormalAnnotation
p116
tp117
I1
s(Vinsert
p118
I42
VSimpleName: getName
p119
Vinsert
p120
I42
VSimpleName: node2
p121
tp122
I2
s(g82
I42
g83
Vinsert
p123
I21
VExpressionStatement
p124
tp125
I2
s(Vinsert
p126
I42
VSimpleName: standaloneSetup
p127
Vinsert
p128
I32
VMethodInvocation
p129
tp130
I2
s(g110
I42
g111
Vinsert
p131
I41
VReturnStatement
p132
tp133
I1
s(Vinsert
p134
I42
VSimpleName: addAttribute
p135
Vinsert
p136
I42
VSimpleName: cmsArticleService
p137
tp138
I1
s(g126
I42
g127
Vinsert
p139
I21
VExpressionStatement
p140
tp141
I1
s(g67
I42
g68
Vinsert
p142
I32
VMethodInvocation
p143
tp144
I17
s(Vinsert
p145
I42
VSimpleName: andPidEqualTo
p146
Vinsert
p147
I42
VSimpleName: cmsMenu
p148
tp149
I1
s(g92
I42
g93
Vinsert
p150
I32
VMethodInvocation
p151
tp152
I12
s(Vinsert
p153
I42
VSimpleName: getCategoryId
p154
Vinsert
p155
I33
VNullLiteral
p156
tp157
I1
s(g134
I42
g135
Vinsert
p158
I42
VSimpleName: model
p159
tp160
I1
s(Vinsert
p161
I42
VSimpleName: getUserId
p162
Vinsert
p163
I42
VSimpleName: other
p164
tp165
I2
s(Vinsert
p166
I42
VSimpleName: addAttribute
p167
Vinsert
p168
I44
VSingleVariableDeclaration
p169
tp170
I1
s(g1
I42
g2
Vinsert
p171
I33
VNullLiteral
p172
tp173
I1
s(g67
I42
g68
Vinsert
p174
I42
VSimpleName: test
p175
tp176
I3
s(Vinsert
p177
I42
VSimpleName: append
p178
Vinsert
p179
I42
VSimpleName: append
p180
tp181
I25
s(Vinsert
p182
I42
VSimpleName: getOrders
p183
Vinsert
p184
I42
VSimpleName: getCtime
p185
tp186
I6
s(g134
I42
g135
Vinsert
p187
I43
VSimpleType: CmsArticle
p188
tp189
I1
s(Vinsert
p190
I42
VSimpleName: getName
p191
Vinsert
p192
I42
VSimpleName: other
p193
tp194
I3
s(Vinsert
p195
I42
VSimpleName: getSession
p196
Vinsert
p197
I11
VCastExpression
p198
tp199
I1
s(Vinsert
p200
I42
VSimpleName: debug
p201
Vinsert
p202
I42
VSimpleName: Session
p203
tp204
I1
s(g195
I42
g196
Vinsert
p205
I42
VSimpleName: response
p206
tp207
I1
s(g166
I42
g167
Vinsert
p208
I42
VSimpleName: map
p209
tp210
I2
s(Vinsert
p211
I42
VSimpleName: put
p212
Vinsert
p213
I42
VSimpleName: JSONObject
p214
tp215
I3
s(g118
I42
g119
Vinsert
p216
I42
VSimpleName: upmsPermission2
p217
tp218
I2
s(Vinsert
p219
I42
VSimpleName: andRealnameLike
p220
Vinsert
p221
I43
VSimpleType: String
p222
tp223
I1
s(Vinsert
p224
I42
VSimpleName: update
p225
Vinsert
p226
I8
VBlock
p227
tp228
I1
s(g211
I42
g212
Vinsert
p229
I45
VStringLiteral: "callbackUrl"
p230
tp231
I1
s(Vinsert
p232
I42
VSimpleName: append
p233
Vinsert
p234
I42
VSimpleName: commentId
p235
tp236
I1
s(Vinsert
p237
I42
VSimpleName: getMapper
p238
Vinsert
p239
I42
VSimpleName: cmsCommentService
p240
tp241
I1
s(g134
I42
g135
Vinsert
p242
I21
VExpressionStatement
p243
tp244
I2
s(g92
I42
g93
Vinsert
p245
I52
VThisExpression
p246
tp247
I6
s(Vinsert
p248
I42
VSimpleName: println
p249
Vinsert
p250
I42
VSimpleName: index
p251
tp252
I1
s(Vinsert
p253
I42
VSimpleName: getName
p254
Vinsert
p255
I36
VParenthesizedExpression
p256
tp257
I1
s(g52
I42
g53
Vinsert
p258
I42
VSimpleName: equals
p259
tp260
I1
s(g39
I42
g40
Vinsert
p261
I42
VSimpleName: RequestMapping
p262
tp263
I2
s(g219
I42
g220
Vinsert
p264
I32
VMethodInvocation
p265
tp266
I3
s(g177
I42
g178
Vinsert
p267
I42
VSimpleName: getServerPort
p268
tp269
I1
s(g97
I42
g98
Vinsert
p270
I42
VSimpleName: ConfigurationProperties
p271
tp272
I1
s(g39
I42
g40
Vinsert
p273
I83
VModifier: public
p274
tp275
I2
s(g52
I42
g53
Vinsert
p276
I27
VInfixExpression: ==
p277
tp278
I1
s(g39
I42
g40
Vinsert
p279
I42
VSimpleName: UserController
p280
tp281
I2
s(g6
I42
g7
Vinsert
p282
I42
VSimpleName: getArticleId
p283
tp284
I3
s(g62
I42
g63
Vinsert
p285
I42
VSimpleName: System
p286
tp287
I3
s(Vinsert
p288
I42
VSimpleName: addImportedType
p289
Vinsert
p290
I42
VSimpleName: introspectedTable
p291
tp292
I1
s(g57
I42
g58
Vinsert
p293
I27
VInfixExpression: ==
p294
tp295
I1
s(Vinsert
p296
I42
VSimpleName: println
p297
Vinsert
p298
I42
VSimpleName: main
p299
tp300
I13
s(g92
I42
g93
Vinsert
p301
I33
VNullLiteral
p302
tp303
I4
s(g52
I42
g53
Vinsert
p304
I32
VMethodInvocation
p305
tp306
I4
s(Vinsert
p307
I42
VSimpleName: getMapper
p308
Vinsert
p309
I45
VStringLiteral: "yyyy-MM-dd HH:mm:ss"
p310
tp311
I1
s(g77
I42
g78
Vinsert
p312
I32
VMethodInvocation
p313
tp314
I4
s(g97
I42
g98
Vinsert
p315
I42
VSimpleName: DataSourceBuilder
p316
tp317
I1
s(g224
I42
g225
Vinsert
p318
I39
VPrimitiveType: void
p319
tp320
I1
s(Vinsert
p321
I42
VSimpleName: getClass
p322
Vinsert
p323
I42
VSimpleName: getClass
p324
tp325
I22
s(Vinsert
p326
I42
VSimpleName: append
p327
Vinsert
p328
I42
VSimpleName: keywords
p329
tp330
I1
s(g24
I42
g25
Vinsert
p331
I42
VSimpleName: upmsOrganizationService
p332
tp333
I1
s(g24
I42
g25
Vinsert
p334
I39
VPrimitiveType: int
p335
tp336
I2
s(g248
I42
g249
Vinsert
p337
I45
VStringLiteral: "/index"
p338
tp339
I1
s(g29
I42
g30
Vinsert
p340
I42
VSimpleName: hashCode
p341
tp342
I2
s(g321
I42
g322
Vinsert
p343
I32
VMethodInvocation
p344
tp345
I44
s(g6
I42
g7
Vinsert
p346
I16
VConditionalExpression
p347
tp348
I2
s(g1
I42
g2
Vinsert
p349
I42
VSimpleName: ctime
p350
tp351
I1
s(g24
I42
g25
Vinsert
p352
I21
VExpressionStatement
p353
tp354
I2
s(g307
I42
g308
Vinsert
p355
I42
VSimpleName: Date
p356
tp357
I1
s(Vinsert
p358
I42
VSimpleName: getTagId
p359
Vinsert
p360
I42
VSimpleName: getCategoryId
p361
tp362
I3
s(Vinsert
p363
I42
VSimpleName: info
p364
Vinsert
p365
I42
VSimpleName: remove
p366
tp367
I1
s(g237
I42
g238
Vinsert
p368
I42
VSimpleName: cmsComment
p369
tp370
I1
s(Vinsert
p371
I42
VSimpleName: invoke
p372
Vinsert
p373
I43
VSimpleType: Method
p374
tp375
I2
s(Vinsert
p376
I42
VSimpleName: apiInfo
p377
Vinsert
p378
I42
VSimpleName: createRestApi
p379
tp380
I1
s(g296
I42
g297
Vinsert
p381
I83
VModifier: static
p382
tp383
I13
s(g39
I42
g40
Vinsert
p384
I83
VModifier: private
p385
tp386
I2
s(Vinsert
p387
I42
VSimpleName: setPermissionId
p388
Vinsert
p389
I21
VExpressionStatement
p390
tp391
I2
s(g62
I42
g63
Vinsert
p392
I32
VMethodInvocation
p393
tp394
I9
s(Vinsert
p395
I42
VSimpleName: currentTimeMillis
p396
Vinsert
p397
I45
VStringLiteral: "\u53d1\u9001\u6d88\u606f\u6d88\u8017\u65f6\u95f4"
p398
tp399
I1
s(Vinsert
p400
I42
VSimpleName: run
p401
Vinsert
p402
I85
VDimension
p403
tp404
I1
s(g126
I42
g127
Vinsert
p405
I31
VMethodDeclaration
p406
tp407
I1
s(g57
I42
g58
Vinsert
p408
I32
VMethodInvocation
p409
tp410
I4
s(g190
I42
g191
Vinsert
p411
I42
VSimpleName: getName
p412
tp413
I3
s(g19
I42
g20
Vinsert
p414
I42
VSimpleName: equals
p415
tp416
I1
s(g1
I42
g2
Vinsert
p417
I42
VSimpleName: sb
p418
tp419
I1
s(g57
I42
g58
Vinsert
p420
I16
VConditionalExpression
p421
tp422
I1
s(g395
I42
g396
Vinsert
p423
I42
VSimpleName: info
p424
tp425
I1
s(g87
I42
g88
Vinsert
p426
I25
VIfStatement
p427
tp428
I1
s(g200
I42
g201
Vinsert
p429
I78
VMarkerAnnotation
p430
tp431
I1
s(g118
I42
g119
Vinsert
p432
I45
VStringLiteral: "name"
p433
tp434
I1
s(g200
I42
g201
Vinsert
p435
I42
VSimpleName: ShiroSessionListener
p436
tp437
I1
s(g376
I42
g377
Vinsert
p438
I8
VBlock
p439
tp440
I1
s(g14
I42
g15
Vinsert
p441
I11
VCastExpression
p442
tp443
I1
s(Vinsert
p444
I42
VSimpleName: getSystemId
p445
Vinsert
p446
I52
VThisExpression
p447
tp448
I4
s(g395
I42
g396
Vinsert
p449
I34
VNumberLiteral: 1
p450
tp451
I1
s(Vinsert
p452
I42
VSimpleName: println
p453
Vinsert
p454
I42
VSimpleName: Override
p455
tp456
I2
s(g400
I42
g401
Vinsert
p457
I39
VPrimitiveType: void
p458
tp459
I1
s(g321
I42
g322
Vinsert
p460
I25
VIfStatement
p461
tp462
I44
s(g145
I42
g146
Vinsert
p463
I27
VInfixExpression: ==
p464
tp465
I1
s(Vinsert
p466
I42
VSimpleName: getDescription
p467
Vinsert
p468
I42
VSimpleName: getDescription
p469
tp470
I2
s(g195
I42
g196
Vinsert
p471
I42
VSimpleName: HttpServletResponse
p472
tp473
I2
s(Vinsert
p474
I42
VSimpleName: get
p475
Vinsert
p476
I32
VMethodInvocation
p477
tp478
I1
s(g363
I42
g364
Vinsert
p479
I42
VSimpleName: ZHENG_UPMS_SERVER_SESSION_IDS
p480
tp481
I1
s(Vinsert
p482
I42
VSimpleName: getMapper
p483
Vinsert
p484
I45
VStringLiteral: "/article/add"
p485
tp486
I1
s(g47
I42
g48
Vinsert
p487
I32
VMethodInvocation
p488
tp489
I8
s(g67
I42
g68
Vinsert
p490
I42
VSimpleName: Scheduled
p491
tp492
I3
s(g110
I42
g111
Vinsert
p493
I21
VExpressionStatement
p494
tp495
I3
s(g400
I42
g401
Vinsert
p496
I83
VModifier: static
p497
tp498
I1
s(g482
I42
g483
Vinsert
p499
I42
VSimpleName: getDefaultMessage
p500
tp501
I2
s(g466
I42
g467
Vinsert
p502
I27
VInfixExpression: ==
p503
tp504
I2
s(Vinsert
p505
I42
VSimpleName: currentTimeMillis
p506
Vinsert
p507
I42
VSimpleName: time
p508
tp509
I3
s(g177
I42
g178
Vinsert
p510
I45
VStringLiteral: "://"
p511
tp512
I1
s(g474
I42
g475
Vinsert
p513
I43
VSimpleType: String
p514
tp515
I3
s(g321
I42
g322
Vinsert
p516
I42
VSimpleName: that
p517
tp518
I44
s(g474
I42
g475
Vinsert
p519
I83
VModifier: public
p520
tp521
I1
s(g307
I42
g308
Vinsert
p522
I32
VMethodInvocation
p523
tp524
I11
s(g248
I42
g249
Vinsert
p525
I42
VSimpleName: ResponseBody
p526
tp527
I1
s(g34
I42
g35
Vinsert
p528
I42
VSimpleName: equals
p529
tp530
I1
s(g363
I42
g364
Vinsert
p531
I42
VSimpleName: RedisUtil
p532
tp533
I1
s(g1
I42
g2
Vinsert
p534
I45
VStringLiteral: ", ctime="
p535
tp536
I1
s(g219
I42
g220
Vinsert
p537
I25
VIfStatement
p538
tp539
I1
s(g97
I42
g98
Vinsert
p540
I42
VSimpleName: DataSource
p541
tp542
I1
s(g288
I42
g289
Vinsert
p543
I42
VSimpleName: topLevelClass
p544
tp545
I2
s(g219
I42
g220
Vinsert
p546
I42
VSimpleName: StringUtils
p547
tp548
I1
s(g505
I42
g506
Vinsert
p549
I42
VSimpleName: getErrors
p550
tp551
I3
s(g400
I42
g401
Vinsert
p552
I44
VSingleVariableDeclaration
p553
tp554
I1
s(g326
I42
g327
Vinsert
p555
I45
VStringLiteral: ", image="
p556
tp557
I1
s(Vinsert
p558
I42
VSimpleName: encode
p559
Vinsert
p560
I41
VReturnStatement
p561
tp562
I1
s(g219
I42
g220
Vinsert
p563
I42
VSimpleName: String
p564
tp565
I1
s(g558
I42
g559
Vinsert
p566
I32
VMethodInvocation
p567
tp568
I2
s(g87
I42
g88
Vinsert
p569
I42
VSimpleName: StringUtils
p570
tp571
I1
s(Vinsert
p572
I42
VSimpleName: append
p573
Vinsert
p574
I42
VSimpleName: categoryId
p575
tp576
I1
s(g105
I42
g106
Vinsert
p577
I42
VSimpleName: e
p578
tp579
I4
s(g307
I42
g308
Vinsert
p580
I42
VSimpleName: format
p581
tp582
I1
s(g211
I42
g212
Vinsert
p583
I45
VStringLiteral: "http://shuzheng.tunnel.qydev.com/aliyun/oss/callback"
p584
tp585
I1
s(g190
I42
g191
Vinsert
p586
I42
VSimpleName: equals
p587
tp588
I2
s(g72
I42
g73
Vinsert
p589
I42
VSimpleName: setOffset
p590
tp591
I2
s(g288
I42
g289
Vinsert
p592
I21
VExpressionStatement
p593
tp594
I1
s(g126
I42
g127
Vinsert
p595
I42
VSimpleName: Before
p596
tp597
I1
s(g82
I42
g83
Vinsert
p598
I42
VSimpleName: SUCCESS
p599
tp600
I1
s(g153
I42
g154
Vinsert
p601
I52
VThisExpression
p602
tp603
I2
s(Vinsert
p604
I42
VSimpleName: add
p605
Vinsert
p606
I42
VSimpleName: UpmsRole
p607
tp608
I1
s(g6
I42
g7
Vinsert
p609
I52
VThisExpression
p610
tp611
I4
s(g24
I42
g25
Vinsert
p612
I42
VSimpleName: time
p613
tp614
I4
s(Vinsert
p615
I42
VSimpleName: getSystemId
p616
Vinsert
p617
I42
VSimpleName: equals
p618
tp619
I1
s(g14
I42
g15
Vinsert
p620
I42
VSimpleName: JSONArray
p621
tp622
I1
s(g177
I42
g178
Vinsert
p623
I42
VSimpleName: scheme
p624
tp625
I1
s(g126
I42
g127
Vinsert
p626
I42
VSimpleName: MockMvcBuilders
p627
tp628
I1
s(g321
I42
g322
Vinsert
p629
I9
VBooleanLiteral: true
p630
tp631
I22
s(g307
I42
g308
Vinsert
p632
I42
VSimpleName: userService
p633
tp634
I1
s(g126
I42
g127
Vinsert
p635
I7
VAssignment: =
p636
tp637
I1
s(g296
I42
g297
Vinsert
p638
I44
VSingleVariableDeclaration
p639
tp640
I13
s(g237
I42
g238
Vinsert
p641
I45
VStringLiteral: "/comment/add"
p642
tp643
I1
s(g248
I42
g249
Vinsert
p644
I42
VSimpleName: BaseController
p645
tp646
I1
s(g444
I42
g445
Vinsert
p647
I42
VSimpleName: other
p648
tp649
I3
s(g87
I42
g88
Vinsert
p650
I45
VStringLiteral: "username"
p651
tp652
I1
s(g166
I42
g167
Vinsert
p653
I43
VSimpleType: ModelMap
p654
tp655
I1
s(g224
I42
g225
Vinsert
p656
I21
VExpressionStatement
p657
tp658
I1
s(g474
I42
g475
Vinsert
p659
I42
VSimpleName: params
p660
tp661
I1
s(g6
I42
g7
Vinsert
p662
I42
VSimpleName: equals
p663
tp664
I2
s(g72
I42
g73
Vinsert
p665
I14
VClassInstanceCreation
p666
tp667
I1
s(g558
I42
g559
Vinsert
p668
I5
VArrayType: byte[]
p669
tp670
I1
s(g395
I42
g396
Vinsert
p671
I27
VInfixExpression: +
p672
tp673
I2
s(Vinsert
p674
I42
VSimpleName: getByte
p675
Vinsert
p676
I45
VStringLiteral: "id"
p677
tp678
I1
s(g72
I42
g73
Vinsert
p679
I43
VSimpleType: Parameter
p680
tp681
I1
s(g62
I42
g63
Vinsert
p682
I42
VSimpleName: setArticleId
p683
tp684
I3
s(g126
I42
g127
Vinsert
p685
I42
VSimpleName: setUp
p686
tp687
I1
s(g110
I42
g111
Vinsert
p688
I32
VMethodInvocation
p689
tp690
I8
s(g219
I42
g220
Vinsert
p691
I42
VSimpleName: isNotBlank
p692
tp693
I1
s(g105
I42
g106
Vinsert
p694
I12
VCatchClause
p695
tp696
I1
s(g34
I42
g35
Vinsert
p697
I42
VSimpleName: getPassword
p698
tp699
I2
s(g200
I42
g201
Vinsert
p700
I42
VSimpleName: onStart
p701
tp702
I1
s(Vinsert
p703
I42
VSimpleName: append
p704
Vinsert
p705
I45
VStringLiteral: ", id="
p706
tp707
I1
s(g211
I42
g212
Vinsert
p708
I59
VVariableDeclarationFragment
p709
tp710
I1
s(g482
I42
g483
Vinsert
p711
I41
VReturnStatement
p712
tp713
I2
s(g34
I42
g35
Vinsert
p714
I33
VNullLiteral
p715
tp716
I1
s(g474
I42
g475
Vinsert
p717
I42
VSimpleName: name
p718
tp719
I1
s(g145
I42
g146
Vinsert
p720
I42
VSimpleName: criteria
p721
tp722
I2
s(g145
I42
g146
Vinsert
p723
I42
VSimpleName: andPidIsNull
p724
tp725
I1
s(g572
I42
g573
Vinsert
p726
I42
VSimpleName: pid
p727
tp728
I2
s(g444
I42
g445
Vinsert
p729
I36
VParenthesizedExpression
p730
tp731
I1
s(g363
I42
g364
Vinsert
p732
I42
VSimpleName: sessionId
p733
tp734
I2
s(g572
I42
g573
Vinsert
p735
I45
VStringLiteral: ", pid="
p736
tp737
I2
s(g153
I42
g154
Vinsert
p738
I27
VInfixExpression: ==
p739
tp740
I1
s(g387
I42
g388
Vinsert
p741
I32
VMethodInvocation
p742
tp743
I2
s(g105
I42
g106
Vinsert
p744
I44
VSingleVariableDeclaration
p745
tp746
I1
s(g363
I42
g364
Vinsert
p747
I34
VNumberLiteral: 1
p748
tp749
I1
s(Vinsert
p750
I42
VSimpleName: append
p751
Vinsert
p752
I42
VSimpleName: getSimpleName
p753
tp754
I4
s(g190
I42
g191
Vinsert
p755
I27
VInfixExpression: ==
p756
tp757
I2
s(g177
I42
g178
Vinsert
p758
I21
VExpressionStatement
p759
tp760
I21
s(g224
I42
g225
Vinsert
p761
I42
VSimpleName: name
p762
tp763
I1
s(g145
I42
g146
Vinsert
p764
I8
VBlock
p765
tp766
I2
s(g72
I42
g73
Vinsert
p767
I42
VSimpleName: addParameter
p768
tp769
I1
s(g1
I42
g2
Vinsert
p770
I42
VSimpleName: append
p771
tp772
I2
s(g466
I42
g467
Vinsert
p773
I52
VThisExpression
p774
tp775
I2
s(g558
I42
g559
Vinsert
p776
I42
VSimpleName: key
p777
tp778
I1
s(g288
I42
g289
Vinsert
p779
I8
VBlock
p780
tp781
I2
s(g211
I42
g212
Vinsert
p782
I42
VSimpleName: callback
p783
tp784
I3
s(g482
I42
g483
Vinsert
p785
I42
VSimpleName: cmsArticleService
p786
tp787
I1
s(g604
I42
g605
Vinsert
p788
I42
VSimpleName: isNotBlank
p789
tp790
I1
s(g19
I42
g20
Vinsert
p791
I42
VSimpleName: other
p792
tp793
I2
s(g52
I42
g53
Vinsert
p794
I42
VSimpleName: getOauthId
p795
tp796
I3
s(g24
I42
g25
Vinsert
p797
I42
VSimpleName: setCtime
p798
tp799
I2
s(g97
I42
g98
Vinsert
p800
I43
VSimpleType: DataSource
p801
tp802
I1
s(g118
I42
g119
Vinsert
p803
I45
VStringLiteral: "id"
p804
tp805
I1
s(g126
I42
g127
Vinsert
p806
I8
VBlock
p807
tp808
I1
s(g750
I42
g751
Vinsert
p809
I42
VSimpleName: getClass
p810
tp811
I4
s(g72
I42
g73
Vinsert
p812
I45
VStringLiteral: "this.offset = offset;"
p813
tp814
I1
s(g474
I42
g475
Vinsert
p815
I44
VSingleVariableDeclaration
p816
tp817
I1
s(g19
I42
g20
Vinsert
p818
I32
VMethodInvocation
p819
tp820
I4
s(g6
I42
g7
Vinsert
p821
I42
VSimpleName: other
p822
tp823
I2
s(g371
I42
g372
Vinsert
p824
I42
VSimpleName: service
p825
tp826
I2
s(g604
I42
g605
Vinsert
p827
I42
VSimpleName: upmsRole
p828
tp829
I2
s(g200
I42
g201
Vinsert
p830
I43
VSimpleType: Session
p831
tp832
I1
s(g14
I42
g15
Vinsert
p833
I42
VSimpleName: folders
p834
tp835
I1
s(g674
I42
g675
Vinsert
p836
I42
VSimpleName: andTypeEqualTo
p837
tp838
I1
s(g195
I42
g196
Vinsert
p839
I43
VSimpleType: HttpSession
p840
tp841
I1
s(g395
I42
g396
Vinsert
p842
I21
VExpressionStatement
p843
tp844
I1
s(g211
I42
g212
Vinsert
p845
I14
VClassInstanceCreation
p846
tp847
I1
s(g307
I42
g308
Vinsert
p848
I43
VSimpleType: Date
p849
tp850
I1
s(Vinsert
p851
I42
VSimpleName: remove
p852
Vinsert
p853
I42
VSimpleName: session
p854
tp855
I2
s(Vinsert
p856
I42
VSimpleName: insertSelective
p857
Vinsert
p858
I42
VSimpleName: setOrders
p859
tp860
I1
s(g195
I42
g196
Vinsert
p861
I42
VSimpleName: session
p862
tp863
I1
s(g604
I42
g605
Vinsert
p864
I32
VMethodInvocation
p865
tp866
I3
s(g166
I42
g167
Vinsert
p867
I8
VBlock
p868
tp869
I1
s(g190
I42
g191
Vinsert
p870
I52
VThisExpression
p871
tp872
I4
s(g219
I42
g220
Vinsert
p873
I21
VExpressionStatement
p874
tp875
I1
s(g307
I42
g308
Vinsert
p876
I43
VSimpleType: SimpleDateFormat
p877
tp878
I1
s(g118
I42
g119
Vinsert
p879
I42
VSimpleName: put
p880
tp881
I2
s(g200
I42
g201
Vinsert
p882
I21
VExpressionStatement
p883
tp884
I1
s(g674
I42
g675
Vinsert
p885
I42
VSimpleName: createCriteria
p886
tp887
I1
s(g153
I42
g154
Vinsert
p888
I42
VSimpleName: getArticleId
p889
tp890
I3
s(g97
I42
g98
Vinsert
p891
I32
VMethodInvocation
p892
tp893
I2
s(g126
I42
g127
Vinsert
p894
I78
VMarkerAnnotation
p895
tp896
I1
s(g474
I42
g475
Vinsert
p897
I8
VBlock
p898
tp899
I1
s(g674
I42
g675
Vinsert
p900
I42
VSimpleName: getIntValue
p901
tp902
I1
s(g177
I42
g178
Vinsert
p903
I42
VSimpleName: request
p904
tp905
I1
s(g558
I42
g559
Vinsert
p906
I42
VSimpleName: doFinal
p907
tp908
I2
s(g232
I42
g233
Vinsert
p909
I45
VStringLiteral: ", commentId="
p910
tp911
I1
s(g153
I42
g154
Vinsert
p912
I32
VMethodInvocation
p913
tp914
I4
s(g97
I42
g98
Vinsert
p915
I41
VReturnStatement
p916
tp917
I1
s(g558
I42
g559
Vinsert
p918
I59
VVariableDeclarationFragment
p919
tp920
I1
s(g371
I42
g372
Vinsert
p921
I42
VSimpleName: getClass
p922
tp923
I2
s(g371
I42
g372
Vinsert
p924
I45
VStringLiteral: "initMapper"
p925
tp926
I2
s(g200
I42
g201
Vinsert
p927
I39
VPrimitiveType: void
p928
tp929
I1
s(g200
I42
g201
Vinsert
p930
I42
VSimpleName: session
p931
tp932
I1
s(g177
I42
g178
Vinsert
p933
I42
VSimpleName: basePath
p934
tp935
I3
s(g190
I42
g191
Vinsert
p936
I33
VNullLiteral
p937
tp938
I3
s(g219
I42
g220
Vinsert
p939
I45
VStringLiteral: "search"
p940
tp941
I1
s(g505
I42
g506
Vinsert
p942
I41
VReturnStatement
p943
tp944
I3
s(g57
I42
g58
Vinsert
p945
I42
VSimpleName: getPid
p946
tp947
I3
s(g224
I42
g225
Vinsert
p948
I42
VSimpleName: Integer
p949
tp950
I1
s(g24
I42
g25
Vinsert
p951
I42
VSimpleName: currentTimeMillis
p952
tp953
I1
s(g856
I42
g857
Vinsert
p954
I42
VSimpleName: cmsCategoryService
p955
tp956
I1
s(g166
I42
g167
Vinsert
p957
I42
VSimpleName: RequestMapping
p958
tp959
I1
s(g153
I42
g154
Vinsert
p960
I42
VSimpleName: other
p961
tp962
I1
s(g395
I42
g396
Vinsert
p963
I27
VInfixExpression: -
p964
tp965
I1
s(g224
I42
g225
Vinsert
p966
I83
VModifier: public
p967
tp968
I1
s(g558
I42
g559
Vinsert
p969
I39
VPrimitiveType: byte
p970
tp971
I1
s(g200
I42
g201
Vinsert
p972
I44
VSingleVariableDeclaration
p973
tp974
I1
s(g19
I42
g20
Vinsert
p975
I52
VThisExpression
p976
tp977
I2
s(g161
I42
g162
Vinsert
p978
I42
VSimpleName: equals
p979
tp980
I1
s(g82
I42
g83
Vinsert
p981
I42
VSimpleName: transferTo
p982
tp983
I1
s(g72
I42
g73
Vinsert
p984
I42
VSimpleName: topLevelClass
p985
tp986
I1
s(g224
I42
g225
Vinsert
p987
I32
VMethodInvocation
p988
tp989
I1
s(g387
I42
g388
Vinsert
p990
I59
VVariableDeclarationFragment
p991
tp992
I1
s(g558
I42
g559
Vinsert
p993
I60
VVariableDeclarationStatement
p994
tp995
I1
s(g166
I42
g167
Vinsert
p996
I42
VSimpleName: index
p997
tp998
I1
s(g200
I42
g201
Vinsert
p999
I42
VSimpleName: _log
p1000
tp1001
I1
s(g371
I42
g372
Vinsert
p1002
I60
VVariableDeclarationStatement
p1003
tp1004
I2
s(g395
I42
g396
Vinsert
p1005
I42
VSimpleName: i
p1006
tp1007
I1
s(g195
I42
g196
Vinsert
p1008
I42
VSimpleName: servletResponse
p1009
tp1010
I1
s(Vinsert
p1011
I42
VSimpleName: toString
p1012
Vinsert
p1013
I42
VSimpleName: session
p1014
tp1015
I3
s(g82
I42
g83
Vinsert
p1016
I42
VSimpleName: put
p1017
tp1018
I2
s(g67
I42
g68
Vinsert
p1019
I80
VMemberValuePair
p1020
tp1021
I3
s(g288
I42
g289
Vinsert
p1022
I52
VThisExpression
p1023
tp1024
I1
s(g482
I42
g483
Vinsert
p1025
I42
VSimpleName: error
p1026
tp1027
I2
s(g47
I42
g48
Vinsert
p1028
I42
VSimpleName: other
p1029
tp1030
I2
s(g47
I42
g48
Vinsert
p1031
I42
VSimpleName: getCtime
p1032
tp1033
I6
s(g105
I42
g106
Vinsert
p1034
I42
VSimpleName: printStackTrace
p1035
tp1036
I1
s(g166
I42
g167
Vinsert
p1037
I42
VSimpleName: ModelMap
p1038
tp1039
I1
s(g34
I42
g35
Vinsert
p1040
I36
VParenthesizedExpression
p1041
tp1042
I1
s(g400
I42
g401
Vinsert
p1043
I21
VExpressionStatement
p1044
tp1045
I1
s(g371
I42
g372
Vinsert
p1046
I59
VVariableDeclarationFragment
p1047
tp1048
I2
s(g110
I42
g111
Vinsert
p1049
I45
VStringLiteral: "]"
p1050
tp1051
I1
s(g166
I42
g167
Vinsert
p1052
I45
VStringLiteral: "/index"
p1053
tp1054
I1
s(g248
I42
g249
Vinsert
p1055
I79
VSingleMemberAnnotation
p1056
tp1057
I1
s(g97
I42
g98
Vinsert
p1058
I8
VBlock
p1059
tp1060
I1
s(g452
I42
g453
Vinsert
p1061
I45
VStringLiteral: "0 0/1 * * * ?"
p1062
tp1063
I2
s(g604
I42
g605
Vinsert
p1064
I42
VSimpleName: getName
p1065
tp1066
I1
s(g24
I42
g25
Vinsert
p1067
I42
VSimpleName: count
p1068
tp1069
I2
s(g400
I42
g401
Vinsert
p1070
I43
VSimpleType: String
p1071
tp1072
I1
s(g395
I42
g396
Vinsert
p1073
I45
VStringLiteral: "\u6d88\u606f"
p1074
tp1075
I1
s(g307
I42
g308
Vinsert
p1076
I21
VExpressionStatement
p1077
tp1078
I5
s(g67
I42
g68
Vinsert
p1079
I83
VModifier: public
p1080
tp1081
I18
s(g57
I42
g58
Vinsert
p1082
I33
VNullLiteral
p1083
tp1084
I1
s(g67
I42
g68
Vinsert
p1085
I31
VMethodDeclaration
p1086
tp1087
I17
s(g153
I42
g154
Vinsert
p1088
I42
VSimpleName: equals
p1089
tp1090
I1
s(g67
I42
g68
Vinsert
p1091
I77
VNormalAnnotation
p1092
tp1093
I3
s(g47
I42
g48
Vinsert
p1094
I27
VInfixExpression: ==
p1095
tp1096
I2
s(g200
I42
g201
Vinsert
p1097
I31
VMethodDeclaration
p1098
tp1099
I1
s(g505
I42
g506
Vinsert
p1100
I32
VMethodInvocation
p1101
tp1102
I8
s(g482
I42
g483
Vinsert
p1103
I42
VSimpleName: setCtime
p1104
tp1105
I2
s(g126
I42
g127
Vinsert
p1106
I42
VSimpleName: Exception
p1107
tp1108
I1
s(g6
I42
g7
Vinsert
p1109
I36
VParenthesizedExpression
p1110
tp1111
I2
s(g34
I42
g35
Vinsert
p1112
I32
VMethodInvocation
p1113
tp1114
I3
s(g82
I42
g83
Vinsert
p1115
I42
VSimpleName: DATA
p1116
tp1117
I1
s(g604
I42
g605
Vinsert
p1118
I8
VBlock
p1119
tp1120
I2
s(g376
I42
g377
Vinsert
p1121
I41
VReturnStatement
p1122
tp1123
I1
s(g134
I42
g135
Vinsert
p1124
I32
VMethodInvocation
p1125
tp1126
I3
s(g97
I42
g98
Vinsert
p1127
I45
VStringLiteral: "spring.datasource.secondary"
p1128
tp1129
I1
s(g288
I42
g289
Vinsert
p1130
I44
VSingleVariableDeclaration
p1131
tp1132
I1
s(g224
I42
g225
Vinsert
p1133
I42
VSimpleName: jdbcTemplate
p1134
tp1135
I1
s(g6
I42
g7
Vinsert
p1136
I33
VNullLiteral
p1137
tp1138
I2
s(g47
I42
g48
Vinsert
p1139
I52
VThisExpression
p1140
tp1141
I4
s(g92
I42
g93
Vinsert
p1142
I42
VSimpleName: equals
p1143
tp1144
I3
s(g604
I42
g605
Vinsert
p1145
I25
VIfStatement
p1146
tp1147
I1
s(g145
I42
g146
Vinsert
p1148
I21
VExpressionStatement
p1149
tp1150
I2
s(g161
I42
g162
Vinsert
p1151
I52
VThisExpression
p1152
tp1153
I2
s(g24
I42
g25
Vinsert
p1154
I59
VVariableDeclarationFragment
p1155
tp1156
I2
s(g851
I42
g852
Vinsert
p1157
I42
VSimpleName: getId
p1158
tp1159
I2
s(g72
I42
g73
Vinsert
p1160
I21
VExpressionStatement
p1161
tp1162
I2
s(g57
I42
g58
Vinsert
p1163
I42
VSimpleName: equals
p1164
tp1165
I1
s(g145
I42
g146
Vinsert
p1166
I25
VIfStatement
p1167
tp1168
I1
s(g505
I42
g506
Vinsert
p1169
I59
VVariableDeclarationFragment
p1170
tp1171
I3
s(g321
I42
g322
Vinsert
p1172
I8
VBlock
p1173
tp1174
I22
s(g363
I42
g364
Vinsert
p1175
I32
VMethodInvocation
p1176
tp1177
I2
s(g92
I42
g93
Vinsert
p1178
I42
VSimpleName: other
p1179
tp1180
I4
s(g87
I42
g88
Vinsert
p1181
I42
VSimpleName: getParameter
p1182
tp1183
I2
s(g34
I42
g35
Vinsert
p1184
I52
VThisExpression
p1185
tp1186
I1
s(g87
I42
g88
Vinsert
p1187
I45
VStringLiteral: "password"
p1188
tp1189
I1
s(g248
I42
g249
Vinsert
p1190
I42
VSimpleName: String
p1191
tp1192
I14
s(g321
I42
g322
Vinsert
p1193
I9
VBooleanLiteral: false
p1194
tp1195
I22
s(g134
I42
g135
Vinsert
p1196
I42
VSimpleName: cmsArticleExample
p1197
tp1198
I1
s(g19
I42
g20
Vinsert
p1199
I33
VNullLiteral
p1200
tp1201
I2
s(g444
I42
g445
Vinsert
p1202
I27
VInfixExpression: ==
p1203
tp1204
I3
s(g572
I42
g573
Vinsert
p1205
I45
VStringLiteral: ", categoryId="
p1206
tp1207
I1
s(g145
I42
g146
Vinsert
p1208
I33
VNullLiteral
p1209
tp1210
I1
s(g166
I42
g167
Vinsert
p1211
I79
VSingleMemberAnnotation
p1212
tp1213
I1
s(g376
I42
g377
Vinsert
p1214
I42
VSimpleName: Docket
p1215
tp1216
I2
s(g474
I42
g475
Vinsert
p1217
I41
VReturnStatement
p1218
tp1219
I1
s(g387
I42
g388
Vinsert
p1220
I42
VSimpleName: id
p1221
tp1222
I1
s(g505
I42
g506
Vinsert
p1223
I14
VClassInstanceCreation
p1224
tp1225
I3
s(g851
I42
g852
Vinsert
p1226
I27
VInfixExpression: +
p1227
tp1228
I1
s(g558
I42
g559
Vinsert
p1229
I42
VSimpleName: cipher
p1230
tp1231
I1
s(g371
I42
g372
Vinsert
p1232
I8
VBlock
p1233
tp1234
I2
s(g87
I42
g88
Vinsert
p1235
I59
VVariableDeclarationFragment
p1236
tp1237
I1
s(g851
I42
g852
Vinsert
p1238
I42
VSimpleName: RedisUtil
p1239
tp1240
I2
s(g505
I42
g506
Vinsert
p1241
I42
VSimpleName: result
p1242
tp1243
I3
s(g1011
I42
g1012
Vinsert
p1244
I40
VQualifiedName: System.out
p1245
tp1246
I2
s(g39
I42
g40
Vinsert
p1247
I45
VStringLiteral: "/user"
p1248
tp1249
I2
s(g371
I42
g372
Vinsert
p1250
I42
VSimpleName: getDeclaredMethod
p1251
tp1252
I2
s(g288
I42
g289
Vinsert
p1253
I42
VSimpleName: addGWTInterface
p1254
tp1255
I1
s(g62
I42
g63
Vinsert
p1256
I42
VSimpleName: setCtime
p1257
tp1258
I3
s(g395
I42
g396
Vinsert
p1259
I42
VSimpleName: _log
p1260
tp1261
I1
s(g505
I42
g506
Vinsert
p1262
I8
VBlock
p1263
tp1264
I3
s(g134
I42
g135
Vinsert
p1265
I42
VSimpleName: newArticles
p1266
tp1267
I1
s(g92
I42
g93
Vinsert
p1268
I42
VSimpleName: getOrders
p1269
tp1270
I3
s(g39
I42
g40
Vinsert
p1271
I59
VVariableDeclarationFragment
p1272
tp1273
I2
s(g326
I42
g327
Vinsert
p1274
I42
VSimpleName: image
p1275
tp1276
I1
s(g371
I42
g372
Vinsert
p1277
I21
VExpressionStatement
p1278
tp1279
I2
s(g145
I42
g146
Vinsert
p1280
I42
VSimpleName: getPid
p1281
tp1282
I1
s(g105
I42
g106
Vinsert
p1283
I43
VSimpleType: InvalidConfigurationException
p1284
tp1285
I1
s(g134
I42
g135
Vinsert
p1286
I42
VSimpleName: selectByExample
p1287
tp1288
I1
s(g161
I42
g162
Vinsert
p1289
I42
VSimpleName: getUserId
p1290
tp1291
I3
s(g67
I42
g68
Vinsert
p1292
I8
VBlock
p1293
tp1294
I17
s(g177
I42
g178
Vinsert
p1295
I32
VMethodInvocation
p1296
tp1297
I45
s(g1
I42
g2
Vinsert
p1298
I16
VConditionalExpression
p1299
tp1300
I1
s(g24
I42
g25
Vinsert
p1301
I60
VVariableDeclarationStatement
p1302
tp1303
I2
s(g505
I42
g506
Vinsert
p1304
I60
VVariableDeclarationStatement
p1305
tp1306
I3
s(g1
I42
g2
Vinsert
p1307
I27
VInfixExpression: ==
p1308
tp1309
I2
s(g363
I42
g364
Vinsert
p1310
I21
VExpressionStatement
p1311
tp1312
I2
s(g134
I42
g135
Vinsert
p1313
I42
VSimpleName: List
p1314
tp1315
I1
s(g253
I42
g254
Vinsert
p1316
I16
VConditionalExpression
p1317
tp1318
I1
s(g387
I42
g388
Vinsert
p1319
I14
VClassInstanceCreation
p1320
tp1321
I1
s(g29
I42
g30
Vinsert
p1322
I42
VSimpleName: tagId
p1323
tp1324
I1
s(g851
I42
g852
Vinsert
p1325
I21
VExpressionStatement
p1326
tp1327
I2
s(g195
I42
g196
Vinsert
p1328
I42
VSimpleName: HttpSession
p1329
tp1330
I1
s(g604
I42
g605
Vinsert
p1331
I42
VSimpleName: roles
p1332
tp1333
I1
s(g161
I42
g162
Vinsert
p1334
I32
VMethodInvocation
p1335
tp1336
I4
s(g307
I42
g308
Vinsert
p1337
I42
VSimpleName: currentTimeMillis
p1338
tp1339
I3
s(g363
I42
g364
Vinsert
p1340
I45
VStringLiteral: "_"
p1341
tp1342
I1
s(g326
I42
g327
Vinsert
p1343
I45
VStringLiteral: ", keywords="
p1344
tp1345
I1
s(g444
I42
g445
Vinsert
p1346
I42
VSimpleName: getSystemId
p1347
tp1348
I5
s(g39
I42
g40
Vinsert
p1349
I43
VSimpleType: Logger
p1350
tp1351
I2
s(g14
I42
g15
Vinsert
p1352
I8
VBlock
p1353
tp1354
I1
s(g126
I42
g127
Vinsert
p1355
I42
VSimpleName: mvc
p1356
tp1357
I1
s(g248
I42
g249
Vinsert
p1358
I78
VMarkerAnnotation
p1359
tp1360
I3
s(g703
I42
g704
Vinsert
p1361
I42
VSimpleName: id
p1362
tp1363
I1
s(g87
I42
g88
Vinsert
p1364
I42
VSimpleName: String
p1365
tp1366
I1
s(g505
I42
g506
Vinsert
p1367
I40
VQualifiedName: CmsResultConstant.INVALID_LENGTH
p1368
tp1369
I3
s(g77
I42
g78
Vinsert
p1370
I42
VSimpleName: getTitle
p1371
tp1372
I3
s(g62
I42
g63
Vinsert
p1373
I42
VSimpleName: currentTimeMillis
p1374
tp1375
I3
s(g466
I42
g467
Vinsert
p1376
I42
VSimpleName: other
p1377
tp1378
I1
s(g97
I42
g98
Vinsert
p1379
I42
VSimpleName: secondaryDataSource
p1380
tp1381
I1
s(g219
I42
g220
Vinsert
p1382
I42
VSimpleName: search
p1383
tp1384
I2
s(g14
I42
g15
Vinsert
p1385
I27
VInfixExpression: >
p1386
tp1387
I1
s(g195
I42
g196
Vinsert
p1388
I43
VSimpleType: HttpServletResponse
p1389
tp1390
I2
s(g97
I42
g98
Vinsert
p1391
I80
VMemberValuePair
p1392
tp1393
I1
s(g558
I42
g559
Vinsert
p1394
I42
VSimpleName: bytes
p1395
tp1396
I1
s(g105
I42
g106
Vinsert
p1397
I32
VMethodInvocation
p1398
tp1399
I2
s(g376
I42
g377
Vinsert
p1400
I40
VQualifiedName: DocumentationType.SWAGGER_2
p1401
tp1402
I1
s(g161
I42
g162
Vinsert
p1403
I27
VInfixExpression: ==
p1404
tp1405
I1
s(g558
I42
g559
Vinsert
p1406
I42
VSimpleName: base64encoder
p1407
tp1408
I1
s(g39
I42
g40
Vinsert
p1409
I32
VMethodInvocation
p1410
tp1411
I2
s(g466
I42
g467
Vinsert
p1412
I16
VConditionalExpression
p1413
tp1414
I1
s(g97
I42
g98
Vinsert
p1415
I42
VSimpleName: Primary
p1416
tp1417
I1
s(g307
I42
g308
Vinsert
p1418
I42
VSimpleName: System
p1419
tp1420
I3
s(g72
I42
g73
Vinsert
p1421
I32
VMethodInvocation
p1422
tp1423
I2
s(g67
I42
g68
Vinsert
p1424
I40
VQualifiedName: System.out
p1425
tp1426
I17
s(g363
I42
g364
Vinsert
p1427
I27
VInfixExpression: +
p1428
tp1429
I1
s(g118
I42
g119
Vinsert
p1430
I21
VExpressionStatement
p1431
tp1432
I2
s(g466
I42
g467
Vinsert
p1433
I36
VParenthesizedExpression
p1434
tp1435
I1
s(g134
I42
g135
Vinsert
p1436
I43
VSimpleType: List
p1437
tp1438
I1
s(g166
I42
g167
Vinsert
p1439
I42
VSimpleName: String
p1440
tp1441
I1
s(g296
I42
g297
Vinsert
p1442
I85
VDimension
p1443
tp1444
I13
s(g1011
I42
g1012
Vinsert
p1445
I42
VSimpleName: toString
p1446
tp1447
I2
s(g219
I42
g220
Vinsert
p1448
I42
VSimpleName: upmsUserExample
p1449
tp1450
I1
s(g72
I42
g73
Vinsert
p1451
I45
VStringLiteral: "offset"
p1452
tp1453
I1
s(g371
I42
g372
Vinsert
p1454
I32
VMethodInvocation
p1455
tp1456
I6
s(g39
I42
g40
Vinsert
p1457
I83
VModifier: static
p1458
tp1459
I2
s(g110
I42
g111
Vinsert
p1460
I42
VSimpleName: sb
p1461
tp1462
I3
s(g400
I42
g401
Vinsert
p1463
I32
VMethodInvocation
p1464
tp1465
I1
s(g87
I42
g88
Vinsert
p1466
I42
VSimpleName: request
p1467
tp1468
I2
s(g118
I42
g119
Vinsert
p1469
I32
VMethodInvocation
p1470
tp1471
I12
s(g288
I42
g289
Vinsert
p1472
I42
VSimpleName: TopLevelClass
p1473
tp1474
I1
s(g321
I42
g322
Vinsert
p1475
I27
VInfixExpression: ==
p1476
tp1477
I22
s(g77
I42
g78
Vinsert
p1478
I52
VThisExpression
p1479
tp1480
I2
s(g224
I42
g225
Vinsert
p1481
I43
VSimpleType: Integer
p1482
tp1483
I1
s(g219
I42
g220
Vinsert
p1484
I42
VSimpleName: or
p1485
tp1486
I1
s(g376
I42
g377
Vinsert
p1487
I83
VModifier: public
p1488
tp1489
I1
s(g400
I42
g401
Vinsert
p1490
I83
VModifier: public
p1491
tp1492
I1
s(g296
I42
g297
Vinsert
p1493
I42
VSimpleName: args
p1494
tp1495
I13
s(g87
I42
g88
Vinsert
p1496
I32
VMethodInvocation
p1497
tp1498
I2
s(g376
I42
g377
Vinsert
p1499
I43
VSimpleType: Docket
p1500
tp1501
I2
s(g195
I42
g196
Vinsert
p1502
I42
VSimpleName: request
p1503
tp1504
I1
s(g288
I42
g289
Vinsert
p1505
I43
VSimpleType: IntrospectedTable
p1506
tp1507
I1
s(g134
I42
g135
Vinsert
p1508
I59
VVariableDeclarationFragment
p1509
tp1510
I1
s(g67
I42
g68
Vinsert
p1511
I45
VStringLiteral: "0 0/10 * * * ?"
p1512
tp1513
I1
s(g166
I42
g167
Vinsert
p1514
I43
VSimpleType: String
p1515
tp1516
I1
s(g39
I42
g40
Vinsert
p1517
I23
VFieldDeclaration
p1518
tp1519
I2
s(g39
I42
g40
Vinsert
p1520
I79
VSingleMemberAnnotation
p1521
tp1522
I2
s(g211
I42
g212
Vinsert
p1523
I21
VExpressionStatement
p1524
tp1525
I3
s(g288
I42
g289
Vinsert
p1526
I22
VFieldAccess
p1527
tp1528
I1
s(g182
I42
g183
Vinsert
p1529
I16
VConditionalExpression
p1530
tp1531
I2
s(g371
I42
g372
Vinsert
p1532
I42
VSimpleName: Method
p1533
tp1534
I2
s(g400
I42
g401
Vinsert
p1535
I42
VSimpleName: main
p1536
tp1537
I1
s(g105
I42
g106
Vinsert
p1538
I8
VBlock
p1539
tp1540
I2
s(g363
I42
g364
Vinsert
p1541
I42
VSimpleName: ZHENG_UPMS_SHIRO_SESSION_ID
p1542
tp1543
I1
s(g62
I42
g63
Vinsert
p1544
I42
VSimpleName: articleId
p1545
tp1546
I3
s(g47
I42
g48
Vinsert
p1547
I33
VNullLiteral
p1548
tp1549
I2
s(g505
I42
g506
Vinsert
p1550
I43
VSimpleType: CmsResult
p1551
tp1552
I3
s(g19
I42
g20
Vinsert
p1553
I27
VInfixExpression: ==
p1554
tp1555
I1
s(g134
I42
g135
Vinsert
p1556
I42
VSimpleName: CmsArticle
p1557
tp1558
I1
s(g750
I42
g751
Vinsert
p1559
I42
VSimpleName: sb
p1560
tp1561
I22
s(g395
I42
g396
Vinsert
p1562
I36
VParenthesizedExpression
p1563
tp1564
I2
s(g307
I42
g308
Vinsert
p1565
I14
VClassInstanceCreation
p1566
tp1567
I2
s(g97
I42
g98
Vinsert
p1568
I42
VSimpleName: prefix
p1569
tp1570
I1
s(g34
I42
g35
Vinsert
p1571
I42
VSimpleName: getSalt
p1572
tp1573
I1
s(g211
I42
g212
Vinsert
p1574
I32
VMethodInvocation
p1575
tp1576
I4
s(g14
I42
g15
Vinsert
p1577
I25
VIfStatement
p1578
tp1579
I1
s(g674
I42
g675
Vinsert
p1580
I42
VSimpleName: andPermissionIdEqualTo
p1581
tp1582
I1
s(g224
I42
g225
Vinsert
p1583
I42
VSimpleName: age
p1584
tp1585
I1
s(g182
I42
g183
Vinsert
p1586
I36
VParenthesizedExpression
p1587
tp1588
I2
s(g466
I42
g467
Vinsert
p1589
I33
VNullLiteral
p1590
tp1591
I2
s(g39
I42
g40
Vinsert
p1592
I42
VSimpleName: Controller
p1593
tp1594
I2
s(g134
I42
g135
Vinsert
p1595
I74
VParameterizedType: List<CmsArticle>
p1596
tp1597
I1
s(g387
I42
g388
Vinsert
p1598
I42
VSimpleName: upmsRolePermission
p1599
tp1600
I3
s(g72
I42
g73
Vinsert
p1601
I42
VSimpleName: Parameter
p1602
tp1603
I1
s(g674
I42
g675
Vinsert
p1604
I32
VMethodInvocation
p1605
tp1606
I5
s(g200
I42
g201
Vinsert
p1607
I83
VModifier: public
p1608
tp1609
I1
s(g126
I42
g127
Vinsert
p1610
I39
VPrimitiveType: void
p1611
tp1612
I1
s(g224
I42
g225
Vinsert
p1613
I43
VSimpleType: String
p1614
tp1615
I1
s(g126
I42
g127
Vinsert
p1616
I83
VModifier: public
p1617
tp1618
I1
s(g77
I42
g78
Vinsert
p1619
I33
VNullLiteral
p1620
tp1621
I2
s(g288
I42
g289
Vinsert
p1622
I25
VIfStatement
p1623
tp1624
I1
s(g34
I42
g35
Vinsert
p1625
I16
VConditionalExpression
p1626
tp1627
I1
s(g87
I42
g88
Vinsert
p1628
I43
VSimpleType: String
p1629
tp1630
I1
s(g444
I42
g445
Vinsert
p1631
I33
VNullLiteral
p1632
tp1633
I4
s(g248
I42
g249
Vinsert
p1634
I43
VSimpleType: String
p1635
tp1636
I14
s(g750
I42
g751
Vinsert
p1637
I45
VStringLiteral: " ["
p1638
tp1639
I4
s(g211
I42
g212
Vinsert
p1640
I42
VSimpleName: put
p1641
tp1642
I1
s(g400
I42
g401
Vinsert
p1643
I31
VMethodDeclaration
p1644
tp1645
I1
s(g307
I42
g308
Vinsert
p1646
I42
VSimpleName: SimpleDateFormat
p1647
tp1648
I1
s(g24
I42
g25
Vinsert
p1649
I32
VMethodInvocation
p1650
tp1651
I6
s(g558
I42
g559
Vinsert
p1652
I85
VDimension
p1653
tp1654
I1
s(g400
I42
g401
Vinsert
p1655
I8
VBlock
p1656
tp1657
I1
s(g200
I42
g201
Vinsert
p1658
I8
VBlock
p1659
tp1660
I1
s(g400
I42
g401
Vinsert
p1661
I5
VArrayType: String[]
p1662
tp1663
I1
s(g6
I42
g7
Vinsert
p1664
I32
VMethodInvocation
p1665
tp1666
I8
s(g321
I42
g322
Vinsert
p1667
I27
VInfixExpression: !=
p1668
tp1669
I22
s(g674
I42
g675
Vinsert
p1670
I42
VSimpleName: UpmsUserPermissionExample
p1671
tp1672
I1
s(g296
I42
g297
Vinsert
p1673
I5
VArrayType: String[]
p1674
tp1675
I13
s(g72
I42
g73
Vinsert
p1676
I42
VSimpleName: addBodyLine
p1677
tp1678
I1
s(g24
I42
g25
Vinsert
p1679
I42
VSimpleName: System
p1680
tp1681
I1
s(g67
I42
g68
Vinsert
p1682
I21
VExpressionStatement
p1683
tp1684
I17
s(g376
I42
g377
Vinsert
p1685
I32
VMethodInvocation
p1686
tp1687
I5
s(g288
I42
g289
Vinsert
p1688
I42
VSimpleName: IntrospectedTable
p1689
tp1690
I1
s(g444
I42
g445
Vinsert
p1691
I32
VMethodInvocation
p1692
tp1693
I8
s(g200
I42
g201
Vinsert
p1694
I42
VSimpleName: Override
p1695
tp1696
I1
s(g400
I42
g401
Vinsert
p1697
I42
VSimpleName: SpringApplication
p1698
tp1699
I1
s(g444
I42
g445
Vinsert
p1700
I16
VConditionalExpression
p1701
tp1702
I1
s(g14
I42
g15
Vinsert
p1703
I42
VSimpleName: size
p1704
tp1705
I1
s(g77
I42
g78
Vinsert
p1706
I16
VConditionalExpression
p1707
tp1708
I1
s(g224
I42
g225
Vinsert
p1709
I42
VSimpleName: create
p1710
tp1711
I1
s(g153
I42
g154
Vinsert
p1712
I36
VParenthesizedExpression
p1713
tp1714
I1
s(g57
I42
g58
Vinsert
p1715
I52
VThisExpression
p1716
tp1717
I2
s(g195
I42
g196
Vinsert
p1718
I60
VVariableDeclarationStatement
p1719
tp1720
I1
s(g161
I42
g162
Vinsert
p1721
I33
VNullLiteral
p1722
tp1723
I2
s(g1
I42
g2
Vinsert
p1724
I32
VMethodInvocation
p1725
tp1726
I2
s(g558
I42
g559
Vinsert
p1727
I40
VQualifiedName: Cipher.ENCRYPT_MODE
p1728
tp1729
I1
s(g253
I42
g254
Vinsert
p1730
I42
VSimpleName: getUserid
p1731
tp1732
I3
s(g856
I42
g857
Vinsert
p1733
I42
VSimpleName: getMapper
p1734
tp1735
I1
s(g52
I42
g53
Vinsert
p1736
I52
VThisExpression
p1737
tp1738
I2
s(g195
I42
g196
Vinsert
p1739
I32
VMethodInvocation
p1740
tp1741
I1
s(g87
I42
g88
Vinsert
p1742
I42
VSimpleName: password
p1743
tp1744
I1
s(g321
I42
g322
Vinsert
p1745
I41
VReturnStatement
p1746
tp1747
I44
s(g105
I42
g106
Vinsert
p1748
I42
VSimpleName: InvalidConfigurationException
p1749
tp1750
I1
s(g674
I42
g675
Vinsert
p1751
I42
VSimpleName: json
p1752
tp1753
I2
s(g674
I42
g675
Vinsert
p1754
I42
VSimpleName: upmsUserPermissionExample
p1755
tp1756
I1
s(g371
I42
g372
Vinsert
p1757
I42
VSimpleName: initMapper
p1758
tp1759
I4
s(g52
I42
g53
Vinsert
p1760
I42
VSimpleName: other
p1761
tp1762
I2
s(g195
I42
g196
Vinsert
p1763
I59
VVariableDeclarationFragment
p1764
tp1765
I2
s(g856
I42
g857
Vinsert
p1766
I42
VSimpleName: cmsCategory
p1767
tp1768
I1
s(g604
I42
g605
Vinsert
p1769
I42
VSimpleName: StringUtils
p1770
tp1771
I1
s(g47
I42
g48
Vinsert
p1772
I36
VParenthesizedExpression
p1773
tp1774
I2
s(g1
I42
g2
Vinsert
p1775
I52
VThisExpression
p1776
tp1777
I1
s(g82
I42
g83
Vinsert
p1778
I42
VSimpleName: targetFile
p1779
tp1780
I2
s(g14
I42
g15
Vinsert
p1781
I34
VNumberLiteral: 0
p1782
tp1783
I1
s(g288
I42
g289
Vinsert
p1784
I32
VMethodInvocation
p1785
tp1786
I1
s(g248
I42
g249
Vinsert
p1787
I42
VSimpleName: RequestMapping
p1788
tp1789
I1
s(g126
I42
g127
Vinsert
p1790
I43
VSimpleType: Exception
p1791
tp1792
I1
s(g166
I42
g167
Vinsert
p1793
I83
VModifier: public
p1794
tp1795
I1
s(g110
I42
g111
Vinsert
p1796
I45
VStringLiteral: ", result="
p1797
tp1798
I1
s(g82
I42
g83
Vinsert
p1799
I42
VSimpleName: map
p1800
tp1801
I2
s(g674
I42
g675
Vinsert
p1802
I21
VExpressionStatement
p1803
tp1804
I1
s(g376
I42
g377
Vinsert
p1805
I14
VClassInstanceCreation
p1806
tp1807
I1
s(g200
I42
g201
Vinsert
p1808
I32
VMethodInvocation
p1809
tp1810
I1
s(g400
I42
g401
Vinsert
p1811
I42
VSimpleName: args
p1812
tp1813
I1
s(g466
I42
g467
Vinsert
p1814
I32
VMethodInvocation
p1815
tp1816
I4
s(g14
I42
g15
Vinsert
p1817
I42
VSimpleName: system
p1818
tp1819
I1
s(g387
I42
g388
Vinsert
p1820
I43
VSimpleType: UpmsRolePermission
p1821
tp1822
I2
s(g134
I42
g135
Vinsert
p1823
I60
VVariableDeclarationStatement
p1824
tp1825
I1
s(g474
I42
g475
Vinsert
p1826
I42
VSimpleName: String
p1827
tp1828
I3
s(g851
I42
g852
Vinsert
p1829
I45
VStringLiteral: "_token"
p1830
tp1831
I2
s(g1011
I42
g1012
Vinsert
p1832
I42
VSimpleName: println
p1833
tp1834
I2
s(g474
I42
g475
Vinsert
p1835
I11
VCastExpression
p1836
tp1837
I1
s(g363
I42
g364
Vinsert
p1838
I42
VSimpleName: lrem
p1839
tp1840
I1
s(g118
I42
g119
Vinsert
p1841
I42
VSimpleName: getPermissionId
p1842
tp1843
I1
s(g474
I42
g475
Vinsert
p1844
I42
VSimpleName: getParameter
p1845
tp1846
I1
s(g219
I42
g220
Vinsert
p1847
I8
VBlock
p1848
tp1849
I1
s(g224
I42
g225
Vinsert
p1850
I42
VSimpleName: String
p1851
tp1852
I1
s(g145
I42
g146
Vinsert
p1853
I32
VMethodInvocation
p1854
tp1855
I3
s(g67
I42
g68
Vinsert
p1856
I42
VSimpleName: TestTaskImpl
p1857
tp1858
I1
s(g505
I42
g506
Vinsert
p1859
I42
VSimpleName: CmsResult
p1860
tp1861
I3
s(g211
I42
g212
Vinsert
p1862
I43
VSimpleType: JSONObject
p1863
tp1864
I2
s(g224
I42
g225
Vinsert
p1865
I44
VSingleVariableDeclaration
p1866
tp1867
I2
s(g62
I42
g63
Vinsert
p1868
I42
VSimpleName: time
p1869
tp1870
I3
s(g505
I42
g506
Vinsert
p1871
I39
VPrimitiveType: long
p1872
tp1873
I3
s(g39
I42
g40
Vinsert
p1874
I42
VSimpleName: LoggerFactory
p1875
tp1876
I2
s(g387
I42
g388
Vinsert
p1877
I42
VSimpleName: setRoleId
p1878
tp1879
I1
s(g321
I42
g322
Vinsert
p1880
I33
VNullLiteral
p1881
tp1882
I22
s(g57
I42
g58
Vinsert
p1883
I42
VSimpleName: other
p1884
tp1885
I1
s(g387
I42
g388
Vinsert
p1886
I42
VSimpleName: UpmsRolePermission
p1887
tp1888
I2
s(g482
I42
g483
Vinsert
p1889
I42
VSimpleName: cmsArticle
p1890
tp1891
I1
s(g62
I42
g63
Vinsert
p1892
I21
VExpressionStatement
p1893
tp1894
I9
s(g604
I42
g605
Vinsert
p1895
I21
VExpressionStatement
p1896
tp1897
I1
s(g505
I42
g506
Vinsert
p1898
I42
VSimpleName: System
p1899
tp1900
I4
s(g47
I42
g48
Vinsert
p1901
I42
VSimpleName: equals
p1902
tp1903
I2
s(g39
I42
g40
Vinsert
p1904
I42
VSimpleName: Logger
p1905
tp1906
I2
s(g851
I42
g852
Vinsert
p1907
I42
VSimpleName: remove
p1908
tp1909
I1
s(g153
I42
g154
Vinsert
p1910
I16
VConditionalExpression
p1911
tp1912
I1
s(g110
I42
g111
Vinsert
p1913
I42
VSimpleName: append
p1914
tp1915
I3
s(g1
I42
g2
Vinsert
p1916
I36
VParenthesizedExpression
p1917
tp1918
I1
s(g604
I42
g605
Vinsert
p1919
I42
VSimpleName: upmsRoles
p1920
tp1921
I1
s(g67
I42
g68
Vinsert
p1922
I42
VSimpleName: cron
p1923
tp1924
I3
s(g77
I42
g78
Vinsert
p1925
I42
VSimpleName: other
p1926
tp1927
I1
s(g363
I42
g364
Vinsert
p1928
I42
VSimpleName: _log
p1929
tp1930
I1
s(g400
I42
g401
Vinsert
p1931
I42
VSimpleName: String
p1932
tp1933
I1
s(g851
I42
g852
Vinsert
p1934
I32
VMethodInvocation
p1935
tp1936
I3
s.