(lp0
(Vinsert
p1
I42
VSimpleName: getOrders
p2
tp3
a(Vinsert
p4
I42
VSimpleName: println
p5
tp6
a(Vinsert
p7
I42
VSimpleName: getSystemId
p8
tp9
a(Vinsert
p10
I42
VSimpleName: andPidEqualTo
p11
tp12
a(Vinsert
p13
I42
VSimpleName: encode
p14
tp15
a(Vinsert
p16
I42
VSimpleName: getSession
p17
tp18
a(Vinsert
p19
I42
VSimpleName: getTagId
p20
tp21
a(Vinsert
p22
I42
VSimpleName: getCategoryId
p23
tp24
a(Vinsert
p25
I42
VSimpleName: getTitle
p26
tp27
a(Vinsert
p28
I42
VSimpleName: addMethod
p29
tp30
a(Vinsert
p31
I42
VSimpleName: append
p32
tp33
a(Vinsert
p34
I42
VSimpleName: getLogger
p35
tp36
a(Vinsert
p37
I42
VSimpleName: getDescription
p38
tp39
a(Vinsert
p40
I42
VSimpleName: put
p41
tp42
a(Vinsert
p43
I42
VSimpleName: getMapper
p44
tp45
a(Vinsert
p46
I42
VSimpleName: setUserId
p47
tp48
a(Vinsert
p49
I42
VSimpleName: apiInfo
p50
tp51
a(Vinsert
p52
I42
VSimpleName: getSalt
p53
tp54
a(Vinsert
p55
I42
VSimpleName: remove
p56
tp57
a(Vinsert
p58
I42
VSimpleName: addAttribute
p59
tp60
a(Vinsert
p61
I42
VSimpleName: getUsername
p62
tp63
a(Vinsert
p64
I42
VSimpleName: currentTimeMillis
p65
tp66
a(Vinsert
p67
I42
VSimpleName: equals
p68
tp69
a(Vinsert
p70
I42
VSimpleName: getType
p71
tp72
a(Vinsert
p73
I42
VSimpleName: get
p74
tp75
a(Vinsert
p76
I42
VSimpleName: printStackTrace
p77
tp78
a(Vinsert
p79
I42
VSimpleName: getName
p80
tp81
a(Vinsert
p82
I42
VSimpleName: setPermissionId
p83
tp84
a(Vinsert
p85
I42
VSimpleName: getUserId
p86
tp87
a(Vinsert
p88
I42
VSimpleName: info
p89
tp90
a(Vinsert
p91
I42
VSimpleName: andRealnameLike
p92
tp93
a(Vinsert
p94
I42
VSimpleName: getClass
p95
tp96
a(Vinsert
p97
I42
VSimpleName: invoke
p98
tp99
a(Vinsert
p100
I42
VSimpleName: toString
p101
tp102
a(Vinsert
p103
I42
VSimpleName: getContent
p104
tp105
a(Vinsert
p106
I42
VSimpleName: debug
p107
tp108
a(Vinsert
p109
I42
VSimpleName: add
p110
tp111
a(Vinsert
p112
I42
VSimpleName: update
p113
tp114
a(Vinsert
p115
I42
VSimpleName: getInstance
p116
tp117
a(Vinsert
p118
I42
VSimpleName: getByte
p119
tp120
a(Vinsert
p121
I42
VSimpleName: run
p122
tp123
a(Vinsert
p124
I42
VSimpleName: insertSelective
p125
tp126
a(Vinsert
p127
I42
VSimpleName: getAbsoluteFile
p128
tp129
a(Vinsert
p130
I42
VSimpleName: standaloneSetup
p131
tp132
a(Vinsert
p133
I42
VSimpleName: isEmpty
p134
tp135
a(Vinsert
p136
I42
VSimpleName: addImportedType
p137
tp138
a(Vinsert
p139
I42
VSimpleName: create
p140
tp141
a(Vinsert
p142
I42
VSimpleName: getOauthId
p143
tp144
a.