(dp0
(Vinsert
p1
I42
VSimpleName: getTagId
p2
S'Token'
p3
I233
Vequals
p4
tp5
I18
s(Vinsert
p6
I42
VSimpleName: getSalt
p7
g3
I549
VgetPassword
p8
tp9
I5
s(Vinsert
p10
I42
VSimpleName: equals
p11
g3
I556
VgetName
p12
tp13
I10
s(Vinsert
p14
I42
VSimpleName: setUserId
p15
g3
I985
Vtime
p16
tp17
I27
s(g14
I42
g15
g3
I977
VselectFirstByExample
p18
tp19
I36
s(Vinsert
p20
I42
VSimpleName: getCategoryId
p21
g3
I243
Vother
p22
tp23
I5
s(Vinsert
p24
I42
VSimpleName: addAttribute
p25
g3
I258
VcmsArticleService
p26
tp27
I3
s(Vinsert
p28
I42
VSimpleName: addMethod
p29
g3
I208
VsetName
p30
tp31
I7
s(Vinsert
p32
I42
VSimpleName: getOrders
p33
g3
I508
VgetAlias
p34
tp35
I11
s(Vinsert
p36
I42
VSimpleName: currentTimeMillis
p37
g3
I106
Vi
p38
tp39
I3
s(Vinsert
p40
I42
VSimpleName: getContent
p41
g3
I594
Vother
p42
tp43
I1
s(g20
I42
g21
g3
I218
VgetArticleCategoryId
p44
tp45
I13
s(Vinsert
p46
I42
VSimpleName: insertSelective
p47
g3
I280
VcurrentTimeMillis
p48
tp49
I6
s(Vinsert
p50
I42
VSimpleName: info
p51
g3
I486
V_log
p52
tp53
I0
s(Vinsert
p54
I42
VSimpleName: setPermissionId
p55
g3
I287
VupmsRolePermission
p56
tp57
I3
s(Vinsert
p58
I42
VSimpleName: getClass
p59
g3
I182
Vthat
p60
tp61
I81
s(g36
I42
g37
g3
I109
VsendMessage
p62
tp63
I6
s(Vinsert
p64
I42
VSimpleName: addAttribute
p65
g3
I25
Vmap
p66
tp67
I1
s(g24
I42
g25
g3
I252
VCmsArticle
p68
tp69
I5
s(Vinsert
p70
I42
VSimpleName: getDescription
p71
g3
I398
VgetCode
p72
tp73
I7
s(Vinsert
p74
I42
VSimpleName: addImportedType
p75
g3
I177
VtopLevelClass
p76
tp77
I5
s(Vinsert
p78
I42
VSimpleName: toString
p79
g3
I75
Vsession
p80
tp81
I2
s(g10
I42
g11
g3
I551
Vequals
p82
tp83
I13
s(Vinsert
p84
I42
VSimpleName: getName
p85
g3
I243
VgetUserid
p86
tp87
I4
s(Vinsert
p88
I42
VSimpleName: add
p89
g3
I138
VupmsRole
p90
tp91
I2
s(Vinsert
p92
I42
VSimpleName: getAbsoluteFile
p93
g3
I724
Vput
p94
tp95
I6
s(Vinsert
p96
I42
VSimpleName: isEmpty
p97
g3
I197
Vrequest
p98
tp99
I3
s(Vinsert
p100
I42
VSimpleName: update
p101
g3
I18
VUserService
p102
tp103
I14
s(Vinsert
p104
I42
VSimpleName: append
p105
g3
I331
Vappend
p106
tp107
I13
s(g28
I42
g29
g3
I213
VParameter
p108
tp109
I4
s(Vinsert
p110
I42
VSimpleName: getTitle
p111
g3
I347
Vequals
p112
tp113
I1
s(Vinsert
p114
I42
VSimpleName: getUserId
p115
g3
I365
VgetUserId
p116
tp117
I2
s(Vinsert
p118
I42
VSimpleName: append
p119
g3
I239
Vsb
p120
tp121
I14
s(Vinsert
p122
I42
VSimpleName: getClass
p123
g3
I249
VOverride
p124
tp125
I28
s(g104
I42
g105
g3
I356
Vappend
p126
tp127
I2
s(g24
I42
g25
g3
I247
VsetOrderByClause
p128
tp129
I7
s(g88
I42
g89
g3
I132
VupmsRole
p130
tp131
I7
s(Vinsert
p132
I42
VSimpleName: getClass
p133
g3
I336
Vequals
p134
tp135
I33
s(Vinsert
p136
I42
VSimpleName: getSystemId
p137
g3
I1090
VgetReadnumber
p138
tp139
I14
s(g10
I42
g11
g3
I581
Vother
p140
tp141
I2
s(g40
I42
g41
g3
I594
VgetCtime
p142
tp143
I0
s(Vinsert
p144
I42
VSimpleName: getTagId
p145
g3
I243
VgetCategoryId
p146
tp147
I4
s(Vinsert
p148
I42
VSimpleName: append
p149
g3
I278
Vappend
p150
tp151
I7
s(Vinsert
p152
I42
VSimpleName: getMapper
p153
g3
I302
VSystem
p154
tp155
I2
s(g50
I42
g51
g3
I457
Vcode
p156
tp157
I11
s(Vinsert
p158
I42
VSimpleName: create
p159
g3
I76
VsecondaryDataSource
p160
tp161
I2
s(Vinsert
p162
I42
VSimpleName: getClass
p163
g3
I145
Vthat
p164
tp165
I9
s(Vinsert
p166
I42
VSimpleName: toString
p167
g3
I580
Vappend
p168
tp169
I6
s(g148
I42
g149
g3
I268
Vappend
p170
tp171
I13
s(Vinsert
p172
I42
VSimpleName: println
p173
g3
I33
Vtest
p174
tp175
I0
s(g114
I42
g115
g3
I370
Vequals
p176
tp177
I1
s(Vinsert
p178
I42
VSimpleName: apiInfo
p179
g3
I83
Vpublic
p180
tp181
I11
s(Vinsert
p182
I42
VSimpleName: append
p183
g3
I128
Vsb
p184
tp185
I8
s(g46
I42
g47
g3
I286
VsetCtime
p186
tp187
I4
s(Vinsert
p188
I42
VSimpleName: append
p189
g3
I596
Vsb
p190
tp191
I0
s(Vinsert
p192
I42
VSimpleName: append
p193
g3
I319
Vappend
p194
tp195
I6
s(Vinsert
p196
I42
VSimpleName: getName
p197
g3
I384
VgetType
p198
tp199
I11
s(Vinsert
p200
I42
VSimpleName: getContent
p201
g3
I446
VgetSex
p202
tp203
I13
s(g28
I42
g29
g3
I196
VMethod
p204
tp205
I11
s(g46
I42
g47
g3
I271
VupmsOrganization
p206
tp207
I12
s(Vinsert
p208
I42
VSimpleName: getClass
p209
g3
I328
VObject
p210
tp211
I30
s(g182
I42
g183
g3
I83
Vpublic
p212
tp213
I48
s(Vinsert
p214
I42
VSimpleName: put
p215
g3
I130
Vcallback
p216
tp217
I2
s(Vinsert
p218
I42
VSimpleName: printStackTrace
p219
g3
I232
VprintStackTrace
p220
tp221
I11
s(Vinsert
p222
I42
VSimpleName: getUsername
p223
g3
I548
VgetSystemId
p224
tp225
I2
s(Vinsert
p226
I42
VSimpleName: andPidEqualTo
p227
g3
I41
S''
p228
tp229
I13
s(g118
I42
g119
g3
I238
VgetSimpleName
p230
tp231
I11
s(g88
I42
g89
g3
I120
VString
p232
tp233
I12
s(g118
I42
g119
g3
I266
Vsb
p234
tp235
I0
s(g6
I42
g7
g3
I533
VgetUserId
p236
tp237
I9
s(g182
I42
g183
g3
I104
VOverride
p238
tp239
I52
s(Vinsert
p240
I42
VSimpleName: getByte
p241
g3
I134
Vjson
p242
tp243
I14
s(g178
I42
g179
g3
I36
VDocket
p244
tp245
I0
s(Vinsert
p246
I42
VSimpleName: getMapper
p247
g3
I285
VgetDefaultMessage
p248
tp249
I6
s(Vinsert
p250
I42
VSimpleName: remove
p251
g3
I499
Vrequest
p252
tp253
I12
s(Vinsert
p254
I42
VSimpleName: getMapper
p255
g3
I166
VSimpleDateFormat
p256
tp257
I5
s(g6
I42
g7
g3
I553
Vother
p258
tp259
I3
s(g226
I42
g227
g3
I801
VgetPid
p260
tp261
I3
s(g214
I42
g215
g3
I105
VDate
p262
tp263
I9
s(g104
I42
g105
g3
I345
Vappend
p264
tp265
I7
s(g188
I42
g189
g3
I567
Vappend
p266
tp267
I14
s(Vinsert
p268
I42
VSimpleName: put
p269
g3
I1171
Vmenus
p270
tp271
I7
s(Vinsert
p272
I42
VSimpleName: append
p273
g3
I132
VString
p274
tp275
I13
s(g10
I42
g11
g3
I546
VgetStatus
p276
tp277
I14
s(g222
I42
g223
g3
I528
VgetUserId
p278
tp279
I9
s(g1
I42
g2
g3
I238
VgetArticleId
p280
tp281
I6
s(Vinsert
p282
I42
VSimpleName: getClass
p283
g3
I25
g228
tp284
I330
s(g64
I42
g65
g3
I35
Vindex
p285
tp286
I3
s(g100
I42
g101
g3
I20
VAutowired
p287
tp288
I13
s(g58
I42
g59
g3
I192
Vthat
p289
tp290
I36
s(g282
I42
g283
g3
I83
Vpublic
p291
tp292
I286
s(g166
I42
g167
g3
I583
Vappend
p293
tp294
I5
s(Vinsert
p295
I42
VSimpleName: getOrders
p296
g3
I1010
VgetReadnumber
p297
tp298
I13
s(g172
I42
g173
g3
I34
VTestTaskImpl
p299
tp300
I14
s(g100
I42
g101
g3
I83
Vprivate
p301
tp302
I11
s(g254
I42
g255
g3
I158
VgetUsername
p303
tp304
I9
s(g214
I42
g215
g3
I108
Vexpiration
p305
tp306
I10
s(g46
I42
g47
g3
I39
Vlong
p307
tp308
I22
s(g188
I42
g189
g3
I572
Vappend
p309
tp310
I11
s(g20
I42
g21
g3
I252
VgetArticleId
p311
tp312
I0
s(g295
I42
g296
g3
I1016
VgetCtime
p313
tp314
I12
s(Vinsert
p315
I42
VSimpleName: getSystemId
p316
g3
I570
Vother
p317
tp318
I14
s(Vinsert
p319
I42
VSimpleName: println
p320
g3
I39
Vvoid
p321
tp322
I42
s(g84
I42
g85
g3
I233
Vequals
p323
tp324
I9
s(g64
I42
g65
g3
I36
VHelloController
p325
tp326
I7
s(g295
I42
g296
g3
I1041
Vother
p327
tp328
I4
s(g240
I42
g241
g3
I165
VandTypeEqualTo
p329
tp330
I1
s(g250
I42
g251
g3
I527
VRedisUtil
p331
tp332
I0
s(g214
I42
g215
g3
I116
VmaxSize
p333
tp334
I6
s(g28
I42
g29
g3
I227
VtopLevelClass
p335
tp336
I0
s(g172
I42
g173
g3
I23
VOverride
p337
tp338
I6
s(g196
I42
g197
g3
I412
Vput
p339
tp340
I1
s(Vinsert
p341
I42
VSimpleName: standaloneSetup
p342
g3
I49
Vmvc
p343
tp344
I1
s(g196
I42
g197
g3
I411
VupmsPermission2
p345
tp346
I0
s(g295
I42
g296
g3
I1030
VgetCtime
p347
tp348
I6
s(g136
I42
g137
g3
I1099
Vother
p349
tp350
I11
s(g158
I42
g159
g3
I59
VPrimary
p351
tp352
I7
s(Vinsert
p353
I42
VSimpleName: getOrders
p354
g3
I642
VgetCtime
p355
tp356
I4
s(g222
I42
g223
g3
I534
VgetSystemId
p357
tp358
I8
s(Vinsert
p359
I42
VSimpleName: getName
p360
g3
I612
VgetPid
p361
tp362
I6
s(g226
I42
g227
g3
I805
Vcriteria
p363
tp364
I2
s(g110
I42
g111
g3
I326
Vother
p365
tp366
I7
s(Vinsert
p367
I42
VSimpleName: get
p368
g3
I71
VString
p369
tp370
I1
s(g246
I42
g247
g3
I277
Verror
p371
tp372
I12
s(g70
I42
g71
g3
I413
VgetDescription
p373
tp374
I2
s(Vinsert
p375
I42
VSimpleName: getOauthId
p376
g3
I405
VgetOauthId
p377
tp378
I3
s(g54
I42
g55
g3
I272
VgetIntValue
p379
tp380
I7
s(g32
I42
g33
g3
I518
Vequals
p381
tp382
I9
s(g32
I42
g33
g3
I517
Vother
p383
tp384
I8
s(Vinsert
p385
I42
VSimpleName: getInstance
p386
g3
I121
VJSONObject
p387
tp388
I5
s(g222
I42
g223
g3
I554
VgetUsername
p389
tp390
I1
s(Vinsert
p391
I42
VSimpleName: getType
p392
g3
I480
Vother
p393
tp394
I5
s(g200
I42
g201
g3
I460
Vother
p395
tp396
I8
s(g96
I42
g97
g3
I192
VString
p397
tp398
I5
s(g14
I42
g15
g3
I995
VarticleId
p399
tp400
I3
s(g152
I42
g153
g3
I303
VsetCtime
p401
tp402
I3
s(g226
I42
g227
g3
I788
VcmsMenuExample
p403
tp404
I10
s(g200
I42
g201
g3
I480
VgetCtime
p405
tp406
I0
s(g166
I42
g167
g3
I564
Vappend
p407
tp408
I14
s(g88
I42
g89
g3
I139
VStringUtils
p409
tp410
I4
s(g118
I42
g119
g3
I249
Vsb
p411
tp412
I8
s(g295
I42
g296
g3
I1030
Vother
p413
tp414
I7
s(g246
I42
g247
g3
I286
V_log
p415
tp416
I9
s(g295
I42
g296
g3
I1021
Vother
p417
tp418
I11
s(g32
I42
g33
g3
I513
VgetAlias
p419
tp420
I10
s(g188
I42
g189
g3
I588
Vappend
p421
tp422
I3
s(g272
I42
g273
g3
I159
VbasePath
p423
tp424
I0
s(g272
I42
g273
g3
I136
Vrequest
p425
tp426
I11
s(Vinsert
p427
I42
VSimpleName: getLogger
p428
g3
I83
Vpublic
p429
tp430
I12
s(Vinsert
p431
I42
VSimpleName: getClass
p432
g3
I312
Vthat
p433
tp434
I0
s(Vinsert
p435
I42
VSimpleName: andRealnameLike
p436
g3
I699
VisNotBlank
p437
tp438
I3
s(g152
I42
g153
g3
I302
VcurrentTimeMillis
p439
tp440
I1
s(g166
I42
g167
g3
I575
Vappend
p441
tp442
I9
s(g272
I42
g273
g3
I154
VbasePath
p443
tp444
I2
s(g375
I42
g376
g3
I380
VgetUserId
p445
tp446
I12
s(g36
I42
g37
g3
I109
VdefaultQueueDestination
p447
tp448
I4
s(g118
I42
g119
g3
I258
Vsb
p449
tp450
I4
s(g20
I42
g21
g3
I223
Vother
p451
tp452
I12
s(g182
I42
g183
g3
I113
VStringBuilder
p453
tp454
I28
s(g36
I42
g37
g3
I123
Vinfo
p455
tp456
I1
s(g74
I42
g75
g3
I160
VintrospectedTable
p457
tp458
I14
s(Vinsert
p459
I42
VSimpleName: invoke
p460
g3
I100
VinitMapper
p461
tp462
I0
s(g272
I42
g273
g3
I149
Vscheme
p463
tp464
I3
s(g268
I42
g269
g3
I1164
VJSONObject
p465
tp466
I10
s(g254
I42
g255
g3
I174
VcurrentTimeMillis
p467
tp468
I1
s(g122
I42
g123
g3
I393
Vequals
p469
tp470
I22
s(Vinsert
p471
I42
VSimpleName: run
p472
g3
I29
Vmain
p473
tp474
I3
s(g70
I42
g71
g3
I383
VgetName
p475
tp476
I13
s(g250
I42
g251
g3
I522
VRedisUtil
p477
tp478
I4
s(g435
I42
g436
g3
I683
VStringUtils
p479
tp480
I12
s(g96
I42
g97
g3
I197
VgetParameter
p481
tp482
I2
s(Vinsert
p483
I42
VSimpleName: println
p484
g3
I14
VRequestMapping
p485
tp486
I8
s(g162
I42
g163
g3
I155
Vthat
p487
tp488
I4
s(g353
I42
g354
g3
I642
Vother
p489
tp490
I5
s(g240
I42
g241
g3
I153
VupmsUserPermissionExample
p491
tp492
I6
s(g84
I42
g85
g3
I232
Vother
p493
tp494
I8
s(g144
I42
g145
g3
I223
VgetCategoryTagId
p495
tp496
I11
s(g162
I42
g163
g3
I148
Vthat
p497
tp498
I7
s(g88
I42
g89
g3
I139
VisNotBlank
p499
tp500
I3
s(g240
I42
g241
g3
I164
Vjson
p501
tp502
I0
s(g100
I42
g101
g3
I39
Vvoid
p503
tp504
I6
s(g14
I42
g15
g3
I990
VcmsComment
p505
tp506
I18
s(g359
I42
g360
g3
I618
VgetName
p507
tp508
I5
s(g359
I42
g360
g3
I613
Vequals
p509
tp510
I8
s(g218
I42
g219
g3
I249
Ve
p511
tp512
I5
s(g459
I42
g460
g3
I94
VgetDeclaredMethod
p513
tp514
I2
s(g218
I42
g219
g3
I247
VSQLException
p515
tp516
I6
s(g295
I42
g296
g3
I1026
VgetCtime
p517
tp518
I9
s(g78
I42
g79
g3
I53
VtoString
p519
tp520
I11
s(g152
I42
g153
g3
I284
Vbinding
p521
tp522
I11
s(g32
I42
g33
g3
I537
VgetCtime
p523
tp524
I0
s(g353
I42
g354
g3
I651
VgetCtime
p525
tp526
I0
s(g359
I42
g360
g3
I608
VgetPid
p527
tp528
I9
s(g100
I42
g101
g3
I26
VJdbcTemplate
p529
tp530
I10
s(g214
I42
g215
g3
I107
VexpireEndTime
p531
tp532
I8
s(g200
I42
g201
g3
I456
VgetSex
p533
tp534
I10
s(g166
I42
g167
g3
I567
Vip
p535
tp536
I12
s(g54
I42
g55
g3
I282
VupmsRolePermission
p537
tp538
I5
s(g196
I42
g197
g3
I384
VupmsPermission2
p539
tp540
I12
s(g92
I42
g93
g3
I718
VtargetFile
p541
tp542
I8
s(g272
I42
g273
g3
I149
Vappend
p543
tp544
I4
s(g14
I42
g15
g3
I984
VcurrentTimeMillis
p545
tp546
I21
s(g341
I42
g342
g3
I22
VRunWith
p547
tp548
I14
s(g32
I42
g33
g3
I537
Vother
p549
tp550
I1
s(g375
I42
g376
g3
I374
VgetUserOauthId
p551
tp552
I13
s(g471
I42
g472
g3
I15
VString
p553
tp554
I2
s(g28
I42
g29
g3
I193
VMethod
p555
tp556
I13
s(g136
I42
g137
g3
I1130
Vother
p557
tp558
I1
s(g246
I42
g247
g3
I285
Verror
p559
tp560
I7
s(g282
I42
g283
g3
I360
VOverride
p561
tp562
I28
s(g118
I42
g119
g3
I261
Vappend
p563
tp564
I2
s(Vinsert
p565
I42
VSimpleName: encode
p566
g3
I142
Vkey
p567
tp568
I7
s(g192
I42
g193
g3
I311
Vappend
p569
tp570
I10
s(g32
I42
g33
g3
I517
VgetAlias
p571
tp572
I7
s(g272
I42
g273
g3
I149
VbasePath
p573
tp574
I5
s(Vinsert
p575
I42
VSimpleName: currentTimeMillis
p576
g3
I41
g228
tp577
I18
s(g575
I42
g576
g3
I349
VResultCollectors
p578
tp579
I33
s(g118
I42
g119
g3
I258
Vappend
p580
tp581
I3
s(g54
I42
g55
g3
I277
VUpmsRolePermission
p582
tp583
I6
s(g46
I42
g47
g3
I293
VupmsOrganizationService
p584
tp585
I0
s(g148
I42
g149
g3
I268
Vsb
p586
tp587
I14
s(g459
I42
g460
g3
I85
Vservices
p588
tp589
I16
s(g435
I42
g436
g3
I25
g228
tp590
I5
s(g575
I42
g576
g3
I349
VtoComplex
p591
tp592
I30
s(g1
I42
g2
g3
I243
Vother
p593
tp594
I10
s(g148
I42
g149
g3
I290
VtagId
p595
tp596
I1
s(g367
I42
g368
g3
I61
VgetParameterMap
p597
tp598
I10
s(g40
I42
g41
g3
I565
Vother
p599
tp600
I12
s(g10
I42
g11
g3
I566
VgetName
p601
tp602
I7
s(g64
I42
g65
g3
I17
VRequestMapping
p603
tp604
I6
s(g88
I42
g89
g3
I124
VHashSet
p605
tp606
I10
s(g70
I42
g71
g3
I378
VgetName
p607
tp608
I14
s(g118
I42
g119
g3
I253
Vappend
p609
tp610
I6
s(g250
I42
g251
g3
I503
VString
p611
tp612
I10
s(g375
I42
g376
g3
I395
Vequals
p613
tp614
I8
s(g214
I42
g215
g3
I94
VSystem
p615
tp616
I13
s(Vinsert
p617
I42
VSimpleName: insertSelective
p618
g3
I284
VsetCtime
p619
tp620
I8
s(g78
I42
g79
g3
I53
Vsession
p621
tp622
I12
s(g575
I42
g576
g3
I350
Vresult
p623
tp624
I36
s(g96
I42
g97
g3
I179
VgetParameter
p625
tp626
I10
s(g40
I42
g41
g3
I595
Vequals
p627
tp628
I2
s(g10
I42
g11
g3
I550
Vother
p629
tp630
I12
s(g54
I42
g55
g3
I273
Vadd
p631
tp632
I9
s(g200
I42
g201
g3
I481
Vequals
p633
tp634
I2
s(g74
I42
g75
g3
I165
VtopLevelClass
p635
tp636
I12
s(g367
I42
g368
g3
I41
g228
tp637
I11
s(g427
I42
g428
g3
I59
VUserController
p638
tp639
I10
s(Vinsert
p640
I42
VSimpleName: debug
p641
g3
I83
Vprivate
p642
tp643
I13
s(g70
I42
g71
g3
I387
Vother
p644
tp645
I11
s(g391
I42
g392
g3
I480
VgetPid
p646
tp647
I4
s(g222
I42
g223
g3
I528
Vother
p648
tp649
I10
s(g88
I42
g89
g3
I25
g228
tp650
I5
s(g367
I42
g368
g3
I67
VString
p651
tp652
I4
s(g192
I42
g193
g3
I319
VcommentId
p653
tp654
I5
s(g353
I42
g354
g3
I617
VgetAlias
p655
tp656
I13
s(g640
I42
g641
g3
I29
VLoggerFactory
p657
tp658
I9
s(g640
I42
g641
g3
I39
Vvoid
p659
tp660
I4
s(g158
I42
g159
g3
I67
VDataSource
p661
tp662
I3
s(g32
I42
g33
g3
I523
VgetCtime
p663
tp664
I6
s(g218
I42
g219
g3
I252
Ve
p665
tp666
I4
s(g114
I42
g115
g3
I351
Vother
p667
tp668
I9
s(g375
I42
g376
g3
I385
Vother
p669
tp670
I11
s(g14
I42
g15
g3
I978
Vsystem
p671
tp672
I42
s(g46
I42
g47
g3
I269
VUpmsOrganization
p673
tp674
I13
s(g427
I42
g428
g3
I35
V_log
p675
tp676
I2
s(g152
I42
g153
g3
I289
VgetDefaultMessage
p677
tp678
I6
s(g1
I42
g2
g3
I252
Vother
p679
tp680
I2
s(g341
I42
g342
g3
I83
Vpublic
p681
tp682
I16
s(g483
I42
g484
g3
I18
VBaseController
p683
tp684
I5
s(g36
I42
g37
g3
I88
Vi
p685
tp686
I11
s(g104
I42
g105
g3
I353
Vappend
p687
tp688
I3
s(g10
I42
g11
g3
I561
Vother
p689
tp690
I9
s(g575
I42
g576
g3
I355
VisSuccess
p691
tp692
I21
s(g214
I42
g215
g3
I122
VJSONObject
p693
tp694
I3
s(g40
I42
g41
g3
I585
VgetCtime
p695
tp696
I4
s(g114
I42
g115
g3
I360
Vother
p697
tp698
I4
s(g315
I42
g316
g3
I590
VgetAlias
p699
tp700
I6
s(g341
I42
g342
g3
I20
VSpringRunner
p701
tp702
I13
s(g250
I42
g251
g3
I499
VgetSession
p703
tp704
I11
s(g6
I42
g7
g3
I524
Vother
p705
tp706
I14
s(g20
I42
g21
g3
I41
g228
tp707
I14
s(g104
I42
g105
g3
I336
Vsb
p708
tp709
I12
s(g96
I42
g97
g3
I188
Vrequest
p710
tp711
I7
s(g172
I42
g173
g3
I16
VTestTask
p712
tp713
I12
s(g158
I42
g159
g3
I41
g228
tp714
I15
s(g158
I42
g159
g3
I64
VConfigurationProperties
p715
tp716
I6
s(g375
I42
g376
g3
I390
VgetUserId
p717
tp718
I9
s(g14
I42
g15
g3
I39
Vlong
p719
tp720
I30
s(Vinsert
p721
I42
VSimpleName: getSession
p722
g3
I119
VHttpSession
p723
tp724
I2
s(g471
I42
g472
g3
I83
Vstatic
p725
tp726
I5
s(g250
I42
g251
g3
I512
Vget
p727
tp728
I7
s(g58
I42
g59
g3
I185
Vthat
p729
tp730
I63
s(g148
I42
g149
g3
I290
Vappend
p731
tp732
I2
s(g92
I42
g93
g3
I707
Vexists
p733
tp734
I13
s(Vinsert
p735
I42
VSimpleName: println
p736
g3
I12
VString
p737
tp738
I13
s(g24
I42
g25
g3
I265
Vmodel
p739
tp740
I0
s(g132
I42
g133
g3
I238
Vthat
p741
tp742
I0
s(g1
I42
g2
g3
I41
g228
tp743
I28
s(g136
I42
g137
g3
I1120
Vequals
p744
tp745
I5
s(g136
I42
g137
g3
I1095
VgetReadnumber
p746
tp747
I13
s(g10
I42
g11
g3
I576
VgetTitle
p748
tp749
I3
s(g136
I42
g137
g3
I1130
VgetSystemId
p750
tp751
I0
s(g391
I42
g392
g3
I460
VgetSystemId
p752
tp753
I11
s(g188
I42
g189
g3
I580
Vappend
p754
tp755
I7
s(g78
I42
g79
g3
I54
Vprintln
p756
tp757
I13
s(g575
I42
g576
g3
I25
g228
tp758
I27
s(g200
I42
g201
g3
I451
VgetSex
p759
tp760
I11
s(g208
I42
g209
g3
I346
VgetClass
p761
tp762
I3
s(g70
I42
g71
g3
I407
VgetCode
p763
tp764
I3
s(g24
I42
g25
g3
I259
VnewArticles
p765
tp766
I4
s(g192
I42
g193
g3
I310
VhashCode
p767
tp768
I9
s(g315
I42
g316
g3
I610
Vother
p769
tp770
I0
s(g166
I42
g167
g3
I41
g228
tp771
I1
s(g315
I42
g316
g3
I606
VgetSystemId
p772
tp773
I2
s(g427
I42
g428
g3
I21
VRequestMapping
p774
tp775
I14
s(g353
I42
g354
g3
I651
Vother
p776
tp777
I1
s(g640
I42
g641
g3
I29
VgetLogger
p778
tp779
I8
s(g78
I42
g79
g3
I61
VgetId
p780
tp781
I8
s(g50
I42
g51
g3
I470
VsessionId
p782
tp783
I5
s(g158
I42
g159
g3
I54
VBean
p784
tp785
I10
s(g188
I42
g189
g3
I575
Vappend
p786
tp787
I10
s(g295
I42
g296
g3
I1036
VgetOrders
p788
tp789
I5
s(g200
I42
g201
g3
I440
VgetNickname
p790
tp791
I14
s(g182
I42
g183
g3
I120
VgetClass
p792
tp793
I16
s(g246
I42
g247
g3
I299
VsetCtime
p794
tp795
I3
s(g50
I42
g51
g3
I480
Vremove
p796
tp797
I3
s(g341
I42
g342
g3
I29
VMockMvc
p798
tp799
I8
s(g152
I42
g153
g3
I281
Verror
p800
tp801
I12
s(g375
I42
g376
g3
I410
VgetOauthId
p802
tp803
I2
s(g218
I42
g219
g3
I242
VprintStackTrace
p804
tp805
I7
s(g640
I42
g641
g3
I18
VSessionListener
p806
tp807
I14
s(g54
I42
g55
g3
I287
VsetRoleId
p808
tp809
I2
s(g20
I42
g21
g3
I228
VgetArticleCategoryId
p810
tp811
I10
s(g10
I42
g11
g3
I570
Vother
p812
tp813
I5
s(g40
I42
g41
g3
I554
VgetIp
p814
tp815
I14
s(g100
I42
g101
g3
I51
Vcreate
p816
tp817
I5
s(g104
I42
g105
g3
I356
Vpid
p818
tp819
I1
s(g104
I42
g105
g3
I345
Vsb
p820
tp821
I8
s(g250
I42
g251
g3
I519
VgetId
p822
tp823
I1
s(g20
I42
g21
g3
I232
VgetArticleCategoryId
p824
tp825
I7
s(g10
I42
g11
g3
I561
VgetName
p826
tp827
I8
s(g254
I42
g255
g3
I178
Vinfo
p828
tp829
I6
s(g218
I42
g219
g3
I237
VInterruptedException
p830
tp831
I10
s(g136
I42
g137
g3
I1119
Vother
p832
tp833
I4
s(g640
I42
g641
g3
I33
VOverride
p834
tp835
I6
s(g268
I42
g269
g3
I1187
Vsize
p836
tp837
I2
s(g100
I42
g101
g3
I42
Vage
p838
tp839
I1
s(g188
I42
g189
g3
I567
Vauthor
p840
tp841
I13
s(g182
I42
g183
g3
I123
Vsb
p842
tp843
I24
s(g96
I42
g97
g3
I198
Vpassword
p844
tp845
I4
s(g32
I42
g33
g3
I503
VgetAlias
p846
tp847
I13
s(g250
I42
g251
g3
I495
VHttpSession
p848
tp849
I14
s(g254
I42
g255
g3
I171
VDate
p850
tp851
I3
s(g100
I42
g101
g3
I23
VQualifier
p852
tp853
I12
s(g575
I42
g576
g3
I362
VgetErrors
p854
tp855
I9
s(g431
I42
g432
g3
I293
Vthat
p856
tp857
I18
s(g721
I42
g722
g3
I115
VservletResponse
p858
tp859
I3
s(g272
I42
g273
g3
I144
Vport
p860
tp861
I8
s(g375
I42
g376
g3
I394
VgetUserId
p862
tp863
I6
s(g200
I42
g201
g3
I471
VgetCtime
p864
tp865
I4
s(g104
I42
g105
g3
I348
VcategoryId
p866
tp867
I5
s(g110
I42
g111
g3
I317
Vother
p868
tp869
I11
s(g148
I42
g149
g3
I278
Vsb
p870
tp871
I8
s(g483
I42
g484
g3
I26
VString
p872
tp873
I1
s(g282
I42
g283
g3
I39
Vboolean
p874
tp875
I264
s(g359
I42
g360
g3
I603
VgetPid
p876
tp877
I10
s(g178
I42
g179
g3
I30
VBean
p878
tp879
I5
s(g148
I42
g149
g3
I282
Vappend
p880
tp881
I6
s(g367
I42
g368
g3
I69
Vname
p882
tp883
I3
s(g427
I42
g428
g3
I27
VLogger
p884
tp885
I4
s(g315
I42
g316
g3
I591
Vequals
p886
tp887
I8
s(g435
I42
g436
g3
I683
VisBlank
p888
tp889
I11
s(g20
I42
g21
g3
I252
Vother
p890
tp891
I1
s(g359
I42
g360
g3
I628
VgetName
p892
tp893
I2
s(g391
I42
g392
g3
I489
VgetPid
p894
tp895
I0
s(g24
I42
g25
g3
I233
VcmsArticleExample
p896
tp897
I14
s(g54
I42
g55
g3
I272
Vjson
p898
tp899
I8
s(g88
I42
g89
g3
I127
Vroles
p900
tp901
I11
s(g367
I42
g368
g3
I59
Vparams
p902
tp903
I8
s(g226
I42
g227
g3
I25
g228
tp904
I5
s(g92
I42
g93
g3
I724
Vmap
p905
tp906
I7
s(g565
I42
g566
g3
I151
Vbytes
p907
tp908
I2
s(g36
I42
g37
g3
I97
Vinfo
p909
tp910
I9
s(g459
I42
g460
g3
I91
Vservice
p911
tp912
I6
s(g483
I42
g484
g3
I38
Vindex
p913
tp914
I0
s(g246
I42
g247
g3
I298
VcurrentTimeMillis
p915
tp916
I1
s(g391
I42
g392
g3
I485
VgetPid
p917
tp918
I3
s(g74
I42
g75
g3
I181
VintrospectedTable
p919
tp920
I3
s(g214
I42
g215
g3
I39
Vlong
p921
tp922
I7
s(g50
I42
g51
g3
I458
Vscard
p923
tp924
I13
s(g58
I42
g59
g3
I180
VObject
p925
tp926
I90
s(g158
I42
g159
g3
I71
VDataSourceBuilder
p927
tp928
I0
s(g385
I42
g386
g3
I138
Vput
p929
tp930
I1
s(g385
I42
g386
g3
I109
VexpireEndTime
p931
tp932
I8
s(g640
I42
g641
g3
I51
VonStart
p933
tp934
I3
s(g24
I42
g25
g3
I258
VselectByExample
p935
tp936
I2
s(g640
I42
g641
g3
I22
VLogger
p937
tp938
I11
s(g64
I42
g65
g3
I83
Vpublic
p939
tp940
I13
s(g295
I42
g296
g3
I1051
Vequals
p941
tp942
I1
s(g721
I42
g722
g3
I124
Vsession
p943
tp944
I1
s(g88
I42
g89
g3
I138
VgetName
p945
tp946
I1
s(g20
I42
g21
g3
I248
VgetArticleId
p947
tp948
I3
s(g14
I42
g15
g3
I977
VcmsSystemService
p949
tp950
I39
s(g92
I42
g93
g3
I724
VRESULT
p951
tp952
I5
s(g208
I42
g209
g3
I340
Vthat
p953
tp954
I12
s(g1
I42
g2
g3
I223
VgetArticleTagId
p955
tp956
I11
s(g196
I42
g197
g3
I404
Vnode2
p957
tp958
I6
s(g375
I42
g376
g3
I400
VgetOauthId
p959
tp960
I5
s(g218
I42
g219
g3
I232
Ve
p961
tp962
I12
s(g367
I42
g368
g3
I83
Vpublic
p963
tp964
I19
s(g54
I42
g55
g3
I25
g228
tp965
I13
s(g158
I42
g159
g3
I63
Vprefix
p966
tp967
I5
s(g50
I42
g51
g3
I463
Vjedis
p968
tp969
I10
s(g110
I42
g111
g3
I327
Vequals
p970
tp971
I8
s(g359
I42
g360
g3
I632
Vother
p972
tp973
I0
s(g96
I42
g97
g3
I180
Vbackurl
p974
tp975
I12
s(g359
I42
g360
g3
I598
VgetPid
p976
tp977
I12
s(g110
I42
g111
g3
I342
VgetTitle
p978
tp979
I2
s(g295
I42
g296
g3
I1021
VgetCtime
p980
tp981
I10
s(g208
I42
g209
g3
I349
Vthat
p982
tp983
I0
s(g148
I42
g149
g3
I287
Vsb
p984
tp985
I4
s(g188
I42
g189
g3
I575
Vfromurl
p986
tp987
I9
s(g74
I42
g75
g3
I165
VmakeSerializable
p988
tp989
I13
s(g132
I42
g133
g3
I235
VgetClass
p990
tp991
I3
s(g46
I42
g47
g3
I275
VmodelMap
p992
tp993
I10
s(g182
I42
g183
g3
I133
Vsb
p994
tp995
I0
s(g282
I42
g283
g3
I386
Vthat
p996
tp997
I0
s(g735
I42
g736
g3
I24
VApp
p998
tp999
I78
s(g58
I42
g59
g3
I175
VOverride
p1000
tp1001
I126
s(g459
I42
g460
g3
I91
VgetClass
p1002
tp1003
I4
s(g192
I42
g193
g3
I324
Vappend
p1004
tp1005
I3
s(g166
I42
g167
g3
I592
Vsb
p1006
tp1007
I0
s(g144
I42
g145
g3
I218
VgetCategoryTagId
p1008
tp1009
I13
s(g435
I42
g436
g3
I678
VisBlank
p1010
tp1011
I14
s(g188
I42
g189
g3
I572
Vsb
p1012
tp1013
I12
s(g152
I42
g153
g3
I307
VcmsCommentService
p1014
tp1015
I0
s(g84
I42
g85
g3
I238
VgetUserid
p1016
tp1017
I6
s(g36
I42
g37
g3
I86
Vi
p1018
tp1019
I12
s(g319
I42
g320
g3
I10
VComponent
p1020
tp1021
I7
s(g1
I42
g2
g3
I228
VgetArticleTagId
p1022
tp1023
I10
s(g250
I42
g251
g3
I509
VgetId
p1024
tp1025
I5
s(g6
I42
g7
g3
I544
Vother
p1026
tp1027
I7
s(g319
I42
g320
g3
I27
Vtest
p1028
tp1029
I0
s(g88
I42
g89
g3
I150
VupmsRoles
p1030
tp1031
I6
s(g196
I42
g197
g3
I394
VJSONObject
p1032
tp1033
I7
s(g144
I42
g145
g3
I228
VgetCategoryTagId
p1034
tp1035
I10
s(g431
I42
g432
g3
I286
VOverride
p1036
tp1037
I28
s(g32
I42
g33
g3
I538
Vequals
p1038
tp1039
I2
s(g214
I42
g215
g3
I130
Vput
p1040
tp1041
I1
s(g282
I42
g283
g3
I564
Vequals
p1042
tp1043
I22
s(g226
I42
g227
g3
I786
VCmsMenuExample
p1044
tp1045
I9
s(g196
I42
g197
g3
I391
VJSONObject
p1046
tp1047
I9
s(g118
I42
g119
g3
I236
VgetClass
p1048
tp1049
I12
s(Vinsert
p1050
I42
VSimpleName: append
p1051
g3
I99
VtagId
p1052
tp1053
I28
s(g74
I42
g75
g3
I184
VaddGWTInterface
p1054
tp1055
I1
s(g282
I42
g283
g3
I367
Vthat
p1056
tp1057
I18
s(g96
I42
g97
g3
I188
VgetParameter
p1058
tp1059
I6
s(g28
I42
g29
g3
I203
VsetVisibility
p1060
tp1061
I9
s(g148
I42
g149
g3
I287
Vappend
p1062
tp1063
I3
s(g459
I42
g460
g3
I74
VService
p1064
tp1065
I24
s(g367
I42
g368
g3
I56
VMap
p1066
tp1067
I11
s(g617
I42
g618
g3
I273
Vmodel
p1068
tp1069
I14
s(g268
I42
g269
g3
I1166
Vfolder
p1070
tp1071
I9
s(g391
I42
g392
g3
I469
VgetSystemId
p1072
tp1073
I7
s(g427
I42
g428
g3
I83
Vprivate
p1074
tp1075
I8
s(g84
I42
g85
g3
I252
VgetUserid
p1076
tp1077
I0
s(g166
I42
g167
g3
I583
Vresult
p1078
tp1079
I4
s(g575
I42
g576
g3
I345
VdoValidate
p1080
tp1081
I39
s(g483
I42
g484
g3
I23
VResponseBody
p1082
tp1083
I3
s(g375
I42
g376
g3
I374
Vother
p1084
tp1085
I14
s(g50
I42
g51
g3
I470
VZHENG_UPMS_SERVER_SESSION_IDS
p1086
tp1087
I6
s(g6
I42
g7
g3
I554
Vequals
p1088
tp1089
I4
s(g435
I42
g436
g3
I691
Vsort
p1090
tp1091
I7
s(g196
I42
g197
g3
I404
Vput
p1092
tp1093
I5
s(g391
I42
g392
g3
I469
Vother
p1094
tp1095
I8
s(g196
I42
g197
g3
I403
VupmsPermission2
p1096
tp1097
I4
s(g24
I42
g25
g3
I258
VcmsArticleExample
p1098
tp1099
I1
s(g54
I42
g55
g3
I295
VupmsRolePermission
p1100
tp1101
I0
s(g385
I42
g386
g3
I126
Vcallback
p1102
tp1103
I4
s(g92
I42
g93
g3
I732
Vmap
p1104
tp1105
I3
s(g226
I42
g227
g3
I813
Vcriteria
p1106
tp1107
I0
s(g74
I42
g75
g3
I175
VTopLevelClass
p1108
tp1109
I6
s(g70
I42
g71
g3
I418
VgetDescription
p1110
tp1111
I0
s(g295
I42
g296
g3
I1031
Vequals
p1112
tp1113
I8
s(g391
I42
g392
g3
I475
VgetPid
p1114
tp1115
I6
s(g218
I42
g219
g3
I257
VInvalidConfigurationException
p1116
tp1117
I2
s(g136
I42
g137
g3
I1125
VgetSystemId
p1118
tp1119
I2
s(g435
I42
g436
g3
I699
VStringUtils
p1120
tp1121
I4
s(g28
I42
g29
g3
I208
VsetOffset
p1122
tp1123
I8
s(g110
I42
g111
g3
I307
Vthat
p1124
tp1125
I14
s(g222
I42
g223
g3
I519
Vother
p1126
tp1127
I14
s(g341
I42
g342
g3
I24
VSpringBootTest
p1128
tp1129
I12
s(g46
I42
g47
g3
I273
VModelMap
p1130
tp1131
I11
s(g36
I42
g37
g3
I109
VjmsQueueTemplate
p1132
tp1133
I5
s(g222
I42
g223
g3
I548
Vother
p1134
tp1135
I3
s(g40
I42
g41
g3
I580
VgetCtime
p1136
tp1137
I6
s(g100
I42
g101
g3
I40
VInteger
p1138
tp1139
I2
s(g172
I42
g173
g3
I21
VScheduled
p1140
tp1141
I10
s(g84
I42
g85
g3
I228
VgetId
p1142
tp1143
I10
s(g272
I42
g273
g3
I39
Vint
p1144
tp1145
I9
s(g226
I42
g227
g3
I796
Vcriteria
p1146
tp1147
I8
s(g353
I42
g354
g3
I637
VgetCtime
p1148
tp1149
I6
s(g459
I42
g460
g3
I85
Vvalues
p1150
tp1151
I14
s(g36
I42
g37
g3
I118
VSystem
p1152
tp1153
I0
s(g148
I42
g149
g3
I295
Vsb
p1154
tp1155
I0
s(g78
I42
g79
g3
I81
Vprintln
p1156
tp1157
I1
s(g459
I42
g460
g3
I80
VObject
p1158
tp1159
I20
s(g214
I42
g215
g3
I119
VJSONObject
p1160
tp1161
I5
s(g84
I42
g85
g3
I232
VgetId
p1162
tp1163
I7
s(g315
I42
g316
g3
I596
VgetSystemId
p1164
tp1165
I5
s(g144
I42
g145
g3
I248
VgetCategoryId
p1166
tp1167
I3
s(g70
I42
g71
g3
I393
VgetCode
p1168
tp1169
I9
s(g471
I42
g472
g3
I26
VSpringApplication
p1170
tp1171
I0
s(g110
I42
g111
g3
I346
Vother
p1172
tp1173
I0
s(g74
I42
g75
g3
I41
g228
tp1174
I10
s(g24
I42
g25
g3
I250
VList
p1175
tp1176
I6
s(g272
I42
g273
g3
I143
VgetServerPort
p1177
tp1178
I6
s(g246
I42
g247
g3
I41
g228
tp1179
I10
s(g172
I42
g173
g3
I20
Vcron
p1180
tp1181
I8
s(g341
I42
g342
g3
I83
Vprivate
p1182
tp1183
I9
s(g132
I42
g133
g3
I229
Vthat
p1184
tp1185
I12
s(g104
I42
g105
g3
I340
Vappend
p1186
tp1187
I10
s(g1
I42
g2
g3
I232
VgetArticleTagId
p1188
tp1189
I7
s(g575
I42
g576
g3
I39
Vlong
p1190
tp1191
I6
s(g254
I42
g255
g3
I148
VcurrentTimeMillis
p1192
tp1193
I12
s(g367
I42
g368
g3
I75
Vparams
p1194
tp1195
I0
s(g118
I42
g119
g3
I252
VhashCode
p1196
tp1197
I5
s(g158
I42
g159
g3
I57
VQualifier
p1198
tp1199
I8
s(g74
I42
g75
g3
I83
Vprotected
p1200
tp1201
I9
s(g46
I42
g47
g3
I313
Vadd
p1202
tp1203
I14
s(g50
I42
g51
g3
I457
VZHENG_UPMS_CLIENT_SESSION_IDS
p1204
tp1205
I12
s(g96
I42
g97
g3
I183
VString
p1206
tp1207
I9
s(g214
I42
g215
g3
I124
Vcallback
p1208
tp1209
I4
s(g88
I42
g89
g3
I113
VgetUserId
p1210
tp1211
I14
s(g200
I42
g201
g3
I476
VgetCtime
p1212
tp1213
I3
s(g565
I42
g566
g3
I130
VCipher
p1214
tp1215
I14
s(g246
I42
g247
g3
I280
Vbinding
p1216
tp1217
I11
s(g88
I42
g89
g3
I145
Vroles
p1218
tp1219
I0
s(g122
I42
g123
g3
I275
Vthat
p1220
tp1221
I0
s(g1
I42
g2
g3
I243
VgetArticleId
p1222
tp1223
I4
s(g721
I42
g722
g3
I104
VHttpServletRequest
p1224
tp1225
I8
s(g735
I42
g736
g3
I16
Vargs
p1226
tp1227
I0
s(g96
I42
g97
g3
I179
Vrequest
p1228
tp1229
I11
s(g246
I42
g247
g3
I286
Verror
p1230
tp1231
I8
s(g54
I42
g55
g3
I280
VUpmsRolePermission
p1232
tp1233
I4
s(g240
I42
g241
g3
I134
VgetByte
p1234
tp1235
I13
s(g118
I42
g119
g3
I239
Vappend
p1236
tp1237
I13
s(g118
I42
g119
g3
I244
Vsb
p1238
tp1239
I10
s(g385
I42
g386
g3
I138
Vcallback
p1240
tp1241
I2
s(g74
I42
g75
g3
I190
VtopLevelClass
p1242
tp1243
I0
s(g24
I42
g25
g3
I231
VCmsArticleExample
p1244
tp1245
I13
s(g96
I42
g97
g3
I174
VString
p1246
tp1247
I13
s(g178
I42
g179
g3
I24
VConfiguration
p1248
tp1249
I9
s(g74
I42
g75
g3
I278
VmakeSerializable
p1250
tp1251
I7
s(g78
I42
g79
g3
I80
Vsession
p1252
tp1253
I0
s(g214
I42
g215
g3
I99
VexpireEndTime
p1254
tp1255
I14
s(g192
I42
g193
g3
I327
Vappend
p1256
tp1257
I2
s(g40
I42
g41
g3
I574
Vother
p1258
tp1259
I8
s(g122
I42
g123
g3
I256
Vthat
p1260
tp1261
I18
s(g92
I42
g93
g3
I718
VtransferTo
p1262
tp1263
I9
s(g28
I42
g29
g3
I217
VsetOffset
p1264
tp1265
I6
s(g391
I42
g392
g3
I465
VgetSystemId
p1266
tp1267
I10
s(g196
I42
g197
g3
I412
Vnode2
p1268
tp1269
I2
s(g152
I42
g153
g3
I290
V_log
p1270
tp1271
I9
s(g10
I42
g11
g3
I571
Vequals
p1272
tp1273
I6
s(g10
I42
g11
g3
I570
VgetName
p1274
tp1275
I4
s(g92
I42
g93
g3
I711
Vmkdirs
p1276
tp1277
I11
s(g200
I42
g201
g3
I466
VgetCtime
p1278
tp1279
I6
s(g148
I42
g149
g3
I273
Vsb
p1280
tp1281
I10
s(g32
I42
g33
g3
I528
Vother
p1282
tp1283
I5
s(g341
I42
g342
g3
I39
Vvoid
p1284
tp1285
I4
s(g295
I42
g296
g3
I1041
VgetOrders
p1286
tp1287
I3
s(g64
I42
g65
g3
I23
VModelMap
p1288
tp1289
I2
s(g222
I42
g223
g3
I549
Vequals
p1290
tp1291
I4
s(g565
I42
g566
g3
I152
VdoFinal
p1292
tp1293
I5
s(g575
I42
g576
g3
I371
VSystem
p1294
tp1295
I0
s(g471
I42
g472
g3
I39
Vvoid
p1296
tp1297
I4
s(g162
I42
g163
g3
I143
VObject
p1298
tp1299
I10
s(g617
I42
g618
g3
I278
VcurrentTimeMillis
p1300
tp1301
I10
s(g54
I42
g55
g3
I273
VdeleteIds
p1302
tp1303
I10
s(g32
I42
g33
g3
I508
Vother
p1304
tp1305
I12
s(g617
I42
g618
g3
I284
VcmsCategory
p1306
tp1307
I9
s(g575
I42
g576
g3
I338
VLengthValidator
p1308
tp1309
I42
s(g240
I42
g241
g3
I159
VandPermissionIdEqualTo
p1310
tp1311
I4
s(g110
I42
g111
g3
I312
VgetTopicId
p1312
tp1313
I12
s(g272
I42
g273
g3
I137
Vdomain
p1314
tp1315
I12
s(g54
I42
g55
g3
I265
VgetBoolean
p1316
tp1317
I11
s(g14
I42
g15
g3
I977
VcmsSystemExample
p1318
tp1319
I33
s(g152
I42
g153
g3
I284
VgetAllErrors
p1320
tp1321
I10
s(g96
I42
g97
g3
I172
Vrequest
p1322
tp1323
I14
s(g226
I42
g227
g3
I795
VcreateCriteria
p1324
tp1325
I6
s(g32
I42
g33
g3
I497
VgetType
p1326
tp1327
I14
s(g254
I42
g255
g3
I25
g228
tp1328
I11
s(g295
I42
g296
g3
I1010
Vother
p1329
tp1330
I14
s(g721
I42
g722
g3
I107
Vrequest
p1331
tp1332
I9
s(g40
I42
g41
g3
I590
VgetCtime
p1333
tp1334
I3
s(g132
I42
g133
g3
I219
Vthat
p1335
tp1336
I27
s(g359
I42
g360
g3
I612
Vother
p1337
tp1338
I7
s(g565
I42
g566
g3
I135
VgetInstance
p1339
tp1340
I11
s(g110
I42
g111
g3
I322
VgetTopicId
p1341
tp1342
I9
s(g459
I42
g460
g3
I71
VgetApplicationContext
p1343
tp1344
I28
s(g640
I42
g641
g3
I83
Vpublic
p1345
tp1346
I5
s(g118
I42
g119
g3
I261
Vid
p1347
tp1348
I1
s(g132
I42
g133
g3
I222
Vthat
p1349
tp1350
I21
s(g6
I42
g7
g3
I529
VgetUserId
p1351
tp1352
I12
s(g282
I42
g283
g3
I383
VgetClass
p1353
tp1354
I2
s(g188
I42
g189
g3
I588
Vsb
p1355
tp1356
I4
s(g158
I42
g159
g3
I46
Vbuild
p1357
tp1358
I11
s(g46
I42
g47
g3
I286
VupmsOrganization
p1359
tp1360
I5
s(g359
I42
g360
g3
I592
Vother
p1361
tp1362
I14
s(g10
I42
g11
g3
I586
VgetTitle
p1363
tp1364
I0
s(g14
I42
g15
g3
I990
VsetCtime
p1365
tp1366
I15
s(g250
I42
g251
g3
I509
Vsession
p1367
tp1368
I6
s(g617
I42
g618
g3
I299
Vcount
p1369
tp1370
I2
s(g385
I42
g386
g3
I96
VSystem
p1371
tp1372
I13
s(g100
I42
g101
g3
I31
VOverride
p1373
tp1374
I8
s(g459
I42
g460
g3
I54
g228
tp1375
I12
s(g208
I42
g209
g3
I330
Vthat
p1376
tp1377
I27
s(g353
I42
g354
g3
I631
Vother
p1378
tp1379
I8
s(g50
I42
g51
g3
I479
VZHENG_UPMS_SHIRO_SESSION_ID
p1380
tp1381
I2
s(g118
I42
g119
g3
I244
Vappend
p1382
tp1383
I9
s(g222
I42
g223
g3
I539
VgetSystemId
p1384
tp1385
I6
s(g226
I42
g227
g3
I795
VcmsMenuExample
p1386
tp1387
I7
s(g459
I42
g460
g3
I82
Vservice
p1388
tp1389
I18
s(g28
I42
g29
g3
I222
VsetOffset
p1390
tp1391
I2
s(g250
I42
g251
g3
I500
Vsession
p1392
tp1393
I13
s(g459
I42
g460
g3
I87
VMethod
p1394
tp1395
I10
s(g721
I42
g722
g3
I93
VFilterChain
p1396
tp1397
I14
s(g375
I42
g376
g3
I415
Vequals
p1398
tp1399
I1
s(g6
I42
g7
g3
I534
Vequals
p1400
tp1401
I11
s(g200
I42
g201
g3
I460
VgetSex
p1402
tp1403
I7
s(g575
I42
g576
g3
I362
Vresult
p1404
tp1405
I12
s(g427
I42
g428
g3
I83
Vstatic
p1406
tp1407
I6
s(g200
I42
g201
g3
I480
Vother
p1408
tp1409
I1
s(g272
I42
g273
g3
I143
Vrequest
p1410
tp1411
I7
s(g24
I42
g25
g3
I39
Vbyte
p1412
tp1413
I9
s(g435
I42
g436
g3
I699
Vsearch
p1414
tp1415
I2
s(g250
I42
g251
g3
I512
VRedisUtil
p1416
tp1417
I8
s(g50
I42
g51
g3
I479
VsessionId
p1418
tp1419
I1
s(g70
I42
g71
g3
I407
Vother
p1420
tp1421
I4
s(g282
I42
g283
g3
I377
Vthat
p1422
tp1423
I8
s(g1
I42
g2
g3
I218
VgetArticleTagId
p1424
tp1425
I13
s(g100
I42
g101
g3
I48
VjdbcTemplate
p1426
tp1427
I0
s(g196
I42
g197
g3
I376
Vfolder
p1428
tp1429
I14
s(g375
I42
g376
g3
I394
Vother
p1430
tp1431
I7
s(g617
I42
g618
g3
I279
Vtime
p1432
tp1433
I12
s(g152
I42
g153
g3
I290
Verror
p1434
tp1435
I8
s(g268
I42
g269
g3
I25
g228
tp1436
I17
s(g565
I42
g566
g3
I157
Vbase64encoder
p1437
tp1438
I0
s(g200
I42
g201
g3
I451
Vother
p1439
tp1440
I12
s(g196
I42
g197
g3
I18
g228
tp1441
I10
s(g218
I42
g219
g3
I262
Ve
p1442
tp1443
I0
s(g6
I42
g7
g3
I524
VgetUserId
p1444
tp1445
I13
s(g114
I42
g115
g3
I360
VgetUserId
p1446
tp1447
I3
s(g46
I42
g47
g3
I280
VSystem
p1448
tp1449
I7
s(g10
I42
g11
g3
I581
VgetTitle
p1450
tp1451
I1
s(g166
I42
g167
g3
I588
Vsb
p1452
tp1453
I3
s(g250
I42
g251
g3
I519
Vsession
p1454
tp1455
I2
s(g182
I42
g183
g3
I115
Vsb
p1456
tp1457
I32
s(g431
I42
g432
g3
I450
Vequals
p1458
tp1459
I22
s(g40
I42
g41
g3
I560
VgetAgent
p1460
tp1461
I13
s(g341
I42
g342
g3
I34
VBefore
p1462
tp1463
I6
s(g74
I42
g75
g3
I25
g228
tp1464
I2
s(g144
I42
g145
g3
I252
VgetCategoryId
p1465
tp1466
I0
s(g246
I42
g247
g3
I275
VObjectError
p1467
tp1468
I13
s(g315
I42
g316
g3
I586
VgetAlias
p1469
tp1470
I9
s(g319
I42
g320
g3
I17
VScheduled
p1471
tp1472
I4
s(g471
I42
g472
g3
I19
Vargs
p1473
tp1474
I1
s(g315
I42
g316
g3
I576
VgetAlias
p1475
tp1476
I12
s(g222
I42
g223
g3
I559
Vother
p1477
tp1478
I0
s(g162
I42
g163
g3
I222
Vequals
p1479
tp1480
I11
s(g254
I42
g255
g3
I184
VuserService
p1481
tp1482
I0
s(g178
I42
g179
g3
I33
VDocket
p1483
tp1484
I3
s(g144
I42
g145
g3
I238
VgetCategoryId
p1485
tp1486
I6
s(g196
I42
g197
g3
I403
VgetPermissionId
p1487
tp1488
I3
s(g14
I42
g15
g3
I1000
VcmsComment
p1489
tp1490
I0
s(g435
I42
g436
g3
I683
Vorder
p1491
tp1492
I10
s(g64
I42
g65
g3
I30
Vmap
p1493
tp1494
I0
s(g92
I42
g93
g3
I731
VtargetFile
p1495
tp1496
I0
s(g268
I42
g269
g3
I1193
Vsystem
p1497
tp1498
I0
s(g182
I42
g183
g3
I173
VtoString
p1499
tp1500
I40
s(g46
I42
g47
g3
I39
Vint
p1501
tp1502
I5
s(g136
I42
g137
g3
I1110
Vother
p1503
tp1504
I8
s(g58
I42
g59
g3
I198
VgetClass
p1505
tp1506
I9
s(g122
I42
g123
g3
I272
VgetClass
p1507
tp1508
I2
s(g118
I42
g119
g3
I249
Vappend
p1509
tp1510
I7
s(g92
I42
g93
g3
I732
Vput
p1511
tp1512
I2
s(g367
I42
g368
g3
I79
VgetParameter
p1513
tp1514
I5
s(g319
I42
g320
g3
I16
Vcron
p1515
tp1516
I3
s(g617
I42
g618
g3
I289
VcmsCategory
p1517
tp1518
I6
s(g152
I42
g153
g3
I289
Verror
p1519
tp1520
I7
s(g254
I42
g255
g3
I176
Vformat
p1521
tp1522
I4
s(g315
I42
g316
g3
I601
Vother
p1523
tp1524
I4
s(g214
I42
g215
g3
I136
Vcallback
p1525
tp1526
I0
s(g114
I42
g115
g3
I338
Vthat
p1527
tp1528
I13
s(g6
I42
g7
g3
I544
VgetPassword
p1529
tp1530
I6
s(g148
I42
g149
g3
I273
Vappend
p1531
tp1532
I9
s(g88
I42
g89
g3
I70
g228
tp1533
I9
s(g246
I42
g247
g3
I298
VSystem
p1534
tp1535
I2
s(g226
I42
g227
g3
I775
VCmsResult
p1536
tp1537
I12
s(g218
I42
g219
g3
I252
VprintStackTrace
p1538
tp1539
I3
s(g74
I42
g75
g3
I165
VintrospectedTable
p1540
tp1541
I11
s(g254
I42
g255
g3
I145
VDate
p1542
tp1543
I14
s(g32
I42
g33
g3
I528
VgetCtime
p1544
tp1545
I4
s(g565
I42
g566
g3
I41
g228
tp1546
I1
s(g20
I42
g21
g3
I243
VgetArticleId
p1547
tp1548
I4
s(g315
I42
g316
g3
I570
VgetType
p1549
tp1550
I13
s(g431
I42
g432
g3
I303
Vthat
p1551
tp1552
I8
s(g459
I42
g460
g3
I70
g228
tp1553
I22
s(g471
I42
g472
g3
I7
VSpringBootApplication
p1554
tp1555
I9
s(g54
I42
g55
g3
I265
Vjson
p1556
tp1557
I12
s(g178
I42
g179
g3
I88
VSwagger2
p1558
tp1559
I6
s(g40
I42
g41
g3
I570
VgetAgent
p1560
tp1561
I10
s(g158
I42
g159
g3
I44
Vcreate
p1562
tp1563
I12
s(g188
I42
g189
g3
I591
Vkeywords
p1564
tp1565
I1
s(g268
I42
g269
g3
I1177
Vmenus
p1566
tp1567
I6
s(g70
I42
g71
g3
I403
VgetCode
p1568
tp1569
I6
s(g24
I42
g25
g3
I237
VcmsArticleExample
p1570
tp1571
I12
s(g36
I42
g37
g3
I109
VJmsUtil
p1572
tp1573
I7
s(g114
I42
g115
g3
I350
Vthat
p1574
tp1575
I7
s(g353
I42
g354
g3
I627
VgetAlias
p1576
tp1577
I10
s(g222
I42
g223
g3
I524
VgetUserId
p1578
tp1579
I12
s(g222
I42
g223
g3
I539
Vother
p1580
tp1581
I7
s(g391
I42
g392
g3
I489
Vother
p1582
tp1583
I1
s(g84
I42
g85
g3
I253
Vequals
p1584
tp1585
I2
s(g459
I42
g460
g3
I95
VinitMapper
p1586
tp1587
I8
s(g208
I42
g209
g3
I323
VOverride
p1588
tp1589
I42
s(g640
I42
g641
g3
I27
VShiroSessionListener
p1590
tp1591
I7
s(g385
I42
g386
g3
I124
VJSONObject
p1592
tp1593
I3
s(g575
I42
g576
g3
I358
VCmsResult
p1594
tp1595
I15
s(g427
I42
g428
g3
I18
VController
p1596
tp1597
I16
s(g375
I42
g376
g3
I385
VgetUserId
p1598
tp1599
I10
s(g148
I42
g149
g3
I265
VgetClass
p1600
tp1601
I12
s(g28
I42
g29
g3
I222
VaddBodyLine
p1602
tp1603
I1
s(g319
I42
g320
g3
I83
Vpublic
p1604
tp1605
I193
s(g200
I42
g201
g3
I461
Vequals
p1606
tp1607
I9
s(g158
I42
g159
g3
I53
Vname
p1608
tp1609
I9
s(g575
I42
g576
g3
I355
Vresult
p1610
tp1611
I24
s(g721
I42
g722
g3
I106
VservletRequest
p1612
tp1613
I7
s(g208
I42
g209
g3
I333
Vthat
p1614
tp1615
I21
s(g40
I42
g41
g3
I575
Vequals
p1616
tp1617
I9
s(g359
I42
g360
g3
I633
Vequals
p1618
tp1619
I1
s(g240
I42
g241
g3
I140
VupmsUserPermissionMapper
p1620
tp1621
I12
s(g483
I42
g484
g3
I21
VRequestMapping
p1622
tp1623
I4
s(g208
I42
g209
g3
I507
Vequals
p1624
tp1625
I33
s(g78
I42
g79
g3
I39
Vvoid
p1626
tp1627
I5
s(g182
I42
g183
g3
I99
Vname
p1628
tp1629
I14
s(g114
I42
g115
g3
I345
VUcenterUserDetails
p1630
tp1631
I10
s(g50
I42
g51
g3
I480
VRedisUtil
p1632
tp1633
I4
s(g353
I42
g354
g3
I652
Vequals
p1634
tp1635
I2
s(g565
I42
g566
g3
I135
VCipher
p1636
tp1637
I12
s(g385
I42
g386
g3
I96
VcurrentTimeMillis
p1638
tp1639
I12
s(g385
I42
g386
g3
I134
VPropertiesFileUtil
p1640
tp1641
I0
s(g74
I42
g75
g3
I39
Vvoid
p1642
tp1643
I8
s(g92
I42
g93
g3
I711
VtargetFile
p1644
tp1645
I12
s(g188
I42
g189
g3
I591
Vappend
p1646
tp1647
I2
s(g640
I42
g641
g3
I30
V_log
p1648
tp1649
I10
s(g114
I42
g115
g3
I348
VUcenterUserDetails
p1650
tp1651
I8
s(g640
I42
g641
g3
I48
V_log
p1652
tp1653
I0
s(g50
I42
g51
g3
I470
VRedisUtil
p1654
tp1655
I8
s(g114
I42
g115
g3
I369
Vother
p1656
tp1657
I0
s(g200
I42
g201
g3
I471
Vother
p1658
tp1659
I5
s(g341
I42
g342
g3
I39
VException
p1660
tp1661
I2
s(g268
I42
g269
g3
I1175
VJSONArray
p1662
tp1663
I5
s(g100
I42
g101
g3
I36
VString
p1664
tp1665
I4
s(g254
I42
g255
g3
I178
V_log
p1666
tp1667
I7
s(g254
I42
g255
g3
I158
Vuser
p1668
tp1669
I10
s(g391
I42
g392
g3
I449
VgetPermissionId
p1670
tp1671
I14
s(g226
I42
g227
g3
I805
VandPidIsNull
p1672
tp1673
I1
s(g385
I42
g386
g3
I39
Vlong
p1674
tp1675
I7
s(g192
I42
g193
g3
I302
Vappend
p1676
tp1677
I13
s(g46
I42
g47
g3
I286
Vtime
p1678
tp1679
I3
s(g459
I42
g460
g3
I76
VgetBeansWithAnnotation
p1680
tp1681
I26
s(g84
I42
g85
g3
I223
VgetId
p1682
tp1683
I11
s(g158
I42
g159
g3
I44
VDataSourceBuilder
p1684
tp1685
I13
s(g435
I42
g436
g3
I692
VsetOrderByClause
p1686
tp1687
I8
s(g20
I42
g21
g3
I232
Vother
p1688
tp1689
I8
s(g100
I42
g101
g3
I28
VjdbcTemplate
p1690
tp1691
I9
s(g721
I42
g722
g3
I95
VfilterChain
p1692
tp1693
I13
s(g84
I42
g85
g3
I41
g228
tp1694
I14
s(g20
I42
g21
g3
I253
Vequals
p1695
tp1696
I2
s(g100
I42
g101
g3
I83
Vpublic
p1697
tp1698
I7
s(g315
I42
g316
g3
I581
Vother
p1699
tp1700
I11
s(g254
I42
g255
g3
I161
Vequals
p1701
tp1702
I8
s(g136
I42
g137
g3
I1110
VgetTop
p1703
tp1704
I7
s(g353
I42
g354
g3
I611
VgetType
p1705
tp1706
I14
s(g88
I42
g89
g3
I130
VUpmsRole
p1707
tp1708
I8
s(g104
I42
g105
g3
I353
Vsb
p1709
tp1710
I4
s(g254
I42
g255
g3
I148
VSystem
p1711
tp1712
I13
s(g162
I42
g163
g3
I161
VgetClass
p1713
tp1714
I1
s(g36
I42
g37
g3
I39
Vint
p1715
tp1716
I14
s(g148
I42
g149
g3
I267
VgetSimpleName
p1717
tp1718
I11
s(g268
I42
g269
g3
I1171
Vput
p1719
tp1720
I8
s(g24
I42
g25
g3
I247
VcmsArticleExample
p1721
tp1722
I8
s(g96
I42
g97
g3
I25
g228
tp1723
I1
s(g182
I42
g183
g3
I122
VgetSimpleName
p1724
tp1725
I12
s(g214
I42
g215
g3
I102
VDate
p1726
tp1727
I11
s(g246
I42
g247
g3
I299
VcmsArticle
p1728
tp1729
I4
s(g28
I42
g29
g3
I198
VsetOffset
p1730
tp1731
I12
s(g315
I42
g316
g3
I590
Vother
p1732
tp1733
I7
s(g36
I42
g37
g3
I97
V_log
p1734
tp1735
I10
s(g188
I42
g189
g3
I580
Vsb
p1736
tp1737
I8
s(g367
I42
g368
g3
I64
VString
p1738
tp1739
I6
s(g427
I42
g428
g3
I34
VLoggerFactory
p1740
tp1741
I0
s(g110
I42
g111
g3
I41
g228
tp1742
I13
s(g14
I42
g15
g3
I995
VcmsComment
p1743
tp1744
I9
s(g104
I42
g105
g3
I331
Vsb
p1745
tp1746
I14
s(g84
I42
g85
g3
I248
VgetUserid
p1747
tp1748
I3
s(g84
I42
g85
g3
I223
Vother
p1749
tp1750
I12
s(g92
I42
g93
g3
I724
VSUCCESS
p1751
tp1752
I4
s(g246
I42
g247
g3
I303
VcmsArticleService
p1753
tp1754
I0
s(g136
I42
g137
g3
I1099
VgetReadnumber
p1755
tp1756
I10
s(g385
I42
g386
g3
I110
Vexpiration
p1757
tp1758
I10
s(g188
I42
g189
g3
I583
Vappend
p1759
tp1760
I6
s(g471
I42
g472
g3
I83
Vpublic
p1761
tp1762
I14
s(g282
I42
g283
g3
I41
g228
tp1763
I198
s(g240
I42
g241
g3
I158
Vjson
p1764
tp1765
I3
s(g315
I42
g316
g3
I601
VgetSystemId
p1766
tp1767
I3
s(g178
I42
g179
g3
I60
VcreateRestApi
p1768
tp1769
I2
s(g640
I42
g641
g3
I38
VSession
p1770
tp1771
I2
s(g28
I42
g29
g3
I203
VsetOffset
p1772
tp1773
I10
s(g104
I42
g105
g3
I336
Vappend
p1774
tp1775
I11
s(g182
I42
g183
g3
I123
Vappend
p1776
tp1777
I20
s(g435
I42
g436
g3
I678
Vsort
p1778
tp1779
I13
s(g353
I42
g354
g3
I647
VgetCtime
p1780
tp1781
I3
s(g240
I42
g241
g3
I158
VgetIntValue
p1782
tp1783
I2
s(g353
I42
g354
g3
I632
Vequals
p1784
tp1785
I9
s(g565
I42
g566
g3
I135
VALGORITHM
p1786
tp1787
I10
s(g617
I42
g618
g3
I295
VcmsCategoryService
p1788
tp1789
I1
s(g182
I42
g183
g3
I107
VString
p1790
tp1791
I44
s(g110
I42
g111
g3
I332
VgetTitle
p1792
tp1793
I5
s(g132
I42
g133
g3
I217
VObject
p1794
tp1795
I30
s(g240
I42
g241
g3
I153
VcreateCriteria
p1796
tp1797
I5
s(g162
I42
g163
g3
I138
VOverride
p1798
tp1799
I14
s(g92
I42
g93
g3
I707
VtargetFile
p1800
tp1801
I14
s(g24
I42
g25
g3
I242
VandStatusEqualTo
p1802
tp1803
I10
s(g272
I42
g273
g3
I154
Vappend
p1804
tp1805
I1
s(g222
I42
g223
g3
I529
Vequals
p1806
tp1807
I11
s(g565
I42
g566
g3
I136
Vcipher
p1808
tp1809
I13
s(g341
I42
g342
g3
I60
VSpringbootApplicationTests
p1810
tp1811
I10
s(g178
I42
g179
g3
I41
g228
tp1812
I1
s(g735
I42
g736
g3
I23
Vmain
p1813
tp1814
I26
s(g240
I42
g241
g3
I140
VupmsUserPermission
p1815
tp1816
I10
s(g240
I42
g241
g3
I144
VUpmsUserPermissionExample
p1817
tp1818
I9
s(g391
I42
g392
g3
I470
Vequals
p1819
tp1820
I9
s(g640
I42
g641
g3
I83
Vstatic
p1821
tp1822
I12
s(g182
I42
g183
g3
I128
Vappend
p1823
tp1824
I4
s(g391
I42
g392
g3
I460
Vother
p1825
tp1826
I12
s(g359
I42
g360
g3
I592
VgetSystemId
p1827
tp1828
I13
s(g721
I42
g722
g3
I101
VHttpServletRequest
p1829
tp1830
I10
s(g6
I42
g7
g3
I564
Vother
p1831
tp1832
I0
s(g54
I42
g55
g3
I287
Vid
p1833
tp1834
I1
s(g178
I42
g179
g3
I26
VEnableSwagger2
p1835
tp1836
I8
s(g367
I42
g368
g3
I50
Vremove
p1837
tp1838
I14
s(g435
I42
g436
g3
I691
Vorder
p1839
tp1840
I6
s(g435
I42
g436
g3
I702
VupmsUserExample
p1841
tp1842
I1
s(g218
I42
g219
g3
I242
Ve
p1843
tp1844
I8
s(g218
I42
g219
g3
I259
Ve
p1845
tp1846
I1
s(g226
I42
g227
g3
I801
VcmsMenu
p1847
tp1848
I4
s(g152
I42
g153
g3
I303
VcmsComment
p1849
tp1850
I4
s(g182
I42
g183
g3
I110
VStringBuilder
p1851
tp1852
I36
s(g74
I42
g75
g3
I179
VIntrospectedTable
p1853
tp1854
I4
s(g114
I42
g115
g3
I338
VgetClass
p1855
tp1856
I12
s(g136
I42
g137
g3
I1100
Vequals
p1857
tp1858
I12
s(g84
I42
g85
g3
I218
VgetId
p1859
tp1860
I13
s(g192
I42
g193
g3
I327
Vpid
p1861
tp1862
I1
s(g122
I42
g123
g3
I266
Vthat
p1863
tp1864
I8
s(g122
I42
g123
g3
I259
Vthat
p1865
tp1866
I14
s(g721
I42
g722
g3
I110
VHttpServletResponse
p1867
tp1868
I6
s(g565
I42
g566
g3
I151
VdoFinal
p1869
tp1870
I3
s(g721
I42
g722
g3
I99
VServletException
p1871
tp1872
I11
s(g359
I42
g360
g3
I623
Vother
p1873
tp1874
I4
s(g218
I42
g219
g3
I227
VXMLParserException
p1875
tp1876
I14
s(g114
I42
g115
g3
I335
VgetClass
p1877
tp1878
I14
s(g315
I42
g316
g3
I611
Vequals
p1879
tp1880
I1
s(g92
I42
g93
g3
I718
Vfile
p1881
tp1882
I10
s(Vinsert
p1883
I42
VSimpleName: append
p1884
g3
I99
VcategoryId
p1885
tp1886
I14
s(g385
I42
g386
g3
I104
VDate
p1887
tp1888
I11
s(g246
I42
g247
g3
I70
g228
tp1889
I28
s(g28
I42
g29
g3
I216
VintegerWrapper
p1890
tp1891
I3
s(g359
I42
g360
g3
I603
Vother
p1892
tp1893
I11
s(g70
I42
g71
g3
I387
VgetName
p1894
tp1895
I10
s(g192
I42
g193
g3
I307
Vsb
p1896
tp1897
I12
s(g78
I42
g79
g3
I93
VonExpiration
p1898
tp1899
I4
s(g240
I42
g241
g3
I147
VUpmsUserPermissionExample
p1900
tp1901
I7
s(g24
I42
g25
g3
I237
VcreateCriteria
p1902
tp1903
I11
s(g144
I42
g145
g3
I232
VgetCategoryTagId
p1904
tp1905
I7
s(g254
I42
g255
g3
I174
VSystem
p1906
tp1907
I2
s(g282
I42
g283
g3
I370
Vthat
p1908
tp1909
I14
s(g565
I42
g566
g3
I151
Vcipher
p1910
tp1911
I4
s(g192
I42
g193
g3
I316
Vappend
p1912
tp1913
I7
s(g70
I42
g71
g3
I388
Vequals
p1914
tp1915
I12
s(g54
I42
g55
g3
I259
Vi
p1916
tp1917
I14
s(g20
I42
g21
g3
I238
VgetArticleId
p1918
tp1919
I6
s(g617
I42
g618
g3
I284
Vtime
p1920
tp1921
I7
s(g196
I42
g197
g3
I396
Vnode2
p1922
tp1923
I8
s(g58
I42
g59
g3
I201
Vthat
p1924
tp1925
I0
s(g110
I42
g111
g3
I317
VgetTopicId
p1926
tp1927
I10
s(g58
I42
g59
g3
I279
Vequals
p1928
tp1929
I99
s(g46
I42
g47
g3
I294
Vcount
p1930
tp1931
I1
s(g268
I42
g269
g3
I1160
Vsize
p1932
tp1933
I11
s(g218
I42
g219
g3
I229
Ve
p1934
tp1935
I13
s(g14
I42
g15
g3
I995
VsetArticleId
p1936
tp1937
I6
s(g50
I42
g51
g3
I470
Vlrem
p1938
tp1939
I7
s(g40
I42
g41
g3
I574
VgetAgent
p1940
tp1941
I7
s(g375
I42
g376
g3
I414
Vother
p1942
tp1943
I0
s(g110
I42
g111
g3
I337
Vother
p1944
tp1945
I4
s(g136
I42
g137
g3
I1119
VgetTop
p1946
tp1947
I3
s(g353
I42
g354
g3
I622
VgetAlias
p1948
tp1949
I11
s(g6
I42
g7
g3
I559
VgetSalt
p1950
tp1951
I1
s(g136
I42
g137
g3
I1105
VgetTop
p1952
tp1953
I9
s(g88
I42
g89
g3
I118
VSet
p1954
tp1955
I13
s(g78
I42
g79
g3
I73
VSession
p1956
tp1957
I3
s(g100
I42
g101
g3
I38
Vname
p1958
tp1959
I3
s(g104
I42
g105
g3
I361
Vsb
p1960
tp1961
I0
s(g385
I42
g386
g3
I101
VexpireEndTime
p1962
tp1963
I14
s(g162
I42
g163
g3
I164
Vthat
p1964
tp1965
I0
s(g341
I42
g342
g3
I46
VMockMvcBuilders
p1966
tp1967
I0
s(g70
I42
g71
g3
I398
Vother
p1968
tp1969
I8
s(g46
I42
g47
g3
I281
Vtime
p1970
tp1971
I8
s(g268
I42
g269
g3
I1187
Vfolders
p1972
tp1973
I3
s(g375
I42
g376
g3
I405
Vother
p1974
tp1975
I4
s(g483
I42
g484
g3
I11
VController
p1976
tp1977
I9
s(g367
I42
g368
g3
I50
Vname
p1978
tp1979
I13
s(g36
I42
g37
g3
I94
Vi
p1980
tp1981
I8
s(g166
I42
g167
g3
I580
Vsb
p1982
tp1983
I7
s(g353
I42
g354
g3
I622
Vother
p1984
tp1985
I12
s(g226
I42
g227
g3
I773
VcmsMenu
p1986
tp1987
I14
s(g222
I42
g223
g3
I519
VgetUserId
p1988
tp1989
I13
s(g385
I42
g386
g3
I107
VDate
p1990
tp1991
I9
s(g341
I42
g342
g3
I31
Vmvc
p1992
tp1993
I7
s(g158
I42
g159
g3
I83
Vpublic
p1994
tp1995
I4
s(g214
I42
g215
g3
I94
VcurrentTimeMillis
p1996
tp1997
I12
s(g166
I42
g167
g3
I567
Vappend
p1998
tp1999
I13
s(g435
I42
g436
g3
I692
VupmsUserExample
p2000
tp2001
I9
s(g192
I42
g193
g3
I316
Vsb
p2002
tp2003
I8
s(g70
I42
g71
g3
I408
Vequals
p2004
tp2005
I5
s(g391
I42
g392
g3
I490
Vequals
p2006
tp2007
I2
s(g122
I42
g123
g3
I254
VObject
p2008
tp2009
I20
s(g240
I42
g241
g3
I140
VinsertSelective
p2010
tp2011
I11
s(g78
I42
g79
g3
I61
Vsession
p2012
tp2013
I9
s(g721
I42
g722
g3
I123
Vrequest
p2014
tp2015
I0
s(g565
I42
g566
g3
I142
Vcipher
p2016
tp2017
I9
s(g222
I42
g223
g3
I544
VgetSystemId
p2018
tp2019
I5
s(g295
I42
g296
g3
I1046
VgetOrders
p2020
tp2021
I2
s(g166
I42
g167
g3
I588
Vappend
p2022
tp2023
I2
s(g14
I42
g15
g3
I984
VSystem
p2024
tp2025
I24
s(g240
I42
g241
g3
I149
VupmsUserPermissionExample
p2026
tp2027
I8
s(g78
I42
g79
g3
I68
VOverride
p2028
tp2029
I7
s(g40
I42
g41
g3
I565
VgetAgent
p2030
tp2031
I11
s(g20
I42
g21
g3
I233
Vequals
p2032
tp2033
I9
s(g20
I42
g21
g3
I223
VgetArticleCategoryId
p2034
tp2035
I11
s(g192
I42
g193
g3
I324
Vsb
p2036
tp2037
I4
s(g341
I42
g342
g3
I52
VsetUp
p2038
tp2039
I3
s(g246
I42
g247
g3
I280
VgetAllErrors
p2040
tp2041
I10
s(g1
I42
g2
g3
I223
Vother
p2042
tp2043
I24
s(g104
I42
g105
g3
I339
VhashCode
p2044
tp2045
I9
s(g64
I42
g65
g3
I12
VController
p2046
tp2047
I9
s(g10
I42
g11
g3
I550
VgetStatus
p2048
tp2049
I11
s(g40
I42
g41
g3
I585
Vother
p2050
tp2051
I5
s(g6
I42
g7
g3
I553
VgetPassword
p2052
tp2053
I2
s(g114
I42
g115
g3
I355
VgetUserId
p2054
tp2055
I5
s(g721
I42
g722
g3
I97
VIOException
p2056
tp2057
I12
s(g1
I42
g2
g3
I253
Vequals
p2058
tp2059
I4
s(g721
I42
g722
g3
I113
VHttpServletResponse
p2060
tp2061
I4
s(g6
I42
g7
g3
I533
Vother
p2062
tp2063
I10
s(g96
I42
g97
g3
I203
VStringUtils
p2064
tp2065
I0
s(g110
I42
g111
g3
I326
VgetTopicId
p2066
tp2067
I6
s(g315
I42
g316
g3
I581
VgetAlias
p2068
tp2069
I10
s(g575
I42
g576
g3
I372
Vtime
p2070
tp2071
I3
s(g28
I42
g29
g3
I190
Voffset
p2072
tp2073
I14
s(g385
I42
g386
g3
I118
VmaxSize
p2074
tp2075
I6
s(g64
I42
g65
g3
I20
VString
p2076
tp2077
I4
s(g1
I42
g2
g3
I252
VgetArticleId
p2078
tp2079
I0
s(g435
I42
g436
g3
I702
Vor
p2080
tp2081
I0
s(g391
I42
g392
g3
I455
VgetSystemId
p2082
tp2083
I13
s(g565
I42
g566
g3
I142
Vinit
p2084
tp2085
I8
s(g617
I42
g618
g3
I289
Vtime
p2086
tp2087
I4
s(g565
I42
g566
g3
I39
Vbyte
p2088
tp2089
I6
s(g172
I42
g173
g3
I12
VComponent
p2090
tp2091
I18
s(g78
I42
g79
g3
I48
Vsession
p2092
tp2093
I14
s(g483
I42
g484
g3
I65
VHelloController
p2094
tp2095
I6
s(g188
I42
g189
g3
I583
Vimage
p2096
tp2097
I5
s(g272
I42
g273
g3
I128
VgetScheme
p2098
tp2099
I14
s(g114
I42
g115
g3
I41
g228
tp2100
I17
s(g6
I42
g7
g3
I539
VgetPassword
p2101
tp2102
I8
s(g50
I42
g51
g3
I463
Vclose
p2103
tp2104
I9
s(g166
I42
g167
g3
I575
Vparameter
p2105
tp2106
I8
s(g136
I42
g137
g3
I1115
VgetTop
p2107
tp2108
I6
s(g353
I42
g354
g3
I631
VgetAlias
p2109
tp2110
I7
s(g431
I42
g432
g3
I309
VgetClass
p2111
tp2112
I2
s(g36
I42
g37
g3
I123
V_log
p2113
tp2114
I2
s(g617
I42
g618
g3
I278
VSystem
p2115
tp2116
I11
s(g84
I42
g85
g3
I252
Vother
p2117
tp2118
I1
s(g14
I42
g15
g3
I990
Vtime
p2119
tp2120
I12
s(g471
I42
g472
g3
I30
VSpringbootApplication
p2121
tp2122
I7
s(g272
I42
g273
g3
I136
VgetServerName
p2123
tp2124
I10
s(g96
I42
g97
g3
I189
Vusername
p2125
tp2126
I8
s(g152
I42
g153
g3
I279
VObjectError
p2127
tp2128
I13
s(g268
I42
g269
g3
I1191
VJSONObject
p2129
tp2130
I1
s(g148
I42
g149
g3
I281
VhashCode
p2131
tp2132
I5
s(g166
I42
g167
g3
I572
Vsb
p2133
tp2134
I11
s(g132
I42
g133
g3
I212
VOverride
p2135
tp2136
I42
s(g721
I42
g722
g3
I116
Vresponse
p2137
tp2138
I5
s(g250
I42
g251
g3
I522
Vremove
p2139
tp2140
I3
s(g70
I42
g71
g3
I418
Vother
p2141
tp2142
I1
s(g617
I42
g618
g3
I289
VsetOrders
p2143
tp2144
I5
s(g268
I42
g269
g3
I1148
VJSONArray
p2145
tp2146
I14
s(g268
I42
g269
g3
I1160
Vmenus
p2147
tp2148
I12
s(g192
I42
g193
g3
I302
Vsb
p2149
tp2150
I14
s(g1
I42
g2
g3
I232
Vother
p2151
tp2152
I16
s(g32
I42
g33
g3
I533
VgetCtime
p2153
tp2154
I3
s(g250
I42
g251
g3
I513
Vtoken
p2155
tp2156
I9
s(g617
I42
g618
g3
I295
VgetMapper
p2157
tp2158
I0
s(g50
I42
g51
g3
I458
Vjedis
p2159
tp2160
I14
s(g735
I42
g736
g3
I83
Vstatic
p2161
tp2162
I52
s(g295
I42
g296
g3
I1050
Vother
p2163
tp2164
I0
s(g359
I42
g360
g3
I623
VgetName
p2165
tp2166
I3
s(g226
I42
g227
g3
I783
VCmsMenuExample
p2167
tp2168
I11
s(g110
I42
g111
g3
I337
VgetTitle
p2169
tp2170
I3
s(g92
I42
g93
g3
I732
VDATA
p2171
tp2172
I1
s(g36
I42
g37
g3
I82
Vi
p2173
tp2174
I13
s(g84
I42
g85
g3
I243
Vother
p2175
tp2176
I5
s(g192
I42
g193
g3
I332
Vsb
p2177
tp2178
I0
s(g1
I42
g2
g3
I248
VgetArticleId
p2179
tp2180
I3
s(g28
I42
g29
g3
I217
VaddParameter
p2181
tp2182
I5
s(g192
I42
g193
g3
I307
Vappend
p2183
tp2184
I11
s(g431
I42
g432
g3
I291
VObject
p2185
tp2186
I20
s(g282
I42
g283
g3
I365
VObject
p2187
tp2188
I20
s(g196
I42
g197
g3
I380
VgetIntValue
p2189
tp2190
I13
s(g319
I42
g320
g3
I28
VTestTaskImpl
p2191
tp2192
I5
s(g78
I42
g79
g3
I63
Vprintln
p2193
tp2194
I10
s(g166
I42
g167
g3
I572
Vappend
p2195
tp2196
I10
s(g104
I42
g105
g3
I348
Vappend
p2197
tp2198
I6
s(g431
I42
g432
g3
I296
Vthat
p2199
tp2200
I14
s(g78
I42
g79
g3
I83
Vpublic
p2201
tp2202
I6
s(g640
I42
g641
g3
I40
Vsession
p2203
tp2204
I1
s(g218
I42
g219
g3
I239
Ve
p2205
tp2206
I9
s.