(dp0
(S'Token'
p1
I574
VgetAgent
p2
tp3
I1
s(g1
I252
VgetCategoryId
p4
tp5
I1
s(g1
I148
Vthat
p6
tp7
I1
s(g1
I618
VgetName
p8
tp9
I1
s(g1
I247
VsetOrderByClause
p10
tp11
I1
s(g1
I612
VgetPid
p12
tp13
I1
s(g1
I724
Vput
p14
tp15
I1
s(g1
I995
VarticleId
p16
tp17
I3
s(g1
I978
Vsystem
p18
tp19
I3
s(g1
I104
VOverride
p20
tp21
I4
s(g1
I44
Vcreate
p22
tp23
I1
s(g1
I39
Vvoid
p24
tp25
I22
s(g1
I1148
VJSONArray
p26
tp27
I1
s(g1
I252
VCmsArticle
p28
tp29
I1
s(g1
I291
VObject
p30
tp31
I2
s(g1
I277
VUpmsRolePermission
p32
tp33
I1
s(g1
I489
Vother
p34
tp35
I1
s(g1
I788
VcmsMenuExample
p36
tp37
I1
s(g1
I371
VSystem
p38
tp39
I3
s(g1
I299
VcmsArticle
p40
tp41
I1
s(g1
I216
VintegerWrapper
p42
tp43
I1
s(g1
I39
Vboolean
p44
tp45
I22
s(g1
I290
Verror
p46
tp47
I1
s(g1
I456
VgetSex
p48
tp49
I1
s(g1
I591
Vkeywords
p50
tp51
I1
s(g1
I345
Vsb
p52
tp53
I1
s(g1
I632
Vother
p54
tp55
I1
s(g1
I1051
Vequals
p56
tp57
I1
s(g1
I160
VintrospectedTable
p58
tp59
I1
s(g1
I465
VgetSystemId
p60
tp61
I1
s(g1
I284
VcmsCategory
p62
tp63
I1
s(g1
I33
VOverride
p64
tp65
I1
s(g1
I238
VgetUserid
p66
tp67
I1
s(g1
I977
VselectFirstByExample
p68
tp69
I3
s(g1
I554
Vequals
p70
tp71
I1
s(g1
I275
VObjectError
p72
tp73
I1
s(g1
I20
VString
p74
tp75
I1
s(g1
I82
Vi
p76
tp77
I1
s(g1
I198
Vpassword
p78
tp79
I1
s(g1
I88
Vi
p80
tp81
I1
s(g1
I355
Vresult
p82
tp83
I3
s(g1
I75
Vparams
p84
tp85
I1
s(g1
I244
Vappend
p86
tp87
I1
s(g1
I380
VgetUserId
p88
tp89
I1
s(g1
I273
VModelMap
p90
tp91
I1
s(g1
I142
Vkey
p92
tp93
I1
s(g1
I470
Vequals
p94
tp95
I1
s(g1
I80
VObject
p96
tp97
I2
s(g1
I138
VgetName
p98
tp99
I1
s(g1
I273
Vappend
p100
tp101
I1
s(g1
I222
VsetOffset
p102
tp103
I1
s(g1
I550
Vother
p104
tp105
I1
s(g1
I185
Vthat
p106
tp107
I9
s(g1
I412
Vnode2
p108
tp109
I1
s(g1
I702
VupmsUserExample
p110
tp111
I1
s(g1
I81
Vprintln
p112
tp113
I1
s(g1
I217
VObject
p114
tp115
I3
s(g1
I380
VgetIntValue
p116
tp117
I1
s(g1
I95
VinitMapper
p118
tp119
I2
s(g1
I403
VgetPermissionId
p120
tp121
I1
s(g1
I580
Vsb
p122
tp123
I2
s(g1
I326
VgetTopicId
p124
tp125
I1
s(g1
I179
VgetParameter
p126
tp127
I1
s(g1
I258
Vsb
p128
tp129
I1
s(g1
I340
Vappend
p130
tp131
I1
s(g1
I27
VLogger
p132
tp133
I2
s(g1
I534
VgetSystemId
p134
tp135
I1
s(g1
I564
Vother
p136
tp137
I1
s(g1
I227
VtopLevelClass
p138
tp139
I1
s(g1
I39
Vlong
p140
tp141
I10
s(g1
I1010
Vother
p142
tp143
I1
s(g1
I773
VcmsMenu
p144
tp145
I1
s(g1
I517
Vother
p146
tp147
I1
s(g1
I190
VtopLevelClass
p148
tp149
I1
s(g1
I20
VAutowired
p150
tp151
I1
s(g1
I312
VgetTopicId
p152
tp153
I1
s(g1
I184
VuserService
p154
tp155
I1
s(g1
I337
VgetTitle
p156
tp157
I1
s(g1
I362
Vresult
p158
tp159
I3
s(g1
I115
VservletResponse
p160
tp161
I1
s(g1
I576
VgetTitle
p162
tp163
I1
s(g1
I1099
VgetReadnumber
p164
tp165
I1
s(g1
I109
VexpireEndTime
p166
tp167
I1
s(g1
I353
Vsb
p168
tp169
I1
s(g1
I551
Vequals
p170
tp171
I1
s(g1
I22
VRunWith
p172
tp173
I1
s(g1
I786
VCmsMenuExample
p174
tp175
I1
s(g1
I332
Vsb
p176
tp177
I1
s(g1
I252
Vother
p178
tp179
I4
s(g1
I603
VgetPid
p180
tp181
I1
s(g1
I984
VcurrentTimeMillis
p182
tp183
I3
s(g1
I360
Vother
p184
tp185
I1
s(g1
I232
VgetId
p186
tp187
I1
s(g1
I275
Vthat
p188
tp189
I2
s(g1
I466
VgetCtime
p190
tp191
I1
s(g1
I327
Vequals
p192
tp193
I1
s(g1
I623
Vother
p194
tp195
I1
s(g1
I367
Vthat
p196
tp197
I2
s(g1
I116
Vresponse
p198
tp199
I1
s(g1
I106
Vi
p200
tp201
I1
s(g1
I683
VisBlank
p202
tp203
I1
s(g1
I34
VLoggerFactory
p204
tp205
I2
s(g1
I126
Vcallback
p206
tp207
I1
s(g1
I533
VgetUserId
p208
tp209
I1
s(g1
I570
VgetAgent
p210
tp211
I1
s(g1
I1119
Vother
p212
tp213
I1
s(g1
I31
VOverride
p214
tp215
I1
s(g1
I39
Vint
p216
tp217
I4
s(g1
I20
VSpringRunner
p218
tp219
I1
s(g1
I18
S''
p220
tp221
I1
s(g1
I180
VObject
p222
tp223
I9
s(g1
I286
VOverride
p224
tp225
I2
s(g1
I265
Vmodel
p226
tp227
I1
s(g1
I410
VgetOauthId
p228
tp229
I1
s(g1
I238
Vthat
p230
tp231
I3
s(g1
I107
Vrequest
p232
tp233
I1
s(g1
I116
VmaxSize
p234
tp235
I1
s(g1
I1026
VgetCtime
p236
tp237
I1
s(g1
I718
VtransferTo
p238
tp239
I1
s(g1
I252
Ve
p240
tp241
I1
s(g1
I405
VgetOauthId
p242
tp243
I1
s(g1
I52
VsetUp
p244
tp245
I1
s(g1
I26
VEnableSwagger2
p246
tp247
I1
s(g1
I561
Vother
p248
tp249
I1
s(g1
I110
VHttpServletResponse
p250
tp251
I1
s(g1
I235
VgetClass
p252
tp253
I3
s(g1
I61
VgetId
p254
tp255
I1
s(g1
I155
Vthat
p256
tp257
I1
s(g1
I795
VcreateCriteria
p258
tp259
I1
s(g1
I223
VgetArticleTagId
p260
tp261
I1
s(g1
I360
VOverride
p262
tp263
I2
s(g1
I1160
Vmenus
p264
tp265
I1
s(g1
I28
VjdbcTemplate
p266
tp267
I1
s(g1
I507
Vequals
p268
tp269
I3
s(g1
I157
Vbase64encoder
p270
tp271
I1
s(g1
I499
VgetSession
p272
tp273
I1
s(g1
I23
Vmain
p274
tp275
I13
s(g1
I159
VbasePath
p276
tp277
I1
s(g1
I528
VgetCtime
p278
tp279
I1
s(g1
I330
Vthat
p280
tp281
I3
s(g1
I99
Vname
p282
tp283
I1
s(g1
I295
VcmsCategoryService
p284
tp285
I1
s(g1
I395
Vequals
p286
tp287
I1
s(g1
I252
VprintStackTrace
p288
tp289
I1
s(g1
I51
Vcreate
p290
tp291
I1
s(g1
I575
Vappend
p292
tp293
I2
s(g1
I471
VgetCtime
p294
tp295
I1
s(g1
I360
VgetUserId
p296
tp297
I1
s(g1
I54
Vprintln
p298
tp299
I1
s(g1
I128
VgetScheme
p300
tp301
I1
s(g1
I232
VgetArticleTagId
p302
tp303
I1
s(g1
I296
Vthat
p304
tp305
I2
s(g1
I560
VgetAgent
p306
tp307
I1
s(g1
I613
Vequals
p308
tp309
I1
s(g1
I350
Vresult
p310
tp311
I3
s(g1
I303
VsetCtime
p312
tp313
I1
s(g1
I258
VselectByExample
p314
tp315
I1
s(g1
I123
Vsb
p316
tp317
I4
s(g1
I142
Vinit
p318
tp319
I1
s(g1
I244
Vsb
p320
tp321
I1
s(g1
I594
Vother
p322
tp323
I1
s(g1
I528
Vother
p324
tp325
I2
s(g1
I76
VgetBeansWithAnnotation
p326
tp327
I2
s(g1
I349
VtoComplex
p328
tp329
I3
s(g1
I985
Vtime
p330
tp331
I3
s(g1
I984
VSystem
p332
tp333
I3
s(g1
I284
Vtime
p334
tp335
I1
s(g1
I183
VString
p336
tp337
I1
s(g1
I233
Vequals
p338
tp339
I4
s(g1
I71
VgetApplicationContext
p340
tp341
I2
s(g1
I203
VStringUtils
p342
tp343
I1
s(g1
I1130
Vother
p344
tp345
I1
s(g1
I303
VcmsArticleService
p346
tp347
I1
s(g1
I36
VDocket
p348
tp349
I1
s(g1
I27
Vtest
p350
tp351
I1
s(g1
I29
Vmain
p352
tp353
I1
s(g1
I783
VCmsMenuExample
p354
tp355
I1
s(g1
I480
VRedisUtil
p356
tp357
I1
s(g1
I273
Vsb
p358
tp359
I1
s(g1
I370
Vequals
p360
tp361
I1
s(g1
I135
VCipher
p362
tp363
I1
s(g1
I54
g220
tp364
I2
s(g1
I109
VdefaultQueueDestination
p365
tp366
I1
s(g1
I489
VgetPid
p367
tp368
I1
s(g1
I623
VgetName
p369
tp370
I1
s(g1
I33
Vtest
p371
tp372
I2
s(g1
I302
Vsb
p373
tp374
I1
s(g1
I575
Vequals
p375
tp376
I1
s(g1
I247
VSQLException
p377
tp378
I1
s(g1
I140
VinsertSelective
p379
tp380
I1
s(g1
I517
VgetAlias
p381
tp382
I1
s(g1
I390
VgetUserId
p383
tp384
I1
s(g1
I387
Vother
p385
tp386
I1
s(g1
I12
VString
p387
tp388
I13
s(g1
I1000
VcmsComment
p389
tp390
I3
s(g1
I405
Vother
p391
tp392
I1
s(g1
I164
Vthat
p393
tp394
I1
s(g1
I61
Vsession
p395
tp396
I1
s(g1
I223
Vother
p397
tp398
I4
s(g1
I144
VUpmsUserPermissionExample
p399
tp400
I1
s(g1
I228
VgetCategoryTagId
p401
tp402
I1
s(g1
I18
VSessionListener
p403
tp404
I1
s(g1
I678
Vsort
p405
tp406
I1
s(g1
I1160
Vsize
p407
tp408
I1
s(g1
I51
VonStart
p409
tp410
I1
s(g1
I282
VupmsRolePermission
p411
tp412
I1
s(g1
I188
VgetParameter
p413
tp414
I1
s(g1
I85
Vvalues
p415
tp416
I2
s(g1
I446
VgetSex
p417
tp418
I1
s(g1
I387
VgetName
p419
tp420
I1
s(g1
I222
VaddBodyLine
p421
tp422
I1
s(g1
I586
VgetTitle
p423
tp424
I1
s(g1
I590
Vother
p425
tp426
I1
s(g1
I180
Vbackurl
p427
tp428
I1
s(g1
I617
VgetAlias
p429
tp430
I1
s(g1
I338
VgetClass
p431
tp432
I1
s(g1
I11
VController
p433
tp434
I1
s(g1
I158
VgetUsername
p435
tp436
I1
s(g1
I243
VgetUserid
p437
tp438
I1
s(g1
I460
Vother
p439
tp440
I2
s(g1
I60
VcreateRestApi
p441
tp442
I1
s(g1
I407
VgetCode
p443
tp444
I1
s(g1
I201
Vthat
p445
tp446
I9
s(g1
I299
VsetCtime
p447
tp448
I1
s(g1
I139
VisNotBlank
p449
tp450
I1
s(g1
I408
Vequals
p451
tp452
I1
s(g1
I268
Vsb
p453
tp454
I1
s(g1
I109
VJmsUtil
p455
tp456
I1
s(g1
I134
VgetByte
p457
tp458
I1
s(g1
I1187
Vfolders
p459
tp460
I1
s(g1
I31
Vmvc
p461
tp462
I1
s(g1
I311
Vappend
p463
tp464
I1
s(g1
I172
Vrequest
p465
tp466
I1
s(g1
I566
VgetName
p467
tp468
I1
s(g1
I93
VonExpiration
p469
tp470
I1
s(g1
I324
Vappend
p471
tp472
I1
s(g1
I692
VupmsUserExample
p473
tp474
I1
s(g1
I377
Vthat
p475
tp476
I2
s(g1
I500
Vsession
p477
tp478
I1
s(g1
I1125
VgetSystemId
p479
tp480
I1
s(g1
I196
VMethod
p481
tp482
I1
s(g1
I348
Vappend
p483
tp484
I1
s(g1
I601
VgetSystemId
p485
tp486
I1
s(g1
I208
VsetOffset
p487
tp488
I1
s(g1
I118
VSystem
p489
tp490
I1
s(g1
I252
VgetUserid
p491
tp492
I1
s(g1
I398
Vother
p493
tp494
I1
s(g1
I145
Vthat
p495
tp496
I1
s(g1
I396
Vnode2
p497
tp498
I1
s(g1
I25
g220
tp499
I78
s(g1
I519
Vsession
p500
tp501
I1
s(g1
I403
VupmsPermission2
p502
tp503
I1
s(g1
I248
VgetArticleId
p504
tp505
I2
s(g1
I23
VModelMap
p506
tp507
I1
s(g1
I323
VOverride
p508
tp509
I3
s(g1
I977
VcmsSystemExample
p510
tp511
I3
s(g1
I30
VBean
p512
tp513
I1
s(g1
I298
VcurrentTimeMillis
p514
tp515
I1
s(g1
I218
VgetCategoryTagId
p516
tp517
I1
s(g1
I56
VMap
p518
tp519
I1
s(g1
I150
VupmsRoles
p520
tp521
I1
s(g1
I273
Vmodel
p522
tp523
I1
s(g1
I208
VsetName
p524
tp525
I1
s(g1
I319
VcommentId
p526
tp527
I1
s(g1
I232
VgetArticleCategoryId
p528
tp529
I1
s(g1
I232
VprintStackTrace
p530
tp531
I1
s(g1
I203
VsetOffset
p532
tp533
I1
s(g1
I585
VgetCtime
p534
tp535
I1
s(g1
I122
VgetSimpleName
p536
tp537
I4
s(g1
I805
VandPidIsNull
p538
tp539
I1
s(g1
I289
Verror
p540
tp541
I1
s(g1
I179
Vrequest
p542
tp543
I1
s(g1
I539
Vother
p544
tp545
I1
s(g1
I132
VString
p546
tp547
I1
s(g1
I316
Vsb
p548
tp549
I1
s(g1
I590
VgetCtime
p550
tp551
I1
s(g1
I16
Vargs
p552
tp553
I13
s(g1
I369
Vother
p554
tp555
I1
s(g1
I995
VcmsComment
p556
tp557
I3
s(g1
I591
Vequals
p558
tp559
I1
s(g1
I140
VupmsUserPermission
p560
tp561
I1
s(g1
I565
VgetAgent
p562
tp563
I1
s(g1
I107
VString
p564
tp565
I4
s(g1
I83
Vpublic
p566
tp567
I76
s(g1
I237
VInterruptedException
p568
tp569
I1
s(g1
I123
Vrequest
p570
tp571
I1
s(g1
I1050
Vother
p572
tp573
I1
s(g1
I7
VSpringBootApplication
p574
tp575
I1
s(g1
I284
VsetCtime
p576
tp577
I1
s(g1
I353
Vappend
p578
tp579
I1
s(g1
I316
Vappend
p580
tp581
I1
s(g1
I140
VupmsUserPermissionMapper
p582
tp583
I1
s(g1
I149
VupmsUserPermissionExample
p584
tp585
I1
s(g1
I480
Vremove
p586
tp587
I1
s(g1
I26
VJdbcTemplate
p588
tp589
I1
s(g1
I123
V_log
p590
tp591
I1
s(g1
I277
Verror
p592
tp593
I1
s(g1
I35
V_log
p594
tp595
I2
s(g1
I136
Vrequest
p596
tp597
I1
s(g1
I119
VHttpSession
p598
tp599
I1
s(g1
I508
VgetAlias
p600
tp601
I1
s(g1
I608
VgetPid
p602
tp603
I1
s(g1
I590
VgetAlias
p604
tp605
I1
s(g1
I99
VtagId
p606
tp607
I2
s(g1
I265
Vjson
p608
tp609
I1
s(g1
I683
Vorder
p610
tp611
I1
s(g1
I176
Vformat
p612
tp613
I1
s(g1
I110
VStringBuilder
p614
tp615
I4
s(g1
I249
Vappend
p616
tp617
I1
s(g1
I647
VgetCtime
p618
tp619
I1
s(g1
I1010
VgetReadnumber
p620
tp621
I1
s(g1
I591
Vappend
p622
tp623
I1
s(g1
I124
VJSONObject
p624
tp625
I1
s(g1
I724
Vmap
p626
tp627
I1
s(g1
I378
VgetName
p628
tp629
I1
s(g1
I18
VBaseController
p630
tp631
I1
s(g1
I724
VRESULT
p632
tp633
I1
s(g1
I243
VgetArticleId
p634
tp635
I2
s(g1
I280
VUpmsRolePermission
p636
tp637
I1
s(g1
I83
Vstatic
p638
tp639
I17
s(g1
I21
VRequestMapping
p640
tp641
I3
s(g1
I583
Vappend
p642
tp643
I2
s(g1
I266
Vsb
p644
tp645
I1
s(g1
I601
Vother
p646
tp647
I1
s(g1
I527
VRedisUtil
p648
tp649
I1
s(g1
I30
V_log
p650
tp651
I1
s(g1
I1110
VgetTop
p652
tp653
I1
s(g1
I152
VdoFinal
p654
tp655
I1
s(g1
I486
V_log
p656
tp657
I1
s(g1
I538
Vequals
p658
tp659
I1
s(g1
I28
VTestTaskImpl
p660
tp661
I1
s(g1
I281
VhashCode
p662
tp663
I1
s(g1
I120
VgetClass
p664
tp665
I4
s(g1
I254
VObject
p666
tp667
I2
s(g1
I88
VSwagger2
p668
tp669
I1
s(g1
I312
Vthat
p670
tp671
I2
s(g1
I458
Vjedis
p672
tp673
I1
s(g1
I48
Vsession
p674
tp675
I1
s(g1
I581
VgetTitle
p676
tp677
I1
s(g1
I219
Vthat
p678
tp679
I3
s(g1
I145
Vroles
p680
tp681
I1
s(g1
I572
Vappend
p682
tp683
I2
s(g1
I272
VgetIntValue
p684
tp685
I1
s(g1
I242
VandStatusEqualTo
p686
tp687
I1
s(g1
I553
VgetPassword
p688
tp689
I1
s(g1
I231
VCmsArticleExample
p690
tp691
I1
s(g1
I627
VgetAlias
p692
tp693
I1
s(g1
I455
VgetSystemId
p694
tp695
I1
s(g1
I278
VSystem
p696
tp697
I1
s(g1
I192
VString
p698
tp699
I1
s(g1
I567
Vauthor
p700
tp701
I1
s(g1
I606
VgetSystemId
p702
tp703
I1
s(g1
I33
VDocket
p704
tp705
I1
s(g1
I544
VgetPassword
p706
tp707
I1
s(g1
I1115
VgetTop
p708
tp709
I1
s(g1
I135
VgetInstance
p710
tp711
I1
s(g1
I218
VgetArticleTagId
p712
tp713
I1
s(g1
I1187
Vsize
p714
tp715
I1
s(g1
I460
VgetSystemId
p716
tp717
I1
s(g1
I30
Vmap
p718
tp719
I1
s(g1
I197
Vrequest
p720
tp721
I1
s(g1
I400
VgetOauthId
p722
tp723
I1
s(g1
I1193
Vsystem
p724
tp725
I1
s(g1
I85
Vservices
p726
tp727
I2
s(g1
I1177
Vmenus
p728
tp729
I1
s(g1
I289
VsetOrders
p730
tp731
I1
s(g1
I71
VString
p732
tp733
I1
s(g1
I175
VTopLevelClass
p734
tp735
I1
s(g1
I533
Vother
p736
tp737
I1
s(g1
I97
Vinfo
p738
tp739
I1
s(g1
I603
Vother
p740
tp741
I1
s(g1
I287
Vappend
p742
tp743
I1
s(g1
I71
VDataSourceBuilder
p744
tp745
I1
s(g1
I158
VgetIntValue
p746
tp747
I1
s(g1
I286
Vtime
p748
tp749
I1
s(g1
I256
Vthat
p750
tp751
I2
s(g1
I394
VgetUserId
p752
tp753
I1
s(g1
I458
Vscard
p754
tp755
I1
s(g1
I64
VString
p756
tp757
I1
s(g1
I138
Vput
p758
tp759
I1
s(g1
I96
VSystem
p760
tp761
I1
s(g1
I372
Vtime
p762
tp763
I3
s(g1
I285
Verror
p764
tp765
I1
s(g1
I586
VgetAlias
p766
tp767
I1
s(g1
I317
Vother
p768
tp769
I1
s(g1
I69
Vname
p770
tp771
I1
s(g1
I41
g220
tp772
I65
s(g1
I598
VgetPid
p773
tp774
I1
s(g1
I178
V_log
p775
tp776
I1
s(g1
I529
VgetUserId
p777
tp778
I1
s(g1
I48
VjdbcTemplate
p779
tp780
I1
s(g1
I495
VHttpSession
p781
tp782
I1
s(g1
I232
Vother
p783
tp784
I4
s(g1
I313
Vadd
p785
tp786
I1
s(g1
I702
Vor
p787
tp788
I1
s(g1
I580
Vappend
p789
tp790
I2
s(g1
I592
Vsb
p791
tp792
I1
s(g1
I385
VgetUserId
p793
tp794
I1
s(g1
I39
VException
p795
tp796
I1
s(g1
I509
Vsession
p797
tp798
I1
s(g1
I82
Vservice
p799
tp800
I2
s(g1
I18
VUserService
p801
tp802
I1
s(g1
I184
VaddGWTInterface
p803
tp804
I1
s(g1
I553
Vother
p805
tp806
I1
s(g1
I20
Vcron
p807
tp808
I2
s(g1
I612
Vother
p809
tp810
I1
s(g1
I26
VString
p811
tp812
I1
s(g1
I259
Vi
p813
tp814
I1
s(g1
I633
Vequals
p815
tp816
I1
s(g1
I565
Vother
p817
tp818
I1
s(g1
I356
Vappend
p819
tp820
I1
s(g1
I16
VTestTask
p821
tp822
I2
s(g1
I113
VHttpServletResponse
p823
tp824
I1
s(g1
I475
VgetPid
p825
tp826
I1
s(g1
I130
VCipher
p827
tp828
I1
s(g1
I179
VIntrospectedTable
p829
tp830
I1
s(g1
I188
Vrequest
p831
tp832
I1
s(g1
I449
VgetPermissionId
p833
tp834
I1
s(g1
I265
VgetClass
p835
tp836
I1
s(g1
I611
VgetType
p837
tp838
I1
s(g1
I239
Vappend
p839
tp840
I1
s(g1
I348
VcategoryId
p841
tp842
I1
s(g1
I253
Vequals
p843
tp844
I4
s(g1
I149
Vappend
p845
tp846
I1
s(g1
I38
Vindex
p847
tp848
I1
s(g1
I631
VgetAlias
p849
tp850
I1
s(g1
I518
Vequals
p851
tp852
I1
s(g1
I546
VgetStatus
p853
tp854
I1
s(g1
I279
VObjectError
p855
tp856
I1
s(g1
I355
VisSuccess
p857
tp858
I3
s(g1
I559
Vother
p859
tp860
I1
s(g1
I223
VgetId
p861
tp862
I1
s(g1
I249
Vsb
p863
tp864
I1
s(g1
I286
Verror
p865
tp866
I1
s(g1
I223
VgetArticleCategoryId
p867
tp868
I1
s(g1
I143
Vrequest
p869
tp870
I1
s(g1
I523
VgetCtime
p871
tp872
I1
s(g1
I228
VgetArticleTagId
p873
tp874
I1
s(g1
I94
VgetDeclaredMethod
p875
tp876
I2
s(g1
I35
Vindex
p877
tp878
I1
s(g1
I331
Vsb
p879
tp880
I1
s(g1
I237
VcreateCriteria
p881
tp882
I1
s(g1
I242
VprintStackTrace
p883
tp884
I1
s(g1
I691
Vorder
p885
tp886
I1
s(g1
I286
V_log
p887
tp888
I1
s(g1
I29
VMockMvc
p889
tp890
I1
s(g1
I222
Vequals
p891
tp892
I1
s(g1
I289
Vtime
p893
tp894
I1
s(g1
I17
VScheduled
p895
tp896
I1
s(g1
I522
Vremove
p897
tp898
I1
s(g1
I596
VgetSystemId
p899
tp900
I1
s(g1
I295
VgetMapper
p901
tp902
I1
s(g1
I113
VStringBuilder
p903
tp904
I4
s(g1
I470
VsessionId
p905
tp906
I1
s(g1
I509
VgetId
p907
tp908
I1
s(g1
I977
VcmsSystemService
p909
tp910
I3
s(g1
I1030
Vother
p911
tp912
I1
s(g1
I349
Vthat
p913
tp914
I3
s(g1
I512
Vget
p915
tp916
I1
s(g1
I174
VSystem
p917
tp918
I1
s(g1
I302
VcurrentTimeMillis
p919
tp920
I1
s(g1
I418
VgetDescription
p921
tp922
I1
s(g1
I652
Vequals
p923
tp924
I1
s(g1
I97
VIOException
p925
tp926
I1
s(g1
I350
Vthat
p927
tp928
I1
s(g1
I217
VsetOffset
p929
tp930
I1
s(g1
I128
Vsb
p931
tp932
I4
s(g1
I138
VOverride
p933
tp934
I1
s(g1
I189
Vusername
p935
tp936
I1
s(g1
I346
Vother
p937
tp938
I1
s(g1
I25
Vmap
p939
tp940
I1
s(g1
I524
VgetUserId
p941
tp942
I2
s(g1
I580
VgetCtime
p943
tp944
I1
s(g1
I691
Vsort
p945
tp946
I1
s(g1
I294
Vcount
p947
tp948
I1
s(g1
I480
VgetPid
p949
tp950
I1
s(g1
I38
VSession
p951
tp952
I1
s(g1
I307
Vsb
p953
tp954
I1
s(g1
I182
Vthat
p955
tp956
I9
s(g1
I574
Vother
p957
tp958
I1
s(g1
I383
VgetName
p959
tp960
I1
s(g1
I289
VcmsCategory
p961
tp962
I1
s(g1
I137
Vdomain
p963
tp964
I1
s(g1
I138
Vcallback
p965
tp966
I1
s(g1
I101
VHttpServletRequest
p967
tp968
I1
s(g1
I1099
Vother
p969
tp970
I1
s(g1
I229
Ve
p971
tp972
I1
s(g1
I30
VSpringbootApplication
p973
tp974
I1
s(g1
I239
Ve
p975
tp976
I1
s(g1
I212
VOverride
p977
tp978
I3
s(g1
I223
VgetCategoryTagId
p979
tp980
I1
s(g1
I44
VDataSourceBuilder
p981
tp982
I1
s(g1
I285
VgetDefaultMessage
p983
tp984
I1
s(g1
I528
VgetUserId
p985
tp986
I1
s(g1
I1100
Vequals
p987
tp988
I1
s(g1
I64
VConfigurationProperties
p989
tp990
I1
s(g1
I374
VgetUserOauthId
p991
tp992
I1
s(g1
I79
VgetParameter
p993
tp994
I1
s(g1
I218
VgetId
p995
tp996
I1
s(g1
I365
VObject
p997
tp998
I2
s(g1
I302
Vappend
p999
tp1000
I1
s(g1
I403
VgetCode
p1001
tp1002
I1
s(g1
I479
VZHENG_UPMS_SHIRO_SESSION_ID
p1003
tp1004
I1
s(g1
I278
Vappend
p1005
tp1006
I1
s(g1
I512
VRedisUtil
p1007
tp1008
I1
s(g1
I485
VgetPid
p1009
tp1010
I1
s(g1
I49
Vmvc
p1011
tp1012
I1
s(g1
I29
VLoggerFactory
p1013
tp1014
I1
s(g1
I265
VgetBoolean
p1015
tp1016
I1
s(g1
I171
VDate
p1017
tp1018
I1
s(g1
I46
Vbuild
p1019
tp1020
I1
s(g1
I128
Vappend
p1021
tp1022
I4
s(g1
I190
Voffset
p1023
tp1024
I1
s(g1
I59
VUserController
p1025
tp1026
I2
s(g1
I561
VgetName
p1027
tp1028
I1
s(g1
I96
VcurrentTimeMillis
p1029
tp1030
I1
s(g1
I813
Vcriteria
p1031
tp1032
I1
s(g1
I161
Vequals
p1033
tp1034
I1
s(g1
I174
VString
p1035
tp1036
I1
s(g1
I699
Vsearch
p1037
tp1038
I1
s(g1
I229
Vthat
p1039
tp1040
I3
s(g1
I731
VtargetFile
p1041
tp1042
I1
s(g1
I91
Vservice
p1043
tp1044
I2
s(g1
I248
VgetUserid
p1045
tp1046
I1
s(g1
I109
VjmsQueueTemplate
p1047
tp1048
I1
s(g1
I74
VService
p1049
tp1050
I2
s(g1
I414
Vother
p1051
tp1052
I1
s(g1
I692
VsetOrderByClause
p1053
tp1054
I1
s(g1
I278
VmakeSerializable
p1055
tp1056
I1
s(g1
I148
VSystem
p1057
tp1058
I1
s(g1
I94
VSystem
p1059
tp1060
I1
s(g1
I642
VgetCtime
p1061
tp1062
I1
s(g1
I533
VgetCtime
p1063
tp1064
I1
s(g1
I17
VRequestMapping
p1065
tp1066
I1
s(g1
I21
VScheduled
p1067
tp1068
I2
s(g1
I1110
Vother
p1069
tp1070
I1
s(g1
I732
VDATA
p1071
tp1072
I1
s(g1
I83
Vprivate
p1073
tp1074
I5
s(g1
I732
Vput
p1075
tp1076
I1
s(g1
I346
VgetClass
p1077
tp1078
I3
s(g1
I490
Vequals
p1079
tp1080
I1
s(g1
I118
VmaxSize
p1081
tp1082
I1
s(g1
I280
VSystem
p1083
tp1084
I1
s(g1
I107
VexpireEndTime
p1085
tp1086
I1
s(g1
I471
Vother
p1087
tp1088
I1
s(g1
I272
VgetClass
p1089
tp1090
I2
s(g1
I120
VString
p1091
tp1092
I1
s(g1
I279
Vequals
p1093
tp1094
I9
s(g1
I124
VHashSet
p1095
tp1096
I1
s(g1
I178
Vinfo
p1097
tp1098
I1
s(g1
I451
VgetSex
p1099
tp1100
I1
s(g1
I228
VgetId
p1101
tp1102
I1
s(g1
I123
Vinfo
p1103
tp1104
I1
s(g1
I519
VgetId
p1105
tp1106
I1
s(g1
I385
Vother
p1107
tp1108
I1
s(g1
I450
Vequals
p1109
tp1110
I2
s(g1
I239
Vsb
p1111
tp1112
I1
s(g1
I158
Vuser
p1113
tp1114
I1
s(g1
I595
Vequals
p1115
tp1116
I1
s(g1
I345
VUcenterUserDetails
p1117
tp1118
I1
s(g1
I232
Ve
p1119
tp1120
I1
s(g1
I36
VHelloController
p1121
tp1122
I1
s(g1
I1105
VgetTop
p1123
tp1124
I1
s(g1
I463
Vjedis
p1125
tp1126
I1
s(g1
I143
VObject
p1127
tp1128
I1
s(g1
I548
VgetSystemId
p1129
tp1130
I1
s(g1
I571
Vequals
p1131
tp1132
I1
s(g1
I233
VcmsArticleExample
p1133
tp1134
I1
s(g1
I153
VcreateCriteria
p1135
tp1136
I1
s(g1
I145
VDate
p1137
tp1138
I1
s(g1
I106
VservletRequest
p1139
tp1140
I1
s(g1
I365
VgetUserId
p1141
tp1142
I1
s(g1
I699
VStringUtils
p1143
tp1144
I1
s(g1
I339
VhashCode
p1145
tp1146
I1
s(g1
I376
Vfolder
p1147
tp1148
I1
s(g1
I108
Vexpiration
p1149
tp1150
I1
s(g1
I457
Vcode
p1151
tp1152
I1
s(g1
I347
Vequals
p1153
tp1154
I1
s(g1
I539
VgetPassword
p1155
tp1156
I1
s(g1
I990
VcmsComment
p1157
tp1158
I3
s(g1
I637
VgetCtime
p1159
tp1160
I1
s(g1
I174
VcurrentTimeMillis
p1161
tp1162
I1
s(g1
I228
VgetArticleCategoryId
p1163
tp1164
I1
s(g1
I1021
Vother
p1165
tp1166
I1
s(g1
I335
VgetClass
p1167
tp1168
I1
s(g1
I248
VgetCategoryId
p1169
tp1170
I1
s(g1
I100
VinitMapper
p1171
tp1172
I2
s(g1
I94
VcurrentTimeMillis
p1173
tp1174
I1
s(g1
I328
VObject
p1175
tp1176
I3
s(g1
I238
VgetArticleId
p1177
tp1178
I2
s(g1
I1021
VgetCtime
p1179
tp1180
I1
s(g1
I175
VOverride
p1181
tp1182
I9
s(g1
I440
VgetNickname
p1183
tp1184
I1
s(g1
I310
VhashCode
p1185
tp1186
I1
s(g1
I513
VgetAlias
p1187
tp1188
I1
s(g1
I386
Vthat
p1189
tp1190
I2
s(g1
I481
Vequals
p1191
tp1192
I1
s(g1
I213
VParameter
p1193
tp1194
I1
s(g1
I303
VcmsComment
p1195
tp1196
I1
s(g1
I250
VList
p1197
tp1198
I1
s(g1
I252
VgetArticleId
p1199
tp1200
I2
s(g1
I39
Vbyte
p1201
tp1202
I2
s(g1
I253
Vappend
p1203
tp1204
I1
s(g1
I40
VInteger
p1205
tp1206
I1
s(g1
I628
VgetName
p1207
tp1208
I1
s(g1
I279
Vtime
p1209
tp1210
I1
s(g1
I284
Vbinding
p1211
tp1212
I1
s(g1
I54
VBean
p1213
tp1214
I1
s(g1
I404
Vnode2
p1215
tp1216
I1
s(g1
I154
VbasePath
p1217
tp1218
I1
s(g1
I23
VQualifier
p1219
tp1220
I1
s(g1
I497
VgetType
p1221
tp1222
I1
s(g1
I575
Vparameter
p1223
tp1224
I1
s(g1
I581
VgetAlias
p1225
tp1226
I1
s(g1
I336
Vequals
p1227
tp1228
I3
s(g1
I275
VmodelMap
p1229
tp1230
I1
s(g1
I135
VALGORITHM
p1231
tp1232
I1
s(g1
I1166
Vfolder
p1233
tp1234
I1
s(g1
I1119
VgetTop
p1235
tp1236
I1
s(g1
I413
VgetDescription
p1237
tp1238
I1
s(g1
I159
VandPermissionIdEqualTo
p1239
tp1240
I1
s(g1
I415
Vequals
p1241
tp1242
I1
s(g1
I1175
VJSONArray
p1243
tp1244
I1
s(g1
I105
VDate
p1245
tp1246
I1
s(g1
I122
VJSONObject
p1247
tp1248
I1
s(g1
I567
Vip
p1249
tp1250
I1
s(g1
I327
Vappend
p1251
tp1252
I1
s(g1
I109
VsendMessage
p1253
tp1254
I1
s(g1
I217
VaddParameter
p1255
tp1256
I1
s(g1
I519
Vother
p1257
tp1258
I1
s(g1
I537
Vother
p1259
tp1260
I1
s(g1
I513
Vtoken
p1261
tp1262
I1
s(g1
I711
Vmkdirs
p1263
tp1264
I1
s(g1
I95
VfilterChain
p1265
tp1266
I1
s(g1
I345
Vappend
p1267
tp1268
I1
s(g1
I287
VupmsRolePermission
p1269
tp1270
I1
s(g1
I165
VintrospectedTable
p1271
tp1272
I1
s(g1
I1130
VgetSystemId
p1273
tp1274
I1
s(g1
I80
Vsession
p1275
tp1276
I1
s(g1
I337
Vother
p1277
tp1278
I1
s(g1
I711
VtargetFile
p1279
tp1280
I1
s(g1
I457
VZHENG_UPMS_CLIENT_SESSION_IDS
p1281
tp1282
I1
s(g1
I281
Verror
p1283
tp1284
I1
s(g1
I192
Vthat
p1285
tp1286
I9
s(g1
I622
VgetAlias
p1287
tp1288
I1
s(g1
I503
VString
p1289
tp1290
I1
s(g1
I556
VgetName
p1291
tp1292
I1
s(g1
I161
VgetClass
p1293
tp1294
I1
s(g1
I93
VFilterChain
p1295
tp1296
I1
s(g1
I469
VgetSystemId
p1297
tp1298
I1
s(g1
I24
VApp
p1299
tp1300
I13
s(g1
I127
Vroles
p1301
tp1302
I1
s(g1
I388
Vequals
p1303
tp1304
I1
s(g1
I23
VResponseBody
p1305
tp1306
I1
s(g1
I249
VOverride
p1307
tp1308
I2
s(g1
I362
VgetErrors
p1309
tp1310
I3
s(g1
I394
VJSONObject
p1311
tp1312
I1
s(g1
I588
Vsb
p1313
tp1314
I2
s(g1
I384
VgetType
p1315
tp1316
I1
s(g1
I348
VUcenterUserDetails
p1317
tp1318
I1
s(g1
I1016
VgetCtime
p1319
tp1320
I1
s(g1
I284
VgetAllErrors
p1321
tp1322
I1
s(g1
I338
VLengthValidator
p1323
tp1324
I3
s(g1
I99
VcategoryId
p1325
tp1326
I1
s(g1
I102
VDate
p1327
tp1328
I1
s(g1
I412
Vput
p1329
tp1330
I1
s(g1
I278
Vsb
p1331
tp1332
I1
s(g1
I110
Vexpiration
p1333
tp1334
I1
s(g1
I611
Vequals
p1335
tp1336
I1
s(g1
I115
Vsb
p1337
tp1338
I4
s(g1
I583
Vresult
p1339
tp1340
I1
s(g1
I564
Vequals
p1341
tp1342
I2
s(g1
I581
Vother
p1343
tp1344
I2
s(g1
I1036
VgetOrders
p1345
tp1346
I1
s(g1
I50
Vremove
p1347
tp1348
I1
s(g1
I36
VString
p1349
tp1350
I1
s(g1
I351
Vother
p1351
tp1352
I1
s(g1
I271
VupmsOrganization
p1353
tp1354
I1
s(g1
I1164
VJSONObject
p1355
tp1356
I1
s(g1
I707
VtargetFile
p1357
tp1358
I1
s(g1
I801
VgetPid
p1359
tp1360
I1
s(g1
I18
VController
p1361
tp1362
I2
s(g1
I59
Vparams
p1363
tp1364
I1
s(g1
I247
VcmsArticleExample
p1365
tp1366
I1
s(g1
I775
VCmsResult
p1367
tp1368
I1
s(g1
I338
Vthat
p1369
tp1370
I1
s(g1
I345
VdoValidate
p1371
tp1372
I3
s(g1
I269
VUpmsOrganization
p1373
tp1374
I1
s(g1
I470
Vlrem
p1375
tp1376
I1
s(g1
I567
Vappend
p1377
tp1378
I2
s(g1
I393
Vequals
p1379
tp1380
I2
s(g1
I50
Vname
p1381
tp1382
I1
s(g1
I59
VPrimary
p1383
tp1384
I1
s(g1
I632
Vequals
p1385
tp1386
I1
s(g1
I295
VupmsRolePermission
p1387
tp1388
I1
s(g1
I537
VgetCtime
p1389
tp1390
I1
s(g1
I119
VJSONObject
p1391
tp1392
I1
s(g1
I503
VgetAlias
p1393
tp1394
I1
s(g1
I499
Vrequest
p1395
tp1396
I1
s(g1
I1171
Vput
p1397
tp1398
I1
s(g1
I227
VXMLParserException
p1399
tp1400
I1
s(g1
I524
Vother
p1401
tp1402
I1
s(g1
I287
Vsb
p1403
tp1404
I1
s(g1
I332
VgetTitle
p1405
tp1406
I1
s(g1
I107
VDate
p1407
tp1408
I1
s(g1
I12
VController
p1409
tp1410
I1
s(g1
I281
Vtime
p1411
tp1412
I1
s(g1
I10
VComponent
p1413
tp1414
I1
s(g1
I259
Ve
p1415
tp1416
I1
s(g1
I322
VgetTopicId
p1417
tp1418
I1
s(g1
I479
VsessionId
p1419
tp1420
I1
s(g1
I177
VtopLevelClass
p1421
tp1422
I1
s(g1
I534
Vequals
p1423
tp1424
I1
s(g1
I68
VOverride
p1425
tp1426
I1
s(g1
I287
VsetRoleId
p1427
tp1428
I1
s(g1
I16
Vcron
p1429
tp1430
I1
s(g1
I398
VgetCode
p1431
tp1432
I1
s(g1
I75
Vsession
p1433
tp1434
I1
s(g1
I319
Vappend
p1435
tp1436
I1
s(g1
I575
Vfromurl
p1437
tp1438
I1
s(g1
I707
Vexists
p1439
tp1440
I1
s(g1
I1191
VJSONObject
p1441
tp1442
I1
s(g1
I278
VcurrentTimeMillis
p1443
tp1444
I1
s(g1
I151
VdoFinal
p1445
tp1446
I1
s(g1
I280
VgetAllErrors
p1447
tp1448
I1
s(g1
I118
VSet
p1449
tp1450
I1
s(g1
I393
VgetCode
p1451
tp1452
I1
s(g1
I307
VcmsCommentService
p1453
tp1454
I1
s(g1
I1041
VgetOrders
p1455
tp1456
I1
s(g1
I303
Vthat
p1457
tp1458
I2
s(g1
I286
VupmsOrganization
p1459
tp1460
I1
s(g1
I554
VgetIp
p1461
tp1462
I1
s(g1
I331
Vappend
p1463
tp1464
I1
s(g1
I699
VisNotBlank
p1465
tp1466
I1
s(g1
I268
Vappend
p1467
tp1468
I1
s(g1
I34
VTestTaskImpl
p1469
tp1470
I2
s(g1
I476
VgetCtime
p1471
tp1472
I1
s(g1
I144
Vport
p1473
tp1474
I1
s(g1
I594
VgetCtime
p1475
tp1476
I1
s(g1
I143
VgetServerPort
p1477
tp1478
I1
s(g1
I391
VJSONObject
p1479
tp1480
I1
s(g1
I990
Vtime
p1481
tp1482
I3
s(g1
I461
Vequals
p1483
tp1484
I1
s(g1
I1031
Vequals
p1485
tp1486
I1
s(g1
I407
Vother
p1487
tp1488
I1
s(g1
I307
Vappend
p1489
tp1490
I1
s(g1
I550
VgetStatus
p1491
tp1492
I1
s(g1
I63
Vprintln
p1493
tp1494
I1
s(g1
I592
VgetSystemId
p1495
tp1496
I1
s(g1
I22
VLogger
p1497
tp1498
I1
s(g1
I374
Vother
p1499
tp1500
I1
s(g1
I27
VShiroSessionListener
p1501
tp1502
I1
s(g1
I289
VgetDefaultMessage
p1503
tp1504
I1
s(g1
I99
VServletException
p1505
tp1506
I1
s(g1
I298
VSystem
p1507
tp1508
I1
s(g1
I46
VMockMvcBuilders
p1509
tp1510
I1
s(g1
I104
VDate
p1511
tp1512
I1
s(g1
I631
Vother
p1513
tp1514
I1
s(g1
I583
Vimage
p1515
tp1516
I1
s(g1
I683
VStringUtils
p1517
tp1518
I1
s(g1
I198
VsetOffset
p1519
tp1520
I1
s(g1
I1095
VgetReadnumber
p1521
tp1522
I1
s(g1
I370
Vthat
p1523
tp1524
I2
s(g1
I61
VgetParameterMap
p1525
tp1526
I1
s(g1
I262
Ve
p1527
tp1528
I1
s(g1
I588
Vappend
p1529
tp1530
I2
s(g1
I132
VupmsRole
p1531
tp1532
I1
s(g1
I238
VgetSimpleName
p1533
tp1534
I1
s(g1
I67
VString
p1535
tp1536
I1
s(g1
I153
VupmsUserPermissionExample
p1537
tp1538
I1
s(g1
I592
Vother
p1539
tp1540
I1
s(g1
I104
VHttpServletRequest
p1541
tp1542
I1
s(g1
I404
Vput
p1543
tp1544
I1
s(g1
I610
Vother
p1545
tp1546
I1
s(g1
I801
VcmsMenu
p1547
tp1548
I1
s(g1
I1090
VgetReadnumber
p1549
tp1550
I1
s(g1
I261
Vappend
p1551
tp1552
I1
s(g1
I60
VSpringbootApplicationTests
p1553
tp1554
I1
s(g1
I280
Vbinding
p1555
tp1556
I1
s(g1
I149
VbasePath
p1557
tp1558
I1
s(g1
I519
VgetUserId
p1559
tp1560
I1
s(g1
I165
VmakeSerializable
p1561
tp1562
I1
s(g1
I622
Vother
p1563
tp1564
I1
s(g1
I113
VgetUserId
p1565
tp1566
I1
s(g1
I361
Vsb
p1567
tp1568
I1
s(g1
I267
VgetSimpleName
p1569
tp1570
I1
s(g1
I1041
Vother
p1571
tp1572
I1
s(g1
I261
Vid
p1573
tp1574
I1
s(g1
I549
VgetPassword
p1575
tp1576
I1
s(g1
I252
VhashCode
p1577
tp1578
I1
s(g1
I356
Vpid
p1579
tp1580
I1
s(g1
I383
VgetClass
p1581
tp1582
I2
s(g1
I151
Vcipher
p1583
tp1584
I1
s(g1
I508
Vother
p1585
tp1586
I1
s(g1
I394
Vother
p1587
tp1588
I1
s(g1
I197
VgetParameter
p1589
tp1590
I1
s(g1
I203
VsetVisibility
p1591
tp1592
I1
s(g1
I165
VandTypeEqualTo
p1593
tp1594
I1
s(g1
I299
Vcount
p1595
tp1596
I1
s(g1
I559
VgetSalt
p1597
tp1598
I1
s(g1
I302
VSystem
p1599
tp1600
I1
s(g1
I53
Vsession
p1601
tp1602
I1
s(g1
I124
Vcallback
p1603
tp1604
I1
s(g1
I57
VQualifier
p1605
tp1606
I1
s(g1
I418
Vother
p1607
tp1608
I1
s(g1
I384
VupmsPermission2
p1609
tp1610
I1
s(g1
I136
Vcallback
p1611
tp1612
I1
s(g1
I94
Vi
p1613
tp1614
I1
s(g1
I273
VdeleteIds
p1615
tp1616
I1
s(g1
I134
Vjson
p1617
tp1618
I1
s(g1
I198
VgetClass
p1619
tp1620
I9
s(g1
I522
VRedisUtil
p1621
tp1622
I1
s(g1
I1171
Vmenus
p1623
tp1624
I1
s(g1
I258
VcmsArticleExample
p1625
tp1626
I1
s(g1
I14
VRequestMapping
p1627
tp1628
I1
s(g1
I596
Vsb
p1629
tp1630
I1
s(g1
I151
Vbytes
p1631
tp1632
I1
s(g1
I99
VexpireEndTime
p1633
tp1634
I1
s(g1
I642
Vother
p1635
tp1636
I1
s(g1
I83
Vprotected
p1637
tp1638
I1
s(g1
I158
Vjson
p1639
tp1640
I1
s(g1
I470
VRedisUtil
p1641
tp1642
I1
s(g1
I91
VgetClass
p1643
tp1644
I2
s(g1
I70
g220
tp1645
I5
s(g1
I309
VgetClass
p1646
tp1647
I2
s(g1
I290
VtagId
p1648
tp1649
I1
s(g1
I238
VgetCategoryId
p1650
tp1651
I1
s(g1
I242
Ve
p1652
tp1653
I1
s(g1
I287
Vid
p1654
tp1655
I1
s(g1
I327
Vpid
p1656
tp1657
I1
s(g1
I42
Vage
p1658
tp1659
I1
s(g1
I451
Vother
p1660
tp1661
I1
s(g1
I282
Vappend
p1662
tp1663
I1
s(g1
I333
Vthat
p1664
tp1665
I3
s(g1
I165
VtopLevelClass
p1666
tp1667
I1
s(g1
I796
Vcriteria
p1668
tp1669
I1
s(g1
I326
Vother
p1670
tp1671
I1
s(g1
I243
VgetCategoryId
p1672
tp1673
I1
s(g1
I286
VsetCtime
p1674
tp1675
I1
s(g1
I273
Vadd
p1676
tp1677
I1
s(g1
I29
VgetLogger
p1678
tp1679
I1
s(g1
I651
VgetCtime
p1680
tp1681
I1
s(g1
I86
Vi
p1682
tp1683
I1
s(g1
I40
Vsession
p1684
tp1685
I1
s(g1
I293
Vthat
p1686
tp1687
I2
s(g1
I651
Vother
p1688
tp1689
I1
s(g1
I164
Vjson
p1690
tp1691
I1
s(g1
I19
Vargs
p1692
tp1693
I1
s(g1
I136
VgetServerName
p1694
tp1695
I1
s(g1
I293
VupmsOrganizationService
p1696
tp1697
I1
s(g1
I570
VgetType
p1698
tp1699
I1
s(g1
I469
Vother
p1700
tp1701
I1
s(g1
I576
VgetAlias
p1702
tp1703
I1
s(g1
I259
Vthat
p1704
tp1705
I2
s(g1
I463
Vclose
p1706
tp1707
I1
s(g1
I718
VtargetFile
p1708
tp1709
I1
s(g1
I539
VgetSystemId
p1710
tp1711
I1
s(g1
I340
Vthat
p1712
tp1713
I3
s(g1
I258
Vappend
p1714
tp1715
I1
s(g1
I67
VDataSource
p1716
tp1717
I1
s(g1
I130
Vcallback
p1718
tp1719
I1
s(g1
I295
Vsb
p1720
tp1721
I1
s(g1
I572
Vsb
p1722
tp1723
I2
s(g1
I411
VupmsPermission2
p1724
tp1725
I1
s(g1
I460
VgetSex
p1726
tp1727
I1
s(g1
I24
VSpringBootTest
p1728
tp1729
I1
s(g1
I24
VConfiguration
p1730
tp1731
I1
s(g1
I236
VgetClass
p1732
tp1733
I1
s(g1
I290
V_log
p1734
tp1735
I1
s(g1
I193
VMethod
p1736
tp1737
I1
s(g1
I358
VCmsResult
p1738
tp1739
I3
s(g1
I290
Vappend
p1740
tp1741
I1
s(g1
I585
Vother
p1742
tp1743
I1
s(g1
I718
Vfile
p1744
tp1745
I1
s(g1
I995
VsetArticleId
p1746
tp1747
I3
s(g1
I63
Vprefix
p1748
tp1749
I1
s(g1
I570
VgetName
p1750
tp1751
I1
s(g1
I470
VZHENG_UPMS_SERVER_SESSION_IDS
p1752
tp1753
I1
s(g1
I990
VsetCtime
p1754
tp1755
I3
s(g1
I355
VgetUserId
p1756
tp1757
I1
s(g1
I173
VtoString
p1758
tp1759
I4
s(g1
I222
Vthat
p1760
tp1761
I3
s(g1
I148
VcurrentTimeMillis
p1762
tp1763
I1
s(g1
I154
Vappend
p1764
tp1765
I1
s(g1
I266
Vthat
p1766
tp1767
I2
s(g1
I307
Vthat
p1768
tp1769
I1
s(g1
I1120
Vequals
p1770
tp1771
I1
s(g1
I232
VgetCategoryTagId
p1772
tp1773
I1
s(g1
I349
VResultCollectors
p1774
tp1775
I3
s(g1
I48
V_log
p1776
tp1777
I1
s(g1
I65
VHelloController
p1778
tp1779
I1
s(g1
I544
VgetSystemId
p1780
tp1781
I1
s(g1
I544
Vother
p1782
tp1783
I1
s(g1
I237
VcmsArticleExample
p1784
tp1785
I1
s(g1
I124
Vsession
p1786
tp1787
I1
s(g1
I324
Vsb
p1788
tp1789
I1
s(g1
I549
Vequals
p1790
tp1791
I1
s(g1
I480
Vother
p1792
tp1793
I2
s(g1
I73
VSession
p1794
tp1795
I1
s(g1
I280
VcurrentTimeMillis
p1796
tp1797
I1
s(g1
I218
VgetArticleCategoryId
p1798
tp1799
I1
s(g1
I336
Vsb
p1800
tp1801
I1
s(g1
I570
Vother
p1802
tp1803
I2
s(g1
I257
VInvalidConfigurationException
p1804
tp1805
I1
s(g1
I53
VtoString
p1806
tp1807
I1
s(g1
I87
VMethod
p1808
tp1809
I2
s(g1
I342
VgetTitle
p1810
tp1811
I1
s(g1
I142
Vcipher
p1812
tp1813
I1
s(g1
I805
Vcriteria
p1814
tp1815
I1
s(g1
I1030
VgetCtime
p1816
tp1817
I1
s(g1
I139
VStringUtils
p1818
tp1819
I1
s(g1
I564
Vappend
p1820
tp1821
I1
s(g1
I548
Vother
p1822
tp1823
I1
s(g1
I121
VJSONObject
p1824
tp1825
I1
s(g1
I480
VgetCtime
p1826
tp1827
I1
s(g1
I259
VnewArticles
p1828
tp1829
I1
s(g1
I317
VgetTopicId
p1830
tp1831
I1
s(g1
I678
VisBlank
p1832
tp1833
I1
s(g1
I23
VOverride
p1834
tp1835
I2
s(g1
I15
VString
p1836
tp1837
I1
s(g1
I133
Vsb
p1838
tp1839
I4
s(g1
I134
VPropertiesFileUtil
p1840
tp1841
I1
s(g1
I26
VSpringApplication
p1842
tp1843
I1
s(g1
I554
VgetUsername
p1844
tp1845
I1
s(g1
I1046
VgetOrders
p1846
tp1847
I1
s(g1
I166
VSimpleDateFormat
p1848
tp1849
I1
s(g1
I724
VSUCCESS
p1850
tp1851
I1
s(g1
I136
Vcipher
p1852
tp1853
I1
s(g1
I12
VComponent
p1854
tp1855
I2
s(g1
I249
Ve
p1856
tp1857
I1
s(g1
I147
VUpmsUserPermissionExample
p1858
tp1859
I1
s(g1
I795
VcmsMenuExample
p1860
tp1861
I1
s(g1
I529
Vequals
p1862
tp1863
I1
s(g1
I123
Vappend
p1864
tp1865
I4
s(g1
I149
Vscheme
p1866
tp1867
I1
s(g1
I272
Vjson
p1868
tp1869
I1
s(g1
I130
VUpmsRole
p1870
tp1871
I1
s(g1
I38
Vname
p1872
tp1873
I1
s(g1
I97
V_log
p1874
tp1875
I1
s(g1
I732
Vmap
p1876
tp1877
I1
s(g1
I336
Vappend
p1878
tp1879
I1
s(g1
I101
VexpireEndTime
p1880
tp1881
I1
s(g1
I53
Vname
p1882
tp1883
I1
s(g1
I181
VintrospectedTable
p1884
tp1885
I1
s(g1
I76
VsecondaryDataSource
p1886
tp1887
I1
s(g1
I138
VupmsRole
p1888
tp1889
I1
s(g1
I130
Vput
p1890
tp1891
I1
s(g1
I258
VcmsArticleService
p1892
tp1893
I1
s(g1
I243
Vother
p1894
tp1895
I4
s(g1
I34
VBefore
p1896
tp1897
I1
s.