(lp0
(Vinsert
p1
I42
VSimpleName: setState
p2
tp3
a(Vinsert
p4
I42
VSimpleName: getMember
p5
tp6
a(Vinsert
p7
I42
VSimpleName: getField
p8
tp9
a(Vinsert
p10
I42
VSimpleName: setFeatures
p11
tp12
a(Vinsert
p13
I42
VSimpleName: setMaxBufSize
p14
tp15
a(Vinsert
p16
I42
VSimpleName: allocate
p17
tp18
a(Vinsert
p19
I42
VSimpleName: assertNull
p20
tp21
a(Vinsert
p22
I42
VSimpleName: scanArgTypes
p23
tp24
a(Vinsert
p25
I42
VSimpleName: getConfig
p26
tp27
a(Vinsert
p28
I42
VSimpleName: isLessThanAndroid23
p29
tp30
a(Vinsert
p31
I42
VSimpleName: isProxy
p32
tp33
a(Vinsert
p34
I42
VSimpleName: getVo
p35
tp36
a(Vinsert
p37
I42
VSimpleName: getValueFilters
p38
tp39
a(Vinsert
p40
I42
VSimpleName: contains
p41
tp42
a(Vinsert
p43
I42
VSimpleName: reset
p44
tp45
a(Vinsert
p46
I42
VSimpleName: getLabel
p47
tp48
a(Vinsert
p49
I42
VSimpleName: getObject
p50
tp51
a(Vinsert
p52
I42
VSimpleName: numberString
p53
tp54
a(Vinsert
p55
I42
VSimpleName: singletonMap
p56
tp57
a(Vinsert
p58
I42
VSimpleName: peek
p59
tp60
a(Vinsert
p61
I42
VSimpleName: isEmpty
p62
tp63
a(Vinsert
p64
I42
VSimpleName: getServletRequest
p65
tp66
a(Vinsert
p67
I42
VSimpleName: checkAutoType
p68
tp69
a(Vinsert
p70
I42
VSimpleName: getParent
p71
tp72
a(Vinsert
p73
I42
VSimpleName: deserializer
p74
tp75
a(Vinsert
p76
I42
VSimpleName: jsonDirect
p77
tp78
a(Vinsert
p79
I42
VSimpleName: getOwnerType
p80
tp81
a(Vinsert
p82
I42
VSimpleName: writeStartObject
p83
tp84
a(Vinsert
p85
I42
VSimpleName: getPrincipal
p86
tp87
a(Vinsert
p88
I42
VSimpleName: paths
p89
tp90
a(Vinsert
p91
I42
VSimpleName: getUpperBounds
p92
tp93
a(Vinsert
p94
I42
VSimpleName: println
p95
tp96
a(Vinsert
p97
I42
VSimpleName: getCharacterStream
p98
tp99
a(Vinsert
p100
I42
VSimpleName: entrySet
p101
tp102
a(Vinsert
p103
I42
VSimpleName: getDateFomrat
p104
tp105
a(Vinsert
p106
I42
VSimpleName: config
p107
tp108
a(Vinsert
p109
I42
VSimpleName: castToJavaBean
p110
tp111
a(Vinsert
p112
I42
VSimpleName: getAge
p113
tp114
a(Vinsert
p115
I42
VSimpleName: getDefaultClassLoader
p116
tp117
a(Vinsert
p118
I42
VSimpleName: getFieldClass
p119
tp120
a(Vinsert
p121
I42
VSimpleName: getDeclaredConstructors
p122
tp123
a(Vinsert
p124
I42
VSimpleName: getFunction
p125
tp126
a(Vinsert
p127
I42
VSimpleName: ignores
p128
tp129
a(Vinsert
p130
I42
VSimpleName: setAccessible
p131
tp132
a(Vinsert
p133
I42
VSimpleName: getAllFonts
p134
tp135
a(Vinsert
p136
I42
VSimpleName: emptySet
p137
tp138
a(Vinsert
p139
I42
VSimpleName: getNameFiltersDirect
p140
tp141
a(Vinsert
p142
I42
VSimpleName: setHotelAvailRoomStay
p143
tp144
a(Vinsert
p145
I42
VSimpleName: getContextValueFilters
p146
tp147
a(Vinsert
p148
I42
VSimpleName: isMemberClass
p149
tp150
a(Vinsert
p151
I42
VSimpleName: writeValueAsBytes
p152
tp153
a(Vinsert
p154
I42
VSimpleName: getEventList
p155
tp156
a(Vinsert
p157
I42
VSimpleName: writeFieldName
p158
tp159
a(Vinsert
p160
I42
VSimpleName: castToDate
p161
tp162
a(Vinsert
p163
I42
VSimpleName: invoke
p164
tp165
a(Vinsert
p166
I42
VSimpleName: getPhysicalQueueMap
p167
tp168
a(Vinsert
p169
I42
VSimpleName: isWildcardType
p170
tp171
a(Vinsert
p172
I42
VSimpleName: setContentLength
p173
tp174
a(Vinsert
p175
I42
VSimpleName: visitFieldInsn
p176
tp177
a(Vinsert
p178
I42
VSimpleName: decapitalize
p179
tp180
a(Vinsert
p181
I42
VSimpleName: gen
p182
tp183
a(Vinsert
p184
I42
VSimpleName: toJavaObject
p185
tp186
a(Vinsert
p187
I42
VSimpleName: isSuccess
p188
tp189
a(Vinsert
p190
I42
VSimpleName: getLexer
p191
tp192
a(Vinsert
p193
I42
VSimpleName: alphabetic
p194
tp195
a(Vinsert
p196
I42
VSimpleName: getFvalues
p197
tp198
a(Vinsert
p199
I42
VSimpleName: setFactoryMethod
p200
tp201
a(Vinsert
p202
I42
VSimpleName: set
p203
tp204
a(Vinsert
p205
I42
VSimpleName: scanFieldLong
p206
tp207
a(Vinsert
p208
I42
VSimpleName: startsWith
p209
tp210
a(Vinsert
p211
I42
VSimpleName: isExternalClass
p212
tp213
a(Vinsert
p214
I42
VSimpleName: scanFieldInt
p215
tp216
a(Vinsert
p217
I42
VSimpleName: setTimeInMillis
p218
tp219
a(Vinsert
p220
I42
VSimpleName: createJsonParser
p221
tp222
a(Vinsert
p223
I42
VSimpleName: setSelf
p224
tp225
a(Vinsert
p226
I42
VSimpleName: setId
p227
tp228
a(Vinsert
p229
I42
VSimpleName: remove
p230
tp231
a(Vinsert
p232
I42
VSimpleName: evalSize
p233
tp234
a(Vinsert
p235
I42
VSimpleName: getSerializerFeatures
p236
tp237
a(Vinsert
p238
I42
VSimpleName: writeAfter
p239
tp240
a(Vinsert
p241
I42
VSimpleName: alternateName
p242
tp243
a(Vinsert
p244
I42
VSimpleName: sort
p245
tp246
a(Vinsert
p247
I42
VSimpleName: findSymbol
p248
tp249
a(Vinsert
p250
I42
VSimpleName: getAddress
p251
tp252
a(Vinsert
p253
I42
VSimpleName: fill
p254
tp255
a(Vinsert
p256
I42
VSimpleName: setArguments
p257
tp258
a(Vinsert
p259
I42
VSimpleName: createInstance
p260
tp261
a(Vinsert
p262
I42
VSimpleName: getParentContext
p263
tp264
a(Vinsert
p265
I42
VSimpleName: getByName
p266
tp267
a(Vinsert
p268
I42
VSimpleName: deserialze
p269
tp270
a(Vinsert
p271
I42
VSimpleName: indexOf
p272
tp273
a(Vinsert
p274
I42
VSimpleName: clearChars
p275
tp276
a(Vinsert
p277
I42
VSimpleName: getDateFomartPattern
p278
tp279
a(Vinsert
p280
I42
VSimpleName: split
p281
tp282
a(Vinsert
p283
I42
VSimpleName: getAnnotation
p284
tp285
a(Vinsert
p286
I42
VSimpleName: getLocalHost
p287
tp288
a(Vinsert
p289
I42
VSimpleName: isLetter
p290
tp291
a(Vinsert
p292
I42
VSimpleName: getAb
p293
tp294
a(Vinsert
p295
I42
VSimpleName: scanFieldFloat
p296
tp297
a(Vinsert
p298
I42
VSimpleName: integerValue
p299
tp300
a(Vinsert
p301
I42
VSimpleName: isPresent
p302
tp303
a(Vinsert
p304
I42
VSimpleName: setAs
p305
tp306
a(Vinsert
p307
I42
VSimpleName: toHexString
p308
tp309
a(Vinsert
p310
I42
VSimpleName: getHashSet
p311
tp312
a(Vinsert
p313
I42
VSimpleName: getUTF8Decoder
p314
tp315
a(Vinsert
p316
I42
VSimpleName: setSerializerFeatures
p317
tp318
a(Vinsert
p319
I42
VSimpleName: decrementIdent
p320
tp321
a(Vinsert
p322
I42
VSimpleName: subString
p323
tp324
a(Vinsert
p325
I42
VSimpleName: getFloatValue
p326
tp327
a(Vinsert
p328
I42
VSimpleName: asm
p329
tp330
a(Vinsert
p331
I42
VSimpleName: isAccessible
p332
tp333
a(Vinsert
p334
I42
VSimpleName: parse
p335
tp336
a(Vinsert
p337
I42
VSimpleName: hashCode
p338
tp339
a(Vinsert
p340
I42
VSimpleName: getJSONArray
p341
tp342
a(Vinsert
p343
I42
VSimpleName: getPersons
p344
tp345
a(Vinsert
p346
I42
VSimpleName: getObjectWriter
p347
tp348
a(Vinsert
p349
I42
VSimpleName: forMap
p350
tp351
a(Vinsert
p352
I42
VSimpleName: deserializeUsing
p353
tp354
a(Vinsert
p355
I42
VSimpleName: wrap
p356
tp357
a(Vinsert
p358
I42
VSimpleName: set_parentId
p359
tp360
a(Vinsert
p361
I42
VSimpleName: replaceAll
p362
tp363
a(Vinsert
p364
I42
VSimpleName: getFieldList
p365
tp366
a(Vinsert
p367
I42
VSimpleName: keySet
p368
tp369
a(Vinsert
p370
I42
VSimpleName: configFromPropety
p371
tp372
a(Vinsert
p373
I42
VSimpleName: getIntValue
p374
tp375
a(Vinsert
p376
I42
VSimpleName: toUpperCase
p377
tp378
a(Vinsert
p379
I42
VSimpleName: getInstance
p380
tp381
a(Vinsert
p382
I42
VSimpleName: getFastMatchToken
p383
tp384
a(Vinsert
p385
I42
VSimpleName: getClassName
p386
tp387
a(Vinsert
p388
I42
VSimpleName: binarySearch
p389
tp390
a(Vinsert
p391
I42
VSimpleName: readString
p392
tp393
a(Vinsert
p394
I42
VSimpleName: pos
p395
tp396
a(Vinsert
p397
I42
VSimpleName: getContextResolver
p398
tp399
a(Vinsert
p400
I42
VSimpleName: lastIndexOf
p401
tp402
a(Vinsert
p403
I42
VSimpleName: compareTo
p404
tp405
a(Vinsert
p406
I42
VSimpleName: parser
p407
tp408
a(Vinsert
p409
I42
VSimpleName: getResolveStatus
p410
tp411
a(Vinsert
p412
I42
VSimpleName: assertTrue
p413
tp414
a(Vinsert
p415
I42
VSimpleName: loadClass
p416
tp417
a(Vinsert
p418
I42
VSimpleName: writeLongAndChar
p419
tp420
a(Vinsert
p421
I42
VSimpleName: toBytes
p422
tp423
a(Vinsert
p424
I42
VSimpleName: parseArray
p425
tp426
a(Vinsert
p427
I42
VSimpleName: getYoungGC
p428
tp429
a(Vinsert
p430
I42
VSimpleName: fluentRemove
p431
tp432
a(Vinsert
p433
I42
VSimpleName: getPageList
p434
tp435
a(Vinsert
p436
I42
VSimpleName: getActualTypeArguments
p437
tp438
a(Vinsert
p439
I42
VSimpleName: getPath
p440
tp441
a(Vinsert
p442
I42
VSimpleName: checkMapResolve
p443
tp444
a(Vinsert
p445
I42
VSimpleName: visitLdcInsn
p446
tp447
a(Vinsert
p448
I42
VSimpleName: getText
p449
tp450
a(Vinsert
p451
I42
VSimpleName: getBeforeFilters
p452
tp453
a(Vinsert
p454
I42
VSimpleName: eval
p455
tp456
a(Vinsert
p457
I42
VSimpleName: getKey
p458
tp459
a(Vinsert
p460
I42
VSimpleName: setDate
p461
tp462
a(Vinsert
p463
I42
VSimpleName: isValidJsonpQueryParam
p464
tp465
a(Vinsert
p466
I42
VSimpleName: toJSONStringWithDateFormat
p467
tp468
a(Vinsert
p469
I42
VSimpleName: getContainingClass
p470
tp471
a(Vinsert
p472
I42
VSimpleName: getClass
p473
tp474
a(Vinsert
p475
I42
VSimpleName: writeString
p476
tp477
a(Vinsert
p478
I42
VSimpleName: currentThread
p479
tp480
a(Vinsert
p481
I42
VSimpleName: getA
p482
tp483
a(Vinsert
p484
I42
VSimpleName: writeJSONString
p485
tp486
a(Vinsert
p487
I42
VSimpleName: setResolveStatus
p488
tp489
a(Vinsert
p490
I42
VSimpleName: singleton
p491
tp492
a(Vinsert
p493
I42
VSimpleName: decodeFast
p494
tp495
a(Vinsert
p496
I42
VSimpleName: startArray
p497
tp498
a(Vinsert
p499
I42
VSimpleName: getGenericSuperclass
p500
tp501
a(Vinsert
p502
I42
VSimpleName: doubleValue
p503
tp504
a(Vinsert
p505
I42
VSimpleName: isAbstract
p506
tp507
a(Vinsert
p508
I42
VSimpleName: nextTokenWithColon
p509
tp510
a(Vinsert
p511
I42
VSimpleName: isPrimitive
p512
tp513
a(Vinsert
p514
I42
VSimpleName: setMaster
p515
tp516
a(Vinsert
p517
I42
VSimpleName: getList
p518
tp519
a(Vinsert
p520
I42
VSimpleName: invokeSuper
p521
tp522
a(Vinsert
p523
I42
VSimpleName: getParserFeatures
p524
tp525
a(Vinsert
p526
I42
VSimpleName: getFieldType
p527
tp528
a(Vinsert
p529
I42
VSimpleName: getDefaultConstructor
p530
tp531
a(Vinsert
p532
I42
VSimpleName: currentTimeMillis
p533
tp534
a(Vinsert
p535
I42
VSimpleName: isAnnotationPresent
p536
tp537
a(Vinsert
p538
I42
VSimpleName: getShijian
p539
tp540
a(Vinsert
p541
I42
VSimpleName: clear
p542
tp543
a(Vinsert
p544
I42
VSimpleName: setAsmEnable
p545
tp546
a(Vinsert
p547
I42
VSimpleName: setFieldComment
p548
tp549
a(Vinsert
p550
I42
VSimpleName: andExpect
p551
tp552
a(Vinsert
p553
I42
VSimpleName: toArray
p554
tp555
a(Vinsert
p556
I42
VSimpleName: parseLong
p557
tp558
a(Vinsert
p559
I42
VSimpleName: processRedundant
p560
tp561
a(Vinsert
p562
I42
VSimpleName: getOffsetTable
p563
tp564
a(Vinsert
p565
I42
VSimpleName: shortValue
p566
tp567
a(Vinsert
p568
I42
VSimpleName: setTimeZone
p569
tp570
a(Vinsert
p571
I42
VSimpleName: process
p572
tp573
a(Vinsert
p574
I42
VSimpleName: getReturnType
p575
tp576
a(Vinsert
p577
I42
VSimpleName: setB
p578
tp579
a(Vinsert
p580
I42
VSimpleName: setClassSerializeFilters
p581
tp582
a(Vinsert
p583
I42
VSimpleName: getParameterTypes
p584
tp585
a(Vinsert
p586
I42
VSimpleName: containsKey
p587
tp588
a(Vinsert
p589
I42
VSimpleName: isEnabled
p590
tp591
a(Vinsert
p592
I42
VSimpleName: sub_chars
p593
tp594
a(Vinsert
p595
I42
VSimpleName: getGenericParameterTypes
p596
tp597
a(Vinsert
p598
I42
VSimpleName: setParent
p599
tp600
a(Vinsert
p601
I42
VSimpleName: putShort
p602
tp603
a(Vinsert
p604
I42
VSimpleName: getTypeFactory
p605
tp606
a(Vinsert
p607
I42
VSimpleName: isSupportArrayToBean
p608
tp609
a(Vinsert
p610
I42
VSimpleName: stringSize
p611
tp612
a(Vinsert
p613
I42
VSimpleName: getProperty
p614
tp615
a(Vinsert
p616
I42
VSimpleName: append
p617
tp618
a(Vinsert
p619
I42
VSimpleName: stringVal
p620
tp621
a(Vinsert
p622
I42
VSimpleName: computeGetters
p623
tp624
a(Vinsert
p625
I42
VSimpleName: getSize
p626
tp627
a(Vinsert
p628
I42
VSimpleName: setTimestamp
p629
tp630
a(Vinsert
p631
I42
VSimpleName: setHomepageUrl
p632
tp633
a(Vinsert
p634
I42
VSimpleName: writeLong
p635
tp636
a(Vinsert
p637
I42
VSimpleName: isInterface
p638
tp639
a(Vinsert
p640
I42
VSimpleName: createJavaBeanDeserializer
p641
tp642
a(Vinsert
p643
I42
VSimpleName: intValue
p644
tp645
a(Vinsert
p646
I42
VSimpleName: render
p647
tp648
a(Vinsert
p649
I42
VSimpleName: info
p650
tp651
a(Vinsert
p652
I42
VSimpleName: addAccept
p653
tp654
a(Vinsert
p655
I42
VSimpleName: getDeserializer
p656
tp657
a(Vinsert
p658
I42
VSimpleName: add
p659
tp660
a(Vinsert
p661
I42
VSimpleName: assertEquals
p662
tp663
a(Vinsert
p664
I42
VSimpleName: getTimeZone
p665
tp666
a(Vinsert
p667
I42
VSimpleName: isAssignableFrom
p668
tp669
a(Vinsert
p670
I42
VSimpleName: addFilter
p671
tp672
a(Vinsert
p673
I42
VSimpleName: pattern
p674
tp675
a(Vinsert
p676
I42
VSimpleName: getExtraTypeProviders
p677
tp678
a(Vinsert
p679
I42
VSimpleName: f
p680
tp681
a(Vinsert
p682
I42
VSimpleName: getExtraTypeProvidersDirect
p683
tp684
a(Vinsert
p685
I42
VSimpleName: writeFieldValue
p686
tp687
a(Vinsert
p688
I42
VSimpleName: readFileToString
p689
tp690
a(Vinsert
p691
I42
VSimpleName: hasNext
p692
tp693
a(Vinsert
p694
I42
VSimpleName: length
p695
tp696
a(Vinsert
p697
I42
VSimpleName: getBytes
p698
tp699
a(Vinsert
p700
I42
VSimpleName: serializeEnumAsJavaBean
p701
tp702
a(Vinsert
p703
I42
VSimpleName: unwrapped
p704
tp705
a(Vinsert
p706
I42
VSimpleName: getSuperclass
p707
tp708
a(Vinsert
p709
I42
VSimpleName: getClassLoader
p710
tp711
a(Vinsert
p712
I42
VSimpleName: isAnnotationPresentManyToMany
p713
tp714
a(Vinsert
p715
I42
VSimpleName: arraycopy
p716
tp717
a(Vinsert
p718
I42
VSimpleName: scanISO8601DateIfMatch
p719
tp720
a(Vinsert
p721
I42
VSimpleName: scanNumber
p722
tp723
a(Vinsert
p724
I42
VSimpleName: scanFalse
p725
tp726
a(Vinsert
p727
I42
VSimpleName: getDefaultSerializer
p728
tp729
a(Vinsert
p730
I42
VSimpleName: singletonList
p731
tp732
a(Vinsert
p733
I42
VSimpleName: getOutputStream
p734
tp735
a(Vinsert
p736
I42
VSimpleName: writeTo
p737
tp738
a(Vinsert
p739
I42
VSimpleName: getFeatures
p740
tp741
a(Vinsert
p742
I42
VSimpleName: newInstance
p743
tp744
a(Vinsert
p745
I42
VSimpleName: getBeanInfo
p746
tp747
a(Vinsert
p748
I42
VSimpleName: nanoTime
p749
tp750
a(Vinsert
p751
I42
VSimpleName: replace
p752
tp753
a(Vinsert
p754
I42
VSimpleName: getRuntimeType
p755
tp756
a(Vinsert
p757
I42
VSimpleName: scanFieldFloatArray2
p758
tp759
a(Vinsert
p760
I42
VSimpleName: setDateFomrat
p761
tp762
a(Vinsert
p763
I42
VSimpleName: setMaxLevel
p764
tp765
a(Vinsert
p766
I42
VSimpleName: contentType
p767
tp768
a(Vinsert
p769
I42
VSimpleName: getMethod
p770
tp771
a(Vinsert
p772
I42
VSimpleName: writeBefore
p773
tp774
a(Vinsert
p775
I42
VSimpleName: compile
p776
tp777
a(Vinsert
p778
I42
VSimpleName: toString
p779
tp780
a(Vinsert
p781
I42
VSimpleName: highSurrogate
p782
tp783
a(Vinsert
p784
I42
VSimpleName: orders
p785
tp786
a(Vinsert
p787
I42
VSimpleName: charAt
p788
tp789
a(Vinsert
p790
I42
VSimpleName: close
p791
tp792
a(Vinsert
p793
I42
VSimpleName: support
p794
tp795
a(Vinsert
p796
I42
VSimpleName: writeWithFormat
p797
tp798
a(Vinsert
p799
I42
VSimpleName: getSortedFieldDeserializers
p800
tp801
a(Vinsert
p802
I42
VSimpleName: getTypeParameters
p803
tp804
a(Vinsert
p805
I42
VSimpleName: isInstance
p806
tp807
a(Vinsert
p808
I42
VSimpleName: format
p809
tp810
a(Vinsert
p811
I42
VSimpleName: equalsIgnoreCase
p812
tp813
a(Vinsert
p814
I42
VSimpleName: getMethodAnnotation
p815
tp816
a(Vinsert
p817
I42
VSimpleName: getTime
p818
tp819
a(Vinsert
p820
I42
VSimpleName: decode
p821
tp822
a(Vinsert
p823
I42
VSimpleName: toJSONString
p824
tp825
a(Vinsert
p826
I42
VSimpleName: getContext
p827
tp828
a(Vinsert
p829
I42
VSimpleName: emptyList
p830
tp831
a(Vinsert
p832
I42
VSimpleName: encode
p833
tp834
a(Vinsert
p835
I42
VSimpleName: string
p836
tp837
a(Vinsert
p838
I42
VSimpleName: next
p839
tp840
a(Vinsert
p841
I42
VSimpleName: writeObject
p842
tp843
a(Vinsert
p844
I42
VSimpleName: setName
p845
tp846
a(Vinsert
p847
I42
VSimpleName: nextIdent
p848
tp849
a(Vinsert
p850
I42
VSimpleName: getId
p851
tp852
a(Vinsert
p853
I42
VSimpleName: getCalendar
p854
tp855
a(Vinsert
p856
I42
VSimpleName: writeNull
p857
tp858
a(Vinsert
p859
I42
VSimpleName: getKoltinConstructorParameters
p860
tp861
a(Vinsert
p862
I42
VSimpleName: getJSONObject
p863
tp864
a(Vinsert
p865
I42
VSimpleName: read
p866
tp867
a(Vinsert
p868
I42
VSimpleName: ofPattern
p869
tp870
a(Vinsert
p871
I42
VSimpleName: createCollection
p872
tp873
a(Vinsert
p874
I42
VSimpleName: addParameter
p875
tp876
a(Vinsert
p877
I42
VSimpleName: token
p878
tp879
a(Vinsert
p880
I42
VSimpleName: writeIntAndChar
p881
tp882
a(Vinsert
p883
I42
VSimpleName: bytesValue
p884
tp885
a(Vinsert
p886
I42
VSimpleName: hash
p887
tp888
a(Vinsert
p889
I42
VSimpleName: getRawType
p890
tp891
a(Vinsert
p892
I42
VSimpleName: trim
p893
tp894
a(Vinsert
p895
I42
VSimpleName: getCompositeType
p896
tp897
a(Vinsert
p898
I42
VSimpleName: getClazz
p899
tp900
a(Vinsert
p901
I42
VSimpleName: getC
p902
tp903
a(Vinsert
p904
I42
VSimpleName: addDeny
p905
tp906
a(Vinsert
p907
I42
VSimpleName: toLocale
p908
tp909
a(Vinsert
p910
I42
VSimpleName: setSerializeFilters
p911
tp912
a(Vinsert
p913
I42
VSimpleName: setTypeKey
p914
tp915
a(Vinsert
p916
I42
VSimpleName: encodeToBytes
p917
tp918
a(Vinsert
p919
I42
VSimpleName: cast
p920
tp921
a(Vinsert
p922
I42
VSimpleName: nextToken
p923
tp924
a(Vinsert
p925
I42
VSimpleName: scanDouble
p926
tp927
a(Vinsert
p928
I42
VSimpleName: arrayOffset
p929
tp930
a(Vinsert
p931
I42
VSimpleName: numberOfLeadingZeros
p932
tp933
a(Vinsert
p934
I42
VSimpleName: startObject
p935
tp936
a(Vinsert
p937
I42
VSimpleName: fromObject
p938
tp939
a(Vinsert
p940
I42
VSimpleName: getFieldDeserializer
p941
tp942
a(Vinsert
p943
I42
VSimpleName: getGlobalInstance
p944
tp945
a(Vinsert
p946
I42
VSimpleName: position
p947
tp948
a(Vinsert
p949
I42
VSimpleName: createTempFile
p950
tp951
a(Vinsert
p952
I42
VSimpleName: mappingTo
p953
tp954
a(Vinsert
p955
I42
VSimpleName: setTigerName
p956
tp957
a(Vinsert
p958
I42
VSimpleName: parseObject
p959
tp960
a(Vinsert
p961
I42
VSimpleName: assertSame
p962
tp963
a(Vinsert
p964
I42
VSimpleName: toCharArray
p965
tp966
a(Vinsert
p967
I42
VSimpleName: getAfterFilters
p968
tp969
a(Vinsert
p970
I42
VSimpleName: incrementAndGet
p971
tp972
a(Vinsert
p973
I42
VSimpleName: parseInt
p974
tp975
a(Vinsert
p976
I42
VSimpleName: getHeaders
p977
tp978
a(Vinsert
p979
I42
VSimpleName: writeShortArray
p980
tp981
a(Vinsert
p982
I42
VSimpleName: getGenericComponentType
p983
tp984
a(Vinsert
p985
I42
VSimpleName: getPropertyValue
p986
tp987
a(Vinsert
p988
I42
VSimpleName: getBounds
p989
tp990
a(Vinsert
p991
I42
VSimpleName: castToString
p992
tp993
a(Vinsert
p994
I42
VSimpleName: getFilters
p995
tp996
a(Vinsert
p997
I42
VSimpleName: getF1
p998
tp999
a(Vinsert
p1000
I42
VSimpleName: ordinal
p1001
tp1002
a(Vinsert
p1003
I42
VSimpleName: applyLabel
p1004
tp1005
a(Vinsert
p1006
I42
VSimpleName: getMembers
p1007
tp1008
a(Vinsert
p1009
I42
VSimpleName: create
p1010
tp1011
a(Vinsert
p1012
I42
VSimpleName: getIncludes
p1013
tp1014
a(Vinsert
p1015
I42
VSimpleName: processExtra
p1016
tp1017
a(Vinsert
p1018
I42
VSimpleName: setMedia
p1019
tp1020
a(Vinsert
p1021
I42
VSimpleName: parserAllFieldToCache
p1022
tp1023
a(Vinsert
p1024
I42
VSimpleName: asList
p1025
tp1026
a(Vinsert
p1027
I42
VSimpleName: parseInvocationArguments
p1028
tp1029
a(Vinsert
p1030
I42
VSimpleName: getDeclaredField
p1031
tp1032
a(Vinsert
p1033
I42
VSimpleName: setF1
p1034
tp1035
a(Vinsert
p1036
I42
VSimpleName: visitMethodInsn
p1037
tp1038
a(Vinsert
p1039
I42
VSimpleName: fnv1a_64
p1040
tp1041
a(Vinsert
p1042
I42
VSimpleName: checkName
p1043
tp1044
a(Vinsert
p1045
I42
VSimpleName: addSerializeFilter
p1046
tp1047
a(Vinsert
p1048
I42
VSimpleName: getFieldSerializer
p1049
tp1050
a(Vinsert
p1051
I42
VSimpleName: toPattern
p1052
tp1053
a(Vinsert
p1054
I42
VSimpleName: getDateFormat
p1055
tp1056
a(Vinsert
p1057
I42
VSimpleName: isAndroid
p1058
tp1059
a(Vinsert
p1060
I42
VSimpleName: members
p1061
tp1062
a(Vinsert
p1063
I42
VSimpleName: accept
p1064
tp1065
a(Vinsert
p1066
I42
VSimpleName: getSerialzeFeatures
p1067
tp1068
a(Vinsert
p1069
I42
VSimpleName: setFastJsonConfig
p1070
tp1071
a(Vinsert
p1072
I42
VSimpleName: getValue
p1073
tp1074
a(Vinsert
p1075
I42
VSimpleName: getOrderNumber
p1076
tp1077
a(Vinsert
p1078
I42
VSimpleName: assertFalse
p1079
tp1080
a(Vinsert
p1081
I42
VSimpleName: isLowSurrogate
p1082
tp1083
a(Vinsert
p1084
I42
VSimpleName: addSymbol
p1085
tp1086
a(Vinsert
p1087
I42
VSimpleName: setAutoTypeSupport
p1088
tp1089
a(Vinsert
p1090
I42
VSimpleName: of
p1091
tp1092
a(Vinsert
p1093
I42
VSimpleName: write
p1094
tp1095
a(Vinsert
p1096
I42
VSimpleName: setRec
p1097
tp1098
a(Vinsert
p1099
I42
VSimpleName: computeSetters
p1100
tp1101
a(Vinsert
p1102
I42
VSimpleName: setImageUrl
p1103
tp1104
a(Vinsert
p1105
I42
VSimpleName: evaluate
p1106
tp1107
a(Vinsert
p1108
I42
VSimpleName: register
p1109
tp1110
a(Vinsert
p1111
I42
VSimpleName: findMethod
p1112
tp1113
a(Vinsert
p1114
I42
VSimpleName: tokenName
p1115
tp1116
a(Vinsert
p1117
I42
VSimpleName: empty
p1118
tp1119
a(Vinsert
p1120
I42
VSimpleName: processKey
p1121
tp1122
a(Vinsert
p1123
I42
VSimpleName: newProxyInstance
p1124
tp1125
a(Vinsert
p1126
I42
VSimpleName: serialzeFeatures
p1127
tp1128
a(Vinsert
p1129
I42
VSimpleName: scanIdent
p1130
tp1131
a(Vinsert
p1132
I42
VSimpleName: castToInt
p1133
tp1134
a(Vinsert
p1135
I42
VSimpleName: doPrivileged
p1136
tp1137
a(Vinsert
p1138
I42
VSimpleName: fromJson
p1139
tp1140
a(Vinsert
p1141
I42
VSimpleName: floatValue
p1142
tp1143
a(Vinsert
p1144
I42
VSimpleName: isFinal
p1145
tp1146
a(Vinsert
p1147
I42
VSimpleName: getCurrencyCode
p1148
tp1149
a(Vinsert
p1150
I42
VSimpleName: visitTypeInsn
p1151
tp1152
a(Vinsert
p1153
I42
VSimpleName: isBlankInput
p1154
tp1155
a(Vinsert
p1156
I42
VSimpleName: request
p1157
tp1158
a(Vinsert
p1159
I42
VSimpleName: getState
p1160
tp1161
a(Vinsert
p1162
I42
VSimpleName: toJSONBytes
p1163
tp1164
a(Vinsert
p1165
I42
VSimpleName: scanDecimal
p1166
tp1167
a(Vinsert
p1168
I42
VSimpleName: getBody
p1169
tp1170
a(Vinsert
p1171
I42
VSimpleName: getWriter
p1172
tp1173
a(Vinsert
p1174
I42
VSimpleName: getAfterFiltersDirect
p1175
tp1176
a(Vinsert
p1177
I42
VSimpleName: toPlainString
p1178
tp1179
a(Vinsert
p1180
I42
VSimpleName: getCause
p1181
tp1182
a(Vinsert
p1183
I42
VSimpleName: getType
p1184
tp1185
a(Vinsert
p1186
I42
VSimpleName: setOwnerContext
p1187
tp1188
a(Vinsert
p1189
I42
VSimpleName: serialize
p1190
tp1191
a(Vinsert
p1192
I42
VSimpleName: load
p1193
tp1194
a(Vinsert
p1195
I42
VSimpleName: getMessage
p1196
tp1197
a(Vinsert
p1198
I42
VSimpleName: addAll
p1199
tp1200
a(Vinsert
p1201
I42
VSimpleName: putAll
p1202
tp1203
a(Vinsert
p1204
I42
VSimpleName: setRetMsgCode
p1205
tp1206
a(Vinsert
p1207
I42
VSimpleName: getAnnation
p1208
tp1209
a(Vinsert
p1210
I42
VSimpleName: now
p1211
tp1212
a(Vinsert
p1213
I42
VSimpleName: getDisplayCountry
p1214
tp1215
a(Vinsert
p1216
I42
VSimpleName: isPublic
p1217
tp1218
a(Vinsert
p1219
I42
VSimpleName: isWriteContentLength
p1220
tp1221
a(Vinsert
p1222
I42
VSimpleName: abs
p1223
tp1224
a(Vinsert
p1225
I42
VSimpleName: getHour
p1226
tp1227
a(Vinsert
p1228
I42
VSimpleName: isTransient
p1229
tp1230
a(Vinsert
p1231
I42
VSimpleName: build
p1232
tp1233
a(Vinsert
p1234
I42
VSimpleName: substring
p1235
tp1236
a(Vinsert
p1237
I42
VSimpleName: apply
p1238
tp1239
a(Vinsert
p1240
I42
VSimpleName: forName
p1241
tp1242
a(Vinsert
p1243
I42
VSimpleName: getDesc
p1244
tp1245
a(Vinsert
p1246
I42
VSimpleName: writeNoneASM
p1247
tp1248
a(Vinsert
p1249
I42
VSimpleName: setDateFormat
p1250
tp1251
a(Vinsert
p1252
I42
VSimpleName: setContext
p1253
tp1254
a(Vinsert
p1255
I42
VSimpleName: getStackTrace
p1256
tp1257
a(Vinsert
p1258
I42
VSimpleName: getTag
p1259
tp1260
a(Vinsert
p1261
I42
VSimpleName: nextInt
p1262
tp1263
a(Vinsert
p1264
I42
VSimpleName: newUTF8
p1265
tp1266
a(Vinsert
p1267
I42
VSimpleName: readValue
p1268
tp1269
a(Vinsert
p1270
I42
VSimpleName: popContext
p1271
tp1272
a(Vinsert
p1273
I42
VSimpleName: getSerializeFeatures
p1274
tp1275
a(Vinsert
p1276
I42
VSimpleName: visitVarInsn
p1277
tp1278
a(Vinsert
p1279
I42
VSimpleName: doTestWrite
p1280
tp1281
a(Vinsert
p1282
I42
VSimpleName: getParameters
p1283
tp1284
a(Vinsert
p1285
I42
VSimpleName: get
p1286
tp1287
a(Vinsert
p1288
I42
VSimpleName: getSqlDate
p1289
tp1290
a(Vinsert
p1291
I42
VSimpleName: castToBytes
p1292
tp1293
a(Vinsert
p1294
I42
VSimpleName: values
p1295
tp1296
a(Vinsert
p1297
I42
VSimpleName: createJavaBeanSerializer
p1298
tp1299
a(Vinsert
p1300
I42
VSimpleName: visitJumpInsn
p1301
tp1302
a(Vinsert
p1303
I42
VSimpleName: scanInt
p1304
tp1305
a(Vinsert
p1306
I42
VSimpleName: setLocale
p1307
tp1308
a(Vinsert
p1309
I42
VSimpleName: writeFieldValueStringWithDoubleQuote
p1310
tp1311
a(Vinsert
p1312
I42
VSimpleName: getObj
p1313
tp1314
a(Vinsert
p1315
I42
VSimpleName: getPropertyPreFilters
p1316
tp1317
a(Vinsert
p1318
I42
VSimpleName: getFileName
p1319
tp1320
a(Vinsert
p1321
I42
VSimpleName: nextLong
p1322
tp1323
a(Vinsert
p1324
I42
VSimpleName: getRedudantProcessorsDirect
p1325
tp1326
a(Vinsert
p1327
I42
VSimpleName: getComponentType
p1328
tp1329
a(Vinsert
p1330
I42
VSimpleName: readObject
p1331
tp1332
a(Vinsert
p1333
I42
VSimpleName: setSalary
p1334
tp1335
a(Vinsert
p1336
I42
VSimpleName: handleResovleTask
p1337
tp1338
a(Vinsert
p1339
I42
VSimpleName: getString
p1340
tp1341
a(Vinsert
p1342
I42
VSimpleName: serializeUsing
p1343
tp1344
a(Vinsert
p1345
I42
VSimpleName: containsReference
p1346
tp1347
a(Vinsert
p1348
I42
VSimpleName: endsWith
p1349
tp1350
a(Vinsert
p1351
I42
VSimpleName: getCustomerNumber
p1352
tp1353
a(Vinsert
p1354
I42
VSimpleName: getConstructor
p1355
tp1356
a(Vinsert
p1357
I42
VSimpleName: getStringProperty
p1358
tp1359
a(Vinsert
p1360
I42
VSimpleName: fluentPutAll
p1361
tp1362
a(Vinsert
p1363
I42
VSimpleName: getFormat
p1364
tp1365
a(Vinsert
p1366
I42
VSimpleName: toLowerCase
p1367
tp1368
a(Vinsert
p1369
I42
VSimpleName: scanBoolean
p1370
tp1371
a(Vinsert
p1372
I42
VSimpleName: scanSymbol
p1373
tp1374
a(Vinsert
p1375
I42
VSimpleName: getFieldDeserializerMap
p1376
tp1377
a(Vinsert
p1378
I42
VSimpleName: name
p1379
tp1380
a(Vinsert
p1381
I42
VSimpleName: printf
p1382
tp1383
a(Vinsert
p1384
I42
VSimpleName: getChars
p1385
tp1386
a(Vinsert
p1387
I42
VSimpleName: assertNotNull
p1388
tp1389
a(Vinsert
p1390
I42
VSimpleName: valueOf
p1391
tp1392
a(Vinsert
p1393
I42
VSimpleName: newcount
p1394
tp1395
a(Vinsert
p1396
I42
VSimpleName: var
p1397
tp1398
a(Vinsert
p1399
I42
VSimpleName: getGenericReturnType
p1400
tp1401
a(Vinsert
p1402
I42
VSimpleName: getDeclaringClass
p1403
tp1404
a(Vinsert
p1405
I42
VSimpleName: removeAll
p1406
tp1407
a(Vinsert
p1408
I42
VSimpleName: getName
p1409
tp1410
a(Vinsert
p1411
I42
VSimpleName: getCollectionItemType
p1412
tp1413
a(Vinsert
p1414
I42
VSimpleName: readInteger
p1415
tp1416
a(Vinsert
p1417
I42
VSimpleName: visitInsn
p1418
tp1419
a(Vinsert
p1420
I42
VSimpleName: getConfiguration
p1421
tp1422
a(Vinsert
p1423
I42
VSimpleName: getF3
p1424
tp1425
a(Vinsert
p1426
I42
VSimpleName: toJavaList
p1427
tp1428
a(Vinsert
p1429
I42
VSimpleName: endObject
p1430
tp1431
a(Vinsert
p1432
I42
VSimpleName: setPropertyValue
p1433
tp1434
a(Vinsert
p1435
I42
VSimpleName: newFieldItem
p1436
tp1437
a(Vinsert
p1438
I42
VSimpleName: setCharset
p1439
tp1440
a(Vinsert
p1441
I42
VSimpleName: putIfAbsent
p1442
tp1443
a(Vinsert
p1444
I42
VSimpleName: onUnmappableCharacter
p1445
tp1446
a(Vinsert
p1447
I42
VSimpleName: getResponse
p1448
tp1449
a(Vinsert
p1450
I42
VSimpleName: flush
p1451
tp1452
a(Vinsert
p1453
I42
VSimpleName: setUri
p1454
tp1455
a(Vinsert
p1456
I42
VSimpleName: getMask
p1457
tp1458
a(Vinsert
p1459
I42
VSimpleName: writeIntArray
p1460
tp1461
a(Vinsert
p1462
I42
VSimpleName: getTables
p1463
tp1464
a(Vinsert
p1465
I42
VSimpleName: scale
p1466
tp1467
a(Vinsert
p1468
I42
VSimpleName: getDefault
p1469
tp1470
a(Vinsert
p1471
I42
VSimpleName: getSupperMethodAnnotation
p1472
tp1473
a(Vinsert
p1474
I42
VSimpleName: newXMLGregorianCalendar
p1475
tp1476
a(Vinsert
p1477
I42
VSimpleName: endArray
p1478
tp1479
a(Vinsert
p1480
I42
VSimpleName: scanFieldSymbol
p1481
tp1482
a(Vinsert
p1483
I42
VSimpleName: equals
p1484
tp1485
a(Vinsert
p1486
I42
VSimpleName: getMonthValue
p1487
tp1488
a(Vinsert
p1489
I42
VSimpleName: scanStringArray
p1490
tp1491
a(Vinsert
p1492
I42
VSimpleName: toJSON
p1493
tp1494
a(Vinsert
p1495
I42
VSimpleName: put
p1496
tp1497
a(Vinsert
p1498
I42
VSimpleName: getValues
p1499
tp1500
a(Vinsert
p1501
I42
VSimpleName: readLine
p1502
tp1503
a(Vinsert
p1504
I42
VSimpleName: label
p1505
tp1506
a(Vinsert
p1507
I42
VSimpleName: checkPrimitiveArray
p1508
tp1509
a(Vinsert
p1510
I42
VSimpleName: getNameFilters
p1511
tp1512
a(Vinsert
p1513
I42
VSimpleName: emptyMap
p1514
tp1515
a(Vinsert
p1516
I42
VSimpleName: getDate
p1517
tp1518
a(Vinsert
p1519
I42
VSimpleName: writeValue
p1520
tp1521
a(Vinsert
p1522
I42
VSimpleName: isAnnotation
p1523
tp1524
a(Vinsert
p1525
I42
VSimpleName: setDuration
p1526
tp1527
a(Vinsert
p1528
I42
VSimpleName: getDeclaredMethod
p1529
tp1530
a(Vinsert
p1531
I42
VSimpleName: getEncoder
p1532
tp1533
a(Vinsert
p1534
I42
VSimpleName: getMaxAge
p1535
tp1536
a(Vinsert
p1537
I42
VSimpleName: getLastResolveTask
p1538
tp1539
a(Vinsert
p1540
I42
VSimpleName: configure
p1541
tp1542
a(Vinsert
p1543
I42
VSimpleName: printStackTrace
p1544
tp1545
a(Vinsert
p1546
I42
VSimpleName: writeKeyValue
p1547
tp1548
a(Vinsert
p1549
I42
VSimpleName: castToEnum
p1550
tp1551
a(Vinsert
p1552
I42
VSimpleName: booleanValue
p1553
tp1554
a(Vinsert
p1555
I42
VSimpleName: toJSONStringZ
p1556
tp1557
a(Vinsert
p1558
I42
VSimpleName: parseField
p1559
tp1560
a(Vinsert
p1561
I42
VSimpleName: isHibernateInitialized
p1562
tp1563
a(Vinsert
p1564
I42
VSimpleName: getDeclaredFields
p1565
tp1566
a(Vinsert
p1567
I42
VSimpleName: longValue
p1568
tp1569
a(Vinsert
p1570
I42
VSimpleName: array_put
p1571
tp1572
a(Vinsert
p1573
I42
VSimpleName: writeValueAsString
p1574
tp1575
a(Vinsert
p1576
I42
VSimpleName: getGmtCreate
p1577
tp1578
a(Vinsert
p1579
I42
VSimpleName: getFieldTypeResolver
p1580
tp1581
a(Vinsert
p1582
I42
VSimpleName: size
p1583
tp1584
a(Vinsert
p1585
I42
VSimpleName: putByte
p1586
tp1587
a(Vinsert
p1588
I42
VSimpleName: resetStringPosition
p1589
tp1590
a(Vinsert
p1591
I42
VSimpleName: getNano
p1592
tp1593
a(Vinsert
p1594
I42
VSimpleName: setValue
p1595
tp1596
a(Vinsert
p1597
I42
VSimpleName: getInnerMap
p1598
tp1599
a(Vinsert
p1600
I42
VSimpleName: getGenericDeclaration
p1601
tp1602
a(Vinsert
p1603
I42
VSimpleName: isEnum
p1604
tp1605
a(Vinsert
p1606
I42
VSimpleName: parseMap
p1607
tp1608
a(Vinsert
p1609
I42
VSimpleName: arrayAdd
p1610
tp1611
a(Vinsert
p1612
I42
VSimpleName: isSameType
p1613
tp1614
a(Vinsert
p1615
I42
VSimpleName: getModifiers
p1616
tp1617
a(Vinsert
p1618
I42
VSimpleName: isRegistered
p1619
tp1620
a(Vinsert
p1621
I42
VSimpleName: readFrom
p1622
tp1623
a.