(lp0
(Vinsert
p1
I42
VSimpleName: cannotInitializeForInjectMocksAnnotation
p2
tp3
a(Vinsert
p4
I42
VSimpleName: countNumberOfRelatedArticles
p5
tp6
a(Vinsert
p7
I42
VSimpleName: atLeastMode
p8
tp9
a(Vinsert
p10
I42
VSimpleName: returnSet
p11
tp12
a(Vinsert
p13
I42
VSimpleName: write
p14
tp15
a(Vinsert
p16
I42
VSimpleName: findFirstMatchingUnverifiedInvocation
p17
tp18
a(Vinsert
p19
I42
VSimpleName: finalizedBy
p20
tp21
a(Vinsert
p22
I42
VSimpleName: missingMethodMode
p23
tp24
a(Vinsert
p25
I42
VSimpleName: dependsOn
p26
tp27
a(Vinsert
p28
I42
VSimpleName: getAllCommits
p29
tp30
a(Vinsert
p31
I42
VSimpleName: reportMatcher
p32
tp33
a(Vinsert
p34
I42
VSimpleName: describeTo
p35
tp36
a(Vinsert
p37
I42
VSimpleName: thenTry
p38
tp39
a(Vinsert
p40
I42
VSimpleName: checkcast
p41
tp42
a(Vinsert
p43
I42
VSimpleName: getControl
p44
tp45
a(Vinsert
p46
I42
VSimpleName: mockingStarted
p47
tp48
a(Vinsert
p49
I42
VSimpleName: paramTypeWithTypeParams
p50
tp51
a(Vinsert
p52
I42
VSimpleName: withModifiers
p53
tp54
a(Vinsert
p55
I42
VSimpleName: annotateType
p56
tp57
a(Vinsert
p58
I42
VSimpleName: simpleName
p59
tp60
a(Vinsert
p61
I42
VSimpleName: filterStackTrace
p62
tp63
a(Vinsert
p64
I42
VSimpleName: isStatic
p65
tp66
a(Vinsert
p67
I42
VSimpleName: reset
p68
tp69
a(Vinsert
p70
I42
VSimpleName: methodName
p71
tp72
a(Vinsert
p73
I42
VSimpleName: emptyOptionalLong
p74
tp75
a(Vinsert
p76
I42
VSimpleName: withSettings
p77
tp78
a(Vinsert
p79
I42
VSimpleName: containsIgnoringCase
p80
tp81
a(Vinsert
p82
I42
VSimpleName: toStringWithSequenceNumber
p83
tp84
a(Vinsert
p85
I42
VSimpleName: getReturnValues
p86
tp87
a(Vinsert
p88
I42
VSimpleName: getCount
p89
tp90
a(Vinsert
p91
I42
VSimpleName: tooManyActualInvocations
p92
tp93
a(Vinsert
p94
I42
VSimpleName: visitParameterType
p95
tp96
a(Vinsert
p97
I42
VSimpleName: getLoggedInfo
p98
tp99
a(Vinsert
p100
I42
VSimpleName: typeVarWithTypeParams
p101
tp102
a(Vinsert
p103
I42
VSimpleName: allFieldsInHierarchy
p104
tp105
a(Vinsert
p106
I42
VSimpleName: onlyIf
p107
tp108
a(Vinsert
p109
I42
VSimpleName: visit
p110
tp111
a(Vinsert
p112
I42
VSimpleName: getInterfaces
p113
tp114
a(Vinsert
p115
I42
VSimpleName: giveMeSomeString
p116
tp117
a(Vinsert
p118
I42
VSimpleName: usedStubbing
p119
tp120
a(Vinsert
p121
I42
VSimpleName: sleep
p122
tp123
a(Vinsert
p124
I42
VSimpleName: enableAccess
p125
tp126
a(Vinsert
p127
I42
VSimpleName: valueFor
p128
tp129
a(Vinsert
p130
I42
VSimpleName: assertLazily
p131
tp132
a(Vinsert
p133
I42
VSimpleName: isEmpty
p134
tp135
a(Vinsert
p136
I42
VSimpleName: lastElement
p137
tp138
a(Vinsert
p139
I42
VSimpleName: varargs
p140
tp141
a(Vinsert
p142
I42
VSimpleName: instanceFields
p143
tp144
a(Vinsert
p145
I42
VSimpleName: getCause
p146
tp147
a(Vinsert
p148
I42
VSimpleName: getWarnings
p149
tp150
a(Vinsert
p151
I42
VSimpleName: removeLast
p152
tp153
a(Vinsert
p154
I42
VSimpleName: resultFor
p155
tp156
a(Vinsert
p157
I42
VSimpleName: explicitMode
p158
tp159
a(Vinsert
p160
I42
VSimpleName: assumeTrue
p161
tp162
a(Vinsert
p163
I42
VSimpleName: isSurrogate
p164
tp165
a(Vinsert
p166
I42
VSimpleName: instance
p167
tp168
a(Vinsert
p169
I42
VSimpleName: notifyVerificationStarted
p170
tp171
a(Vinsert
p172
I42
VSimpleName: noMoreInteractions
p173
tp174
a(Vinsert
p175
I42
VSimpleName: next
p176
tp177
a(Vinsert
p178
I42
VSimpleName: getTypeToMock
p179
tp180
a(Vinsert
p181
I42
VSimpleName: fieldWasInitialized
p182
tp183
a(Vinsert
p184
I42
VSimpleName: getTypedDescription
p185
tp186
a(Vinsert
p187
I42
VSimpleName: println
p188
tp189
a(Vinsert
p190
I42
VSimpleName: pullOngoingStubbing
p191
tp192
a(Vinsert
p193
I42
VSimpleName: findActualInvocation
p194
tp195
a(Vinsert
p196
I42
VSimpleName: ofThisVm
p197
tp198
a(Vinsert
p199
I42
VSimpleName: represents
p200
tp201
a(Vinsert
p202
I42
VSimpleName: isArray
p203
tp204
a(Vinsert
p205
I42
VSimpleName: entrySet
p206
tp207
a(Vinsert
p208
I42
VSimpleName: getInvocationContainer
p209
tp210
a(Vinsert
p211
I42
VSimpleName: isNull
p212
tp213
a(Vinsert
p214
I42
VSimpleName: booleanObjectReturningMethod
p215
tp216
a(Vinsert
p217
I42
VSimpleName: unmodifiableSet
p218
tp219
a(Vinsert
p220
I42
VSimpleName: addConsecutiveAnswer
p221
tp222
a(Vinsert
p223
I42
VSimpleName: approximateSize
p224
tp225
a(Vinsert
p226
I42
VSimpleName: setTarget
p227
tp228
a(Vinsert
p229
I42
VSimpleName: nameForMock
p230
tp231
a(Vinsert
p232
I42
VSimpleName: cleansStackTrace
p233
tp234
a(Vinsert
p235
I42
VSimpleName: isAssignableFromWrapper
p236
tp237
a(Vinsert
p238
I42
VSimpleName: rule
p239
tp240
a(Vinsert
p241
I42
VSimpleName: classNameForMock
p242
tp243
a(Vinsert
p244
I42
VSimpleName: getArgumentMatcherStorage
p245
tp246
a(Vinsert
p247
I42
VSimpleName: extraInterfacesCannotContainMockedType
p248
tp249
a(Vinsert
p250
I42
VSimpleName: getResultFor
p251
tp252
a(Vinsert
p253
I42
VSimpleName: neverWantedButInvoked
p254
tp255
a(Vinsert
p256
I42
VSimpleName: getWantedCount
p257
tp258
a(Vinsert
p259
I42
VSimpleName: getConfig
p260
tp261
a(Vinsert
p262
I42
VSimpleName: methodDoesNotAcceptParameter
p263
tp264
a(Vinsert
p265
I42
VSimpleName: isMemberClass
p266
tp267
a(Vinsert
p268
I42
VSimpleName: matches
p269
tp270
a(Vinsert
p271
I42
VSimpleName: addVoidMethodForThrowable
p272
tp273
a(Vinsert
p274
I42
VSimpleName: toText
p275
tp276
a(Vinsert
p277
I42
VSimpleName: subList
p278
tp279
a(Vinsert
p280
I42
VSimpleName: put12
p281
tp282
a(Vinsert
p283
I42
VSimpleName: setInvocationForPotentialStubbing
p284
tp285
a(Vinsert
p286
I42
VSimpleName: isEqualsMethod
p287
tp288
a(Vinsert
p289
I42
VSimpleName: describe
p290
tp291
a(Vinsert
p292
I42
VSimpleName: appendWarnings
p293
tp294
a(Vinsert
p295
I42
VSimpleName: invoke
p296
tp297
a(Vinsert
p298
I42
VSimpleName: getProcessRunner
p299
tp300
a(Vinsert
p301
I42
VSimpleName: countDown
p302
tp303
a(Vinsert
p304
I42
VSimpleName: incorrectUseOfApi
p305
tp306
a(Vinsert
p307
I42
VSimpleName: defineField
p308
tp309
a(Vinsert
p310
I42
VSimpleName: expectMessage
p311
tp312
a(Vinsert
p313
I42
VSimpleName: isSynthetic
p314
tp315
a(Vinsert
p316
I42
VSimpleName: pullVerificationMode
p317
tp318
a(Vinsert
p319
I42
VSimpleName: reflectionEquals
p320
tp321
a(Vinsert
p322
I42
VSimpleName: forDouble
p323
tp324
a(Vinsert
p325
I42
VSimpleName: visitFieldInsn
p326
tp327
a(Vinsert
p328
I42
VSimpleName: pop
p329
tp330
a(Vinsert
p331
I42
VSimpleName: appliesTo
p332
tp333
a(Vinsert
p334
I42
VSimpleName: testFailure
p335
tp336
a(Vinsert
p337
I42
VSimpleName: callback
p338
tp339
a(Vinsert
p340
I42
VSimpleName: print
p341
tp342
a(Vinsert
p343
I42
VSimpleName: boo
p344
tp345
a(Vinsert
p346
I42
VSimpleName: forEachMatcherAndArgument
p347
tp348
a(Vinsert
p349
I42
VSimpleName: getExtraInterfaces
p350
tp351
a(Vinsert
p352
I42
VSimpleName: returnMyObject
p353
tp354
a(Vinsert
p355
I42
VSimpleName: previousFromNotesContent
p356
tp357
a(Vinsert
p358
I42
VSimpleName: isStripAnnotations
p359
tp360
a(Vinsert
p361
I42
VSimpleName: stubbingStarted
p362
tp363
a(Vinsert
p364
I42
VSimpleName: getAllValues
p365
tp366
a(Vinsert
p367
I42
VSimpleName: typeMatches
p368
tp369
a(Vinsert
p370
I42
VSimpleName: getInvocationListener
p371
tp372
a(Vinsert
p373
I42
VSimpleName: isTrue
p374
tp375
a(Vinsert
p376
I42
VSimpleName: assertThat
p377
tp378
a(Vinsert
p379
I42
VSimpleName: setMock
p380
tp381
a(Vinsert
p382
I42
VSimpleName: returnString
p383
tp384
a(Vinsert
p385
I42
VSimpleName: returnValueFor
p386
tp387
a(Vinsert
p388
I42
VSimpleName: set
p389
tp390
a(Vinsert
p391
I42
VSimpleName: isExplicit
p392
tp393
a(Vinsert
p394
I42
VSimpleName: clearMockitoListeners
p395
tp396
a(Vinsert
p397
I42
VSimpleName: setMockitoNamingPolicy
p398
tp399
a(Vinsert
p400
I42
VSimpleName: startsWith
p401
tp402
a(Vinsert
p403
I42
VSimpleName: getDelegatedInstance
p404
tp405
a(Vinsert
p406
I42
VSimpleName: returnFor
p407
tp408
a(Vinsert
p409
I42
VSimpleName: remove
p410
tp411
a(Vinsert
p412
I42
VSimpleName: in
p413
tp414
a(Vinsert
p415
I42
VSimpleName: verifyingStarted
p416
tp417
a(Vinsert
p418
I42
VSimpleName: getTasks
p419
tp420
a(Vinsert
p421
I42
VSimpleName: description
p422
tp423
a(Vinsert
p424
I42
VSimpleName: removeAll
p425
tp426
a(Vinsert
p427
I42
VSimpleName: hasProperty
p428
tp429
a(Vinsert
p430
I42
VSimpleName: args
p431
tp432
a(Vinsert
p433
I42
VSimpleName: assertWantedIsVerifiable
p434
tp435
a(Vinsert
p436
I42
VSimpleName: loadPlugin
p437
tp438
a(Vinsert
p439
I42
VSimpleName: toReturn
p440
tp441
a(Vinsert
p442
I42
VSimpleName: returnZero
p443
tp444
a(Vinsert
p445
I42
VSimpleName: toIntWrapper
p446
tp447
a(Vinsert
p448
I42
VSimpleName: returnInt
p449
tp450
a(Vinsert
p451
I42
VSimpleName: doPrivileged
p452
tp453
a(Vinsert
p454
I42
VSimpleName: getActual
p455
tp456
a(Vinsert
p457
I42
VSimpleName: plugin
p458
tp459
a(Vinsert
p460
I42
VSimpleName: argThat
p461
tp462
a(Vinsert
p463
I42
VSimpleName: indexOf
p464
tp465
a(Vinsert
p466
I42
VSimpleName: visitMultiANewArrayInsn
p467
tp468
a(Vinsert
p469
I42
VSimpleName: getWriteMethod
p470
tp471
a(Vinsert
p472
I42
VSimpleName: getPropertyMethods
p473
tp474
a(Vinsert
p475
I42
VSimpleName: returningNonMockableNestedGeneric
p476
tp477
a(Vinsert
p478
I42
VSimpleName: noMoreInteractionsWanted
p479
tp480
a(Vinsert
p481
I42
VSimpleName: implement
p482
tp483
a(Vinsert
p484
I42
VSimpleName: getEnclosingClass
p485
tp486
a(Vinsert
p487
I42
VSimpleName: forClass
p488
tp489
a(Vinsert
p490
I42
VSimpleName: getSuspiciouslyNotMatchingArgsIndexes
p491
tp492
a(Vinsert
p493
I42
VSimpleName: indexOfNextPair
p494
tp495
a(Vinsert
p496
I42
VSimpleName: setPair
p497
tp498
a(Vinsert
p499
I42
VSimpleName: isVoid
p500
tp501
a(Vinsert
p502
I42
VSimpleName: newStubbing
p503
tp504
a(Vinsert
p505
I42
VSimpleName: setClassLoader
p506
tp507
a(Vinsert
p508
I42
VSimpleName: simpleMethod
p509
tp510
a(Vinsert
p511
I42
VSimpleName: getMethodProxy
p512
tp513
a(Vinsert
p514
I42
VSimpleName: tryPropertyOrFieldInjection
p515
tp516
a(Vinsert
p517
I42
VSimpleName: stubInfo
p518
tp519
a(Vinsert
p520
I42
VSimpleName: value
p521
tp522
a(Vinsert
p523
I42
VSimpleName: validateFor
p524
tp525
a(Vinsert
p526
I42
VSimpleName: willCallRealMethod
p527
tp528
a(Vinsert
p529
I42
VSimpleName: getUnusedStubbingsByLocation
p530
tp531
a(Vinsert
p532
I42
VSimpleName: getExceptionTypes
p533
tp534
a(Vinsert
p535
I42
VSimpleName: isEqualTo
p536
tp537
a(Vinsert
p538
I42
VSimpleName: or
p539
tp540
a(Vinsert
p541
I42
VSimpleName: getObject
p542
tp543
a(Vinsert
p544
I42
VSimpleName: setInterfaces
p545
tp546
a(Vinsert
p547
I42
VSimpleName: ignoreStubs
p548
tp549
a(Vinsert
p550
I42
VSimpleName: isAccessible
p551
tp552
a(Vinsert
p553
I42
VSimpleName: beginTask
p554
tp555
a(Vinsert
p556
I42
VSimpleName: hashCode
p557
tp558
a(Vinsert
p559
I42
VSimpleName: validateMockedType
p560
tp561
a(Vinsert
p562
I42
VSimpleName: mockingProgress
p563
tp564
a(Vinsert
p565
I42
VSimpleName: singleton
p566
tp567
a(Vinsert
p568
I42
VSimpleName: getDebuggingHelper
p569
tp570
a(Vinsert
p571
I42
VSimpleName: forMap
p572
tp573
a(Vinsert
p574
I42
VSimpleName: setConstructorsAccessible
p575
tp576
a(Vinsert
p577
I42
VSimpleName: findFirstUnverifiedInOrder
p578
tp579
a(Vinsert
p580
I42
VSimpleName: recordInvocation
p581
tp582
a(Vinsert
p583
I42
VSimpleName: serializableWontWorkForObjectsThatDontImplementSerializable
p584
tp585
a(Vinsert
p586
I42
VSimpleName: visitMaxs
p587
tp588
a(Vinsert
p589
I42
VSimpleName: hasTestMethods
p590
tp591
a(Vinsert
p592
I42
VSimpleName: lock
p593
tp594
a(Vinsert
p595
I42
VSimpleName: findStrictlyUnverifiedInvocations
p596
tp597
a(Vinsert
p598
I42
VSimpleName: replaceAll
p599
tp600
a(Vinsert
p601
I42
VSimpleName: verifyNoMoreInteractions
p602
tp603
a(Vinsert
p604
I42
VSimpleName: getOrderingContext
p605
tp606
a(Vinsert
p607
I42
VSimpleName: getClasses
p608
tp609
a(Vinsert
p610
I42
VSimpleName: rawType
p611
tp612
a(Vinsert
p613
I42
VSimpleName: nextBoolean
p614
tp615
a(Vinsert
p616
I42
VSimpleName: isVerified
p617
tp618
a(Vinsert
p619
I42
VSimpleName: iterator
p620
tp621
a(Vinsert
p622
I42
VSimpleName: toUpperCase
p623
tp624
a(Vinsert
p625
I42
VSimpleName: getInstance
p626
tp627
a(Vinsert
p628
I42
VSimpleName: isJava8BelowUpdate45
p629
tp630
a(Vinsert
p631
I42
VSimpleName: toMultilineString
p632
tp633
a(Vinsert
p634
I42
VSimpleName: extraInterfacesRequiresAtLeastOneInterface
p635
tp636
a(Vinsert
p637
I42
VSimpleName: getClassName
p638
tp639
a(Vinsert
p640
I42
VSimpleName: overrideReturnValues
p641
tp642
a(Vinsert
p643
I42
VSimpleName: thenReturn
p644
tp645
a(Vinsert
p646
I42
VSimpleName: isPrimitive
p647
tp648
a(Vinsert
p649
I42
VSimpleName: compareTo
p650
tp651
a(Vinsert
p652
I42
VSimpleName: differentMethod
p653
tp654
a(Vinsert
p655
I42
VSimpleName: isNotEqualTo
p656
tp657
a(Vinsert
p658
I42
VSimpleName: processInjection
p659
tp660
a(Vinsert
p661
I42
VSimpleName: expect
p662
tp663
a(Vinsert
p664
I42
VSimpleName: createMock
p665
tp666
a(Vinsert
p667
I42
VSimpleName: assertTrue
p668
tp669
a(Vinsert
p670
I42
VSimpleName: getVerboseVariant
p671
tp672
a(Vinsert
p673
I42
VSimpleName: loadClass
p674
tp675
a(Vinsert
p676
I42
VSimpleName: setType
p677
tp678
a(Vinsert
p679
I42
VSimpleName: intArgumentMethod
p680
tp681
a(Vinsert
p682
I42
VSimpleName: interfaceBounds
p683
tp684
a(Vinsert
p685
I42
VSimpleName: actualTypeArguments
p686
tp687
a(Vinsert
p688
I42
VSimpleName: getMockitoMock
p689
tp690
a(Vinsert
p691
I42
VSimpleName: blah
p692
tp693
a(Vinsert
p694
I42
VSimpleName: invoking
p695
tp696
a(Vinsert
p697
I42
VSimpleName: wantedButNotInvoked
p698
tp699
a(Vinsert
p700
I42
VSimpleName: setNamingPolicy
p701
tp702
a(Vinsert
p703
I42
VSimpleName: getUnfilteredStackTrace
p704
tp705
a(Vinsert
p706
I42
VSimpleName: throwsException
p707
tp708
a(Vinsert
p709
I42
VSimpleName: hasJUnit45OrHigher
p710
tp711
a(Vinsert
p712
I42
VSimpleName: compare
p713
tp714
a(Vinsert
p715
I42
VSimpleName: setAccessible
p716
tp717
a(Vinsert
p718
I42
VSimpleName: invocationListeners
p719
tp720
a(Vinsert
p721
I42
VSimpleName: returnNull
p722
tp723
a(Vinsert
p724
I42
VSimpleName: checkDesc
p725
tp726
a(Vinsert
p727
I42
VSimpleName: verificationStarted
p728
tp729
a(Vinsert
p730
I42
VSimpleName: unfinishedMocking
p731
tp732
a(Vinsert
p733
I42
VSimpleName: toTraceArray
p734
tp735
a(Vinsert
p736
I42
VSimpleName: getKey
p737
tp738
a(Vinsert
p739
I42
VSimpleName: typeMockabilityOf
p740
tp741
a(Vinsert
p742
I42
VSimpleName: createThrowingAnswer
p743
tp744
a(Vinsert
p745
I42
VSimpleName: setSerialVersionUID
p746
tp747
a(Vinsert
p748
I42
VSimpleName: getFirstUnverified
p749
tp750
a(Vinsert
p751
I42
VSimpleName: getClass
p752
tp753
a(Vinsert
p754
I42
VSimpleName: capture
p755
tp756
a(Vinsert
p757
I42
VSimpleName: getAllMocksToBeVerifiedInSequence
p758
tp759
a(Vinsert
p760
I42
VSimpleName: nullInvocationListenerAdded
p761
tp762
a(Vinsert
p763
I42
VSimpleName: getTargetException
p764
tp765
a(Vinsert
p766
I42
VSimpleName: writeText
p767
tp768
a(Vinsert
p769
I42
VSimpleName: getDefaultVerificationStrategy
p770
tp771
a(Vinsert
p772
I42
VSimpleName: serializable
p773
tp774
a(Vinsert
p775
I42
VSimpleName: none
p776
tp777
a(Vinsert
p778
I42
VSimpleName: currentThread
p779
tp780
a(Vinsert
p781
I42
VSimpleName: mockClass
p782
tp783
a(Vinsert
p784
I42
VSimpleName: isStubOnly
p785
tp786
a(Vinsert
p787
I42
VSimpleName: replaceFirst
p788
tp789
a(Vinsert
p790
I42
VSimpleName: imposterise
p791
tp792
a(Vinsert
p793
I42
VSimpleName: createSocket
p794
tp795
a(Vinsert
p796
I42
VSimpleName: attempts
p797
tp798
a(Vinsert
p799
I42
VSimpleName: getDelay
p800
tp801
a(Vinsert
p802
I42
VSimpleName: atLeast
p803
tp804
a(Vinsert
p805
I42
VSimpleName: andReturn
p806
tp807
a(Vinsert
p808
I42
VSimpleName: visitAnnotation
p809
tp810
a(Vinsert
p811
I42
VSimpleName: assertMocksNotEmpty
p812
tp813
a(Vinsert
p814
I42
VSimpleName: getGenericSuperclass
p815
tp816
a(Vinsert
p817
I42
VSimpleName: from
p818
tp819
a(Vinsert
p820
I42
VSimpleName: findInvocations
p821
tp822
a(Vinsert
p823
I42
VSimpleName: hasJUnit
p824
tp825
a(Vinsert
p826
I42
VSimpleName: returnMap
p827
tp828
a(Vinsert
p829
I42
VSimpleName: finalMethod
p830
tp831
a(Vinsert
p832
I42
VSimpleName: extraInterfaces
p833
tp834
a(Vinsert
p835
I42
VSimpleName: getMethods
p836
tp837
a(Vinsert
p838
I42
VSimpleName: mark
p839
tp840
a(Vinsert
p841
I42
VSimpleName: isAbstract
p842
tp843
a(Vinsert
p844
I42
VSimpleName: notAMockPassedToVerifyNoMoreInteractions
p845
tp846
a(Vinsert
p847
I42
VSimpleName: printsVerbosely
p848
tp849
a(Vinsert
p850
I42
VSimpleName: oneArray
p851
tp852
a(Vinsert
p853
I42
VSimpleName: validateMockitoUsage
p854
tp855
a(Vinsert
p856
I42
VSimpleName: initCause
p857
tp858
a(Vinsert
p859
I42
VSimpleName: getList
p860
tp861
a(Vinsert
p862
I42
VSimpleName: toIterable
p863
tp864
a(Vinsert
p865
I42
VSimpleName: matchesActualCount
p866
tp867
a(Vinsert
p868
I42
VSimpleName: threeArgumentMethod
p869
tp870
a(Vinsert
p871
I42
VSimpleName: invokeSuper
p872
tp873
a(Vinsert
p874
I42
VSimpleName: pullUnstubbedInvocations
p875
tp876
a(Vinsert
p877
I42
VSimpleName: bark
p878
tp879
a(Vinsert
p880
I42
VSimpleName: currentTimeMillis
p881
tp882
a(Vinsert
p883
I42
VSimpleName: numberOfInvocationsDiffers
p884
tp885
a(Vinsert
p886
I42
VSimpleName: isAnnotationPresent
p887
tp888
a(Vinsert
p889
I42
VSimpleName: invokingWithException
p890
tp891
a(Vinsert
p892
I42
VSimpleName: clear
p893
tp894
a(Vinsert
p895
I42
VSimpleName: cannotCreateTimerWithNegativeDurationTime
p896
tp897
a(Vinsert
p898
I42
VSimpleName: openStream
p899
tp900
a(Vinsert
p901
I42
VSimpleName: visitLdcInsn
p902
tp903
a(Vinsert
p904
I42
VSimpleName: store_local
p905
tp906
a(Vinsert
p907
I42
VSimpleName: validate
p908
tp909
a(Vinsert
p910
I42
VSimpleName: useDelimiter
p911
tp912
a(Vinsert
p913
I42
VSimpleName: validateIndexWithinInvocationRange
p914
tp915
a(Vinsert
p916
I42
VSimpleName: toArray
p917
tp918
a(Vinsert
p919
I42
VSimpleName: copyToRealObject
p920
tp921
a(Vinsert
p922
I42
VSimpleName: strictMode
p923
tp924
a(Vinsert
p925
I42
VSimpleName: isAnonymousClass
p926
tp927
a(Vinsert
p928
I42
VSimpleName: enableClassCache
p929
tp930
a(Vinsert
p931
I42
VSimpleName: setTimeZone
p932
tp933
a(Vinsert
p934
I42
VSimpleName: process
p935
tp936
a(Vinsert
p937
I42
VSimpleName: inSequence
p938
tp939
a(Vinsert
p940
I42
VSimpleName: getReturnType
p941
tp942
a(Vinsert
p943
I42
VSimpleName: removeVerifyingMode
p944
tp945
a(Vinsert
p946
I42
VSimpleName: getRunCount
p947
tp948
a(Vinsert
p949
I42
VSimpleName: stub
p950
tp951
a(Vinsert
p952
I42
VSimpleName: getStubbingArgMismatches
p953
tp954
a(Vinsert
p955
I42
VSimpleName: getParameterTypes
p956
tp957
a(Vinsert
p958
I42
VSimpleName: arrayReturningMethod
p959
tp960
a(Vinsert
p961
I42
VSimpleName: containsKey
p962
tp963
a(Vinsert
p964
I42
VSimpleName: isPrivate
p965
tp966
a(Vinsert
p967
I42
VSimpleName: isEnabled
p968
tp969
a(Vinsert
p970
I42
VSimpleName: bar
p971
tp972
a(Vinsert
p973
I42
VSimpleName: getMock
p974
tp975
a(Vinsert
p976
I42
VSimpleName: setInternalState
p977
tp978
a(Vinsert
p979
I42
VSimpleName: keySet
p980
tp981
a(Vinsert
p982
I42
VSimpleName: allAsyncCallsStarted
p983
tp984
a(Vinsert
p985
I42
VSimpleName: forCurrentJavaVersion
p986
tp987
a(Vinsert
p988
I42
VSimpleName: nullPassedToVerifyNoMoreInteractions
p989
tp990
a(Vinsert
p991
I42
VSimpleName: putShort
p992
tp993
a(Vinsert
p994
I42
VSimpleName: doCallRealMethod
p995
tp996
a(Vinsert
p997
I42
VSimpleName: isCompareToMethod
p998
tp999
a(Vinsert
p1000
I42
VSimpleName: reportOr
p1001
tp1002
a(Vinsert
p1003
I42
VSimpleName: invoke_static_this
p1004
tp1005
a(Vinsert
p1006
I42
VSimpleName: getProperty
p1007
tp1008
a(Vinsert
p1009
I42
VSimpleName: say
p1010
tp1011
a(Vinsert
p1012
I42
VSimpleName: append
p1013
tp1014
a(Vinsert
p1015
I42
VSimpleName: markVerified
p1016
tp1017
a(Vinsert
p1018
I42
VSimpleName: newRow
p1019
tp1020
a(Vinsert
p1021
I42
VSimpleName: getMockName
p1022
tp1023
a(Vinsert
p1024
I42
VSimpleName: getAll
p1025
tp1026
a(Vinsert
p1027
I42
VSimpleName: safelyDisableAccess
p1028
tp1029
a(Vinsert
p1030
I42
VSimpleName: isOut
p1031
tp1032
a(Vinsert
p1033
I42
VSimpleName: createFrom
p1034
tp1035
a(Vinsert
p1036
I42
VSimpleName: filter
p1037
tp1038
a(Vinsert
p1039
I42
VSimpleName: moreFun
p1040
tp1041
a(Vinsert
p1042
I42
VSimpleName: getAList
p1043
tp1044
a(Vinsert
p1045
I42
VSimpleName: isVarArgs
p1046
tp1047
a(Vinsert
p1048
I42
VSimpleName: isInterface
p1049
tp1050
a(Vinsert
p1051
I42
VSimpleName: appendText
p1052
tp1053
a(Vinsert
p1054
I42
VSimpleName: getJavaMethod
p1055
tp1056
a(Vinsert
p1057
I42
VSimpleName: enableSerializationAcrossJVM
p1058
tp1059
a(Vinsert
p1060
I42
VSimpleName: info
p1061
tp1062
a(Vinsert
p1063
I42
VSimpleName: getLastStackTrace
p1064
tp1065
a(Vinsert
p1066
I42
VSimpleName: checkIfMockIsInjected
p1067
tp1068
a(Vinsert
p1069
I42
VSimpleName: mocksHaveToBePassedWhenCreatingStrictly
p1070
tp1071
a(Vinsert
p1072
I42
VSimpleName: fieldInstance
p1073
tp1074
a(Vinsert
p1075
I42
VSimpleName: fail
p1076
tp1077
a(Vinsert
p1078
I42
VSimpleName: createThrowResult
p1079
tp1080
a(Vinsert
p1081
I42
VSimpleName: tooLittleActualInvocations
p1082
tp1083
a(Vinsert
p1084
I42
VSimpleName: add
p1085
tp1086
a(Vinsert
p1087
I42
VSimpleName: getMocksToBeVerifiedStrictly
p1088
tp1089
a(Vinsert
p1090
I42
VSimpleName: getInvocation
p1091
tp1092
a(Vinsert
p1093
I42
VSimpleName: howMuchDidYouInherit
p1094
tp1095
a(Vinsert
p1096
I42
VSimpleName: isAssignableFrom
p1097
tp1098
a(Vinsert
p1099
I42
VSimpleName: validateState
p1100
tp1101
a(Vinsert
p1102
I42
VSimpleName: assertElapsedTimeIsMoreThan
p1103
tp1104
a(Vinsert
p1105
I42
VSimpleName: fieldWasInitializedUsingContructorArgs
p1106
tp1107
a(Vinsert
p1108
I42
VSimpleName: getExpectedNumberOfInvocations
p1109
tp1110
a(Vinsert
p1111
I42
VSimpleName: strictlyMissingMethodMode
p1112
tp1113
a(Vinsert
p1114
I42
VSimpleName: toMatchingInvocation
p1115
tp1116
a(Vinsert
p1117
I42
VSimpleName: createMockFor
p1118
tp1119
a(Vinsert
p1120
I42
VSimpleName: appendList
p1121
tp1122
a(Vinsert
p1123
I42
VSimpleName: verboseLogging
p1124
tp1125
a(Vinsert
p1126
I42
VSimpleName: extraInterfacesDoesNotAcceptNullParameters
p1127
tp1128
a(Vinsert
p1129
I42
VSimpleName: addAnswerForVoidMethod
p1130
tp1131
a(Vinsert
p1132
I42
VSimpleName: visitLineNumber
p1133
tp1134
a(Vinsert
p1135
I42
VSimpleName: getGenericType
p1136
tp1137
a(Vinsert
p1138
I42
VSimpleName: oneArg
p1139
tp1140
a(Vinsert
p1141
I42
VSimpleName: resolveTypeInstances
p1142
tp1143
a(Vinsert
p1144
I42
VSimpleName: times
p1145
tp1146
a(Vinsert
p1147
I42
VSimpleName: hasNext
p1148
tp1149
a(Vinsert
p1150
I42
VSimpleName: getArgument
p1151
tp1152
a(Vinsert
p1153
I42
VSimpleName: mockVerificationScenario
p1154
tp1155
a(Vinsert
p1156
I42
VSimpleName: length
p1157
tp1158
a(Vinsert
p1159
I42
VSimpleName: isValid
p1160
tp1161
a(Vinsert
p1162
I42
VSimpleName: getBytes
p1163
tp1164
a(Vinsert
p1165
I42
VSimpleName: getFirst
p1166
tp1167
a(Vinsert
p1168
I42
VSimpleName: getSuperclass
p1169
tp1170
a(Vinsert
p1171
I42
VSimpleName: eraseLastInvocation
p1172
tp1173
a(Vinsert
p1174
I42
VSimpleName: validateDefaultAnswerReturnedValue
p1175
tp1176
a(Vinsert
p1177
I42
VSimpleName: setCallback
p1178
tp1179
a(Vinsert
p1180
I42
VSimpleName: public_method
p1181
tp1182
a(Vinsert
p1183
I42
VSimpleName: getClassLoader
p1184
tp1185
a(Vinsert
p1186
I42
VSimpleName: intercept
p1187
tp1188
a(Vinsert
p1189
I42
VSimpleName: threeArgumentMethodWithStrings
p1190
tp1191
a(Vinsert
p1192
I42
VSimpleName: setStubbingListener
p1193
tp1194
a(Vinsert
p1195
I42
VSimpleName: find
p1196
tp1197
a(Vinsert
p1198
I42
VSimpleName: toAnswer
p1199
tp1200
a(Vinsert
p1201
I42
VSimpleName: then
p1202
tp1203
a(Vinsert
p1204
I42
VSimpleName: wantedButNotInvokedInOrder
p1205
tp1206
a(Vinsert
p1207
I42
VSimpleName: getSample
p1208
tp1209
a(Vinsert
p1210
I42
VSimpleName: doesNotContain
p1211
tp1212
a(Vinsert
p1213
I42
VSimpleName: stubOnly
p1214
tp1215
a(Vinsert
p1216
I42
VSimpleName: getLength
p1217
tp1218
a(Vinsert
p1219
I42
VSimpleName: getSpiedInstance
p1220
tp1221
a(Vinsert
p1222
I42
VSimpleName: orderOfInvocationsMatters
p1223
tp1224
a(Vinsert
p1225
I42
VSimpleName: getCanonicalName
p1226
tp1227
a(Vinsert
p1228
I42
VSimpleName: redefineMockName
p1229
tp1230
a(Vinsert
p1231
I42
VSimpleName: newInstance
p1232
tp1233
a(Vinsert
p1234
I42
VSimpleName: invokedMock
p1235
tp1236
a(Vinsert
p1237
I42
VSimpleName: replace
p1238
tp1239
a(Vinsert
p1240
I42
VSimpleName: getLastVarargs
p1241
tp1242
a(Vinsert
p1243
I42
VSimpleName: lastIndexOf
p1244
tp1245
a(Vinsert
p1246
I42
VSimpleName: getMethod
p1247
tp1248
a(Vinsert
p1249
I42
VSimpleName: isIn
p1250
tp1251
a(Vinsert
p1252
I42
VSimpleName: setStackTrace
p1253
tp1254
a(Vinsert
p1255
I42
VSimpleName: answer
p1256
tp1257
a(Vinsert
p1258
I42
VSimpleName: copyOperation
p1259
tp1260
a(Vinsert
p1261
I42
VSimpleName: compile
p1262
tp1263
a(Vinsert
p1264
I42
VSimpleName: toString
p1265
tp1266
a(Vinsert
p1267
I42
VSimpleName: getPollingPeriod
p1268
tp1269
a(Vinsert
p1270
I42
VSimpleName: matchesMockArgsAndMethodNameButMethodNotEqual
p1271
tp1272
a(Vinsert
p1273
I42
VSimpleName: returnsNormalType
p1274
tp1275
a(Vinsert
p1276
I42
VSimpleName: checkedExceptionInvalid
p1277
tp1278
a(Vinsert
p1279
I42
VSimpleName: createNoMoreInteractionsError
p1280
tp1281
a(Vinsert
p1282
I42
VSimpleName: getFirstUndesiredInvocationStackTrace
p1283
tp1284
a(Vinsert
p1285
I42
VSimpleName: never
p1286
tp1287
a(Vinsert
p1288
I42
VSimpleName: wantedCount
p1289
tp1290
a(Vinsert
p1291
I42
VSimpleName: join
p1292
tp1293
a(Vinsert
p1294
I42
VSimpleName: charAt
p1295
tp1296
a(Vinsert
p1297
I42
VSimpleName: isOverloadedVersionOf
p1298
tp1299
a(Vinsert
p1300
I42
VSimpleName: withAttribute
p1301
tp1302
a(Vinsert
p1303
I42
VSimpleName: withClassDefinition
p1304
tp1305
a(Vinsert
p1306
I42
VSimpleName: reportInvocation
p1307
tp1308
a(Vinsert
p1309
I42
VSimpleName: RETURN_PARAMETER
p1310
tp1311
a(Vinsert
p1312
I42
VSimpleName: isInstance
p1313
tp1314
a(Vinsert
p1315
I42
VSimpleName: copy
p1316
tp1317
a(Vinsert
p1318
I42
VSimpleName: getDefaultPluginClass
p1319
tp1320
a(Vinsert
p1321
I42
VSimpleName: hasSameMethod
p1322
tp1323
a(Vinsert
p1324
I42
VSimpleName: format
p1325
tp1326
a(Vinsert
p1327
I42
VSimpleName: fails
p1328
tp1329
a(Vinsert
p1330
I42
VSimpleName: getTreshhold
p1331
tp1332
a(Vinsert
p1333
I42
VSimpleName: contains
p1334
tp1335
a(Vinsert
p1336
I42
VSimpleName: getObjectType
p1337
tp1338
a(Vinsert
p1339
I42
VSimpleName: emptyList
p1340
tp1341
a(Vinsert
p1342
I42
VSimpleName: getStrategy
p1343
tp1344
a(Vinsert
p1345
I42
VSimpleName: setStrictness
p1346
tp1347
a(Vinsert
p1348
I42
VSimpleName: argumentsToMatchers
p1349
tp1350
a(Vinsert
p1351
I42
VSimpleName: generateMockClass
p1352
tp1353
a(Vinsert
p1354
I42
VSimpleName: setEnabled
p1355
tp1356
a(Vinsert
p1357
I42
VSimpleName: addThrowable
p1358
tp1359
a(Vinsert
p1360
I42
VSimpleName: clearInvocations
p1361
tp1362
a(Vinsert
p1363
I42
VSimpleName: setTypeToMock
p1364
tp1365
a(Vinsert
p1366
I42
VSimpleName: setAnswersForStubbing
p1367
tp1368
a(Vinsert
p1369
I42
VSimpleName: mustRunAfter
p1370
tp1371
a(Vinsert
p1372
I42
VSimpleName: writeObject
p1373
tp1374
a(Vinsert
p1375
I42
VSimpleName: wantedAtMostX
p1376
tp1377
a(Vinsert
p1378
I42
VSimpleName: thenCallRealMethod
p1379
tp1380
a(Vinsert
p1381
I42
VSimpleName: usingConstructorWithFancySerializable
p1382
tp1383
a(Vinsert
p1384
I42
VSimpleName: defaultAnswerDoesNotAcceptNullParameter
p1385
tp1386
a(Vinsert
p1387
I42
VSimpleName: createMockType
p1388
tp1389
a(Vinsert
p1390
I42
VSimpleName: arg
p1391
tp1392
a(Vinsert
p1393
I42
VSimpleName: parseTickets
p1394
tp1395
a(Vinsert
p1396
I42
VSimpleName: recordAsyncCall
p1397
tp1398
a(Vinsert
p1399
I42
VSimpleName: argumentsMatch
p1400
tp1401
a(Vinsert
p1402
I42
VSimpleName: markVerifiedStrictly
p1403
tp1404
a(Vinsert
p1405
I42
VSimpleName: throwSomething
p1406
tp1407
a(Vinsert
p1408
I42
VSimpleName: toInvocationMatcher
p1409
tp1410
a(Vinsert
p1411
I42
VSimpleName: log
p1412
tp1413
a(Vinsert
p1414
I42
VSimpleName: createInvocation
p1415
tp1416
a(Vinsert
p1417
I42
VSimpleName: visitMethod
p1418
tp1419
a(Vinsert
p1420
I42
VSimpleName: read
p1421
tp1422
a(Vinsert
p1423
I42
VSimpleName: printWarnings
p1424
tp1425
a(Vinsert
p1426
I42
VSimpleName: stubber
p1427
tp1428
a(Vinsert
p1429
I42
VSimpleName: getException
p1430
tp1431
a(Vinsert
p1432
I42
VSimpleName: stubbingCompleted
p1433
tp1434
a(Vinsert
p1435
I42
VSimpleName: start
p1436
tp1437
a(Vinsert
p1438
I42
VSimpleName: update
p1439
tp1440
a(Vinsert
p1441
I42
VSimpleName: strictOrderVerifier
p1442
tp1443
a(Vinsert
p1444
I42
VSimpleName: only
p1445
tp1446
a(Vinsert
p1447
I42
VSimpleName: hash
p1448
tp1449
a(Vinsert
p1450
I42
VSimpleName: timesNow
p1451
tp1452
a(Vinsert
p1453
I42
VSimpleName: getFirstUnverifiedInvocationChunk
p1454
tp1455
a(Vinsert
p1456
I42
VSimpleName: getRawType
p1457
tp1458
a(Vinsert
p1459
I42
VSimpleName: addThrowableForVoidMethod
p1460
tp1461
a(Vinsert
p1462
I42
VSimpleName: trim
p1463
tp1464
a(Vinsert
p1465
I42
VSimpleName: begin_class
p1466
tp1467
a(Vinsert
p1468
I42
VSimpleName: getRuntimeMXBean
p1469
tp1470
a(Vinsert
p1471
I42
VSimpleName: captureArgumentsFrom
p1472
tp1473
a(Vinsert
p1474
I42
VSimpleName: atLeastOnce
p1475
tp1476
a(Vinsert
p1477
I42
VSimpleName: implementing
p1478
tp1479
a(Vinsert
p1480
I42
VSimpleName: drive
p1481
tp1482
a(Vinsert
p1483
I42
VSimpleName: getConstructors
p1484
tp1485
a(Vinsert
p1486
I42
VSimpleName: getSimpleName
p1487
tp1488
a(Vinsert
p1489
I42
VSimpleName: forCollection
p1490
tp1491
a(Vinsert
p1492
I42
VSimpleName: isWriteReplace
p1493
tp1494
a(Vinsert
p1495
I42
VSimpleName: getSignature
p1496
tp1497
a(Vinsert
p1498
I42
VSimpleName: getStubbingInfo
p1499
tp1500
a(Vinsert
p1501
I42
VSimpleName: cast
p1502
tp1503
a(Vinsert
p1504
I42
VSimpleName: intArgumentReturningInt
p1505
tp1506
a(Vinsert
p1507
I42
VSimpleName: defaultBehavior
p1508
tp1509
a(Vinsert
p1510
I42
VSimpleName: fillInStackTrace
p1511
tp1512
a(Vinsert
p1513
I42
VSimpleName: extracting
p1514
tp1515
a(Vinsert
p1516
I42
VSimpleName: pullStubbedInvocations
p1517
tp1518
a(Vinsert
p1519
I42
VSimpleName: validateExtraInterfaces
p1520
tp1521
a(Vinsert
p1522
I42
VSimpleName: visitInnerClass
p1523
tp1524
a(Vinsert
p1525
I42
VSimpleName: atLeastOnceMode
p1526
tp1527
a(Vinsert
p1528
I42
VSimpleName: setMatchersToBePrintedVerbosely
p1529
tp1530
a(Vinsert
p1531
I42
VSimpleName: isGreaterThan
p1532
tp1533
a(Vinsert
p1534
I42
VSimpleName: cannotStubWithNullThrowable
p1535
tp1536
a(Vinsert
p1537
I42
VSimpleName: toThrow
p1538
tp1539
a(Vinsert
p1540
I42
VSimpleName: cannotInjectDependency
p1541
tp1542
a(Vinsert
p1543
I42
VSimpleName: getStubbedInvocations
p1544
tp1545
a(Vinsert
p1546
I42
VSimpleName: resetCustomReturnValues
p1547
tp1548
a(Vinsert
p1549
I42
VSimpleName: getTestName
p1550
tp1551
a(Vinsert
p1552
I42
VSimpleName: objectReturningMethod
p1553
tp1554
a(Vinsert
p1555
I42
VSimpleName: beforeTest
p1556
tp1557
a(Vinsert
p1558
I42
VSimpleName: getAllInvocations
p1559
tp1560
a(Vinsert
p1561
I42
VSimpleName: visitFrame
p1562
tp1563
a(Vinsert
p1564
I42
VSimpleName: hasPrevious
p1565
tp1566
a(Vinsert
p1567
I42
VSimpleName: getTestHeader
p1568
tp1569
a(Vinsert
p1570
I42
VSimpleName: isInstanceOf
p1571
tp1572
a(Vinsert
p1573
I42
VSimpleName: isConfigurationMethod
p1574
tp1575
a(Vinsert
p1576
I42
VSimpleName: convertDate
p1577
tp1578
a(Vinsert
p1579
I42
VSimpleName: getstatic
p1580
tp1581
a(Vinsert
p1582
I42
VSimpleName: visitIincInsn
p1583
tp1584
a(Vinsert
p1585
I42
VSimpleName: foo
p1586
tp1587
a(Vinsert
p1588
I42
VSimpleName: withExtraTypeInfo
p1589
tp1590
a(Vinsert
p1591
I42
VSimpleName: getLastInvocationLocation
p1592
tp1593
a(Vinsert
p1594
I42
VSimpleName: withAlias
p1595
tp1596
a(Vinsert
p1597
I42
VSimpleName: parseInt
p1598
tp1599
a(Vinsert
p1600
I42
VSimpleName: getOpcode
p1601
tp1602
a(Vinsert
p1603
I42
VSimpleName: newUTF8
p1604
tp1605
a(Vinsert
p1606
I42
VSimpleName: doReturn
p1607
tp1608
a(Vinsert
p1609
I42
VSimpleName: toNanos
p1610
tp1611
a(Vinsert
p1612
I42
VSimpleName: isUp
p1613
tp1614
a(Vinsert
p1615
I42
VSimpleName: getContextClassLoader
p1616
tp1617
a(Vinsert
p1618
I42
VSimpleName: getActualTypeArguments
p1619
tp1620
a(Vinsert
p1621
I42
VSimpleName: getDisplayName
p1622
tp1623
a(Vinsert
p1624
I42
VSimpleName: mockitoSession
p1625
tp1626
a(Vinsert
p1627
I42
VSimpleName: validateSerializable
p1628
tp1629
a(Vinsert
p1630
I42
VSimpleName: getBounds
p1631
tp1632
a(Vinsert
p1633
I42
VSimpleName: visitLocalVariable
p1634
tp1635
a(Vinsert
p1636
I42
VSimpleName: getProtectionDomain
p1637
tp1638
a(Vinsert
p1639
I42
VSimpleName: allowedMethod
p1640
tp1641
a(Vinsert
p1642
I42
VSimpleName: addConsecutiveReturnValue
p1643
tp1644
a(Vinsert
p1645
I42
VSimpleName: withStringVarargs
p1646
tp1647
a(Vinsert
p1648
I42
VSimpleName: spiedInstance
p1649
tp1650
a(Vinsert
p1651
I42
VSimpleName: findMatchFor
p1652
tp1653
a(Vinsert
p1654
I42
VSimpleName: getStubbingLookupListeners
p1655
tp1656
a(Vinsert
p1657
I42
VSimpleName: create
p1658
tp1659
a(Vinsert
p1660
I42
VSimpleName: sendEmailTo
p1661
tp1662
a(Vinsert
p1663
I42
VSimpleName: printInvocations
p1664
tp1665
a(Vinsert
p1666
I42
VSimpleName: readerToLines
p1667
tp1668
a(Vinsert
p1669
I42
VSimpleName: getDebuggingInfo
p1670
tp1671
a(Vinsert
p1672
I42
VSimpleName: overrideCleansStackTrace
p1673
tp1674
a(Vinsert
p1675
I42
VSimpleName: floatToRawIntBits
p1676
tp1677
a(Vinsert
p1678
I42
VSimpleName: isSpy
p1679
tp1680
a(Vinsert
p1681
I42
VSimpleName: startMocking
p1682
tp1683
a(Vinsert
p1684
I42
VSimpleName: asList
p1685
tp1686
a(Vinsert
p1687
I42
VSimpleName: getDeclaredField
p1688
tp1689
a(Vinsert
p1690
I42
VSimpleName: getMethodName
p1691
tp1692
a(Vinsert
p1693
I42
VSimpleName: visitMethodInsn
p1694
tp1695
a(Vinsert
p1696
I42
VSimpleName: toStringWithArgumentTypes
p1697
tp1698
a(Vinsert
p1699
I42
VSimpleName: expectThrowable
p1700
tp1701
a(Vinsert
p1702
I42
VSimpleName: createMockitoMethod
p1703
tp1704
a(Vinsert
p1705
I42
VSimpleName: getAuthorName
p1706
tp1707
a(Vinsert
p1708
I42
VSimpleName: setCallbackType
p1709
tp1710
a(Vinsert
p1711
I42
VSimpleName: emptyValueFor
p1712
tp1713
a(Vinsert
p1714
I42
VSimpleName: getReportedThrowable
p1715
tp1716
a(Vinsert
p1717
I42
VSimpleName: mockedTypeIsInconsistentWithDelegatedInstanceType
p1718
tp1719
a(Vinsert
p1720
I42
VSimpleName: toInvocation
p1721
tp1722
a(Vinsert
p1723
I42
VSimpleName: addType
p1724
tp1725
a(Vinsert
p1726
I42
VSimpleName: doSomething
p1727
tp1728
a(Vinsert
p1729
I42
VSimpleName: isPrimitiveWrapper
p1730
tp1731
a(Vinsert
p1732
I42
VSimpleName: framework
p1733
tp1734
a(Vinsert
p1735
I42
VSimpleName: list
p1736
tp1737
a(Vinsert
p1738
I42
VSimpleName: isSussessful
p1739
tp1740
a(Vinsert
p1741
I42
VSimpleName: withCodeSourceUrls
p1742
tp1743
a(Vinsert
p1744
I42
VSimpleName: getGenericInterfaces
p1745
tp1746
a(Vinsert
p1747
I42
VSimpleName: call
p1748
tp1749
a(Vinsert
p1750
I42
VSimpleName: getLastInvocation
p1751
tp1752
a(Vinsert
p1753
I42
VSimpleName: accept
p1754
tp1755
a(Vinsert
p1756
I42
VSimpleName: spy
p1757
tp1758
a(Vinsert
p1759
I42
VSimpleName: foundUnstubbed
p1760
tp1761
a(Vinsert
p1762
I42
VSimpleName: getMockMaker
p1763
tp1764
a(Vinsert
p1765
I42
VSimpleName: getValue
p1766
tp1767
a(Vinsert
p1768
I42
VSimpleName: doThrow
p1769
tp1770
a(Vinsert
p1771
I42
VSimpleName: printStackTrace
p1772
tp1773
a(Vinsert
p1774
I42
VSimpleName: clearListeners
p1775
tp1776
a(Vinsert
p1777
I42
VSimpleName: andThrows
p1778
tp1779
a(Vinsert
p1780
I42
VSimpleName: createProxyClass
p1781
tp1782
a(Vinsert
p1783
I42
VSimpleName: verify
p1784
tp1785
a(Vinsert
p1786
I42
VSimpleName: getHandler
p1787
tp1788
a(Vinsert
p1789
I42
VSimpleName: setLength
p1790
tp1791
a(Vinsert
p1792
I42
VSimpleName: getVerifiableInvocations
p1793
tp1794
a(Vinsert
p1795
I42
VSimpleName: simpleMethodWithArgument
p1796
tp1797
a(Vinsert
p1798
I42
VSimpleName: of
p1799
tp1800
a(Vinsert
p1801
I42
VSimpleName: getText
p1802
tp1803
a(Vinsert
p1804
I42
VSimpleName: getDeclaredConstructor
p1805
tp1806
a(Vinsert
p1807
I42
VSimpleName: identifyGenericReturnType
p1808
tp1809
a(Vinsert
p1810
I42
VSimpleName: getLowerBounds
p1811
tp1812
a(Vinsert
p1813
I42
VSimpleName: getRegisteredInvocations
p1814
tp1815
a(Vinsert
p1816
I42
VSimpleName: getInstantiatorProvider
p1817
tp1818
a(Vinsert
p1819
I42
VSimpleName: evaluate
p1820
tp1821
a(Vinsert
p1822
I42
VSimpleName: readFromFile
p1823
tp1824
a(Vinsert
p1825
I42
VSimpleName: parseType
p1826
tp1827
a(Vinsert
p1828
I42
VSimpleName: checkForWrongNumberOfInvocations
p1829
tp1830
a(Vinsert
p1831
I42
VSimpleName: classes
p1832
tp1833
a(Vinsert
p1834
I42
VSimpleName: getDeclaredMethods
p1835
tp1836
a(Vinsert
p1837
I42
VSimpleName: when
p1838
tp1839
a(Vinsert
p1840
I42
VSimpleName: findPluginClass
p1841
tp1842
a(Vinsert
p1843
I42
VSimpleName: potentialStubbingProblemByJUnitRule
p1844
tp1845
a(Vinsert
p1846
I42
VSimpleName: willReturn
p1847
tp1848
a(Vinsert
p1849
I42
VSimpleName: getComponentType
p1850
tp1851
a(Vinsert
p1852
I42
VSimpleName: getSequenceNumber
p1853
tp1854
a(Vinsert
p1855
I42
VSimpleName: resolveGenericReturnType
p1856
tp1857
a(Vinsert
p1858
I42
VSimpleName: get
p1859
tp1860
a(Vinsert
p1861
I42
VSimpleName: floatValue
p1862
tp1863
a(Vinsert
p1864
I42
VSimpleName: isFinal
p1865
tp1866
a(Vinsert
p1867
I42
VSimpleName: withLong
p1868
tp1869
a(Vinsert
p1870
I42
VSimpleName: checkNotNull
p1871
tp1872
a(Vinsert
p1873
I42
VSimpleName: getInvocationFactory
p1874
tp1875
a(Vinsert
p1876
I42
VSimpleName: trimSuspendParameterTypes
p1877
tp1878
a(Vinsert
p1879
I42
VSimpleName: were_exactly_x_interactions
p1880
tp1881
a(Vinsert
p1882
I42
VSimpleName: getPackage
p1883
tp1884
a(Vinsert
p1885
I42
VSimpleName: getState
p1886
tp1887
a(Vinsert
p1888
I42
VSimpleName: pluralize
p1889
tp1890
a(Vinsert
p1891
I42
VSimpleName: getAbsolutePath
p1892
tp1893
a(Vinsert
p1894
I42
VSimpleName: getDescription
p1895
tp1896
a(Vinsert
p1897
I42
VSimpleName: getInjected
p1898
tp1899
a(Vinsert
p1900
I42
VSimpleName: maybeVerifyLazily
p1901
tp1902
a(Vinsert
p1903
I42
VSimpleName: getOuterClassInstance
p1904
tp1905
a(Vinsert
p1906
I42
VSimpleName: getSomething
p1907
tp1908
a(Vinsert
p1909
I42
VSimpleName: visitOuterClass
p1910
tp1911
a(Vinsert
p1912
I42
VSimpleName: getMockSettings
p1913
tp1914
a(Vinsert
p1915
I42
VSimpleName: findNewInstance
p1916
tp1917
a(Vinsert
p1918
I42
VSimpleName: getLocation
p1919
tp1920
a(Vinsert
p1921
I42
VSimpleName: getType
p1922
tp1923
a(Vinsert
p1924
I42
VSimpleName: listReturningMethod
p1925
tp1926
a(Vinsert
p1927
I42
VSimpleName: countArticles
p1928
tp1929
a(Vinsert
p1930
I42
VSimpleName: thenAnswer
p1931
tp1932
a(Vinsert
p1933
I42
VSimpleName: hasMoreElements
p1934
tp1935
a(Vinsert
p1936
I42
VSimpleName: withCurrentCodeSourceUrls
p1937
tp1938
a(Vinsert
p1939
I42
VSimpleName: load
p1940
tp1941
a(Vinsert
p1942
I42
VSimpleName: getInjectInto
p1943
tp1944
a(Vinsert
p1945
I42
VSimpleName: getMessage
p1946
tp1947
a(Vinsert
p1948
I42
VSimpleName: withLongAndInt
p1949
tp1950
a(Vinsert
p1951
I42
VSimpleName: addAll
p1952
tp1953
a(Vinsert
p1954
I42
VSimpleName: varargsString
p1955
tp1956
a(Vinsert
p1957
I42
VSimpleName: toMock
p1958
tp1959
a(Vinsert
p1960
I42
VSimpleName: perform
p1961
tp1962
a(Vinsert
p1963
I42
VSimpleName: wantedInvocationDiffersFromActual
p1964
tp1965
a(Vinsert
p1966
I42
VSimpleName: onVerificationStarted
p1967
tp1968
a(Vinsert
p1969
I42
VSimpleName: isReturnOnSuccess
p1970
tp1971
a(Vinsert
p1972
I42
VSimpleName: isResolved
p1973
tp1974
a(Vinsert
p1975
I42
VSimpleName: visitTypeInsn
p1976
tp1977
a(Vinsert
p1978
I42
VSimpleName: arraycopy
p1979
tp1980
a(Vinsert
p1981
I42
VSimpleName: visitLabel
p1982
tp1983
a(Vinsert
p1984
I42
VSimpleName: getBoolean
p1985
tp1986
a(Vinsert
p1987
I42
VSimpleName: build
p1988
tp1989
a(Vinsert
p1990
I42
VSimpleName: getIt
p1991
tp1992
a(Vinsert
p1993
I42
VSimpleName: varargsObject
p1994
tp1995
a(Vinsert
p1996
I42
VSimpleName: substring
p1997
tp1998
a(Vinsert
p1999
I42
VSimpleName: seq
p2000
tp2001
a(Vinsert
p2002
I42
VSimpleName: asSingletonList
p2003
tp2004
a(Vinsert
p2005
I42
VSimpleName: apply
p2006
tp2007
a(Vinsert
p2008
I42
VSimpleName: return_value
p2009
tp2010
a(Vinsert
p2011
I42
VSimpleName: forName
p2012
tp2013
a(Vinsert
p2014
I42
VSimpleName: methods
p2015
tp2016
a(Vinsert
p2017
I42
VSimpleName: getActualMatcher
p2018
tp2019
a(Vinsert
p2020
I42
VSimpleName: mocksHaveToBePassedAsArguments
p2021
tp2022
a(Vinsert
p2023
I42
VSimpleName: getStackTrace
p2024
tp2025
a(Vinsert
p2026
I42
VSimpleName: getStubbingLookUpListeners
p2027
tp2028
a(Vinsert
p2029
I42
VSimpleName: forwardTo
p2030
tp2031
a(Vinsert
p2032
I42
VSimpleName: getStubbingListener
p2033
tp2034
a(Vinsert
p2035
I42
VSimpleName: notAMockPassedWhenCreatingInOrder
p2036
tp2037
a(Vinsert
p2038
I42
VSimpleName: canImposterise
p2039
tp2040
a(Vinsert
p2041
I42
VSimpleName: should
p2042
tp2043
a(Vinsert
p2044
I42
VSimpleName: initiateMockName
p2045
tp2046
a(Vinsert
p2047
I42
VSimpleName: has
p2048
tp2049
a(Vinsert
p2050
I42
VSimpleName: getInstantiator
p2051
tp2052
a(Vinsert
p2053
I42
VSimpleName: forObject
p2054
tp2055
a(Vinsert
p2056
I42
VSimpleName: addResult
p2057
tp2058
a(Vinsert
p2059
I42
VSimpleName: visitVarInsn
p2060
tp2061
a(Vinsert
p2062
I42
VSimpleName: verificationListeners
p2063
tp2064
a(Vinsert
p2065
I42
VSimpleName: getFailure
p2066
tp2067
a(Vinsert
p2068
I42
VSimpleName: captureFrom
p2069
tp2070
a(Vinsert
p2071
I42
VSimpleName: isVerifiedInOrder
p2072
tp2073
a(Vinsert
p2074
I42
VSimpleName: method
p2075
tp2076
a(Vinsert
p2077
I42
VSimpleName: otherMethod
p2078
tp2079
a(Vinsert
p2080
I42
VSimpleName: getSuspiciouslyNotMatchingArgs
p2081
tp2082
a(Vinsert
p2083
I42
VSimpleName: exactNumberOfInvocationsMode
p2084
tp2085
a(Vinsert
p2086
I42
VSimpleName: setCurrentStrictness
p2087
tp2088
a(Vinsert
p2089
I42
VSimpleName: getArgs
p2090
tp2091
a(Vinsert
p2092
I42
VSimpleName: lastThrowable
p2093
tp2094
a(Vinsert
p2095
I42
VSimpleName: getTestClass
p2096
tp2097
a(Vinsert
p2098
I42
VSimpleName: values
p2099
tp2100
a(Vinsert
p2101
I42
VSimpleName: submit
p2102
tp2103
a(Vinsert
p2104
I42
VSimpleName: varargsbyte
p2105
tp2106
a(Vinsert
p2107
I42
VSimpleName: visitJumpInsn
p2108
tp2109
a(Vinsert
p2110
I42
VSimpleName: withPrivateCopyOf
p2111
tp2112
a(Vinsert
p2113
I42
VSimpleName: hasMessageContaining
p2114
tp2115
a(Vinsert
p2116
I42
VSimpleName: sort
p2117
tp2118
a(Vinsert
p2119
I42
VSimpleName: getInvocations
p2120
tp2121
a(Vinsert
p2122
I42
VSimpleName: appendValue
p2123
tp2124
a(Vinsert
p2125
I42
VSimpleName: addAnswer
p2126
tp2127
a(Vinsert
p2128
I42
VSimpleName: concreteMethod
p2129
tp2130
a(Vinsert
p2131
I42
VSimpleName: longArg
p2132
tp2133
a(Vinsert
p2134
I42
VSimpleName: getUnusedStubbings
p2135
tp2136
a(Vinsert
p2137
I42
VSimpleName: someMethod
p2138
tp2139
a(Vinsert
p2140
I42
VSimpleName: getWanted
p2141
tp2142
a(Vinsert
p2143
I42
VSimpleName: getIncludedFiles
p2144
tp2145
a(Vinsert
p2146
I42
VSimpleName: mock
p2147
tp2148
a(Vinsert
p2149
I42
VSimpleName: visitField
p2150
tp2151
a(Vinsert
p2152
I42
VSimpleName: stringReturningMethod
p2153
tp2154
a(Vinsert
p2155
I42
VSimpleName: getSort
p2156
tp2157
a(Vinsert
p2158
I42
VSimpleName: getMethodInfo
p2159
tp2160
a(Vinsert
p2161
I42
VSimpleName: getInlineMockMaker
p2162
tp2163
a(Vinsert
p2164
I42
VSimpleName: primitiveValueOrNullFor
p2165
tp2166
a(Vinsert
p2167
I42
VSimpleName: readObject
p2168
tp2169
a(Vinsert
p2170
I42
VSimpleName: check
p2171
tp2172
a(Vinsert
p2173
I42
VSimpleName: returnBoolean
p2174
tp2175
a(Vinsert
p2176
I42
VSimpleName: atMost
p2177
tp2178
a(Vinsert
p2179
I42
VSimpleName: longObjectReturningMethod
p2180
tp2181
a(Vinsert
p2182
I42
VSimpleName: duration
p2183
tp2184
a(Vinsert
p2185
I42
VSimpleName: twoArgumentMethod
p2186
tp2187
a(Vinsert
p2188
I42
VSimpleName: getString
p2189
tp2190
a(Vinsert
p2191
I42
VSimpleName: booleanReturningMethod
p2192
tp2193
a(Vinsert
p2194
I42
VSimpleName: excludingClassLoader
p2195
tp2196
a(Vinsert
p2197
I42
VSimpleName: verifyInOrder
p2198
tp2199
a(Vinsert
p2200
I42
VSimpleName: endsWith
p2201
tp2202
a(Vinsert
p2203
I42
VSimpleName: getConstructor
p2204
tp2205
a(Vinsert
p2206
I42
VSimpleName: getConstructorArgs
p2207
tp2208
a(Vinsert
p2209
I42
VSimpleName: isDirectory
p2210
tp2211
a(Vinsert
p2212
I42
VSimpleName: getAllUnusedStubs
p2213
tp2214
a(Vinsert
p2215
I42
VSimpleName: verifyNoMoreInteractionsInOrder
p2216
tp2217
a(Vinsert
p2218
I42
VSimpleName: toLowerCase
p2219
tp2220
a(Vinsert
p2221
I42
VSimpleName: isMultiline
p2222
tp2223
a(Vinsert
p2224
I42
VSimpleName: isUsingConstructor
p2225
tp2226
a(Vinsert
p2227
I42
VSimpleName: declare_field
p2228
tp2229
a(Vinsert
p2230
I42
VSimpleName: rawExtraInterfaces
p2231
tp2232
a(Vinsert
p2233
I42
VSimpleName: name
p2234
tp2235
a(Vinsert
p2236
I42
VSimpleName: reportAnd
p2237
tp2238
a(Vinsert
p2239
I42
VSimpleName: getMockHandler
p2240
tp2241
a(Vinsert
p2242
I42
VSimpleName: pullThrowableToBeSetOnVoidMethod
p2243
tp2244
a(Vinsert
p2245
I42
VSimpleName: wasSuccessful
p2246
tp2247
a(Vinsert
p2248
I42
VSimpleName: findStubbings
p2249
tp2250
a(Vinsert
p2251
I42
VSimpleName: isMock
p2252
tp2253
a(Vinsert
p2254
I42
VSimpleName: getToken
p2255
tp2256
a(Vinsert
p2257
I42
VSimpleName: getInt
p2258
tp2259
a(Vinsert
p2260
I42
VSimpleName: valueOf
p2261
tp2262
a(Vinsert
p2263
I42
VSimpleName: callMe
p2264
tp2265
a(Vinsert
p2266
I42
VSimpleName: defaultAnswer
p2267
tp2268
a(Vinsert
p2269
I42
VSimpleName: defaultValue
p2270
tp2271
a(Vinsert
p2272
I42
VSimpleName: appendTo
p2273
tp2274
a(Vinsert
p2275
I42
VSimpleName: initMocks
p2276
tp2277
a(Vinsert
p2278
I42
VSimpleName: doAnswer
p2279
tp2280
a(Vinsert
p2281
I42
VSimpleName: allValues
p2282
tp2283
a(Vinsert
p2284
I42
VSimpleName: primitiveTypeOf
p2285
tp2286
a(Vinsert
p2287
I42
VSimpleName: getDeclaringClass
p2288
tp2289
a(Vinsert
p2290
I42
VSimpleName: visitTryCatchBlock
p2291
tp2292
a(Vinsert
p2293
I42
VSimpleName: initialize
p2294
tp2295
a(Vinsert
p2296
I42
VSimpleName: addPreparedMocks
p2297
tp2298
a(Vinsert
p2299
I42
VSimpleName: getName
p2300
tp2301
a(Vinsert
p2302
I42
VSimpleName: isValidReturnType
p2303
tp2304
a(Vinsert
p2305
I42
VSimpleName: identityHashCode
p2306
tp2307
a(Vinsert
p2308
I42
VSimpleName: cannotInitializeForSpyAnnotation
p2309
tp2310
a(Vinsert
p2311
I42
VSimpleName: run
p2312
tp2313
a(Vinsert
p2314
I42
VSimpleName: getAnswer
p2315
tp2316
a(Vinsert
p2317
I42
VSimpleName: visitInsn
p2318
tp2319
a(Vinsert
p2320
I42
VSimpleName: getConfiguration
p2321
tp2322
a(Vinsert
p2323
I42
VSimpleName: iterableArgMethod
p2324
tp2325
a(Vinsert
p2326
I42
VSimpleName: resetMock
p2327
tp2328
a(Vinsert
p2329
I42
VSimpleName: visitSubroutine
p2330
tp2331
a(Vinsert
p2332
I42
VSimpleName: mockingDetails
p2333
tp2334
a(Vinsert
p2335
I42
VSimpleName: isTypeMockable
p2336
tp2337
a(Vinsert
p2338
I42
VSimpleName: isLastStackElementToRemove
p2339
tp2340
a(Vinsert
p2341
I42
VSimpleName: readPluginClass
p2342
tp2343
a(Vinsert
p2344
I42
VSimpleName: getInternalState
p2345
tp2346
a(Vinsert
p2347
I42
VSimpleName: missingMethodInOrderMode
p2348
tp2349
a(Vinsert
p2350
I42
VSimpleName: getActualCount
p2351
tp2352
a(Vinsert
p2353
I42
VSimpleName: addAllInterfaces
p2354
tp2355
a(Vinsert
p2356
I42
VSimpleName: isBridge
p2357
tp2358
a(Vinsert
p2359
I42
VSimpleName: putIfAbsent
p2360
tp2361
a(Vinsert
p2362
I42
VSimpleName: objectArgMethod
p2363
tp2364
a(Vinsert
p2365
I42
VSimpleName: visitIntInsn
p2366
tp2367
a(Vinsert
p2368
I42
VSimpleName: isNotNull
p2369
tp2370
a(Vinsert
p2371
I42
VSimpleName: getClassFileVersion
p2372
tp2373
a(Vinsert
p2374
I42
VSimpleName: getWantedArgs
p2375
tp2376
a(Vinsert
p2377
I42
VSimpleName: inOrder
p2378
tp2379
a(Vinsert
p2380
I42
VSimpleName: copyToMock
p2381
tp2382
a(Vinsert
p2383
I42
VSimpleName: merge
p2384
tp2385
a(Vinsert
p2386
I42
VSimpleName: getNameButDelegateToMethodThatThrows
p2387
tp2388
a(Vinsert
p2389
I42
VSimpleName: forIterable
p2390
tp2391
a(Vinsert
p2392
I42
VSimpleName: getBarWithParams
p2393
tp2394
a(Vinsert
p2395
I42
VSimpleName: returnsPrimitive
p2396
tp2397
a(Vinsert
p2398
I42
VSimpleName: markVerifiedInOrder
p2399
tp2400
a(Vinsert
p2401
I42
VSimpleName: toByteArray
p2402
tp2403
a(Vinsert
p2404
I42
VSimpleName: mockable
p2405
tp2406
a(Vinsert
p2407
I42
VSimpleName: with
p2408
tp2409
a(Vinsert
p2410
I42
VSimpleName: getPlugins
p2411
tp2412
a(Vinsert
p2413
I42
VSimpleName: stringMethod
p2414
tp2415
a(Vinsert
p2416
I42
VSimpleName: isToString
p2417
tp2418
a(Vinsert
p2419
I42
VSimpleName: getArgumentsLine
p2420
tp2421
a(Vinsert
p2422
I42
VSimpleName: setCustomReturnValues
p2423
tp2424
a(Vinsert
p2425
I42
VSimpleName: getReturnedValue
p2426
tp2427
a(Vinsert
p2428
I42
VSimpleName: voidReturningMethod
p2429
tp2430
a(Vinsert
p2431
I42
VSimpleName: equals
p2432
tp2433
a(Vinsert
p2434
I42
VSimpleName: test
p2435
tp2436
a(Vinsert
p2437
I42
VSimpleName: invokeMethod
p2438
tp2439
a(Vinsert
p2440
I42
VSimpleName: getMatchers
p2441
tp2442
a(Vinsert
p2443
I42
VSimpleName: getAnnotationEngine
p2444
tp2445
a(Vinsert
p2446
I42
VSimpleName: iMethodsReturningMethod
p2447
tp2448
a(Vinsert
p2449
I42
VSimpleName: getInvocationForStubbing
p2450
tp2451
a(Vinsert
p2452
I42
VSimpleName: getDescriptor
p2453
tp2454
a(Vinsert
p2455
I42
VSimpleName: onVerification
p2456
tp2457
a(Vinsert
p2458
I42
VSimpleName: nullPassedToWhenMethod
p2459
tp2460
a(Vinsert
p2461
I42
VSimpleName: put
p2462
tp2463
a(Vinsert
p2464
I42
VSimpleName: beginMethod
p2465
tp2466
a(Vinsert
p2467
I42
VSimpleName: isLarger
p2468
tp2469
a(Vinsert
p2470
I42
VSimpleName: isFailed
p2471
tp2472
a(Vinsert
p2473
I42
VSimpleName: doubleToLongBits
p2474
tp2475
a(Vinsert
p2476
I42
VSimpleName: getTestClassInstance
p2477
tp2478
a(Vinsert
p2479
I42
VSimpleName: readLine
p2480
tp2481
a(Vinsert
p2482
I42
VSimpleName: isValidException
p2483
tp2484
a(Vinsert
p2485
I42
VSimpleName: reportOngoingStubbing
p2486
tp2487
a(Vinsert
p2488
I42
VSimpleName: objectReturningMethodNoArgs
p2489
tp2490
a(Vinsert
p2491
I42
VSimpleName: emptyReturnValueFor
p2492
tp2493
a(Vinsert
p2494
I42
VSimpleName: getArguments
p2495
tp2496
a(Vinsert
p2497
I42
VSimpleName: getPropertyName
p2498
tp2499
a(Vinsert
p2500
I42
VSimpleName: invokedAtLeastOnce
p2501
tp2502
a(Vinsert
p2503
I42
VSimpleName: isVerificationStillInProgress
p2504
tp2505
a(Vinsert
p2506
I42
VSimpleName: withObjectVarargs
p2507
tp2508
a(Vinsert
p2509
I42
VSimpleName: hasRootCauseInstanceOf
p2510
tp2511
a(Vinsert
p2512
I42
VSimpleName: getRawArguments
p2513
tp2514
a(Vinsert
p2515
I42
VSimpleName: setSuperclass
p2516
tp2517
a(Vinsert
p2518
I42
VSimpleName: doFun
p2519
tp2520
a(Vinsert
p2521
I42
VSimpleName: inOrderMode
p2522
tp2523
a(Vinsert
p2524
I42
VSimpleName: genericTypeOfMatcher
p2525
tp2526
a(Vinsert
p2527
I42
VSimpleName: unfinishedVerificationException
p2528
tp2529
a(Vinsert
p2530
I42
VSimpleName: wasUsed
p2531
tp2532
a(Vinsert
p2533
I42
VSimpleName: all
p2534
tp2535
a(Vinsert
p2536
I42
VSimpleName: isFalse
p2537
tp2538
a(Vinsert
p2539
I42
VSimpleName: isSerializable
p2540
tp2541
a(Vinsert
p2542
I42
VSimpleName: strict
p2543
tp2544
a(Vinsert
p2545
I42
VSimpleName: close
p2546
tp2547
a(Vinsert
p2548
I42
VSimpleName: handle
p2549
tp2550
a(Vinsert
p2551
I42
VSimpleName: resetOngoingStubbing
p2552
tp2553
a(Vinsert
p2554
I42
VSimpleName: getStackTraceCleanerProvider
p2555
tp2556
a(Vinsert
p2557
I42
VSimpleName: init
p2558
tp2559
a(Vinsert
p2560
I42
VSimpleName: redefineMockNameIfSurrogate
p2561
tp2562
a(Vinsert
p2563
I42
VSimpleName: voidMethodStubbable
p2564
tp2565
a(Vinsert
p2566
I42
VSimpleName: useConstructor
p2567
tp2568
a(Vinsert
p2569
I42
VSimpleName: getDeclaredFields
p2570
tp2571
a(Vinsert
p2572
I42
VSimpleName: addListener
p2573
tp2574
a(Vinsert
p2575
I42
VSimpleName: warnForVM
p2576
tp2577
a(Vinsert
p2578
I42
VSimpleName: concat
p2579
tp2580
a(Vinsert
p2581
I42
VSimpleName: matcher
p2582
tp2583
a(Vinsert
p2584
I42
VSimpleName: validateMock
p2585
tp2586
a(Vinsert
p2587
I42
VSimpleName: getLastArguments
p2588
tp2589
a(Vinsert
p2590
I42
VSimpleName: getAddress
p2591
tp2592
a(Vinsert
p2593
I42
VSimpleName: addInvocation
p2594
tp2595
a(Vinsert
p2596
I42
VSimpleName: createStrictStubs
p2597
tp2598
a(Vinsert
p2599
I42
VSimpleName: getNested
p2600
tp2601
a(Vinsert
p2602
I42
VSimpleName: returnsNull
p2603
tp2604
a(Vinsert
p2605
I42
VSimpleName: getModifiers
p2606
tp2607
a(Vinsert
p2608
I42
VSimpleName: size
p2609
tp2610
a(Vinsert
p2611
I42
VSimpleName: describedAs
p2612
tp2613
a(Vinsert
p2614
I42
VSimpleName: verifyZeroInteractions
p2615
tp2616
a(Vinsert
p2617
I42
VSimpleName: findAllMatchingUnverifiedChunks
p2618
tp2619
a(Vinsert
p2620
I42
VSimpleName: declaredFieldsOf
p2621
tp2622
a(Vinsert
p2623
I42
VSimpleName: m1
p2624
tp2625
a(Vinsert
p2626
I42
VSimpleName: thenThrow
p2627
tp2628
a(Vinsert
p2629
I42
VSimpleName: getFailures
p2630
tp2631
a(Vinsert
p2632
I42
VSimpleName: updateArticleCounters
p2633
tp2634
a(Vinsert
p2635
I42
VSimpleName: addFirst
p2636
tp2637
a(Vinsert
p2638
I42
VSimpleName: toOperation
p2639
tp2640
a(Vinsert
p2641
I42
VSimpleName: smartNullPointerException
p2642
tp2643
a(Vinsert
p2644
I42
VSimpleName: bindMatchers
p2645
tp2646
a(Vinsert
p2647
I42
VSimpleName: callAsync
p2648
tp2649
a(Vinsert
p2650
I42
VSimpleName: voidMethod
p2651
tp2652
a(Vinsert
p2653
I42
VSimpleName: setStatus
p2654
tp2655
a(Vinsert
p2656
I42
VSimpleName: returnsElementsOf
p2657
tp2658
a.