(lp0
(Vinsert
p1
I42
VSimpleName: build
p2
tp3
a(Vinsert
p4
I42
VSimpleName: toASCIIString
p5
tp6
a(Vinsert
p7
I42
VSimpleName: close
p8
tp9
a(Vinsert
p10
I42
VSimpleName: isRunning
p11
tp12
a(Vinsert
p13
I42
VSimpleName: setAlpha
p14
tp15
a(Vinsert
p16
I42
VSimpleName: contains
p17
tp18
a(Vinsert
p19
I42
VSimpleName: setDescription
p20
tp21
a(Vinsert
p22
I42
VSimpleName: forName
p23
tp24
a(Vinsert
p25
I42
VSimpleName: onUpdate
p26
tp27
a(Vinsert
p28
I42
VSimpleName: getTime
p29
tp30
a(Vinsert
p31
I42
VSimpleName: setAdvertiseMode
p32
tp33
a(Vinsert
p34
I42
VSimpleName: setJavaScriptEnabled
p35
tp36
a(Vinsert
p37
I42
VSimpleName: jsonSerialize
p38
tp39
a(Vinsert
p40
I42
VSimpleName: restartScan
p41
tp42
a(Vinsert
p43
I42
VSimpleName: findViewById
p44
tp45
a(Vinsert
p46
I42
VSimpleName: has
p47
tp48
a(Vinsert
p49
I42
VSimpleName: addMetadata
p50
tp51
a(Vinsert
p52
I42
VSimpleName: substring
p53
tp54
a(Vinsert
p55
I42
VSimpleName: addItem
p56
tp57
a(Vinsert
p58
I42
VSimpleName: isCheckingPermissions
p59
tp60
a(Vinsert
p61
I42
VSimpleName: removeCallbacks
p62
tp63
a(Vinsert
p64
I42
VSimpleName: startScanning
p65
tp66
a(Vinsert
p67
I42
VSimpleName: onPwsResultAbsent
p68
tp69
a(Vinsert
p70
I42
VSimpleName: show
p71
tp72
a(Vinsert
p73
I42
VSimpleName: getJSONObject
p74
tp75
a(Vinsert
p76
I42
VSimpleName: get
p77
tp78
a(Vinsert
p79
I42
VSimpleName: setText
p80
tp81
a(Vinsert
p82
I42
VSimpleName: onResponseReceived
p83
tp84
a(Vinsert
p85
I42
VSimpleName: release
p86
tp87
a(Vinsert
p88
I42
VSimpleName: values
p89
tp90
a(Vinsert
p91
I42
VSimpleName: read
p92
tp93
a(Vinsert
p94
I42
VSimpleName: hasBleMetadata
p95
tp96
a(Vinsert
p97
I42
VSimpleName: getActionBar
p98
tp99
a(Vinsert
p100
I42
VSimpleName: getCustomPwsEndpoint
p101
tp102
a(Vinsert
p103
I42
VSimpleName: setGroup
p104
tp105
a(Vinsert
p106
I42
VSimpleName: sleep
p107
tp108
a(Vinsert
p109
I42
VSimpleName: setGroupId
p110
tp111
a(Vinsert
p112
I42
VSimpleName: isEmpty
p113
tp114
a(Vinsert
p115
I42
VSimpleName: currentTimeMillis
p116
tp117
a(Vinsert
p118
I42
VSimpleName: addIcon
p119
tp120
a(Vinsert
p121
I42
VSimpleName: compress
p122
tp123
a(Vinsert
p124
I42
VSimpleName: getUriString
p125
tp126
a(Vinsert
p127
I42
VSimpleName: cancel
p128
tp129
a(Vinsert
p130
I42
VSimpleName: encode
p131
tp132
a(Vinsert
p133
I42
VSimpleName: setEndpoint
p134
tp135
a(Vinsert
p136
I42
VSimpleName: nullSafeCompare
p137
tp138
a(Vinsert
p139
I42
VSimpleName: getId
p140
tp141
a(Vinsert
p142
I42
VSimpleName: i
p143
tp144
a(Vinsert
p145
I42
VSimpleName: getAction
p146
tp147
a(Vinsert
p148
I42
VSimpleName: getBooleanExtra
p149
tp150
a(Vinsert
p151
I42
VSimpleName: getTopRankedPwPairByGroupId
p152
tp153
a(Vinsert
p154
I42
VSimpleName: println
p155
tp156
a(Vinsert
p157
I42
VSimpleName: getExtraString
p158
tp159
a(Vinsert
p160
I42
VSimpleName: getSimpleName
p161
tp162
a(Vinsert
p163
I42
VSimpleName: getServiceInstance
p164
tp165
a(Vinsert
p166
I42
VSimpleName: top
p167
tp168
a(Vinsert
p169
I42
VSimpleName: getExtraData
p170
tp171
a(Vinsert
p172
I42
VSimpleName: newFixedLengthResponse
p173
tp174
a(Vinsert
p175
I42
VSimpleName: entrySet
p176
tp177
a(Vinsert
p178
I42
VSimpleName: onConnectionFinished
p179
tp180
a(Vinsert
p181
I42
VSimpleName: e
p182
tp183
a(Vinsert
p184
I42
VSimpleName: getDouble
p185
tp186
a(Vinsert
p187
I42
VSimpleName: openConnection
p188
tp189
a(Vinsert
p190
I42
VSimpleName: getString
p191
tp192
a(Vinsert
p193
I42
VSimpleName: parseFromServiceData
p194
tp195
a(Vinsert
p196
I42
VSimpleName: setWebViewClient
p197
tp198
a(Vinsert
p199
I42
VSimpleName: getServiceUuids
p200
tp201
a(Vinsert
p202
I42
VSimpleName: createNavigateToUrlIntent
p203
tp204
a(Vinsert
p205
I42
VSimpleName: setReuseAddress
p206
tp207
a(Vinsert
p208
I42
VSimpleName: setTitle
p209
tp210
a(Vinsert
p211
I42
VSimpleName: getService
p212
tp213
a(Vinsert
p214
I42
VSimpleName: stopScanning
p215
tp216
a(Vinsert
p217
I42
VSimpleName: warnUserOnMissingApiKey
p218
tp219
a(Vinsert
p220
I42
VSimpleName: getRank
p221
tp222
a(Vinsert
p223
I42
VSimpleName: sortDevices
p224
tp225
a(Vinsert
p226
I42
VSimpleName: setDoOutput
p227
tp228
a(Vinsert
p229
I42
VSimpleName: popBackStack
p230
tp231
a(Vinsert
p232
I42
VSimpleName: keyAt
p233
tp234
a(Vinsert
p235
I42
VSimpleName: makeText
p236
tp237
a(Vinsert
p238
I42
VSimpleName: stop
p239
tp240
a(Vinsert
p241
I42
VSimpleName: clear
p242
tp243
a(Vinsert
p244
I42
VSimpleName: isBleUrlDevice
p245
tp246
a(Vinsert
p247
I42
VSimpleName: getVisibility
p248
tp249
a(Vinsert
p250
I42
VSimpleName: isScreenOn
p251
tp252
a(Vinsert
p253
I42
VSimpleName: getUrlDevices
p254
tp255
a(Vinsert
p256
I42
VSimpleName: parseInt
p257
tp258
a(Vinsert
p259
I42
VSimpleName: getUrl
p260
tp261
a(Vinsert
p262
I42
VSimpleName: checkSelfPermission
p263
tp264
a(Vinsert
p265
I42
VSimpleName: isWifiDirect
p266
tp267
a(Vinsert
p268
I42
VSimpleName: setScanTimeMillis
p269
tp270
a(Vinsert
p271
I42
VSimpleName: getTitle
p272
tp273
a(Vinsert
p274
I42
VSimpleName: findFragmentByTag
p275
tp276
a(Vinsert
p277
I42
VSimpleName: removeAll
p278
tp279
a(Vinsert
p280
I42
VSimpleName: getMetadataByBroadcastUrl
p281
tp282
a(Vinsert
p283
I42
VSimpleName: addUrlDeviceJsonSerializer
p284
tp285
a(Vinsert
p286
I42
VSimpleName: notifyDataSetChanged
p287
tp288
a(Vinsert
p289
I42
VSimpleName: uriLength
p290
tp291
a(Vinsert
p292
I42
VSimpleName: onUrlMetadataReceived
p293
tp294
a(Vinsert
p295
I42
VSimpleName: w
p296
tp297
a(Vinsert
p298
I42
VSimpleName: hasUrlMetadata
p299
tp300
a(Vinsert
p301
I42
VSimpleName: onNewUrl
p302
tp303
a(Vinsert
p304
I42
VSimpleName: isWifiDirectDevice
p305
tp306
a(Vinsert
p307
I42
VSimpleName: containsKey
p308
tp309
a(Vinsert
p310
I42
VSimpleName: create
p311
tp312
a(Vinsert
p313
I42
VSimpleName: isEnabled
p314
tp315
a(Vinsert
p316
I42
VSimpleName: getSiteUrl
p317
tp318
a(Vinsert
p319
I42
VSimpleName: deleteCache
p320
tp321
a(Vinsert
p322
I42
VSimpleName: setTextColor
p323
tp324
a(Vinsert
p325
I42
VSimpleName: getExtraInt
p326
tp327
a(Vinsert
p328
I42
VSimpleName: setApplicationName
p329
tp330
a(Vinsert
p331
I42
VSimpleName: asList
p332
tp333
a(Vinsert
p334
I42
VSimpleName: putExtra
p335
tp336
a(Vinsert
p337
I42
VSimpleName: addPair
p338
tp339
a(Vinsert
p340
I42
VSimpleName: newDistanceComparator
p341
tp342
a(Vinsert
p343
I42
VSimpleName: getActivity
p344
tp345
a(Vinsert
p346
I42
VSimpleName: encodeUri
p347
tp348
a(Vinsert
p349
I42
VSimpleName: startsWith
p350
tp351
a(Vinsert
p352
I42
VSimpleName: getServiceName
p353
tp354
a(Vinsert
p355
I42
VSimpleName: setPrivate
p356
tp357
a(Vinsert
p358
I42
VSimpleName: setCheckingPermissions
p359
tp360
a(Vinsert
p361
I42
VSimpleName: getDebugViewEnabled
p362
tp363
a(Vinsert
p364
I42
VSimpleName: jsonDeserialize
p365
tp366
a(Vinsert
p367
I42
VSimpleName: unregisterReceiver
p368
tp369
a(Vinsert
p370
I42
VSimpleName: remove
p371
tp372
a(Vinsert
p373
I42
VSimpleName: getScanRecord
p374
tp375
a(Vinsert
p376
I42
VSimpleName: parseFromBytes
p377
tp378
a(Vinsert
p379
I42
VSimpleName: onSsdpUrlFound
p380
tp381
a(Vinsert
p382
I42
VSimpleName: setRequestMethod
p383
tp384
a(Vinsert
p385
I42
VSimpleName: parseUuidFrom
p386
tp387
a(Vinsert
p388
I42
VSimpleName: setEmptyView
p389
tp390
a(Vinsert
p391
I42
VSimpleName: addBlocked
p392
tp393
a(Vinsert
p394
I42
VSimpleName: printStackTrace
p395
tp396
a(Vinsert
p397
I42
VSimpleName: getInstance
p398
tp399
a(Vinsert
p400
I42
VSimpleName: equals
p401
tp402
a(Vinsert
p403
I42
VSimpleName: getAddress
p404
tp405
a(Vinsert
p406
I42
VSimpleName: isNetworkUrl
p407
tp408
a(Vinsert
p409
I42
VSimpleName: getColor
p410
tp411
a(Vinsert
p412
I42
VSimpleName: setSharedPreferencesDefaultValues
p413
tp414
a(Vinsert
p415
I42
VSimpleName: put
p416
tp417
a(Vinsert
p418
I42
VSimpleName: isBlocked
p419
tp420
a(Vinsert
p421
I42
VSimpleName: add
p422
tp423
a(Vinsert
p424
I42
VSimpleName: getUrlDevice
p425
tp426
a(Vinsert
p427
I42
VSimpleName: setVisibility
p428
tp429
a(Vinsert
p430
I42
VSimpleName: startScan
p431
tp432
a(Vinsert
p433
I42
VSimpleName: uriString
p434
tp435
a(Vinsert
p436
I42
VSimpleName: updateRegionInfo
p437
tp438
a(Vinsert
p439
I42
VSimpleName: getPwsResult
p440
tp441
a(Vinsert
p442
I42
VSimpleName: addPreference
p443
tp444
a(Vinsert
p445
I42
VSimpleName: isDemoStarted
p446
tp447
a(Vinsert
p448
I42
VSimpleName: cancelAll
p449
tp450
a(Vinsert
p451
I42
VSimpleName: postDelayed
p452
tp453
a(Vinsert
p454
I42
VSimpleName: getDefaultSharedPreferences
p455
tp456
a(Vinsert
p457
I42
VSimpleName: fromString
p458
tp459
a(Vinsert
p460
I42
VSimpleName: setTxPower
p461
tp462
a(Vinsert
p463
I42
VSimpleName: shortenUrl
p464
tp465
a(Vinsert
p466
I42
VSimpleName: getIconUrl
p467
tp468
a(Vinsert
p469
I42
VSimpleName: setDuration
p470
tp471
a(Vinsert
p472
I42
VSimpleName: encodeToString
p473
tp474
a(Vinsert
p475
I42
VSimpleName: d
p476
tp477
a(Vinsert
p478
I42
VSimpleName: lengthenShortUrl
p479
tp480
a(Vinsert
p481
I42
VSimpleName: beginTransaction
p482
tp483
a(Vinsert
p484
I42
VSimpleName: startLeScan
p485
tp486
a(Vinsert
p487
I42
VSimpleName: getEntry
p488
tp489
a(Vinsert
p490
I42
VSimpleName: length
p491
tp492
a(Vinsert
p493
I42
VSimpleName: getBytes
p494
tp495
a(Vinsert
p496
I42
VSimpleName: commit
p497
tp498
a(Vinsert
p499
I42
VSimpleName: findItem
p500
tp501
a(Vinsert
p502
I42
VSimpleName: setData
p503
tp504
a(Vinsert
p505
I42
VSimpleName: max
p506
tp507
a(Vinsert
p508
I42
VSimpleName: getChildCount
p509
tp510
a(Vinsert
p511
I42
VSimpleName: isResolvableDevice
p512
tp513
a(Vinsert
p514
I42
VSimpleName: isPublic
p515
tp516
a(Vinsert
p517
I42
VSimpleName: getSmoothedRssi
p518
tp519
a(Vinsert
p520
I42
VSimpleName: setBackgroundColor
p521
tp522
a(Vinsert
p523
I42
VSimpleName: optString
p524
tp525
a(Vinsert
p526
I42
VSimpleName: parse
p527
tp528
a(Vinsert
p529
I42
VSimpleName: hashCode
p530
tp531
a(Vinsert
p532
I42
VSimpleName: getStringExtra
p533
tp534
a(Vinsert
p535
I42
VSimpleName: getGroupId
p536
tp537
a(Vinsert
p538
I42
VSimpleName: setCompoundDrawablesWithIntrinsicBounds
p539
tp540
a(Vinsert
p541
I42
VSimpleName: getRegion
p542
tp543
a(Vinsert
p544
I42
VSimpleName: mkdir
p545
tp546
a(Vinsert
p547
I42
VSimpleName: replace
p548
tp549
a(Vinsert
p550
I42
VSimpleName: size
p551
tp552
a(Vinsert
p553
I42
VSimpleName: onUrlMetadataIconError
p554
tp555
a(Vinsert
p556
I42
VSimpleName: keySet
p557
tp558
a(Vinsert
p559
I42
VSimpleName: getWifiAddress
p560
tp561
a(Vinsert
p562
I42
VSimpleName: getSystemService
p563
tp564
a(Vinsert
p565
I42
VSimpleName: getRequestUrl
p566
tp567
a(Vinsert
p568
I42
VSimpleName: setPwsEndpoint
p569
tp570
a(Vinsert
p571
I42
VSimpleName: compareTo
p572
tp573
a(Vinsert
p574
I42
VSimpleName: setDefaultValues
p575
tp576
a(Vinsert
p577
I42
VSimpleName: setSmallIcon
p578
tp579
a(Vinsert
p580
I42
VSimpleName: getPackageName
p581
tp582
a(Vinsert
p583
I42
VSimpleName: runOnUiThread
p584
tp585
a(Vinsert
p586
I42
VSimpleName: setUrlMetadata
p587
tp588
a(Vinsert
p589
I42
VSimpleName: performClick
p590
tp591
a(Vinsert
p592
I42
VSimpleName: setBackgroundResource
p593
tp594
a(Vinsert
p595
I42
VSimpleName: v
p596
tp597
a(Vinsert
p598
I42
VSimpleName: interrupt
p599
tp600
a(Vinsert
p601
I42
VSimpleName: getMdnsEnabled
p602
tp603
a(Vinsert
p604
I42
VSimpleName: arraycopy
p605
tp606
a(Vinsert
p607
I42
VSimpleName: isUrlFrame
p608
tp609
a(Vinsert
p610
I42
VSimpleName: startService
p611
tp612
a(Vinsert
p613
I42
VSimpleName: onError
p614
tp615
a(Vinsert
p616
I42
VSimpleName: getPwoById
p617
tp618
a(Vinsert
p619
I42
VSimpleName: getBoolean
p620
tp621
a.