(dp0
(S'Token'
p1
I403
VmRequestCachedPwos
p2
tp3
I1
s(g1
I1255
VgetActivity
p4
tp5
I1
s(g1
I488
VjsonSerializePwsResult
p6
tp7
I1
s(g1
I567
Vmenu
p8
tp9
I1
s(g1
I299
VIntentFilter
p10
tp11
I1
s(g1
I489
VurlGroup1
p12
tp13
I1
s(g1
I129
Vis
p14
tp15
I1
s(g1
I374
VList
p16
tp17
I1
s(g1
I200
VLog
p18
tp19
I1
s(g1
I516
VonPrepareOptionsMenu
p20
tp21
I1
s(g1
I1785
VString
p22
tp23
I1
s(g1
I305
Vintent
p24
tp25
I1
s(g1
I942
VrxPower
p26
tp27
I1
s(g1
I1333
VgetPwsResult
p28
tp29
I1
s(g1
I2167
VTextView
p30
tp31
I1
s(g1
I1644
VmUrlToDeviceAddress
p32
tp33
I1
s(g1
I166
VotherUrlDevice
p34
tp35
I1
s(g1
I230
VjsonUrlMetadata
p36
tp37
I1
s(g1
I234
Vrun
p38
tp39
I1
s(g1
I96
VMAX_ENDPOINT_OPTIONS
p40
tp41
I1
s(g1
I254
Vbuilder
p42
tp43
I2
s(g1
I442
VJSONObject
p44
tp45
I1
s(g1
I141
VinitializeNearbyDevicesListView
p46
tp47
I1
s(g1
I125
VmNearbyDevicesListView
p48
tp49
I1
s(g1
I667
VUrlShortener
p50
tp51
I1
s(g1
I1330
Vurls
p52
tp53
I1
s(g1
I2005
Vget
p54
tp55
I1
s(g1
I689
VPermissionCheck
p56
tp57
I1
s(g1
I699
VgetHost
p58
tp59
I1
s(g1
I901
VPwPair
p60
tp61
I1
s(g1
I898
VsiteUrls
p62
tp63
I1
s(g1
I644
VgetScanRecord
p64
tp65
I1
s(g1
I659
VgetFragmentManager
p66
tp67
I1
s(g1
I456
VmUrlDeviceDiscoveryListeners
p68
tp69
I1
s(g1
I1170
VoutGroupMap
p70
tp71
I1
s(g1
I566
VCHARACTERISTIC_WEBPAGE_UUID
p72
tp73
I1
s(g1
I573
VfromJsonStr
p74
tp75
I1
s(g1
I930
VmWifiDirectConnect
p76
tp77
I1
s(g1
I108
VcreateRankedPair
p78
tp79
I1
s(g1
I811
VisShortUrl
p80
tp81
I1
s(g1
I453
VSocketTimeoutException
p82
tp83
I1
s(g1
I2128
VPwsResult
p84
tp85
I1
s(g1
I80
VstartService
p86
tp87
I1
s(g1
I106
VArrayList
p88
tp89
I1
s(g1
I119
Vservices
p90
tp91
I1
s(g1
I467
VrootView
p92
tp93
I1
s(g1
I305
Vfilter
p94
tp95
I1
s(g1
I193
VphysicalWebCollection1
p96
tp97
I2
s(g1
I409
VmDiscoveryService
p98
tp99
I1
s(g1
I852
VmHandler
p100
tp101
I1
s(g1
I344
Vintent
p102
tp103
I1
s(g1
I567
VcustomPwsApiKey
p104
tp105
I1
s(g1
I56
VgetUrl
p106
tp107
I1
s(g1
I415
VLog
p108
tp109
I1
s(g1
I1009
VscanLeDevice
p110
tp111
I1
s(g1
I550
Vresources
p112
tp113
I1
s(g1
I371
VList
p114
tp115
I1
s(g1
I455
Ve
p116
tp117
I1
s(g1
I1032
VpwsEndpoint
p118
tp119
I1
s(g1
I902
VisFolderItem
p120
tp121
I1
s(g1
I200
Vintent
p122
tp123
I1
s(g1
I239
VRunnable
p124
tp125
I1
s(g1
I100
VurlDevice1
p126
tp127
I1
s(g1
I1140
VpwPair
p128
tp129
I1
s(g1
I68
Vintent
p130
tp131
I1
s(g1
I419
VmDataLength
p132
tp133
I1
s(g1
I750
VUrlShortener
p134
tp135
I1
s(g1
I618
VPwoMetadata
p136
tp137
I1
s(g1
I202
VsetPwsEndpointPreference
p138
tp139
I1
s(g1
I588
Vid
p140
tp141
I1
s(g1
I1044
VuriString
p142
tp143
I1
s(g1
I204
VcompareResultToItselfReturnsZero
p144
tp145
I1
s(g1
I618
VAboutFragment
p146
tp147
I1
s(g1
I22
VMdnsUrlDeviceDiscoverer
p148
tp149
I1
s(g1
I119
Vother
p150
tp151
I1
s(g1
I910
VpwPair
p152
tp153
I1
s(g1
I247
Vi
p154
tp155
I1
s(g1
I286
Vi
p156
tp157
I1
s(g1
I679
VshowBlockedFragment
p158
tp159
I1
s(g1
I460
VIOException
p160
tp161
I1
s(g1
I197
VmScanningAnimationDrawable
p162
tp163
I1
s(g1
I695
VgetDouble
p164
tp165
I1
s(g1
I108
VURL2
p166
tp167
I1
s(g1
I76
VassertEquals
p168
tp169
I1
s(g1
I205
VcreatePwoMetadata
p170
tp171
I1
s(g1
I632
VOverride
p172
tp173
I1
s(g1
I899
Vstarted
p174
tp175
I1
s(g1
I697
VsetSharedPreferencesDefaultValues
p176
tp177
I1
s(g1
I1399
VUtils
p178
tp179
I1
s(g1
I120
VurlDevice
p180
tp181
I1
s(g1
I75
VTAG
p182
tp183
I1
s(g1
I601
VsetTitle
p184
tp185
I1
s(g1
I895
Vresolve
p186
tp187
I1
s(g1
I171
Vposition
p188
tp189
I1
s(g1
I2164
VscanTimeString
p190
tp191
I1
s(g1
I701
VassertTrue
p192
tp193
I1
s(g1
I364
VshortUrl
p194
tp195
I1
s(g1
I630
VmNotificationManager
p196
tp197
I1
s(g1
I160
Vindex
p198
tp199
I1
s(g1
I290
Vgatt
p200
tp201
I1
s(g1
I71
VurlDeviceDiscoveryCallback
p202
tp203
I1
s(g1
I1744
VmPwoResponseCallbacks
p204
tp205
I1
s(g1
I370
VmScanningImageView
p206
tp207
I1
s(g1
I455
VbindService
p208
tp209
I1
s(g1
I179
Vput
p210
tp211
I1
s(g1
I573
VputInt
p212
tp213
I1
s(g1
I575
VmPwCollection
p214
tp215
I1
s(g1
I679
VmakeText
p216
tp217
I1
s(g1
I138
VjsonObject
p218
tp219
I1
s(g1
I372
VOverride
p220
tp221
I1
s(g1
I483
Vvalues
p222
tp223
I1
s(g1
I407
Vd
p224
tp225
I1
s(g1
I907
VisWifiDirectDevice
p226
tp227
I1
s(g1
I481
VString
p228
tp229
I1
s(g1
I639
VPhysicalWebCollection
p230
tp231
I1
s(g1
I419
Vbuild
p232
tp233
I1
s(g1
I68
VPwo
p234
tp235
I1
s(g1
I446
ViconUrl
p236
tp237
I1
s(g1
I766
VmHandler
p238
tp239
I1
s(g1
I1742
VpwoDiscoverer
p240
tp241
I1
s(g1
I1027
VgetGroupedPwPairsSortedByRank
p242
tp243
I1
s(g1
I2027
VTextView
p244
tp245
I1
s(g1
I248
VgetBytes
p246
tp247
I1
s(g1
I855
VstopSearchingForUriBeacons
p248
tp249
I1
s(g1
I732
VUtils
p250
tp251
I1
s(g1
I330
VBuilder
p252
tp253
I1
s(g1
I641
VgetId
p254
tp255
I1
s(g1
I108
Vrun
p256
tp257
I1
s(g1
I1420
VremoteViews
p258
tp259
I1
s(g1
I376
Vview
p260
tp261
I1
s(g1
I1008
VURLEncoder
p262
tp263
I1
s(g1
I431
VmPwoDiscoverers
p264
tp265
I1
s(g1
I1227
VString
p266
tp267
I1
s(g1
I578
VJSONException
p268
tp269
I1
s(g1
I633
VgetActivity
p270
tp271
I1
s(g1
I634
VgetContentResolver
p272
tp273
I1
s(g1
I566
VbyteBuffer
p274
tp275
I1
s(g1
I69
VString
p276
tp277
I1
s(g1
I213
Vhash
p278
tp279
I1
s(g1
I435
Vcharacteristic
p280
tp281
I1
s(g1
I1683
VmComparator
p282
tp283
I1
s(g1
I297
VArrayList
p284
tp285
I1
s(g1
I1186
VString
p286
tp287
I1
s(g1
I225
VEddystoneBeacon
p288
tp289
I1
s(g1
I1137
VsortedPwPairs
p290
tp291
I1
s(g1
I18
S''
p292
tp293
I1
s(g1
I173
VpwsResult
p294
tp295
I1
s(g1
I582
Vvalue
p296
tp297
I1
s(g1
I486
VpwsResult
p298
tp299
I1
s(g1
I2077
VreadCustomPwsEndpointApiKey
p300
tp301
I1
s(g1
I1199
VHashMap
p302
tp303
I1
s(g1
I183
Vhash
p304
tp305
I1
s(g1
I450
VmUrlDeviceDiscoverers
p306
tp307
I1
s(g1
I62
Vtarget
p308
tp309
I1
s(g1
I252
VpwsResult
p310
tp311
I1
s(g1
I80
VString
p312
tp313
I2
s(g1
I235
VhashCode
p314
tp315
I1
s(g1
I39
VT
p316
tp317
I1
s(g1
I203
Vpriority
p318
tp319
I1
s(g1
I535
VURL
p320
tp321
I1
s(g1
I916
VmWifiDirectConnect
p322
tp323
I1
s(g1
I1835
VDate
p324
tp325
I1
s(g1
I165
VJSONObject
p326
tp327
I1
s(g1
I201
VscanLeDevice
p328
tp329
I1
s(g1
I207
VmListItems
p330
tp331
I1
s(g1
I282
VmUrlDevice1
p332
tp333
I1
s(g1
I773
VURL3b
p334
tp335
I1
s(g1
I1500
VsetOnClickListener
p336
tp337
I1
s(g1
I3960
VFileOutputStream
p338
tp339
I1
s(g1
I617
VurlMetadata
p340
tp341
I1
s(g1
I1019
VBeaconConfigHelper
p342
tp343
I1
s(g1
I279
VjsonDeserializeWorks
p344
tp345
I1
s(g1
I274
VtintColor
p346
tp347
I1
s(g1
I1060
Vurl
p348
tp349
I1
s(g1
I560
Vuuid
p350
tp351
I1
s(g1
I208
VpwsClient
p352
tp353
I1
s(g1
I1529
VfindViewById
p354
tp355
I1
s(g1
I765
VmIsScanRunning
p356
tp357
I1
s(g1
I487
VPwsResultCallback
p358
tp359
I1
s(g1
I849
Vlength
p360
tp361
I1
s(g1
I455
VrootView
p362
tp363
I1
s(g1
I270
Vdescription
p364
tp365
I1
s(g1
I89
VadvertisingPacket
p366
tp367
I1
s(g1
I579
VmVelocityTracker
p368
tp369
I1
s(g1
I429
VonResume
p370
tp371
I1
s(g1
I879
Venable
p372
tp373
I1
s(g1
I456
VpowerManager
p374
tp375
I1
s(g1
I354
VUrlDevice
p376
tp377
I1
s(g1
I556
VcontentTitle
p378
tp379
I1
s(g1
I622
VupdateNotifications
p380
tp381
I1
s(g1
I945
VmNearbyDeviceAdapter
p382
tp383
I1
s(g1
I92
VwebView
p384
tp385
I1
s(g1
I2023
Vrank
p386
tp387
I1
s(g1
I1391
VmPwPairs
p388
tp389
I1
s(g1
I89
VurlConnection
p390
tp391
I1
s(g1
I566
VmPwoResponseCallbacks
p392
tp393
I1
s(g1
I366
VScreenListenerService
p394
tp395
I1
s(g1
I906
VgetUrlDevice
p396
tp397
I1
s(g1
I967
VmHandler
p398
tp399
I1
s(g1
I507
VonPwsResult
p400
tp401
I1
s(g1
I304
VjsonResponse
p402
tp403
I1
s(g1
I44
Vo1
p404
tp405
I1
s(g1
I345
VgetAdapter
p406
tp407
I1
s(g1
I517
VrequestMtu
p408
tp409
I1
s(g1
I1004
VArrayList
p410
tp411
I2
s(g1
I210
VphysicalWebCollection
p412
tp413
I1
s(g1
I453
VArrayList
p414
tp415
I1
s(g1
I2140
VgetString
p416
tp417
I1
s(g1
I226
VPROD_ENDPOINT_VERSION
p418
tp419
I1
s(g1
I291
VjsonObject
p420
tp421
I1
s(g1
I567
VjsonDeserialize
p422
tp423
I1
s(g1
I1007
VOverride
p424
tp425
I1
s(g1
I68
VurlDeviceDiscoveryCallback
p426
tp427
I1
s(g1
I247
Vd
p428
tp429
I1
s(g1
I1482
VmessageId
p430
tp431
I1
s(g1
I581
Vurl
p432
tp433
I1
s(g1
I487
Vput
p434
tp435
I1
s(g1
I993
VLog
p436
tp437
I1
s(g1
I179
VjsonObject
p438
tp439
I1
s(g1
I951
Vintent
p440
tp441
I1
s(g1
I2156
VscanTime
p442
tp443
I1
s(g1
I80
Vserve
p444
tp445
I1
s(g1
I242
VjsonUrlMetadata
p446
tp447
I1
s(g1
I171
VassertEquals
p448
tp449
I1
s(g1
I194
VpwsResult
p450
tp451
I1
s(g1
I41
Vintent
p452
tp453
I1
s(g1
I967
VmScanTimeout
p454
tp455
I1
s(g1
I382
VshortUrl
p456
tp457
I1
s(g1
I583
VfindItem
p458
tp459
I1
s(g1
I133
Vservice
p460
tp461
I1
s(g1
I72
VtestComparator
p462
tp463
I1
s(g1
I822
VPwPair
p464
tp465
I1
s(g1
I1327
Vremove
p466
tp467
I1
s(g1
I865
Vcontext
p468
tp469
I1
s(g1
I333
Ve
p470
tp471
I1
s(g1
I1361
VrequestID
p472
tp473
I1
s(g1
I876
Venable
p474
tp475
I1
s(g1
I568
VDevice
p476
tp477
I1
s(g1
I172
VprintStackTrace
p478
tp479
I1
s(g1
I372
VTextView
p480
tp481
I1
s(g1
I993
VdownloadIconCallback
p482
tp483
I1
s(g1
I383
VmPwoDiscoverers
p484
tp485
I2
s(g1
I2127
Vformat
p486
tp487
I1
s(g1
I152
VLayoutInflater
p488
tp489
I1
s(g1
I121
VjsonObject
p490
tp491
I1
s(g1
I123
VPwsResult
p492
tp493
I1
s(g1
I158
VURL1
p494
tp495
I1
s(g1
I429
VgetActivity
p496
tp497
I1
s(g1
I284
VOverride
p498
tp499
I1
s(g1
I1044
VmockAddress
p500
tp501
I1
s(g1
I338
VshortenUrl
p502
tp503
I1
s(g1
I239
Vconfig
p504
tp505
I1
s(g1
I1325
Vitem
p506
tp507
I1
s(g1
I681
VbyteBufferArray
p508
tp509
I1
s(g1
I1803
VPendingIntent
p510
tp511
I1
s(g1
I94
VisDemoStarted
p512
tp513
I1
s(g1
I330
VisShortUrl
p514
tp515
I1
s(g1
I1104
Vkey
p516
tp517
I1
s(g1
I587
VmDownX
p518
tp519
I1
s(g1
I269
VjsonUrlMetadata
p520
tp521
I2
s(g1
I1310
VuriBeacon
p522
tp523
I1
s(g1
I908
VgetLeScanner
p524
tp525
I1
s(g1
I804
Vsize
p526
tp527
I1
s(g1
I238
VscanResult
p528
tp529
I1
s(g1
I562
Vmenu
p530
tp531
I1
s(g1
I99
VonConnectionFinished
p532
tp533
I1
s(g1
I988
VstartActivity
p534
tp535
I1
s(g1
I564
VLog
p536
tp537
I1
s(g1
I385
VrootView
p538
tp539
I1
s(g1
I563
VgetService
p540
tp541
I1
s(g1
I1929
Vurl
p542
tp543
I1
s(g1
I746
VpwoMetadata
p544
tp545
I1
s(g1
I662
VUrlShortener
p546
tp547
I1
s(g1
I428
VOverride
p548
tp549
I1
s(g1
I181
VPwPair
p550
tp551
I1
s(g1
I438
VJSONObject
p552
tp553
I1
s(g1
I235
Vi
p554
tp555
I1
s(g1
I1103
Vurl
p556
tp557
I1
s(g1
I533
VString
p558
tp559
I1
s(g1
I567
VfindItem
p560
tp561
I1
s(g1
I357
VgetSmoothedRssi
p562
tp563
I1
s(g1
I436
VgetActivity
p564
tp565
I1
s(g1
I552
VString
p566
tp567
I1
s(g1
I84
VTextView
p568
tp569
I1
s(g1
I1016
VsetRefreshing
p570
tp571
I1
s(g1
I342
Ve
p572
tp573
I1
s(g1
I448
VjsonPageInfo
p574
tp575
I1
s(g1
I2386
VisBleUrlDevice
p576
tp577
I1
s(g1
I346
VmBluetoothAdapter
p578
tp579
I1
s(g1
I780
VonStartFailure
p580
tp581
I1
s(g1
I203
Vclose
p582
tp583
I1
s(g1
I477
VcurrentThread
p584
tp585
I1
s(g1
I1405
Vtitle
p586
tp587
I1
s(g1
I1362
VsetContentIntent
p588
tp589
I1
s(g1
I202
VmThread
p590
tp591
I1
s(g1
I1804
VgetActivity
p592
tp593
I1
s(g1
I1386
Vrun
p594
tp595
I1
s(g1
I973
VurlMetadata
p596
tp597
I1
s(g1
I459
Vi
p598
tp599
I1
s(g1
I13
VMap
p600
tp601
I1
s(g1
I464
VpwPair1
p602
tp603
I1
s(g1
I753
VwebsiteDir
p604
tp605
I1
s(g1
I757
VString
p606
tp607
I1
s(g1
I237
VgetString
p608
tp609
I1
s(g1
I209
VString
p610
tp611
I1
s(g1
I145
VassertEquals
p612
tp613
I1
s(g1
I248
VgetString
p614
tp615
I1
s(g1
I549
VLog
p616
tp617
I1
s(g1
I580
VgroupId
p618
tp619
I1
s(g1
I39
VID1
p620
tp621
I1
s(g1
I388
VString
p622
tp623
I1
s(g1
I171
Vurl
p624
tp625
I1
s(g1
I1031
Vput
p626
tp627
I1
s(g1
I1827
VpwsTripTimeString
p628
tp629
I1
s(g1
I268
VTITLE1
p630
tp631
I1
s(g1
I158
VioException
p632
tp633
I2
s(g1
I326
Vintent
p634
tp635
I1
s(g1
I191
VUrlGroup
p636
tp637
I1
s(g1
I519
VrunOnUiThread
p638
tp639
I1
s(g1
I829
VfilteredUuid
p640
tp641
I1
s(g1
I216
Vmenu
p642
tp643
I1
s(g1
I173
VgetRank
p644
tp645
I1
s(g1
I1699
VotherAddress
p646
tp647
I1
s(g1
I98
VTAG
p648
tp649
I1
s(g1
I292
VscanResult
p650
tp651
I1
s(g1
I584
Vresolve
p652
tp653
I1
s(g1
I1241
VonError
p654
tp655
I1
s(g1
I1499
VToast
p656
tp657
I1
s(g1
I475
Vmetadata
p658
tp659
I1
s(g1
I638
Vurl
p660
tp661
I1
s(g1
I1678
Vother
p662
tp663
I1
s(g1
I413
VsiteUrl
p664
tp665
I1
s(g1
I1353
VObjectAnimator
p666
tp667
I1
s(g1
I297
VmExtraData
p668
tp669
I1
s(g1
I2519
VurlDevice
p670
tp671
I1
s(g1
I305
VgetScanRecord
p672
tp673
I1
s(g1
I1095
VupdateNotifications
p674
tp675
I1
s(g1
I466
VPhysicalWebCollection
p676
tp677
I1
s(g1
I126
Vmap
p678
tp679
I1
s(g1
I416
VensureLocationPermissionIsEnabled
p680
tp681
I1
s(g1
I547
VParcelUuid
p682
tp683
I1
s(g1
I159
Vline
p684
tp685
I1
s(g1
I1929
Vget
p686
tp687
I1
s(g1
I763
VgetBlockedHosts
p688
tp689
I1
s(g1
I206
VaddItem
p690
tp691
I1
s(g1
I1815
VDecimalFormat
p692
tp693
I1
s(g1
I1766
VclearCache
p694
tp695
I1
s(g1
I1804
VpendingIntent
p696
tp697
I1
s(g1
I55
VService
p698
tp699
I1
s(g1
I185
VSSDP_ADDRESS
p700
tp701
I1
s(g1
I1021
VmDeviceAddressToUrl
p702
tp703
I1
s(g1
I586
VmCallback
p704
tp705
I1
s(g1
I491
VbeaconDisplayItem
p706
tp707
I1
s(g1
I240
VisFatBeacon
p708
tp709
I1
s(g1
I393
VmScanningAnimation
p710
tp711
I1
s(g1
I1827
VpwsTripTimeView
p712
tp713
I1
s(g1
I1025
VmockTxPower
p714
tp715
I1
s(g1
I285
Vstatus
p716
tp717
I1
s(g1
I2154
VUtils
p718
tp719
I1
s(g1
I258
VsetBackgroundColor
p720
tp721
I1
s(g1
I1487
Vv
p722
tp723
I1
s(g1
I623
VgetPwPairsSortedByRank
p724
tp725
I1
s(g1
I1341
VpwsResult
p726
tp727
I1
s(g1
I207
VnewCompatibleTransport
p728
tp729
I1
s(g1
I281
VurlDevice
p730
tp731
I1
s(g1
I717
VsiteUrl
p732
tp733
I1
s(g1
I1336
VonPwsResultError
p734
tp735
I1
s(g1
I1185
VreadCustomPwsEndpointApiKey
p736
tp737
I1
s(g1
I304
Vadd
p738
tp739
I1
s(g1
I1214
VuriBeacon
p740
tp741
I1
s(g1
I442
VurlDeviceDiscoverer
p742
tp743
I1
s(g1
I298
VString
p744
tp745
I2
s(g1
I284
VJSONObject
p746
tp747
I1
s(g1
I357
VEditText
p748
tp749
I1
s(g1
I1539
VTextView
p750
tp751
I1
s(g1
I460
VencodeBase64
p752
tp753
I1
s(g1
I27
Vintent
p754
tp755
I3
s(g1
I571
ViconUrl
p756
tp757
I1
s(g1
I1729
VPhysicalWebCollection
p758
tp759
I1
s(g1
I668
VonResume
p760
tp761
I1
s(g1
I1116
VConfigUriBeacon
p762
tp763
I1
s(g1
I688
VmIsBound
p764
tp765
I1
s(g1
I882
VmIsScanRunning
p766
tp767
I1
s(g1
I325
VsRegionResolver
p768
tp769
I1
s(g1
I1350
VString
p770
tp771
I1
s(g1
I474
VUtils
p772
tp773
I1
s(g1
I1738
VpwoDiscoverer
p774
tp775
I1
s(g1
I731
VString
p776
tp777
I1
s(g1
I1129
VUtils
p778
tp779
I1
s(g1
I479
VurlGroup2
p780
tp781
I1
s(g1
I301
VassertNotEquals
p782
tp783
I1
s(g1
I497
VmPwoDiscoverers
p784
tp785
I1
s(g1
I426
VshowSettingsFragment
p786
tp787
I1
s(g1
I926
VgetUrlDevice
p788
tp789
I2
s(g1
I591
Vmenu
p790
tp791
I1
s(g1
I1027
VcreateUrlProxyGoLink
p792
tp793
I1
s(g1
I437
VIntent
p794
tp795
I1
s(g1
I1139
VNO_URI
p796
tp797
I1
s(g1
I280
VjsonObject
p798
tp799
I1
s(g1
I1813
VfindViewById
p800
tp801
I1
s(g1
I59
VIHTTPSession
p802
tp803
I1
s(g1
I1095
VgetText
p804
tp805
I1
s(g1
I866
VTAG
p806
tp807
I1
s(g1
I1358
VgroupId
p808
tp809
I1
s(g1
I208
Vhash
p810
tp811
I1
s(g1
I134
Vd
p812
tp813
I1
s(g1
I206
VmType
p814
tp815
I1
s(g1
I327
VContext
p816
tp817
I1
s(g1
I563
Vmenu
p818
tp819
I1
s(g1
I224
VaddItem
p820
tp821
I1
s(g1
I675
VJSONException
p822
tp823
I1
s(g1
I1118
VpwsResult
p824
tp825
I1
s(g1
I31
VComparator
p826
tp827
I1
s(g1
I255
VURL1
p828
tp829
I3
s(g1
I582
VUrlDevice
p830
tp831
I1
s(g1
I226
VUrlDevice
p832
tp833
I1
s(g1
I46
VgetString
p834
tp835
I1
s(g1
I1522
VTextView
p836
tp837
I1
s(g1
I39
VURL1
p838
tp839
I1
s(g1
I1376
VgetDescription
p840
tp841
I1
s(g1
I205
VmThread
p842
tp843
I1
s(g1
I601
VListPreference
p844
tp845
I1
s(g1
I129
Vurl
p846
tp847
I2
s(g1
I339
VREQUESTURL_KEY
p848
tp849
I1
s(g1
I375
VmPwoDiscoverers
p850
tp851
I1
s(g1
I1354
VgetPwsResult
p852
tp853
I1
s(g1
I88
Vview
p854
tp855
I1
s(g1
I83
VjsonObject
p856
tp857
I1
s(g1
I875
VmPwCollection
p858
tp859
I1
s(g1
I424
Vintent
p860
tp861
I1
s(g1
I962
Venable
p862
tp863
I1
s(g1
I148
VgetUrlReturnsUrl
p864
tp865
I1
s(g1
I316
VgetCurrentPwsEndpointVersion
p866
tp867
I1
s(g1
I404
VDATA_ONE
p868
tp869
I1
s(g1
I409
VonCreate
p870
tp871
I1
s(g1
I198
VpwsResult
p872
tp873
I1
s(g1
I100
Vget
p874
tp875
I1
s(g1
I1834
VgetString
p876
tp877
I1
s(g1
I297
VuriServiceData
p878
tp879
I1
s(g1
I827
VasList
p880
tp881
I1
s(g1
I1011
VstopScanning
p882
tp883
I1
s(g1
I983
VnearestAddress
p884
tp885
I1
s(g1
I3957
VFileOutputStream
p886
tp887
I1
s(g1
I40
VSettingsFragment
p888
tp889
I1
s(g1
I934
VrxPower
p890
tp891
I1
s(g1
I1346
VnewUrls
p892
tp893
I1
s(g1
I430
VOverride
p894
tp895
I1
s(g1
I410
VonSuccess
p896
tp897
I1
s(g1
I307
VgetBackground
p898
tp899
I1
s(g1
I1401
Vicon
p900
tp901
I1
s(g1
I481
Vintent
p902
tp903
I1
s(g1
I324
VcomparePairToItselfReturnsZero
p904
tp905
I1
s(g1
I197
Vstop
p906
tp907
I1
s(g1
I68
Vcontext
p908
tp909
I1
s(g1
I192
VLog
p910
tp911
I1
s(g1
I900
Vrun
p912
tp913
I1
s(g1
I614
Vbuild
p914
tp915
I1
s(g1
I156
VView
p916
tp917
I1
s(g1
I60
VIntent
p918
tp919
I1
s(g1
I693
VBase64
p920
tp921
I1
s(g1
I737
VFile
p922
tp923
I1
s(g1
I82
Vid
p924
tp925
I1
s(g1
I486
VonResponse
p926
tp927
I1
s(g1
I403
Vstop
p928
tp929
I1
s(g1
I30
VURISyntaxException
p930
tp931
I1
s(g1
I1118
VmPwoMetadataQueue
p932
tp933
I1
s(g1
I425
Vd
p934
tp935
I1
s(g1
I511
Vput
p936
tp937
I1
s(g1
I226
Vlhs
p938
tp939
I1
s(g1
I296
VTAG
p940
tp941
I1
s(g1
I84
VJSONObject
p942
tp943
I1
s(g1
I382
VrootView
p944
tp945
I1
s(g1
I1108
Vurl
p946
tp947
I1
s(g1
I887
VmScanningAnimationDrawable
p948
tp949
I1
s(g1
I1274
VonUpdate
p950
tp951
I1
s(g1
I291
VisShortUrl
p952
tp953
I1
s(g1
I153
VstartDemo
p954
tp955
I1
s(g1
I2074
Vcontext
p956
tp957
I1
s(g1
I522
VIntent
p958
tp959
I1
s(g1
I435
VSharedPreferences
p960
tp961
I1
s(g1
I800
Vbytes
p962
tp963
I1
s(g1
I508
VUriBeaconAdvertiserActivity
p964
tp965
I1
s(g1
I759
Venable
p966
tp967
I1
s(g1
I149
VUrlDevice
p968
tp969
I1
s(g1
I520
VshortUrl
p970
tp971
I1
s(g1
I1003
VgetString
p972
tp973
I1
s(g1
I631
VnotificationManager
p974
tp975
I1
s(g1
I469
VpwPair2
p976
tp977
I1
s(g1
I294
Vbeacon
p978
tp979
I1
s(g1
I244
Vadd
p980
tp981
I1
s(g1
I53
VtoByteArray
p982
tp983
I1
s(g1
I411
VString
p984
tp985
I1
s(g1
I593
Vkey
p986
tp987
I1
s(g1
I100
VconstructorCreatesProperObject
p988
tp989
I1
s(g1
I571
Vmenu
p990
tp991
I1
s(g1
I1037
Vput
p992
tp993
I1
s(g1
I859
Vintent
p994
tp995
I1
s(g1
I204
Vcontext
p996
tp997
I2
s(g1
I636
VLog
p998
tp999
I1
s(g1
I43
VOverride
p1000
tp1001
I1
s(g1
I595
VPhysicalWebCollection
p1002
tp1003
I1
s(g1
I59
Vequals
p1004
tp1005
I1
s(g1
I449
VmPwoDiscoverers
p1006
tp1007
I1
s(g1
I1273
VpwoMetadata
p1008
tp1009
I1
s(g1
I333
VString
p1010
tp1011
I2
s(g1
I431
VtoggleFavorite
p1012
tp1013
I1
s(g1
I193
VassertNotNull
p1014
tp1015
I1
s(g1
I544
VGROUP_ID1
p1016
tp1017
I1
s(g1
I303
Vendpoint
p1018
tp1019
I1
s(g1
I1472
Vv
p1020
tp1021
I1
s(g1
I128
Vdescription
p1022
tp1023
I1
s(g1
I988
VnavigateToBeaconUrlIntent
p1024
tp1025
I1
s(g1
I180
VstopScanning
p1026
tp1027
I1
s(g1
I359
VString
p1028
tp1029
I1
s(g1
I1517
VonError
p1030
tp1031
I1
s(g1
I1265
Vrssi
p1032
tp1033
I1
s(g1
I152
VListView
p1034
tp1035
I1
s(g1
I202
VPwsResult
p1036
tp1037
I1
s(g1
I624
VuriBeacon
p1038
tp1039
I1
s(g1
I34
VWifiUrlDeviceDiscoverer
p1040
tp1041
I1
s(g1
I2120
VUtils
p1042
tp1043
I1
s(g1
I1001
VnearestAddress
p1044
tp1045
I1
s(g1
I353
VTAG
p1046
tp1047
I2
s(g1
I467
VmScanFilterUuids
p1048
tp1049
I1
s(g1
I464
VmDiscoveryService
p1050
tp1051
I1
s(g1
I290
VserviceData
p1052
tp1053
I1
s(g1
I766
VmScanTimeout
p1054
tp1055
I1
s(g1
I2149
Vview
p1056
tp1057
I1
s(g1
I882
VmessageId
p1058
tp1059
I1
s(g1
I265
VString
p1060
tp1061
I1
s(g1
I76
VpwPair1
p1062
tp1063
I1
s(g1
I1428
Vservice
p1064
tp1065
I1
s(g1
I26
VString
p1066
tp1067
I2
s(g1
I581
VmPwCollection
p1068
tp1069
I1
s(g1
I316
VUtils
p1070
tp1071
I1
s(g1
I568
VmPwCollection
p1072
tp1073
I1
s(g1
I1017
VList
p1074
tp1075
I1
s(g1
I1565
VString
p1076
tp1077
I1
s(g1
I117
Vintent
p1078
tp1079
I1
s(g1
I1491
VmCallback
p1080
tp1081
I1
s(g1
I38
VComparator
p1082
tp1083
I1
s(g1
I141
VmWebView
p1084
tp1085
I1
s(g1
I1688
Vaddress
p1086
tp1087
I1
s(g1
I639
VtoString
p1088
tp1089
I1
s(g1
I127
VjsonObject
p1090
tp1091
I1
s(g1
I614
Vbuilder
p1092
tp1093
I1
s(g1
I130
VJSONObject
p1094
tp1095
I1
s(g1
I191
VmNsdManager
p1096
tp1097
I1
s(g1
I619
Vflags
p1098
tp1099
I1
s(g1
I813
VupdateNearbyBeaconNotification
p1100
tp1101
I1
s(g1
I212
Vshow
p1102
tp1103
I1
s(g1
I1042
VmPwCollection
p1104
tp1105
I1
s(g1
I74
VID1
p1106
tp1107
I1
s(g1
I489
Vmetadata
p1108
tp1109
I1
s(g1
I509
Vurl
p1110
tp1111
I1
s(g1
I985
Vgroupid
p1112
tp1113
I1
s(g1
I1412
VContext
p1114
tp1115
I1
s(g1
I394
VonCreate
p1116
tp1117
I1
s(g1
I963
Vaddress
p1118
tp1119
I1
s(g1
I763
VonUrlMetadataIconReceived
p1120
tp1121
I1
s(g1
I193
VDialogInterface
p1122
tp1123
I1
s(g1
I104
VurlConnection
p1124
tp1125
I1
s(g1
I356
VrootView
p1126
tp1127
I1
s(g1
I419
VgetActivity
p1128
tp1129
I1
s(g1
I1002
VPwoMetadata
p1130
tp1131
I1
s(g1
I205
VotherPwsResult
p1132
tp1133
I1
s(g1
I545
VmScanStartTime
p1134
tp1135
I1
s(g1
I729
VmContext
p1136
tp1137
I1
s(g1
I401
VjsonSerializeWorks
p1138
tp1139
I1
s(g1
I550
VgetQuantityString
p1140
tp1141
I1
s(g1
I397
VmScanningStatus
p1142
tp1143
I1
s(g1
I638
VaddToBackStack
p1144
tp1145
I1
s(g1
I1336
Vurls
p1146
tp1147
I1
s(g1
I806
VpwPair
p1148
tp1149
I1
s(g1
I1008
VdeviceAddress
p1150
tp1151
I1
s(g1
I516
Vmenu
p1152
tp1153
I1
s(g1
I627
VOverride
p1154
tp1155
I1
s(g1
I210
VToast
p1156
tp1157
I1
s(g1
I106
VcreateNearbyDevicesAdapter
p1158
tp1159
I1
s(g1
I410
VTAG
p1160
tp1161
I2
s(g1
I2059
VsetText
p1162
tp1163
I1
s(g1
I515
Vmenu
p1164
tp1165
I1
s(g1
I259
VPwsResult
p1166
tp1167
I1
s(g1
I295
VJSONObject
p1168
tp1169
I1
s(g1
I487
VgetActivity
p1170
tp1171
I1
s(g1
I662
VoptLong
p1172
tp1173
I1
s(g1
I501
VsetVisibility
p1174
tp1175
I1
s(g1
I1471
Vnearest
p1176
tp1177
I1
s(g1
I192
VsetTitle
p1178
tp1179
I1
s(g1
I524
Vintent
p1180
tp1181
I1
s(g1
I718
VString
p1182
tp1183
I1
s(g1
I698
Vurl
p1184
tp1185
I1
s(g1
I170
VObject
p1186
tp1187
I1
s(g1
I496
VpwsResult
p1188
tp1189
I1
s(g1
I141
VThread
p1190
tp1191
I1
s(g1
I237
Vcompare
p1192
tp1193
I1
s(g1
I1476
VtoggleFavorite
p1194
tp1195
I1
s(g1
I866
VLog
p1196
tp1197
I1
s(g1
I678
VjsonObj
p1198
tp1199
I1
s(g1
I656
Vurl
p1200
tp1201
I1
s(g1
I607
VlistPref
p1202
tp1203
I1
s(g1
I844
VmPwCollection
p1204
tp1205
I1
s(g1
I193
VBluetoothManager
p1206
tp1207
I1
s(g1
I613
VgetBroadcast
p1208
tp1209
I1
s(g1
I94
VmCheckingPermissions
p1210
tp1211
I1
s(g1
I587
VuuidArray
p1212
tp1213
I1
s(g1
I567
VpwoMetadata
p1214
tp1215
I1
s(g1
I639
VcancelNotification
p1216
tp1217
I1
s(g1
I191
VmDevice
p1218
tp1219
I1
s(g1
I211
VmMdnsUrlDiscovererCallback
p1220
tp1221
I1
s(g1
I184
VaddMetadata
p1222
tp1223
I1
s(g1
I318
Vintent
p1224
tp1225
I1
s(g1
I173
Vput
p1226
tp1227
I1
s(g1
I219
VmScanTimeout
p1228
tp1229
I1
s(g1
I636
Vd
p1230
tp1231
I1
s(g1
I123
VuriString
p1232
tp1233
I1
s(g1
I237
VWifiP2pConfig
p1234
tp1235
I1
s(g1
I46
VURIBEACON_SERVICE_UUID
p1236
tp1237
I1
s(g1
I559
VgetString
p1238
tp1239
I1
s(g1
I1164
VtxPowerLevel
p1240
tp1241
I1
s(g1
I634
ViconUrl
p1242
tp1243
I1
s(g1
I260
VgetJSONObject
p1244
tp1245
I1
s(g1
I614
VLog
p1246
tp1247
I1
s(g1
I1021
VkeySet
p1248
tp1249
I1
s(g1
I2174
Vview
p1250
tp1251
I1
s(g1
I767
VurlSetter
p1252
tp1253
I1
s(g1
I224
VTAG
p1254
tp1255
I1
s(g1
I477
VmReceiver
p1256
tp1257
I1
s(g1
I1324
VgetBoolean
p1258
tp1259
I1
s(g1
I204
VgetActivity
p1260
tp1261
I1
s(g1
I274
VsetDeviceType
p1262
tp1263
I1
s(g1
I325
VurlToNavigateTo
p1264
tp1265
I1
s(g1
I629
VopenUrlInBrowser
p1266
tp1267
I1
s(g1
I313
VmIsInitialized
p1268
tp1269
I1
s(g1
I990
VpwsResultCallback
p1270
tp1271
I1
s(g1
I110
VsetRequestProperty
p1272
tp1273
I1
s(g1
I206
VonPwsResultError
p1274
tp1275
I1
s(g1
I383
Vadd
p1276
tp1277
I1
s(g1
I656
VdeserializedCollection
p1278
tp1279
I1
s(g1
I1893
Vcontext
p1280
tp1281
I1
s(g1
I636
VTAG
p1282
tp1283
I1
s(g1
I488
VsetOnRefreshListener
p1284
tp1285
I1
s(g1
I271
VmSiteUrl
p1286
tp1287
I1
s(g1
I347
VshowNearbyBeaconsFragment
p1288
tp1289
I1
s(g1
I1083
Vkey
p1290
tp1291
I1
s(g1
I405
VArrayList
p1292
tp1293
I1
s(g1
I422
Vstatus
p1294
tp1295
I1
s(g1
I1132
VgetListView
p1296
tp1297
I1
s(g1
I400
VNotificationManagerCompat
p1298
tp1299
I1
s(g1
I201
VurlDevice
p1300
tp1301
I1
s(g1
I360
VIntent
p1302
tp1303
I1
s(g1
I305
Vcontext
p1304
tp1305
I1
s(g1
I770
VPreferenceManager
p1306
tp1307
I1
s(g1
I1050
VconfigUriBeacon
p1308
tp1309
I1
s(g1
I1941
VsiteUrl
p1310
tp1311
I1
s(g1
I499
VRunnable
p1312
tp1313
I1
s(g1
I164
VassertEquals
p1314
tp1315
I1
s(g1
I89
VTAG
p1316
tp1317
I1
s(g1
I197
Vtimeout
p1318
tp1319
I1
s(g1
I1476
VsiteUrl
p1320
tp1321
I1
s(g1
I505
VnearbyBeaconsFragment
p1322
tp1323
I1
s(g1
I506
VcontainsUrl
p1324
tp1325
I1
s(g1
I642
VstartUriBeaconScan
p1326
tp1327
I1
s(g1
I48
Vfile
p1328
tp1329
I1
s(g1
I1267
VmDeviceAddressToUrl
p1330
tp1331
I1
s(g1
I1790
Vcontext
p1332
tp1333
I1
s(g1
I1110
VpwoMetadata
p1334
tp1335
I1
s(g1
I270
VpwsResult2
p1336
tp1337
I1
s(g1
I681
VString
p1338
tp1339
I1
s(g1
I186
VDouble
p1340
tp1341
I1
s(g1
I55
VJSONObject
p1342
tp1343
I1
s(g1
I824
VpwPair
p1344
tp1345
I1
s(g1
I740
VFile
p1346
tp1347
I1
s(g1
I303
VContext
p1348
tp1349
I1
s(g1
I711
VDate
p1350
tp1351
I1
s(g1
I204
VString
p1352
tp1353
I1
s(g1
I1033
VPwPair
p1354
tp1355
I1
s(g1
I49
VPwo
p1356
tp1357
I1
s(g1
I235
VArrayList
p1358
tp1359
I1
s(g1
I1816
VsetVisibility
p1360
tp1361
I1
s(g1
I1417
Vsingle
p1362
tp1363
I1
s(g1
I429
VMdnsUrlDiscoverer
p1364
tp1365
I1
s(g1
I1316
VgetUriString
p1366
tp1367
I1
s(g1
I639
VisScreenOn
p1368
tp1369
I1
s(g1
I359
VPwoDiscoveryService
p1370
tp1371
I1
s(g1
I1719
VpwoDiscoverer
p1372
tp1373
I1
s(g1
I544
VDESCRIPTION1
p1374
tp1375
I1
s(g1
I571
VonPrepareOptionsMenu
p1376
tp1377
I1
s(g1
I100
VArrayList
p1378
tp1379
I1
s(g1
I261
VgetActivity
p1380
tp1381
I1
s(g1
I2094
VsortUrls
p1382
tp1383
I1
s(g1
I2146
VsetText
p1384
tp1385
I1
s(g1
I1818
VString
p1386
tp1387
I1
s(g1
I211
Vmsg
p1388
tp1389
I1
s(g1
I597
VonPrepareOptionsMenu
p1390
tp1391
I1
s(g1
I2111
VisFatBeaconEnabled
p1392
tp1393
I1
s(g1
I188
VjsonObject1
p1394
tp1395
I1
s(g1
I988
Vintent
p1396
tp1397
I1
s(g1
I1327
VmPendingBroadcastUrls
p1398
tp1399
I1
s(g1
I985
Vresponse
p1400
tp1401
I1
s(g1
I483
VpwsResultIconCallback
p1402
tp1403
I1
s(g1
I2170
VTextView
p1404
tp1405
I1
s(g1
I209
VcompareValue
p1406
tp1407
I1
s(g1
I162
VHttpURLConnection
p1408
tp1409
I2
s(g1
I168
VUrlDevice
p1410
tp1411
I1
s(g1
I821
VPwsClient
p1412
tp1413
I2
s(g1
I68
VmFile
p1414
tp1415
I1
s(g1
I49
Vrssi
p1416
tp1417
I1
s(g1
I159
VindexOf
p1418
tp1419
I1
s(g1
I83
Vprivate
p1420
tp1421
I81
s(g1
I384
VmRegionResolver
p1422
tp1423
I1
s(g1
I149
VjsonSerialize
p1424
tp1425
I1
s(g1
I208
VfindItem
p1426
tp1427
I1
s(g1
I1423
Vbuilder
p1428
tp1429
I1
s(g1
I426
VBroadcastReceiver
p1430
tp1431
I1
s(g1
I407
VLog
p1432
tp1433
I1
s(g1
I582
VTAG
p1434
tp1435
I1
s(g1
I781
Vmenu
p1436
tp1437
I1
s(g1
I303
VisDemoMode
p1438
tp1439
I1
s(g1
I198
VgetIntent
p1440
tp1441
I1
s(g1
I1128
VpwsResult
p1442
tp1443
I1
s(g1
I195
VsetDescription
p1444
tp1445
I1
s(g1
I56
VsharedPreferences
p1446
tp1447
I1
s(g1
I1360
VsetRefreshWidgetInvisible
p1448
tp1449
I1
s(g1
I3973
Vgzis
p1450
tp1451
I1
s(g1
I846
VonPwsResult
p1452
tp1453
I1
s(g1
I1090
Vurl
p1454
tp1455
I1
s(g1
I42
VuriBeacon
p1456
tp1457
I1
s(g1
I528
Vstream
p1458
tp1459
I1
s(g1
I218
Vmenu
p1460
tp1461
I2
s(g1
I132
VjsonObject
p1462
tp1463
I1
s(g1
I332
Vcontext
p1464
tp1465
I1
s(g1
I1206
VuriBeacon
p1466
tp1467
I1
s(g1
I207
ValreadyFound
p1468
tp1469
I1
s(g1
I230
VREQUESTURL_KEY
p1470
tp1471
I1
s(g1
I778
VaddRankedDeviceAndMetadata
p1472
tp1473
I1
s(g1
I729
VpwPair
p1474
tp1475
I1
s(g1
I185
Vfinish
p1476
tp1477
I1
s(g1
I986
Vstatus
p1478
tp1479
I1
s(g1
I485
VasList
p1480
tp1481
I1
s(g1
I1928
VisWifiDirectEnabled
p1482
tp1483
I1
s(g1
I536
Vd
p1484
tp1485
I1
s(g1
I574
VParcelUuid
p1486
tp1487
I1
s(g1
I467
VfindViewById
p1488
tp1489
I1
s(g1
I158
Vother
p1490
tp1491
I2
s(g1
I276
Vbuild
p1492
tp1493
I1
s(g1
I387
VonUrlDeviceDiscoveryUpdate
p1494
tp1495
I1
s(g1
I698
VmNotificationManager
p1496
tp1497
I1
s(g1
I858
VmLeScanCallback
p1498
tp1499
I1
s(g1
I1813
VString
p1500
tp1501
I1
s(g1
I171
VmAdapter
p1502
tp1503
I1
s(g1
I399
VgetActivity
p1504
tp1505
I1
s(g1
I534
VTAG
p1506
tp1507
I1
s(g1
I408
VBROADCASTING_NOTIFICATION_ID
p1508
tp1509
I1
s(g1
I1426
VsetTextViewText
p1510
tp1511
I1
s(g1
I1012
VUrlDevice
p1512
tp1513
I1
s(g1
I2186
Vview
p1514
tp1515
I1
s(g1
I554
VpwoMetadata
p1516
tp1517
I1
s(g1
I565
VMainActivity
p1518
tp1519
I1
s(g1
I1612
VurlMetadataA
p1520
tp1521
I1
s(g1
I125
Vmenu
p1522
tp1523
I1
s(g1
I1115
VmNearbyDeviceAdapter
p1524
tp1525
I1
s(g1
I2380
VurlDevice
p1526
tp1527
I1
s(g1
I531
Vuuid
p1528
tp1529
I1
s(g1
I204
Vother
p1530
tp1531
I1
s(g1
I562
VIntent
p1532
tp1533
I1
s(g1
I983
Vurl
p1534
tp1535
I1
s(g1
I2351
VSSDP_DEVICE_TYPE
p1536
tp1537
I1
s(g1
I221
VmNsdManager
p1538
tp1539
I1
s(g1
I274
VSsdpUrlDeviceDiscoverer
p1540
tp1541
I1
s(g1
I339
VgetId
p1542
tp1543
I1
s(g1
I54
VBeaconHelper
p1544
tp1545
I1
s(g1
I1012
VString
p1546
tp1547
I1
s(g1
I863
VmSwipeRefreshWidget
p1548
tp1549
I1
s(g1
I138
Vmenu
p1550
tp1551
I1
s(g1
I450
VmPwoDiscoverers
p1552
tp1553
I1
s(g1
I247
VLog
p1554
tp1555
I1
s(g1
I162
Vinfo
p1556
tp1557
I1
s(g1
I440
Vadd
p1558
tp1559
I1
s(g1
I301
Vrun
p1560
tp1561
I1
s(g1
I1146
VStringBuilder
p1562
tp1563
I1
s(g1
I71
VurlMetadataA
p1564
tp1565
I1
s(g1
I164
Vindex
p1566
tp1567
I1
s(g1
I29
VUrlShortenerClient
p1568
tp1569
I1
s(g1
I230
VapiKey
p1570
tp1571
I1
s(g1
I836
VscanResult
p1572
tp1573
I1
s(g1
I642
Vposition
p1574
tp1575
I1
s(g1
I1798
VmUrlToTxPower
p1576
tp1577
I1
s(g1
I1067
VScanFilter
p1578
tp1579
I1
s(g1
I523
VByteArrayOutputStream
p1580
tp1581
I1
s(g1
I469
VsetGroupId
p1582
tp1583
I1
s(g1
I1486
VmPendingIconUrls
p1584
tp1585
I1
s(g1
I660
Vcontext
p1586
tp1587
I1
s(g1
I786
VID1
p1588
tp1589
I1
s(g1
I1159
Vb
p1590
tp1591
I1
s(g1
I712
Vshow
p1592
tp1593
I1
s(g1
I417
VmSwipeRefreshWidget
p1594
tp1595
I1
s(g1
I386
VinitializeScanningAnimation
p1596
tp1597
I1
s(g1
I223
VmUri
p1598
tp1599
I1
s(g1
I26
VPwsResult
p1600
tp1601
I1
s(g1
I942
VTX_POWER_DEFAULT
p1602
tp1603
I1
s(g1
I1010
VpwsEndpoint
p1604
tp1605
I1
s(g1
I39
Vbyte
p1606
tp1607
I35
s(g1
I588
Vurl
p1608
tp1609
I1
s(g1
I173
VmPendingIconUrls
p1610
tp1611
I1
s(g1
I949
VnotifyDataSetChanged
p1612
tp1613
I1
s(g1
I577
VString
p1614
tp1615
I1
s(g1
I746
Vactivity
p1616
tp1617
I1
s(g1
I182
VgetRankReturnsPointFive
p1618
tp1619
I1
s(g1
I194
VjsonObject
p1620
tp1621
I1
s(g1
I385
Vcharacteristic
p1622
tp1623
I1
s(g1
I574
VgetActivity
p1624
tp1625
I1
s(g1
I44
Vo2
p1626
tp1627
I1
s(g1
I998
VpwsResultCallback
p1628
tp1629
I1
s(g1
I978
VsetText
p1630
tp1631
I1
s(g1
I589
VaddMetadata
p1632
tp1633
I1
s(g1
I527
VpreviousPwoGroup
p1634
tp1635
I1
s(g1
I31
VmIdToPwoMap
p1636
tp1637
I1
s(g1
I1789
VsetOnClickPendingIntent
p1638
tp1639
I1
s(g1
I179
VURL_KEY
p1640
tp1641
I1
s(g1
I475
VfetchBroadcastData
p1642
tp1643
I1
s(g1
I110
VBeaconConfigFragment
p1644
tp1645
I1
s(g1
I196
VonError
p1646
tp1647
I1
s(g1
I292
VshowLearnMorePage
p1648
tp1649
I1
s(g1
I51
VPwPair
p1650
tp1651
I1
s(g1
I413
VUtils
p1652
tp1653
I1
s(g1
I1357
Vremove
p1654
tp1655
I1
s(g1
I525
VgetUuid
p1656
tp1657
I1
s(g1
I318
Vendpoints
p1658
tp1659
I1
s(g1
I300
Vclear
p1660
tp1661
I1
s(g1
I33
VpwsResult
p1662
tp1663
I1
s(g1
I116
VJSONObject
p1664
tp1665
I1
s(g1
I319
VmPwPair1
p1666
tp1667
I1
s(g1
I428
Vintent
p1668
tp1669
I1
s(g1
I747
VstartScanning
p1670
tp1671
I1
s(g1
I332
VmContext
p1672
tp1673
I1
s(g1
I578
VjsonUrlMetadata
p1674
tp1675
I1
s(g1
I172
VassertEquals
p1676
tp1677
I1
s(g1
I82
VListFragment
p1678
tp1679
I1
s(g1
I34
VPwPair
p1680
tp1681
I1
s(g1
I231
Vstop
p1682
tp1683
I1
s(g1
I655
VListView
p1684
tp1685
I1
s(g1
I262
VMdnsUrlDeviceDiscoverer
p1686
tp1687
I1
s(g1
I1392
VmPwCollection
p1688
tp1689
I1
s(g1
I284
VTITLE1
p1690
tp1691
I1
s(g1
I1838
VgetTime
p1692
tp1693
I1
s(g1
I2375
VurlDevice
p1694
tp1695
I1
s(g1
I1574
VmUrlToDeviceAddress
p1696
tp1697
I1
s(g1
I494
VPwsResult
p1698
tp1699
I1
s(g1
I198
Vhash
p1700
tp1701
I1
s(g1
I605
Vclose
p1702
tp1703
I1
s(g1
I504
VshortenUrl
p1704
tp1705
I1
s(g1
I1177
Vurl
p1706
tp1707
I1
s(g1
I2045
VTextView
p1708
tp1709
I1
s(g1
I487
VpwsClient
p1710
tp1711
I1
s(g1
I122
Vcompare
p1712
tp1713
I1
s(g1
I165
VsetHasOptionsMenu
p1714
tp1715
I1
s(g1
I401
VgetActionBar
p1716
tp1717
I1
s(g1
I685
Vintent
p1718
tp1719
I1
s(g1
I54
VmIdToPwoMap
p1720
tp1721
I1
s(g1
I228
Vequals
p1722
tp1723
I1
s(g1
I198
VurlDevice
p1724
tp1725
I1
s(g1
I367
VPwoDiscoveryService
p1726
tp1727
I1
s(g1
I1792
VrequestID
p1728
tp1729
I1
s(g1
I234
Vequals
p1730
tp1731
I1
s(g1
I576
Vurl
p1732
tp1733
I1
s(g1
I47
VurlDevice
p1734
tp1735
I1
s(g1
I626
VupdateNotifications
p1736
tp1737
I1
s(g1
I466
ViconUrl
p1738
tp1739
I1
s(g1
I115
VTAG
p1740
tp1741
I2
s(g1
I368
VmNotificationManager
p1742
tp1743
I1
s(g1
I245
Vput
p1744
tp1745
I1
s(g1
I659
Vurl
p1746
tp1747
I1
s(g1
I1094
Vurl
p1748
tp1749
I1
s(g1
I799
VmDisplayInfo
p1750
tp1751
I1
s(g1
I123
Vlen
p1752
tp1753
I1
s(g1
I39
Vpwo
p1754
tp1755
I1
s(g1
I25
g292
tp1756
I195
s(g1
I259
VmSwipeRefreshWidget
p1757
tp1758
I1
s(g1
I345
VSITEURL_KEY
p1759
tp1760
I1
s(g1
I806
Vbuild
p1761
tp1762
I1
s(g1
I142
Vname
p1763
tp1764
I1
s(g1
I484
VassertNotEquals
p1765
tp1766
I1
s(g1
I61
VString
p1767
tp1768
I1
s(g1
I332
VgetRegionResolver
p1769
tp1770
I1
s(g1
I489
Vadd
p1771
tp1772
I1
s(g1
I137
VotherPwPair
p1773
tp1774
I1
s(g1
I175
Vkey
p1775
tp1776
I1
s(g1
I822
VgetLeScanner
p1777
tp1778
I1
s(g1
I791
Vv
p1779
tp1780
I1
s(g1
I817
VOverride
p1781
tp1782
I1
s(g1
I647
VparseFromBytes
p1783
tp1784
I1
s(g1
I221
VcompareTo
p1785
tp1786
I1
s(g1
I648
VpwoMetadata
p1787
tp1788
I1
s(g1
I666
VjsonUrlMetadata
p1789
tp1790
I1
s(g1
I1095
VmEditCardUrl
p1791
tp1792
I1
s(g1
I1028
VgetDeviceAddress
p1793
tp1794
I1
s(g1
I484
VOverride
p1795
tp1796
I1
s(g1
I578
VsetValue
p1797
tp1798
I1
s(g1
I67
VTAG
p1799
tp1800
I1
s(g1
I94
VNearbyBeaconsFragment
p1801
tp1802
I1
s(g1
I150
Vother
p1803
tp1804
I1
s(g1
I200
Vi
p1805
tp1806
I1
s(g1
I222
Vprintln
p1807
tp1808
I1
s(g1
I418
VmUrlDeviceDiscoverers
p1809
tp1810
I1
s(g1
I160
VonPrepareOptionsMenu
p1811
tp1812
I1
s(g1
I1405
VsetContentTitle
p1813
tp1814
I1
s(g1
I594
VBase64
p1815
tp1816
I1
s(g1
I629
VgetSystemService
p1817
tp1818
I1
s(g1
I130
Vother
p1819
tp1820
I1
s(g1
I838
VLog
p1821
tp1822
I1
s(g1
I253
VgetBoolean
p1823
tp1824
I1
s(g1
I335
VRuntimeException
p1825
tp1826
I1
s(g1
I693
VmFirstTime
p1827
tp1828
I1
s(g1
I219
VUrlshortenerRequestInitializer
p1829
tp1830
I1
s(g1
I449
VmIconUrlToIconMap
p1831
tp1832
I1
s(g1
I2074
VregionString
p1833
tp1834
I1
s(g1
I141
Vservice
p1835
tp1836
I1
s(g1
I1094
VmPendingBroadcastUrls
p1837
tp1838
I1
s(g1
I202
VUtils
p1839
tp1840
I1
s(g1
I120
VT
p1841
tp1842
I1
s(g1
I637
VpwPairs
p1843
tp1844
I1
s(g1
I827
VArrays
p1845
tp1846
I1
s(g1
I931
Vsize
p1847
tp1848
I1
s(g1
I648
VmNearbyDeviceAdapter
p1849
tp1850
I1
s(g1
I554
VserviceType
p1851
tp1852
I1
s(g1
I983
Vstatus
p1853
tp1854
I1
s(g1
I227
ViconUrl
p1855
tp1856
I1
s(g1
I335
VIntent
p1857
tp1858
I1
s(g1
I759
VmIsScanRunning
p1859
tp1860
I1
s(g1
I24
g292
tp1861
I1
s(g1
I772
VgetUrlForListItem
p1862
tp1863
I1
s(g1
I698
Vsize
p1864
tp1865
I1
s(g1
I620
VonCreate
p1866
tp1867
I1
s(g1
I641
VOverride
p1868
tp1869
I1
s(g1
I911
VstopScan
p1870
tp1871
I1
s(g1
I58
Vtarget
p1872
tp1873
I1
s(g1
I750
VisShortUrl
p1874
tp1875
I1
s(g1
I912
VCollections
p1876
tp1877
I1
s(g1
I208
VbluetoothManager
p1878
tp1879
I1
s(g1
I249
VUrlDevice
p1880
tp1881
I1
s(g1
I489
Vinitialize
p1882
tp1883
I1
s(g1
I1079
VToast
p1884
tp1885
I1
s(g1
I784
VgetString
p1886
tp1887
I2
s(g1
I33
VTAG
p1888
tp1889
I1
s(g1
I572
Vgatt
p1890
tp1891
I1
s(g1
I295
Vinitialize
p1892
tp1893
I1
s(g1
I1078
VpwsResult
p1894
tp1895
I1
s(g1
I536
VcreateNotification
p1896
tp1897
I1
s(g1
I836
VString
p1898
tp1899
I1
s(g1
I580
VgetUrlFromDeviceSighting
p1900
tp1901
I1
s(g1
I430
Vd
p1902
tp1903
I1
s(g1
I1336
Ve
p1904
tp1905
I1
s(g1
I424
Vkey
p1906
tp1907
I1
s(g1
I1903
Vcontext
p1908
tp1909
I1
s(g1
I1702
Vclear
p1910
tp1911
I1
s(g1
I298
VrequestDemoUrlMetadata
p1912
tp1913
I1
s(g1
I540
VDATA_TWO
p1914
tp1915
I1
s(g1
I2149
VsetText
p1916
tp1917
I1
s(g1
I1256
VPwsClient
p1918
tp1919
I1
s(g1
I315
VIntent
p1920
tp1921
I1
s(g1
I203
VmMutex
p1922
tp1923
I1
s(g1
I1369
VString
p1924
tp1925
I1
s(g1
I671
VdeviceMetadata
p1926
tp1927
I1
s(g1
I1744
VpwoResponseCallback
p1928
tp1929
I1
s(g1
I815
VsetEditCardUrl
p1930
tp1931
I1
s(g1
I440
VmPwoDiscoverers
p1932
tp1933
I1
s(g1
I639
VUri
p1934
tp1935
I1
s(g1
I1805
Vcontext
p1936
tp1937
I1
s(g1
I314
Vput
p1938
tp1939
I1
s(g1
I68
VpwsResult1
p1940
tp1941
I1
s(g1
I415
VmData
p1942
tp1943
I1
s(g1
I196
VUrlDevice
p1944
tp1945
I1
s(g1
I649
VpwPairs
p1946
tp1947
I1
s(g1
I587
VmNewExtraData
p1948
tp1949
I1
s(g1
I2153
VmUrlToScanTime
p1950
tp1951
I1
s(g1
I592
VPwsResult
p1952
tp1953
I1
s(g1
I559
Vprefs
p1954
tp1955
I1
s(g1
I515
VString
p1956
tp1957
I1
s(g1
I356
VupdateNotifications
p1958
tp1959
I1
s(g1
I263
Vtitle
p1960
tp1961
I1
s(g1
I561
VICON_URL1
p1962
tp1963
I1
s(g1
I60
Ve
p1964
tp1965
I1
s(g1
I302
VIntentFilter
p1966
tp1967
I1
s(g1
I995
VgetString
p1968
tp1969
I1
s(g1
I385
VBleUrlDeviceDiscoverer
p1970
tp1971
I1
s(g1
I1253
VString
p1972
tp1973
I1
s(g1
I292
VNotificationManagerCompat
p1974
tp1975
I1
s(g1
I552
VuuidArray
p1976
tp1977
I1
s(g1
I425
Vinflater
p1978
tp1979
I1
s(g1
I1726
VmUrlToPwoMetadata
p1980
tp1981
I1
s(g1
I704
Vresponse
p1982
tp1983
I1
s(g1
I598
Vfilter
p1984
tp1985
I1
s(g1
I1357
VmPendingBroadcastUrls
p1986
tp1987
I1
s(g1
I359
VmRegionResolver
p1988
tp1989
I1
s(g1
I1014
VmDeviceAddressToUrl
p1990
tp1991
I1
s(g1
I1781
VView
p1992
tp1993
I1
s(g1
I1115
VpwoMetadata
p1994
tp1995
I1
s(g1
I66
VPwoMetadata
p1996
tp1997
I1
s(g1
I1497
VonClick
p1998
tp1999
I1
s(g1
I354
VmBroadcastUrlToPwsResultMap
p2000
tp2001
I1
s(g1
I95
VHttpURLConnection
p2002
tp2003
I1
s(g1
I1071
VArrayList
p2004
tp2005
I1
s(g1
I296
VpwPair2
p2006
tp2007
I1
s(g1
I195
VmUrlDevice
p2008
tp2009
I1
s(g1
I2074
VregionView
p2010
tp2011
I1
s(g1
I753
Venable
p2012
tp2013
I1
s(g1
I1487
VRunnable
p2014
tp2015
I1
s(g1
I495
VjsonObj
p2016
tp2017
I1
s(g1
I436
VSsdpPwoDiscoverer
p2018
tp2019
I1
s(g1
I416
VstartScanningDisplay
p2020
tp2021
I1
s(g1
I646
VgetBytes
p2022
tp2023
I1
s(g1
I1236
VToast
p2024
tp2025
I1
s(g1
I719
VmMdnsUrlDiscoverer
p2026
tp2027
I1
s(g1
I313
VSsdpPwoDiscoverer
p2028
tp2029
I1
s(g1
I384
VsetBackgroundResource
p2030
tp2031
I1
s(g1
I1279
VmUrlToDeviceAddress
p2032
tp2033
I1
s(g1
I763
Vclose
p2034
tp2035
I1
s(g1
I68
VmRssiHistory
p2036
tp2037
I1
s(g1
I739
VisAsciiUrl
p2038
tp2039
I1
s(g1
I29
VString
p2040
tp2041
I2
s(g1
I882
Venable
p2042
tp2043
I1
s(g1
I555
VextraData
p2044
tp2045
I1
s(g1
I1123
VUtils
p2046
tp2047
I1
s(g1
I339
VjsonObject
p2048
tp2049
I1
s(g1
I1471
VotherAddress
p2050
tp2051
I1
s(g1
I511
VToast
p2052
tp2053
I1
s(g1
I639
VupdateRegion
p2054
tp2055
I1
s(g1
I791
VgetString
p2056
tp2057
I1
s(g1
I44
VmUrlToUrlMetadata
p2058
tp2059
I1
s(g1
I359
Vrun
p2060
tp2061
I2
s(g1
I777
Vd
p2062
tp2063
I1
s(g1
I1115
VsetServiceData
p2064
tp2065
I1
s(g1
I240
VdistanceSort
p2066
tp2067
I1
s(g1
I641
VgetSystemService
p2068
tp2069
I1
s(g1
I724
VmRequestQueue
p2070
tp2071
I1
s(g1
I113
VJSONObject
p2072
tp2073
I1
s(g1
I470
VJSONArray
p2074
tp2075
I1
s(g1
I328
VnearbyBeaconsFragment
p2076
tp2077
I1
s(g1
I513
Vmenu
p2078
tp2079
I1
s(g1
I836
VmUrlToDeviceAddress
p2080
tp2081
I1
s(g1
I614
VlistPref
p2082
tp2083
I1
s(g1
I149
VsetVisible
p2084
tp2085
I1
s(g1
I47
VPwPair
p2086
tp2087
I1
s(g1
I183
Vother
p2088
tp2089
I2
s(g1
I300
VActivityCompat
p2090
tp2091
I1
s(g1
I670
Vkey
p2092
tp2093
I1
s(g1
I245
VUtils
p2094
tp2095
I1
s(g1
I579
Vposition
p2096
tp2097
I1
s(g1
I307
VgetInstance
p2098
tp2099
I1
s(g1
I639
VBleMetadata
p2100
tp2101
I1
s(g1
I367
Vfrom
p2102
tp2103
I1
s(g1
I166
VmPendingBroadcastUrls
p2104
tp2105
I1
s(g1
I236
VSITEURL_KEY
p2106
tp2107
I1
s(g1
I39
Vint
p2108
tp2109
I64
s(g1
I1008
VBeaconConfigFragment
p2110
tp2111
I1
s(g1
I2085
Ve
p2112
tp2113
I1
s(g1
I315
VNearbyDevicesFragment
p2114
tp2115
I1
s(g1
I1174
VPwPair
p2116
tp2117
I1
s(g1
I298
Vinitialize
p2118
tp2119
I1
s(g1
I1343
Vcontext
p2120
tp2121
I1
s(g1
I1006
VHashSet
p2122
tp2123
I1
s(g1
I1010
VgetActivity
p2124
tp2125
I1
s(g1
I639
VlistView
p2126
tp2127
I1
s(g1
I312
VscanRecordBytes
p2128
tp2129
I1
s(g1
I618
VPwPair
p2130
tp2131
I1
s(g1
I489
VmPwoDiscoverers
p2132
tp2133
I1
s(g1
I246
VgetScanRecord
p2134
tp2135
I1
s(g1
I611
VString
p2136
tp2137
I1
s(g1
I615
Vnotify
p2138
tp2139
I1
s(g1
I2142
VDecimalFormat
p2140
tp2141
I1
s(g1
I415
Vi
p2142
tp2143
I1
s(g1
I130
VurlGroup
p2144
tp2145
I1
s(g1
I1019
VstartScanning
p2146
tp2147
I1
s(g1
I512
VString
p2148
tp2149
I1
s(g1
I435
Vcontext
p2150
tp2151
I1
s(g1
I384
VmContext
p2152
tp2153
I1
s(g1
I656
VonCreate
p2154
tp2155
I1
s(g1
I495
VdeviceMap
p2156
tp2157
I1
s(g1
I372
VArrayList
p2158
tp2159
I1
s(g1
I555
VtoString
p2160
tp2161
I1
s(g1
I493
VLog
p2162
tp2163
I1
s(g1
I459
VmScanFilterUuids
p2164
tp2165
I1
s(g1
I189
VpwsResult
p2166
tp2167
I1
s(g1
I533
VpreviousPwoGroupid
p2168
tp2169
I1
s(g1
I837
VurlDevice
p2170
tp2171
I1
s(g1
I269
VgetString
p2172
tp2173
I2
s(g1
I607
VPwsResult
p2174
tp2175
I1
s(g1
I192
VhttpResponseCode
p2176
tp2177
I1
s(g1
I501
Vadd
p2178
tp2179
I1
s(g1
I227
VUrlshortener
p2180
tp2181
I1
s(g1
I641
VgetActivity
p2182
tp2183
I1
s(g1
I627
VPowerManager
p2184
tp2185
I1
s(g1
I336
Vadd
p2186
tp2187
I1
s(g1
I923
VmDeviceAddressToUrl
p2188
tp2189
I1
s(g1
I1103
VgetTitle
p2190
tp2191
I1
s(g1
I216
VmUri
p2192
tp2193
I1
s(g1
I971
VonUrlMetadataIconReceived
p2194
tp2195
I1
s(g1
I254
Vkey
p2196
tp2197
I1
s(g1
I504
VString
p2198
tp2199
I1
s(g1
I805
VoptString
p2200
tp2201
I2
s(g1
I1409
VServiceConnection
p2202
tp2203
I1
s(g1
I40
VParcelUuid
p2204
tp2205
I1
s(g1
I164
VString
p2206
tp2207
I1
s(g1
I110
VString
p2208
tp2209
I1
s(g1
I202
VfindItem
p2210
tp2211
I2
s(g1
I659
VgetString
p2212
tp2213
I1
s(g1
I661
VremoveBlocked
p2214
tp2215
I1
s(g1
I393
VsiteUrl
p2216
tp2217
I1
s(g1
I817
Vfilters
p2218
tp2219
I1
s(g1
I645
VDeviceMetadata
p2220
tp2221
I1
s(g1
I834
VUtils
p2222
tp2223
I1
s(g1
I1088
VmEditCard
p2224
tp2225
I1
s(g1
I301
VphysicalWebCollection1
p2226
tp2227
I1
s(g1
I632
VURL1
p2228
tp2229
I1
s(g1
I115
VgetActivity
p2230
tp2231
I1
s(g1
I250
Vbuilder
p2232
tp2233
I1
s(g1
I1362
Vbuilder
p2234
tp2235
I1
s(g1
I708
VgetActionBar
p2236
tp2237
I1
s(g1
I464
VCharset
p2238
tp2239
I1
s(g1
I146
Vmenu
p2240
tp2241
I1
s(g1
I306
VphysicalWebCollection1
p2242
tp2243
I1
s(g1
I233
VgetString
p2244
tp2245
I1
s(g1
I58
VJSONObject
p2246
tp2247
I1
s(g1
I578
VString
p2248
tp2249
I1
s(g1
I1018
Vkey
p2250
tp2251
I1
s(g1
I460
VBase64
p2252
tp2253
I1
s(g1
I600
VgetHtmlFile
p2254
tp2255
I1
s(g1
I832
Vfilter
p2256
tp2257
I1
s(g1
I837
VMath
p2258
tp2259
I1
s(g1
I209
VbluetoothAdapter
p2260
tp2261
I1
s(g1
I75
VpwPair
p2262
tp2263
I1
s(g1
I1821
VfindViewById
p2264
tp2265
I1
s(g1
I1035
VpwsApiVersion
p2266
tp2267
I1
s(g1
I2514
VString
p2268
tp2269
I1
s(g1
I599
VmDownPosition
p2270
tp2271
I1
s(g1
I220
VphysicalWebCollection
p2272
tp2273
I1
s(g1
I973
VmScanningImage
p2274
tp2275
I1
s(g1
I548
VcloseUriBeacon
p2276
tp2277
I1
s(g1
I416
VBlockedAdapter
p2278
tp2279
I1
s(g1
I837
Vmin
p2280
tp2281
I1
s(g1
I269
VurlDevice3
p2282
tp2283
I1
s(g1
I672
VbyteBuffer
p2284
tp2285
I1
s(g1
I147
VwriteToUrlConnection
p2286
tp2287
I1
s(g1
I296
VLog
p2288
tp2289
I2
s(g1
I829
VCHANGE_URL_SERVICE_UUID
p2290
tp2291
I1
s(g1
I266
VmScanningAnimationTextView
p2292
tp2293
I1
s(g1
I1129
VsetContentTitle
p2294
tp2295
I1
s(g1
I1567
VaddressToMatch
p2296
tp2297
I1
s(g1
I250
VurlDevice
p2298
tp2299
I2
s(g1
I107
VtoJsonObjectCreatesProperJsonObject
p2300
tp2301
I1
s(g1
I1019
Vcontext
p2302
tp2303
I1
s(g1
I282
VgetName
p2304
tp2305
I1
s(g1
I415
VSTART_STICKY
p2306
tp2307
I1
s(g1
I305
VscanResult
p2308
tp2309
I1
s(g1
I246
VupdatePwsList
p2310
tp2311
I1
s(g1
I48
VgetSharedPreferences
p2312
tp2313
I1
s(g1
I852
VremoveCallbacks
p2314
tp2315
I1
s(g1
I57
VconstructorCreatesProperObject
p2316
tp2317
I1
s(g1
I63
VgetString
p2318
tp2319
I1
s(g1
I224
VPwPair
p2320
tp2321
I1
s(g1
I2132
VpwPair
p2322
tp2323
I1
s(g1
I42
VOverride
p2324
tp2325
I1
s(g1
I906
Vitem
p2326
tp2327
I1
s(g1
I236
Vurl
p2328
tp2329
I2
s(g1
I492
VresponseCode
p2330
tp2331
I1
s(g1
I137
VString
p2332
tp2333
I1
s(g1
I190
VHashMap
p2334
tp2335
I1
s(g1
I404
VexpansionLength
p2336
tp2337
I1
s(g1
I280
VICONURL_KEY
p2338
tp2339
I1
s(g1
I219
Vcontext
p2340
tp2341
I1
s(g1
I291
VGROUPID_KEY
p2342
tp2343
I1
s(g1
I466
VsetIconUrl
p2344
tp2345
I1
s(g1
I907
VPhysicalWebBroadcastService
p2346
tp2347
I1
s(g1
I1249
VConfigUriBeacon
p2348
tp2349
I1
s(g1
I900
VLog
p2350
tp2351
I1
s(g1
I499
Vflags
p2352
tp2353
I1
s(g1
I190
VgetActivity
p2354
tp2355
I1
s(g1
I1462
Vaddress
p2356
tp2357
I1
s(g1
I243
VURI_BEACON_128_BIT_UUID
p2358
tp2359
I1
s(g1
I369
VUrlShortenerClient
p2360
tp2361
I1
s(g1
I246
VrootView
p2362
tp2363
I1
s(g1
I825
VscanResult
p2364
tp2365
I1
s(g1
I150
VgetSsdp
p2366
tp2367
I1
s(g1
I346
VjsonSerialize
p2368
tp2369
I1
s(g1
I649
VmRegionResolver
p2370
tp2371
I1
s(g1
I321
VFragment
p2372
tp2373
I1
s(g1
I1029
VPwoMetadata
p2374
tp2375
I1
s(g1
I40
VSimpleUrlDevice
p2376
tp2377
I1
s(g1
I1814
VmPwCollection
p2378
tp2379
I1
s(g1
I189
Vresult
p2380
tp2381
I1
s(g1
I915
VpwsResult
p2382
tp2383
I1
s(g1
I165
VICON_URL1
p2384
tp2385
I1
s(g1
I1760
VmUrlToPwoMetadata
p2386
tp2387
I1
s(g1
I76
VPwoMetadata
p2388
tp2389
I1
s(g1
I354
VungroupedPwoId
p2390
tp2391
I1
s(g1
I830
VgetGroupedPwPairsSortedByRank
p2392
tp2393
I1
s(g1
I403
VTest
p2394
tp2395
I1
s(g1
I238
VresponseUrl
p2396
tp2397
I1
s(g1
I1047
VisNetworkUrl
p2398
tp2399
I1
s(g1
I295
Vbuild
p2400
tp2401
I1
s(g1
I3963
Vout
p2402
tp2403
I1
s(g1
I517
Vgatt
p2404
tp2405
I1
s(g1
I141
VpwsResult
p2406
tp2407
I1
s(g1
I119
Vbuffer
p2408
tp2409
I1
s(g1
I824
VPwsClient
p2410
tp2411
I1
s(g1
I1417
VOverride
p2412
tp2413
I1
s(g1
I234
Vkey
p2414
tp2415
I1
s(g1
I565
VByteBuffer
p2416
tp2417
I1
s(g1
I172
VurlConnection
p2418
tp2419
I1
s(g1
I369
VsetOnEditorActionListener
p2420
tp2421
I1
s(g1
I586
Vstatus
p2422
tp2423
I1
s(g1
I158
VmDeviceIdToUrlDeviceMap
p2424
tp2425
I1
s(g1
I833
VsetPwsEndpoint
p2426
tp2427
I1
s(g1
I684
VString
p2428
tp2429
I1
s(g1
I913
VsiteUrl
p2430
tp2431
I1
s(g1
I631
VpwoMetadata
p2432
tp2433
I1
s(g1
I983
VBitmap
p2434
tp2435
I1
s(g1
I635
VisBleUrlDevice
p2436
tp2437
I1
s(g1
I454
VHandler
p2438
tp2439
I1
s(g1
I239
VUrlDevice
p2440
tp2441
I1
s(g1
I18
VURL1
p2442
tp2443
I1
s(g1
I140
VwriteToUrlConnection
p2444
tp2445
I1
s(g1
I1569
VString
p2446
tp2447
I1
s(g1
I194
Vmenu
p2448
tp2449
I2
s(g1
I951
VnearestAddress
p2450
tp2451
I1
s(g1
I502
VsetVisible
p2452
tp2453
I1
s(g1
I321
VonResume
p2454
tp2455
I1
s(g1
I521
Vicon
p2456
tp2457
I1
s(g1
I294
VContext
p2458
tp2459
I1
s(g1
I1083
VmExtraData
p2460
tp2461
I1
s(g1
I1051
Vpairs
p2462
tp2463
I1
s(g1
I782
VPwsClient
p2464
tp2465
I1
s(g1
I40
VUriBeacon
p2466
tp2467
I1
s(g1
I187
Vtag
p2468
tp2469
I1
s(g1
I232
VmDeviceIdToUrlDeviceMap
p2470
tp2471
I1
s(g1
I331
VmConfigurableBeaconUrlEditText
p2472
tp2473
I1
s(g1
I554
VJSONObject
p2474
tp2475
I1
s(g1
I394
VonResume
p2476
tp2477
I1
s(g1
I171
VUrlDevice
p2478
tp2479
I1
s(g1
I180
VJSONAssert
p2480
tp2481
I1
s(g1
I159
VJSONObject
p2482
tp2483
I1
s(g1
I279
Vicon
p2484
tp2485
I1
s(g1
I329
VcreateUrlDeviceBuilder
p2486
tp2487
I1
s(g1
I1830
VPwsClient
p2488
tp2489
I1
s(g1
I239
VsetRssi
p2490
tp2491
I2
s(g1
I1802
VsetViewVisibility
p2492
tp2493
I1
s(g1
I61
VaddedPwo
p2494
tp2495
I1
s(g1
I829
VPwsResultCallback
p2496
tp2497
I1
s(g1
I136
Vmap
p2498
tp2499
I1
s(g1
I1888
Vcontext
p2500
tp2501
I1
s(g1
I337
VgetGroupid
p2502
tp2503
I1
s(g1
I320
VuriBeacon
p2504
tp2505
I1
s(g1
I280
VpwsResult
p2506
tp2507
I1
s(g1
I784
VmUrlToUrlMetadata
p2508
tp2509
I1
s(g1
I557
VjsonUrlMetadata
p2510
tp2511
I1
s(g1
I125
Vintent
p2512
tp2513
I1
s(g1
I368
VsetScanMode
p2514
tp2515
I1
s(g1
I348
VupdateNotifications
p2516
tp2517
I1
s(g1
I101
Vurl
p2518
tp2519
I1
s(g1
I836
VPwsResult
p2520
tp2521
I1
s(g1
I209
Vprogress
p2522
tp2523
I1
s(g1
I922
VmSortedDevices
p2524
tp2525
I1
s(g1
I86
VpwoMetadata
p2526
tp2527
I1
s(g1
I425
VUtils
p2528
tp2529
I1
s(g1
I812
VisShortUrl
p2530
tp2531
I1
s(g1
I40
VTAG
p2532
tp2533
I1
s(g1
I205
Vstart
p2534
tp2535
I1
s(g1
I255
VgetString
p2536
tp2537
I1
s(g1
I580
Ve
p2538
tp2539
I1
s(g1
I1525
VTextView
p2540
tp2541
I1
s(g1
I257
VuriBeacon
p2542
tp2543
I1
s(g1
I1258
VkeySet
p2544
tp2545
I1
s(g1
I1352
VmScanningAnimationDrawable
p2546
tp2547
I1
s(g1
I192
VJSONObject
p2548
tp2549
I1
s(g1
I201
VmThread
p2550
tp2551
I1
s(g1
I122
VUrlGroup
p2552
tp2553
I1
s(g1
I522
VpwoMetadata
p2554
tp2555
I1
s(g1
I983
VsetText
p2556
tp2557
I1
s(g1
I565
VPwoMetadata
p2558
tp2559
I1
s(g1
I146
VmSsdp
p2560
tp2561
I1
s(g1
I171
VURL1
p2562
tp2563
I1
s(g1
I210
VfindItem
p2564
tp2565
I2
s(g1
I210
VString
p2566
tp2567
I2
s(g1
I587
Vurl
p2568
tp2569
I1
s(g1
I33
VPwo
p2570
tp2571
I1
s(g1
I1800
VisResolvableDevice
p2572
tp2573
I1
s(g1
I571
VfindItem
p2574
tp2575
I1
s(g1
I278
Vurl
p2576
tp2577
I1
s(g1
I1014
Verror
p2578
tp2579
I1
s(g1
I577
VUtils
p2580
tp2581
I1
s(g1
I105
VgetRankReturnsPointFive
p2582
tp2583
I1
s(g1
I621
VURI_KEY
p2584
tp2585
I1
s(g1
I1465
VOverride
p2586
tp2587
I1
s(g1
I631
VassertEquals
p2588
tp2589
I1
s(g1
I1411
VNOTIFICATION_PRIORITY
p2590
tp2591
I1
s(g1
I1037
VList
p2592
tp2593
I1
s(g1
I403
VsetServiceData
p2594
tp2595
I1
s(g1
I486
VgetSiteUrl
p2596
tp2597
I1
s(g1
I110
Vintent
p2598
tp2599
I1
s(g1
I620
VuriBeacon
p2600
tp2601
I1
s(g1
I646
VString
p2602
tp2603
I1
s(g1
I176
VgetSiteUrl
p2604
tp2605
I1
s(g1
I322
VgetFragmentManager
p2606
tp2607
I1
s(g1
I407
VgetActivity
p2608
tp2609
I1
s(g1
I255
VJSONObject
p2610
tp2611
I1
s(g1
I838
VpwPair
p2612
tp2613
I1
s(g1
I538
VString
p2614
tp2615
I1
s(g1
I236
VjsonObject
p2616
tp2617
I1
s(g1
I149
VView
p2618
tp2619
I1
s(g1
I1034
VLog
p2620
tp2621
I1
s(g1
I579
VmPwsResult1
p2622
tp2623
I1
s(g1
I942
VallPwPairs
p2624
tp2625
I1
s(g1
I1128
VgetTitle
p2626
tp2627
I1
s(g1
I224
VonPrepareOptionsMenu
p2628
tp2629
I1
s(g1
I397
VsiteUrl
p2630
tp2631
I1
s(g1
I1677
VmSortedDevices
p2632
tp2633
I1
s(g1
I1033
Vmock
p2634
tp2635
I1
s(g1
I2095
VregionView
p2636
tp2637
I1
s(g1
I181
VOverride
p2638
tp2639
I1
s(g1
I1165
VuriBeacon
p2640
tp2641
I1
s(g1
I205
VPhysicalWebCollection
p2642
tp2643
I1
s(g1
I779
Vurl
p2644
tp2645
I1
s(g1
I275
VmIconUrl
p2646
tp2647
I1
s(g1
I435
VURI
p2648
tp2649
I1
s(g1
I672
VputInt
p2650
tp2651
I1
s(g1
I92
VgetId
p2652
tp2653
I1
s(g1
I1745
VmPwoDiscoverers
p2654
tp2655
I1
s(g1
I343
VurlDevice
p2656
tp2657
I1
s(g1
I184
VCollection
p2658
tp2659
I1
s(g1
I631
VmIsDemoMode
p2660
tp2661
I1
s(g1
I447
VstartService
p2662
tp2663
I1
s(g1
I758
VmCallback
p2664
tp2665
I1
s(g1
I208
VmdnsUrlDiscovererCallback
p2666
tp2667
I1
s(g1
I26
VSsdpUrlDeviceDiscoverer
p2668
tp2669
I1
s(g1
I75
Vserialize
p2670
tp2671
I1
s(g1
I1305
VscanBytes
p2672
tp2673
I1
s(g1
I101
VreportUrlDevice
p2674
tp2675
I1
s(g1
I353
VgetUngroupedPwoId
p2676
tp2677
I1
s(g1
I87
VgetPwoByIdReturnsFoundPwo
p2678
tp2679
I1
s(g1
I506
VOverride
p2680
tp2681
I1
s(g1
I311
VJSONArray
p2682
tp2683
I1
s(g1
I502
VtxPower
p2684
tp2685
I1
s(g1
I237
VisStarted
p2686
tp2687
I1
s(g1
I185
VmPwsResult1
p2688
tp2689
I1
s(g1
I354
VView
p2690
tp2691
I1
s(g1
I104
VmScanFilterUuids
p2692
tp2693
I1
s(g1
I1373
VfadeInListView
p2694
tp2695
I1
s(g1
I720
VgroupId
p2696
tp2697
I1
s(g1
I1045
VmPwsClient
p2698
tp2699
I1
s(g1
I771
VmBluetoothAdapter
p2700
tp2701
I1
s(g1
I165
VmUrl
p2702
tp2703
I2
s(g1
I90
VsavedInstanceState
p2704
tp2705
I1
s(g1
I816
VArrayList
p2706
tp2707
I1
s(g1
I2014
Vrank
p2708
tp2709
I1
s(g1
I1274
Vrssi
p2710
tp2711
I1
s(g1
I1790
VmUrlToDeviceAddress
p2712
tp2713
I1
s(g1
I1376
VpwsResult
p2714
tp2715
I1
s(g1
I134
VTAG
p2716
tp2717
I1
s(g1
I206
Vintent
p2718
tp2719
I1
s(g1
I528
VURL
p2720
tp2721
I1
s(g1
I249
VgetString
p2722
tp2723
I1
s(g1
I1843
VcreateUrlProxyGoLink
p2724
tp2725
I1
s(g1
I316
Vreplace
p2726
tp2727
I1
s(g1
I245
VID1
p2728
tp2729
I1
s(g1
I769
VPwoMetadata
p2730
tp2731
I1
s(g1
I826
VtimeStamp
p2732
tp2733
I1
s(g1
I1000
VSet
p2734
tp2735
I1
s(g1
I707
VmNearbyDeviceAdapter
p2736
tp2737
I1
s(g1
I78
VJSONObject
p2738
tp2739
I1
s(g1
I206
VPwsClient
p2740
tp2741
I1
s(g1
I659
VserviceDataUuid
p2742
tp2743
I1
s(g1
I954
VmSwipeRefreshWidget
p2744
tp2745
I1
s(g1
I402
VgetService
p2746
tp2747
I1
s(g1
I671
VdownloadIcon
p2748
tp2749
I1
s(g1
I542
VLog
p2750
tp2751
I1
s(g1
I234
VhttpTransport
p2752
tp2753
I1
s(g1
I1226
Vurl
p2754
tp2755
I1
s(g1
I875
VScanRecord
p2756
tp2757
I1
s(g1
I193
Vother
p2758
tp2759
I1
s(g1
I195
VInteger
p2760
tp2761
I1
s(g1
I376
VmDeviceIdToUrlDeviceMap
p2762
tp2763
I1
s(g1
I563
VpwoResponseCallback
p2764
tp2765
I1
s(g1
I63
VService
p2766
tp2767
I1
s(g1
I403
VsettingsFragment
p2768
tp2769
I1
s(g1
I281
VbroadcastUrls
p2770
tp2771
I1
s(g1
I236
VScanResult
p2772
tp2773
I1
s(g1
I283
Vsplit
p2774
tp2775
I1
s(g1
I941
VmockAddress
p2776
tp2777
I1
s(g1
I2120
VgetScanTimeMillis
p2778
tp2779
I1
s(g1
I1077
VpwPair
p2780
tp2781
I1
s(g1
I703
VsetTitle
p2782
tp2783
I1
s(g1
I353
Vurl
p2784
tp2785
I1
s(g1
I49
VsharedPreferences
p2786
tp2787
I1
s(g1
I635
VaboutFragment
p2788
tp2789
I1
s(g1
I1000
VList
p2790
tp2791
I1
s(g1
I1364
VpwsResultCallback
p2792
tp2793
I1
s(g1
I370
VjsonObject
p2794
tp2795
I1
s(g1
I458
VonPause
p2796
tp2797
I1
s(g1
I1133
VgetDescription
p2798
tp2799
I1
s(g1
I847
Vd
p2800
tp2801
I1
s(g1
I596
Vurl
p2802
tp2803
I1
s(g1
I1393
VsetImageBitmap
p2804
tp2805
I1
s(g1
I241
VParcelUuid
p2806
tp2807
I1
s(g1
I899
Vitem
p2808
tp2809
I1
s(g1
I38
VTAG
p2810
tp2811
I1
s(g1
I391
VsavedInstanceState
p2812
tp2813
I1
s(g1
I1482
Vr1
p2814
tp2815
I1
s(g1
I1456
VmRegionResolver
p2816
tp2817
I1
s(g1
I250
VuriBeacon
p2818
tp2819
I1
s(g1
I69
Veditor
p2820
tp2821
I1
s(g1
I3967
Vlen
p2822
tp2823
I1
s(g1
I76
VURL1
p2824
tp2825
I1
s(g1
I467
VWifiDirectConnect
p2826
tp2827
I1
s(g1
I647
VphysicalWebCollection
p2828
tp2829
I1
s(g1
I256
VurlDevice
p2830
tp2831
I1
s(g1
I222
VonPrepareOptionsMenu
p2832
tp2833
I1
s(g1
I472
VapiKey
p2834
tp2835
I1
s(g1
I555
VcustomPwsUrl
p2836
tp2837
I1
s(g1
I261
Vdevice
p2838
tp2839
I1
s(g1
I1236
VmakeText
p2840
tp2841
I1
s(g1
I431
Vadd
p2842
tp2843
I1
s(g1
I88
Vservice
p2844
tp2845
I1
s(g1
I1814
VContext
p2846
tp2847
I1
s(g1
I485
VPwsClient
p2848
tp2849
I1
s(g1
I290
Vrun
p2850
tp2851
I1
s(g1
I77
Vwait
p2852
tp2853
I1
s(g1
I310
VonResume
p2854
tp2855
I1
s(g1
I337
VonResponse
p2856
tp2857
I1
s(g1
I234
VTAG
p2858
tp2859
I2
s(g1
I353
VpwoMetadata
p2860
tp2861
I1
s(g1
I562
VpwoMetadataStr
p2862
tp2863
I1
s(g1
I57
VParcelUuid
p2864
tp2865
I1
s(g1
I1471
Vequals
p2866
tp2867
I1
s(g1
I195
VMdnsUrlDiscovererCallback
p2868
tp2869
I1
s(g1
I151
VurlDevice
p2870
tp2871
I1
s(g1
I2059
VrankView
p2872
tp2873
I1
s(g1
I224
VjsonUrlMetadata
p2874
tp2875
I1
s(g1
I213
VcachedDistances
p2876
tp2877
I1
s(g1
I365
VList
p2878
tp2879
I1
s(g1
I14
VUrlDeviceDiscoverer
p2880
tp2881
I1
s(g1
I1790
VgetDefaultSharedPreferences
p2882
tp2883
I1
s(g1
I162
VssdpMessage
p2884
tp2885
I1
s(g1
I213
VsetVisible
p2886
tp2887
I2
s(g1
I996
VPwsResultCallback
p2888
tp2889
I1
s(g1
I786
VaddRankedDeviceAndMetadata
p2890
tp2891
I1
s(g1
I1225
VgetMdnsEnabled
p2892
tp2893
I1
s(g1
I349
VmContext
p2894
tp2895
I1
s(g1
I406
VMalformedURLException
p2896
tp2897
I1
s(g1
I141
VsetVisible
p2898
tp2899
I1
s(g1
I1831
Vport
p2900
tp2901
I1
s(g1
I187
VString
p2902
tp2903
I1
s(g1
I654
VBlockedFragment
p2904
tp2905
I1
s(g1
I63
VdiscoveryIntent
p2906
tp2907
I1
s(g1
I475
VfindViewById
p2908
tp2909
I1
s(g1
I705
VallPwPairs
p2910
tp2911
I1
s(g1
I801
VsetCallbackType
p2912
tp2913
I1
s(g1
I693
VdisplayList
p2914
tp2915
I1
s(g1
I279
VSHORTEN_URL_PATH
p2916
tp2917
I1
s(g1
I109
VmContext
p2918
tp2919
I1
s(g1
I681
VgetActionBar
p2920
tp2921
I1
s(g1
I479
Vresult
p2922
tp2923
I1
s(g1
I199
VIOException
p2924
tp2925
I1
s(g1
I931
VmSortedDevices
p2926
tp2927
I1
s(g1
I205
VsetVisible
p2928
tp2929
I2
s(g1
I658
VuriBeacon
p2930
tp2931
I1
s(g1
I304
VString
p2932
tp2933
I1
s(g1
I377
VfindViewById
p2934
tp2935
I1
s(g1
I287
Vmissed
p2936
tp2937
I1
s(g1
I300
VREQUEST_LOCATION
p2938
tp2939
I1
s(g1
I938
VisFatBeaconDevice
p2940
tp2941
I1
s(g1
I784
VjsonUrlMetadata
p2942
tp2943
I2
s(g1
I451
VOverride
p2944
tp2945
I1
s(g1
I459
ViconUrl
p2946
tp2947
I1
s(g1
I1531
VurlTextView
p2948
tp2949
I1
s(g1
I612
VisDemoRequest
p2950
tp2951
I1
s(g1
I192
Vname
p2952
tp2953
I1
s(g1
I653
VtoByteArray
p2954
tp2955
I1
s(g1
I91
Vid
p2956
tp2957
I1
s(g1
I473
VVALUE1
p2958
tp2959
I1
s(g1
I78
VisNetworkUrl
p2960
tp2961
I1
s(g1
I188
VUrlGroup
p2962
tp2963
I1
s(g1
I624
VpwPairs
p2964
tp2965
I1
s(g1
I691
VmScanningAnimationDrawable
p2966
tp2967
I1
s(g1
I508
VString
p2968
tp2969
I1
s(g1
I363
VIntent
p2970
tp2971
I1
s(g1
I646
VsetDisplayHomeAsUpEnabled
p2972
tp2973
I1
s(g1
I128
Vservices
p2974
tp2975
I1
s(g1
I72
VjsonObject
p2976
tp2977
I2
s(g1
I535
VserviceType
p2978
tp2979
I1
s(g1
I558
Vmenu
p2980
tp2981
I1
s(g1
I847
VTAG
p2982
tp2983
I1
s(g1
I114
VView
p2984
tp2985
I1
s(g1
I517
ViconUrl
p2986
tp2987
I1
s(g1
I306
VassertNotEquals
p2988
tp2989
I1
s(g1
I230
Vequals
p2990
tp2991
I1
s(g1
I581
VUtils
p2992
tp2993
I1
s(g1
I1163
VuriBeacon
p2994
tp2995
I1
s(g1
I999
Vurl
p2996
tp2997
I1
s(g1
I243
VupdatePwsPreference
p2998
tp2999
I1
s(g1
I345
VbluetoothManager
p3000
tp3001
I1
s(g1
I1810
VString
p3002
tp3003
I1
s(g1
I217
VsetBleMetadata
p3004
tp3005
I1
s(g1
I922
VpwoMetadata
p3006
tp3007
I1
s(g1
I384
VgetResources
p3008
tp3009
I1
s(g1
I972
VOverride
p3010
tp3011
I1
s(g1
I314
VUriBeacon
p3012
tp3013
I1
s(g1
I1536
VsetText
p3014
tp3015
I1
s(g1
I672
Vput
p3016
tp3017
I1
s(g1
I664
VByteBuffer
p3018
tp3019
I1
s(g1
I161
VURL1
p3020
tp3021
I2
s(g1
I336
VdeviceAddress
p3022
tp3023
I1
s(g1
I183
VPwsResult
p3024
tp3025
I1
s(g1
I207
VAndroidHttp
p3026
tp3027
I1
s(g1
I574
VpwoMetadata
p3028
tp3029
I1
s(g1
I1341
VgetTitle
p3030
tp3031
I1
s(g1
I493
VgetV2PwsResult
p3032
tp3033
I1
s(g1
I107
VTAG
p3034
tp3035
I1
s(g1
I473
VKEY1
p3036
tp3037
I1
s(g1
I501
VmRequestQueue
p3038
tp3039
I1
s(g1
I101
VtoString
p3040
tp3041
I1
s(g1
I649
VcurrentPos
p3042
tp3043
I1
s(g1
I1039
VpwsApiKey
p3044
tp3045
I1
s(g1
I1336
VpwsResultCallback
p3046
tp3047
I1
s(g1
I388
VAnimationDrawable
p3048
tp3049
I1
s(g1
I522
Vgatt
p3050
tp3051
I1
s(g1
I214
VFILE_KEY
p3052
tp3053
I1
s(g1
I113
VmWebView
p3054
tp3055
I1
s(g1
I17
VPwo
p3056
tp3057
I1
s(g1
I1571
Vurl
p3058
tp3059
I1
s(g1
I1068
VPwPair
p3060
tp3061
I1
s(g1
I155
VOverride
p3062
tp3063
I1
s(g1
I430
VLog
p3064
tp3065
I1
s(g1
I1344
VObjectAnimator
p3066
tp3067
I1
s(g1
I265
VURL1
p3068
tp3069
I2
s(g1
I378
Vurl
p3070
tp3071
I1
s(g1
I176
Vitem
p3072
tp3073
I1
s(g1
I565
Vview
p3074
tp3075
I1
s(g1
I651
VBlockedFragment
p3076
tp3077
I1
s(g1
I897
VmNearbyDeviceAdapter
p3078
tp3079
I1
s(g1
I726
VgetGroupedPwPairsSortedByRank
p3080
tp3081
I1
s(g1
I194
VgetExtraDataWorks
p3082
tp3083
I1
s(g1
I1799
VpwPair
p3084
tp3085
I1
s(g1
I1790
VSystem
p3086
tp3087
I1
s(g1
I114
VscanRecord
p3088
tp3089
I1
s(g1
I637
VpwoMetadata
p3090
tp3091
I1
s(g1
I984
VmSortedDevices
p3092
tp3093
I1
s(g1
I318
VsiteUrl
p3094
tp3095
I1
s(g1
I180
VShortenUrlCallback
p3096
tp3097
I1
s(g1
I1256
VgetInstance
p3098
tp3099
I1
s(g1
I477
VmThread
p3100
tp3101
I1
s(g1
I1026
Vurl
p3102
tp3103
I1
s(g1
I902
Vitem
p3104
tp3105
I1
s(g1
I1050
VgetPwPairsSortedByRank
p3106
tp3107
I1
s(g1
I1064
VpwPairs
p3108
tp3109
I1
s(g1
I161
Vposition
p3110
tp3111
I1
s(g1
I1824
VURLEncoder
p3112
tp3113
I1
s(g1
I65
VUrlShortener
p3114
tp3115
I1
s(g1
I387
VgetDrawable
p3116
tp3117
I1
s(g1
I198
VreportUrlDevice
p3118
tp3119
I1
s(g1
I658
Vdescription
p3120
tp3121
I1
s(g1
I385
VbeaconConfigFragment
p3122
tp3123
I1
s(g1
I173
VjsonObject
p3124
tp3125
I1
s(g1
I185
VSSDP_PORT
p3126
tp3127
I1
s(g1
I1720
VgetGroupedPwPairsSortedByRank
p3128
tp3129
I1
s(g1
I236
VjsonUrlMetadata
p3130
tp3131
I1
s(g1
I676
VgetActivity
p3132
tp3133
I1
s(g1
I50
VListView
p3134
tp3135
I1
s(g1
I711
VcancelNotifications
p3136
tp3137
I1
s(g1
I1037
VArrayList
p3138
tp3139
I1
s(g1
I85
VsetRenderPriority
p3140
tp3141
I1
s(g1
I698
VNEAREST_BEACON_NOTIFICATION_ID
p3142
tp3143
I1
s(g1
I585
VString
p3144
tp3145
I2
s(g1
I734
VString
p3146
tp3147
I1
s(g1
I180
VTest
p3148
tp3149
I1
s(g1
I495
VpwsClient
p3150
tp3151
I1
s(g1
I284
Vput
p3152
tp3153
I1
s(g1
I157
VUrlDevice
p3154
tp3155
I1
s(g1
I441
Vhtml
p3156
tp3157
I1
s(g1
I1001
VsetText
p3158
tp3159
I1
s(g1
I1546
VfindViewById
p3160
tp3161
I1
s(g1
I630
VisDemoRequest
p3162
tp3163
I1
s(g1
I603
VpwoMetadata
p3164
tp3165
I1
s(g1
I1037
VmockAddress
p3166
tp3167
I1
s(g1
I382
VgetLeScanner
p3168
tp3169
I1
s(g1
I202
VFatBeaconHelloWorld
p3170
tp3171
I1
s(g1
I786
VGROUP_ID2
p3172
tp3173
I1
s(g1
I776
Vresult
p3174
tp3175
I1
s(g1
I1328
Vitem
p3176
tp3177
I1
s(g1
I28
VTest
p3178
tp3179
I1
s(g1
I41
VActivity
p3180
tp3181
I1
s(g1
I1683
VCollections
p3182
tp3183
I1
s(g1
I191
VhashCode
p3184
tp3185
I1
s(g1
I472
VsetPwsEndpoint
p3186
tp3187
I1
s(g1
I160
VSsdpMessage
p3188
tp3189
I1
s(g1
I579
VmNearbyDevicesAdapter
p3190
tp3191
I1
s(g1
I693
VaddItem
p3192
tp3193
I1
s(g1
I522
Vmenu
p3194
tp3195
I1
s(g1
I308
VURLUtil
p3196
tp3197
I1
s(g1
I897
VgetItem
p3198
tp3199
I1
s(g1
I658
VgetUriString
p3200
tp3201
I1
s(g1
I322
VsiteUrl
p3202
tp3203
I1
s(g1
I1017
VBeaconConfigFragment
p3204
tp3205
I1
s(g1
I542
VMalformedURLException
p3206
tp3207
I1
s(g1
I44
VtxPowerLevel
p3208
tp3209
I1
s(g1
I66
VjsonObject
p3210
tp3211
I1
s(g1
I385
VhttpURLConnection
p3212
tp3213
I1
s(g1
I354
Vget
p3214
tp3215
I1
s(g1
I1542
VTextView
p3216
tp3217
I1
s(g1
I54
VjsonObject
p3218
tp3219
I1
s(g1
I987
VsetRefreshing
p3220
tp3221
I1
s(g1
I224
Vd
p3222
tp3223
I1
s(g1
I980
VpwsEndpoint
p3224
tp3225
I1
s(g1
I70
VfetchedPwo
p3226
tp3227
I1
s(g1
I816
VupdateSummaryNotification
p3228
tp3229
I1
s(g1
I177
VotherUrlDevice
p3230
tp3231
I1
s(g1
I337
VgetFatBeaconTitle
p3232
tp3233
I1
s(g1
I1091
VString
p3234
tp3235
I1
s(g1
I715
VmScanStartTime
p3236
tp3237
I1
s(g1
I629
VonUrlMetadataIconReceived
p3238
tp3239
I1
s(g1
I761
VmBlockedUrls
p3240
tp3241
I1
s(g1
I431
VsetTitle
p3242
tp3243
I1
s(g1
I558
VonPrepareOptionsMenu
p3244
tp3245
I1
s(g1
I783
VgetGroupedPwPairsSortedByRank
p3246
tp3247
I1
s(g1
I457
VlistView
p3248
tp3249
I1
s(g1
I751
Vdismiss
p3250
tp3251
I1
s(g1
I778
VGROUP_ID1
p3252
tp3253
I1
s(g1
I207
VgetActivity
p3254
tp3255
I1
s(g1
I561
VTITLE1
p3256
tp3257
I1
s(g1
I1143
VisFavorite
p3258
tp3259
I1
s(g1
I211
VJsonFactory
p3260
tp3261
I1
s(g1
I59
VTargetApi
p3262
tp3263
I1
s(g1
I1047
VTX_POWER_DEFAULT
p3264
tp3265
I1
s(g1
I324
Vbeacon
p3266
tp3267
I1
s(g1
I46
VpwoCollection
p3268
tp3269
I1
s(g1
I253
VString
p3270
tp3271
I1
s(g1
I197
VgetTopPair
p3272
tp3273
I1
s(g1
I1037
VmDeviceAddressToUrl
p3274
tp3275
I1
s(g1
I373
Vintent
p3276
tp3277
I1
s(g1
I308
Vadd
p3278
tp3279
I1
s(g1
I2017
VString
p3280
tp3281
I1
s(g1
I361
Vobj
p3282
tp3283
I1
s(g1
I205
VDatagramSocket
p3284
tp3285
I1
s(g1
I16
VUrlDeviceDiscoverer
p3286
tp3287
I1
s(g1
I963
VOverride
p3288
tp3289
I1
s(g1
I456
VmHandler
p3290
tp3291
I1
s(g1
I653
VUtils
p3292
tp3293
I1
s(g1
I761
Vid
p3294
tp3295
I1
s(g1
I1193
VmUrlToScanInfo
p3296
tp3297
I1
s(g1
I116
Vid
p3298
tp3299
I1
s(g1
I162
VpwsResult
p3300
tp3301
I1
s(g1
I215
VgetUriString
p3302
tp3303
I1
s(g1
I79
VDate
p3304
tp3305
I1
s(g1
I502
VnearbyBeaconsFragment
p3306
tp3307
I1
s(g1
I87
VmPwPairs
p3308
tp3309
I1
s(g1
I1262
Vaddress
p3310
tp3311
I1
s(g1
I1360
VfinalResolveUrls
p3312
tp3313
I1
s(g1
I1895
VgetBoolean
p3314
tp3315
I1
s(g1
I2063
VgetString
p3316
tp3317
I1
s(g1
I244
VPhysicalWebCollection
p3318
tp3319
I1
s(g1
I1080
VonPwsResult
p3320
tp3321
I1
s(g1
I621
VgetStringExtra
p3322
tp3323
I1
s(g1
I154
Vl
p3324
tp3325
I1
s(g1
I385
VsetInstanceFollowRedirects
p3326
tp3327
I1
s(g1
I375
VNotificationManagerCompat
p3328
tp3329
I1
s(g1
I120
Ve
p3330
tp3331
I1
s(g1
I993
VonUrlMetadataIconReceived
p3332
tp3333
I1
s(g1
I511
VDESCRIPTION_KEY
p3334
tp3335
I1
s(g1
I60
VpwoDiscoveryCallback
p3336
tp3337
I1
s(g1
I1806
Vview
p3338
tp3339
I1
s(g1
I122
VendpointNames
p3340
tp3341
I1
s(g1
I52
VdiscoveryIntent
p3342
tp3343
I1
s(g1
I1124
VsafeNotifyChange
p3344
tp3345
I1
s(g1
I216
Vtext
p3346
tp3347
I1
s(g1
I169
VTest
p3348
tp3349
I1
s(g1
I1022
VonRefresh
p3350
tp3351
I1
s(g1
I188
VassertEquals
p3352
tp3353
I1
s(g1
I704
VonResume
p3354
tp3355
I1
s(g1
I834
VSystem
p3356
tp3357
I1
s(g1
I1845
VsetPwsEndpoint
p3358
tp3359
I1
s(g1
I589
VphysicalWebCollection
p3360
tp3361
I1
s(g1
I438
VgetActivity
p3362
tp3363
I1
s(g1
I396
VmDiscoveryService
p3364
tp3365
I1
s(g1
I575
VfindItem
p3366
tp3367
I1
s(g1
I105
VString
p3368
tp3369
I1
s(g1
I343
VmContext
p3370
tp3371
I1
s(g1
I1640
VkeySet
p3372
tp3373
I1
s(g1
I679
VToast
p3374
tp3375
I1
s(g1
I544
VICON_URL1
p3376
tp3377
I1
s(g1
I649
VscanRecord
p3378
tp3379
I1
s(g1
I896
VtoastError
p3380
tp3381
I1
s(g1
I786
VphysicalWebCollection
p3382
tp3383
I1
s(g1
I321
VgetAddress
p3384
tp3385
I1
s(g1
I830
VfatBeaconAdvertisement
p3386
tp3387
I1
s(g1
I309
VbeginTransaction
p3388
tp3389
I1
s(g1
I2100
VgetTitle
p3390
tp3391
I1
s(g1
I806
VgetPwsResult
p3392
tp3393
I1
s(g1
I102
VinitializeWebView
p3394
tp3395
I1
s(g1
I345
VpwoMetadata
p3396
tp3397
I1
s(g1
I185
VstopDemo
p3398
tp3399
I1
s(g1
I346
VmProgress
p3400
tp3401
I1
s(g1
I348
Vurls
p3402
tp3403
I1
s(g1
I1795
VsetViewVisibility
p3404
tp3405
I1
s(g1
I949
VmNearbyDeviceAdapter
p3406
tp3407
I1
s(g1
I2079
VurlDevice
p3408
tp3409
I1
s(g1
I197
Vmenu
p3410
tp3411
I2
s(g1
I695
VonResume
p3412
tp3413
I1
s(g1
I460
VParcelUuid
p3414
tp3415
I1
s(g1
I218
VString
p3416
tp3417
I1
s(g1
I1093
VsetServiceData
p3418
tp3419
I1
s(g1
I707
VgetItem
p3420
tp3421
I1
s(g1
I959
VgetActivity
p3422
tp3423
I1
s(g1
I427
VTAG
p3424
tp3425
I1
s(g1
I197
Vother
p3426
tp3427
I1
s(g1
I388
VContextCompat
p3428
tp3429
I1
s(g1
I80
VdiscoveryIntent
p3430
tp3431
I1
s(g1
I285
VcheckSelfPermission
p3432
tp3433
I1
s(g1
I110
VurlConnection
p3434
tp3435
I1
s(g1
I636
VString
p3436
tp3437
I1
s(g1
I1020
VtoString
p3438
tp3439
I1
s(g1
I575
Vmenu
p3440
tp3441
I1
s(g1
I414
VgetValue
p3442
tp3443
I1
s(g1
I589
VurlDevice
p3444
tp3445
I1
s(g1
I321
VsetRefreshing
p3446
tp3447
I1
s(g1
I609
VIntent
p3448
tp3449
I1
s(g1
I493
VgetFragmentManager
p3450
tp3451
I1
s(g1
I416
VoptString
p3452
tp3453
I1
s(g1
I698
VdisplayList
p3454
tp3455
I1
s(g1
I749
Vurl
p3456
tp3457
I1
s(g1
I215
VapiKey
p3458
tp3459
I1
s(g1
I553
VThread
p3460
tp3461
I1
s(g1
I933
VhandleFoundDevice
p3462
tp3463
I1
s(g1
I122
VPwPair
p3464
tp3465
I1
s(g1
I434
VView
p3466
tp3467
I1
s(g1
I249
Vd
p3468
tp3469
I1
s(g1
I643
VID3
p3470
tp3471
I1
s(g1
I1348
VdurationMillis
p3472
tp3473
I1
s(g1
I69
Vurl
p3474
tp3475
I1
s(g1
I1220
VcontainsKey
p3476
tp3477
I1
s(g1
I547
VextraData
p3478
tp3479
I1
s(g1
I133
Vstart
p3480
tp3481
I1
s(g1
I272
VmProgress
p3482
tp3483
I1
s(g1
I451
VPowerManager
p3484
tp3485
I1
s(g1
I55
VID1
p3486
tp3487
I1
s(g1
I2052
Vview
p3488
tp3489
I1
s(g1
I684
VassertNull
p3490
tp3491
I1
s(g1
I648
VdeserializedCollection
p3492
tp3493
I1
s(g1
I962
VOverride
p3494
tp3495
I1
s(g1
I574
VserializedCollection
p3496
tp3497
I1
s(g1
I1359
ValphaAnimation
p3498
tp3499
I1
s(g1
I1674
VNonNull
p3500
tp3501
I1
s(g1
I240
VmIconUrl
p3502
tp3503
I1
s(g1
I491
VpwsResult
p3504
tp3505
I1
s(g1
I1357
VRuntimeException
p3506
tp3507
I1
s(g1
I1317
Vurl
p3508
tp3509
I1
s(g1
I345
VmSiteUrl
p3510
tp3511
I1
s(g1
I700
VgetActionBar
p3512
tp3513
I1
s(g1
I196
VmLongUrl
p3514
tp3515
I1
s(g1
I2090
VdistanceView
p3516
tp3517
I1
s(g1
I103
VrootView
p3518
tp3519
I1
s(g1
I447
VArrayList
p3520
tp3521
I1
s(g1
I475
VrootView
p3522
tp3523
I1
s(g1
I315
VisDemoMode
p3524
tp3525
I1
s(g1
I602
VPendingIntent
p3526
tp3527
I1
s(g1
I606
VupdateRegionInfo
p3528
tp3529
I1
s(g1
I783
VphysicalWebCollection
p3530
tp3531
I1
s(g1
I438
VsaveEditCardUrlToBeacon
p3532
tp3533
I1
s(g1
I1000
VString
p3534
tp3535
I3
s(g1
I1732
VmPwCollection
p3536
tp3537
I1
s(g1
I389
VBundle
p3538
tp3539
I1
s(g1
I2042
VrankString
p3540
tp3541
I1
s(g1
I377
VString
p3542
tp3543
I1
s(g1
I724
VimageRequest
p3544
tp3545
I1
s(g1
I483
VmSwipeRefreshWidget
p3546
tp3547
I1
s(g1
I574
VjsonDeserialize
p3548
tp3549
I1
s(g1
I687
VPreferenceManager
p3550
tp3551
I1
s(g1
I838
VTAG
p3552
tp3553
I1
s(g1
I319
VisDemoMode
p3554
tp3555
I1
s(g1
I485
VArrays
p3556
tp3557
I1
s(g1
I52
VJSONObject
p3558
tp3559
I1
s(g1
I368
VBeaconConfigFragment
p3560
tp3561
I1
s(g1
I819
VgetDouble
p3562
tp3563
I1
s(g1
I238
VsetTitle
p3564
tp3565
I1
s(g1
I143
Vi
p3566
tp3567
I1
s(g1
I1384
Vview
p3568
tp3569
I1
s(g1
I1807
VuseDevEndpoint
p3570
tp3571
I1
s(g1
I734
Vclose
p3572
tp3573
I1
s(g1
I1023
VgroupId
p3574
tp3575
I1
s(g1
I208
VComparator
p3576
tp3577
I1
s(g1
I1408
Vicon
p3578
tp3579
I1
s(g1
I393
VgetHeaderField
p3580
tp3581
I1
s(g1
I39
Vurl
p3582
tp3583
I1
s(g1
I517
VICON_URL_KEY
p3584
tp3585
I1
s(g1
I76
VAutostartUriBeaconDiscoveryServiceReceiver
p3586
tp3587
I2
s(g1
I972
VmUrlToUrlMetadata
p3588
tp3589
I1
s(g1
I422
VIntent
p3590
tp3591
I2
s(g1
I184
VotherPwPair
p3592
tp3593
I1
s(g1
I270
VmContext
p3594
tp3595
I1
s(g1
I66
Vurl
p3596
tp3597
I1
s(g1
I1796
VfindViewById
p3598
tp3599
I1
s(g1
I2504
VurlDevice
p3600
tp3601
I1
s(g1
I198
VTest
p3602
tp3603
I1
s(g1
I648
VDeviceMetadata
p3604
tp3605
I1
s(g1
I822
VScanFilter
p3606
tp3607
I1
s(g1
I1158
VserviceData
p3608
tp3609
I1
s(g1
I218
VBlockedAdapter
p3610
tp3611
I1
s(g1
I621
Vintent
p3612
tp3613
I1
s(g1
I899
VgetPwsResult
p3614
tp3615
I1
s(g1
I925
VupdateNearbyBeaconNotification
p3616
tp3617
I1
s(g1
I204
VBluetoothAdapter
p3618
tp3619
I1
s(g1
I1360
VgroupId
p3620
tp3621
I1
s(g1
I648
Vhost
p3622
tp3623
I1
s(g1
I1016
VdeviceAddress
p3624
tp3625
I1
s(g1
I49
Vflags
p3626
tp3627
I1
s(g1
I1352
Vurl
p3628
tp3629
I1
s(g1
I778
VID2
p3630
tp3631
I1
s(g1
I1215
Vurl
p3632
tp3633
I1
s(g1
I749
VwebsiteDir
p3634
tp3635
I1
s(g1
I385
VgetIntValue
p3636
tp3637
I1
s(g1
I501
VOverride
p3638
tp3639
I1
s(g1
I305
VstartService
p3640
tp3641
I1
s(g1
I193
VpwsResult
p3642
tp3643
I1
s(g1
I338
Vvalue
p3644
tp3645
I1
s(g1
I1028
VpwPairs
p3646
tp3647
I1
s(g1
I1044
VonUpdate
p3648
tp3649
I1
s(g1
I389
VmScanningAnimation
p3650
tp3651
I1
s(g1
I188
VmUrlDevice1
p3652
tp3653
I1
s(g1
I261
VsetRefreshing
p3654
tp3655
I1
s(g1
I512
VrequestConnectionPriority
p3656
tp3657
I1
s(g1
I672
Vrank
p3658
tp3659
I1
s(g1
I469
VurlGroup2
p3660
tp3661
I1
s(g1
I744
VPwoMetadata
p3662
tp3663
I1
s(g1
I1054
VUtils
p3664
tp3665
I1
s(g1
I143
VRunnable
p3666
tp3667
I1
s(g1
I189
Vport
p3668
tp3669
I1
s(g1
I266
VgetRequestUrl
p3670
tp3671
I1
s(g1
I1024
VpwsApiKey
p3672
tp3673
I1
s(g1
I236
VRunnable
p3674
tp3675
I1
s(g1
I504
VshortenerClient
p3676
tp3677
I1
s(g1
I1814
VpwsResult
p3678
tp3679
I1
s(g1
I664
Vurl
p3680
tp3681
I1
s(g1
I1791
VsetVisibility
p3682
tp3683
I1
s(g1
I254
Vbuild
p3684
tp3685
I2
s(g1
I2188
VpwsTripTimeView
p3686
tp3687
I1
s(g1
I36
VBleUrlDeviceDiscoverer
p3688
tp3689
I1
s(g1
I398
VassertEquals
p3690
tp3691
I1
s(g1
I264
Vurl
p3692
tp3693
I1
s(g1
I1031
VList
p3694
tp3695
I1
s(g1
I50
g292
tp3696
I1
s(g1
I257
Vtitle
p3697
tp3698
I1
s(g1
I1323
VgetRssi
p3699
tp3700
I1
s(g1
I259
VremoveUrlDevice
p3701
tp3702
I1
s(g1
I455
Vintent
p3703
tp3704
I1
s(g1
I205
Vurl
p3705
tp3706
I1
s(g1
I88
VgetPort
p3707
tp3708
I1
s(g1
I3950
VFileInputStream
p3709
tp3710
I1
s(g1
I494
VonPrepareOptionsMenu
p3711
tp3712
I1
s(g1
I300
VmPwoDiscoverers
p3713
tp3714
I1
s(g1
I622
VRESOLVE_SCAN_PATH
p3715
tp3716
I1
s(g1
I559
VPW_COLLECTION_KEY
p3717
tp3718
I1
s(g1
I880
VmScanFilterUuids
p3719
tp3720
I1
s(g1
I274
VTest
p3721
tp3722
I1
s(g1
I172
Vdemo
p3723
tp3724
I1
s(g1
I378
VopenConnection
p3725
tp3726
I1
s(g1
I380
VArrayList
p3727
tp3728
I2
s(g1
I574
VsetVisible
p3729
tp3730
I1
s(g1
I109
VMAX_ENDPOINT_OPTIONS
p3731
tp3732
I1
s(g1
I166
VpwsResult
p3733
tp3734
I2
s(g1
I23
Vcontext
p3735
tp3736
I3
s(g1
I562
VonPrepareOptionsMenu
p3737
tp3738
I1
s(g1
I66
Vput
p3739
tp3740
I1
s(g1
I49
Vlhs
p3741
tp3742
I1
s(g1
I603
VhasBleMetadata
p3743
tp3744
I1
s(g1
I297
VnewDevice
p3745
tp3746
I1
s(g1
I50
Vlhs
p3747
tp3748
I1
s(g1
I502
VmDisplayList
p3749
tp3750
I1
s(g1
I240
Vkey
p3751
tp3752
I1
s(g1
I425
Vcontainer
p3753
tp3754
I1
s(g1
I1805
VPwsClient
p3755
tp3756
I1
s(g1
I489
VOverride
p3757
tp3758
I1
s(g1
I422
VmSwipeRefreshWidget
p3759
tp3760
I1
s(g1
I325
VTAG
p3761
tp3762
I1
s(g1
I891
VString
p3763
tp3764
I1
s(g1
I498
VmPwoDiscoverers
p3765
tp3766
I1
s(g1
I558
VcustomPwsUrl
p3767
tp3768
I1
s(g1
I112
VpwsResult
p3769
tp3770
I1
s(g1
I57
VaddPwo
p3771
tp3772
I1
s(g1
I941
Vconnect
p3773
tp3774
I1
s(g1
I1080
VpwsResult
p3775
tp3776
I1
s(g1
I30
VURL_KEY
p3777
tp3778
I1
s(g1
I826
VjsonUrlMetadata
p3779
tp3780
I1
s(g1
I1726
Vvalues
p3781
tp3782
I1
s(g1
I603
VphysicalWebCollection
p3783
tp3784
I1
s(g1
I613
VPendingIntent
p3785
tp3786
I1
s(g1
I1027
VmPwCollection
p3787
tp3788
I1
s(g1
I269
VmUrlDevice1
p3789
tp3790
I1
s(g1
I703
VmNotificationManager
p3791
tp3792
I1
s(g1
I1255
Vkey
p3793
tp3794
I1
s(g1
I96
VcreateUrlDeviceBuilder
p3795
tp3796
I1
s(g1
I375
VbeginTransaction
p3797
tp3798
I1
s(g1
I1631
VString
p3799
tp3800
I1
s(g1
I441
VsharedPrefs
p3801
tp3802
I1
s(g1
I249
VjsonUrlMetadata
p3803
tp3804
I1
s(g1
I288
VView
p3805
tp3806
I1
s(g1
I2120
VgetString
p3807
tp3808
I1
s(g1
I2085
VsetText
p3809
tp3810
I1
s(g1
I420
VmFavoriteUrls
p3811
tp3812
I1
s(g1
I103
VCollections
p3813
tp3814
I1
s(g1
I51
Vcontext
p3815
tp3816
I1
s(g1
I722
VmMainActivity
p3817
tp3818
I1
s(g1
I722
VPwPair
p3819
tp3820
I1
s(g1
I160
VPwsResult
p3821
tp3822
I1
s(g1
I963
Vget
p3823
tp3824
I1
s(g1
I576
Velement
p3825
tp3826
I1
s(g1
I165
VURL1
p3827
tp3828
I2
s(g1
I511
Vdescription
p3829
tp3830
I1
s(g1
I327
VendpointNames
p3831
tp3832
I1
s(g1
I32
VActivity
p3833
tp3834
I1
s(g1
I410
Vuuid
p3835
tp3836
I1
s(g1
I191
VgetExtraDataWorks
p3837
tp3838
I1
s(g1
I367
Vobj
p3839
tp3840
I1
s(g1
I206
VmAdapter
p3841
tp3842
I1
s(g1
I437
Vurl
p3843
tp3844
I1
s(g1
I707
VdisplayList
p3845
tp3846
I1
s(g1
I618
VURI
p3847
tp3848
I1
s(g1
I591
VLog
p3849
tp3850
I1
s(g1
I83
VpwPair
p3851
tp3852
I1
s(g1
I346
VupdateRegionInfo
p3853
tp3854
I1
s(g1
I828
VLog
p3855
tp3856
I1
s(g1
I401
VgetActivity
p3857
tp3858
I1
s(g1
I74
VgetUrl
p3859
tp3860
I1
s(g1
I1414
VpendingIntent
p3861
tp3862
I1
s(g1
I120
VString
p3863
tp3864
I1
s(g1
I1799
VgetUrlDevice
p3865
tp3866
I1
s(g1
I319
Vurl
p3867
tp3868
I1
s(g1
I56
VbluetoothDevice
p3869
tp3870
I1
s(g1
I196
VBluetoothManager
p3871
tp3872
I1
s(g1
I507
VfindItem
p3873
tp3874
I1
s(g1
I586
VurlDevice
p3875
tp3876
I1
s(g1
I567
VserializedCollection
p3877
tp3878
I1
s(g1
I499
VfindItem
p3879
tp3880
I1
s(g1
I1267
Vget
p3881
tp3882
I1
s(g1
I353
VmCanUpdateNotifications
p3883
tp3884
I1
s(g1
I202
VmCallback
p3885
tp3886
I1
s(g1
I49
VJSONObject
p3887
tp3888
I1
s(g1
I1207
VSharedPreferences
p3889
tp3890
I1
s(g1
I1779
Vurl
p3891
tp3892
I1
s(g1
I667
Vurl
p3893
tp3894
I1
s(g1
I183
VmExtraData
p3895
tp3896
I1
s(g1
I53
VListView
p3897
tp3898
I1
s(g1
I636
VupdateNotifications
p3899
tp3900
I1
s(g1
I1510
VshowToastOnUiThread
p3901
tp3902
I1
s(g1
I631
VsetCustomAnimations
p3903
tp3904
I1
s(g1
I491
VhasIconUrl
p3905
tp3906
I1
s(g1
I789
VgroupedPairs
p3907
tp3908
I1
s(g1
I178
Vname
p3909
tp3910
I1
s(g1
I303
VcopyOfRange
p3911
tp3912
I1
s(g1
I206
VurlDevice
p3913
tp3914
I1
s(g1
I940
VpwsResult
p3915
tp3916
I1
s(g1
I298
VUriBeaconDiscoveryService
p3917
tp3918
I1
s(g1
I1819
VgetString
p3919
tp3920
I1
s(g1
I182
VUrlGroup
p3921
tp3922
I1
s(g1
I173
VmPwsResult1
p3923
tp3924
I1
s(g1
I374
VotherAddress
p3925
tp3926
I1
s(g1
I190
Vother
p3927
tp3928
I1
s(g1
I205
VmMdnsUrlDiscoverer
p3929
tp3930
I1
s(g1
I468
VmPwCollection
p3931
tp3932
I1
s(g1
I630
VstartId
p3933
tp3934
I1
s(g1
I365
VmScanningImageView
p3935
tp3936
I1
s(g1
I381
VgetTxPower
p3937
tp3938
I1
s(g1
I1671
VArrayList
p3939
tp3940
I1
s(g1
I530
Vmenu
p3941
tp3942
I1
s(g1
I2072
VLog
p3943
tp3944
I1
s(g1
I673
VgetActionBar
p3945
tp3946
I1
s(g1
I838
Vlength
p3947
tp3948
I1
s(g1
I568
Vposition
p3949
tp3950
I1
s(g1
I268
Vcharacteristic
p3951
tp3952
I1
s(g1
I318
Vcommit
p3953
tp3954
I1
s(g1
I61
VpwoCollection
p3955
tp3956
I1
s(g1
I231
VrequestUrl
p3957
tp3958
I1
s(g1
I570
Vdevice
p3959
tp3960
I1
s(g1
I1720
VmPwCollection
p3961
tp3962
I1
s(g1
I75
VonReceive
p3963
tp3964
I2
s(g1
I147
VinputStream
p3965
tp3966
I2
s(g1
I85
VcanChildScrollUp
p3967
tp3968
I1
s(g1
I478
VgetRequestUrl
p3969
tp3970
I1
s(g1
I182
VInetSocketAddress
p3971
tp3972
I1
s(g1
I498
VnearbyBeaconsFragment
p3973
tp3974
I1
s(g1
I582
VbyteBufferArray
p3975
tp3976
I1
s(g1
I228
VurlDevice
p3977
tp3978
I1
s(g1
I427
Vi
p3979
tp3980
I1
s(g1
I828
Vstarted
p3981
tp3982
I1
s(g1
I474
VjsonObject
p3983
tp3984
I1
s(g1
I659
VjsonUrlMetadata
p3985
tp3986
I1
s(g1
I1056
VString
p3987
tp3988
I1
s(g1
I230
Vrhs
p3989
tp3990
I1
s(g1
I843
VisResolvableDevice
p3991
tp3992
I1
s(g1
I903
Vpost
p3993
tp3994
I1
s(g1
I296
Vd
p3995
tp3996
I1
s(g1
I131
Vendpoints
p3997
tp3998
I1
s(g1
I99
VurlConnection
p3999
tp4000
I1
s(g1
I276
VoptString
p4001
tp4002
I1
s(g1
I60
Vcompare
p4003
tp4004
I1
s(g1
I987
VSECOND_NEAREST_BEACON_NOTIFICATION_ID
p4005
tp4006
I1
s(g1
I216
VbluetoothAdapter
p4007
tp4008
I1
s(g1
I192
VonOptionsItemSelected
p4009
tp4010
I1
s(g1
I447
Vview
p4011
tp4012
I1
s(g1
I286
VmGroupId
p4013
tp4014
I1
s(g1
I163
Vitem
p4015
tp4016
I1
s(g1
I360
VurlDevice
p4017
tp4018
I1
s(g1
I484
VURL2
p4019
tp4020
I1
s(g1
I55
VURL1
p4021
tp4022
I1
s(g1
I211
VmIconUrl
p4023
tp4024
I1
s(g1
I1348
VmSwipeRefreshWidget
p4025
tp4026
I1
s(g1
I549
VJSONObject
p4027
tp4028
I1
s(g1
I163
VmPwsResult1
p4029
tp4030
I1
s(g1
I819
VhideAllMenuItems
p4031
tp4032
I1
s(g1
I485
VmDisplayUrl
p4033
tp4034
I1
s(g1
I289
VDialogInterface
p4035
tp4036
I1
s(g1
I1440
VlocalBinder
p4037
tp4038
I1
s(g1
I1167
VString
p4039
tp4040
I1
s(g1
I183
VonCreateView
p4041
tp4042
I1
s(g1
I612
VdeserializedCollection
p4043
tp4044
I1
s(g1
I312
Vurl
p4045
tp4046
I1
s(g1
I605
VgetSystemService
p4047
tp4048
I1
s(g1
I298
VPhysicalWebCollectionException
p4049
tp4050
I1
s(g1
I396
VButton
p4051
tp4052
I1
s(g1
I487
VmMulticastSocket
p4053
tp4054
I1
s(g1
I401
VNearbyBeaconsFragment
p4055
tp4056
I1
s(g1
I1333
Vitem
p4057
tp4058
I1
s(g1
I235
VfoundMetadata
p4059
tp4060
I1
s(g1
I541
VserviceType
p4061
tp4062
I1
s(g1
I695
VjsonUrlMetadata
p4063
tp4064
I1
s(g1
I423
VJSONException
p4065
tp4066
I1
s(g1
I277
VreadCharacteristic
p4067
tp4068
I1
s(g1
I256
VmSecondScanComplete
p4069
tp4070
I1
s(g1
I136
Vequals
p4071
tp4072
I1
s(g1
I315
VCharset
p4073
tp4074
I1
s(g1
I131
VotherPwPair
p4075
tp4076
I1
s(g1
I2074
VreadCustomPwsEndpointVersion
p4077
tp4078
I1
s(g1
I1251
VshowListView
p4079
tp4080
I1
s(g1
I836
VgetDevice
p4081
tp4082
I1
s(g1
I201
VhashCode
p4083
tp4084
I1
s(g1
I311
VTest
p4085
tp4086
I1
s(g1
I63
VurlB
p4087
tp4088
I1
s(g1
I483
Vurl
p4089
tp4090
I1
s(g1
I167
VjsonObject
p4091
tp4092
I1
s(g1
I886
VList
p4093
tp4094
I1
s(g1
I1949
VupdateRangingDebugView
p4095
tp4096
I1
s(g1
I224
VonSsdpMessageReceived
p4097
tp4098
I1
s(g1
I622
VgetHost
p4099
tp4100
I1
s(g1
I171
VsetDisplayHomeAsUpEnabled
p4101
tp4102
I1
s(g1
I134
VmScanFilterUuids
p4103
tp4104
I1
s(g1
I1005
VContext
p4105
tp4106
I1
s(g1
I124
VJSONObject
p4107
tp4108
I1
s(g1
I566
VPW_COLLECTION_KEY
p4109
tp4110
I1
s(g1
I778
VphysicalWebCollection
p4111
tp4112
I1
s(g1
I324
VonResume
p4113
tp4114
I1
s(g1
I249
VLog
p4115
tp4116
I1
s(g1
I2059
VrankString
p4117
tp4118
I1
s(g1
I1355
VgetGroupId
p4119
tp4120
I1
s(g1
I353
Vd
p4121
tp4122
I1
s(g1
I425
Ve
p4123
tp4124
I1
s(g1
I1637
Vurl
p4125
tp4126
I1
s(g1
I1357
VmScanningAnimationTextView
p4127
tp4128
I1
s(g1
I39
VPwPair
p4129
tp4130
I1
s(g1
I365
VsetCallbackType
p4131
tp4132
I1
s(g1
I982
VIntent
p4133
tp4134
I1
s(g1
I281
VreportUrlDevice
p4135
tp4136
I1
s(g1
I570
VsetDuration
p4137
tp4138
I1
s(g1
I255
VID1
p4139
tp4140
I1
s(g1
I41
Vcontext
p4141
tp4142
I1
s(g1
I469
VGROUP_ID1
p4143
tp4144
I1
s(g1
I816
VsetEditCardUrl
p4145
tp4146
I1
s(g1
I703
Vclear
p4147
tp4148
I1
s(g1
I931
VgetActivity
p4149
tp4150
I1
s(g1
I170
VpwsResult
p4151
tp4152
I1
s(g1
I1044
VmockRssi
p4153
tp4154
I1
s(g1
I826
VpwsClient
p4155
tp4156
I1
s(g1
I929
VgetTitle
p4157
tp4158
I1
s(g1
I218
VfindItem
p4159
tp4160
I1
s(g1
I879
VmIsScanRunning
p4161
tp4162
I1
s(g1
I195
VURLUtil
p4163
tp4164
I1
s(g1
I353
VLog
p4165
tp4166
I2
s(g1
I196
VjsonSerializeWithoutSerializerThrowsException
p4167
tp4168
I1
s(g1
I517
VrequestCode
p4169
tp4170
I1
s(g1
I2132
VTextView
p4171
tp4172
I1
s(g1
I200
VgetActivity
p4173
tp4174
I1
s(g1
I988
Vresponse
p4175
tp4176
I1
s(g1
I221
Vurl
p4177
tp4178
I2
s(g1
I150
Vitem
p4179
tp4180
I1
s(g1
I128
VString
p4181
tp4182
I1
s(g1
I357
VgetMetadataByBroadcastUrl
p4183
tp4184
I1
s(g1
I408
VmUrlDeviceDiscoverers
p4185
tp4186
I1
s(g1
I559
VcustomPwsUrl
p4187
tp4188
I1
s(g1
I940
VgetTitle
p4189
tp4190
I1
s(g1
I1226
Vput
p4191
tp4192
I1
s(g1
I172
Ve
p4193
tp4194
I1
s(g1
I635
VDATA_TYPE_SERVICE_DATA
p4195
tp4196
I1
s(g1
I1379
Vsize
p4197
tp4198
I1
s(g1
I189
Vother
p4199
tp4200
I1
s(g1
I489
VMenu
p4201
tp4202
I1
s(g1
I1062
VHashMap
p4203
tp4204
I1
s(g1
I346
VsetOnCancelListener
p4205
tp4206
I1
s(g1
I560
VByteBuffer
p4207
tp4208
I1
s(g1
I929
VpwsResult
p4209
tp4210
I1
s(g1
I718
VgetFilesDir
p4211
tp4212
I1
s(g1
I394
VlongUrl
p4213
tp4214
I1
s(g1
I419
VDATA_LENGTH_MAX
p4215
tp4216
I1
s(g1
I395
VphysicalWebCollection1
p4217
tp4218
I1
s(g1
I196
Ve
p4219
tp4220
I1
s(g1
I140
VmSsdp
p4221
tp4222
I1
s(g1
I959
VmIsScanRunning
p4223
tp4224
I1
s(g1
I602
VNotificationManager
p4225
tp4226
I1
s(g1
I1032
VList
p4227
tp4228
I1
s(g1
I459
VgetActivity
p4229
tp4230
I1
s(g1
I425
Vurl
p4231
tp4232
I1
s(g1
I1813
VgetString
p4233
tp4234
I1
s(g1
I318
VurlDevice
p4235
tp4236
I1
s(g1
I1203
VContext
p4237
tp4238
I1
s(g1
I395
VlocalBinder
p4239
tp4240
I1
s(g1
I203
VPhysicalWebCollectionException
p4241
tp4242
I1
s(g1
I644
VscanResult
p4243
tp4244
I1
s(g1
I64
VPwsResult
p4245
tp4246
I1
s(g1
I948
VstartSearchingForPwos
p4247
tp4248
I1
s(g1
I914
VstopSearchingForUriBeacons
p4249
tp4250
I1
s(g1
I1070
VpwPair
p4251
tp4252
I1
s(g1
I390
Vcommit
p4253
tp4254
I1
s(g1
I255
VSimpleUrlDevice
p4255
tp4256
I1
s(g1
I47
VassertEquals
p4257
tp4258
I1
s(g1
I56
VmBluetoothDevice
p4259
tp4260
I1
s(g1
I189
VRunnable
p4261
tp4262
I1
s(g1
I1805
VgetInstance
p4263
tp4264
I1
s(g1
I811
Vget
p4265
tp4266
I1
s(g1
I221
VPROD_ENDPOINT
p4267
tp4268
I1
s(g1
I39
VuriString
p4269
tp4270
I1
s(g1
I606
Vpref
p4271
tp4272
I1
s(g1
I56
Vedit
p4273
tp4274
I1
s(g1
I638
VsetTitle
p4275
tp4276
I1
s(g1
I877
VscanRecord
p4277
tp4278
I1
s(g1
I478
VScreenListenerService
p4279
tp4280
I1
s(g1
I629
Vsize
p4281
tp4282
I1
s(g1
I392
VUrlDeviceDiscoveryService
p4283
tp4284
I1
s(g1
I310
Vurl
p4285
tp4286
I1
s(g1
I1938
VmUrlToUrlMetadata
p4287
tp4288
I1
s(g1
I807
Vsettings
p4289
tp4290
I1
s(g1
I185
VbluetoothAdapter
p4291
tp4292
I1
s(g1
I1098
Vurl
p4293
tp4294
I1
s(g1
I1012
VdeviceAddress
p4295
tp4296
I1
s(g1
I376
VfinishLoad
p4297
tp4298
I1
s(g1
I474
VsetPwsEndpoint
p4299
tp4300
I1
s(g1
I201
VgetDefaultPwsEndpointPreferenceString
p4301
tp4302
I1
s(g1
I241
VassertTrue
p4303
tp4304
I1
s(g1
I585
VUrlDevice
p4305
tp4306
I1
s(g1
I547
VOverride
p4307
tp4308
I2
s(g1
I93
VisDemoStarted
p4309
tp4310
I1
s(g1
I511
Vmessage
p4311
tp4312
I1
s(g1
I1163
VgetTxPowerLevel
p4313
tp4314
I1
s(g1
I2077
Vcontext
p4315
tp4316
I1
s(g1
I254
VmSecondScanComplete
p4317
tp4318
I1
s(g1
I1747
VrequestCachedPwos
p4319
tp4320
I1
s(g1
I647
VLOCAL_SCAN_STALE_TIME_MILLIS
p4321
tp4322
I1
s(g1
I1348
VsetRefreshing
p4323
tp4324
I1
s(g1
I106
VWebView
p4325
tp4326
I1
s(g1
I2074
VsetText
p4327
tp4328
I1
s(g1
I1783
Vintent
p4329
tp4330
I1
s(g1
I1795
Vcontext
p4331
tp4332
I1
s(g1
I213
VgetGroupId
p4333
tp4334
I1
s(g1
I1058
VfetchPwsResults
p4335
tp4336
I1
s(g1
I61
g292
tp4337
I2
s(g1
I637
VListView
p4338
tp4339
I1
s(g1
I370
Vbuild
p4340
tp4341
I1
s(g1
I245
VmIconUrl
p4342
tp4343
I1
s(g1
I169
VshowNearbyBeaconsFragment
p4344
tp4345
I1
s(g1
I778
VURL2
p4346
tp4347
I1
s(g1
I351
VjsonObject
p4348
tp4349
I1
s(g1
I613
Vurl
p4350
tp4351
I1
s(g1
I1017
VmDeviceIdToUrlDeviceMap
p4352
tp4353
I1
s(g1
I626
VrestoreCache
p4354
tp4355
I1
s(g1
I1318
VscanResult
p4356
tp4357
I1
s(g1
I1164
VUriBeacon
p4358
tp4359
I1
s(g1
I29
VPwsResult
p4360
tp4361
I1
s(g1
I293
VsetGroupId
p4362
tp4363
I1
s(g1
I301
Vintent
p4364
tp4365
I1
s(g1
I267
Vadd
p4366
tp4367
I1
s(g1
I173
VID_KEY
p4368
tp4369
I1
s(g1
I58
VWebView
p4370
tp4371
I1
s(g1
I236
VgetDistance
p4372
tp4373
I1
s(g1
I817
Vfilter
p4374
tp4375
I1
s(g1
I687
VoptString
p4376
tp4377
I1
s(g1
I992
VmDiscoveryServiceConnection
p4378
tp4379
I1
s(g1
I619
VString
p4380
tp4381
I1
s(g1
I1827
VsetText
p4382
tp4383
I1
s(g1
I242
VgetString
p4384
tp4385
I1
s(g1
I173
VassertNotEquals
p4386
tp4387
I1
s(g1
I187
Vequals
p4388
tp4389
I1
s(g1
I338
VgetSystemService
p4390
tp4391
I1
s(g1
I411
VDate
p4392
tp4393
I1
s(g1
I574
VresultIntent
p4394
tp4395
I1
s(g1
I1018
VdownloadIconCallback
p4396
tp4397
I1
s(g1
I282
Vmissed
p4398
tp4399
I1
s(g1
I277
VsetCancelable
p4400
tp4401
I1
s(g1
I261
VgetAddress
p4402
tp4403
I1
s(g1
I1095
Vbuild
p4404
tp4405
I1
s(g1
I934
Vformat
p4406
tp4407
I1
s(g1
I1054
VMap
p4408
tp4409
I1
s(g1
I30
VTAG
p4410
tp4411
I1
s(g1
I477
VmSwipeRefreshWidget
p4412
tp4413
I1
s(g1
I1795
VgetString
p4414
tp4415
I1
s(g1
I1508
VmPendingIconUrls
p4416
tp4417
I1
s(g1
I440
VjsonUrlMetadata
p4418
tp4419
I1
s(g1
I704
VURISyntaxException
p4420
tp4421
I1
s(g1
I1450
VonServiceConnected
p4422
tp4423
I1
s(g1
I108
VgetActivity
p4424
tp4425
I1
s(g1
I496
VNEARBY_BEACONS_FRAGMENT_TAG
p4426
tp4427
I1
s(g1
I1229
VoldUrl
p4428
tp4429
I1
s(g1
I310
Vfilter
p4430
tp4431
I1
s(g1
I647
VscanDelta
p4432
tp4433
I1
s(g1
I648
Vposition
p4434
tp4435
I1
s(g1
I635
VDate
p4436
tp4437
I1
s(g1
I403
VmDiscoveryService
p4438
tp4439
I1
s(g1
I193
VjsonSerialize
p4440
tp4441
I1
s(g1
I97
VHttpURLConnection
p4442
tp4443
I1
s(g1
I652
VmBlockedUrls
p4444
tp4445
I1
s(g1
I1375
VpwPair
p4446
tp4447
I1
s(g1
I71
VPhysicalWebBroadcastService
p4448
tp4449
I1
s(g1
I28
Vurl
p4450
tp4451
I1
s(g1
I198
VThread
p4452
tp4453
I1
s(g1
I93
VArrayList
p4454
tp4455
I1
s(g1
I706
Ve
p4456
tp4457
I1
s(g1
I316
Vstop
p4458
tp4459
I1
s(g1
I242
VrootView
p4460
tp4461
I1
s(g1
I1408
VremoteViews
p4462
tp4463
I1
s(g1
I603
VjsonSerialize
p4464
tp4465
I1
s(g1
I2355
Vequals
p4466
tp4467
I1
s(g1
I547
Ve
p4468
tp4469
I1
s(g1
I1169
VuriBeacon
p4470
tp4471
I1
s(g1
I310
VString
p4472
tp4473
I1
s(g1
I51
Vbuild
p4474
tp4475
I1
s(g1
I221
VsetVisible
p4476
tp4477
I1
s(g1
I1102
VonPwsResultAbsent
p4478
tp4479
I1
s(g1
I662
VmExtraData
p4480
tp4481
I1
s(g1
I1486
Vremove
p4482
tp4483
I1
s(g1
I317
VUtils
p4484
tp4485
I1
s(g1
I177
VTest
p4486
tp4487
I1
s(g1
I34
Vcontext
p4488
tp4489
I3
s(g1
I891
VToast
p4490
tp4491
I1
s(g1
I843
VsetEditCardUrl
p4492
tp4493
I1
s(g1
I44
VBluetoothDevice
p4494
tp4495
I1
s(g1
I1118
Vfilters
p4496
tp4497
I1
s(g1
I792
VphysicalWebCollection
p4498
tp4499
I1
s(g1
I184
VObject
p4500
tp4501
I1
s(g1
I1012
VVolleyError
p4502
tp4503
I1
s(g1
I1049
VgetSortedBeaconsWithMetadata
p4504
tp4505
I1
s(g1
I2523
VurlDevice
p4506
tp4507
I1
s(g1
I432
VUriBeaconDiscoveryService
p4508
tp4509
I1
s(g1
I397
VmIsDemoMode
p4510
tp4511
I1
s(g1
I680
VjsonUrlMetadata
p4512
tp4513
I1
s(g1
I296
VString
p4514
tp4515
I1
s(g1
I96
Vfinish
p4516
tp4517
I1
s(g1
I1260
VString
p4518
tp4519
I1
s(g1
I561
VURL1
p4520
tp4521
I1
s(g1
I265
Vtitle
p4522
tp4523
I1
s(g1
I1300
VUriBeacon
p4524
tp4525
I1
s(g1
I322
VAdvertiseDataUtils
p4526
tp4527
I1
s(g1
I249
VPwsResult
p4528
tp4529
I2
s(g1
I852
VmNotificationUpdateGateTimeout
p4530
tp4531
I1
s(g1
I269
VProgressDialog
p4532
tp4533
I1
s(g1
I53
Vrhs
p4534
tp4535
I1
s(g1
I101
VIntent
p4536
tp4537
I1
s(g1
I889
VSet
p4538
tp4539
I1
s(g1
I686
VonDismiss
p4540
tp4541
I1
s(g1
I166
VString
p4542
tp4543
I1
s(g1
I1172
Vurl
p4544
tp4545
I1
s(g1
I351
Vput
p4546
tp4547
I1
s(g1
I422
VsetOnRefreshListener
p4548
tp4549
I1
s(g1
I804
VsetScanMode
p4550
tp4551
I1
s(g1
I672
Vcontext
p4552
tp4553
I1
s(g1
I604
VjsonDeserialize
p4554
tp4555
I1
s(g1
I215
VmAdapter
p4556
tp4557
I1
s(g1
I786
VURL1
p4558
tp4559
I1
s(g1
I879
VPwPair
p4560
tp4561
I1
s(g1
I689
VmExtraData
p4562
tp4563
I1
s(g1
I971
VmUrlToUrlMetadata
p4564
tp4565
I1
s(g1
I794
VScanSettings
p4566
tp4567
I1
s(g1
I445
VgetAction
p4568
tp4569
I1
s(g1
I831
VOverride
p4570
tp4571
I2
s(g1
I381
VgetUrlDevices
p4572
tp4573
I1
s(g1
I172
Vline
p4574
tp4575
I1
s(g1
I1918
VPreferenceManager
p4576
tp4577
I1
s(g1
I235
VgetActionBar
p4578
tp4579
I1
s(g1
I642
Vdata
p4580
tp4581
I1
s(g1
I724
VPwPair
p4582
tp4583
I1
s(g1
I927
VisFatBeaconDevice
p4584
tp4585
I1
s(g1
I488
Vdisconnect
p4586
tp4587
I1
s(g1
I1196
VgroupMap
p4588
tp4589
I1
s(g1
I391
VmPwoDiscoverers
p4590
tp4591
I2
s(g1
I1408
VsetImageViewBitmap
p4592
tp4593
I1
s(g1
I503
VmPwsResult1
p4594
tp4595
I1
s(g1
I356
VurlDevice
p4596
tp4597
I1
s(g1
I1830
VString
p4598
tp4599
I1
s(g1
I501
VpwsResultIconCallback
p4600
tp4601
I1
s(g1
I383
Vfilters
p4602
tp4603
I1
s(g1
I1504
Vrun
p4604
tp4605
I1
s(g1
I942
Vaddress
p4606
tp4607
I1
s(g1
I598
Vurl
p4608
tp4609
I2
s(g1
I542
Vi
p4610
tp4611
I1
s(g1
I663
VOverride
p4612
tp4613
I1
s(g1
I761
Vurl
p4614
tp4615
I1
s(g1
I818
VScanResult
p4616
tp4617
I1
s(g1
I50
VSimpleUrlDeviceJsonSerializer
p4618
tp4619
I1
s(g1
I530
VRESULT_OK
p4620
tp4621
I1
s(g1
I226
VapiVersion
p4622
tp4623
I1
s(g1
I1361
Vintent
p4624
tp4625
I1
s(g1
I245
VURL1
p4626
tp4627
I1
s(g1
I777
Vmenu
p4628
tp4629
I1
s(g1
I156
VurlDevice
p4630
tp4631
I1
s(g1
I526
VByteArrayOutputStream
p4632
tp4633
I1
s(g1
I570
VSettingsFragment
p4634
tp4635
I1
s(g1
I967
VremoveCallbacks
p4636
tp4637
I1
s(g1
I1747
VrestartScan
p4638
tp4639
I1
s(g1
I432
VURI
p4640
tp4641
I1
s(g1
I257
VcreateNearbyDevicesAdapter
p4642
tp4643
I1
s(g1
I829
VsetServiceUuid
p4644
tp4645
I1
s(g1
I103
VmUrl
p4646
tp4647
I1
s(g1
I941
VmBluetoothSite
p4648
tp4649
I1
s(g1
I1096
Vfilters
p4650
tp4651
I1
s(g1
I1548
VdescriptionTextView
p4652
tp4653
I1
s(g1
I315
VgetActivity
p4654
tp4655
I1
s(g1
I1108
VPwoMetadata
p4656
tp4657
I1
s(g1
I517
Vput
p4658
tp4659
I1
s(g1
I480
VsetOnRefreshListener
p4660
tp4661
I1
s(g1
I838
VpwsResult
p4662
tp4663
I1
s(g1
I319
VUriBeacon
p4664
tp4665
I1
s(g1
I937
VgetSiteUrl
p4666
tp4667
I1
s(g1
I630
VPowerManager
p4668
tp4669
I1
s(g1
I117
VgetSettings
p4670
tp4671
I1
s(g1
I848
VLog
p4672
tp4673
I1
s(g1
I363
VrootView
p4674
tp4675
I1
s(g1
I178
VPwPair
p4676
tp4677
I1
s(g1
I43
VIntent
p4678
tp4679
I1
s(g1
I234
VWifiP2pConfig
p4680
tp4681
I1
s(g1
I232
VonPrepareOptionsMenu
p4682
tp4683
I1
s(g1
I692
VSCANMILLIS
p4684
tp4685
I1
s(g1
I821
Ve
p4686
tp4687
I1
s(g1
I40
VMainActivity
p4688
tp4689
I1
s(g1
I238
VcheckIfBluetoothIsEnabled
p4690
tp4691
I1
s(g1
I57
VgetUrlDevice
p4692
tp4693
I1
s(g1
I1182
VreadCustomPwsEndpointVersion
p4694
tp4695
I1
s(g1
I791
VTAG
p4696
tp4697
I1
s(g1
I534
Vi
p4698
tp4699
I1
s(g1
I127
Vservice
p4700
tp4701
I1
s(g1
I331
VJSONObject
p4702
tp4703
I1
s(g1
I368
VsetOnEditorActionListener
p4704
tp4705
I1
s(g1
I844
VgetGroupedPwPairsSortedByRank
p4706
tp4707
I1
s(g1
I1414
VmContext
p4708
tp4709
I1
s(g1
I408
VmNotificationManager
p4710
tp4711
I1
s(g1
I374
Vnearest
p4712
tp4713
I1
s(g1
I599
VonPwoDiscovered
p4714
tp4715
I1
s(g1
I696
VgetSiteUrl
p4716
tp4717
I1
s(g1
I1002
VString
p4718
tp4719
I1
s(g1
I496
VUriBeaconAdvertiserActivity
p4720
tp4721
I1
s(g1
I247
VTAG
p4722
tp4723
I1
s(g1
I2192
Vmetadata
p4724
tp4725
I1
s(g1
I236
VcreateUrlDeviceBuilder
p4726
tp4727
I2
s(g1
I714
VgetListView
p4728
tp4729
I1
s(g1
I1414
VsetContentIntent
p4730
tp4731
I1
s(g1
I125
VNsdServiceInfo
p4732
tp4733
I1
s(g1
I435
VPwsResult
p4734
tp4735
I1
s(g1
I825
VLooper
p4736
tp4737
I1
s(g1
I117
VObject
p4738
tp4739
I1
s(g1
I2079
VgetExtraString
p4740
tp4741
I1
s(g1
I2186
VfindViewById
p4742
tp4743
I1
s(g1
I942
VmRegionResolver
p4744
tp4745
I1
s(g1
I1337
Ve
p4746
tp4747
I1
s(g1
I441
VmNearbyDeviceAdapter
p4748
tp4749
I1
s(g1
I1317
VgetDefaultSharedPreferences
p4750
tp4751
I1
s(g1
I827
VpwsClient
p4752
tp4753
I1
s(g1
I785
Venable
p4754
tp4755
I1
s(g1
I117
VmWebView
p4756
tp4757
I1
s(g1
I310
VurlToNavigateTo
p4758
tp4759
I1
s(g1
I517
Vurl
p4760
tp4761
I1
s(g1
I423
Vinitialize
p4762
tp4763
I1
s(g1
I324
Vvalue
p4764
tp4765
I1
s(g1
I831
VString
p4766
tp4767
I1
s(g1
I200
VassertEquals
p4768
tp4769
I1
s(g1
I162
VgetRank
p4770
tp4771
I1
s(g1
I779
VurlToNavigateTo
p4772
tp4773
I1
s(g1
I709
VpwoMetadata
p4774
tp4775
I1
s(g1
I174
VUrlDevice
p4776
tp4777
I1
s(g1
I406
Vfilter
p4778
tp4779
I1
s(g1
I776
VString
p4780
tp4781
I1
s(g1
I110
Vendpoints
p4782
tp4783
I1
s(g1
I1435
Vservice
p4784
tp4785
I1
s(g1
I627
Vurl
p4786
tp4787
I1
s(g1
I358
VonResume
p4788
tp4789
I1
s(g1
I464
VaddPair
p4790
tp4791
I1
s(g1
I113
VIntent
p4792
tp4793
I1
s(g1
I573
VsetListener
p4794
tp4795
I1
s(g1
I467
VTAG
p4796
tp4797
I1
s(g1
I427
VTaskStackBuilder
p4798
tp4799
I1
s(g1
I206
VgetType
p4800
tp4801
I1
s(g1
I447
VsetCallback
p4802
tp4803
I1
s(g1
I205
VString
p4804
tp4805
I1
s(g1
I208
VmDatagramSocket
p4806
tp4807
I1
s(g1
I2123
Vformat
p4808
tp4809
I1
s(g1
I577
VcustomPwsVersion
p4810
tp4811
I1
s(g1
I189
VJSONObject
p4812
tp4813
I1
s(g1
I140
VgetString
p4814
tp4815
I1
s(g1
I1730
VpwoMetadata
p4816
tp4817
I1
s(g1
I183
VcreateUrlDeviceBuilder
p4818
tp4819
I1
s(g1
I376
VfindViewById
p4820
tp4821
I1
s(g1
I635
Vurl
p4822
tp4823
I1
s(g1
I185
VString
p4824
tp4825
I1
s(g1
I115
VurlConnection
p4826
tp4827
I1
s(g1
I1414
VsetTextViewText
p4828
tp4829
I1
s(g1
I849
VbroadcastUrl
p4830
tp4831
I1
s(g1
I228
VPwPair
p4832
tp4833
I1
s(g1
I584
VPwsResult
p4834
tp4835
I1
s(g1
I471
VSwipeRefreshWidget
p4836
tp4837
I1
s(g1
I797
VgroupedPairs
p4838
tp4839
I1
s(g1
I1815
VsetImageBitmap
p4840
tp4841
I1
s(g1
I201
VgetTopPair
p4842
tp4843
I1
s(g1
I45
VOverride
p4844
tp4845
I1
s(g1
I815
Vurl
p4846
tp4847
I1
s(g1
I1368
VUtils
p4848
tp4849
I1
s(g1
I280
Vput
p4850
tp4851
I1
s(g1
I163
VgetIconUrl
p4852
tp4853
I1
s(g1
I635
Vreplace
p4854
tp4855
I1
s(g1
I295
VIntent
p4856
tp4857
I1
s(g1
I483
VsetColorSchemeResources
p4858
tp4859
I1
s(g1
I384
VActivityCompat
p4860
tp4861
I1
s(g1
I794
VContext
p4862
tp4863
I1
s(g1
I287
VcompareDeviceToItselfReturnsZero
p4864
tp4865
I1
s(g1
I591
VTAG
p4866
tp4867
I1
s(g1
I286
VLog
p4868
tp4869
I1
s(g1
I415
Vinitialize
p4870
tp4871
I1
s(g1
I1736
VPwoDiscoverer
p4872
tp4873
I1
s(g1
I479
VREQUESTURL_KEY
p4874
tp4875
I1
s(g1
I1269
VpwoMetadata
p4876
tp4877
I1
s(g1
I182
VshortenUrlCallback
p4878
tp4879
I1
s(g1
I1357
Vurl
p4880
tp4881
I1
s(g1
I467
VDEVICES_KEY
p4882
tp4883
I1
s(g1
I90
VaddPair
p4884
tp4885
I1
s(g1
I374
Vequals
p4886
tp4887
I1
s(g1
I1323
VscanResult
p4888
tp4889
I1
s(g1
I185
Vdemo
p4890
tp4891
I1
s(g1
I324
VmPwoDiscoverers
p4892
tp4893
I1
s(g1
I658
VstartScanning
p4894
tp4895
I1
s(g1
I247
VurlDevice
p4896
tp4897
I1
s(g1
I706
VgetActivity
p4898
tp4899
I1
s(g1
I592
VaddExtra
p4900
tp4901
I1
s(g1
I1342
VOverride
p4902
tp4903
I1
s(g1
I512
Vgatt
p4904
tp4905
I1
s(g1
I469
VaddPair
p4906
tp4907
I1
s(g1
I773
VID5
p4908
tp4909
I1
s(g1
I52
VSimplePwo
p4910
tp4911
I1
s(g1
I199
VmErr
p4912
tp4913
I1
s(g1
I629
Ve
p4914
tp4915
I1
s(g1
I2021
VgetString
p4916
tp4917
I1
s(g1
I498
VICONURL_KEY
p4918
tp4919
I1
s(g1
I282
VonResume
p4920
tp4921
I1
s(g1
I252
VemptyGroupIdQueue
p4922
tp4923
I1
s(g1
I1336
VhttpResponseCode
p4924
tp4925
I1
s(g1
I990
VupdateSummaryNotification
p4926
tp4927
I1
s(g1
I203
Vhash
p4928
tp4929
I1
s(g1
I239
Vrssi
p4930
tp4931
I2
s(g1
I937
VgetUrlDevice
p4932
tp4933
I1
s(g1
I534
VLog
p4934
tp4935
I1
s(g1
I26
VTAG
p4936
tp4937
I1
s(g1
I350
VbroadcastUrl
p4938
tp4939
I1
s(g1
I577
VcustomPwsUrl
p4940
tp4941
I1
s(g1
I811
Vbuild
p4942
tp4943
I1
s(g1
I656
VblockedFragment
p4944
tp4945
I1
s(g1
I1185
Vcontext
p4946
tp4947
I1
s(g1
I1676
VDeviceSighting
p4948
tp4949
I1
s(g1
I932
VmNearbyDeviceAdapter
p4950
tp4951
I1
s(g1
I1044
VmRegionResolver
p4952
tp4953
I1
s(g1
I316
Vd
p4954
tp4955
I1
s(g1
I803
VassertEquals
p4956
tp4957
I1
s(g1
I196
VmCallback
p4958
tp4959
I1
s(g1
I154
VURL1
p4960
tp4961
I2
s(g1
I240
VUriBeacon
p4962
tp4963
I1
s(g1
I52
VsimpleUrlDeviceJsonSerializer
p4964
tp4965
I1
s(g1
I219
VOverride
p4966
tp4967
I1
s(g1
I759
VPwoMetadata
p4968
tp4969
I1
s(g1
I300
VJSONObject
p4970
tp4971
I1
s(g1
I111
VfindViewById
p4972
tp4973
I1
s(g1
I74
VDevice
p4974
tp4975
I1
s(g1
I49
VBroadcastActivity
p4976
tp4977
I1
s(g1
I647
Vurl
p4978
tp4979
I1
s(g1
I463
VDESCRIPTION1
p4980
tp4981
I1
s(g1
I1148
VuriBuilder
p4982
tp4983
I1
s(g1
I410
VPhysicalWebCollection
p4984
tp4985
I1
s(g1
I97
VInputStream
p4986
tp4987
I1
s(g1
I572
Vcharacteristic
p4988
tp4989
I1
s(g1
I685
VJSONException
p4990
tp4991
I1
s(g1
I1815
Vurl
p4992
tp4993
I1
s(g1
I717
VsetVisibility
p4994
tp4995
I1
s(g1
I639
Vhost
p4996
tp4997
I1
s(g1
I1504
Ve
p4998
tp4999
I1
s(g1
I230
VmRequestUrl
p5000
tp5001
I1
s(g1
I570
VjsonUrlMetadata
p5002
tp5003
I1
s(g1
I69
VpwoCollection
p5004
tp5005
I1
s(g1
I1123
VgetBitmapIcon
p5006
tp5007
I1
s(g1
I1065
VpwGroupMap
p5008
tp5009
I1
s(g1
I874
VonDestroy
p5010
tp5011
I1
s(g1
I832
VString
p5012
tp5013
I1
s(g1
I20
VmIdToPwoMap
p5014
tp5015
I1
s(g1
I335
Vkey
p5016
tp5017
I1
s(g1
I69
VdiscoveryIntent
p5018
tp5019
I1
s(g1
I116
VrootView
p5020
tp5021
I1
s(g1
I451
VListView
p5022
tp5023
I1
s(g1
I647
VisScreenOn
p5024
tp5025
I1
s(g1
I1692
VmSortedDevices
p5026
tp5027
I1
s(g1
I1019
VreadBeaconUrl
p5028
tp5029
I1
s(g1
I435
VNearbyBeaconsAdapter
p5030
tp5031
I1
s(g1
I237
VjsonUrlMetadata
p5032
tp5033
I1
s(g1
I1730
VonPwoDiscovered
p5034
tp5035
I1
s(g1
I219
VmThread
p5036
tp5037
I1
s(g1
I672
VRANK_KEY
p5038
tp5039
I1
s(g1
I271
VmContext
p5040
tp5041
I1
s(g1
I115
VString
p5042
tp5043
I1
s(g1
I1380
VImageView
p5044
tp5045
I1
s(g1
I777
VTAG
p5046
tp5047
I1
s(g1
I373
VstartService
p5048
tp5049
I1
s(g1
I425
VisWifiDirectEnabled
p5050
tp5051
I1
s(g1
I477
VcheckAndHandleAsciiUrl
p5052
tp5053
I1
s(g1
I1014
Vurl
p5054
tp5055
I1
s(g1
I50
VconstructorCreatesProperObject
p5056
tp5057
I1
s(g1
I859
VstopScanning
p5058
tp5059
I1
s(g1
I656
VURL1
p5060
tp5061
I1
s(g1
I697
VurlDevice
p5062
tp5063
I1
s(g1
I1267
Vkey
p5064
tp5065
I1
s(g1
I37
VString
p5066
tp5067
I3
s(g1
I39
Vlong
p5068
tp5069
I11
s(g1
I623
Vinitialize
p5070
tp5071
I1
s(g1
I217
VpwoMetadata
p5072
tp5073
I1
s(g1
I852
VgetUrlForGivenDeviceAddress
p5074
tp5075
I1
s(g1
I650
VmCanUpdateNotifications
p5076
tp5077
I1
s(g1
I110
VList
p5078
tp5079
I1
s(g1
I1795
VremoteViews
p5080
tp5081
I1
s(g1
I487
VbeaconDisplayItem
p5082
tp5083
I1
s(g1
I501
VjsObjRequest
p5084
tp5085
I1
s(g1
I637
VhasBleMetadata
p5086
tp5087
I1
s(g1
I553
VString
p5088
tp5089
I1
s(g1
I108
VID2
p5090
tp5091
I1
s(g1
I869
VstopSelf
p5092
tp5093
I1
s(g1
I1050
VArrays
p5094
tp5095
I1
s(g1
I149
Vi
p5096
tp5097
I1
s(g1
I215
ViconUrl
p5098
tp5099
I1
s(g1
I1328
VgetUrlDevice
p5100
tp5101
I1
s(g1
I158
Vput
p5102
tp5103
I1
s(g1
I1519
VtitleTextView
p5104
tp5105
I1
s(g1
I842
VpwsResult
p5106
tp5107
I1
s(g1
I56
Vintent
p5108
tp5109
I1
s(g1
I942
VonUpdate
p5110
tp5111
I1
s(g1
I199
VBaseAdapter
p5112
tp5113
I1
s(g1
I641
Vurl
p5114
tp5115
I1
s(g1
I662
VisShortUrl
p5116
tp5117
I1
s(g1
I283
VjsonUrlMetadata
p5118
tp5119
I1
s(g1
I209
VsetOnCancelListener
p5120
tp5121
I1
s(g1
I290
VgetAdvertiseSettings
p5122
tp5123
I1
s(g1
I296
VassertNotEquals
p5124
tp5125
I1
s(g1
I1408
VsetContentText
p5126
tp5127
I1
s(g1
I88
VUrlDeviceDiscoveryService
p5128
tp5129
I1
s(g1
I216
VgetTxPowerLevel
p5130
tp5131
I1
s(g1
I158
VurlDevice
p5132
tp5133
I1
s(g1
I149
Vlines
p5134
tp5135
I1
s(g1
I577
VfindDeviceMetadata
p5136
tp5137
I1
s(g1
I1377
VsetText
p5138
tp5139
I1
s(g1
I472
VapiVersion
p5140
tp5141
I1
s(g1
I214
VgetStringExtra
p5142
tp5143
I1
s(g1
I776
VList
p5144
tp5145
I1
s(g1
I356
VJSONObject
p5146
tp5147
I1
s(g1
I250
VgetArguments
p5148
tp5149
I1
s(g1
I168
VmPwsResult2
p5150
tp5151
I1
s(g1
I825
VgetTimestampNanos
p5152
tp5153
I1
s(g1
I223
Vi
p5154
tp5155
I1
s(g1
I542
Vstatus
p5156
tp5157
I1
s(g1
I314
VonStart
p5158
tp5159
I1
s(g1
I69
Vfis
p5160
tp5161
I1
s(g1
I696
VString
p5162
tp5163
I1
s(g1
I1268
Vget
p5164
tp5165
I1
s(g1
I100
VString
p5166
tp5167
I1
s(g1
I46
VString
p5168
tp5169
I1
s(g1
I583
VmCallback
p5170
tp5171
I1
s(g1
I206
VMdnsUrlDiscovererCallback
p5172
tp5173
I1
s(g1
I813
VSECOND_NEAREST_BEACON_NOTIFICATION_ID
p5174
tp5175
I1
s(g1
I793
VassertNull
p5176
tp5177
I1
s(g1
I447
VjsonUrlMetadata
p5178
tp5179
I1
s(g1
I2179
VTextView
p5180
tp5181
I1
s(g1
I1635
VString
p5182
tp5183
I1
s(g1
I428
VgetActionBar
p5184
tp5185
I1
s(g1
I1242
Vrun
p5186
tp5187
I1
s(g1
I843
VUtils
p5188
tp5189
I2
s(g1
I250
VemptyGroupIdQueue
p5190
tp5191
I1
s(g1
I399
Vexpansion
p5192
tp5193
I1
s(g1
I2091
VurlDevice
p5194
tp5195
I1
s(g1
I2087
VRuntimeException
p5196
tp5197
I1
s(g1
I1660
VgetUrlMetadataFromDeviceAddress
p5198
tp5199
I1
s(g1
I1214
VgetUriString
p5200
tp5201
I1
s(g1
I416
VphysicalWebCollection
p5202
tp5203
I1
s(g1
I223
VString
p5204
tp5205
I1
s(g1
I225
VisFatBeacon
p5206
tp5207
I1
s(g1
I316
VmScanningAnimationDrawable
p5208
tp5209
I1
s(g1
I518
Vgroupid
p5210
tp5211
I1
s(g1
I315
VString
p5212
tp5213
I1
s(g1
I658
VmMdnsUrlDiscoverer
p5214
tp5215
I1
s(g1
I223
VfoundMetadata
p5216
tp5217
I1
s(g1
I167
Vname
p5218
tp5219
I1
s(g1
I735
VonResume
p5220
tp5221
I1
s(g1
I1037
Vurl
p5222
tp5223
I1
s(g1
I616
VString
p5224
tp5225
I2
s(g1
I812
VstartActivity
p5226
tp5227
I1
s(g1
I384
VREQUEST_LOCATION
p5228
tp5229
I1
s(g1
I146
VOverride
p5230
tp5231
I1
s(g1
I175
Vother
p5232
tp5233
I1
s(g1
I438
VmUrlDeviceDiscoverers
p5234
tp5235
I1
s(g1
I336
Vendpoints
p5236
tp5237
I1
s(g1
I662
VdefaultValue
p5238
tp5239
I1
s(g1
I563
Vgatt
p5240
tp5241
I1
s(g1
I221
VisNetworkUrl
p5242
tp5243
I1
s(g1
I687
VsetRefreshing
p5244
tp5245
I1
s(g1
I373
VURL
p5246
tp5247
I1
s(g1
I463
Vshow
p5248
tp5249
I1
s(g1
I186
VOnCancelListener
p5250
tp5251
I1
s(g1
I660
VmPwoResponseCallbacks
p5252
tp5253
I1
s(g1
I480
VmSwipeRefreshWidget
p5254
tp5255
I1
s(g1
I122
Vmenu
p5256
tp5257
I1
s(g1
I654
VString
p5258
tp5259
I1
s(g1
I1917
VString
p5260
tp5261
I1
s(g1
I254
VmIsDemoMode
p5262
tp5263
I1
s(g1
I1123
VpwsResult
p5264
tp5265
I1
s(g1
I1738
VPwoResponseCallback
p5266
tp5267
I1
s(g1
I761
VpwoMetadata
p5268
tp5269
I1
s(g1
I87
VpwPair
p5270
tp5271
I1
s(g1
I1030
VString
p5272
tp5273
I1
s(g1
I2120
VurlDevice
p5274
tp5275
I1
s(g1
I276
Vcharacteristic
p5276
tp5277
I1
s(g1
I1083
VoptLong
p5278
tp5279
I1
s(g1
I828
Vurl
p5280
tp5281
I1
s(g1
I83
Vsynchronized
p5282
tp5283
I5
s(g1
I195
VmPwPairs
p5284
tp5285
I1
s(g1
I785
Vcontext
p5286
tp5287
I1
s(g1
I108
VGROUPID1
p5288
tp5289
I1
s(g1
I1306
VuriBeacon
p5290
tp5291
I1
s(g1
I830
VPwsResultCallback
p5292
tp5293
I1
s(g1
I812
Vurl
p5294
tp5295
I1
s(g1
I1361
VPendingIntent
p5296
tp5297
I1
s(g1
I464
VforName
p5298
tp5299
I1
s(g1
I474
VmPwCollection
p5300
tp5301
I1
s(g1
I170
VgetGroupId
p5302
tp5303
I1
s(g1
I54
Vrhs
p5304
tp5305
I1
s(g1
I922
VaddItem
p5306
tp5307
I1
s(g1
I426
Vgatt
p5308
tp5309
I1
s(g1
I178
VassertEquals
p5310
tp5311
I1
s(g1
I1710
VmScanStartTime
p5312
tp5313
I1
s(g1
I647
VpowerManager
p5314
tp5315
I1
s(g1
I165
VassertEquals
p5316
tp5317
I1
s(g1
I793
Vbytes
p5318
tp5319
I1
s(g1
I1021
VpwsApiVersion
p5320
tp5321
I1
s(g1
I224
VmAdapter
p5322
tp5323
I1
s(g1
I541
VgetResources
p5324
tp5325
I1
s(g1
I1795
VPendingIntent
p5326
tp5327
I1
s(g1
I248
VUrlDevice
p5328
tp5329
I1
s(g1
I650
VmScanningAnimationDrawable
p5330
tp5331
I1
s(g1
I766
VpostDelayed
p5332
tp5333
I1
s(g1
I398
VSettingsFragment
p5334
tp5335
I1
s(g1
I305
VMdnsPwoDiscoverer
p5336
tp5337
I1
s(g1
I89
VPwsResult
p5338
tp5339
I1
s(g1
I652
VuriBeacon
p5340
tp5341
I1
s(g1
I521
VonPrepareOptionsMenu
p5342
tp5343
I1
s(g1
I181
VmRequestUrlToPwsResultMap
p5344
tp5345
I1
s(g1
I527
VOPT_IN_REQUEST_CODE
p5346
tp5347
I1
s(g1
I103
VIntent
p5348
tp5349
I1
s(g1
I655
VassertEquals
p5350
tp5351
I1
s(g1
I176
VBluetoothAdapter
p5352
tp5353
I1
s(g1
I84
VRequestCallback
p5354
tp5355
I1
s(g1
I52
VPwPair
p5356
tp5357
I1
s(g1
I188
VurlDevice
p5358
tp5359
I1
s(g1
I252
Vstart
p5360
tp5361
I1
s(g1
I659
VrootView
p5362
tp5363
I1
s(g1
I941
VmDeviceAddressToUrl
p5364
tp5365
I1
s(g1
I735
VgetUriString
p5366
tp5367
I1
s(g1
I357
VshowNearbyBeaconsFragment
p5368
tp5369
I1
s(g1
I61
Vsession
p5370
tp5371
I1
s(g1
I119
VstartScanning
p5372
tp5373
I1
s(g1
I202
VString
p5374
tp5375
I1
s(g1
I199
VUrlDevice
p5376
tp5377
I1
s(g1
I1783
VsetData
p5378
tp5379
I1
s(g1
I1202
VgroupMap
p5380
tp5381
I1
s(g1
I106
VFatBeaconBroadcastService
p5382
tp5383
I1
s(g1
I798
VjsonUrlMetadata
p5384
tp5385
I2
s(g1
I1790
Vurl
p5386
tp5387
I1
s(g1
I182
VisDemoStarted
p5388
tp5389
I1
s(g1
I224
VurlshortenerRequestInitializer
p5390
tp5391
I1
s(g1
I37
VComparator
p5392
tp5393
I1
s(g1
I662
VputString
p5394
tp5395
I1
s(g1
I74
VsetCallback
p5396
tp5397
I1
s(g1
I215
Vparse
p5398
tp5399
I1
s(g1
I330
VmSecondScanComplete
p5400
tp5401
I1
s(g1
I410
Vd
p5402
tp5403
I1
s(g1
I657
VTAG
p5404
tp5405
I1
s(g1
I195
Vurl
p5406
tp5407
I1
s(g1
I326
VmConfigurableBeaconAddressTextView
p5408
tp5409
I1
s(g1
I1060
VuriLength
p5410
tp5411
I1
s(g1
I416
VjsonUrlMetadata
p5412
tp5413
I1
s(g1
I662
VmSsdpUrlDiscoverer
p5414
tp5415
I1
s(g1
I564
VcustomPwsApiKey
p5416
tp5417
I1
s(g1
I571
VonUrlMetadataReceived
p5418
tp5419
I1
s(g1
I427
VfinishLoad
p5420
tp5421
I1
s(g1
I1031
VpwoMetadata
p5422
tp5423
I1
s(g1
I967
VmEditCard
p5424
tp5425
I1
s(g1
I707
Vclear
p5426
tp5427
I1
s(g1
I251
VmGroupId
p5428
tp5429
I1
s(g1
I375
VhandleFoundDevice
p5430
tp5431
I1
s(g1
I130
Vmenu
p5432
tp5433
I1
s(g1
I1043
VpwPairs
p5434
tp5435
I1
s(g1
I584
VString
p5436
tp5437
I1
s(g1
I41
VattributeSet
p5438
tp5439
I1
s(g1
I36
VurlDevice
p5440
tp5441
I1
s(g1
I356
VScanSettings
p5442
tp5443
I1
s(g1
I483
VonIcon
p5444
tp5445
I1
s(g1
I909
VUtils
p5446
tp5447
I1
s(g1
I1723
VpwoMetadata
p5448
tp5449
I1
s(g1
I1842
VgroupView
p5450
tp5451
I1
s(g1
I1075
VaddMetadata
p5452
tp5453
I1
s(g1
I75
VurlDevice1
p5454
tp5455
I1
s(g1
I112
VmThread
p5456
tp5457
I1
s(g1
I1073
VPwsResult
p5458
tp5459
I1
s(g1
I922
VmNearbyDeviceAdapter
p5460
tp5461
I1
s(g1
I82
VwebView
p5462
tp5463
I1
s(g1
I537
Vclose
p5464
tp5465
I1
s(g1
I448
VPowerManager
p5466
tp5467
I1
s(g1
I385
Vr1
p5468
tp5469
I1
s(g1
I19
VString
p5470
tp5471
I1
s(g1
I152
Vline
p5472
tp5473
I1
s(g1
I2122
VDecimalFormat
p5474
tp5475
I1
s(g1
I192
VonStart
p5476
tp5477
I1
s(g1
I1031
VPhysicalWebCollection
p5478
tp5479
I1
s(g1
I615
VResolveScanCallback
p5480
tp5481
I1
s(g1
I1847
VgetWifiDirectPort
p5482
tp5483
I1
s(g1
I1767
VcompareTo
p5484
tp5485
I1
s(g1
I200
VTAG
p5486
tp5487
I1
s(g1
I708
VURI
p5488
tp5489
I1
s(g1
I290
VsetIconUrl
p5490
tp5491
I1
s(g1
I2544
VgetWifiAddress
p5492
tp5493
I1
s(g1
I388
VaddToBackStack
p5494
tp5495
I1
s(g1
I378
VgetActivity
p5496
tp5497
I1
s(g1
I110
VPwsResult
p5498
tp5499
I1
s(g1
I206
VpwoMetadata
p5500
tp5501
I1
s(g1
I593
VUtils
p5502
tp5503
I1
s(g1
I93
VpwsResult
p5504
tp5505
I1
s(g1
I1026
VPhysicalWebCollection
p5506
tp5507
I1
s(g1
I1536
VurlTextView
p5508
tp5509
I1
s(g1
I337
VpwoMetadata
p5510
tp5511
I1
s(g1
I676
VsetTitle
p5512
tp5513
I1
s(g1
I962
VmIsScanRunning
p5514
tp5515
I1
s(g1
I201
VgetMetadataByRequestUrlReturnsNullForMissingMetadata
p5516
tp5517
I1
s(g1
I398
VJSONAssert
p5518
tp5519
I1
s(g1
I88
VfindViewById
p5520
tp5521
I1
s(g1
I639
VgetUrlDevice
p5522
tp5523
I1
s(g1
I938
VUtils
p5524
tp5525
I1
s(g1
I256
VjsonUrlMetadata
p5526
tp5527
I1
s(g1
I53
VcreateAdvertisingPacket
p5528
tp5529
I1
s(g1
I587
VLog
p5530
tp5531
I1
s(g1
I195
Vsize
p5532
tp5533
I1
s(g1
I837
VLog
p5534
tp5535
I1
s(g1
I377
Vview
p5536
tp5537
I1
s(g1
I566
VsetVisible
p5538
tp5539
I1
s(g1
I177
VHashSet
p5540
tp5541
I1
s(g1
I1686
VsortDevices
p5542
tp5543
I1
s(g1
I526
VeddystoneBeaconBuilder
p5544
tp5545
I1
s(g1
I1354
VpwPair
p5546
tp5547
I1
s(g1
I201
VUtils
p5548
tp5549
I1
s(g1
I311
VshortUrl
p5550
tp5551
I1
s(g1
I340
VRunnable
p5552
tp5553
I1
s(g1
I705
VURI
p5554
tp5555
I1
s(g1
I134
VgetRank
p5556
tp5557
I1
s(g1
I292
Vfrom
p5558
tp5559
I1
s(g1
I641
VUtils
p5560
tp5561
I1
s(g1
I240
VEddystoneBeacon
p5562
tp5563
I1
s(g1
I460
VHandler
p5564
tp5565
I1
s(g1
I1119
VsetContentIntent
p5566
tp5567
I1
s(g1
I319
VclassName
p5568
tp5569
I1
s(g1
I1274
VmRegionResolver
p5570
tp5571
I1
s(g1
I656
VmHandler
p5572
tp5573
I1
s(g1
I220
VWifiDirectHelloWorld
p5574
tp5575
I1
s(g1
I531
Vequals
p5576
tp5577
I1
s(g1
I203
VHttpTransport
p5578
tp5579
I1
s(g1
I3945
VGZIPInputStream
p5580
tp5581
I1
s(g1
I217
Vrssi
p5582
tp5583
I1
s(g1
I1087
VonPwoDiscovered
p5584
tp5585
I1
s(g1
I398
VsetHasOptionsMenu
p5586
tp5587
I1
s(g1
I667
VlengthenShortUrl
p5588
tp5589
I1
s(g1
I48
VmFile
p5590
tp5591
I1
s(g1
I1148
VsetPriority
p5592
tp5593
I1
s(g1
I293
Vinflate
p5594
tp5595
I1
s(g1
I324
VfadeInListView
p5596
tp5597
I1
s(g1
I667
VUtils
p5598
tp5599
I1
s(g1
I1305
VUriBeacon
p5600
tp5601
I1
s(g1
I57
Veditor
p5602
tp5603
I1
s(g1
I213
VbluetoothAdapter
p5604
tp5605
I1
s(g1
I1687
VgetAddress
p5606
tp5607
I1
s(g1
I423
VWifiUrlDeviceDiscoverer
p5608
tp5609
I1
s(g1
I708
VassertNotNull
p5610
tp5611
I1
s(g1
I312
VstartsWith
p5612
tp5613
I1
s(g1
I750
Vurl
p5614
tp5615
I1
s(g1
I232
VaddItem
p5616
tp5617
I1
s(g1
I234
VjsonFactory
p5618
tp5619
I1
s(g1
I956
Vaddress
p5620
tp5621
I1
s(g1
I682
VMainActivity
p5622
tp5623
I1
s(g1
I306
VaddMetadata
p5624
tp5625
I1
s(g1
I1034
VpwoMetadata
p5626
tp5627
I1
s(g1
I343
VRunnable
p5628
tp5629
I1
s(g1
I418
Vadd
p5630
tp5631
I1
s(g1
I86
VRequestCallback
p5632
tp5633
I1
s(g1
I639
VcreationTimestamp
p5634
tp5635
I1
s(g1
I191
Vtag
p5636
tp5637
I1
s(g1
I479
VUtils
p5638
tp5639
I1
s(g1
I889
VSCAN_TIME_MILLIS
p5640
tp5641
I1
s(g1
I2364
VurlDevice
p5642
tp5643
I1
s(g1
I223
VtoString
p5644
tp5645
I1
s(g1
I230
VurlDevice
p5646
tp5647
I1
s(g1
I652
Vedit
p5648
tp5649
I1
s(g1
I777
VgetString
p5650
tp5651
I3
s(g1
I123
VrootView
p5652
tp5653
I1
s(g1
I246
VphysicalWebCollection1
p5654
tp5655
I1
s(g1
I165
VString
p5656
tp5657
I1
s(g1
I23
VString
p5658
tp5659
I1
s(g1
I339
VmRequestUrl
p5660
tp5661
I1
s(g1
I36
VAttributeSet
p5662
tp5663
I1
s(g1
I264
VurlDevice2
p5664
tp5665
I1
s(g1
I1722
VisEmpty
p5666
tp5667
I1
s(g1
I78
VURLUtil
p5668
tp5669
I1
s(g1
I341
VUrlDeviceDiscoveryService
p5670
tp5671
I1
s(g1
I1067
Vurl
p5672
tp5673
I1
s(g1
I1231
VmPublicUrls
p5674
tp5675
I1
s(g1
I195
VmThread
p5676
tp5677
I1
s(g1
I1112
VNOTIFICATION_PRIORITY
p5678
tp5679
I1
s(g1
I182
VmMdnsUrlDiscoverer
p5680
tp5681
I1
s(g1
I507
Vmenu
p5682
tp5683
I1
s(g1
I998
VArrayList
p5684
tp5685
I2
s(g1
I1024
VOverride
p5686
tp5687
I1
s(g1
I262
VjsonUrlMetadata
p5688
tp5689
I1
s(g1
I143
VmUrlDevice1
p5690
tp5691
I1
s(g1
I702
VisCompliant
p5692
tp5693
I1
s(g1
I2067
VRangingUtils
p5694
tp5695
I1
s(g1
I175
VString
p5696
tp5697
I1
s(g1
I314
ValikePairsAreEqual
p5698
tp5699
I1
s(g1
I262
VgetString
p5700
tp5701
I1
s(g1
I87
Vadd
p5702
tp5703
I1
s(g1
I444
VgetActivity
p5704
tp5705
I1
s(g1
I994
Vrun
p5706
tp5707
I1
s(g1
I95
VsetText
p5708
tp5709
I1
s(g1
I164
Vid
p5710
tp5711
I1
s(g1
I2135
VTextView
p5712
tp5713
I1
s(g1
I415
VPhysicalWebCollection
p5714
tp5715
I1
s(g1
I496
Ve
p5716
tp5717
I1
s(g1
I71
VmUrlDeviceDiscoveryCallback
p5718
tp5719
I1
s(g1
I398
VjsonObject1
p5720
tp5721
I1
s(g1
I487
VSITEURL_KEY
p5722
tp5723
I1
s(g1
I967
Vanimation
p5724
tp5725
I1
s(g1
I83
Vstatic
p5726
tp5727
I46
s(g1
I678
VOverride
p5728
tp5729
I1
s(g1
I549
VgetText
p5730
tp5731
I1
s(g1
I1067
VUrlShortener
p5732
tp5733
I1
s(g1
I1462
Vequals
p5734
tp5735
I1
s(g1
I807
Vurl
p5736
tp5737
I1
s(g1
I191
VisCurrentPwsSelectionValid
p5738
tp5739
I1
s(g1
I648
VgetItem
p5740
tp5741
I1
s(g1
I342
Vgroupid
p5742
tp5743
I1
s(g1
I1096
VJSONException
p5744
tp5745
I1
s(g1
I1014
VonUrlDeviceDiscoveryUpdate
p5746
tp5747
I1
s(g1
I1028
VmUrlToUrlMetadata
p5748
tp5749
I1
s(g1
I699
VidHash
p5750
tp5751
I1
s(g1
I1099
VpwsResultCallback
p5752
tp5753
I1
s(g1
I1006
VArrayList
p5754
tp5755
I1
s(g1
I232
VView
p5756
tp5757
I1
s(g1
I643
VpowerManager
p5758
tp5759
I1
s(g1
I520
VresultCode
p5760
tp5761
I1
s(g1
I211
VUtils
p5762
tp5763
I1
s(g1
I920
Vitem
p5764
tp5765
I1
s(g1
I75
VonClick
p5766
tp5767
I1
s(g1
I1137
Voffset
p5768
tp5769
I1
s(g1
I183
VTest
p5770
tp5771
I2
s(g1
I632
VinitializeLists
p5772
tp5773
I1
s(g1
I259
VsetRefreshing
p5774
tp5775
I1
s(g1
I574
VUtils
p5776
tp5777
I1
s(g1
I812
VScanFilter
p5778
tp5779
I1
s(g1
I913
Vsize
p5780
tp5781
I1
s(g1
I1003
VhasBleMetadata
p5782
tp5783
I1
s(g1
I336
VmEditCard
p5784
tp5785
I1
s(g1
I770
Vcontext
p5786
tp5787
I1
s(g1
I313
VgetActivity
p5788
tp5789
I1
s(g1
I261
VmSwipeRefreshWidget
p5790
tp5791
I1
s(g1
I607
VserializedPwoMetadata
p5792
tp5793
I1
s(g1
I900
VpwsResult
p5794
tp5795
I1
s(g1
I168
VgetActivity
p5796
tp5797
I1
s(g1
I51
g292
tp5798
I1
s(g1
I627
VURISyntaxException
p5799
tp5800
I1
s(g1
I1675
VmUrlToDeviceAddress
p5801
tp5802
I1
s(g1
I343
VonUpdate
p5803
tp5804
I1
s(g1
I563
VView
p5805
tp5806
I1
s(g1
I912
Vsort
p5807
tp5808
I1
s(g1
I48
VPwPair
p5809
tp5810
I1
s(g1
I578
VsetVisible
p5811
tp5812
I1
s(g1
I1775
Vintent
p5813
tp5814
I1
s(g1
I1110
VmExtraData
p5815
tp5816
I1
s(g1
I2127
Vrank
p5817
tp5818
I1
s(g1
I679
VgetActivity
p5819
tp5820
I1
s(g1
I296
Vclear
p5821
tp5822
I1
s(g1
I77
VmCheckingPermissions
p5823
tp5824
I1
s(g1
I122
Vtitle
p5825
tp5826
I1
s(g1
I1123
VmPwCollection
p5827
tp5828
I1
s(g1
I125
VurlGroup
p5829
tp5830
I1
s(g1
I1052
Vurl
p5831
tp5832
I1
s(g1
I231
VmDevice
p5833
tp5834
I1
s(g1
I1194
Vcontext
p5835
tp5836
I1
s(g1
I892
VPwPair
p5837
tp5838
I1
s(g1
I777
VLog
p5839
tp5840
I1
s(g1
I52
VmUriBeacon
p5841
tp5842
I1
s(g1
I1456
VgetNearestAddress
p5843
tp5844
I1
s(g1
I663
VBase64
p5845
tp5846
I1
s(g1
I287
VEddystoneBeacon
p5847
tp5848
I1
s(g1
I252
VUrlDevice
p5849
tp5850
I1
s(g1
I1486
VmUrl
p5851
tp5852
I1
s(g1
I543
Ventry
p5853
tp5854
I1
s(g1
I271
VsetDescription
p5855
tp5856
I1
s(g1
I562
VmPwsResult1
p5857
tp5858
I1
s(g1
I102
VassertEquals
p5859
tp5860
I1
s(g1
I199
Vintent
p5861
tp5862
I1
s(g1
I923
Vget
p5863
tp5864
I1
s(g1
I213
VgetActivity
p5865
tp5866
I1
s(g1
I138
Vput
p5867
tp5868
I1
s(g1
I119
VString
p5869
tp5870
I1
s(g1
I27
VString
p5871
tp5872
I1
s(g1
I863
VmSsdpUrlDiscoverer
p5873
tp5874
I1
s(g1
I1782
Vparse
p5875
tp5876
I1
s(g1
I466
Vput
p5877
tp5878
I1
s(g1
I327
Vadd
p5879
tp5880
I1
s(g1
I754
VOverride
p5881
tp5882
I1
s(g1
I664
VICON_KEY
p5883
tp5884
I1
s(g1
I563
VfindItem
p5885
tp5886
I1
s(g1
I1047
VtxPowerLevel
p5887
tp5888
I1
s(g1
I631
VpwoResponseCallback
p5889
tp5890
I1
s(g1
I45
VParcelUuid
p5891
tp5892
I1
s(g1
I254
VEddystoneBeacon
p5893
tp5894
I1
s(g1
I558
VpwoResponseCallback
p5895
tp5896
I1
s(g1
I1414
VremoteViews
p5897
tp5898
I1
s(g1
I762
VgetTempFile
p5899
tp5900
I1
s(g1
I104
VsetRequestProperty
p5901
tp5902
I1
s(g1
I2133
VpwsResult
p5903
tp5904
I1
s(g1
I260
Vi
p5905
tp5906
I1
s(g1
I1014
VurlDeviceDiscoveryListener
p5907
tp5908
I1
s(g1
I537
Vintent
p5909
tp5910
I1
s(g1
I196
VgetActivity
p5911
tp5912
I1
s(g1
I581
Varray
p5913
tp5914
I1
s(g1
I712
VdisplayList
p5915
tp5916
I1
s(g1
I691
VonRebind
p5917
tp5918
I1
s(g1
I550
VnumNearbyBeacons
p5919
tp5920
I2
s(g1
I1018
VException
p5921
tp5922
I1
s(g1
I2095
VContext
p5923
tp5924
I1
s(g1
I1392
VpwsResult
p5925
tp5926
I1
s(g1
I183
VjsonSerializeWorks
p5927
tp5928
I1
s(g1
I863
VsetRefreshing
p5929
tp5930
I1
s(g1
I811
VmSortedDevices
p5931
tp5932
I1
s(g1
I475
VIntent
p5933
tp5934
I1
s(g1
I1046
VPwPair
p5935
tp5936
I1
s(g1
I1754
VgetScanStartTime
p5937
tp5938
I1
s(g1
I73
Vintent
p5939
tp5940
I1
s(g1
I62
VjsonObject
p5941
tp5942
I1
s(g1
I67
VURL1
p5943
tp5944
I2
s(g1
I348
VString
p5945
tp5946
I1
s(g1
I557
VMenu
p5947
tp5948
I1
s(g1
I170
VssdpMessage
p5949
tp5950
I1
s(g1
I813
VgetDouble
p5951
tp5952
I1
s(g1
I310
VmReceiver
p5953
tp5954
I1
s(g1
I796
Vcontext
p5955
tp5956
I1
s(g1
I230
VJSONObject
p5957
tp5958
I1
s(g1
I439
Vintent
p5959
tp5960
I1
s(g1
I571
Vid
p5961
tp5962
I1
s(g1
I53
g292
tp5963
I3
s(g1
I216
Vrun
p5964
tp5965
I1
s(g1
I1088
VString
p5966
tp5967
I1
s(g1
I160
VBundle
p5968
tp5969
I1
s(g1
I71
Vurl
p5970
tp5971
I1
s(g1
I833
VUtils
p5972
tp5973
I1
s(g1
I2005
Vurl
p5974
tp5975
I1
s(g1
I402
VlongUrl
p5976
tp5977
I1
s(g1
I446
Vaction
p5978
tp5979
I1
s(g1
I404
VsetTitle
p5980
tp5981
I1
s(g1
I115
Vd
p5982
tp5983
I1
s(g1
I52
VOverride
p5984
tp5985
I1
s(g1
I173
VmId
p5986
tp5987
I2
s(g1
I650
VPwoResponseCallback
p5988
tp5989
I1
s(g1
I1220
VmUrlToUrlMetadata
p5990
tp5991
I1
s(g1
I253
VgetString
p5992
tp5993
I1
s(g1
I277
VmProgress
p5994
tp5995
I1
s(g1
I195
VdialogInterface
p5996
tp5997
I1
s(g1
I141
VloadUrl
p5998
tp5999
I1
s(g1
I1723
VstopScan
p6000
tp6001
I1
s(g1
I781
VfindItem
p6002
tp6003
I1
s(g1
I425
Vinflate
p6004
tp6005
I1
s(g1
I1802
VremoteViews
p6006
tp6007
I1
s(g1
I1507
VrunOnUiThread
p6008
tp6009
I1
s(g1
I78
Vname
p6010
tp6011
I1
s(g1
I263
VgetCount
p6012
tp6013
I1
s(g1
I602
VmHtml
p6014
tp6015
I1
s(g1
I1276
VpwoMetadata
p6016
tp6017
I1
s(g1
I234
VonStart
p6018
tp6019
I1
s(g1
I170
VHashSet
p6020
tp6021
I1
s(g1
I45
VPwo
p6022
tp6023
I1
s(g1
I1021
VonErrorResponse
p6024
tp6025
I1
s(g1
I663
VencodeToString
p6026
tp6027
I1
s(g1
I552
VPwoMetadata
p6028
tp6029
I1
s(g1
I115
Vservices
p6030
tp6031
I1
s(g1
I375
Vfrom
p6032
tp6033
I1
s(g1
I258
VsetTitle
p6034
tp6035
I1
s(g1
I433
Vintent
p6036
tp6037
I1
s(g1
I414
Vcharacteristic
p6038
tp6039
I1
s(g1
I168
VOverride
p6040
tp6041
I1
s(g1
I582
Vi
p6042
tp6043
I1
s(g1
I181
VPhysicalWebCollectionException
p6044
tp6045
I1
s(g1
I2199
VLog
p6046
tp6047
I1
s(g1
I282
Vurl
p6048
tp6049
I1
s(g1
I816
Vurl
p6050
tp6051
I3
s(g1
I836
Vnow
p6052
tp6053
I1
s(g1
I615
VOverride
p6054
tp6055
I1
s(g1
I563
VSERVICE_UUID
p6056
tp6057
I1
s(g1
I36
VString
p6058
tp6059
I1
s(g1
I119
VmContext
p6060
tp6061
I1
s(g1
I367
Vurl
p6062
tp6063
I1
s(g1
I324
VgetFragmentManager
p6064
tp6065
I1
s(g1
I1823
VPreferenceManager
p6066
tp6067
I1
s(g1
I591
Ve
p6068
tp6069
I1
s(g1
I469
VmSwipeRefreshWidget
p6070
tp6071
I1
s(g1
I298
VshortUrl
p6072
tp6073
I1
s(g1
I624
Vintent
p6074
tp6075
I1
s(g1
I907
VUtils
p6076
tp6077
I1
s(g1
I92
VURL1
p6078
tp6079
I2
s(g1
I1685
VgetDevice
p6080
tp6081
I1
s(g1
I1849
VmPwCollection
p6082
tp6083
I1
s(g1
I214
Vcontext
p6084
tp6085
I1
s(g1
I124
VGROUPID1
p6086
tp6087
I1
s(g1
I424
VresultIntent
p6088
tp6089
I1
s(g1
I306
VpwsResult
p6090
tp6091
I1
s(g1
I773
Vurl
p6092
tp6093
I1
s(g1
I460
VTITLE1
p6094
tp6095
I1
s(g1
I105
VgetUrl
p6096
tp6097
I1
s(g1
I1869
VnewPwsStartScan
p6098
tp6099
I1
s(g1
I201
VbluetoothManager
p6100
tp6101
I1
s(g1
I2101
Vcontext
p6102
tp6103
I1
s(g1
I379
VmScanningImage
p6104
tp6105
I1
s(g1
I1729
VDate
p6106
tp6107
I1
s(g1
I591
Vurl
p6108
tp6109
I1
s(g1
I345
VjsonObject
p6110
tp6111
I1
s(g1
I37
VSimpleUrlDevice
p6112
tp6113
I1
s(g1
I173
VmPwsResult2
p6114
tp6115
I1
s(g1
I256
VjsonObject
p6116
tp6117
I1
s(g1
I963
VmDeviceAddressToUrl
p6118
tp6119
I1
s(g1
I221
VURLUtil
p6120
tp6121
I1
s(g1
I463
VsetDescription
p6122
tp6123
I1
s(g1
I852
VscanResult
p6124
tp6125
I1
s(g1
I755
VmCallback
p6126
tp6127
I1
s(g1
I978
VmScanningStatus
p6128
tp6129
I1
s(g1
I2139
Vview
p6130
tp6131
I1
s(g1
I1368
VgetSiteUrl
p6132
tp6133
I1
s(g1
I63
Vcontext
p6134
tp6135
I1
s(g1
I217
VjsonDeserializeWorks
p6136
tp6137
I1
s(g1
I46
VIntent
p6138
tp6139
I1
s(g1
I552
Vhas
p6140
tp6141
I1
s(g1
I316
VensureLocationPermissionIsEnabled
p6142
tp6143
I1
s(g1
I708
VonUrlMetadataIconReceived
p6144
tp6145
I1
s(g1
I1789
VpendingIntent
p6146
tp6147
I1
s(g1
I649
VserviceUuidLength
p6148
tp6149
I1
s(g1
I467
VurlDevices
p6150
tp6151
I1
s(g1
I61
VWebView
p6152
tp6153
I1
s(g1
I405
VLog
p6154
tp6155
I1
s(g1
I1382
VUtils
p6156
tp6157
I1
s(g1
I827
VParcelUuid
p6158
tp6159
I1
s(g1
I59
VurlA
p6160
tp6161
I1
s(g1
I540
VPwoGroup
p6162
tp6163
I1
s(g1
I1371
VgroupId
p6164
tp6165
I1
s(g1
I1091
Vkey
p6166
tp6167
I1
s(g1
I497
VpwsResult
p6168
tp6169
I1
s(g1
I1482
Vicon
p6170
tp6171
I1
s(g1
I599
Vpref
p6172
tp6173
I1
s(g1
I1316
VuriBeacon
p6174
tp6175
I1
s(g1
I1207
VgroupMap
p6176
tp6177
I1
s(g1
I697
VpwsResult
p6178
tp6179
I1
s(g1
I542
VonDestroy
p6180
tp6181
I1
s(g1
I58
VURISyntaxException
p6182
tp6183
I1
s(g1
I156
VonServiceFound
p6184
tp6185
I1
s(g1
I103
VUtils
p6186
tp6187
I1
s(g1
I41
VPwoCollection
p6188
tp6189
I1
s(g1
I286
VView
p6190
tp6191
I1
s(g1
I630
VcurrentPos
p6192
tp6193
I1
s(g1
I812
VjsonUrlMetadata
p6194
tp6195
I1
s(g1
I191
VTAG
p6196
tp6197
I1
s(g1
I1312
VString
p6198
tp6199
I1
s(g1
I376
Vurl
p6200
tp6201
I1
s(g1
I516
Vrun
p6202
tp6203
I1
s(g1
I211
VsetVisible
p6204
tp6205
I1
s(g1
I115
VRankedDevice
p6206
tp6207
I1
s(g1
I770
VgetDefaultSharedPreferences
p6208
tp6209
I1
s(g1
I2509
VRuntimeException
p6210
tp6211
I1
s(g1
I731
Vshow
p6212
tp6213
I1
s(g1
I791
VoptString
p6214
tp6215
I1
s(g1
I197
VmMdnsUrlDiscovererCallback
p6216
tp6217
I1
s(g1
I338
Vgroupid
p6218
tp6219
I1
s(g1
I484
VURL1
p6220
tp6221
I1
s(g1
I654
VbitmapData
p6222
tp6223
I1
s(g1
I335
VgetActivity
p6224
tp6225
I1
s(g1
I1852
VsaveCache
p6226
tp6227
I1
s(g1
I1402
Vicon
p6228
tp6229
I1
s(g1
I375
VbroadcastUrls
p6230
tp6231
I1
s(g1
I1347
VPreferenceManager
p6232
tp6233
I1
s(g1
I559
VIntent
p6234
tp6235
I1
s(g1
I144
VgetTime
p6236
tp6237
I1
s(g1
I557
VerrorCode
p6238
tp6239
I1
s(g1
I40
VWifiDirectConnect
p6240
tp6241
I1
s(g1
I1414
Vtitle
p6242
tp6243
I1
s(g1
I29
VHashMap
p6244
tp6245
I1
s(g1
I899
VgetFatBeaconAdvertisementData
p6246
tp6247
I1
s(g1
I591
VmDownY
p6248
tp6249
I1
s(g1
I119
VJSONObject
p6250
tp6251
I1
s(g1
I2073
VUrlDevice
p6252
tp6253
I1
s(g1
I994
VString
p6254
tp6255
I1
s(g1
I321
VmSwipeRefreshWidget
p6256
tp6257
I1
s(g1
I1019
VmNearestDevice
p6258
tp6259
I1
s(g1
I1249
VuriLength
p6260
tp6261
I1
s(g1
I161
VshowAboutFragment
p6262
tp6263
I1
s(g1
I561
VserializedCollection
p6264
tp6265
I1
s(g1
I428
VonFailure
p6266
tp6267
I1
s(g1
I473
Vurl
p6268
tp6269
I1
s(g1
I664
Vallocate
p6270
tp6271
I1
s(g1
I97
VurlConnection
p6272
tp6273
I1
s(g1
I357
VjsonObject
p6274
tp6275
I1
s(g1
I216
VuriBeacon
p6276
tp6277
I1
s(g1
I1206
VgetTxPowerLevel
p6278
tp6279
I1
s(g1
I98
VsetContentView
p6280
tp6281
I1
s(g1
I30
Vintent
p6282
tp6283
I1
s(g1
I390
VreadCharacteristic
p6284
tp6285
I1
s(g1
I1040
VnotBlockedPwPairs
p6286
tp6287
I1
s(g1
I1349
VSystem
p6288
tp6289
I1
s(g1
I424
VreasonCode
p6290
tp6291
I1
s(g1
I518
Vparams
p6292
tp6293
I1
s(g1
I693
VencodeToString
p6294
tp6295
I1
s(g1
I585
VonPrepareOptionsMenu
p6296
tp6297
I1
s(g1
I199
VPwsResult
p6298
tp6299
I1
s(g1
I484
VmMulticastSocket
p6300
tp6301
I1
s(g1
I2517
VUrlDevice
p6302
tp6303
I1
s(g1
I176
VgetFragmentManager
p6304
tp6305
I1
s(g1
I249
VUriBeacon
p6306
tp6307
I1
s(g1
I191
VassertEquals
p6308
tp6309
I1
s(g1
I1888
VPreferenceManager
p6310
tp6311
I1
s(g1
I425
VTAG
p6312
tp6313
I1
s(g1
I199
Ve
p6314
tp6315
I1
s(g1
I1053
Vurl
p6316
tp6317
I1
s(g1
I1378
VmPwPairs
p6318
tp6319
I1
s(g1
I41
VurlToUrlMetadata
p6320
tp6321
I1
s(g1
I201
VmSiteUrl
p6322
tp6323
I1
s(g1
I1096
Vadd
p6324
tp6325
I1
s(g1
I294
VDevice
p6326
tp6327
I1
s(g1
I130
Vlen
p6328
tp6329
I1
s(g1
I569
VmIsDemoMode
p6330
tp6331
I1
s(g1
I820
VscanResult
p6332
tp6333
I1
s(g1
I107
Vd
p6334
tp6335
I1
s(g1
I967
VstartAnimation
p6336
tp6337
I1
s(g1
I579
Vrecycle
p6338
tp6339
I1
s(g1
I314
Vkey
p6340
tp6341
I1
s(g1
I21
VTest
p6342
tp6343
I1
s(g1
I308
VgetString
p6344
tp6345
I1
s(g1
I409
Vi
p6346
tp6347
I1
s(g1
I1322
Vcontext
p6348
tp6349
I1
s(g1
I256
VisStarted
p6350
tp6351
I1
s(g1
I937
VpwsResult
p6352
tp6353
I1
s(g1
I1074
Vfilters
p6354
tp6355
I1
s(g1
I41
Vo2
p6356
tp6357
I1
s(g1
I264
VmUrlDevice1
p6358
tp6359
I1
s(g1
I100
VFragment
p6360
tp6361
I1
s(g1
I213
VmDatagramSocket
p6362
tp6363
I1
s(g1
I231
VmTitle
p6364
tp6365
I1
s(g1
I691
Vstop
p6366
tp6367
I1
s(g1
I549
Vuuid
p6368
tp6369
I1
s(g1
I2010
Vmetadata
p6370
tp6371
I1
s(g1
I662
VonUrlMetadataIconError
p6372
tp6373
I1
s(g1
I847
VLog
p6374
tp6375
I1
s(g1
I503
VassertNotEquals
p6376
tp6377
I1
s(g1
I983
Vparse
p6378
tp6379
I1
s(g1
I1048
VsetPwsEndpoint
p6380
tp6381
I1
s(g1
I45
Vpwo
p6382
tp6383
I1
s(g1
I1538
VurlMetadataA
p6384
tp6385
I1
s(g1
I316
VOverride
p6386
tp6387
I1
s(g1
I207
Vtype
p6388
tp6389
I1
s(g1
I408
Ve
p6390
tp6391
I1
s(g1
I1249
Vurl
p6392
tp6393
I1
s(g1
I829
VUtils
p6394
tp6395
I1
s(g1
I1921
VString
p6396
tp6397
I1
s(g1
I581
VgetPreferenceScreen
p6398
tp6399
I1
s(g1
I664
VcontainsKey
p6400
tp6401
I1
s(g1
I73
VgetAction
p6402
tp6403
I1
s(g1
I95
VversionString
p6404
tp6405
I1
s(g1
I479
VassertNotEquals
p6406
tp6407
I1
s(g1
I314
VmNewExtraData
p6408
tp6409
I1
s(g1
I583
VmVelocityTracker
p6410
tp6411
I1
s(g1
I1037
VConfigUriBeacon
p6412
tp6413
I1
s(g1
I604
VsetDescription
p6414
tp6415
I1
s(g1
I303
VArrays
p6416
tp6417
I1
s(g1
I295
Vcontext
p6418
tp6419
I1
s(g1
I58
VEDDYSTONE_URL_SERVICE_UUID
p6420
tp6421
I1
s(g1
I410
VDATA_ONE
p6422
tp6423
I1
s(g1
I1322
VgetString
p6424
tp6425
I1
s(g1
I435
VgetValue
p6426
tp6427
I1
s(g1
I345
VupdateUngroupedPwo
p6428
tp6429
I1
s(g1
I672
VjsonObj
p6430
tp6431
I1
s(g1
I363
VfindViewById
p6432
tp6433
I1
s(g1
I1814
VUtils
p6434
tp6435
I1
s(g1
I37
Vo1
p6436
tp6437
I1
s(g1
I291
VdialogInterface
p6438
tp6439
I1
s(g1
I483
VmBroadcastUrlToPwsResultMap
p6440
tp6441
I1
s(g1
I205
VstopScanning
p6442
tp6443
I1
s(g1
I797
Vget
p6444
tp6445
I1
s(g1
I348
VaddExtra
p6446
tp6447
I1
s(g1
I658
VBluetoothUuid
p6448
tp6449
I1
s(g1
I2086
Vcontext
p6450
tp6451
I1
s(g1
I215
VgetDefaultInstance
p6452
tp6453
I1
s(g1
I506
Vurl
p6454
tp6455
I1
s(g1
I85
Vurl
p6456
tp6457
I1
s(g1
I1482
VUtils
p6458
tp6459
I1
s(g1
I2039
VgetString
p6460
tp6461
I1
s(g1
I1016
VmSwipeRefreshWidget
p6462
tp6463
I1
s(g1
I91
Vurl
p6464
tp6465
I1
s(g1
I621
VOverride
p6466
tp6467
I1
s(g1
I487
VjsonObject
p6468
tp6469
I1
s(g1
I553
VMenu
p6470
tp6471
I1
s(g1
I208
VgetAdapter
p6472
tp6473
I1
s(g1
I359
Vconnect
p6474
tp6475
I2
s(g1
I57
Vlhs
p6476
tp6477
I2
s(g1
I427
VstopScanImpl
p6478
tp6479
I1
s(g1
I412
Vfile
p6480
tp6481
I1
s(g1
I32
VOnSharedPreferenceChangeListener
p6482
tp6483
I1
s(g1
I545
Vnow
p6484
tp6485
I1
s(g1
I271
Vfinish
p6486
tp6487
I1
s(g1
I1685
VscanResult
p6488
tp6489
I1
s(g1
I755
VurlSetter
p6490
tp6491
I1
s(g1
I808
VTAG
p6492
tp6493
I1
s(g1
I934
Vaddress
p6494
tp6495
I1
s(g1
I1148
VRunnable
p6496
tp6497
I1
s(g1
I412
VOverride
p6498
tp6499
I1
s(g1
I186
Vother
p6500
tp6501
I1
s(g1
I1933
VString
p6502
tp6503
I1
s(g1
I775
VgetString
p6504
tp6505
I1
s(g1
I423
VURL_CODES
p6506
tp6507
I1
s(g1
I282
VOnCancelListener
p6508
tp6509
I1
s(g1
I367
Vput
p6510
tp6511
I1
s(g1
I387
VMalformedURLException
p6512
tp6513
I1
s(g1
I1806
VfindViewById
p6514
tp6515
I1
s(g1
I87
VsavedInstanceState
p6516
tp6517
I1
s(g1
I53
VOverride
p6518
tp6519
I1
s(g1
I683
VgetItem
p6520
tp6521
I1
s(g1
I1016
VString
p6522
tp6523
I1
s(g1
I535
Vicon
p6524
tp6525
I1
s(g1
I930
Vconnect
p6526
tp6527
I1
s(g1
I791
VjsonUrlMetadata
p6528
tp6529
I2
s(g1
I52
VParcelUuid
p6530
tp6531
I1
s(g1
I308
VJSONArray
p6532
tp6533
I1
s(g1
I2097
Vcontext
p6534
tp6535
I1
s(g1
I39
Vv
p6536
tp6537
I1
s(g1
I301
VaddUrlDevice
p6538
tp6539
I1
s(g1
I574
VPhysicalWebCollection
p6540
tp6541
I1
s(g1
I1782
VUri
p6542
tp6543
I1
s(g1
I90
VurlDevice1
p6544
tp6545
I1
s(g1
I640
Vcommit
p6546
tp6547
I1
s(g1
I983
VmEditCardAddress
p6548
tp6549
I1
s(g1
I1031
Vurl
p6550
tp6551
I2
s(g1
I419
VIntent
p6552
tp6553
I1
s(g1
I1124
VsetLargeIcon
p6554
tp6555
I1
s(g1
I255
VjsonUrlMetadata
p6556
tp6557
I1
s(g1
I199
VgetSystemService
p6558
tp6559
I1
s(g1
I317
VformatEndpointForSharedPrefernces
p6560
tp6561
I1
s(g1
I1782
Vurl
p6562
tp6563
I1
s(g1
I1032
Vurl
p6564
tp6565
I1
s(g1
I1772
VIntent
p6566
tp6567
I1
s(g1
I410
VLog
p6568
tp6569
I1
s(g1
I128
VPwPair
p6570
tp6571
I1
s(g1
I2146
VrankString
p6572
tp6573
I1
s(g1
I362
VmUngroupedPwoDevices
p6574
tp6575
I1
s(g1
I1322
Vurl
p6576
tp6577
I1
s(g1
I680
VbyteBuffer
p6578
tp6579
I1
s(g1
I60
VjsonObject
p6580
tp6581
I1
s(g1
I427
VLog
p6582
tp6583
I1
s(g1
I809
VsetServiceData
p6584
tp6585
I1
s(g1
I81
VTest
p6586
tp6587
I2
s(g1
I491
VNearbyBeaconsFragment
p6588
tp6589
I1
s(g1
I169
Vother
p6590
tp6591
I1
s(g1
I584
VUrlDevice
p6592
tp6593
I1
s(g1
I329
Vcontext
p6594
tp6595
I1
s(g1
I635
VUtils
p6596
tp6597
I1
s(g1
I1075
VpwsResult
p6598
tp6599
I1
s(g1
I1013
VunSorted
p6600
tp6601
I1
s(g1
I254
VrequestUrl
p6602
tp6603
I1
s(g1
I209
VmNearbyDeviceAdapter
p6604
tp6605
I1
s(g1
I415
VMdnsUrlDeviceDiscoverer
p6606
tp6607
I1
s(g1
I2373
VUrlDevice
p6608
tp6609
I1
s(g1
I1837
VgroupString
p6610
tp6611
I1
s(g1
I382
Vservice
p6612
tp6613
I1
s(g1
I103
Vurl
p6614
tp6615
I1
s(g1
I866
Vd
p6616
tp6617
I1
s(g1
I75
VpwsResult1
p6618
tp6619
I1
s(g1
I286
VTAG
p6620
tp6621
I1
s(g1
I321
VmDeviceIdToUrlDeviceMap
p6622
tp6623
I1
s(g1
I654
VmPwCollection
p6624
tp6625
I1
s(g1
I573
VPwoMetadata
p6626
tp6627
I1
s(g1
I200
VmContext
p6628
tp6629
I1
s(g1
I485
Vintent
p6630
tp6631
I1
s(g1
I903
VpwPair
p6632
tp6633
I1
s(g1
I811
Vurl
p6634
tp6635
I1
s(g1
I78
VsetJavaScriptEnabled
p6636
tp6637
I1
s(g1
I119
VUrlGroup
p6638
tp6639
I1
s(g1
I561
VGROUP_ID1
p6640
tp6641
I1
s(g1
I138
VT
p6642
tp6643
I2
s(g1
I155
VpwsResult
p6644
tp6645
I1
s(g1
I860
VrunSetEditCardUrlOnUiThread
p6646
tp6647
I1
s(g1
I748
Vurl
p6648
tp6649
I1
s(g1
I2024
VrankString
p6650
tp6651
I1
s(g1
I34
VHashMap
p6652
tp6653
I1
s(g1
I84
VString
p6654
tp6655
I1
s(g1
I485
VstartService
p6656
tp6657
I1
s(g1
I1305
VparseFromBytes
p6658
tp6659
I1
s(g1
I567
Valpha
p6660
tp6661
I1
s(g1
I651
VurlDevice
p6662
tp6663
I1
s(g1
I1800
VUtils
p6664
tp6665
I1
s(g1
I244
Vlength
p6666
tp6667
I1
s(g1
I78
VService
p6668
tp6669
I1
s(g1
I343
VJSONArray
p6670
tp6671
I1
s(g1
I247
Vview
p6672
tp6673
I1
s(g1
I182
Vdemo
p6674
tp6675
I1
s(g1
I745
VTAG
p6676
tp6677
I1
s(g1
I264
VassertNotEquals
p6678
tp6679
I1
s(g1
I672
VonDismiss
p6680
tp6681
I1
s(g1
I1034
VmockCollection
p6682
tp6683
I1
s(g1
I577
Vdevice
p6684
tp6685
I1
s(g1
I197
VonPrepareOptionsMenu
p6686
tp6687
I2
s(g1
I1052
VgetSortedBeaconsWithMetadata
p6688
tp6689
I1
s(g1
I893
VmNearbyDeviceAdapter
p6690
tp6691
I1
s(g1
I639
Vbuilder
p6692
tp6693
I1
s(g1
I529
VnewState
p6694
tp6695
I1
s(g1
I1118
VUtils
p6696
tp6697
I1
s(g1
I112
VUrlDevice
p6698
tp6699
I1
s(g1
I1103
VURLUtil
p6700
tp6701
I1
s(g1
I570
VsetVisible
p6702
tp6703
I1
s(g1
I99
Vis
p6704
tp6705
I1
s(g1
I44
Vtype
p6706
tp6707
I1
s(g1
I1134
VsetContentText
p6708
tp6709
I1
s(g1
I945
VsortDevices
p6710
tp6711
I1
s(g1
I1764
VhasResults
p6712
tp6713
I1
s(g1
I1044
Vurl
p6714
tp6715
I1
s(g1
I216
VPwPair
p6716
tp6717
I1
s(g1
I80
Vcontext
p6718
tp6719
I1
s(g1
I1183
VmUrlToUrlMetadata
p6720
tp6721
I1
s(g1
I1058
VUrlGroup
p6722
tp6723
I1
s(g1
I561
VURL2
p6724
tp6725
I1
s(g1
I775
Vurl
p6726
tp6727
I1
s(g1
I810
VmScanCallback
p6728
tp6729
I1
s(g1
I149
VPwsResult
p6730
tp6731
I1
s(g1
I2069
VregionString
p6732
tp6733
I1
s(g1
I646
VUrlShortener
p6734
tp6735
I1
s(g1
I589
VgetUrlDevices
p6736
tp6737
I1
s(g1
I296
VonScanResult
p6738
tp6739
I1
s(g1
I318
Vadd
p6740
tp6741
I1
s(g1
I75
VgetSettings
p6742
tp6743
I1
s(g1
I641
VisShortUrl
p6744
tp6745
I1
s(g1
I483
Vresult
p6746
tp6747
I1
s(g1
I243
VrequestUrl
p6748
tp6749
I1
s(g1
I308
VscanRecordBytes
p6750
tp6751
I1
s(g1
I284
VgroupId
p6752
tp6753
I1
s(g1
I1068
Vurl
p6754
tp6755
I1
s(g1
I1152
Voffset
p6756
tp6757
I1
s(g1
I195
VIntent
p6758
tp6759
I1
s(g1
I650
VOverride
p6760
tp6761
I1
s(g1
I237
VParcelUuid
p6762
tp6763
I1
s(g1
I141
VDate
p6764
tp6765
I1
s(g1
I584
VpwsClient
p6766
tp6767
I1
s(g1
I736
Vurl
p6768
tp6769
I1
s(g1
I984
VsetData
p6770
tp6771
I1
s(g1
I1171
VuriBeacon
p6772
tp6773
I1
s(g1
I190
Vdemo
p6774
tp6775
I1
s(g1
I1183
Vput
p6776
tp6777
I1
s(g1
I256
VmDeviceIdToUrlDeviceMap
p6778
tp6779
I1
s(g1
I777
VjsonUrlMetadata
p6780
tp6781
I1
s(g1
I363
VungroupedPwoDevice
p6782
tp6783
I1
s(g1
I594
Vpref
p6784
tp6785
I1
s(g1
I537
VshortUrl
p6786
tp6787
I1
s(g1
I916
VleScanMatches
p6788
tp6789
I1
s(g1
I66
VThread
p6790
tp6791
I1
s(g1
I57
VString
p6792
tp6793
I1
s(g1
I176
VpwsResult
p6794
tp6795
I1
s(g1
I406
VgetFragmentManager
p6796
tp6797
I1
s(g1
I610
VpwsResult
p6798
tp6799
I1
s(g1
I3974
Vlen
p6800
tp6801
I1
s(g1
I613
VdeserializedResult
p6802
tp6803
I1
s(g1
I362
Vparams
p6804
tp6805
I1
s(g1
I234
VcallbackType
p6806
tp6807
I1
s(g1
I2034
Vview
p6808
tp6809
I1
s(g1
I40
Vpwo
p6810
tp6811
I1
s(g1
I42
VJSONObject
p6812
tp6813
I1
s(g1
I499
VonResume
p6814
tp6815
I1
s(g1
I592
VPhysicalWebCollection
p6816
tp6817
I1
s(g1
I284
VString
p6818
tp6819
I1
s(g1
I332
VsetUp
p6820
tp6821
I1
s(g1
I845
VscanResult
p6822
tp6823
I1
s(g1
I1005
VString
p6824
tp6825
I1
s(g1
I900
Vv
p6826
tp6827
I1
s(g1
I1855
VclearCache
p6828
tp6829
I1
s(g1
I916
Vconnect
p6830
tp6831
I1
s(g1
I373
VImageView
p6832
tp6833
I1
s(g1
I599
VstopServiceReceiver
p6834
tp6835
I1
s(g1
I517
VjsonObj
p6836
tp6837
I1
s(g1
I1115
VaddItem
p6838
tp6839
I1
s(g1
I557
VgetString
p6840
tp6841
I1
s(g1
I69
Vcallback
p6842
tp6843
I1
s(g1
I1097
VtoString
p6844
tp6845
I1
s(g1
I474
VonReceive
p6846
tp6847
I1
s(g1
I319
Vtitle
p6848
tp6849
I1
s(g1
I540
VDATA_LENGTH_MAX
p6850
tp6851
I1
s(g1
I943
VupdateNearbyBeaconNotification
p6852
tp6853
I1
s(g1
I177
VlongUrl
p6854
tp6855
I1
s(g1
I1163
VgetBytes
p6856
tp6857
I1
s(g1
I176
Vother
p6858
tp6859
I2
s(g1
I1010
VpwsApiVersion
p6860
tp6861
I1
s(g1
I1420
Vurl
p6862
tp6863
I1
s(g1
I162
VsavedInstanceState
p6864
tp6865
I1
s(g1
I339
Vrssi
p6866
tp6867
I1
s(g1
I662
Veditor
p6868
tp6869
I1
s(g1
I644
Vposition
p6870
tp6871
I1
s(g1
I915
VPwoMetadata
p6872
tp6873
I1
s(g1
I1349
VgetListView
p6874
tp6875
I1
s(g1
I168
VassertNotEquals
p6876
tp6877
I1
s(g1
I511
VMenu
p6878
tp6879
I1
s(g1
I134
VPwsResultCallback
p6880
tp6881
I1
s(g1
I1696
VgetDevice
p6882
tp6883
I1
s(g1
I985
VmDeviceAddressToUrl
p6884
tp6885
I1
s(g1
I652
VpwoResponseCallback
p6886
tp6887
I1
s(g1
I65
VputBoolean
p6888
tp6889
I1
s(g1
I389
Ve
p6890
tp6891
I1
s(g1
I113
VT
p6892
tp6893
I1
s(g1
I595
VmDownView
p6894
tp6895
I1
s(g1
I1010
VArrayList
p6896
tp6897
I2
s(g1
I494
Vmenu
p6898
tp6899
I1
s(g1
I230
Vintent
p6900
tp6901
I1
s(g1
I122
Vadd
p6902
tp6903
I1
s(g1
I627
Vflags
p6904
tp6905
I1
s(g1
I2090
VsetText
p6906
tp6907
I1
s(g1
I100
VrootView
p6908
tp6909
I1
s(g1
I106
VByteArrayOutputStream
p6910
tp6911
I1
s(g1
I525
Vcharacteristic
p6912
tp6913
I1
s(g1
I378
VmScanningStatus
p6914
tp6915
I1
s(g1
I452
VParcelUuid
p6916
tp6917
I1
s(g1
I824
VString
p6918
tp6919
I1
s(g1
I520
VPwoMetadata
p6920
tp6921
I1
s(g1
I260
VonPwsResult
p6922
tp6923
I1
s(g1
I125
VonPrepareOptionsMenu
p6924
tp6925
I1
s(g1
I254
VresponseUrl
p6926
tp6927
I1
s(g1
I39
Vfloat
p6928
tp6929
I4
s(g1
I66
VwebView
p6930
tp6931
I1
s(g1
I698
VgetActivity
p6932
tp6933
I1
s(g1
I2146
VrankView
p6934
tp6935
I1
s(g1
I912
VgetUrlDevice
p6936
tp6937
I1
s(g1
I155
VPwsResult
p6938
tp6939
I1
s(g1
I207
VcontainsKey
p6940
tp6941
I1
s(g1
I247
VonResume
p6942
tp6943
I1
s(g1
I284
Vicon
p6944
tp6945
I1
s(g1
I246
VscanResult
p6946
tp6947
I1
s(g1
I641
VgetBytes
p6948
tp6949
I1
s(g1
I726
VpwPair
p6950
tp6951
I1
s(g1
I75
VwebView
p6952
tp6953
I1
s(g1
I235
ValreadyFound
p6954
tp6955
I1
s(g1
I193
Vi
p6956
tp6957
I1
s(g1
I409
VfindViewById
p6958
tp6959
I1
s(g1
I845
VgetRssi
p6960
tp6961
I1
s(g1
I287
VDESCRIPTION1
p6962
tp6963
I1
s(g1
I45
VUrlDevice
p6964
tp6965
I1
s(g1
I351
VString
p6966
tp6967
I1
s(g1
I114
VTest
p6968
tp6969
I1
s(g1
I1744
Vremove
p6970
tp6971
I1
s(g1
I985
Vget
p6972
tp6973
I1
s(g1
I258
VURL1
p6974
tp6975
I1
s(g1
I648
VmHandler
p6976
tp6977
I1
s(g1
I119
VListView
p6978
tp6979
I1
s(g1
I1033
VMockito
p6980
tp6981
I1
s(g1
I415
VmRequestCachedPwos
p6982
tp6983
I1
s(g1
I830
VaddUrlDevice
p6984
tp6985
I1
s(g1
I195
VonPrepareOptionsMenu
p6986
tp6987
I1
s(g1
I858
VstopLeScan
p6988
tp6989
I1
s(g1
I523
VString
p6990
tp6991
I1
s(g1
I472
VmDiscoveryService
p6992
tp6993
I1
s(g1
I744
VgetTopRankedPwPairByGroupId
p6994
tp6995
I1
s(g1
I1353
VofFloat
p6996
tp6997
I1
s(g1
I192
Vmenu
p6998
tp6999
I1
s(g1
I144
VInputStream
p7000
tp7001
I2
s(g1
I1422
Vbuilder
p7002
tp7003
I1
s(g1
I627
VresolveScanPath
p7004
tp7005
I1
s(g1
I425
VLog
p7006
tp7007
I1
s(g1
I927
VUtils
p7008
tp7009
I1
s(g1
I1797
VgetBoolean
p7010
tp7011
I1
s(g1
I305
VOverride
p7012
tp7013
I1
s(g1
I1422
VComponentName
p7014
tp7015
I1
s(g1
I147
Vitem
p7016
tp7017
I1
s(g1
I924
VmScanStartTime
p7018
tp7019
I1
s(g1
I59
Vo2
p7020
tp7021
I1
s(g1
I1914
Vcontext
p7022
tp7023
I1
s(g1
I1256
VString
p7024
tp7025
I1
s(g1
I1044
VmockTxPower
p7026
tp7027
I1
s(g1
I574
VString
p7028
tp7029
I1
s(g1
I1808
VString
p7030
tp7031
I1
s(g1
I1155
VUriBeacon
p7032
tp7033
I1
s(g1
I239
VgetString
p7034
tp7035
I1
s(g1
I163
VonOptionsItemSelected
p7036
tp7037
I1
s(g1
I191
VotherUrlGroup
p7038
tp7039
I1
s(g1
I414
VURL_CODES
p7040
tp7041
I1
s(g1
I540
VwriteCharacteristic
p7042
tp7043
I1
s(g1
I775
Vcontext
p7044
tp7045
I1
s(g1
I596
VIntentFilter
p7046
tp7047
I1
s(g1
I639
VUtils
p7048
tp7049
I1
s(g1
I395
VgetServiceInstance
p7050
tp7051
I1
s(g1
I72
VPwPair
p7052
tp7053
I1
s(g1
I178
VmPwsResult1
p7054
tp7055
I1
s(g1
I423
VString
p7056
tp7057
I1
s(g1
I925
VmPwoMetadataQueue
p7058
tp7059
I1
s(g1
I664
Vput
p7060
tp7061
I1
s(g1
I2070
VString
p7062
tp7063
I1
s(g1
I692
VgetExtraDouble
p7064
tp7065
I1
s(g1
I107
VMap
p7066
tp7067
I1
s(g1
I1924
VurlToNavigateTo
p7068
tp7069
I1
s(g1
I2048
VTextView
p7070
tp7071
I1
s(g1
I203
VsetVisible
p7072
tp7073
I1
s(g1
I772
VmNearbyDeviceAdapter
p7074
tp7075
I1
s(g1
I1164
VparseFromBytes
p7076
tp7077
I1
s(g1
I407
VTAG
p7078
tp7079
I1
s(g1
I316
VTAG
p7080
tp7081
I1
s(g1
I498
VsetPwsEndPointToGoogle
p7082
tp7083
I1
s(g1
I983
VUri
p7084
tp7085
I1
s(g1
I552
VJSONObject
p7086
tp7087
I1
s(g1
I668
Vurl
p7088
tp7089
I1
s(g1
I445
Vuri
p7090
tp7091
I1
s(g1
I687
VjsonUrlMetadata
p7092
tp7093
I1
s(g1
I44
VurlToUrlMetadata
p7094
tp7095
I1
s(g1
I316
VmDisplayUrl
p7096
tp7097
I1
s(g1
I565
VassertTrue
p7098
tp7099
I1
s(g1
I466
VICON_URL1
p7100
tp7101
I1
s(g1
I1820
Vformat
p7102
tp7103
I1
s(g1
I1355
VUtils
p7104
tp7105
I1
s(g1
I789
Vmenu
p7106
tp7107
I1
s(g1
I230
VgetString
p7108
tp7109
I1
s(g1
I268
Vbuilder
p7110
tp7111
I1
s(g1
I303
VgetString
p7112
tp7113
I1
s(g1
I172
Vrun
p7114
tp7115
I1
s(g1
I119
Vurl
p7116
tp7117
I1
s(g1
I233
Vdevice
p7118
tp7119
I2
s(g1
I885
VonUrlDeviceDiscoveryUpdate
p7120
tp7121
I1
s(g1
I165
Vother
p7122
tp7123
I1
s(g1
I599
VpwoMetadata
p7124
tp7125
I1
s(g1
I791
VassertEquals
p7126
tp7127
I1
s(g1
I671
VhashCode
p7128
tp7129
I1
s(g1
I118
VMap
p7130
tp7131
I1
s(g1
I839
VOverride
p7132
tp7133
I1
s(g1
I749
VsetEditCardUrl
p7134
tp7135
I1
s(g1
I1352
Vstop
p7136
tp7137
I1
s(g1
I292
VJSONObject
p7138
tp7139
I1
s(g1
I1258
VmDeviceAddressToUrl
p7140
tp7141
I1
s(g1
I405
VgetMdnsEnabled
p7142
tp7143
I1
s(g1
I207
Vtag
p7144
tp7145
I1
s(g1
I778
VPwPair
p7146
tp7147
I1
s(g1
I432
VString
p7148
tp7149
I1
s(g1
I351
VTITLE_KEY
p7150
tp7151
I1
s(g1
I989
VmScanningStatus
p7152
tp7153
I1
s(g1
I1845
VmPwCollection
p7154
tp7155
I1
s(g1
I247
VsetDeviceType
p7156
tp7157
I1
s(g1
I316
VmPwoDiscoverers
p7158
tp7159
I1
s(g1
I227
VUrlDevice
p7160
tp7161
I2
s(g1
I174
VpwsResult
p7162
tp7163
I1
s(g1
I817
Vadd
p7164
tp7165
I1
s(g1
I624
VgetUriString
p7166
tp7167
I1
s(g1
I214
VComparator
p7168
tp7169
I1
s(g1
I95
VOverride
p7170
tp7171
I1
s(g1
I1016
VunSorted
p7172
tp7173
I1
s(g1
I1018
VgetText
p7174
tp7175
I1
s(g1
I62
VstopScanning
p7176
tp7177
I1
s(g1
I702
VonMdnsUrlFound
p7178
tp7179
I1
s(g1
I125
VString
p7180
tp7181
I1
s(g1
I770
VaddBlocked
p7182
tp7183
I1
s(g1
I711
Vuri
p7184
tp7185
I1
s(g1
I677
VonPwoDiscovered
p7186
tp7187
I1
s(g1
I616
Vintent
p7188
tp7189
I1
s(g1
I316
VgetGoogleApiKey
p7190
tp7191
I1
s(g1
I82
VgetSettings
p7192
tp7193
I1
s(g1
I116
VgetRank
p7194
tp7195
I1
s(g1
I384
VrequestPermissions
p7196
tp7197
I1
s(g1
I236
Vput
p7198
tp7199
I1
s(g1
I373
VArrayList
p7200
tp7201
I1
s(g1
I85
VgetHost
p7202
tp7203
I1
s(g1
I1426
Vdescription
p7204
tp7205
I1
s(g1
I588
VURL1
p7206
tp7207
I2
s(g1
I71
VNEARBY_BEACONS_FRAGMENT_TAG
p7208
tp7209
I1
s(g1
I66
VUrlDeviceDiscoveryCallback
p7210
tp7211
I1
s(g1
I900
VTAG
p7212
tp7213
I1
s(g1
I2067
VtoString
p7214
tp7215
I1
s(g1
I296
Vcontext
p7216
tp7217
I1
s(g1
I697
VSuppressWarnings
p7218
tp7219
I1
s(g1
I120
VOverride
p7220
tp7221
I1
s(g1
I581
VsetPwsEndpoint
p7222
tp7223
I1
s(g1
I441
VonClick
p7224
tp7225
I1
s(g1
I345
Vinitialize
p7226
tp7227
I1
s(g1
I2036
VrankView
p7228
tp7229
I1
s(g1
I281
VmIsDemoMode
p7230
tp7231
I1
s(g1
I39
Vdouble
p7232
tp7233
I5
s(g1
I649
VextractBytes
p7234
tp7235
I1
s(g1
I1162
VString
p7236
tp7237
I1
s(g1
I379
VDATA_LENGTH
p7238
tp7239
I1
s(g1
I973
VsetVisibility
p7240
tp7241
I1
s(g1
I303
VserviceData
p7242
tp7243
I1
s(g1
I307
VPermissionCheck
p7244
tp7245
I1
s(g1
I301
VurlDevice
p7246
tp7247
I1
s(g1
I767
VString
p7248
tp7249
I1
s(g1
I459
VgetIcon
p7250
tp7251
I1
s(g1
I403
Vview
p7252
tp7253
I1
s(g1
I673
VjsonUrlMetadata
p7254
tp7255
I1
s(g1
I63
VdistanceSort
p7256
tp7257
I1
s(g1
I51
VTargetApi
p7258
tp7259
I1
s(g1
I452
VmScanningAnimationDrawable
p7260
tp7261
I1
s(g1
I479
VurlGroup1
p7262
tp7263
I1
s(g1
I185
VOverride
p7264
tp7265
I1
s(g1
I617
VresolveScanCallback
p7266
tp7267
I1
s(g1
I144
VintializeWebView
p7268
tp7269
I1
s(g1
I293
Vcontainer
p7270
tp7271
I1
s(g1
I1357
VgetDebugViewEnabled
p7272
tp7273
I1
s(g1
I656
VgetMetadataByBroadcastUrl
p7274
tp7275
I1
s(g1
I670
VmUrlToDeviceMetadata
p7276
tp7277
I1
s(g1
I312
VphysicalWebCollection1
p7278
tp7279
I1
s(g1
I1034
VPwPair
p7280
tp7281
I1
s(g1
I1210
VString
p7282
tp7283
I1
s(g1
I1912
VContext
p7284
tp7285
I1
s(g1
I671
Vid
p7286
tp7287
I1
s(g1
I768
Vmenu
p7288
tp7289
I1
s(g1
I572
VonStartDiscoveryFailed
p7290
tp7291
I1
s(g1
I798
VoptString
p7292
tp7293
I2
s(g1
I632
VPwoMetadata
p7294
tp7295
I1
s(g1
I1109
VsetContentText
p7296
tp7297
I1
s(g1
I789
Vsize
p7298
tp7299
I1
s(g1
I396
VDATA_ONE
p7300
tp7301
I1
s(g1
I273
Vbuilder
p7302
tp7303
I1
s(g1
I941
VmockRssi
p7304
tp7305
I1
s(g1
I2041
Vrank
p7306
tp7307
I1
s(g1
I536
VTAG
p7308
tp7309
I1
s(g1
I391
VgetBackground
p7310
tp7311
I1
s(g1
I1143
VStringBuilder
p7312
tp7313
I1
s(g1
I635
VgetActionBar
p7314
tp7315
I1
s(g1
I493
Vmessage
p7316
tp7317
I1
s(g1
I2176
VrankView
p7318
tp7319
I1
s(g1
I178
VURL1
p7320
tp7321
I1
s(g1
I274
VString
p7322
tp7323
I1
s(g1
I190
VotherPwPair
p7324
tp7325
I1
s(g1
I654
VscanLeDevice
p7326
tp7327
I1
s(g1
I544
VgetString
p7328
tp7329
I1
s(g1
I55
VPwoDiscoveryCallback
p7330
tp7331
I1
s(g1
I561
Vanimate
p7332
tp7333
I1
s(g1
I561
VDESCRIPTION1
p7334
tp7335
I1
s(g1
I831
VgetActivity
p7336
tp7337
I1
s(g1
I95
VversionView
p7338
tp7339
I1
s(g1
I1098
VpwsResult
p7340
tp7341
I1
s(g1
I474
VaddPair
p7342
tp7343
I1
s(g1
I126
VconnectionType
p7344
tp7345
I1
s(g1
I393
VhttpURLConnection
p7346
tp7347
I1
s(g1
I1112
VsetPriority
p7348
tp7349
I1
s(g1
I461
Vtop
p7350
tp7351
I1
s(g1
I1020
VString
p7352
tp7353
I1
s(g1
I88
VAutostartPwoDiscoveryServiceReceiver
p7354
tp7355
I1
s(g1
I32
VURL1
p7356
tp7357
I2
s(g1
I414
Vsize
p7358
tp7359
I1
s(g1
I666
VgetString
p7360
tp7361
I1
s(g1
I215
VNsdManager
p7362
tp7363
I1
s(g1
I200
VstartActivity
p7364
tp7365
I1
s(g1
I156
VshowAboutFragment
p7366
tp7367
I1
s(g1
I622
VstartId
p7368
tp7369
I1
s(g1
I554
VPwsResult
p7370
tp7371
I1
s(g1
I1819
VImageView
p7372
tp7373
I1
s(g1
I538
Vurl
p7374
tp7375
I1
s(g1
I168
VmPwsResult1
p7376
tp7377
I1
s(g1
I546
VmPwoGroups
p7378
tp7379
I1
s(g1
I912
VmPwoMetadataQueue
p7380
tp7381
I1
s(g1
I531
VDATA_ONE
p7382
tp7383
I1
s(g1
I623
VNotificationManager
p7384
tp7385
I1
s(g1
I61
VaddPwo
p7386
tp7387
I1
s(g1
I985
Vequals
p7388
tp7389
I1
s(g1
I1675
Vvalues
p7390
tp7391
I1
s(g1
I144
VjsonObject
p7392
tp7393
I1
s(g1
I650
Vstart
p7394
tp7395
I1
s(g1
I615
VmNotificationManager
p7396
tp7397
I1
s(g1
I810
VList
p7398
tp7399
I1
s(g1
I356
VString
p7400
tp7401
I1
s(g1
I663
VassertNull
p7402
tp7403
I1
s(g1
I302
VString
p7404
tp7405
I1
s(g1
I650
VserviceDataUuidBytes
p7406
tp7407
I1
s(g1
I572
VreadCharacteristic
p7408
tp7409
I1
s(g1
I522
VfindItem
p7410
tp7411
I1
s(g1
I233
VgetActivity
p7412
tp7413
I1
s(g1
I65
Veditor
p7414
tp7415
I1
s(g1
I984
Vget
p7416
tp7417
I1
s(g1
I172
VGROUP_ID1
p7418
tp7419
I1
s(g1
I260
VAdvertiseSettings
p7420
tp7421
I1
s(g1
I1318
VgetDevice
p7422
tp7423
I1
s(g1
I304
Vbytes
p7424
tp7425
I1
s(g1
I202
VContext
p7426
tp7427
I1
s(g1
I415
VopenInChrome
p7428
tp7429
I1
s(g1
I972
Vget
p7430
tp7431
I1
s(g1
I100
VIntent
p7432
tp7433
I1
s(g1
I724
Vadd
p7434
tp7435
I1
s(g1
I284
Vurl
p7436
tp7437
I1
s(g1
I577
VMetadataResolver
p7438
tp7439
I1
s(g1
I679
VContext
p7440
tp7441
I1
s(g1
I912
Vitem
p7442
tp7443
I1
s(g1
I728
VFile
p7444
tp7445
I1
s(g1
I218
VJSONObject
p7446
tp7447
I1
s(g1
I1790
Vget
p7448
tp7449
I1
s(g1
I145
Vequals
p7450
tp7451
I1
s(g1
I463
VSwipeRefreshWidget
p7452
tp7453
I1
s(g1
I491
Vmenu
p7454
tp7455
I1
s(g1
I724
VpwPair
p7456
tp7457
I1
s(g1
I1929
VmUrlToUrlMetadata
p7458
tp7459
I1
s(g1
I230
VgetId
p7460
tp7461
I1
s(g1
I895
VHashSet
p7462
tp7463
I1
s(g1
I123
VfindViewById
p7464
tp7465
I1
s(g1
I326
VgetString
p7466
tp7467
I1
s(g1
I429
VisCompliant
p7468
tp7469
I1
s(g1
I2132
VgetPwsResult
p7470
tp7471
I1
s(g1
I145
VOverride
p7472
tp7473
I1
s(g1
I441
VsetListAdapter
p7474
tp7475
I1
s(g1
I662
Vendpoint
p7476
tp7477
I1
s(g1
I1436
VlocalBinder
p7478
tp7479
I1
s(g1
I39
Vvoid
p7480
tp7481
I182
s(g1
I216
VjsonFactory
p7482
tp7483
I1
s(g1
I215
VAndroidJsonFactory
p7484
tp7485
I1
s(g1
I433
VstackBuilder
p7486
tp7487
I1
s(g1
I2083
VJSONException
p7488
tp7489
I1
s(g1
I586
VsetVisible
p7490
tp7491
I1
s(g1
I694
VgetPwsResult
p7492
tp7493
I1
s(g1
I370
VlongUrl
p7494
tp7495
I1
s(g1
I447
Vintent
p7496
tp7497
I1
s(g1
I39
Vboolean
p7498
tp7499
I36
s(g1
I171
VgetItem
p7500
tp7501
I1
s(g1
I345
VOverride
p7502
tp7503
I1
s(g1
I130
VfindItem
p7504
tp7505
I1
s(g1
I574
VBuilder
p7506
tp7507
I1
s(g1
I641
VUrlShortener
p7508
tp7509
I1
s(g1
I129
Vmap
p7510
tp7511
I1
s(g1
I45
VfromString
p7512
tp7513
I1
s(g1
I298
VrootView
p7514
tp7515
I1
s(g1
I836
VPwPair
p7516
tp7517
I1
s(g1
I2182
VTextView
p7518
tp7519
I1
s(g1
I102
VCharSequence
p7520
tp7521
I1
s(g1
I582
VassertTrue
p7522
tp7523
I1
s(g1
I711
VsetDisplayHomeAsUpEnabled
p7524
tp7525
I1
s(g1
I1172
VList
p7526
tp7527
I1
s(g1
I107
Vurl
p7528
tp7529
I1
s(g1
I819
VJSONException
p7530
tp7531
I1
s(g1
I161
VaddUrlDevice
p7532
tp7533
I1
s(g1
I65
VshortenUrl
p7534
tp7535
I1
s(g1
I555
Vmenu
p7536
tp7537
I1
s(g1
I173
VmNumMissing
p7538
tp7539
I1
s(g1
I718
Vuri
p7540
tp7541
I1
s(g1
I190
VstartDemo
p7542
tp7543
I1
s(g1
I493
VTAG
p7544
tp7545
I1
s(g1
I1317
Vcontext
p7546
tp7547
I1
s(g1
I245
VjsonObject
p7548
tp7549
I1
s(g1
I397
VensureLocationPermissionIsEnabled
p7550
tp7551
I1
s(g1
I16
VBroadcastReceiver
p7552
tp7553
I3
s(g1
I648
VcanDismiss
p7554
tp7555
I1
s(g1
I657
VdeserializedResult
p7556
tp7557
I1
s(g1
I556
Vbuilder
p7558
tp7559
I1
s(g1
I162
VJSONObject
p7560
tp7561
I1
s(g1
I260
VpwsResult
p7562
tp7563
I1
s(g1
I342
VtxPower
p7564
tp7565
I1
s(g1
I640
VopenInputStream
p7566
tp7567
I1
s(g1
I294
VjsonResponse
p7568
tp7569
I1
s(g1
I430
VTAG
p7570
tp7571
I1
s(g1
I1640
VmUrlToDeviceAddress
p7572
tp7573
I1
s(g1
I1106
VJSONException
p7574
tp7575
I1
s(g1
I1796
Vview
p7576
tp7577
I1
s(g1
I1824
VsetVisibility
p7578
tp7579
I1
s(g1
I172
Vother
p7580
tp7581
I1
s(g1
I765
VcreateUrlProxyGoLink
p7582
tp7583
I1
s(g1
I1161
VgetScanRecord
p7584
tp7585
I1
s(g1
I300
VrequestPermissions
p7586
tp7587
I1
s(g1
I1349
VcurrentTimeMillis
p7588
tp7589
I1
s(g1
I1082
VtestGetTopRankedPwPairByGroupIdEmptyCollection
p7590
tp7591
I1
s(g1
I143
VgetUrl
p7592
tp7593
I1
s(g1
I838
VgetAddress
p7594
tp7595
I1
s(g1
I625
VbeginTransaction
p7596
tp7597
I1
s(g1
I241
VOverride
p7598
tp7599
I1
s(g1
I504
VonError
p7600
tp7601
I1
s(g1
I260
VpwsResultCallback
p7602
tp7603
I1
s(g1
I1188
VUrlGroup
p7604
tp7605
I1
s(g1
I186
VRunnable
p7606
tp7607
I1
s(g1
I295
VonClick
p7608
tp7609
I1
s(g1
I395
VjsonSerialize
p7610
tp7611
I1
s(g1
I505
Vtitle
p7612
tp7613
I1
s(g1
I114
VTAG
p7614
tp7615
I1
s(g1
I380
VURL
p7616
tp7617
I1
s(g1
I693
VbyteBufferArray
p7618
tp7619
I1
s(g1
I402
VshortUrl
p7620
tp7621
I1
s(g1
I63
VIntent
p7622
tp7623
I1
s(g1
I71
VwebView
p7624
tp7625
I1
s(g1
I1717
VPwoDiscoverer
p7626
tp7627
I1
s(g1
I1009
VpwoMetadataList
p7628
tp7629
I1
s(g1
I74
VURL1
p7630
tp7631
I1
s(g1
I646
VPwoMetadata
p7632
tp7633
I1
s(g1
I191
VmPwsResult1
p7634
tp7635
I1
s(g1
I326
VSHORT_URLS
p7636
tp7637
I1
s(g1
I560
VString
p7638
tp7639
I1
s(g1
I565
Vallocate
p7640
tp7641
I1
s(g1
I1721
VPwoMetadata
p7642
tp7643
I1
s(g1
I313
VhasUrlMetadata
p7644
tp7645
I1
s(g1
I258
VID2
p7646
tp7647
I1
s(g1
I177
VmUrlDevice1
p7648
tp7649
I1
s(g1
I304
VshortUrl
p7650
tp7651
I1
s(g1
I189
VsetWifiPort
p7652
tp7653
I1
s(g1
I437
VinitializeScreenStateBroadcastReceiver
p7654
tp7655
I1
s(g1
I321
Vdevice
p7656
tp7657
I1
s(g1
I808
VLog
p7658
tp7659
I1
s(g1
I756
VmIsScanRunning
p7660
tp7661
I1
s(g1
I161
Vother
p7662
tp7663
I1
s(g1
I498
VjsonObject
p7664
tp7665
I1
s(g1
I426
VreadCharacteristic
p7666
tp7667
I1
s(g1
I54
g292
tp7668
I29
s(g1
I1233
VgetActivity
p7669
tp7670
I1
s(g1
I291
VmGroupId
p7671
tp7672
I1
s(g1
I226
VassertFalse
p7673
tp7674
I1
s(g1
I551
VJSONObject
p7675
tp7676
I1
s(g1
I184
VmId
p7677
tp7678
I1
s(g1
I120
VgetMessage
p7679
tp7680
I1
s(g1
I662
VdeserializedResult
p7681
tp7682
I1
s(g1
I34
VPwoCollection
p7683
tp7684
I1
s(g1
I2052
VfindViewById
p7685
tp7686
I1
s(g1
I536
VensureUrlHasHttpPrefix
p7687
tp7688
I1
s(g1
I968
VmNearbyDeviceAdapter
p7689
tp7690
I1
s(g1
I1816
Vcontext
p7691
tp7692
I1
s(g1
I1377
Vview
p7693
tp7694
I1
s(g1
I660
VgetString
p7695
tp7696
I1
s(g1
I725
Vmkdir
p7697
tp7698
I1
s(g1
I306
VmPwPair1
p7699
tp7700
I1
s(g1
I302
Vbeacon
p7701
tp7702
I1
s(g1
I956
Venable
p7703
tp7704
I1
s(g1
I403
VrequestPwoMetadata
p7705
tp7706
I1
s(g1
I220
VaddUrlDevice
p7707
tp7708
I1
s(g1
I376
VmNotificationManager
p7709
tp7710
I1
s(g1
I373
VgetUuid
p7711
tp7712
I1
s(g1
I756
VmLengthenShortUrlTask
p7713
tp7714
I1
s(g1
I481
VContext
p7715
tp7716
I1
s(g1
I246
VTest
p7717
tp7718
I1
s(g1
I188
VOverride
p7719
tp7720
I1
s(g1
I827
Vfilters
p7721
tp7722
I1
s(g1
I22
VString
p7723
tp7724
I1
s(g1
I1024
VerrorListener
p7725
tp7726
I1
s(g1
I664
VmUrlToDeviceMetadata
p7727
tp7728
I1
s(g1
I744
Vurl
p7729
tp7730
I1
s(g1
I63
VFileBroadcastService
p7731
tp7732
I1
s(g1
I145
VMenuItem
p7733
tp7734
I1
s(g1
I206
VmDeviceIdToUrlDeviceMap
p7735
tp7736
I1
s(g1
I662
Vurl
p7737
tp7738
I2
s(g1
I807
VcheckIfUserHasOptedIn
p7739
tp7740
I1
s(g1
I1109
Vurl
p7741
tp7742
I1
s(g1
I303
VJSONObject
p7743
tp7744
I1
s(g1
I913
VmSortedDevices
p7745
tp7746
I1
s(g1
I641
VdeserializedCollection
p7747
tp7748
I1
s(g1
I416
VsiteUrl
p7749
tp7750
I1
s(g1
I266
VpwsResult
p7751
tp7752
I1
s(g1
I179
VmUrl
p7753
tp7754
I1
s(g1
I989
Vgroupid
p7755
tp7756
I1
s(g1
I65
Vurl
p7757
tp7758
I1
s(g1
I290
Vview
p7759
tp7760
I1
s(g1
I681
Vcontext
p7761
tp7762
I1
s(g1
I1037
VString
p7763
tp7764
I1
s(g1
I489
Vput
p7765
tp7766
I1
s(g1
I427
VMdnsPwoDiscoverer
p7767
tp7768
I1
s(g1
I21
VContext
p7769
tp7770
I3
s(g1
I1476
VUtils
p7771
tp7772
I1
s(g1
I579
VgetItem
p7773
tp7774
I1
s(g1
I1484
VgetActivity
p7775
tp7776
I1
s(g1
I315
VUrlDevice
p7777
tp7778
I1
s(g1
I190
VPhysicalWebCollectionException
p7779
tp7780
I1
s(g1
I838
VUtils
p7781
tp7782
I1
s(g1
I309
Vurl
p7783
tp7784
I1
s(g1
I26
VUrlDeviceDiscoverer
p7785
tp7786
I2
s(g1
I308
VisNetworkUrl
p7787
tp7788
I1
s(g1
I928
VmPwoMetadataQueue
p7789
tp7790
I1
s(g1
I1730
VpwoResponseCallback
p7791
tp7792
I1
s(g1
I957
VfadeInListView
p7793
tp7794
I1
s(g1
I613
Vcontext
p7795
tp7796
I1
s(g1
I83
Vfinal
p7797
tp7798
I37
s(g1
I135
VurlConnection
p7799
tp7800
I2
s(g1
I710
Vurl
p7801
tp7802
I1
s(g1
I133
VmNearbyDevicesListView
p7803
tp7804
I1
s(g1
I599
VregisterReceiver
p7805
tp7806
I1
s(g1
I1017
VmUrlDeviceDiscoveryListeners
p7807
tp7808
I1
s(g1
I666
ViconUrl
p7809
tp7810
I1
s(g1
I192
VIOException
p7811
tp7812
I1
s(g1
I776
VpwoMetadata
p7813
tp7814
I1
s(g1
I592
VsiteUrl
p7815
tp7816
I1
s(g1
I562
VcompareTo
p7817
tp7818
I1
s(g1
I122
Ve
p7819
tp7820
I1
s(g1
I233
VgetAddress
p7821
tp7822
I2
s(g1
I86
Vurl
p7823
tp7824
I1
s(g1
I589
VgetPendingIntent
p7825
tp7826
I1
s(g1
I186
VsetWifiAddress
p7827
tp7828
I1
s(g1
I223
VgetJSONObject
p7829
tp7830
I1
s(g1
I166
VDemo
p7831
tp7832
I1
s(g1
I208
Vmenu
p7833
tp7834
I1
s(g1
I859
VmMdnsUrlDiscoverer
p7835
tp7836
I1
s(g1
I33
VPwPair
p7837
tp7838
I1
s(g1
I530
VresultCode
p7839
tp7840
I1
s(g1
I77
VNanoHTTPD
p7841
tp7842
I1
s(g1
I273
VgetString
p7843
tp7844
I1
s(g1
I333
VshowLearnMorePage
p7845
tp7846
I1
s(g1
I63
VTest
p7847
tp7848
I1
s(g1
I38
VattributeSet
p7849
tp7850
I1
s(g1
I92
VTAG
p7851
tp7852
I1
s(g1
I629
VpwPairs
p7853
tp7854
I1
s(g1
I1051
VemptyUrlQueue
p7855
tp7856
I1
s(g1
I31
VString
p7857
tp7858
I2
s(g1
I294
Vdismiss
p7859
tp7860
I1
s(g1
I1888
VgetDefaultSharedPreferences
p7861
tp7862
I1
s(g1
I63
VInputStream
p7863
tp7864
I1
s(g1
I556
VPwoResponseCallback
p7865
tp7866
I1
s(g1
I920
VDate
p7867
tp7868
I1
s(g1
I462
VmHandler
p7869
tp7870
I1
s(g1
I889
VmScanTimeout
p7871
tp7872
I1
s(g1
I671
VgetActivity
p7873
tp7874
I1
s(g1
I756
Venable
p7875
tp7876
I1
s(g1
I708
VmMetadataResolverCallback
p7877
tp7878
I1
s(g1
I1683
Vsort
p7879
tp7880
I1
s(g1
I501
VpwsResult
p7881
tp7882
I1
s(g1
I1088
VclearFocus
p7883
tp7884
I1
s(g1
I192
Vresult
p7885
tp7886
I1
s(g1
I1026
VURLUtil
p7887
tp7888
I1
s(g1
I480
VpwsResult
p7889
tp7890
I1
s(g1
I336
VsetVisibility
p7891
tp7892
I1
s(g1
I293
VGROUP_ID1
p7893
tp7894
I1
s(g1
I82
VmSsdpUrlDiscovererCallback
p7895
tp7896
I1
s(g1
I1213
VsharedPref
p7897
tp7898
I1
s(g1
I250
VsetServiceUuids
p7899
tp7900
I1
s(g1
I1341
VContext
p7901
tp7902
I1
s(g1
I44
VTAG
p7903
tp7904
I3
s(g1
I243
Vurlshortener
p7905
tp7906
I1
s(g1
I151
VstartDemo
p7907
tp7908
I1
s(g1
I212
VgetAddress
p7909
tp7910
I1
s(g1
I359
VImageView
p7911
tp7912
I1
s(g1
I289
VOverride
p7913
tp7914
I1
s(g1
I359
VJSONObject
p7915
tp7916
I1
s(g1
I365
Vequals
p7917
tp7918
I1
s(g1
I511
VmakeText
p7919
tp7920
I1
s(g1
I643
VassertEquals
p7921
tp7922
I1
s(g1
I1055
VonUriBeaconRead
p7923
tp7924
I1
s(g1
I334
VURLUtil
p7925
tp7926
I1
s(g1
I101
VIOException
p7927
tp7928
I2
s(g1
I630
VscanRecord
p7929
tp7930
I1
s(g1
I1177
VmUrlToUrlMetadata
p7931
tp7932
I1
s(g1
I160
VUrlDevice
p7933
tp7934
I1
s(g1
I433
VContext
p7935
tp7936
I1
s(g1
I1839
VmScanStartTime
p7937
tp7938
I1
s(g1
I1502
VException
p7939
tp7940
I1
s(g1
I653
Vstream
p7941
tp7942
I1
s(g1
I1143
VUtils
p7943
tp7944
I1
s(g1
I2355
VMDNS_PUBLIC_DEVICE_TYPE
p7945
tp7946
I1
s(g1
I684
VsetDisplayHomeAsUpEnabled
p7947
tp7948
I1
s(g1
I212
VArrayList
p7949
tp7950
I1
s(g1
I68
VRunnable
p7951
tp7952
I1
s(g1
I1590
VfindUrlForGivenDeviceAddress
p7953
tp7954
I1
s(g1
I136
VpwsResultCallback
p7955
tp7956
I1
s(g1
I305
VshortUrl
p7957
tp7958
I1
s(g1
I1121
VmPwoMetadataQueue
p7959
tp7960
I1
s(g1
I195
VisNetworkUrl
p7961
tp7962
I1
s(g1
I232
VurlDevice
p7963
tp7964
I1
s(g1
I321
VassertEquals
p7965
tp7966
I1
s(g1
I494
VException
p7967
tp7968
I1
s(g1
I633
VgetSystemService
p7969
tp7970
I1
s(g1
I267
VfoundUrls
p7971
tp7972
I1
s(g1
I1802
VImageView
p7973
tp7974
I1
s(g1
I1475
VPwsResultCallback
p7975
tp7976
I1
s(g1
I835
VtoNanos
p7977
tp7978
I1
s(g1
I229
VmListItems
p7979
tp7980
I1
s(g1
I649
VUrlDevice
p7981
tp7982
I1
s(g1
I671
Vurl
p7983
tp7984
I1
s(g1
I305
VjsonObject
p7985
tp7986
I1
s(g1
I525
VlongUrl
p7987
tp7988
I1
s(g1
I91
VcreatePwoMetadata
p7989
tp7990
I1
s(g1
I167
VurlConnection
p7991
tp7992
I2
s(g1
I775
VMenu
p7993
tp7994
I1
s(g1
I40
VPwPair
p7995
tp7996
I1
s(g1
I1823
Vview
p7997
tp7998
I1
s(g1
I920
VgetUrlDevice
p7999
tp8000
I1
s(g1
I291
Vput
p8001
tp8002
I1
s(g1
I837
VgetUrl
p8003
tp8004
I1
s(g1
I838
Vd
p8005
tp8006
I1
s(g1
I96
Vid
p8007
tp8008
I1
s(g1
I1544
VurlMetadataB
p8009
tp8010
I1
s(g1
I773
VGROUPID2
p8011
tp8012
I1
s(g1
I386
VmDataLength
p8013
tp8014
I1
s(g1
I1182
Vcontext
p8015
tp8016
I1
s(g1
I865
VtoString
p8017
tp8018
I1
s(g1
I110
VonStart
p8019
tp8020
I1
s(g1
I440
VPreferenceManager
p8021
tp8022
I1
s(g1
I243
VuriBeacon
p8023
tp8024
I1
s(g1
I186
VString
p8025
tp8026
I1
s(g1
I181
VsetCancelable
p8027
tp8028
I1
s(g1
I961
VRunnable
p8029
tp8030
I1
s(g1
I447
VurlDeviceDiscoverer
p8031
tp8032
I1
s(g1
I391
VmCheckingPermissions
p8033
tp8034
I1
s(g1
I438
Vinitialize
p8035
tp8036
I1
s(g1
I614
VsetSummary
p8037
tp8038
I1
s(g1
I611
Vfilter
p8039
tp8040
I1
s(g1
I369
Vintent
p8041
tp8042
I1
s(g1
I475
Vbuild
p8043
tp8044
I1
s(g1
I338
VIntent
p8045
tp8046
I1
s(g1
I1752
VmScanStartTime
p8047
tp8048
I1
s(g1
I542
VTAG
p8049
tp8050
I1
s(g1
I163
VHashSet
p8051
tp8052
I1
s(g1
I568
VcustomPwsApiKey
p8053
tp8054
I1
s(g1
I1238
Vshow
p8055
tp8056
I1
s(g1
I293
VlayoutInflater
p8057
tp8058
I1
s(g1
I631
VonUrlMetadataIconReceived
p8059
tp8060
I1
s(g1
I293
VmNotificationManager
p8061
tp8062
I1
s(g1
I246
VinitializeScanningAnimation
p8063
tp8064
I1
s(g1
I201
VPwoMetadata
p8065
tp8066
I1
s(g1
I429
VmStartedByRestart
p8067
tp8068
I1
s(g1
I53
VTAG
p8069
tp8070
I1
s(g1
I591
VstartsWith
p8071
tp8072
I1
s(g1
I1150
VOverride
p8073
tp8074
I1
s(g1
I579
Vmenu
p8075
tp8076
I1
s(g1
I922
Vget
p8077
tp8078
I1
s(g1
I384
VOverride
p8079
tp8080
I1
s(g1
I643
Vbuilder
p8081
tp8082
I1
s(g1
I830
VmPwCollection
p8083
tp8084
I1
s(g1
I651
VPwsResult
p8085
tp8086
I1
s(g1
I454
VString
p8087
tp8088
I1
s(g1
I1161
VscanResult
p8089
tp8090
I1
s(g1
I448
VonPause
p8091
tp8092
I1
s(g1
I154
Vinflater
p8093
tp8094
I1
s(g1
I631
VgetUrlDevices
p8095
tp8096
I1
s(g1
I138
VtoJsonObject
p8097
tp8098
I1
s(g1
I954
VsetRefreshing
p8099
tp8100
I1
s(g1
I96
Vname
p8101
tp8102
I1
s(g1
I389
Vservice
p8103
tp8104
I1
s(g1
I56
VfindViewById
p8105
tp8106
I1
s(g1
I643
VgetActionBar
p8107
tp8108
I1
s(g1
I189
Vurls
p8109
tp8110
I1
s(g1
I3962
Vdest
p8111
tp8112
I1
s(g1
I397
Vcontains
p8113
tp8114
I1
s(g1
I631
VOverride
p8115
tp8116
I1
s(g1
I664
VjsonObj
p8117
tp8118
I1
s(g1
I848
VTAG
p8119
tp8120
I1
s(g1
I249
VTAG
p8121
tp8122
I1
s(g1
I397
VmFavoriteUrls
p8123
tp8124
I1
s(g1
I466
ViconMap
p8125
tp8126
I1
s(g1
I819
Vfilters
p8127
tp8128
I1
s(g1
I107
VLog
p8129
tp8130
I1
s(g1
I1168
Vscheme
p8131
tp8132
I1
s(g1
I467
Ve
p8133
tp8134
I1
s(g1
I176
Vdemo
p8135
tp8136
I1
s(g1
I1177
VcontainsKey
p8137
tp8138
I1
s(g1
I857
VIntent
p8139
tp8140
I1
s(g1
I405
VUtils
p8141
tp8142
I1
s(g1
I829
Vaddress
p8143
tp8144
I1
s(g1
I1258
Vurl
p8145
tp8146
I1
s(g1
I176
VtestDone
p8147
tp8148
I1
s(g1
I906
VString
p8149
tp8150
I1
s(g1
I1070
VgetRequestUrl
p8151
tp8152
I1
s(g1
I2101
VgetDefaultSharedPreferences
p8153
tp8154
I1
s(g1
I1133
VpwsResult
p8155
tp8156
I1
s(g1
I200
VfindItem
p8157
tp8158
I1
s(g1
I1361
VgetActivity
p8159
tp8160
I1
s(g1
I80
VOverride
p8161
tp8162
I1
s(g1
I827
VString
p8163
tp8164
I1
s(g1
I145
VURL1
p8165
tp8166
I1
s(g1
I472
VIntent
p8167
tp8168
I1
s(g1
I1747
VmScanStartTime
p8169
tp8170
I1
s(g1
I436
Vview
p8171
tp8172
I1
s(g1
I950
VUtils
p8173
tp8174
I1
s(g1
I1519
VsetText
p8175
tp8176
I1
s(g1
I1481
VmRegionResolver
p8177
tp8178
I1
s(g1
I307
VString
p8179
tp8180
I2
s(g1
I1384
VfindViewById
p8181
tp8182
I1
s(g1
I566
VgetCharacteristic
p8183
tp8184
I1
s(g1
I384
VmScanningImage
p8185
tp8186
I1
s(g1
I1103
VisNetworkUrl
p8187
tp8188
I1
s(g1
I714
VString
p8189
tp8190
I1
s(g1
I249
VparseFromBytes
p8191
tp8192
I1
s(g1
I145
Vi
p8193
tp8194
I1
s(g1
I1047
Vurl
p8195
tp8196
I1
s(g1
I399
VButton
p8197
tp8198
I1
s(g1
I573
VbyteBuffer
p8199
tp8200
I1
s(g1
I107
VString
p8201
tp8202
I1
s(g1
I83
Vpublic
p8203
tp8204
I192
s(g1
I284
VassertEquals
p8205
tp8206
I1
s(g1
I369
VUUID
p8207
tp8208
I1
s(g1
I1489
VOverride
p8209
tp8210
I1
s(g1
I52
VuriBeacon
p8211
tp8212
I1
s(g1
I511
VString
p8213
tp8214
I1
s(g1
I620
VsiteUrl
p8215
tp8216
I1
s(g1
I577
VcustomPwsApiKey
p8217
tp8218
I1
s(g1
I499
Vmenu
p8219
tp8220
I1
s(g1
I222
VmThread
p8221
tp8222
I1
s(g1
I317
VisDemoMode
p8223
tp8224
I1
s(g1
I224
VLog
p8225
tp8226
I1
s(g1
I114
VgetServiceUuids
p8227
tp8228
I1
s(g1
I729
VToast
p8229
tp8230
I1
s(g1
I1821
Vview
p8231
tp8232
I1
s(g1
I635
VpowerManager
p8233
tp8234
I1
s(g1
I581
Velement
p8235
tp8236
I1
s(g1
I860
VSystem
p8237
tp8238
I1
s(g1
I2164
VsetText
p8239
tp8240
I1
s(g1
I369
VcheckSelfPermission
p8241
tp8242
I1
s(g1
I683
VdisplayList
p8243
tp8244
I1
s(g1
I210
VPwPair
p8245
tp8246
I1
s(g1
I409
VrootView
p8247
tp8248
I1
s(g1
I761
VmLengthenShortUrlTask
p8249
tp8250
I1
s(g1
I598
VFileOutputStream
p8251
tp8252
I1
s(g1
I664
Vcommit
p8253
tp8254
I1
s(g1
I191
VUtils
p8255
tp8256
I1
s(g1
I766
VSCAN_TIME_MILLIS
p8257
tp8258
I1
s(g1
I90
VonCreate
p8259
tp8260
I1
s(g1
I116
VisGoogleApiKeyAvailable
p8261
tp8262
I1
s(g1
I1103
VpwsResult
p8263
tp8264
I1
s(g1
I310
VregisterReceiver
p8265
tp8266
I1
s(g1
I608
Ve
p8267
tp8268
I1
s(g1
I173
VonResume
p8269
tp8270
I1
s(g1
I70
VmUrlToUrlMetadata
p8271
tp8272
I1
s(g1
I1051
VsortedPwPairs
p8273
tp8274
I1
s(g1
I822
VPwsClient
p8275
tp8276
I2
s(g1
I346
Vreason
p8277
tp8278
I1
s(g1
I307
VgetFragmentManager
p8279
tp8280
I1
s(g1
I417
Vi
p8281
tp8282
I1
s(g1
I75
Vpwo
p8283
tp8284
I1
s(g1
I316
VLog
p8285
tp8286
I1
s(g1
I277
Vgatt
p8287
tp8288
I1
s(g1
I182
VOverride
p8289
tp8290
I1
s(g1
I530
VString
p8291
tp8292
I1
s(g1
I725
VwebsiteDir
p8293
tp8294
I1
s(g1
I357
VPwoDevice
p8295
tp8296
I1
s(g1
I997
VString
p8297
tp8298
I1
s(g1
I2141
VrankView
p8299
tp8300
I1
s(g1
I235
VgetJSONObject
p8301
tp8302
I1
s(g1
I578
VlistPreference
p8303
tp8304
I1
s(g1
I215
VmListItems
p8305
tp8306
I1
s(g1
I784
VgroupedPairs
p8307
tp8308
I1
s(g1
I1317
VPreferenceManager
p8309
tp8310
I1
s(g1
I186
VonResume
p8311
tp8312
I1
s(g1
I361
VfindViewById
p8313
tp8314
I1
s(g1
I1181
VfilteredPairs
p8315
tp8316
I1
s(g1
I108
Vos
p8317
tp8318
I1
s(g1
I397
VrequestCallback
p8319
tp8320
I1
s(g1
I1335
VgetSiteUrl
p8321
tp8322
I1
s(g1
I63
VsetCallback
p8323
tp8324
I1
s(g1
I456
VonResume
p8325
tp8326
I1
s(g1
I46
VbluetoothDevice
p8327
tp8328
I1
s(g1
I206
VTAG
p8329
tp8330
I1
s(g1
I81
VPwPair
p8331
tp8332
I1
s(g1
I634
VpwoMetadata
p8333
tp8334
I1
s(g1
I89
VjsonObject
p8335
tp8336
I1
s(g1
I462
Ve
p8337
tp8338
I1
s(g1
I41
VSharedPreferences
p8339
tp8340
I1
s(g1
I220
VUtils
p8341
tp8342
I1
s(g1
I194
VException
p8343
tp8344
I1
s(g1
I1320
VString
p8345
tp8346
I1
s(g1
I171
VjsonObject1
p8347
tp8348
I1
s(g1
I172
Vport
p8349
tp8350
I1
s(g1
I441
VString
p8351
tp8352
I2
s(g1
I222
VgetId
p8353
tp8354
I1
s(g1
I475
VsetColorSchemeResources
p8355
tp8356
I1
s(g1
I1712
VgetScanStartTime
p8357
tp8358
I1
s(g1
I438
VPwoDiscoveryService
p8359
tp8360
I1
s(g1
I162
VmUrlDevice1
p8361
tp8362
I1
s(g1
I25
VIntent
p8363
tp8364
I3
s(g1
I47
Vpwo
p8365
tp8366
I1
s(g1
I123
Vother
p8367
tp8368
I1
s(g1
I424
Vcharacteristic
p8369
tp8370
I1
s(g1
I1826
Vurl
p8371
tp8372
I1
s(g1
I90
VassertEquals
p8373
tp8374
I1
s(g1
I91
VString
p8375
tp8376
I1
s(g1
I285
VContextCompat
p8377
tp8378
I1
s(g1
I448
VListView
p8379
tp8380
I1
s(g1
I207
VcompareValue
p8381
tp8382
I1
s(g1
I825
VPwsClient
p8383
tp8384
I1
s(g1
I63
VmRssiHistory
p8385
tp8386
I1
s(g1
I497
VjsonObject
p8387
tp8388
I1
s(g1
I1009
VnewUrls
p8389
tp8390
I1
s(g1
I935
VemptyPwoMetadataQueue
p8391
tp8392
I1
s(g1
I426
VgetActivity
p8393
tp8394
I1
s(g1
I147
Vother
p8395
tp8396
I1
s(g1
I445
Vintent
p8397
tp8398
I1
s(g1
I516
VString
p8399
tp8400
I1
s(g1
I698
Vcancel
p8401
tp8402
I1
s(g1
I683
VIntent
p8403
tp8404
I1
s(g1
I1411
VsetPriority
p8405
tp8406
I1
s(g1
I294
Vprogress
p8407
tp8408
I1
s(g1
I689
VPwoMetadata
p8409
tp8410
I1
s(g1
I2067
Vregion
p8411
tp8412
I1
s(g1
I597
VdeserializedCollection
p8413
tp8414
I1
s(g1
I941
VmockTxPower
p8415
tp8416
I1
s(g1
I478
VPwsResult
p8417
tp8418
I1
s(g1
I1740
VpwoResponseCallback
p8419
tp8420
I1
s(g1
I346
VJSONArray
p8421
tp8422
I1
s(g1
I304
VmIconUrlToIconMap
p8423
tp8424
I1
s(g1
I808
Vd
p8425
tp8426
I1
s(g1
I2490
Ve
p8427
tp8428
I1
s(g1
I598
VListPreference
p8429
tp8430
I1
s(g1
I308
VmPwoDiscoverers
p8431
tp8432
I1
s(g1
I929
VBluetoothSite
p8433
tp8434
I1
s(g1
I416
VisFavorite
p8435
tp8436
I1
s(g1
I1863
VUtils
p8437
tp8438
I1
s(g1
I73
VPwoMetadata
p8439
tp8440
I1
s(g1
I98
VView
p8441
tp8442
I1
s(g1
I636
VPhysicalWebCollection
p8443
tp8444
I1
s(g1
I1027
VmCanUpdateNotifications
p8445
tp8446
I1
s(g1
I635
VurlDevice
p8447
tp8448
I1
s(g1
I620
VpwoMetadata
p8449
tp8450
I1
s(g1
I883
VArrayList
p8451
tp8452
I1
s(g1
I485
VMdnsPwoDiscoverer
p8453
tp8454
I1
s(g1
I864
Vresolve
p8455
tp8456
I1
s(g1
I2015
VcreateNavigateToUrlPendingIntent
p8457
tp8458
I1
s(g1
I202
Vmenu
p8459
tp8460
I2
s(g1
I381
VsetCustomAnimations
p8461
tp8462
I1
s(g1
I485
VBeaconDisplayItem
p8463
tp8464
I1
s(g1
I170
VmPwsResult1
p8465
tp8466
I1
s(g1
I41
g292
tp8467
I131
s(g1
I173
VmUrlDevice1
p8468
tp8469
I1
s(g1
I1179
Vcontext
p8470
tp8471
I1
s(g1
I770
VURL1
p8472
tp8473
I1
s(g1
I1402
VsetLargeIcon
p8474
tp8475
I1
s(g1
I1205
Vcontext
p8476
tp8477
I1
s(g1
I71
VsetBackgroundColor
p8478
tp8479
I1
s(g1
I441
Vappend
p8480
tp8481
I1
s(g1
I258
Vurl
p8482
tp8483
I1
s(g1
I119
Vrank
p8484
tp8485
I1
s(g1
I316
VUrlDevice
p8486
tp8487
I1
s(g1
I273
VContextCompat
p8488
tp8489
I1
s(g1
I657
VLog
p8490
tp8491
I1
s(g1
I300
Vurl
p8492
tp8493
I1
s(g1
I290
Vdisconnect
p8494
tp8495
I1
s(g1
I392
Ve
p8496
tp8497
I1
s(g1
I312
Vview
p8498
tp8499
I1
s(g1
I290
VScanResult
p8500
tp8501
I1
s(g1
I645
VLog
p8502
tp8503
I1
s(g1
I376
VScanFilter
p8504
tp8505
I1
s(g1
I1919
Vurl
p8506
tp8507
I1
s(g1
I639
VserviceUuidLength
p8508
tp8509
I1
s(g1
I522
VdiscoverServices
p8510
tp8511
I1
s(g1
I1701
VBeaconConfigFragment
p8512
tp8513
I1
s(g1
I813
VjsonUrlMetadata
p8514
tp8515
I1
s(g1
I188
Vhash
p8516
tp8517
I1
s(g1
I379
VgetBluetoothLeScannerCompat
p8518
tp8519
I1
s(g1
I301
VpwsResult
p8520
tp8521
I1
s(g1
I155
VIOException
p8522
tp8523
I2
s(g1
I382
Vinitialize
p8524
tp8525
I1
s(g1
I877
VList
p8526
tp8527
I1
s(g1
I539
VstopSearchingForPwos
p8528
tp8529
I1
s(g1
I234
Vview
p8530
tp8531
I1
s(g1
I992
Vconnect
p8532
tp8533
I1
s(g1
I277
ViconUrl
p8534
tp8535
I1
s(g1
I287
VOverride
p8536
tp8537
I1
s(g1
I25
VURL1
p8538
tp8539
I1
s(g1
I1734
VgetPwCollection
p8540
tp8541
I1
s(g1
I40
VassertEquals
p8542
tp8543
I1
s(g1
I108
VmContext
p8544
tp8545
I1
s(g1
I110
Vrank
p8546
tp8547
I1
s(g1
I191
VOverride
p8548
tp8549
I1
s(g1
I169
VpwsResult
p8550
tp8551
I1
s(g1
I770
VID1
p8552
tp8553
I1
s(g1
I495
VcreateMetadataRequest
p8554
tp8555
I1
s(g1
I394
VsavedInstanceState
p8556
tp8557
I1
s(g1
I996
VonResponse
p8558
tp8559
I1
s(g1
I421
VNearbyBeaconsFragment
p8560
tp8561
I1
s(g1
I593
VfindPreference
p8562
tp8563
I1
s(g1
I56
VaddedPwo
p8564
tp8565
I1
s(g1
I107
VFileBroadcastService
p8566
tp8567
I1
s(g1
I293
VString
p8568
tp8569
I1
s(g1
I1491
VonIcon
p8570
tp8571
I1
s(g1
I1814
VgetBitmapIcon
p8572
tp8573
I1
s(g1
I1072
Vurl
p8574
tp8575
I1
s(g1
I268
VsetTitle
p8576
tp8577
I1
s(g1
I379
Vequals
p8578
tp8579
I1
s(g1
I1783
Vview
p8580
tp8581
I1
s(g1
I642
VbleMetadata
p8582
tp8583
I1
s(g1
I1184
VMap
p8584
tp8585
I1
s(g1
I1094
Vremove
p8586
tp8587
I1
s(g1
I438
Vuri
p8588
tp8589
I1
s(g1
I604
VListPreference
p8590
tp8591
I1
s(g1
I98
VPwPair
p8592
tp8593
I1
s(g1
I1171
VgetUriString
p8594
tp8595
I1
s(g1
I369
VContextCompat
p8596
tp8597
I1
s(g1
I1500
VhttpResponseCode
p8598
tp8599
I1
s(g1
I156
VObject
p8600
tp8601
I1
s(g1
I132
VHttpURLConnection
p8602
tp8603
I1
s(g1
I44
VPwoCollection
p8604
tp8605
I1
s(g1
I309
Vvalue
p8606
tp8607
I1
s(g1
I1192
VgroupMap
p8608
tp8609
I1
s(g1
I848
Vd
p8610
tp8611
I1
s(g1
I333
VjsonObject
p8612
tp8613
I1
s(g1
I703
VmUrlToPwoMetadata
p8614
tp8615
I1
s(g1
I1042
VgetGroupedPwPairsSortedByRank
p8616
tp8617
I1
s(g1
I673
VoptString
p8618
tp8619
I1
s(g1
I196
VPwsResult
p8620
tp8621
I1
s(g1
I772
Vposition
p8622
tp8623
I1
s(g1
I850
VFileBroadcastService
p8624
tp8625
I1
s(g1
I1108
VgetDescription
p8626
tp8627
I1
s(g1
I531
Vurl
p8628
tp8629
I1
s(g1
I138
VID_KEY
p8630
tp8631
I1
s(g1
I123
Vuuid
p8632
tp8633
I1
s(g1
I373
Vcharacteristic
p8634
tp8635
I1
s(g1
I1392
VUtils
p8636
tp8637
I1
s(g1
I993
VURLUtil
p8638
tp8639
I1
s(g1
I462
VpowerManager
p8640
tp8641
I1
s(g1
I280
VmIconUrl
p8642
tp8643
I1
s(g1
I512
Vurl
p8644
tp8645
I1
s(g1
I1849
Vclear
p8646
tp8647
I1
s(g1
I830
VurlDevice
p8648
tp8649
I1
s(g1
I198
Vequals
p8650
tp8651
I1
s(g1
I151
Vtrim
p8652
tp8653
I1
s(g1
I260
VfoundMetadata
p8654
tp8655
I1
s(g1
I715
Vclose
p8656
tp8657
I1
s(g1
I82
VJSONObject
p8658
tp8659
I1
s(g1
I1083
VdefaultValue
p8660
tp8661
I1
s(g1
I215
VUri
p8662
tp8663
I1
s(g1
I1324
Vurl
p8664
tp8665
I1
s(g1
I626
VNotificationManager
p8666
tp8667
I1
s(g1
I751
VmProgress
p8668
tp8669
I1
s(g1
I680
Varray
p8670
tp8671
I1
s(g1
I488
VmSwipeRefreshWidget
p8672
tp8673
I1
s(g1
I657
VpwoResponseCallback
p8674
tp8675
I1
s(g1
I977
VurlMetadata
p8676
tp8677
I1
s(g1
I895
VPwsResult
p8678
tp8679
I1
s(g1
I165
VpopBackStack
p8680
tp8681
I1
s(g1
I724
VmFirstTime
p8682
tp8683
I1
s(g1
I172
VPwsResult
p8684
tp8685
I1
s(g1
I622
VresolveScanPath
p8686
tp8687
I1
s(g1
I345
Vput
p8688
tp8689
I1
s(g1
I985
VIntent
p8690
tp8691
I1
s(g1
I1633
VaddressToMatch
p8692
tp8693
I1
s(g1
I1080
VpwsResultCallback
p8694
tp8695
I1
s(g1
I772
VPwoMetadata
p8696
tp8697
I1
s(g1
I828
VArrays
p8698
tp8699
I1
s(g1
I805
VjsonUrlMetadata
p8700
tp8701
I2
s(g1
I946
VString
p8702
tp8703
I1
s(g1
I37
VView
p8704
tp8705
I1
s(g1
I68
VString
p8706
tp8707
I1
s(g1
I484
VurlGroup1
p8708
tp8709
I1
s(g1
I579
Vkey
p8710
tp8711
I1
s(g1
I891
Vservices
p8712
tp8713
I1
s(g1
I1481
VgetActivity
p8714
tp8715
I1
s(g1
I2174
VfindViewById
p8716
tp8717
I1
s(g1
I484
VurlGroup3
p8718
tp8719
I1
s(g1
I446
VurlString
p8720
tp8721
I1
s(g1
I325
VsiteUrl
p8722
tp8723
I1
s(g1
I339
VurlDevice
p8724
tp8725
I1
s(g1
I365
Vnearest
p8726
tp8727
I1
s(g1
I193
VisLoggable
p8728
tp8729
I1
s(g1
I1031
VmUrlToUrlMetadata
p8730
tp8731
I1
s(g1
I474
VurlGroup3
p8732
tp8733
I1
s(g1
I1065
VList
p8734
tp8735
I1
s(g1
I1799
VsetVisibility
p8736
tp8737
I1
s(g1
I158
Vv
p8738
tp8739
I1
s(g1
I338
VrequestDemoUrlMetadata
p8740
tp8741
I1
s(g1
I107
VgroupId
p8742
tp8743
I1
s(g1
I405
Vbutton
p8744
tp8745
I1
s(g1
I488
VpwsResult
p8746
tp8747
I1
s(g1
I603
VmSwiping
p8748
tp8749
I1
s(g1
I359
VgetNearestAddress
p8750
tp8751
I1
s(g1
I2054
VrankView
p8752
tp8753
I1
s(g1
I391
VmScanningImage
p8754
tp8755
I1
s(g1
I255
VassertFalse
p8756
tp8757
I1
s(g1
I432
VTaskStackBuilder
p8758
tp8759
I1
s(g1
I208
VhttpTransport
p8760
tp8761
I1
s(g1
I368
VmEditCardUrl
p8762
tp8763
I1
s(g1
I511
VjsonObj
p8764
tp8765
I1
s(g1
I63
VstartService
p8766
tp8767
I1
s(g1
I379
VmIsRunning
p8768
tp8769
I1
s(g1
I1739
VstopScan
p8770
tp8771
I1
s(g1
I90
Vid
p8772
tp8773
I1
s(g1
I1268
VmUrlToPwoMetadata
p8774
tp8775
I1
s(g1
I640
ViconUrl
p8776
tp8777
I1
s(g1
I314
Vvalue
p8778
tp8779
I1
s(g1
I85
VBundle
p8780
tp8781
I1
s(g1
I242
VurlDevice
p8782
tp8783
I1
s(g1
I926
Vitem
p8784
tp8785
I2
s(g1
I488
VNearbyBeaconsFragment
p8786
tp8787
I1
s(g1
I57
VpwoDiscoveryCallback
p8788
tp8789
I1
s(g1
I483
Vcontext
p8790
tp8791
I1
s(g1
I1408
Vdescription
p8792
tp8793
I1
s(g1
I434
VmMdnsUrlDiscoverer
p8794
tp8795
I1
s(g1
I133
VsetVisible
p8796
tp8797
I1
s(g1
I622
Vcontext
p8798
tp8799
I1
s(g1
I897
Vposition
p8800
tp8801
I1
s(g1
I131
VbroadcastUrls
p8802
tp8803
I1
s(g1
I296
VmDeviceIdToUrlDeviceMap
p8804
tp8805
I1
s(g1
I827
Vsettings
p8806
tp8807
I1
s(g1
I335
VUtils
p8808
tp8809
I1
s(g1
I2079
VTITLE_KEY
p8810
tp8811
I1
s(g1
I259
VUtils
p8812
tp8813
I1
s(g1
I570
VgetString
p8814
tp8815
I1
s(g1
I254
Vequals
p8816
tp8817
I1
s(g1
I242
VinitializeNearbyDevicesListView
p8818
tp8819
I1
s(g1
I1212
VPreferenceManager
p8820
tp8821
I1
s(g1
I429
VOverride
p8822
tp8823
I1
s(g1
I1022
VpwoMetadataList
p8824
tp8825
I1
s(g1
I69
Vcompare
p8826
tp8827
I1
s(g1
I1318
Ve
p8828
tp8829
I1
s(g1
I824
VAdvertiseData
p8830
tp8831
I1
s(g1
I374
Vuuid
p8832
tp8833
I1
s(g1
I445
VinitializeScanningAnimation
p8834
tp8835
I1
s(g1
I207
VonPostExecute
p8836
tp8837
I1
s(g1
I307
Vbeacon
p8838
tp8839
I1
s(g1
I195
Vmenu
p8840
tp8841
I1
s(g1
I85
Vservice
p8842
tp8843
I1
s(g1
I243
VgetTxPowerLevel
p8844
tp8845
I1
s(g1
I202
VList
p8846
tp8847
I1
s(g1
I552
VjsonUrlMetadata
p8848
tp8849
I1
s(g1
I394
VfinishLoad
p8850
tp8851
I1
s(g1
I71
VSimplePwo
p8852
tp8853
I1
s(g1
I51
Vo1
p8854
tp8855
I1
s(g1
I240
Vequals
p8856
tp8857
I1
s(g1
I263
VmNearbyDeviceAdapter
p8858
tp8859
I1
s(g1
I564
VtranslationX
p8860
tp8861
I1
s(g1
I745
VLog
p8862
tp8863
I1
s(g1
I258
VTITLE1
p8864
tp8865
I1
s(g1
I1104
VsetContentTitle
p8866
tp8867
I1
s(g1
I544
Ve
p8868
tp8869
I1
s(g1
I222
VgetActivity
p8870
tp8871
I1
s(g1
I60
VArrayList
p8872
tp8873
I1
s(g1
I810
VstopScan
p8874
tp8875
I1
s(g1
I628
VonResume
p8876
tp8877
I1
s(g1
I283
Vendpoint
p8878
tp8879
I1
s(g1
I441
VonResume
p8880
tp8881
I1
s(g1
I950
VgetNearestAddress
p8882
tp8883
I1
s(g1
I354
VbroadcastUrl
p8884
tp8885
I1
s(g1
I1743
VDate
p8886
tp8887
I1
s(g1
I208
VPhysicalWebCollection
p8888
tp8889
I1
s(g1
I244
VjsonUrlMetadata
p8890
tp8891
I1
s(g1
I2147
Vformat
p8892
tp8893
I1
s(g1
I157
VPwsResult
p8894
tp8895
I1
s(g1
I287
VsetDescription
p8896
tp8897
I1
s(g1
I1723
VpwoDiscoverer
p8898
tp8899
I1
s(g1
I265
VsetTitle
p8900
tp8901
I1
s(g1
I1893
VgetString
p8902
tp8903
I1
s(g1
I373
VgetFragmentManager
p8904
tp8905
I1
s(g1
I206
VonCancel
p8906
tp8907
I1
s(g1
I307
VgetBytes
p8908
tp8909
I1
s(g1
I825
VgetMainLooper
p8910
tp8911
I1
s(g1
I656
VupdateGroupedPwo
p8912
tp8913
I1
s(g1
I66
VByteArrayInputStream
p8914
tp8915
I1
s(g1
I568
VuuidArray
p8916
tp8917
I1
s(g1
I301
VrootView
p8918
tp8919
I1
s(g1
I660
Vposition
p8920
tp8921
I1
s(g1
I1925
VUrlDeviceDiscoveryService
p8922
tp8923
I1
s(g1
I581
VbyteBuffer
p8924
tp8925
I1
s(g1
I692
VURL
p8926
tp8927
I1
s(g1
I389
VshowNearbyBeaconsFragment
p8928
tp8929
I1
s(g1
I272
VString
p8930
tp8931
I1
s(g1
I245
ViconUrl
p8932
tp8933
I1
s(g1
I411
VonDestroy
p8934
tp8935
I1
s(g1
I108
VRANK2
p8936
tp8937
I1
s(g1
I889
VmHandler
p8938
tp8939
I1
s(g1
I715
VPwPair
p8940
tp8941
I1
s(g1
I1395
VcontainsGroupId
p8942
tp8943
I1
s(g1
I572
Vid
p8944
tp8945
I1
s(g1
I305
VisDemoMode
p8946
tp8947
I1
s(g1
I898
Vitem
p8948
tp8949
I1
s(g1
I567
Vcharacteristic
p8950
tp8951
I1
s(g1
I56
VgetAction
p8952
tp8953
I1
s(g1
I1470
VView
p8954
tp8955
I1
s(g1
I822
VHandler
p8956
tp8957
I1
s(g1
I349
VString
p8958
tp8959
I1
s(g1
I85
Vintent
p8960
tp8961
I1
s(g1
I315
VnewInstance
p8962
tp8963
I1
s(g1
I662
Vkey
p8964
tp8965
I1
s(g1
I1482
VsaveFavorites
p8966
tp8967
I1
s(g1
I232
Vput
p8968
tp8969
I1
s(g1
I221
VpwsEndpoint
p8970
tp8971
I1
s(g1
I87
VonReceive
p8972
tp8973
I1
s(g1
I226
Vmenu
p8974
tp8975
I1
s(g1
I163
VUrlDevice
p8976
tp8977
I1
s(g1
I150
VTest
p8978
tp8979
I1
s(g1
I980
VscanRecord
p8980
tp8981
I1
s(g1
I443
VOverride
p8982
tp8983
I1
s(g1
I476
VtryToStartScanning
p8984
tp8985
I1
s(g1
I606
VFileNotFoundException
p8986
tp8987
I1
s(g1
I827
VmScanCallback
p8988
tp8989
I1
s(g1
I438
VToast
p8990
tp8991
I1
s(g1
I138
VmId
p8992
tp8993
I1
s(g1
I839
Vaddress
p8994
tp8995
I1
s(g1
I615
VID_NOTIFICATION
p8996
tp8997
I1
s(g1
I182
Vport
p8998
tp8999
I1
s(g1
I846
VrxPower
p9000
tp9001
I1
s(g1
I473
VaddExtra
p9002
tp9003
I1
s(g1
I268
Vshow
p9004
tp9005
I1
s(g1
I180
VgetDefaultAdapter
p9006
tp9007
I1
s(g1
I43
VID1
p9008
tp9009
I1
s(g1
I176
VonOptionsItemSelected
p9010
tp9011
I1
s(g1
I250
VresponseUrl
p9012
tp9013
I1
s(g1
I478
VpwsResult
p9014
tp9015
I1
s(g1
I525
VsetVisible
p9016
tp9017
I1
s(g1
I279
VconstructUrlStr
p9018
tp9019
I1
s(g1
I2139
VfindViewById
p9020
tp9021
I1
s(g1
I398
VlongUrl
p9022
tp9023
I1
s(g1
I105
VurlConnection
p9024
tp9025
I1
s(g1
I367
VNotificationManagerCompat
p9026
tp9027
I1
s(g1
I389
VOverride
p9028
tp9029
I1
s(g1
I222
VUrlshortenerRequestInitializer
p9030
tp9031
I1
s(g1
I268
VgetValue
p9032
tp9033
I1
s(g1
I120
VMenu
p9034
tp9035
I1
s(g1
I390
VlocalBinder
p9036
tp9037
I1
s(g1
I828
VasList
p9038
tp9039
I1
s(g1
I1420
VsetTextViewText
p9040
tp9041
I1
s(g1
I242
VUrlDevice
p9042
tp9043
I1
s(g1
I1026
VisNetworkUrl
p9044
tp9045
I1
s(g1
I840
VgetActivity
p9046
tp9047
I1
s(g1
I187
VOverride
p9048
tp9049
I2
s(g1
I1260
VPwoMetadata
p9050
tp9051
I1
s(g1
I104
VIntent
p9052
tp9053
I1
s(g1
I121
VgetString
p9054
tp9055
I1
s(g1
I343
VonCancel
p9056
tp9057
I1
s(g1
I1045
Vi
p9058
tp9059
I1
s(g1
I380
VMdnsPwoDiscoverer
p9060
tp9061
I1
s(g1
I855
VtxPower
p9062
tp9063
I1
s(g1
I622
VintentUri
p9064
tp9065
I1
s(g1
I639
VpowerManager
p9066
tp9067
I1
s(g1
I3952
Vsrc
p9068
tp9069
I1
s(g1
I1683
VmSortedDevices
p9070
tp9071
I1
s(g1
I889
VpostDelayed
p9072
tp9073
I1
s(g1
I383
Vurl
p9074
tp9075
I1
s(g1
I372
Vurls
p9076
tp9077
I1
s(g1
I513
Vurl
p9078
tp9079
I1
s(g1
I44
VsimpleUrlDevice
p9080
tp9081
I1
s(g1
I1041
VUtils
p9082
tp9083
I1
s(g1
I435
VonResume
p9084
tp9085
I1
s(g1
I467
VLog
p9086
tp9087
I1
s(g1
I382
VAnimationDrawable
p9088
tp9089
I1
s(g1
I410
Vequals
p9090
tp9091
I1
s(g1
I200
VjsonObject
p9092
tp9093
I1
s(g1
I1192
VoutGroupMap
p9094
tp9095
I1
s(g1
I959
Venable
p9096
tp9097
I1
s(g1
I151
VmSsdp
p9098
tp9099
I1
s(g1
I43
VURL1
p9100
tp9101
I1
s(g1
I1274
Vaddress
p9102
tp9103
I1
s(g1
I1777
VString
p9104
tp9105
I1
s(g1
I573
VpwoMetadataStr
p9106
tp9107
I1
s(g1
I68
VmGroupId
p9108
tp9109
I1
s(g1
I225
VpwPair
p9110
tp9111
I1
s(g1
I287
VRunnable
p9112
tp9113
I1
s(g1
I415
Vfile
p9114
tp9115
I1
s(g1
I64
VPwo
p9116
tp9117
I1
s(g1
I1011
Vcontext
p9118
tp9119
I1
s(g1
I224
VMdnsUrlDiscoverer
p9120
tp9121
I1
s(g1
I653
VaddBlocked
p9122
tp9123
I1
s(g1
I647
VjsonSerialize
p9124
tp9125
I1
s(g1
I596
VidHash
p9126
tp9127
I1
s(g1
I318
VLog
p9128
tp9129
I1
s(g1
I138
VfindItem
p9130
tp9131
I1
s(g1
I1562
VString
p9132
tp9133
I1
s(g1
I1060
VConfigUriBeacon
p9134
tp9135
I1
s(g1
I1790
VcurrentTimeMillis
p9136
tp9137
I1
s(g1
I925
VNEAREST_BEACON_NOTIFICATION_ID
p9138
tp9139
I1
s(g1
I343
VmNewExtraData
p9140
tp9141
I1
s(g1
I573
VString
p9142
tp9143
I1
s(g1
I216
VIOException
p9144
tp9145
I1
s(g1
I773
VphysicalWebCollection
p9146
tp9147
I1
s(g1
I969
VmNearestDevice
p9148
tp9149
I1
s(g1
I1426
VIBinder
p9150
tp9151
I1
s(g1
I1113
VgetExtraDouble
p9152
tp9153
I1
s(g1
I1845
VUtils
p9154
tp9155
I1
s(g1
I570
VmAnimationTime
p9156
tp9157
I1
s(g1
I912
Venable
p9158
tp9159
I1
s(g1
I215
Vintent
p9160
tp9161
I1
s(g1
I1367
VonResponseReceived
p9162
tp9163
I1
s(g1
I319
Vclear
p9164
tp9165
I1
s(g1
I474
VpwPair3
p9166
tp9167
I1
s(g1
I168
VgetActionBar
p9168
tp9169
I1
s(g1
I210
Vmenu
p9170
tp9171
I2
s(g1
I635
VPowerManager
p9172
tp9173
I1
s(g1
I3954
Vgzis
p9174
tp9175
I1
s(g1
I2005
VmUrlToUrlMetadata
p9176
tp9177
I1
s(g1
I1726
VmPwoDiscoverers
p9178
tp9179
I1
s(g1
I274
Vurl
p9180
tp9181
I2
s(g1
I90
VmId
p9182
tp9183
I1
s(g1
I631
VtxPowerLevel
p9184
tp9185
I1
s(g1
I1799
VtxPower
p9186
tp9187
I1
s(g1
I231
VurlDevice
p9188
tp9189
I1
s(g1
I827
VstartScan
p9190
tp9191
I1
s(g1
I800
VPreferenceManager
p9192
tp9193
I1
s(g1
I1373
VPwPair
p9194
tp9195
I1
s(g1
I2080
VsetText
p9196
tp9197
I1
s(g1
I1018
VpwsEndpoint
p9198
tp9199
I1
s(g1
I214
Vintent
p9200
tp9201
I1
s(g1
I648
VjsonDeserialize
p9202
tp9203
I1
s(g1
I237
VtoString
p9204
tp9205
I1
s(g1
I211
VmdnsUrlDiscovererCallback
p9206
tp9207
I1
s(g1
I1358
Vequals
p9208
tp9209
I1
s(g1
I559
Vmenu
p9210
tp9211
I1
s(g1
I197
VjsonSerialize
p9212
tp9213
I1
s(g1
I212
Vdevice
p9214
tp9215
I1
s(g1
I1010
Vurl
p9216
tp9217
I1
s(g1
I565
Vhas
p9218
tp9219
I1
s(g1
I650
VdeviceMetadata
p9220
tp9221
I1
s(g1
I125
VPwPair
p9222
tp9223
I1
s(g1
I719
VurlString
p9224
tp9225
I1
s(g1
I269
VassertNotEquals
p9226
tp9227
I1
s(g1
I445
VrootView
p9228
tp9229
I1
s(g1
I2380
VoptExtraString
p9230
tp9231
I1
s(g1
I473
VJSONArray
p9232
tp9233
I1
s(g1
I201
Vother
p9234
tp9235
I1
s(g1
I639
VurlDevice
p9236
tp9237
I1
s(g1
I109
Vintent
p9238
tp9239
I1
s(g1
I884
Vid
p9240
tp9241
I1
s(g1
I113
VString
p9242
tp9243
I1
s(g1
I70
VOverride
p9244
tp9245
I1
s(g1
I116
VgetIntent
p9246
tp9247
I1
s(g1
I188
VjsonDeserialize
p9248
tp9249
I1
s(g1
I887
VisRunning
p9250
tp9251
I1
s(g1
I770
VGROUP_ID1
p9252
tp9253
I1
s(g1
I371
Vsettings
p9254
tp9255
I1
s(g1
I1681
VString
p9256
tp9257
I1
s(g1
I202
VcompareTo
p9258
tp9259
I1
s(g1
I1014
VurlDevice
p9260
tp9261
I1
s(g1
I572
VhashCode
p9262
tp9263
I1
s(g1
I589
VmUrlToUrlMetadata
p9264
tp9265
I1
s(g1
I246
VurlDevice2
p9266
tp9267
I1
s(g1
I294
VrootView
p9268
tp9269
I1
s(g1
I316
Vadd
p9270
tp9271
I1
s(g1
I890
VscanRecord
p9272
tp9273
I1
s(g1
I1327
Vurl
p9274
tp9275
I1
s(g1
I449
VkeySet
p9276
tp9277
I1
s(g1
I278
VstartsWith
p9278
tp9279
I1
s(g1
I1167
VURI_SCHEMES
p9280
tp9281
I1
s(g1
I134
VLog
p9282
tp9283
I1
s(g1
I34
VTAG
p9284
tp9285
I1
s(g1
I1006
VString
p9286
tp9287
I2
s(g1
I163
VgetFragmentManager
p9288
tp9289
I1
s(g1
I439
VCharset
p9290
tp9291
I1
s(g1
I654
Vtitle
p9292
tp9293
I1
s(g1
I190
VMenu
p9294
tp9295
I1
s(g1
I301
VmPwPair1
p9296
tp9297
I1
s(g1
I33
VString
p9298
tp9299
I1
s(g1
I306
VpwPair4
p9300
tp9301
I1
s(g1
I472
VphysicalWebCollection
p9302
tp9303
I1
s(g1
I2030
VTextView
p9304
tp9305
I1
s(g1
I167
VrecordResponse
p9306
tp9307
I1
s(g1
I548
VOverride
p9308
tp9309
I1
s(g1
I115
Vintent
p9310
tp9311
I1
s(g1
I950
VmRegionResolver
p9312
tp9313
I1
s(g1
I168
Vother
p9314
tp9315
I1
s(g1
I1424
VclassName
p9316
tp9317
I1
s(g1
I1325
VtxPower
p9318
tp9319
I1
s(g1
I67
Vo1
p9320
tp9321
I1
s(g1
I176
VTest
p9322
tp9323
I1
s(g1
I623
VgetFragmentManager
p9324
tp9325
I1
s(g1
I1822
VpwsTripTimeString
p9326
tp9327
I1
s(g1
I475
VmSwipeRefreshWidget
p9328
tp9329
I1
s(g1
I1157
Voffset
p9330
tp9331
I1
s(g1
I200
Vmenu
p9332
tp9333
I1
s(g1
I1370
VOverride
p9334
tp9335
I1
s(g1
I731
VwebsiteDir
p9336
tp9337
I1
s(g1
I886
Vret
p9338
tp9339
I1
s(g1
I2101
VPreferenceManager
p9340
tp9341
I1
s(g1
I272
VSet
p9342
tp9343
I1
s(g1
I1274
VtxPower
p9344
tp9345
I1
s(g1
I819
VjsonUrlMetadata
p9346
tp9347
I1
s(g1
I1485
VButton
p9348
tp9349
I1
s(g1
I214
VgetApiKey
p9350
tp9351
I1
s(g1
I154
VshowBeaconConfigFragment
p9352
tp9353
I1
s(g1
I408
Vcancel
p9354
tp9355
I1
s(g1
I1831
VstopScan
p9356
tp9357
I1
s(g1
I1025
VmUrlQueue
p9358
tp9359
I1
s(g1
I92
VmIsDemoStarted
p9360
tp9361
I1
s(g1
I480
VmThread
p9362
tp9363
I1
s(g1
I256
VresponseUrl
p9364
tp9365
I1
s(g1
I589
VmPwCollection
p9366
tp9367
I1
s(g1
I496
VjsObjRequest
p9368
tp9369
I1
s(g1
I807
VcreateNavigateToUrlIntent
p9370
tp9371
I1
s(g1
I1043
VPwPair
p9372
tp9373
I1
s(g1
I103
VByteArrayOutputStream
p9374
tp9375
I1
s(g1
I175
VPwPair
p9376
tp9377
I1
s(g1
I272
VmSecondScanTimeout
p9378
tp9379
I1
s(g1
I1220
Vurl
p9380
tp9381
I1
s(g1
I652
VgetString
p9382
tp9383
I1
s(g1
I524
VPwoGroup
p9384
tp9385
I1
s(g1
I538
VuserOptedIn
p9386
tp9387
I1
s(g1
I498
Vput
p9388
tp9389
I1
s(g1
I1102
VString
p9390
tp9391
I1
s(g1
I623
VphysicalWebCollection2
p9392
tp9393
I1
s(g1
I1426
VremoteViews
p9394
tp9395
I1
s(g1
I624
VinitializeLists
p9396
tp9397
I1
s(g1
I81
VJSONObject
p9398
tp9399
I1
s(g1
I66
VID1
p9400
tp9401
I1
s(g1
I103
VinitializeNearbyDevicesListView
p9402
tp9403
I1
s(g1
I1820
VpwsTripTime
p9404
tp9405
I1
s(g1
I1019
VPwPair
p9406
tp9407
I1
s(g1
I1321
Vurl
p9408
tp9409
I1
s(g1
I1546
Vview
p9410
tp9411
I1
s(g1
I273
VjsonUrlMetadata
p9412
tp9413
I1
s(g1
I911
VmScanCallback
p9414
tp9415
I1
s(g1
I917
VpwoMetadata
p9416
tp9417
I1
s(g1
I761
Vexecute
p9418
tp9419
I1
s(g1
I1733
VmScanStartTime
p9420
tp9421
I1
s(g1
I261
VjsonUrlMetadata
p9422
tp9423
I1
s(g1
I47
VSimpleUrlDeviceJsonSerializer
p9424
tp9425
I1
s(g1
I180
VmFailedResolveUrls
p9426
tp9427
I1
s(g1
I30
VPreferenceFragment
p9428
tp9429
I1
s(g1
I829
VRunnable
p9430
tp9431
I1
s(g1
I680
VoptString
p9432
tp9433
I1
s(g1
I101
VcreateUrlDeviceBuilder
p9434
tp9435
I1
s(g1
I331
VsetText
p9436
tp9437
I1
s(g1
I150
VgetItemId
p9438
tp9439
I1
s(g1
I367
VUrlDevice
p9440
tp9441
I1
s(g1
I2488
VJSONException
p9442
tp9443
I1
s(g1
I636
VnotificationManager
p9444
tp9445
I1
s(g1
I76
Vequals
p9446
tp9447
I1
s(g1
I746
VgetFilesDir
p9448
tp9449
I1
s(g1
I444
VString
p9450
tp9451
I1
s(g1
I156
VViewGroup
p9452
tp9453
I1
s(g1
I121
VParcelable
p9454
tp9455
I1
s(g1
I770
Vresult
p9456
tp9457
I1
s(g1
I613
VlistPref
p9458
tp9459
I1
s(g1
I1178
VArrayList
p9460
tp9461
I1
s(g1
I1462
Vnearest
p9462
tp9463
I1
s(g1
I2075
VurlDevice
p9464
tp9465
I1
s(g1
I64
VfindViewById
p9466
tp9467
I1
s(g1
I326
VsetText
p9468
tp9469
I1
s(g1
I36
VSimplePwo
p9470
tp9471
I1
s(g1
I463
VisScreenOn
p9472
tp9473
I1
s(g1
I653
VParcelUuid
p9474
tp9475
I1
s(g1
I1268
VtxPower
p9476
tp9477
I1
s(g1
I60
VmPwoDiscoveryCallback
p9478
tp9479
I1
s(g1
I639
VBroadcastActivity
p9480
tp9481
I1
s(g1
I236
VmSiteUrl
p9482
tp9483
I1
s(g1
I657
VlistView
p9484
tp9485
I1
s(g1
I1805
VpwsTripTime
p9486
tp9487
I1
s(g1
I626
VintentUri
p9488
tp9489
I1
s(g1
I66
VPwoDiscoveryService
p9490
tp9491
I1
s(g1
I838
Vurl
p9492
tp9493
I1
s(g1
I480
VjsonDeserializeWorks
p9494
tp9495
I1
s(g1
I1183
Vurl
p9496
tp9497
I1
s(g1
I1320
VgetAddress
p9498
tp9499
I1
s(g1
I626
Vposition
p9500
tp9501
I1
s(g1
I401
VSettingsFragment
p9502
tp9503
I1
s(g1
I146
VfindItem
p9504
tp9505
I1
s(g1
I361
Vview
p9506
tp9507
I1
s(g1
I44
VmType
p9508
tp9509
I1
s(g1
I745
Vd
p9510
tp9511
I1
s(g1
I1399
VsetSmallIcon
p9512
tp9513
I1
s(g1
I192
VMenu
p9514
tp9515
I2
s(g1
I832
VUnsupportedOperationException
p9516
tp9517
I1
s(g1
I937
Vitem
p9518
tp9519
I1
s(g1
I2080
VtxPowerView
p9520
tp9521
I1
s(g1
I89
VpwPair1
p9522
tp9523
I1
s(g1
I193
Vhash
p9524
tp9525
I1
s(g1
I1924
Vurl
p9526
tp9527
I1
s(g1
I714
VgetTime
p9528
tp9529
I1
s(g1
I1437
VremoteViews
p9530
tp9531
I1
s(g1
I1914
VPendingIntent
p9532
tp9533
I1
s(g1
I614
VpIntent
p9534
tp9535
I1
s(g1
I798
VgetUriString
p9536
tp9537
I1
s(g1
I1491
Vicon
p9538
tp9539
I1
s(g1
I296
VmPwPair1
p9540
tp9541
I1
s(g1
I379
Vuuid
p9542
tp9543
I1
s(g1
I207
VcachedDistances
p9544
tp9545
I1
s(g1
I534
VDATA_LENGTH_MAX
p9546
tp9547
I1
s(g1
I587
Vkey
p9548
tp9549
I1
s(g1
I175
VassertEquals
p9550
tp9551
I1
s(g1
I589
VPreference
p9552
tp9553
I1
s(g1
I1121
Vclear
p9554
tp9555
I1
s(g1
I385
Vreplace
p9556
tp9557
I1
s(g1
I362
VmThirdScanTimeout
p9558
tp9559
I1
s(g1
I843
VurlDevice
p9560
tp9561
I1
s(g1
I234
VTest
p9562
tp9563
I1
s(g1
I638
VPowerManager
p9564
tp9565
I1
s(g1
I2380
VTYPE_KEY
p9566
tp9567
I1
s(g1
I437
VmNearbyDeviceAdapter
p9568
tp9569
I1
s(g1
I278
VHashSet
p9570
tp9571
I1
s(g1
I743
VFile
p9572
tp9573
I1
s(g1
I96
VOverride
p9574
tp9575
I1
s(g1
I851
VbeaconData
p9576
tp9577
I1
s(g1
I185
VUrlGroup
p9578
tp9579
I1
s(g1
I210
VmakeText
p9580
tp9581
I1
s(g1
I156
VgetId
p9582
tp9583
I1
s(g1
I341
VmScanningImageView
p9584
tp9585
I1
s(g1
I2085
VrssiView
p9586
tp9587
I1
s(g1
I657
Vd
p9588
tp9589
I1
s(g1
I180
VBluetoothAdapter
p9590
tp9591
I1
s(g1
I1529
Vview
p9592
tp9593
I1
s(g1
I401
VmNotificationManager
p9594
tp9595
I1
s(g1
I855
Vcontext
p9596
tp9597
I1
s(g1
I542
Vresources
p9598
tp9599
I1
s(g1
I945
VIntent
p9600
tp9601
I1
s(g1
I83
Vprotected
p9602
tp9603
I8
s(g1
I307
VgetUrl
p9604
tp9605
I1
s(g1
I417
VsetColorSchemeResources
p9606
tp9607
I1
s(g1
I440
VtryToStartScanning
p9608
tp9609
I1
s(g1
I313
VurlDevices
p9610
tp9611
I1
s(g1
I70
g292
tp9612
I34
s(g1
I302
VgetCurrentPwsEndpoint
p9613
tp9614
I1
s(g1
I145
VObject
p9615
tp9616
I1
s(g1
I1173
VuriBeacon
p9617
tp9618
I1
s(g1
I85
VString
p9619
tp9620
I1
s(g1
I91
VurlConnection
p9621
tp9622
I1
s(g1
I149
VreadInputStream
p9623
tp9624
I1
s(g1
I409
VgetScanStartTime
p9625
tp9626
I1
s(g1
I450
VgetActivity
p9627
tp9628
I1
s(g1
I178
VpwsResult3
p9629
tp9630
I1
s(g1
I132
VassertEquals
p9631
tp9632
I1
s(g1
I127
VJSONObject
p9633
tp9634
I1
s(g1
I812
VoptString
p9635
tp9636
I1
s(g1
I827
Vurl
p9637
tp9638
I1
s(g1
I611
Vview
p9639
tp9640
I1
s(g1
I188
VPwsResult
p9641
tp9642
I2
s(g1
I99
VIOException
p9643
tp9644
I1
s(g1
I300
VmBroadcastUrlToPwsResultMap
p9645
tp9646
I1
s(g1
I164
VpwsResultCallback
p9647
tp9648
I1
s(g1
I193
VassertEquals
p9649
tp9650
I1
s(g1
I190
VgetRank
p9651
tp9652
I1
s(g1
I106
VgetTopPair
p9653
tp9654
I1
s(g1
I181
VbluetoothAdapter
p9655
tp9656
I1
s(g1
I551
VcontentTitle
p9657
tp9658
I1
s(g1
I203
VcompareValue
p9659
tp9660
I1
s(g1
I1354
ValphaAnimation
p9661
tp9662
I1
s(g1
I683
Vkey
p9663
tp9664
I1
s(g1
I154
Vmenu
p9665
tp9666
I1
s(g1
I141
Vresult
p9667
tp9668
I2
s(g1
I1813
Vview
p9669
tp9670
I1
s(g1
I527
VrequestCode
p9671
tp9672
I1
s(g1
I784
VsetVisible
p9673
tp9674
I1
s(g1
I106
VonCreate
p9675
tp9676
I1
s(g1
I258
Vurlshortener
p9677
tp9678
I1
s(g1
I1067
VshortenUrl
p9679
tp9680
I1
s(g1
I119
Vid
p9681
tp9682
I1
s(g1
I928
Vclear
p9683
tp9684
I1
s(g1
I637
Vget
p9685
tp9686
I1
s(g1
I293
VEddystoneBeacon
p9687
tp9688
I1
s(g1
I193
VcachedDistances
p9689
tp9690
I1
s(g1
I341
VisUrlFrameTest
p9691
tp9692
I1
s(g1
I741
VmContext
p9693
tp9694
I1
s(g1
I339
Vput
p9695
tp9696
I1
s(g1
I178
VassertNotEquals
p9697
tp9698
I1
s(g1
I403
VmFileBroadcastServer
p9699
tp9700
I1
s(g1
I58
VURL1
p9701
tp9702
I1
s(g1
I214
Vprogress
p9703
tp9704
I1
s(g1
I187
VgetRank
p9705
tp9706
I1
s(g1
I169
VgetRequestUrl
p9707
tp9708
I1
s(g1
I227
VgetString
p9709
tp9710
I1
s(g1
I583
Vmenu
p9711
tp9712
I1
s(g1
I227
VHashMap
p9713
tp9714
I1
s(g1
I1351
VrequestID
p9715
tp9716
I1
s(g1
I165
VopenConnection
p9717
tp9718
I1
s(g1
I218
Vinitialize
p9719
tp9720
I1
s(g1
I143
VSsdp
p9721
tp9722
I1
s(g1
I993
VpwoMetadata
p9723
tp9724
I1
s(g1
I577
VformatEndpointForSharedPrefernces
p9725
tp9726
I1
s(g1
I1108
VpwsResult
p9727
tp9728
I1
s(g1
I540
VmData
p9729
tp9730
I1
s(g1
I1207
VtxPower
p9731
tp9732
I1
s(g1
I352
Vreason
p9733
tp9734
I1
s(g1
I363
VmEditCardUrl
p9735
tp9736
I1
s(g1
I192
VToast
p9737
tp9738
I1
s(g1
I234
Vrhs
p9739
tp9740
I1
s(g1
I72
VmJsonObject
p9741
tp9742
I1
s(g1
I565
VjsonUrlMetadata
p9743
tp9744
I1
s(g1
I276
VjsonUrlMetadata
p9745
tp9746
I1
s(g1
I833
VpwsClient
p9747
tp9748
I1
s(g1
I663
VbitmapData
p9749
tp9750
I1
s(g1
I972
Vurl
p9751
tp9752
I1
s(g1
I1332
Vcontext
p9753
tp9754
I1
s(g1
I3948
VGZIPInputStream
p9755
tp9756
I1
s(g1
I316
Vbytes
p9757
tp9758
I1
s(g1
I49
VPwoDiscoveryService
p9759
tp9760
I1
s(g1
I483
VuriServiceData
p9761
tp9762
I1
s(g1
I323
VmShareUrl
p9763
tp9764
I1
s(g1
I493
Vd
p9765
tp9766
I1
s(g1
I1001
VmConfigurableBeaconAddressTextView
p9767
tp9768
I1
s(g1
I206
VgetId
p9769
tp9770
I1
s(g1
I604
VdeserializedCollection
p9771
tp9772
I1
s(g1
I1392
VgetBitmapIcon
p9773
tp9774
I1
s(g1
I302
Vcontext
p9775
tp9776
I1
s(g1
I1226
VmUrlToUrlMetadata
p9777
tp9778
I1
s(g1
I284
VmIconUrlToIconMap
p9779
tp9780
I1
s(g1
I510
VsetVisible
p9781
tp9782
I1
s(g1
I454
VgetSystemService
p9783
tp9784
I1
s(g1
I313
VInteger
p9785
tp9786
I1
s(g1
I495
VEddystoneBeacon
p9787
tp9788
I1
s(g1
I1039
VPwPair
p9789
tp9790
I1
s(g1
I1791
VdeviceAddress
p9791
tp9792
I1
s(g1
I301
VToast
p9793
tp9794
I1
s(g1
I74
VurlDevice1
p9795
tp9796
I1
s(g1
I627
VDEMO_RESOLVE_SCAN_PATH
p9797
tp9798
I1
s(g1
I1553
VdescriptionTextView
p9799
tp9800
I1
s(g1
I1692
VString
p9801
tp9802
I1
s(g1
I379
VBluetoothLeScannerCompatProvider
p9803
tp9804
I1
s(g1
I2355
Vtype
p9805
tp9806
I1
s(g1
I568
VresultIntent
p9807
tp9808
I1
s(g1
I558
Vdescription
p9809
tp9810
I1
s(g1
I38
VpwsResult
p9811
tp9812
I1
s(g1
I496
VfindFragmentByTag
p9813
tp9814
I1
s(g1
I15
VString
p9815
tp9816
I2
s(g1
I367
VString
p9817
tp9818
I1
s(g1
I472
VpwsEndpoint
p9819
tp9820
I1
s(g1
I567
VPhysicalWebCollection
p9821
tp9822
I1
s(g1
I394
Vpos
p9823
tp9824
I1
s(g1
I191
VmRequestUrl
p9825
tp9826
I1
s(g1
I356
VonFailure
p9827
tp9828
I1
s(g1
I1118
Vadd
p9829
tp9830
I1
s(g1
I729
VmakeText
p9831
tp9832
I1
s(g1
I365
Vaddress
p9833
tp9834
I1
s(g1
I400
Vfrom
p9835
tp9836
I1
s(g1
I180
VassertEquals
p9837
tp9838
I1
s(g1
I301
VpwPair3
p9839
tp9840
I1
s(g1
I105
VOverride
p9841
tp9842
I1
s(g1
I152
VresponseCode
p9843
tp9844
I2
s(g1
I390
VDATA_ONE
p9845
tp9846
I1
s(g1
I35
Vpreferences_key
p9847
tp9848
I2
s(g1
I116
VUtils
p9849
tp9850
I1
s(g1
I290
VICON_URL1
p9851
tp9852
I1
s(g1
I244
VsetTxPower
p9853
tp9854
I1
s(g1
I245
VICONURL_KEY
p9855
tp9856
I1
s(g1
I418
VreasonCode
p9857
tp9858
I1
s(g1
I2164
VNearbyBeaconsFragment
p9859
tp9860
I1
s(g1
I1049
VPwsClient
p9861
tp9862
I1
s(g1
I351
VmTitle
p9863
tp9864
I1
s(g1
I386
VScanFilter
p9865
tp9866
I1
s(g1
I269
Vrun
p9867
tp9868
I1
s(g1
I158
Vcontainer
p9869
tp9870
I1
s(g1
I270
VgetString
p9871
tp9872
I1
s(g1
I86
VPwsResult
p9873
tp9874
I1
s(g1
I812
Vintent
p9875
tp9876
I1
s(g1
I145
VstartTime
p9877
tp9878
I1
s(g1
I135
VconstructorCreatesProperObject
p9879
tp9880
I1
s(g1
I556
VsetContentTitle
p9881
tp9882
I1
s(g1
I351
VgetRegionResolver
p9883
tp9884
I1
s(g1
I568
Vvalue
p9885
tp9886
I1
s(g1
I408
VPhysicalWebCollectionException
p9887
tp9888
I1
s(g1
I1396
VgetCount
p9889
tp9890
I1
s(g1
I1118
VcreateNavigateToUrlPendingIntent
p9891
tp9892
I1
s(g1
I599
Vcontext
p9893
tp9894
I1
s(g1
I91
VmIsDemoStarted
p9895
tp9896
I1
s(g1
I312
VIntent
p9897
tp9898
I1
s(g1
I833
Vurl
p9899
tp9900
I1
s(g1
I60
VString
p9901
tp9902
I1
s.