(dp0
(Vinsert
p1
I74
VParameterizedType: List<Class<? extends Throwable>>
p2
tp3
I2
s(Vinsert
p4
I43
VSimpleType: CollapsedRequest
p5
tp6
I9
s(Vinsert
p7
I42
VSimpleName: keyGenerator
p8
tp9
I1
s(Vinsert
p10
I42
VSimpleName: groupKey
p11
tp12
I6
s(Vinsert
p13
I43
VSimpleType: Applications
p14
tp15
I1
s(Vinsert
p16
I66
VTextElement: where the definition of a collapser may change. It is not thread-safe and should
p17
tp18
I1
s(Vinsert
p19
I42
VSimpleName: testGetSetGetUserCache_givenOneCommandAndOneMethodAnnotatedWithCacheRemove
p20
tp21
I1
s(Vinsert
p22
I42
VSimpleName: secondPublisher
p23
tp24
I1
s(Vinsert
p25
I43
VSimpleType: EurekaServiceInfo
p26
tp27
I2
s(Vinsert
p28
I42
VSimpleName: executionLatency
p29
tp30
I4
s(Vinsert
p31
I43
VSimpleType: CompositeSubscription
p32
tp33
I1
s(Vinsert
p34
I40
VQualifiedName: HystrixEventType.FAILURE
p35
tp36
I2
s(Vinsert
p37
I40
VQualifiedName: rx.Observer
p38
tp39
I1
s(Vinsert
p40
I42
VSimpleName: collapserMethodReturnType
p41
tp42
I2
s(Vinsert
p43
I45
VStringLiteral: " "
p44
tp45
I1
s(Vinsert
p46
I27
VInfixExpression: +
p47
tp48
I42
s(Vinsert
p49
I42
VSimpleName: withMetricsHealthSnapshotIntervalInMilliseconds
p50
tp51
I2
s(Vinsert
p52
I42
VSimpleName: TestHystrixCommand
p53
tp54
I5
s(Vinsert
p55
I42
VSimpleName: getSingleUserWithRxFallback
p56
tp57
I1
s(Vinsert
p58
I42
VSimpleName: path
p59
tp60
I3
s(Vinsert
p61
I42
VSimpleName: metricsRollingStatisticalWindowBuckets
p62
tp63
I1
s(Vinsert
p64
I42
VSimpleName: HystrixInvokableInfo
p65
tp66
I14
s(Vinsert
p67
I42
VSimpleName: ThreadFactory
p68
tp69
I2
s(Vinsert
p70
I43
VSimpleType: HystrixThreadPoolConfiguration
p71
tp72
I2
s(Vinsert
p73
I42
VSimpleName: LinkedList
p74
tp75
I1
s(Vinsert
p76
I42
VSimpleName: u3
p77
tp78
I1
s(Vinsert
p79
I43
VSimpleType: Throwable
p80
tp81
I37
s(Vinsert
p82
I42
VSimpleName: getUserByEmail
p83
tp84
I1
s(Vinsert
p85
I43
VSimpleType: ObservableClosureFactory
p86
tp87
I1
s(Vinsert
p88
I40
VQualifiedName: HystrixEventType.TIMEOUT
p89
tp90
I3
s(Vinsert
p91
I43
VSimpleType: ServerSentEvent
p92
tp93
I1
s(Vinsert
p94
I43
VSimpleType: AsyncClosureFactory
p95
tp96
I1
s(Vinsert
p97
I74
VParameterizedType: Observable<R>
p98
tp99
I1
s(Vinsert
p100
I43
VSimpleType: RequestCollapser
p101
tp102
I1
s(Vinsert
p103
I42
VSimpleName: poll
p104
tp105
I1
s(Vinsert
p106
I66
VTextElement: Whether the response received was a fallback as result of being rejected via sempahore
p107
tp108
I1
s(Vinsert
p109
I42
VSimpleName: println
p110
tp111
I57
s(Vinsert
p112
I42
VSimpleName: RequestArgumentType
p113
tp114
I10
s(Vinsert
p115
I42
VSimpleName: HystrixThreadPoolKey
p116
tp117
I11
s(Vinsert
p118
I45
VStringLiteral: "failed waiting on threads"
p119
tp120
I1
s(Vinsert
p121
I42
VSimpleName: oldHead
p122
tp123
I1
s(Vinsert
p124
I42
VSimpleName: setCharacterEncoding
p125
tp126
I1
s(Vinsert
p127
I43
VSimpleType: RequestArgumentType
p128
tp129
I10
s(Vinsert
p130
I42
VSimpleName: expectedIds
p131
tp132
I1
s(Vinsert
p133
I42
VSimpleName: readCommandStream
p134
tp135
I1
s(Vinsert
p136
I42
VSimpleName: keyParameters
p137
tp138
I1
s(Vinsert
p139
I83
VModifier: protected
p140
tp141
I25
s(Vinsert
p142
I34
VNumberLiteral: 951442
p143
tp144
I1
s(Vinsert
p145
I40
VQualifiedName: cmd.threadPool
p146
tp147
I1
s(Vinsert
p148
I43
VSimpleType: RuntimeException
p149
tp150
I14
s(Vinsert
p151
I43
VSimpleType: DynamicIntProperty
p152
tp153
I7
s(Vinsert
p154
I42
VSimpleName: totalLatency
p155
tp156
I3
s(Vinsert
p157
I42
VSimpleName: finallyDo
p158
tp159
I1
s(Vinsert
p160
I45
VStringLiteral: "RemoteServiceX"
p161
tp162
I1
s(Vinsert
p163
I45
VStringLiteral: "commandThrowsHystrixBadRequestExceptionWithNoCause"
p164
tp165
I1
s(Vinsert
p166
I40
VQualifiedName: command.builder.executionHook.executionSequence
p167
tp168
I3
s(Vinsert
p169
I42
VSimpleName: getUserByIdWithFallback
p170
tp171
I2
s(Vinsert
p172
I42
VSimpleName: startWith
p173
tp174
I1
s(Vinsert
p175
I42
VSimpleName: getDeclaredMethods
p176
tp177
I1
s(Vinsert
p178
I66
VTextElement: s that have been registered
p179
tp180
I2
s(Vinsert
p181
I42
VSimpleName: de
p182
tp183
I5
s(Vinsert
p184
I42
VSimpleName: observeJson
p185
tp186
I2
s(Vinsert
p187
I42
VSimpleName: mapper
p188
tp189
I1
s(Vinsert
p190
I42
VSimpleName: IllegalArgumentException
p191
tp192
I4
s(Vinsert
p193
I40
VQualifiedName: HystrixRollingNumberEvent.BAD_REQUEST
p194
tp195
I3
s(Vinsert
p196
I43
VSimpleType: BasicCollapserPropertiesTest
p197
tp198
I1
s(Vinsert
p199
I45
VStringLiteral: "  ActualFuture: "
p200
tp201
I1
s(Vinsert
p202
I49
VSwitchCase
p203
tp204
I7
s(Vinsert
p205
I42
VSimpleName: currentList
p206
tp207
I1
s(Vinsert
p208
I55
VTypeDeclaration
p209
tp210
I4
s(Vinsert
p211
I43
VSimpleType: AtomicBoolean
p212
tp213
I5
s(Vinsert
p214
I42
VSimpleName: rh
p215
tp216
I2
s(Vinsert
p217
I42
VSimpleName: account
p218
tp219
I1
s(Vinsert
p220
I66
VTextElement: Delegates to the wrapped 
p221
tp222
I1
s(Vinsert
p223
I42
VSimpleName: getAjcMethod
p224
tp225
I4
s(Vinsert
p226
I43
VSimpleType: FallbackDefinitionException
p227
tp228
I1
s(Vinsert
p229
I42
VSimpleName: dynamicCoreSize
p230
tp231
I3
s(Vinsert
p232
I42
VSimpleName: pop
p233
tp234
I1
s(Vinsert
p235
I42
VSimpleName: defaultException
p236
tp237
I2
s(Vinsert
p238
I42
VSimpleName: print
p239
tp240
I5
s(Vinsert
p241
I42
VSimpleName: commandActionExecutionException
p242
tp243
I1
s(Vinsert
p244
I42
VSimpleName: NotFoundException
p245
tp246
I3
s(Vinsert
p247
I42
VSimpleName: extendedFallback
p248
tp249
I1
s(Vinsert
p250
I76
VWildcardType: ? super T
p251
tp252
I2
s(Vinsert
p253
I42
VSimpleName: user
p254
tp255
I12
s(Vinsert
p256
I42
VSimpleName: toList
p257
tp258
I1
s(Vinsert
p259
I45
VStringLiteral: "batchSize"
p260
tp261
I1
s(Vinsert
p262
I43
VSimpleType: AbstractHystrixCommand
p263
tp264
I2
s(Vinsert
p265
I42
VSimpleName: getCommandActions
p266
tp267
I1
s(Vinsert
p268
I42
VSimpleName: streamingThread
p269
tp270
I1
s(Vinsert
p271
I42
VSimpleName: getArgs
p272
tp273
I2
s(Vinsert
p274
I42
VSimpleName: s
p275
tp276
I11
s(Vinsert
p277
I42
VSimpleName: getCurrentQueueSize
p278
tp279
I1
s(Vinsert
p280
I66
VTextElement: Use the HttpCookie value as the cacheKey so multiple executions
p281
tp282
I1
s(Vinsert
p283
I42
VSimpleName: isOpen
p284
tp285
I2
s(Vinsert
p286
I42
VSimpleName: set
p287
tp288
I18
s(Vinsert
p289
I42
VSimpleName: getCacheRemoveInvocationContext
p290
tp291
I1
s(Vinsert
p292
I42
VSimpleName: HystrixCommandEventStream
p293
tp294
I4
s(Vinsert
p295
I86
VLambdaExpression
p296
tp297
I2
s(Vinsert
p298
I43
VSimpleType: Collection
p299
tp300
I8
s(Vinsert
p301
I42
VSimpleName: Nullable
p302
tp303
I1
s(Vinsert
p304
I42
VSimpleName: remove
p305
tp306
I3
s(Vinsert
p307
I42
VSimpleName: cb
p308
tp309
I7
s(Vinsert
p310
I42
VSimpleName: args
p311
tp312
I21
s(Vinsert
p313
I42
VSimpleName: Subscriber
p314
tp315
I9
s(Vinsert
p316
I43
VSimpleType: HystrixCachingException
p317
tp318
I1
s(Vinsert
p319
I42
VSimpleName: testGetUserDefaultPropertiesValues
p320
tp321
I1
s(Vinsert
p322
I42
VSimpleName: executionResult
p323
tp324
I19
s(Vinsert
p325
I74
VParameterizedType: Reference<TimerListener>
p326
tp327
I1
s(Vinsert
p328
I45
VStringLiteral: "latencyTotal_percentile_25"
p329
tp330
I1
s(Vinsert
p331
I42
VSimpleName: sample
p332
tp333
I2
s(Vinsert
p334
I42
VSimpleName: requestCachingEnabled
p335
tp336
I1
s(Vinsert
p337
I42
VSimpleName: HystrixEventCounter
p338
tp339
I3
s(Vinsert
p340
I42
VSimpleName: SerialHystrixRequestEvents
p341
tp342
I1
s(Vinsert
p343
I42
VSimpleName: ClassNotFoundException
p344
tp345
I2
s(Vinsert
p346
I45
VStringLiteral: "1"
p347
tp348
I5
s(Vinsert
p349
I43
VSimpleType: TypeVariable
p350
tp351
I3
s(Vinsert
p352
I42
VSimpleName: getCommandKey
p353
tp354
I10
s(Vinsert
p355
I74
VParameterizedType: Subscriber<? super User>
p356
tp357
I1
s(Vinsert
p358
I74
VParameterizedType: Future<?>
p359
tp360
I2
s(Vinsert
p361
I45
VStringLiteral: "timed out before executing run()"
p362
tp363
I1
s(Vinsert
p364
I42
VSimpleName: finalize
p365
tp366
I1
s(Vinsert
p367
I42
VSimpleName: currentBatch
p368
tp369
I1
s(Vinsert
p370
I42
VSimpleName: split
p371
tp372
I2
s(Vinsert
p373
I40
VQualifiedName: command.builder.executionHook.startRun
p374
tp375
I2
s(Vinsert
p376
I42
VSimpleName: HystrixCollapser
p377
tp378
I2
s(Vinsert
p379
I45
VStringLiteral: "50"
p380
tp381
I2
s(Vinsert
p382
I34
VNumberLiteral: 951591
p383
tp384
I1
s(Vinsert
p385
I40
VQualifiedName: CommandState.USER_CODE_EXECUTED
p386
tp387
I1
s(Vinsert
p388
I42
VSimpleName: getActualMaximumSize
p389
tp390
I2
s(Vinsert
p391
I42
VSimpleName: share
p392
tp393
I4
s(Vinsert
p394
I42
VSimpleName: ERROR_MSF_TEMPLATE
p395
tp396
I1
s(Vinsert
p397
I42
VSimpleName: rejected1
p398
tp399
I1
s(Vinsert
p400
I42
VSimpleName: emitExpected
p401
tp402
I1
s(Vinsert
p403
I42
VSimpleName: value
p404
tp405
I32
s(Vinsert
p406
I42
VSimpleName: WeavingMode
p407
tp408
I1
s(Vinsert
p409
I43
VSimpleType: BasicCacheTest
p410
tp411
I1
s(Vinsert
p412
I42
VSimpleName: HealthCountsStream
p413
tp414
I3
s(Vinsert
p415
I42
VSimpleName: cumulativeCounterStream
p416
tp417
I1
s(Vinsert
p418
I42
VSimpleName: HystrixConcurrencyStrategy
p419
tp420
I2
s(Vinsert
p421
I40
VQualifiedName: self.metrics
p422
tp423
I2
s(Vinsert
p424
I40
VQualifiedName: command.builder.metrics
p425
tp426
I10
s(Vinsert
p427
I43
VSimpleType: Class
p428
tp429
I16
s(Vinsert
p430
I42
VSimpleName: PrimaryCommand
p431
tp432
I1
s(Vinsert
p433
I42
VSimpleName: getRollingCount
p434
tp435
I40
s(Vinsert
p436
I42
VSimpleName: tType
p437
tp438
I2
s(Vinsert
p439
I45
VStringLiteral: "Unable to record command starting"
p440
tp441
I1
s(Vinsert
p442
I42
VSimpleName: CBORParser
p443
tp444
I1
s(Vinsert
p445
I40
VQualifiedName: ThreadPoolKeyForUnitTest.THREAD_POOL_ONE
p446
tp447
I1
s(Vinsert
p448
I42
VSimpleName: defer
p449
tp450
I8
s(Vinsert
p451
I42
VSimpleName: ids
p452
tp453
I2
s(Vinsert
p454
I45
VStringLiteral: "static access to HystrixRequestLog should fail and throw"
p455
tp456
I1
s(Vinsert
p457
I42
VSimpleName: getCurrentConcurrentExecutionCount
p458
tp459
I9
s(Vinsert
p460
I42
VSimpleName: newPublisher
p461
tp462
I1
s(Vinsert
p463
I42
VSimpleName: computation
p464
tp465
I3
s(Vinsert
p466
I79
VSingleMemberAnnotation
p467
tp468
I2
s(Vinsert
p469
I42
VSimpleName: POOL_SIZE
p470
tp471
I1
s(Vinsert
p472
I42
VSimpleName: queueSize
p473
tp474
I1
s(Vinsert
p475
I11
VCastExpression
p476
tp477
I28
s(Vinsert
p478
I42
VSimpleName: CommandAction
p479
tp480
I4
s(Vinsert
p481
I42
VSimpleName: executeSimulatedUserRequestForOrderConfirmationAndCreditCardPayment
p482
tp483
I2
s(Vinsert
p484
I43
VSimpleType: com.netflix.hystrix.util.HystrixTimer.TimerListener
p485
tp486
I1
s(Vinsert
p487
I42
VSimpleName: typeId
p488
tp489
I1
s(Vinsert
p490
I42
VSimpleName: delay
p491
tp492
I2
s(Vinsert
p493
I42
VSimpleName: currentRequestContext
p494
tp495
I2
s(Vinsert
p496
I40
VQualifiedName: command.builder.executionHook.startFallback
p497
tp498
I2
s(Vinsert
p499
I42
VSimpleName: userService
p500
tp501
I13
s(Vinsert
p502
I42
VSimpleName: getMethodFromTarget
p503
tp504
I1
s(Vinsert
p505
I42
VSimpleName: isResponseFromCache
p506
tp507
I2
s(Vinsert
p508
I42
VSimpleName: Lists
p509
tp510
I2
s(Vinsert
p511
I42
VSimpleName: parameterTypes
p512
tp513
I2
s(Vinsert
p514
I42
VSimpleName: Boolean
p515
tp516
I44
s(Vinsert
p517
I42
VSimpleName: UrlUtils
p518
tp519
I1
s(Vinsert
p520
I42
VSimpleName: window
p521
tp522
I10
s(Vinsert
p523
I42
VSimpleName: isResponseFromFallback
p524
tp525
I3
s(Vinsert
p526
I42
VSimpleName: Collections
p527
tp528
I3
s(Vinsert
p529
I42
VSimpleName: workQueue
p530
tp531
I2
s(Vinsert
p532
I43
VSimpleType: CommandHelloWorld
p533
tp534
I1
s(Vinsert
p535
I42
VSimpleName: getCommandConfig
p536
tp537
I1
s(Vinsert
p538
I43
VSimpleType: Observer
p539
tp540
I2
s(Vinsert
p541
I42
VSimpleName: expectedEventTypes
p542
tp543
I1
s(Vinsert
p544
I42
VSimpleName: createCacheKeyAction
p545
tp546
I1
s(Vinsert
p547
I43
VSimpleType: CommandThatFailsFast
p548
tp549
I1
s(Vinsert
p550
I18
VContinueStatement
p551
tp552
I1
s(Vinsert
p553
I42
VSimpleName: evenSplitOfWritesAndReadsCommandExecution
p554
tp555
I1
s(Vinsert
p556
I42
VSimpleName: payloads2
p557
tp558
I3
s(Vinsert
p559
I42
VSimpleName: TestListener
p560
tp561
I1
s(Vinsert
p562
I42
VSimpleName: propertiesBuilder
p563
tp564
I1
s(Vinsert
p565
I43
VSimpleType: CachedValuesHistogram
p566
tp567
I1
s(Vinsert
p568
I43
VSimpleType: Call
p569
tp570
I1
s(Vinsert
p571
I42
VSimpleName: BasicObservableErrorPropagationTest
p572
tp573
I1
s(Vinsert
p574
I61
VWhileStatement
p575
tp576
I3
s(Vinsert
p577
I45
VStringLiteral: "HystrixRequestLog.getCurrentRequest().getAllExecutedCommands(): "
p578
tp579
I1
s(Vinsert
p580
I43
VSimpleType: HystrixEventType.Collapser
p581
tp582
I2
s(Vinsert
p583
I42
VSimpleName: skip
p584
tp585
I1
s(Vinsert
p586
I66
VTextElement:  Number
p587
tp588
I1
s(Vinsert
p589
I45
VStringLiteral: "countFallbackMissing"
p590
tp591
I1
s(Vinsert
p592
I42
VSimpleName: getWriter
p593
tp594
I2
s(Vinsert
p595
I42
VSimpleName: percentile
p596
tp597
I10
s(Vinsert
p598
I42
VSimpleName: byteArray
p599
tp600
I1
s(Vinsert
p601
I42
VSimpleName: getClass
p602
tp603
I23
s(Vinsert
p604
I42
VSimpleName: getCommandCount
p605
tp606
I2
s(Vinsert
p607
I43
VSimpleType: Inner
p608
tp609
I2
s(Vinsert
p610
I42
VSimpleName: cacheResultInvocationContext
p611
tp612
I2
s(Vinsert
p613
I42
VSimpleName: OutOfMemoryError
p614
tp615
I1
s(Vinsert
p616
I42
VSimpleName: getAutowireCapableBeanFactory
p617
tp618
I1
s(Vinsert
p619
I42
VSimpleName: recordValue
p620
tp621
I2
s(Vinsert
p622
I66
VTextElement: 4) rejection
p623
tp624
I1
s(Vinsert
p625
I40
VQualifiedName: FailureType.BAD_REQUEST_EXCEPTION
p626
tp627
I1
s(Vinsert
p628
I43
VSimpleType: HystrixCommandEventStream
p629
tp630
I1
s(Vinsert
p631
I42
VSimpleName: CacheInvocationParameter
p632
tp633
I3
s(Vinsert
p634
I42
VSimpleName: getExecutor
p635
tp636
I1
s(Vinsert
p637
I42
VSimpleName: hasFallbackMethodCommand
p638
tp639
I1
s(Vinsert
p640
I42
VSimpleName: MAX_STORAGE
p641
tp642
I1
s(Vinsert
p643
I34
VNumberLiteral: 2000
p644
tp645
I2
s(Vinsert
p646
I42
VSimpleName: existingStream
p647
tp648
I9
s(Vinsert
p649
I42
VSimpleName: getBuilder
p650
tp651
I8
s(Vinsert
p652
I42
VSimpleName: CommandFallbackTest
p653
tp654
I1
s(Vinsert
p655
I74
VParameterizedType: Subscriber<CreditCardAuthorizationResult>
p656
tp657
I1
s(Vinsert
p658
I42
VSimpleName: HystrixContextScheduler
p659
tp660
I6
s(Vinsert
p661
I42
VSimpleName: Subject
p662
tp663
I1
s(Vinsert
p664
I42
VSimpleName: instances
p665
tp666
I1
s(Vinsert
p667
I42
VSimpleName: keepAliveTimeMinutes
p668
tp669
I1
s(Vinsert
p670
I40
VQualifiedName: org.junit.Rule
p671
tp672
I1
s(Vinsert
p673
I43
VSimpleType: HystrixMetricsPublisherFactoryTest
p674
tp675
I1
s(Vinsert
p676
I45
VStringLiteral: "required batch method for collapser is absent: "
p677
tp678
I1
s(Vinsert
p679
I42
VSimpleName: metricsCollection
p680
tp681
I1
s(Vinsert
p682
I80
VMemberValuePair
p683
tp684
I2
s(Vinsert
p685
I43
VSimpleType: RequestBatch
p686
tp687
I3
s(Vinsert
p688
I45
VStringLiteral: "fallbackOverridesDefaultProperties"
p689
tp690
I1
s(Vinsert
p691
I40
VQualifiedName: HystrixEventType.Collapser.ADDED_TO_BATCH
p692
tp693
I1
s(Vinsert
p694
I43
VSimpleType: CommandCollapser
p695
tp696
I1
s(Vinsert
p697
I42
VSimpleName: closure
p698
tp699
I1
s(Vinsert
p700
I40
VQualifiedName: timer.tickThread
p701
tp702
I1
s(Vinsert
p703
I34
VNumberLiteral: 100.0
p704
tp705
I1
s(Vinsert
p706
I42
VSimpleName: PublishSubject
p707
tp708
I2
s(Vinsert
p709
I45
VStringLiteral: "fallback cannot return 'void' if command return type is "
p710
tp711
I1
s(Vinsert
p712
I42
VSimpleName: getExecutedCommandsAsString
p713
tp714
I3
s(Vinsert
p715
I42
VSimpleName: merged
p716
tp717
I2
s(Vinsert
p718
I42
VSimpleName: ConfigurationManager
p719
tp720
I2
s(Vinsert
p721
I43
VSimpleType: HystrixEvent
p722
tp723
I1
s(Vinsert
p724
I45
VStringLiteral: "reportingHosts"
p725
tp726
I1
s(Vinsert
p727
I42
VSimpleName: BatchReturnType
p728
tp729
I3
s(Vinsert
p730
I42
VSimpleName: toInsertIntoMap
p731
tp732
I2
s(Vinsert
p733
I42
VSimpleName: a
p734
tp735
I5
s(Vinsert
p736
I42
VSimpleName: isCommandAnnotationPresent
p737
tp738
I1
s(Vinsert
p739
I42
VSimpleName: cacheKeyBuilder
p740
tp741
I1
s(Vinsert
p742
I43
VSimpleType: ArrayList
p743
tp744
I8
s(Vinsert
p745
I42
VSimpleName: FailureInjectedCommand
p746
tp747
I1
s(Vinsert
p748
I42
VSimpleName: HystrixProperty
p749
tp750
I10
s(Vinsert
p751
I43
VSimpleType: PaymentInformation
p752
tp753
I2
s(Vinsert
p754
I42
VSimpleName: TestCollapserWithVoidResponseType
p755
tp756
I1
s(Vinsert
p757
I45
VStringLiteral: "/hystrix/config.stream"
p758
tp759
I1
s(Vinsert
p760
I42
VSimpleName: CannotCompileException
p761
tp762
I1
s(Vinsert
p763
I42
VSimpleName: fallbackExecutionChain
p764
tp765
I1
s(Vinsert
p766
I42
VSimpleName: windowOfExecutions
p767
tp768
I2
s(Vinsert
p769
I42
VSimpleName: ex1
p770
tp771
I8
s(Vinsert
p772
I66
VTextElement:  the String representation of the 
p773
tp774
I2
s(Vinsert
p775
I74
VParameterizedType: HystrixObservableCommand<R>
p776
tp777
I1
s(Vinsert
p778
I42
VSimpleName: CounterState
p779
tp780
I4
s(Vinsert
p781
I43
VSimpleType: HystrixUtilizationSseServlet
p782
tp783
I1
s(Vinsert
p784
I42
VSimpleName: JsonGenerator
p785
tp786
I4
s(Vinsert
p787
I42
VSimpleName: getHystrixCommand
p788
tp789
I1
s(Vinsert
p790
I42
VSimpleName: CollectionUtils
p791
tp792
I1
s(Vinsert
p793
I40
VQualifiedName: HystrixEventType.Collapser
p794
tp795
I4
s(Vinsert
p796
I42
VSimpleName: response4
p797
tp798
I1
s(Vinsert
p799
I39
VPrimitiveType: long
p800
tp801
I45
s(Vinsert
p802
I42
VSimpleName: process
p803
tp804
I1
s(Vinsert
p805
I43
VSimpleType: HystrixCommandMetrics
p806
tp807
I8
s(Vinsert
p808
I74
VParameterizedType: List<Type>
p809
tp810
I1
s(Vinsert
p811
I42
VSimpleName: getActionName
p812
tp813
I3
s(Vinsert
p814
I42
VSimpleName: getReturnType
p815
tp816
I4
s(Vinsert
p817
I45
VStringLiteral: "Expected a failure when queuing the command"
p818
tp819
I1
s(Vinsert
p820
I42
VSimpleName: attachCallingThreadStack
p821
tp822
I3
s(Vinsert
p823
I42
VSimpleName: f4
p824
tp825
I1
s(Vinsert
p826
I74
VParameterizedType: InformationalMetric<Number>
p827
tp828
I4
s(Vinsert
p829
I43
VSimpleType: LinkedList
p830
tp831
I1
s(Vinsert
p832
I45
VStringLiteral: "Hello World!"
p833
tp834
I1
s(Vinsert
p835
I42
VSimpleName: valueParameters
p836
tp837
I1
s(Vinsert
p838
I66
VTextElement:  see 
p839
tp840
I1
s(Vinsert
p841
I42
VSimpleName: fromNullable
p842
tp843
I1
s(Vinsert
p844
I42
VSimpleName: observable
p845
tp846
I1
s(Vinsert
p847
I42
VSimpleName: unwrapCause
p848
tp849
I1
s(Vinsert
p850
I45
VStringLiteral: "99.5"
p851
tp852
I1
s(Vinsert
p853
I66
VTextElement: http://www.apache.org/licenses/LICENSE-2.0
p854
tp855
I1
s(Vinsert
p856
I57
VTypeLiteral
p857
tp858
I38
s(Vinsert
p859
I42
VSimpleName: isCurrentThreadInitialized
p860
tp861
I3
s(Vinsert
p862
I40
VQualifiedName: HystrixCommandConfiguration.HystrixCommandCircuitBreakerConfig
p863
tp864
I1
s(Vinsert
p865
I45
VStringLiteral: "hello"
p866
tp867
I1
s(Vinsert
p868
I42
VSimpleName: Validate
p869
tp870
I4
s(Vinsert
p871
I42
VSimpleName: THREAD
p872
tp873
I1
s(Vinsert
p874
I40
VQualifiedName: HystrixRollingNumberEvent.FALLBACK_SUCCESS
p875
tp876
I1
s(Vinsert
p877
I14
VClassInstanceCreation
p878
tp879
I188
s(Vinsert
p880
I42
VSimpleName: intValue
p881
tp882
I4
s(Vinsert
p883
I42
VSimpleName: testMetricConfiguredInFilterWithFilterEnabled
p884
tp885
I1
s(Vinsert
p886
I45
VStringLiteral: "streaming utilization events"
p887
tp888
I1
s(Vinsert
p889
I66
VTextElement:  Collection<HystrixCommand<?>>
p890
tp891
I1
s(Vinsert
p892
I42
VSimpleName: info
p893
tp894
I6
s(Vinsert
p895
I42
VSimpleName: FlexibleTestHystrixObservableCommand
p896
tp897
I1
s(Vinsert
p898
I42
VSimpleName: getClosureCommandType
p899
tp900
I1
s(Vinsert
p901
I42
VSimpleName: AsyncCommand
p902
tp903
I2
s(Vinsert
p904
I42
VSimpleName: markCommandStart
p905
tp906
I1
s(Vinsert
p907
I42
VSimpleName: CONFIGURATION_DATA_INTERVAL_IN_MS
p908
tp909
I1
s(Vinsert
p910
I42
VSimpleName: cachedResponsesMap
p911
tp912
I1
s(Vinsert
p913
I42
VSimpleName: getFallback
p914
tp915
I4
s(Vinsert
p916
I42
VSimpleName: HystrixCommandMetrics
p917
tp918
I15
s(Vinsert
p919
I45
VStringLiteral: "initialized = "
p920
tp921
I1
s(Vinsert
p922
I42
VSimpleName: isAssignableFrom
p923
tp924
I7
s(Vinsert
p925
I42
VSimpleName: emitResponse
p926
tp927
I1
s(Vinsert
p928
I42
VSimpleName: withCircuitBreakerErrorThresholdPercentage
p929
tp930
I1
s(Vinsert
p931
I43
VSimpleType: HystrixCommandStartStream
p932
tp933
I2
s(Vinsert
p934
I65
VTagElement: @param
p935
tp936
I2
s(Vinsert
p937
I42
VSimpleName: RollingThreadPoolConcurrencyStreamTest
p938
tp939
I1
s(Vinsert
p940
I50
VSwitchStatement
p941
tp942
I2
s(Vinsert
p943
I42
VSimpleName: HystrixPropertyException
p944
tp945
I1
s(Vinsert
p946
I42
VSimpleName: threadPool
p947
tp948
I13
s(Vinsert
p949
I42
VSimpleName: isInterrupted
p950
tp951
I1
s(Vinsert
p952
I42
VSimpleName: getCommandSetter
p953
tp954
I1
s(Vinsert
p955
I66
VTextElement: <
p956
tp957
I1
s(Vinsert
p958
I45
VStringLiteral: "blockUser"
p959
tp960
I1
s(Vinsert
p961
I43
VSimpleType: HystrixCommandProperties.Setter
p962
tp963
I3
s(Vinsert
p964
I42
VSimpleName: A
p965
tp966
I2
s(Vinsert
p967
I5
VArrayType: Class<?>[]
p968
tp969
I3
s(Vinsert
p970
I42
VSimpleName: n
p971
tp972
I3
s(Vinsert
p973
I42
VSimpleName: histogram
p974
tp975
I1
s(Vinsert
p976
I34
VNumberLiteral: 12
p977
tp978
I1
s(Vinsert
p979
I42
VSimpleName: List
p980
tp981
I29
s(Vinsert
p982
I40
VQualifiedName: Map.Entry
p983
tp984
I3
s(Vinsert
p985
I42
VSimpleName: inst
p986
tp987
I2
s(Vinsert
p988
I42
VSimpleName: getClassLoader
p989
tp990
I1
s(Vinsert
p991
I42
VSimpleName: Objects
p992
tp993
I2
s(Vinsert
p994
I43
VSimpleType: CacheResult
p995
tp996
I2
s(Vinsert
p997
I43
VSimpleType: Map.Entry
p998
tp999
I3
s(Vinsert
p1000
I42
VSimpleName: retrieveAllAplications
p1001
tp1002
I1
s(Vinsert
p1003
I42
VSimpleName: getCumulativeCount
p1004
tp1005
I8
s(Vinsert
p1006
I42
VSimpleName: c
p1007
tp1008
I2
s(Vinsert
p1009
I40
VQualifiedName: java.lang.Error
p1010
tp1011
I1
s(Vinsert
p1012
I42
VSimpleName: getRequestVolumeThreshold
p1013
tp1014
I1
s(Vinsert
p1015
I42
VSimpleName: Gauge
p1016
tp1017
I9
s(Vinsert
p1018
I42
VSimpleName: cp
p1019
tp1020
I1
s(Vinsert
p1021
I39
VPrimitiveType: int
p1022
tp1023
I60
s(Vinsert
p1024
I42
VSimpleName: cmd
p1025
tp1026
I14
s(Vinsert
p1027
I42
VSimpleName: submit
p1028
tp1029
I4
s(Vinsert
p1030
I45
VStringLiteral: "currentCorePoolSize"
p1031
tp1032
I2
s(Vinsert
p1033
I42
VSimpleName: isResponseRejected
p1034
tp1035
I2
s(Vinsert
p1036
I42
VSimpleName: requestVariables
p1037
tp1038
I1
s(Vinsert
p1039
I66
VTextElement:  int time in milliseconds
p1040
tp1041
I1
s(Vinsert
p1042
I42
VSimpleName: cacheName
p1043
tp1044
I2
s(Vinsert
p1045
I42
VSimpleName: isExecutedInThread
p1046
tp1047
I8
s(Vinsert
p1048
I42
VSimpleName: HystrixMetricsPublisherThreadPoolContainer
p1049
tp1050
I1
s(Vinsert
p1051
I43
VSimpleType: Monitor
p1052
tp1053
I1
s(Vinsert
p1054
I42
VSimpleName: executionSemaphoreCount
p1055
tp1056
I1
s(Vinsert
p1057
I40
VQualifiedName: AbstractCommand.TryableSemaphoreActual
p1058
tp1059
I4
s(Vinsert
p1060
I40
VQualifiedName: HystrixCollapser.CollapsedRequest
p1061
tp1062
I4
s(Vinsert
p1063
I43
VSimpleType: AtomicLong
p1064
tp1065
I1
s(Vinsert
p1066
I42
VSimpleName: reduceCommandCompletion
p1067
tp1068
I4
s(Vinsert
p1069
I40
VQualifiedName: HystrixRollingNumberEvent.SHORT_CIRCUITED
p1070
tp1071
I1
s(Vinsert
p1072
I45
VStringLiteral: "TestUtil"
p1073
tp1074
I1
s(Vinsert
p1075
I42
VSimpleName: m
p1076
tp1077
I2
s(Vinsert
p1078
I42
VSimpleName: sub
p1079
tp1080
I2
s(Vinsert
p1081
I42
VSimpleName: threadPoolStartStream
p1082
tp1083
I1
s(Vinsert
p1084
I42
VSimpleName: rejected2
p1085
tp1086
I1
s(Vinsert
p1087
I74
VParameterizedType: Node<E>
p1088
tp1089
I1
s(Vinsert
p1090
I42
VSimpleName: Node
p1091
tp1092
I1
s(Vinsert
p1093
I45
VStringLiteral: "id='"
p1094
tp1095
I1
s(Vinsert
p1096
I42
VSimpleName: response
p1097
tp1098
I13
s(Vinsert
p1099
I42
VSimpleName: metricsRollingPercentileWindowInMilliseconds
p1100
tp1101
I6
s(Vinsert
p1102
I34
VNumberLiteral: 951567
p1103
tp1104
I1
s(Vinsert
p1105
I42
VSimpleName: HystrixCommandExecution
p1106
tp1107
I2
s(Vinsert
p1108
I29
VJavadoc
p1109
tp1110
I22
s(Vinsert
p1111
I42
VSimpleName: HystrixCommandUtilization
p1112
tp1113
I4
s(Vinsert
p1114
I45
VStringLiteral: "?"
p1115
tp1116
I1
s(Vinsert
p1117
I42
VSimpleName: FeatureContext
p1118
tp1119
I1
s(Vinsert
p1120
I42
VSimpleName: next
p1121
tp1122
I6
s(Vinsert
p1123
I42
VSimpleName: BadRequestException
p1124
tp1125
I2
s(Vinsert
p1126
I42
VSimpleName: EMPTY
p1127
tp1128
I1
s(Vinsert
p1129
I43
VSimpleType: Completable
p1130
tp1131
I5
s(Vinsert
p1132
I42
VSimpleName: flatMap
p1133
tp1134
I1
s(Vinsert
p1135
I42
VSimpleName: poller
p1136
tp1137
I1
s(Vinsert
p1138
I34
VNumberLiteral: 1
p1139
tp1140
I41
s(Vinsert
p1141
I42
VSimpleName: getTotalLatencyPercentileMonitor
p1142
tp1143
I3
s(Vinsert
p1144
I43
VSimpleType: BatchReturnType
p1145
tp1146
I3
s(Vinsert
p1147
I42
VSimpleName: readXmlInputStream
p1148
tp1149
I1
s(Vinsert
p1150
I42
VSimpleName: getFailedExecutionException
p1151
tp1152
I6
s(Vinsert
p1153
I74
VParameterizedType: ArrayList<User>
p1154
tp1155
I2
s(Vinsert
p1156
I40
VQualifiedName: org.openjdk.jmh.annotations.OutputTimeUnit
p1157
tp1158
I1
s(Vinsert
p1159
I42
VSimpleName: poolFiller
p1160
tp1161
I1
s(Vinsert
p1162
I40
VQualifiedName: TestKey.TEST
p1163
tp1164
I1
s(Vinsert
p1165
I43
VSimpleType: AbstractHystrixStreamController
p1166
tp1167
I4
s(Vinsert
p1168
I42
VSimpleName: getUserByNameIgnoreExc
p1169
tp1170
I1
s(Vinsert
p1171
I42
VSimpleName: o
p1172
tp1173
I9
s(Vinsert
p1174
I42
VSimpleName: getTotalTimeMean
p1175
tp1176
I1
s(Vinsert
p1177
I45
VStringLiteral: "3b"
p1178
tp1179
I1
s(Vinsert
p1180
I42
VSimpleName: testRequestContextOnSuccess
p1181
tp1182
I1
s(Vinsert
p1183
I66
VTextElement: This is not natively supported by RxJava as of 0.18.0 because thread-pools
p1184
tp1185
I1
s(Vinsert
p1186
I40
VQualifiedName: TestCommandRejection.FALLBACK_SUCCESS
p1187
tp1188
I1
s(Vinsert
p1189
I43
VSimpleType: EventStreamRequestHandler
p1190
tp1191
I1
s(Vinsert
p1192
I42
VSimpleName: cancel
p1193
tp1194
I3
s(Vinsert
p1195
I42
VSimpleName: ExecutorState
p1196
tp1197
I1
s(Vinsert
p1198
I42
VSimpleName: observableExecutionMode
p1199
tp1200
I2
s(Vinsert
p1201
I43
VSimpleType: Callable
p1202
tp1203
I2
s(Vinsert
p1204
I43
VSimpleType: HttpResponse
p1205
tp1206
I1
s(Vinsert
p1207
I45
VStringLiteral: "getUser has failed"
p1208
tp1209
I1
s(Vinsert
p1210
I42
VSimpleName: Before
p1211
tp1212
I1
s(Vinsert
p1213
I42
VSimpleName: l1
p1214
tp1215
I1
s(Vinsert
p1216
I42
VSimpleName: scheduleWithFixedDelay
p1217
tp1218
I1
s(Vinsert
p1219
I42
VSimpleName: createGenerator
p1220
tp1221
I5
s(Vinsert
p1222
I42
VSimpleName: handleRequest
p1223
tp1224
I1
s(Vinsert
p1225
I43
VSimpleType: Optional
p1226
tp1227
I4
s(Vinsert
p1228
I33
VNullLiteral
p1229
tp1230
I72
s(Vinsert
p1231
I42
VSimpleName: cast
p1232
tp1233
I1
s(Vinsert
p1234
I43
VSimpleType: Type
p1235
tp1236
I3
s(Vinsert
p1237
I42
VSimpleName: releaseDistributionsAsTheyFallOutOfWindow
p1238
tp1239
I1
s(Vinsert
p1240
I45
VStringLiteral: "25"
p1241
tp1242
I2
s(Vinsert
p1243
I42
VSimpleName: Promise
p1244
tp1245
I2
s(Vinsert
p1246
I42
VSimpleName: bucket
p1247
tp1248
I1
s(Vinsert
p1249
I43
VSimpleType: CommandWithStubbedFallback
p1250
tp1251
I1
s(Vinsert
p1252
I42
VSimpleName: AtomicLong
p1253
tp1254
I1
s(Vinsert
p1255
I42
VSimpleName: withQueueSizeRejectionThreshold
p1256
tp1257
I1
s(Vinsert
p1258
I42
VSimpleName: secondFallbackCommand
p1259
tp1260
I1
s(Vinsert
p1261
I76
VWildcardType: ? super Boolean
p1262
tp1263
I2
s(Vinsert
p1264
I42
VSimpleName: createObservable
p1265
tp1266
I1
s(Vinsert
p1267
I43
VSimpleType: InformationalMetric
p1268
tp1269
I4
s(Vinsert
p1270
I40
VQualifiedName: HystrixCommandProperties.Setter
p1271
tp1272
I3
s(Vinsert
p1273
I43
VSimpleType: HystrixCommandBuilder
p1274
tp1275
I1
s(Vinsert
p1276
I42
VSimpleName: position
p1277
tp1278
I1
s(Vinsert
p1279
I42
VSimpleName: registerCommandExecutionHook
p1280
tp1281
I1
s(Vinsert
p1282
I42
VSimpleName: HystrixContextCallable
p1283
tp1284
I2
s(Vinsert
p1285
I42
VSimpleName: CacheKeyGenerator
p1286
tp1287
I2
s(Vinsert
p1288
I42
VSimpleName: writeHeavyCounterAdd
p1289
tp1290
I1
s(Vinsert
p1291
I45
VStringLiteral: "  thread: "
p1292
tp1293
I1
s(Vinsert
p1294
I42
VSimpleName: setDaemon
p1295
tp1296
I5
s(Vinsert
p1297
I45
VStringLiteral: "cmd-metrics-C"
p1298
tp1299
I1
s(Vinsert
p1300
I45
VStringLiteral: "/hystrix/utilization.stream"
p1301
tp1302
I1
s(Vinsert
p1303
I42
VSimpleName: Action
p1304
tp1305
I1
s(Vinsert
p1306
I42
VSimpleName: latch
p1307
tp1308
I9
s(Vinsert
p1309
I42
VSimpleName: StringBuilder
p1310
tp1311
I6
s(Vinsert
p1312
I27
VInfixExpression: >
p1313
tp1314
I10
s(Vinsert
p1315
I42
VSimpleName: V
p1316
tp1317
I2
s(Vinsert
p1318
I43
VSimpleType: BadRequestException
p1319
tp1320
I2
s(Vinsert
p1321
I42
VSimpleName: parseInt
p1322
tp1323
I1
s(Vinsert
p1324
I42
VSimpleName: jsonMetrics
p1325
tp1326
I1
s(Vinsert
p1327
I45
VStringLiteral: "/hystrix.stream"
p1328
tp1329
I1
s(Vinsert
p1330
I42
VSimpleName: expected
p1331
tp1332
I7
s(Vinsert
p1333
I42
VSimpleName: getPropertyValue
p1334
tp1335
I1
s(Vinsert
p1336
I42
VSimpleName: getCommand
p1337
tp1338
I1
s(Vinsert
p1339
I42
VSimpleName: commandPublishers
p1340
tp1341
I2
s(Vinsert
p1342
I42
VSimpleName: addEvents
p1343
tp1344
I3
s(Vinsert
p1345
I42
VSimpleName: origParamTypes
p1346
tp1347
I2
s(Vinsert
p1348
I42
VSimpleName: fmMetaHolder
p1349
tp1350
I1
s(Vinsert
p1351
I66
VTextElement:  batch size
p1352
tp1353
I1
s(Vinsert
p1354
I42
VSimpleName: ALL_EVENT_TYPES_SIZE
p1355
tp1356
I6
s(Vinsert
p1357
I66
VTextElement:  type of raw data that needs to get summarized into a bucket
p1358
tp1359
I1
s(Vinsert
p1360
I42
VSimpleName: metricRegistry
p1361
tp1362
I3
s(Vinsert
p1363
I42
VSimpleName: ServerBootstrap
p1364
tp1365
I2
s(Vinsert
p1366
I45
VStringLiteral: "cacheKeyA"
p1367
tp1368
I1
s(Vinsert
p1369
I43
VSimpleType: Method
p1370
tp1371
I12
s(Vinsert
p1372
I43
VSimpleType: RollingThreadPoolConcurrencyStream
p1373
tp1374
I2
s(Vinsert
p1375
I43
VSimpleType: HystrixCollapserProperties.Setter
p1376
tp1377
I3
s(Vinsert
p1378
I42
VSimpleName: testPropsBuilder
p1379
tp1380
I9
s(Vinsert
p1381
I42
VSimpleName: isResponseShortCircuited
p1382
tp1383
I2
s(Vinsert
p1384
I66
VTextElement: .
p1385
tp1386
I3
s(Vinsert
p1387
I43
VSimpleType: CommandAction
p1388
tp1389
I2
s(Vinsert
p1390
I42
VSimpleName: DashboardData
p1391
tp1392
I1
s(Vinsert
p1393
I42
VSimpleName: WildcardType
p1394
tp1395
I2
s(Vinsert
p1396
I45
VStringLiteral: "test.test.countSuccess"
p1397
tp1398
I1
s(Vinsert
p1399
I42
VSimpleName: rollingMaxSubscription
p1400
tp1401
I2
s(Vinsert
p1402
I42
VSimpleName: withExecutionTimeoutInMilliseconds
p1403
tp1404
I1
s(Vinsert
p1405
I42
VSimpleName: getLogger
p1406
tp1407
I8
s(Vinsert
p1408
I42
VSimpleName: HttpServletRequest
p1409
tp1410
I1
s(Vinsert
p1411
I42
VSimpleName: actual
p1412
tp1413
I18
s(Vinsert
p1414
I42
VSimpleName: withMetricsRollingStatisticalWindowBuckets
p1415
tp1416
I2
s(Vinsert
p1417
I42
VSimpleName: groupByRequest
p1418
tp1419
I1
s(Vinsert
p1420
I42
VSimpleName: GetUserException
p1421
tp1422
I1
s(Vinsert
p1423
I42
VSimpleName: commandExecutionType
p1424
tp1425
I2
s(Vinsert
p1426
I42
VSimpleName: getEventCounts
p1427
tp1428
I5
s(Vinsert
p1429
I42
VSimpleName: cacheRemove
p1430
tp1431
I1
s(Vinsert
p1432
I66
VTextElement: Percentile capture and calculation is configured via 
p1433
tp1434
I1
s(Vinsert
p1435
I42
VSimpleName: fallbackException
p1436
tp1437
I2
s(Vinsert
p1438
I42
VSimpleName: subscription
p1439
tp1440
I2
s(Vinsert
p1441
I45
VStringLiteral: "countFallbackEmit"
p1442
tp1443
I1
s(Vinsert
p1444
I74
VParameterizedType: Observable<long[]>
p1445
tp1446
I3
s(Vinsert
p1447
I42
VSimpleName: TickThread
p1448
tp1449
I1
s(Vinsert
p1450
I42
VSimpleName: LoggerFactory
p1451
tp1452
I3
s(Vinsert
p1453
I42
VSimpleName: getLowerBounds
p1454
tp1455
I1
s(Vinsert
p1456
I2
VArrayAccess
p1457
tp1458
I17
s(Vinsert
p1459
I42
VSimpleName: getMetaHolder
p1460
tp1461
I1
s(Vinsert
p1462
I42
VSimpleName: writeStringField
p1463
tp1464
I5
s(Vinsert
p1465
I42
VSimpleName: register
p1466
tp1467
I4
s(Vinsert
p1468
I42
VSimpleName: registerPropertiesStrategy
p1469
tp1470
I1
s(Vinsert
p1471
I42
VSimpleName: HystrixCollapserMetrics
p1472
tp1473
I3
s(Vinsert
p1474
I42
VSimpleName: Command
p1475
tp1476
I5
s(Vinsert
p1477
I42
VSimpleName: collapser2
p1478
tp1479
I2
s(Vinsert
p1480
I42
VSimpleName: param
p1481
tp1482
I1
s(Vinsert
p1483
I43
VSimpleType: Bucket
p1484
tp1485
I1
s(Vinsert
p1486
I40
VQualifiedName: AbstractCommand.ExecutionResult
p1487
tp1488
I1
s(Vinsert
p1489
I42
VSimpleName: isResponseSemaphoreRejected
p1490
tp1491
I3
s(Vinsert
p1492
I42
VSimpleName: HystrixDynamicProperties
p1493
tp1494
I3
s(Vinsert
p1495
I42
VSimpleName: underlyingSubscription
p1496
tp1497
I2
s(Vinsert
p1498
I43
VSimpleType: HystrixConfigurationStream
p1499
tp1500
I1
s(Vinsert
p1501
I45
VStringLiteral: "&&&&&&& add request to log: "
p1502
tp1503
I1
s(Vinsert
p1504
I42
VSimpleName: underlying
p1505
tp1506
I3
s(Vinsert
p1507
I42
VSimpleName: HystrixMetricsPublisher
p1508
tp1509
I1
s(Vinsert
p1510
I42
VSimpleName: field2
p1511
tp1512
I2
s(Vinsert
p1513
I42
VSimpleName: requestsByKey
p1514
tp1515
I2
s(Vinsert
p1516
I42
VSimpleName: Math
p1517
tp1518
I3
s(Vinsert
p1519
I42
VSimpleName: getCacheAnnotation
p1520
tp1521
I1
s(Vinsert
p1522
I42
VSimpleName: onBackpressureBuffer
p1523
tp1524
I2
s(Vinsert
p1525
I42
VSimpleName: HystrixRollingPercentile
p1526
tp1527
I5
s(Vinsert
p1528
I42
VSimpleName: streams
p1529
tp1530
I15
s(Vinsert
p1531
I42
VSimpleName: CacheKeyInvocationContext
p1532
tp1533
I2
s(Vinsert
p1534
I42
VSimpleName: request
p1535
tp1536
I13
s(Vinsert
p1537
I42
VSimpleName: hystrixThreadStartedExecuting
p1538
tp1539
I1
s(Vinsert
p1540
I42
VSimpleName: exceptionReceived
p1541
tp1542
I1
s(Vinsert
p1543
I42
VSimpleName: batchArgumentQueue
p1544
tp1545
I1
s(Vinsert
p1546
I42
VSimpleName: poolForKey
p1547
tp1548
I1
s(Vinsert
p1549
I42
VSimpleName: commandMethod
p1550
tp1551
I3
s(Vinsert
p1552
I43
VSimpleType: Action1
p1553
tp1554
I3
s(Vinsert
p1555
I74
VParameterizedType: HystrixInvokableInfo<?>
p1556
tp1557
I12
s(Vinsert
p1558
I43
VSimpleType: Func0
p1559
tp1560
I7
s(Vinsert
p1561
I42
VSimpleName: ClassPool
p1562
tp1563
I2
s(Vinsert
p1564
I42
VSimpleName: getMessage
p1565
tp1566
I15
s(Vinsert
p1567
I42
VSimpleName: getInteger
p1568
tp1569
I1
s(Vinsert
p1570
I42
VSimpleName: f1
p1571
tp1572
I1
s(Vinsert
p1573
I42
VSimpleName: addAll
p1574
tp1575
I2
s(Vinsert
p1576
I45
VStringLiteral: " : "
p1577
tp1578
I8
s(Vinsert
p1579
I42
VSimpleName: cmd4
p1580
tp1581
I3
s(Vinsert
p1582
I42
VSimpleName: isFilterEnabled
p1583
tp1584
I1
s(Vinsert
p1585
I40
VQualifiedName: ExecutionType.ASYNCHRONOUS
p1586
tp1587
I2
s(Vinsert
p1588
I43
VSimpleType: AbstractCommand.TryableSemaphoreActual
p1589
tp1590
I4
s(Vinsert
p1591
I42
VSimpleName: cache1
p1592
tp1593
I1
s(Vinsert
p1594
I42
VSimpleName: executionLatencyMean
p1595
tp1596
I1
s(Vinsert
p1597
I34
VNumberLiteral: 700L
p1598
tp1599
I1
s(Vinsert
p1600
I42
VSimpleName: fallbackActualReturnType
p1601
tp1602
I2
s(Vinsert
p1603
I42
VSimpleName: Hystrix
p1604
tp1605
I8
s(Vinsert
p1606
I66
VTextElement: 5) bad request
p1607
tp1608
I1
s(Vinsert
p1609
I34
VNumberLiteral: 1234
p1610
tp1611
I1
s(Vinsert
p1612
I40
VQualifiedName: ServiceWithDefaultFallback.DEFAULT_RESPONSE
p1613
tp1614
I1
s(Vinsert
p1615
I74
VParameterizedType: TestSubscriber<Integer>
p1616
tp1617
I1
s(Vinsert
p1618
I40
VQualifiedName: HystrixRollingNumberEvent.FALLBACK_REJECTION
p1619
tp1620
I3
s(Vinsert
p1621
I42
VSimpleName: HystrixRollingNumber
p1622
tp1623
I7
s(Vinsert
p1624
I42
VSimpleName: SubCommandNoOverride
p1625
tp1626
I1
s(Vinsert
p1627
I42
VSimpleName: getStackTrace
p1628
tp1629
I1
s(Vinsert
p1630
I34
VNumberLiteral: 75
p1631
tp1632
I6
s(Vinsert
p1633
I83
VModifier: synchronized
p1634
tp1635
I3
s(Vinsert
p1636
I42
VSimpleName: resetCollapser
p1637
tp1638
I1
s(Vinsert
p1639
I42
VSimpleName: nextInt
p1640
tp1641
I1
s(Vinsert
p1642
I42
VSimpleName: counterState
p1643
tp1644
I4
s(Vinsert
p1645
I42
VSimpleName: getCacheKeyAction
p1646
tp1647
I1
s(Vinsert
p1648
I45
VStringLiteral: "s1 got : "
p1649
tp1650
I2
s(Vinsert
p1651
I34
VNumberLiteral: 600
p1652
tp1653
I2
s(Vinsert
p1654
I42
VSimpleName: from
p1655
tp1656
I17
s(Vinsert
p1657
I45
VStringLiteral: "latencyTotal_mean"
p1658
tp1659
I1
s(Vinsert
p1660
I42
VSimpleName: HystrixDynamicPropertiesSystemProperties
p1661
tp1662
I1
s(Vinsert
p1663
I42
VSimpleName: f5
p1664
tp1665
I3
s(Vinsert
p1666
I42
VSimpleName: onRunSuccess
p1667
tp1668
I2
s(Vinsert
p1669
I42
VSimpleName: method
p1670
tp1671
I26
s(Vinsert
p1672
I43
VSimpleType: B
p1673
tp1674
I2
s(Vinsert
p1675
I34
VNumberLiteral: 500
p1676
tp1677
I6
s(Vinsert
p1678
I42
VSimpleName: getBatchSizePercentile
p1679
tp1680
I1
s(Vinsert
p1681
I42
VSimpleName: commandB
p1682
tp1683
I1
s(Vinsert
p1684
I42
VSimpleName: newHashSet
p1685
tp1686
I1
s(Vinsert
p1687
I40
VQualifiedName: bucket.bucketData
p1688
tp1689
I1
s(Vinsert
p1690
I42
VSimpleName: Completable
p1691
tp1692
I5
s(Vinsert
p1693
I40
VQualifiedName: TestCommandRejection.FALLBACK_NOT_IMPLEMENTED
p1694
tp1695
I1
s(Vinsert
p1696
I66
VTextElement: limitations under the License.
p1697
tp1698
I2
s(Vinsert
p1699
I42
VSimpleName: writeOnlyCollapserSubject
p1700
tp1701
I2
s(Vinsert
p1702
I42
VSimpleName: waitLatch
p1703
tp1704
I1
s(Vinsert
p1705
I42
VSimpleName: TestCircuitBreaker
p1706
tp1707
I6
s(Vinsert
p1708
I42
VSimpleName: AtomicBoolean
p1709
tp1710
I5
s(Vinsert
p1711
I42
VSimpleName: p90TotalLatency
p1712
tp1713
I1
s(Vinsert
p1714
I42
VSimpleName: actualFutureExecuted
p1715
tp1716
I1
s(Vinsert
p1717
I42
VSimpleName: getBucketedStream
p1718
tp1719
I2
s(Vinsert
p1720
I43
VSimpleType: HystrixRollingNumber
p1721
tp1722
I7
s(Vinsert
p1723
I45
VStringLiteral: "75"
p1724
tp1725
I2
s(Vinsert
p1726
I42
VSimpleName: _reset
p1727
tp1728
I1
s(Vinsert
p1729
I42
VSimpleName: CacheInvocationContextFactory
p1730
tp1731
I1
s(Vinsert
p1732
I34
VNumberLiteral: 951937
p1733
tp1734
I1
s(Vinsert
p1735
I42
VSimpleName: NUM_THREADS
p1736
tp1737
I2
s(Vinsert
p1738
I40
VQualifiedName: HystrixRollingNumberEvent.EXCEPTION_THROWN
p1739
tp1740
I2
s(Vinsert
p1741
I42
VSimpleName: getUserById
p1742
tp1743
I4
s(Vinsert
p1744
I42
VSimpleName: hasBeenInterrupted
p1745
tp1746
I2
s(Vinsert
p1747
I74
VParameterizedType: Observable<B>
p1748
tp1749
I1
s(Vinsert
p1750
I43
VSimpleType: CommandAndCacheKey
p1751
tp1752
I2
s(Vinsert
p1753
I66
VTextElement:  performs a short-circuited fallback it will call this method to report its occurrence.
p1754
tp1755
I1
s(Vinsert
p1756
I42
VSimpleName: metricsRollingStatisticalWindowInMilliseconds
p1757
tp1758
I7
s(Vinsert
p1759
I43
VSimpleType: Reference
p1760
tp1761
I1
s(Vinsert
p1762
I74
VParameterizedType: Observable<A>
p1763
tp1764
I1
s(Vinsert
p1765
I42
VSimpleName: name
p1766
tp1767
I35
s(Vinsert
p1768
I42
VSimpleName: EXCEPTION_PRODUCING_EVENT_TYPES
p1769
tp1770
I2
s(Vinsert
p1771
I42
VSimpleName: addLatency
p1772
tp1773
I1
s(Vinsert
p1774
I45
VStringLiteral: "Is Successful : "
p1775
tp1776
I1
s(Vinsert
p1777
I42
VSimpleName: TypeVariable
p1778
tp1779
I3
s(Vinsert
p1780
I42
VSimpleName: valueOf
p1781
tp1782
I6
s(Vinsert
p1783
I43
VSimpleType: Order
p1784
tp1785
I3
s(Vinsert
p1786
I42
VSimpleName: rootMethodName
p1787
tp1788
I1
s(Vinsert
p1789
I42
VSimpleName: fallbackSemaphoreCount
p1790
tp1791
I1
s(Vinsert
p1792
I42
VSimpleName: initMocks
p1793
tp1794
I1
s(Vinsert
p1795
I42
VSimpleName: getGenericReturnType
p1796
tp1797
I1
s(Vinsert
p1798
I43
VSimpleType: HystrixThreadPool.HystrixThreadPoolDefault
p1799
tp1800
I1
s(Vinsert
p1801
I32
VMethodInvocation
p1802
tp1803
I2220
s(Vinsert
p1804
I42
VSimpleName: testSubscriber2
p1805
tp1806
I3
s(Vinsert
p1807
I42
VSimpleName: getCollapserKey
p1808
tp1809
I6
s(Vinsert
p1810
I42
VSimpleName: buildCollapserCommandSetter
p1811
tp1812
I1
s(Vinsert
p1813
I43
VSimpleType: User
p1814
tp1815
I16
s(Vinsert
p1816
I42
VSimpleName: CacheKeyInvocationContextFactory
p1817
tp1818
I1
s(Vinsert
p1819
I42
VSimpleName: currentBucketMax
p1820
tp1821
I2
s(Vinsert
p1822
I42
VSimpleName: getHystrixCommandByKey
p1823
tp1824
I7
s(Vinsert
p1825
I42
VSimpleName: cl
p1826
tp1827
I1
s(Vinsert
p1828
I16
VConditionalExpression
p1829
tp1830
I9
s(Vinsert
p1831
I42
VSimpleName: asKey
p1832
tp1833
I28
s(Vinsert
p1834
I42
VSimpleName: Bucket
p1835
tp1836
I1
s(Vinsert
p1837
I42
VSimpleName: Rule
p1838
tp1839
I1
s(Vinsert
p1840
I42
VSimpleName: getOriginatingCollapserKey
p1841
tp1842
I2
s(Vinsert
p1843
I42
VSimpleName: executionIsolationThreadInterruptOnTimeout
p1844
tp1845
I1
s(Vinsert
p1846
I74
VParameterizedType: HystrixCommand<?>
p1847
tp1848
I2
s(Vinsert
p1849
I42
VSimpleName: printRequestLog
p1850
tp1851
I2
s(Vinsert
p1852
I66
VTextElement: Return a ref-counted stream that will only do work when at least one subscriber is present
p1853
tp1854
I1
s(Vinsert
p1855
I43
VSimpleType: HystrixRollingPercentile
p1856
tp1857
I5
s(Vinsert
p1858
I42
VSimpleName: request1
p1859
tp1860
I2
s(Vinsert
p1861
I3
VArrayCreation
p1862
tp1863
I4
s(Vinsert
p1864
I42
VSimpleName: getCumulativeMonitor
p1865
tp1866
I2
s(Vinsert
p1867
I66
VTextElement: you may not use this file except in compliance with the License.
p1868
tp1869
I1
s(Vinsert
p1870
I34
VNumberLiteral: 99
p1871
tp1872
I2
s(Vinsert
p1873
I42
VSimpleName: batch
p1874
tp1875
I2
s(Vinsert
p1876
I42
VSimpleName: TERMINAL_EVENT_TYPES
p1877
tp1878
I1
s(Vinsert
p1879
I45
VStringLiteral: "10000"
p1880
tp1881
I1
s(Vinsert
p1882
I42
VSimpleName: users
p1883
tp1884
I4
s(Vinsert
p1885
I43
VSimpleType: BasicCollapserTest
p1886
tp1887
I1
s(Vinsert
p1888
I74
VParameterizedType: HystrixEventStream<Event>
p1889
tp1890
I2
s(Vinsert
p1891
I42
VSimpleName: test
p1892
tp1893
I4
s(Vinsert
p1894
I43
VSimpleType: WeavingMode
p1895
tp1896
I1
s(Vinsert
p1897
I42
VSimpleName: setMetrics
p1898
tp1899
I3
s(Vinsert
p1900
I43
VSimpleType: HashMap
p1901
tp1902
I2
s(Vinsert
p1903
I42
VSimpleName: getLatest
p1904
tp1905
I3
s(Vinsert
p1906
I17
VConstructorInvocation
p1907
tp1908
I8
s(Vinsert
p1909
I45
VStringLiteral: " : Dashboard 1 OnNext : "
p1910
tp1911
I1
s(Vinsert
p1912
I42
VSimpleName: TERMINAL_EVENTS
p1913
tp1914
I2
s(Vinsert
p1915
I42
VSimpleName: ALL_EVENT_TYPES
p1916
tp1917
I1
s(Vinsert
p1918
I42
VSimpleName: plugins
p1919
tp1920
I1
s(Vinsert
p1921
I45
VStringLiteral: "$$$$$$$$$$ new requestLog on thread: "
p1922
tp1923
I1
s(Vinsert
p1924
I45
VStringLiteral: " : Created new metrics stream for "
p1925
tp1926
I1
s(Vinsert
p1927
I74
VParameterizedType: Pair<PaymentInformation,Order>
p1928
tp1929
I1
s(Vinsert
p1930
I42
VSimpleName: getPluginImplementationViaProperty
p1931
tp1932
I1
s(Vinsert
p1933
I42
VSimpleName: ImmutableSet
p1934
tp1935
I1
s(Vinsert
p1936
I45
VStringLiteral: "name: 3"
p1937
tp1938
I1
s(Vinsert
p1939
I42
VSimpleName: state
p1940
tp1941
I3
s(Vinsert
p1942
I42
VSimpleName: ex
p1943
tp1944
I13
s(Vinsert
p1945
I43
VSimpleType: K
p1946
tp1947
I4
s(Vinsert
p1948
I42
VSimpleName: getRequestVariableForCommand
p1949
tp1950
I1
s(Vinsert
p1951
I45
VStringLiteral: "Unrecoverable Error for TestHystrixCommand"
p1952
tp1953
I1
s(Vinsert
p1954
I42
VSimpleName: getDeclaredMethod
p1955
tp1956
I4
s(Vinsert
p1957
I43
VSimpleType: FilterChain
p1958
tp1959
I2
s(Vinsert
p1960
I66
VTextElement:  emits a value during fallback
p1961
tp1962
I1
s(Vinsert
p1963
I45
VStringLiteral: "foobar"
p1964
tp1965
I1
s(Vinsert
p1966
I42
VSimpleName: createParser
p1967
tp1968
I1
s(Vinsert
p1969
I42
VSimpleName: configure
p1970
tp1971
I1
s(Vinsert
p1972
I45
VStringLiteral: "/hystrix/request.stream"
p1973
tp1974
I1
s(Vinsert
p1975
I42
VSimpleName: defaultFallback
p1976
tp1977
I2
s(Vinsert
p1978
I42
VSimpleName: HystrixCommandGroupKey
p1979
tp1980
I6
s(Vinsert
p1981
I42
VSimpleName: booleanValue
p1982
tp1983
I1
s(Vinsert
p1984
I42
VSimpleName: expectedType
p1985
tp1986
I1
s(Vinsert
p1987
I66
VTextElement: the exception.
p1988
tp1989
I1
s(Vinsert
p1990
I40
VQualifiedName: com.netflix.hystrix.HystrixInvokableInfo
p1991
tp1992
I2
s(Vinsert
p1993
I42
VSimpleName: init
p1994
tp1995
I3
s(Vinsert
p1996
I74
VParameterizedType: Future<User>
p1997
tp1998
I2
s(Vinsert
p1999
I42
VSimpleName: longValue
p2000
tp2001
I2
s(Vinsert
p2002
I42
VSimpleName: getCurrentCorePoolSize
p2003
tp2004
I3
s(Vinsert
p2005
I42
VSimpleName: p50
p2006
tp2007
I1
s(Vinsert
p2008
I42
VSimpleName: isStreamValid
p2009
tp2010
I2
s(Vinsert
p2011
I42
VSimpleName: size
p2012
tp2013
I18
s(Vinsert
p2014
I43
VSimpleType: ExecutionIsolationStrategy
p2015
tp2016
I2
s(Vinsert
p2017
I42
VSimpleName: queue
p2018
tp2019
I12
s(Vinsert
p2020
I43
VSimpleType: CommandHelloFailure
p2021
tp2022
I1
s(Vinsert
p2023
I42
VSimpleName: HystrixPropertiesFactory
p2024
tp2025
I1
s(Vinsert
p2026
I42
VSimpleName: andCollapserPropertiesDefaults
p2027
tp2028
I1
s(Vinsert
p2029
I42
VSimpleName: onBackpressureDrop
p2030
tp2031
I2
s(Vinsert
p2032
I42
VSimpleName: HystrixThreadPoolProperties
p2033
tp2034
I7
s(Vinsert
p2035
I42
VSimpleName: methodSignature
p2036
tp2037
I1
s(Vinsert
p2038
I42
VSimpleName: cacheKeyGenerator
p2039
tp2040
I2
s(Vinsert
p2041
I42
VSimpleName: getNumberFallbackEmissions
p2042
tp2043
I1
s(Vinsert
p2044
I42
VSimpleName: Iterator
p2045
tp2046
I2
s(Vinsert
p2047
I42
VSimpleName: BasicObservableTest
p2048
tp2049
I1
s(Vinsert
p2050
I42
VSimpleName: numCollapsed
p2051
tp2052
I2
s(Vinsert
p2053
I45
VStringLiteral: "expect exception thrown"
p2054
tp2055
I1
s(Vinsert
p2056
I42
VSimpleName: resetContext
p2057
tp2058
I1
s(Vinsert
p2059
I43
VSimpleType: HystrixRuntimeException
p2060
tp2061
I3
s(Vinsert
p2062
I42
VSimpleName: asProperty
p2063
tp2064
I9
s(Vinsert
p2065
I42
VSimpleName: storage
p2066
tp2067
I1
s(Vinsert
p2068
I42
VSimpleName: HystrixThreadPoolStartStream
p2069
tp2070
I4
s(Vinsert
p2071
I42
VSimpleName: BadRequestCommand
p2072
tp2073
I1
s(Vinsert
p2074
I74
VParameterizedType: CollapsedRequest<Integer,Integer>
p2075
tp2076
I1
s(Vinsert
p2077
I42
VSimpleName: resolveDynamicProperties
p2078
tp2079
I1
s(Vinsert
p2080
I42
VSimpleName: CommandHelloFailure
p2081
tp2082
I1
s(Vinsert
p2083
I27
VInfixExpression: ||
p2084
tp2085
I8
s(Vinsert
p2086
I45
VStringLiteral: "requestLogEnabled"
p2087
tp2088
I1
s(Vinsert
p2089
I42
VSimpleName: getContextForCurrentThread
p2090
tp2091
I9
s(Vinsert
p2092
I42
VSimpleName: d
p2093
tp2094
I1
s(Vinsert
p2095
I45
VStringLiteral: "Executed"
p2096
tp2097
I2
s(Vinsert
p2098
I66
VTextElement: Get the current value from the underlying DynamicProperty
p2099
tp2100
I2
s(Vinsert
p2101
I42
VSimpleName: ignoreException
p2102
tp2103
I1
s(Vinsert
p2104
I66
VTextElement: and we should log an error to get users to update their dependency set.
p2105
tp2106
I1
s(Vinsert
p2107
I42
VSimpleName: onSuccess
p2108
tp2109
I1
s(Vinsert
p2110
I42
VSimpleName: getExecutionLatencyMeanMonitor
p2111
tp2112
I1
s(Vinsert
p2113
I66
VTextElement: consumed as efficiently as possible.
p2114
tp2115
I1
s(Vinsert
p2116
I42
VSimpleName: reset
p2117
tp2118
I18
s(Vinsert
p2119
I42
VSimpleName: commandProperties
p2120
tp2121
I3
s(Vinsert
p2122
I42
VSimpleName: Service
p2123
tp2124
I1
s(Vinsert
p2125
I66
VTextElement: Value from 
p2126
tp2127
I1
s(Vinsert
p2128
I34
VNumberLiteral: 5
p2129
tp2130
I2
s(Vinsert
p2131
I42
VSimpleName: closureObj
p2132
tp2133
I2
s(Vinsert
p2134
I42
VSimpleName: getCacheKeyMethod
p2135
tp2136
I1
s(Vinsert
p2137
I43
VSimpleType: SynchronizedHttpServletResponse
p2138
tp2139
I1
s(Vinsert
p2140
I42
VSimpleName: GetUserAccountCommand
p2141
tp2142
I1
s(Vinsert
p2143
I42
VSimpleName: getFallbackOrThrowException
p2144
tp2145
I1
s(Vinsert
p2146
I42
VSimpleName: builder
p2147
tp2148
I29
s(Vinsert
p2149
I43
VSimpleType: SpecificException
p2150
tp2151
I2
s(Vinsert
p2152
I34
VNumberLiteral: 10000
p2153
tp2154
I2
s(Vinsert
p2155
I66
VTextElement:  long cumulative count
p2156
tp2157
I1
s(Vinsert
p2158
I42
VSimpleName: sleep
p2159
tp2160
I20
s(Vinsert
p2161
I42
VSimpleName: collapserMethod
p2162
tp2163
I2
s(Vinsert
p2164
I42
VSimpleName: isEmpty
p2165
tp2166
I2
s(Vinsert
p2167
I66
VTextElement:  implementations with the same 
p2168
tp2169
I1
s(Vinsert
p2170
I42
VSimpleName: getTarget
p2171
tp2172
I4
s(Vinsert
p2173
I42
VSimpleName: toBlocking
p2174
tp2175
I1
s(Vinsert
p2176
I42
VSimpleName: url
p2177
tp2178
I2
s(Vinsert
p2179
I42
VSimpleName: Observable
p2180
tp2181
I59
s(Vinsert
p2182
I42
VSimpleName: writeStartObject
p2183
tp2184
I3
s(Vinsert
p2185
I42
VSimpleName: observedConcurrency
p2186
tp2187
I2
s(Vinsert
p2188
I42
VSimpleName: unit
p2189
tp2190
I2
s(Vinsert
p2191
I42
VSimpleName: executionHook
p2192
tp2193
I8
s(Vinsert
p2194
I42
VSimpleName: totalCount
p2195
tp2196
I1
s(Vinsert
p2197
I42
VSimpleName: setUpEnv
p2198
tp2199
I8
s(Vinsert
p2200
I42
VSimpleName: getValueAtPercentile
p2201
tp2202
I4
s(Vinsert
p2203
I42
VSimpleName: mockDashboard
p2204
tp2205
I1
s(Vinsert
p2206
I43
VSimpleType: Iterator
p2207
tp2208
I3
s(Vinsert
p2209
I66
VTextElement:  fake instance of Future
p2210
tp2211
I1
s(Vinsert
p2212
I42
VSimpleName: array
p2213
tp2214
I2
s(Vinsert
p2215
I42
VSimpleName: blockUser
p2216
tp2217
I1
s(Vinsert
p2218
I42
VSimpleName: FALLBACK_MISSING
p2219
tp2220
I1
s(Vinsert
p2221
I42
VSimpleName: trim
p2222
tp2223
I1
s(Vinsert
p2224
I42
VSimpleName: property
p2225
tp2226
I2
s(Vinsert
p2227
I43
VSimpleType: ResponseBuilder
p2228
tp2229
I1
s(Vinsert
p2230
I42
VSimpleName: setAccessible
p2231
tp2232
I4
s(Vinsert
p2233
I42
VSimpleName: filterFunc
p2234
tp2235
I2
s(Vinsert
p2236
I42
VSimpleName: getFallbackExecutionType
p2237
tp2238
I1
s(Vinsert
p2239
I42
VSimpleName: materialize
p2240
tp2241
I1
s(Vinsert
p2242
I42
VSimpleName: UserAccount
p2243
tp2244
I1
s(Vinsert
p2245
I42
VSimpleName: BasicCommandPropertiesTest
p2246
tp2247
I1
s(Vinsert
p2248
I42
VSimpleName: cmd1
p2249
tp2250
I4
s(Vinsert
p2251
I40
VQualifiedName: HystrixRollingNumberEvent.COLLAPSER_REQUEST_BATCHED
p2252
tp2253
I1
s(Vinsert
p2254
I42
VSimpleName: threadFactory
p2255
tp2256
I6
s(Vinsert
p2257
I42
VSimpleName: StringWriter
p2258
tp2259
I8
s(Vinsert
p2260
I42
VSimpleName: healthCountsStream
p2261
tp2262
I2
s(Vinsert
p2263
I42
VSimpleName: existingKey
p2264
tp2265
I1
s(Vinsert
p2266
I43
VSimpleType: CBORFactory
p2267
tp2268
I1
s(Vinsert
p2269
I66
VTextElement:  actually configured maximum size of threadpool
p2270
tp2271
I1
s(Vinsert
p2272
I42
VSimpleName: allUtilizationStream
p2273
tp2274
I1
s(Vinsert
p2275
I45
VStringLiteral: "onFallbackStart"
p2276
tp2277
I1
s(Vinsert
p2278
I45
VStringLiteral: "corePoolSize"
p2279
tp2280
I1
s(Vinsert
p2281
I42
VSimpleName: invoke
p2282
tp2283
I4
s(Vinsert
p2284
I42
VSimpleName: MetaHolder
p2285
tp2286
I6
s(Vinsert
p2287
I42
VSimpleName: HystrixExecutable
p2288
tp2289
I3
s(Vinsert
p2290
I42
VSimpleName: getGenReturnType
p2291
tp2292
I1
s(Vinsert
p2293
I27
VInfixExpression: ==
p2294
tp2295
I37
s(Vinsert
p2296
I43
VSimpleType: BasicErrorPropagationTest
p2297
tp2298
I1
s(Vinsert
p2299
I42
VSimpleName: r2
p2300
tp2301
I2
s(Vinsert
p2302
I9
VBooleanLiteral: true
p2303
tp2304
I25
s(Vinsert
p2305
I43
VSimpleType: EventInput
p2306
tp2307
I1
s(Vinsert
p2308
I42
VSimpleName: sneakyThrow
p2309
tp2310
I2
s(Vinsert
p2311
I42
VSimpleName: HystrixCommandExecutionHookDefault
p2312
tp2313
I1
s(Vinsert
p2314
I42
VSimpleName: observeCommandCompletions
p2315
tp2316
I2
s(Vinsert
p2317
I42
VSimpleName: percent
p2318
tp2319
I1
s(Vinsert
p2320
I42
VSimpleName: cumulativeCounterSubscription
p2321
tp2322
I1
s(Vinsert
p2323
I58
VVariableDeclarationExpression
p2324
tp2325
I4
s(Vinsert
p2326
I45
VStringLiteral: "streaming config data"
p2327
tp2328
I1
s(Vinsert
p2329
I42
VSimpleName: count
p2330
tp2331
I2
s(Vinsert
p2332
I43
VSimpleType: BitSet
p2333
tp2334
I1
s(Vinsert
p2335
I45
VStringLiteral: "Done with collapser observe()s"
p2336
tp2337
I1
s(Vinsert
p2338
I42
VSimpleName: restClient
p2339
tp2340
I1
s(Vinsert
p2341
I42
VSimpleName: getStream
p2342
tp2343
I2
s(Vinsert
p2344
I42
VSimpleName: createOrRetrievePublisherForCollapser
p2345
tp2346
I1
s(Vinsert
p2347
I42
VSimpleName: getCollapserProperties
p2348
tp2349
I2
s(Vinsert
p2350
I42
VSimpleName: getCurrentLargestPoolSize
p2351
tp2352
I2
s(Vinsert
p2353
I43
VSimpleType: Thread
p2354
tp2355
I5
s(Vinsert
p2356
I74
VParameterizedType: Collection<HystrixInvokableInfo<?>>
p2357
tp2358
I1
s(Vinsert
p2359
I42
VSimpleName: T
p2360
tp2361
I27
s(Vinsert
p2362
I42
VSimpleName: eventStreamEnum
p2363
tp2364
I3
s(Vinsert
p2365
I42
VSimpleName: uniqueInt
p2366
tp2367
I1
s(Vinsert
p2368
I42
VSimpleName: arg
p2369
tp2370
I3
s(Vinsert
p2371
I43
VSimpleType: HystrixCommandConfiguration.HystrixCommandCircuitBreakerConfig
p2372
tp2373
I1
s(Vinsert
p2374
I42
VSimpleName: EventStream
p2375
tp2376
I1
s(Vinsert
p2377
I42
VSimpleName: newThreadEventStream
p2378
tp2379
I1
s(Vinsert
p2380
I45
VStringLiteral: "getUser"
p2381
tp2382
I1
s(Vinsert
p2383
I42
VSimpleName: s1
p2384
tp2385
I2
s(Vinsert
p2386
I27
VInfixExpression: /
p2387
tp2388
I2
s(Vinsert
p2389
I42
VSimpleName: HystrixCommandPropertiesTest
p2390
tp2391
I1
s(Vinsert
p2392
I42
VSimpleName: HystrixRequestEventsSseController
p2393
tp2394
I1
s(Vinsert
p2395
I42
VSimpleName: commandIsScalar
p2396
tp2397
I2
s(Vinsert
p2398
I40
VQualifiedName: CollapsedRequestObservableFunction.ResponseHolder
p2399
tp2400
I1
s(Vinsert
p2401
I34
VNumberLiteral: 951990
p2402
tp2403
I1
s(Vinsert
p2404
I74
VParameterizedType: AbstractHystrixCommand<?>
p2405
tp2406
I1
s(Vinsert
p2407
I42
VSimpleName: prefix
p2408
tp2409
I2
s(Vinsert
p2410
I42
VSimpleName: K
p2411
tp2412
I4
s(Vinsert
p2413
I43
VSimpleType: TimerListener
p2414
tp2415
I1
s(Vinsert
p2416
I42
VSimpleName: cumulativeEvents
p2417
tp2418
I4
s(Vinsert
p2419
I45
VStringLiteral: "p90TotalLatency"
p2420
tp2421
I1
s(Vinsert
p2422
I42
VSimpleName: CommandCollapser
p2423
tp2424
I1
s(Vinsert
p2425
I39
VPrimitiveType: double
p2426
tp2427
I3
s(Vinsert
p2428
I42
VSimpleName: doOnError
p2429
tp2430
I1
s(Vinsert
p2431
I42
VSimpleName: testSubscriber1
p2432
tp2433
I2
s(Vinsert
p2434
I43
VSimpleType: CounterMetric
p2435
tp2436
I2
s(Vinsert
p2437
I42
VSimpleName: InterruptedException
p2438
tp2439
I14
s(Vinsert
p2440
I66
VTextElement:  Instead, use 
p2441
tp2442
I1
s(Vinsert
p2443
I42
VSimpleName: paymentInformation
p2444
tp2445
I1
s(Vinsert
p2446
I40
VQualifiedName: rx.functions.Action1
p2447
tp2448
I1
s(Vinsert
p2449
I45
VStringLiteral: "throwNotWrappedCheckedException"
p2450
tp2451
I1
s(Vinsert
p2452
I42
VSimpleName: pType
p2453
tp2454
I3
s(Vinsert
p2455
I42
VSimpleName: asyncCommandWithAsyncFallbackCommand
p2456
tp2457
I2
s(Vinsert
p2458
I45
VStringLiteral: "isForcedClosed"
p2459
tp2460
I1
s(Vinsert
p2461
I74
VParameterizedType: Observable<String>
p2462
tp2463
I8
s(Vinsert
p2464
I42
VSimpleName: writeEndObject
p2465
tp2466
I2
s(Vinsert
p2467
I42
VSimpleName: getAnnotation
p2468
tp2469
I3
s(Vinsert
p2470
I42
VSimpleName: Closure
p2471
tp2472
I1
s(Vinsert
p2473
I42
VSimpleName: HystrixRuntimeException
p2474
tp2475
I3
s(Vinsert
p2476
I42
VSimpleName: newThread
p2477
tp2478
I2
s(Vinsert
p2479
I34
VNumberLiteral: 200
p2480
tp2481
I2
s(Vinsert
p2482
I42
VSimpleName: executionType
p2483
tp2484
I6
s(Vinsert
p2485
I34
VNumberLiteral: 700
p2486
tp2487
I1
s(Vinsert
p2488
I43
VSimpleType: HystrixCollapserMetrics
p2489
tp2490
I3
s(Vinsert
p2491
I66
VTextElement: WITHOUT WARRANTIES OR CONDITIONS OF ANY KIND, either express or implied.
p2492
tp2493
I2
s(Vinsert
p2494
I42
VSimpleName: concurrentConnections
p2495
tp2496
I1
s(Vinsert
p2497
I42
VSimpleName: counterBucketSizeInMs
p2498
tp2499
I4
s(Vinsert
p2500
I42
VSimpleName: failureInjectionHook
p2501
tp2502
I1
s(Vinsert
p2503
I42
VSimpleName: EventInput
p2504
tp2505
I1
s(Vinsert
p2506
I42
VSimpleName: sleepWindow
p2507
tp2508
I1
s(Vinsert
p2509
I42
VSimpleName: HystrixRollingNumberEvent
p2510
tp2511
I13
s(Vinsert
p2512
I66
VTextElement:  is executed and triggers a 
p2513
tp2514
I1
s(Vinsert
p2515
I43
VSimpleType: ServerBootstrap
p2516
tp2517
I2
s(Vinsert
p2518
I42
VSimpleName: CommandAndCacheKey
p2519
tp2520
I2
s(Vinsert
p2521
I42
VSimpleName: isDefault
p2522
tp2523
I1
s(Vinsert
p2524
I42
VSimpleName: withFallbackIsolationSemaphoreMaxConcurrentRequests
p2525
tp2526
I1
s(Vinsert
p2527
I43
VSimpleType: HystrixObservableCommand
p2528
tp2529
I2
s(Vinsert
p2530
I40
VQualifiedName: com.netflix.hystrix.strategy.properties.HystrixPropertiesChainedProperty.forInteger
p2531
tp2532
I2
s(Vinsert
p2533
I42
VSimpleName: getOrderedList
p2534
tp2535
I1
s(Vinsert
p2536
I42
VSimpleName: withGroupKey
p2537
tp2538
I7
s(Vinsert
p2539
I43
VSimpleType: RollingCollapserEventCounterStream
p2540
tp2541
I1
s(Vinsert
p2542
I42
VSimpleName: percentileShardSize
p2543
tp2544
I1
s(Vinsert
p2545
I43
VSimpleType: SerialHystrixMetric
p2546
tp2547
I1
s(Vinsert
p2548
I45
VStringLiteral: ", s2 got : "
p2549
tp2550
I2
s(Vinsert
p2551
I42
VSimpleName: command5
p2552
tp2553
I1
s(Vinsert
p2554
I42
VSimpleName: getCurrentRequest
p2555
tp2556
I25
s(Vinsert
p2557
I42
VSimpleName: executions
p2558
tp2559
I1
s(Vinsert
p2560
I42
VSimpleName: hystrixCommand
p2561
tp2562
I9
s(Vinsert
p2563
I45
VStringLiteral: "propertyValue_actualMaximumSize"
p2564
tp2565
I1
s(Vinsert
p2566
I42
VSimpleName: getInstance
p2567
tp2568
I95
s(Vinsert
p2569
I42
VSimpleName: result
p2570
tp2571
I10
s(Vinsert
p2572
I9
VBooleanLiteral: false
p2573
tp2574
I19
s(Vinsert
p2575
I42
VSimpleName: isArchaiusV1Available
p2576
tp2577
I1
s(Vinsert
p2578
I42
VSimpleName: HttpGet
p2579
tp2580
I1
s(Vinsert
p2581
I66
VTextElement: When a 
p2582
tp2583
I2
s(Vinsert
p2584
I42
VSimpleName: bhState
p2585
tp2586
I2
s(Vinsert
p2587
I45
VStringLiteral: "ThreadPool"
p2588
tp2589
I1
s(Vinsert
p2590
I42
VSimpleName: parser
p2591
tp2592
I1
s(Vinsert
p2593
I66
VTextElement: Clears all state from publishers. If new requests come in instances will be recreated.
p2594
tp2595
I1
s(Vinsert
p2596
I42
VSimpleName: updatedEvents
p2597
tp2598
I1
s(Vinsert
p2599
I42
VSimpleName: onError
p2600
tp2601
I6
s(Vinsert
p2602
I42
VSimpleName: setUpRequestContext
p2603
tp2604
I2
s(Vinsert
p2605
I42
VSimpleName: assertTrue
p2606
tp2607
I35
s(Vinsert
p2608
I74
VParameterizedType: Observable<HystrixLatencyDistribution>
p2609
tp2610
I1
s(Vinsert
p2611
I43
VSimpleType: RollingCommandConcurrencyStream
p2612
tp2613
I1
s(Vinsert
p2614
I74
VParameterizedType: Collection<HystrixCollapser.CollapsedRequest<Object,Object>>
p2615
tp2616
I2
s(Vinsert
p2617
I42
VSimpleName: error
p2618
tp2619
I21
s(Vinsert
p2620
I42
VSimpleName: getCommandGroup
p2621
tp2622
I2
s(Vinsert
p2623
I65
VTagElement
p2624
tp2625
I21
s(Vinsert
p2626
I76
VWildcardType: ? super User
p2627
tp2628
I1
s(Vinsert
p2629
I42
VSimpleName: commandCollapser
p2630
tp2631
I1
s(Vinsert
p2632
I42
VSimpleName: interned
p2633
tp2634
I1
s(Vinsert
p2635
I42
VSimpleName: u2
p2636
tp2637
I1
s(Vinsert
p2638
I43
VSimpleType: Setter
p2639
tp2640
I7
s(Vinsert
p2641
I42
VSimpleName: NUM_EVENT_TYPES
p2642
tp2643
I1
s(Vinsert
p2644
I42
VSimpleName: executionSemaphore
p2645
tp2646
I5
s(Vinsert
p2647
I74
VParameterizedType: Callable<K>
p2648
tp2649
I2
s(Vinsert
p2650
I42
VSimpleName: threadPoolConfig
p2651
tp2652
I1
s(Vinsert
p2653
I74
VParameterizedType: Func0<HystrixEventType>
p2654
tp2655
I1
s(Vinsert
p2656
I40
VQualifiedName: HystrixRollingNumberEvent.FAILURE
p2657
tp2658
I2
s(Vinsert
p2659
I43
VSimpleType: JSONArray
p2660
tp2661
I2
s(Vinsert
p2662
I43
VSimpleType: Promise
p2663
tp2664
I1
s(Vinsert
p2665
I45
VStringLiteral: "3"
p2666
tp2667
I1
s(Vinsert
p2668
I66
VTextElement: Do not create multiple 
p2669
tp2670
I1
s(Vinsert
p2671
I40
VQualifiedName: com.netflix.hystrix.HystrixEventType
p2672
tp2673
I1
s(Vinsert
p2674
I42
VSimpleName: offer
p2675
tp2676
I1
s(Vinsert
p2677
I40
VQualifiedName: HystrixEventType.COLLAPSED
p2678
tp2679
I2
s(Vinsert
p2680
I66
VTextElement:  number of unique 
p2681
tp2682
I1
s(Vinsert
p2683
I42
VSimpleName: RealCollapserTimer
p2684
tp2685
I2
s(Vinsert
p2686
I42
VSimpleName: maxConcurrentConnections
p2687
tp2688
I4
s(Vinsert
p2689
I42
VSimpleName: getKeyParameters
p2690
tp2691
I6
s(Vinsert
p2692
I43
VSimpleType: TestCollapserWithVoidResponseType
p2693
tp2694
I1
s(Vinsert
p2695
I40
VQualifiedName: currentBatch.requests
p2696
tp2697
I1
s(Vinsert
p2698
I34
VNumberLiteral: 11
p2699
tp2700
I1
s(Vinsert
p2701
I42
VSimpleName: timeoutTimer
p2702
tp2703
I1
s(Vinsert
p2704
I42
VSimpleName: getRawType
p2705
tp2706
I4
s(Vinsert
p2707
I42
VSimpleName: Scope
p2708
tp2709
I2
s(Vinsert
p2710
I34
VNumberLiteral: 951195
p2711
tp2712
I1
s(Vinsert
p2713
I43
VSimpleType: PercentileState
p2714
tp2715
I1
s(Vinsert
p2716
I45
VStringLiteral: "x"
p2717
tp2718
I1
s(Vinsert
p2719
I42
VSimpleName: addBatchSize
p2720
tp2721
I1
s(Vinsert
p2722
I42
VSimpleName: sequenceRecorder
p2723
tp2724
I2
s(Vinsert
p2725
I45
VStringLiteral: "latencyTotal_percentile_50"
p2726
tp2727
I1
s(Vinsert
p2728
I42
VSimpleName: initCause
p2729
tp2730
I1
s(Vinsert
p2731
I42
VSimpleName: errorType
p2732
tp2733
I5
s(Vinsert
p2734
I42
VSimpleName: doFilter
p2735
tp2736
I1
s(Vinsert
p2737
I42
VSimpleName: collapser1
p2738
tp2739
I5
s(Vinsert
p2740
I42
VSimpleName: threadId
p2741
tp2742
I1
s(Vinsert
p2743
I42
VSimpleName: single
p2744
tp2745
I3
s(Vinsert
p2746
I42
VSimpleName: getCacheResultInvocationContext
p2747
tp2748
I1
s(Vinsert
p2749
I42
VSimpleName: TagList
p2750
tp2751
I1
s(Vinsert
p2752
I42
VSimpleName: startStreamingThread
p2753
tp2754
I1
s(Vinsert
p2755
I42
VSimpleName: isAnnotationPresent
p2756
tp2757
I2
s(Vinsert
p2758
I42
VSimpleName: HystrixCommandBuilder
p2759
tp2760
I1
s(Vinsert
p2761
I42
VSimpleName: wrapWithAllOnNextHooks
p2762
tp2763
I1
s(Vinsert
p2764
I40
VQualifiedName: com.netflix.hystrix.HystrixCommand
p2765
tp2766
I1
s(Vinsert
p2767
I42
VSimpleName: forBoolean
p2768
tp2769
I4
s(Vinsert
p2770
I42
VSimpleName: prop
p2771
tp2772
I3
s(Vinsert
p2773
I74
VParameterizedType: RequestCollapser<BatchReturnType,ResponseType,RequestArgumentType>
p2774
tp2775
I1
s(Vinsert
p2776
I42
VSimpleName: Inner
p2777
tp2778
I2
s(Vinsert
p2779
I42
VSimpleName: failOnFallback
p2780
tp2781
I1
s(Vinsert
p2782
I34
VNumberLiteral: 3000
p2783
tp2784
I1
s(Vinsert
p2785
I42
VSimpleName: writeCommandMetrics
p2786
tp2787
I1
s(Vinsert
p2788
I42
VSimpleName: fallbackSemaphore
p2789
tp2790
I4
s(Vinsert
p2791
I42
VSimpleName: getProperties
p2792
tp2793
I7
s(Vinsert
p2794
I43
VSimpleType: URL
p2795
tp2796
I1
s(Vinsert
p2797
I42
VSimpleName: lookingFor
p2798
tp2799
I1
s(Vinsert
p2800
I42
VSimpleName: DEFAULT_PAUSE_POLLER_THREAD_DELAY_IN_MS
p2801
tp2802
I2
s(Vinsert
p2803
I42
VSimpleName: toJsonString
p2804
tp2805
I1
s(Vinsert
p2806
I45
VStringLiteral: "onCacheHit"
p2807
tp2808
I1
s(Vinsert
p2809
I74
VParameterizedType: HystrixInvokable<T>
p2810
tp2811
I2
s(Vinsert
p2812
I43
VSimpleType: ObservableCollapserGetWordForNumber
p2813
tp2814
I2
s(Vinsert
p2815
I43
VSimpleType: HttpURLConnection
p2816
tp2817
I2
s(Vinsert
p2818
I66
VTextElement: Note that the caller of the command may not receive this exception, as fallbacks may be served as a response to
p2819
tp2820
I1
s(Vinsert
p2821
I42
VSimpleName: getParameterTypes
p2822
tp2823
I8
s(Vinsert
p2824
I42
VSimpleName: assertSame
p2825
tp2826
I1
s(Vinsert
p2827
I42
VSimpleName: isDone
p2828
tp2829
I1
s(Vinsert
p2830
I42
VSimpleName: actualOnNext
p2831
tp2832
I1
s(Vinsert
p2833
I45
VStringLiteral: "from 'commandOverridesDefaultIgnoreExceptions', cause: "
p2834
tp2835
I1
s(Vinsert
p2836
I43
VSimpleType: Subject
p2837
tp2838
I1
s(Vinsert
p2839
I42
VSimpleName: isolationStrategy
p2840
tp2841
I5
s(Vinsert
p2842
I42
VSimpleName: CommandUsingSemaphoreIsolation
p2843
tp2844
I1
s(Vinsert
p2845
I40
VQualifiedName: ExecutionIsolationStrategy.SEMAPHORE
p2846
tp2847
I1
s(Vinsert
p2848
I42
VSimpleName: commandMetrics
p2849
tp2850
I15
s(Vinsert
p2851
I42
VSimpleName: addCallback
p2852
tp2853
I1
s(Vinsert
p2854
I43
VSimpleType: TestRequestCollapser
p2855
tp2856
I1
s(Vinsert
p2857
I42
VSimpleName: condensedEmitExpectedEventTypes
p2858
tp2859
I1
s(Vinsert
p2860
I40
VQualifiedName: WeavingMode.COMPILE
p2861
tp2862
I2
s(Vinsert
p2863
I42
VSimpleName: semaphoreIsolatedCommandDefaults
p2864
tp2865
I1
s(Vinsert
p2866
I45
VStringLiteral: "New MAX latency : "
p2867
tp2868
I1
s(Vinsert
p2869
I42
VSimpleName: Callable
p2870
tp2871
I2
s(Vinsert
p2872
I34
VNumberLiteral: 0
p2873
tp2874
I58
s(Vinsert
p2875
I42
VSimpleName: before
p2876
tp2877
I1
s(Vinsert
p2878
I40
VQualifiedName: HystrixRollingNumberEvent.THREAD_POOL_REJECTED
p2879
tp2880
I2
s(Vinsert
p2881
I42
VSimpleName: append
p2882
tp2883
I20
s(Vinsert
p2884
I42
VSimpleName: withTag
p2885
tp2886
I3
s(Vinsert
p2887
I42
VSimpleName: subCmd3
p2888
tp2889
I1
s(Vinsert
p2890
I74
VParameterizedType: List<Boolean>
p2891
tp2892
I1
s(Vinsert
p2893
I74
VParameterizedType: List<HystrixEventType>
p2894
tp2895
I1
s(Vinsert
p2896
I70
VEnhancedForStatement
p2897
tp2898
I29
s(Vinsert
p2899
I42
VSimpleName: getRequestURI
p2900
tp2901
I1
s(Vinsert
p2902
I42
VSimpleName: loadCascadedPropertiesFromResources
p2903
tp2904
I2
s(Vinsert
p2905
I42
VSimpleName: BitSet
p2906
tp2907
I1
s(Vinsert
p2908
I42
VSimpleName: HystrixConfigSseController
p2909
tp2910
I1
s(Vinsert
p2911
I42
VSimpleName: toFuture
p2912
tp2913
I2
s(Vinsert
p2914
I43
VSimpleType: Number
p2915
tp2916
I35
s(Vinsert
p2917
I66
VTextElement: , 
p2918
tp2919
I1
s(Vinsert
p2920
I42
VSimpleName: action
p2921
tp2922
I9
s(Vinsert
p2923
I42
VSimpleName: HystrixMetricsPublisherCollapser
p2924
tp2925
I1
s(Vinsert
p2926
I68
VMethodRef
p2927
tp2928
I4
s(Vinsert
p2929
I42
VSimpleName: execute
p2930
tp2931
I33
s(Vinsert
p2932
I74
VParameterizedType: CollapsedRequest<ResponseType,RequestArgumentType>
p2933
tp2934
I6
s(Vinsert
p2935
I42
VSimpleName: Exceptions
p2936
tp2937
I1
s(Vinsert
p2938
I42
VSimpleName: existingPublisher
p2939
tp2940
I1
s(Vinsert
p2941
I42
VSimpleName: getAndIncrement
p2942
tp2943
I1
s(Vinsert
p2944
I43
VSimpleType: HystrixCommandProperties
p2945
tp2946
I5
s(Vinsert
p2947
I43
VSimpleType: Pair
p2948
tp2949
I1
s(Vinsert
p2950
I42
VSimpleName: firstLine
p2951
tp2952
I1
s(Vinsert
p2953
I42
VSimpleName: handleSubscription
p2954
tp2955
I2
s(Vinsert
p2956
I42
VSimpleName: LoggerSupplier
p2957
tp2958
I1
s(Vinsert
p2959
I42
VSimpleName: withMetricsRollingStatisticalWindowInMilliseconds
p2960
tp2961
I1
s(Vinsert
p2962
I43
VSimpleType: BasicCommandFallbackTest
p2963
tp2964
I1
s(Vinsert
p2965
I43
VSimpleType: TestSubscriber
p2966
tp2967
I8
s(Vinsert
p2968
I42
VSimpleName: testBooleanBuilderOverride1
p2969
tp2970
I1
s(Vinsert
p2971
I42
VSimpleName: u4
p2972
tp2973
I2
s(Vinsert
p2974
I74
VParameterizedType: Subscriber<R>
p2975
tp2976
I1
s(Vinsert
p2977
I42
VSimpleName: length
p2978
tp2979
I7
s(Vinsert
p2980
I42
VSimpleName: _cmd
p2981
tp2982
I4
s(Vinsert
p2983
I42
VSimpleName: hcs
p2984
tp2985
I3
s(Vinsert
p2986
I45
VStringLiteral: "throwNotWrappedCheckedExceptionWithFallback"
p2987
tp2988
I1
s(Vinsert
p2989
I42
VSimpleName: wrapCallable
p2990
tp2991
I3
s(Vinsert
p2992
I42
VSimpleName: BeforeClass
p2993
tp2994
I8
s(Vinsert
p2995
I5
VArrayType: HystrixProperty[]
p2996
tp2997
I3
s(Vinsert
p2998
I43
VSimpleType: ExecutorState
p2999
tp3000
I1
s(Vinsert
p3001
I74
VParameterizedType: ResponseHolder<T>
p3002
tp3003
I1
s(Vinsert
p3004
I43
VSimpleType: Field
p3005
tp3006
I1
s(Vinsert
p3007
I42
VSimpleName: Factory
p3008
tp3009
I2
s(Vinsert
p3010
I42
VSimpleName: keySet
p3011
tp3012
I1
s(Vinsert
p3013
I42
VSimpleName: testMultipleCommandsCarryOverMultipleBucketsAndThenAgeOut
p3014
tp3015
I1
s(Vinsert
p3016
I42
VSimpleName: getSampleStream
p3017
tp3018
I1
s(Vinsert
p3019
I42
VSimpleName: parametersBuilder
p3020
tp3021
I1
s(Vinsert
p3022
I42
VSimpleName: testGetMethodFoo
p3023
tp3024
I1
s(Vinsert
p3025
I42
VSimpleName: cmdResults
p3026
tp3027
I1
s(Vinsert
p3028
I43
VSimpleType: TestPropertiesCommand
p3029
tp3030
I1
s(Vinsert
p3031
I42
VSimpleName: testEventNotifierDefaultImpl
p3032
tp3033
I1
s(Vinsert
p3034
I45
VStringLiteral: "ExampleGroup"
p3035
tp3036
I1
s(Vinsert
p3037
I42
VSimpleName: getMethod
p3038
tp3039
I6
s(Vinsert
p3040
I42
VSimpleName: withMaximumSize
p3041
tp3042
I2
s(Vinsert
p3043
I42
VSimpleName: circuitBreakerForceOpen
p3044
tp3045
I1
s(Vinsert
p3046
I66
VTextElement:  of the event to retrieve a sum for
p3047
tp3048
I1
s(Vinsert
p3049
I42
VSimpleName: isResponseThreadPoolRejected
p3050
tp3051
I3
s(Vinsert
p3052
I42
VSimpleName: isDeclined
p3053
tp3054
I1
s(Vinsert
p3055
I65
VTagElement: @link
p3056
tp3057
I23
s(Vinsert
p3058
I42
VSimpleName: initsContext
p3059
tp3060
I1
s(Vinsert
p3061
I72
VEnumConstantDeclaration
p3062
tp3063
I2
s(Vinsert
p3064
I42
VSimpleName: removeByKey
p3065
tp3066
I1
s(Vinsert
p3067
I42
VSimpleName: markFailure
p3068
tp3069
I1
s(Vinsert
p3070
I42
VSimpleName: join
p3071
tp3072
I1
s(Vinsert
p3073
I42
VSimpleName: threadPoolMetrics
p3074
tp3075
I12
s(Vinsert
p3076
I42
VSimpleName: clearProperty
p3077
tp3078
I2
s(Vinsert
p3079
I45
VStringLiteral: "Over 100 instances of HystrixRequestVariable are being stored. This is likely the sign of a memory leak caused by using unique instances of HystrixConcurrencyStrategy instead of a single instance."
p3080
tp3081
I1
s(Vinsert
p3082
I43
VSimpleType: ClassPool
p3083
tp3084
I1
s(Vinsert
p3085
I42
VSimpleName: getCachedCount
p3086
tp3087
I1
s(Vinsert
p3088
I74
VParameterizedType: List<HystrixProperty>
p3089
tp3090
I6
s(Vinsert
p3091
I42
VSimpleName: warn
p3092
tp3093
I10
s(Vinsert
p3094
I42
VSimpleName: RollingCommandEventCounterStream
p3095
tp3096
I2
s(Vinsert
p3097
I42
VSimpleName: format
p3098
tp3099
I2
s(Vinsert
p3100
I43
VSimpleType: CacheKeyGenerator
p3101
tp3102
I2
s(Vinsert
p3103
I42
VSimpleName: getExecutionType
p3104
tp3105
I4
s(Vinsert
p3106
I42
VSimpleName: commandFactory
p3107
tp3108
I1
s(Vinsert
p3109
I42
VSimpleName: Exception
p3110
tp3111
I20
s(Vinsert
p3112
I45
VStringLiteral: "getUserWithoutFallback"
p3113
tp3114
I1
s(Vinsert
p3115
I42
VSimpleName: recordTotalExecutionTime
p3116
tp3117
I1
s(Vinsert
p3118
I43
VSimpleType: HystrixMetricsPublisherCollapser
p3119
tp3120
I1
s(Vinsert
p3121
I74
VParameterizedType: Map.Entry<HystrixRequestEvents.ExecutionSignature,List<Integer>>
p3122
tp3123
I1
s(Vinsert
p3124
I43
VSimpleType: TimeoutCommand
p3125
tp3126
I1
s(Vinsert
p3127
I34
VNumberLiteral: 950925
p3128
tp3129
I1
s(Vinsert
p3130
I45
VStringLiteral: "default"
p3131
tp3132
I1
s(Vinsert
p3133
I43
VSimpleType: HystrixInvokableInfo
p3134
tp3135
I15
s(Vinsert
p3136
I42
VSimpleName: outcomes
p3137
tp3138
I2
s(Vinsert
p3139
I40
VQualifiedName: HystrixCommandKey.Factory
p3140
tp3141
I9
s(Vinsert
p3142
I42
VSimpleName: getThrowable
p3143
tp3144
I1
s(Vinsert
p3145
I42
VSimpleName: withCircuitBreakerRequestVolumeThreshold
p3146
tp3147
I1
s(Vinsert
p3148
I42
VSimpleName: ExecutionIsolationStrategy
p3149
tp3150
I3
s(Vinsert
p3151
I40
VQualifiedName: TimeUnit.MINUTES
p3152
tp3153
I1
s(Vinsert
p3154
I42
VSimpleName: threadPoolEventType
p3155
tp3156
I1
s(Vinsert
p3157
I74
VParameterizedType: Publisher<Payload>
p3158
tp3159
I2
s(Vinsert
p3160
I42
VSimpleName: createCollapserKey
p3161
tp3162
I1
s(Vinsert
p3163
I42
VSimpleName: applicationContext
p3164
tp3165
I1
s(Vinsert
p3166
I42
VSimpleName: CachedValuesHistogram
p3167
tp3168
I2
s(Vinsert
p3169
I42
VSimpleName: readOnlyStream
p3170
tp3171
I2
s(Vinsert
p3172
I42
VSimpleName: task3
p3173
tp3174
I1
s(Vinsert
p3175
I42
VSimpleName: CONFIG_STREAM
p3176
tp3177
I1
s(Vinsert
p3178
I42
VSimpleName: cacheInvocationParameter
p3179
tp3180
I2
s(Vinsert
p3181
I42
VSimpleName: shouldInterruptThread
p3182
tp3183
I4
s(Vinsert
p3184
I74
VParameterizedType: Func0<Boolean>
p3185
tp3186
I3
s(Vinsert
p3187
I42
VSimpleName: getConfigInstance
p3188
tp3189
I2
s(Vinsert
p3190
I42
VSimpleName: start
p3191
tp3192
I5
s(Vinsert
p3193
I42
VSimpleName: Throwable
p3194
tp3195
I40
s(Vinsert
p3196
I42
VSimpleName: ExecutionResult
p3197
tp3198
I4
s(Vinsert
p3199
I66
VTextElement: Actual CollapserTimer implementation for triggering batch execution that uses HystrixTimer.
p3200
tp3201
I1
s(Vinsert
p3202
I42
VSimpleName: CollapsedRequest
p3203
tp3204
I9
s(Vinsert
p3205
I73
VTypeParameter
p3206
tp3207
I4
s(Vinsert
p3208
I42
VSimpleName: await
p3209
tp3210
I4
s(Vinsert
p3211
I42
VSimpleName: MethodProvider
p3212
tp3213
I4
s(Vinsert
p3214
I42
VSimpleName: strategy
p3215
tp3216
I4
s(Vinsert
p3217
I42
VSimpleName: rollingCounterStream
p3218
tp3219
I2
s(Vinsert
p3220
I66
VTextElement: This handles failed completions
p3221
tp3222
I1
s(Vinsert
p3223
I28
VInitializer
p3224
tp3225
I1
s(Vinsert
p3226
I40
VQualifiedName: cmd.commandKey
p3227
tp3228
I1
s(Vinsert
p3229
I43
VSimpleType: Subscriber
p3230
tp3231
I8
s(Vinsert
p3232
I42
VSimpleName: numberOfBuckets
p3233
tp3234
I1
s(Vinsert
p3235
I43
VSimpleType: InterruptedException
p3236
tp3237
I12
s(Vinsert
p3238
I43
VSimpleType: RejectedExecutionException
p3239
tp3240
I2
s(Vinsert
p3241
I42
VSimpleName: CumulativeCommandEventCounterStream
p3242
tp3243
I2
s(Vinsert
p3244
I42
VSimpleName: getMaximumPoolSize
p3245
tp3246
I2
s(Vinsert
p3247
I42
VSimpleName: getSignature
p3248
tp3249
I1
s(Vinsert
p3250
I45
VStringLiteral: "SystemX"
p3251
tp3252
I1
s(Vinsert
p3253
I42
VSimpleName: listApps
p3254
tp3255
I1
s(Vinsert
p3256
I42
VSimpleName: commandInheritsThreadPoolKey
p3257
tp3258
I1
s(Vinsert
p3259
I43
VSimpleType: StringWriter
p3260
tp3261
I5
s(Vinsert
p3262
I65
VTagElement: @ExcludeFromJavadoc
p3263
tp3264
I4
s(Vinsert
p3265
I42
VSimpleName: subscribedTo
p3266
tp3267
I2
s(Vinsert
p3268
I40
VQualifiedName: HystrixEventType.BAD_REQUEST
p3269
tp3270
I2
s(Vinsert
p3271
I42
VSimpleName: defaultProperties
p3272
tp3273
I4
s(Vinsert
p3274
I42
VSimpleName: should_return_correct_execution_type
p3275
tp3276
I1
s(Vinsert
p3277
I42
VSimpleName: sampleStream
p3278
tp3279
I3
s(Vinsert
p3280
I43
VSimpleType: HystrixCommandEvent
p3281
tp3282
I2
s(Vinsert
p3283
I42
VSimpleName: collapserKey
p3284
tp3285
I4
s(Vinsert
p3286
I42
VSimpleName: getCommandProperties
p3287
tp3288
I2
s(Vinsert
p3289
I42
VSimpleName: getBucketedStreamOfCommandCompletions
p3290
tp3291
I1
s(Vinsert
p3292
I43
VSimpleType: MethodSignature
p3293
tp3294
I2
s(Vinsert
p3295
I42
VSimpleName: existing
p3296
tp3297
I2
s(Vinsert
p3298
I42
VSimpleName: getHealthCounts
p3299
tp3300
I3
s(Vinsert
p3301
I42
VSimpleName: archaiusPropertyFactory
p3302
tp3303
I1
s(Vinsert
p3304
I40
VQualifiedName: com.netflix.hystrix.contrib.javanica.utils.EnvUtils.isCompileWeaving
p3305
tp3306
I1
s(Vinsert
p3307
I43
VSimpleType: Action0
p3308
tp3309
I10
s(Vinsert
p3310
I43
VSimpleType: Observable
p3311
tp3312
I33
s(Vinsert
p3313
I42
VSimpleName: testSuccessfulRequestContextWithSemaphoreIsolatedSynchronousObservable
p3314
tp3315
I1
s(Vinsert
p3316
I40
VQualifiedName: HystrixRollingNumberEvent.EMIT
p3317
tp3318
I2
s(Vinsert
p3319
I42
VSimpleName: sb
p3320
tp3321
I3
s(Vinsert
p3322
I42
VSimpleName: currentRequestLog
p3323
tp3324
I4
s(Vinsert
p3325
I43
VSimpleType: Runnable
p3326
tp3327
I5
s(Vinsert
p3328
I42
VSimpleName: fallback
p3329
tp3330
I3
s(Vinsert
p3331
I42
VSimpleName: HystrixThreadEventStream
p3332
tp3333
I3
s(Vinsert
p3334
I42
VSimpleName: collapsedRequests
p3335
tp3336
I7
s(Vinsert
p3337
I74
VParameterizedType: AtomicReference<Histogram>
p3338
tp3339
I1
s(Vinsert
p3340
I42
VSimpleName: getAppEngineThreadFactory
p3341
tp3342
I4
s(Vinsert
p3343
I42
VSimpleName: ObservableErrorPropagationTest
p3344
tp3345
I1
s(Vinsert
p3346
I66
VTextElement: Time in Nanos when this command instance's run method was called, or -1 if not executed 
p3347
tp3348
I1
s(Vinsert
p3349
I43
VSimpleType: T
p3350
tp3351
I22
s(Vinsert
p3352
I42
VSimpleName: threads
p3353
tp3354
I1
s(Vinsert
p3355
I42
VSimpleName: IntegerProperty
p3356
tp3357
I1
s(Vinsert
p3358
I42
VSimpleName: onNext
p3359
tp3360
I5
s(Vinsert
p3361
I42
VSimpleName: onUnsubscribe
p3362
tp3363
I1
s(Vinsert
p3364
I42
VSimpleName: MatcherAssert
p3365
tp3366
I1
s(Vinsert
p3367
I42
VSimpleName: create
p3368
tp3369
I10
s(Vinsert
p3370
I42
VSimpleName: rollingDistributionSubscription
p3371
tp3372
I1
s(Vinsert
p3373
I42
VSimpleName: isCollapserAnnotationPresent
p3374
tp3375
I2
s(Vinsert
p3376
I40
VQualifiedName: Factory.threadPools
p3377
tp3378
I2
s(Vinsert
p3379
I42
VSimpleName: writeHeavyLatencyAdd
p3380
tp3381
I1
s(Vinsert
p3382
I42
VSimpleName: getIntervalHistogram
p3383
tp3384
I1
s(Vinsert
p3385
I42
VSimpleName: toMap
p3386
tp3387
I1
s(Vinsert
p3388
I74
VParameterizedType: Observable<Boolean>
p3389
tp3390
I4
s(Vinsert
p3391
I42
VSimpleName: getAuthorizationCode
p3392
tp3393
I1
s(Vinsert
p3394
I42
VSimpleName: doOnSubscribe
p3395
tp3396
I2
s(Vinsert
p3397
I43
VSimpleType: Command
p3398
tp3399
I3
s(Vinsert
p3400
I38
VPrefixExpression: -
p3401
tp3402
I2
s(Vinsert
p3403
I42
VSimpleName: propSetter
p3404
tp3405
I2
s(Vinsert
p3406
I43
VSimpleType: HystrixCommandUtilization
p3407
tp3408
I4
s(Vinsert
p3409
I42
VSimpleName: FallbackDefinitionException
p3410
tp3411
I1
s(Vinsert
p3412
I42
VSimpleName: command3
p3413
tp3414
I4
s(Vinsert
p3415
I42
VSimpleName: field
p3416
tp3417
I2
s(Vinsert
p3418
I43
VSimpleType: ThreadPoolExecutor
p3419
tp3420
I2
s(Vinsert
p3421
I42
VSimpleName: AbstractHystrixStreamController
p3422
tp3423
I4
s(Vinsert
p3424
I42
VSimpleName: decorated
p3425
tp3426
I2
s(Vinsert
p3427
I42
VSimpleName: observedCommandDuration
p3428
tp3429
I2
s(Vinsert
p3430
I45
VStringLiteral: "HystrixMetricsPollerTest"
p3431
tp3432
I1
s(Vinsert
p3433
I43
VSimpleType: UserAccount
p3434
tp3435
I1
s(Vinsert
p3436
I43
VSimpleType: MyCollapser
p3437
tp3438
I2
s(Vinsert
p3439
I43
VSimpleType: MonitorConfig
p3440
tp3441
I2
s(Vinsert
p3442
I42
VSimpleName: executionTimeoutEnabled
p3443
tp3444
I1
s(Vinsert
p3445
I42
VSimpleName: call
p3446
tp3447
I68
s(Vinsert
p3448
I43
VSimpleType: ProceedingJoinPoint
p3449
tp3450
I2
s(Vinsert
p3451
I40
VQualifiedName: HystrixProperty.Factory
p3452
tp3453
I7
s(Vinsert
p3454
I85
VDimension
p3455
tp3456
I49
s(Vinsert
p3457
I40
VQualifiedName: Level.Invocation
p3458
tp3459
I2
s(Vinsert
p3460
I42
VSimpleName: verifyZeroInteractions
p3461
tp3462
I1
s(Vinsert
p3463
I42
VSimpleName: createWorker
p3464
tp3465
I2
s(Vinsert
p3466
I43
VSimpleType: HystrixException
p3467
tp3468
I2
s(Vinsert
p3469
I42
VSimpleName: commandActions
p3470
tp3471
I3
s(Vinsert
p3472
I42
VSimpleName: t1
p3473
tp3474
I4
s(Vinsert
p3475
I42
VSimpleName: bucketedCounterMetrics
p3476
tp3477
I2
s(Vinsert
p3478
I66
VTextElement:  T with initial value or null if none.
p3479
tp3480
I1
s(Vinsert
p3481
I42
VSimpleName: POOL
p3482
tp3483
I1
s(Vinsert
p3484
I40
VQualifiedName: java.util.concurrent.ExecutorService
p3485
tp3486
I2
s(Vinsert
p3487
I42
VSimpleName: Func2
p3488
tp3489
I1
s(Vinsert
p3490
I42
VSimpleName: numEmissions
p3491
tp3492
I1
s(Vinsert
p3493
I42
VSimpleName: setResponse
p3494
tp3495
I2
s(Vinsert
p3496
I42
VSimpleName: hook
p3497
tp3498
I4
s(Vinsert
p3499
I42
VSimpleName: createCacheResultInvocationContext
p3500
tp3501
I1
s(Vinsert
p3502
I42
VSimpleName: writeHeavyCommandExecution
p3503
tp3504
I1
s(Vinsert
p3505
I43
VSimpleType: HystrixBadRequestException
p3506
tp3507
I5
s(Vinsert
p3508
I42
VSimpleName: is
p3509
tp3510
I2
s(Vinsert
p3511
I42
VSimpleName: empty
p3512
tp3513
I4
s(Vinsert
p3514
I42
VSimpleName: threadIsolatedCommandDefaults
p3515
tp3516
I1
s(Vinsert
p3517
I40
VQualifiedName: HystrixEventType.ThreadPool
p3518
tp3519
I8
s(Vinsert
p3520
I40
VQualifiedName: HystrixEventType.FALLBACK_SUCCESS
p3521
tp3522
I2
s(Vinsert
p3523
I42
VSimpleName: HystrixMetricsStreamController
p3524
tp3525
I1
s(Vinsert
p3526
I42
VSimpleName: isSuccessfulExecution
p3527
tp3528
I1
s(Vinsert
p3529
I45
VStringLiteral: "latencyExecute_percentile_50"
p3530
tp3531
I2
s(Vinsert
p3532
I43
VSimpleType: NoRequestCacheTimeoutWithoutFallback
p3533
tp3534
I2
s(Vinsert
p3535
I42
VSimpleName: def
p3536
tp3537
I1
s(Vinsert
p3538
I42
VSimpleName: Feature
p3539
tp3540
I1
s(Vinsert
p3541
I42
VSimpleName: utilization
p3542
tp3543
I3
s(Vinsert
p3544
I66
VTextElement:  Throwable or null
p3545
tp3546
I1
s(Vinsert
p3547
I42
VSimpleName: getSetterBuilder
p3548
tp3549
I1
s(Vinsert
p3550
I42
VSimpleName: HystrixCacheKeyGeneratorException
p3551
tp3552
I1
s(Vinsert
p3553
I42
VSimpleName: markTimeout
p3554
tp3555
I2
s(Vinsert
p3556
I42
VSimpleName: containsFromMap
p3557
tp3558
I3
s(Vinsert
p3559
I42
VSimpleName: getCurrentConnections
p3560
tp3561
I1
s(Vinsert
p3562
I42
VSimpleName: Output
p3563
tp3564
I1
s(Vinsert
p3565
I42
VSimpleName: parameter
p3566
tp3567
I1
s(Vinsert
p3568
I42
VSimpleName: andCommandPropertiesDefaults
p3569
tp3570
I1
s(Vinsert
p3571
I43
VSimpleType: HystrixThreadPoolEventStream
p3572
tp3573
I2
s(Vinsert
p3574
I78
VMarkerAnnotation
p3575
tp3576
I156
s(Vinsert
p3577
I43
VSimpleType: com.netflix.hystrix.HystrixInvokableInfo
p3578
tp3579
I2
s(Vinsert
p3580
I42
VSimpleName: load
p3581
tp3582
I1
s(Vinsert
p3583
I42
VSimpleName: createExecutionLatencyPercentileGauge
p3584
tp3585
I1
s(Vinsert
p3586
I42
VSimpleName: MyHystrixCommandProperties
p3587
tp3588
I1
s(Vinsert
p3589
I42
VSimpleName: fallbackEnabled
p3590
tp3591
I2
s(Vinsert
p3592
I43
VSimpleType: ResponseType
p3593
tp3594
I11
s(Vinsert
p3595
I43
VSimpleType: NoSuchMethodException
p3596
tp3597
I1
s(Vinsert
p3598
I42
VSimpleName: arrayFormat
p3599
tp3600
I1
s(Vinsert
p3601
I42
VSimpleName: ex2
p3602
tp3603
I2
s(Vinsert
p3604
I42
VSimpleName: proxyObj
p3605
tp3606
I2
s(Vinsert
p3607
I42
VSimpleName: subscriber
p3608
tp3609
I10
s(Vinsert
p3610
I42
VSimpleName: allowRequest
p3611
tp3612
I3
s(Vinsert
p3613
I83
VModifier: public
p3614
tp3615
I243
s(Vinsert
p3616
I43
VSimpleType: HystrixExecutable
p3617
tp3618
I3
s(Vinsert
p3619
I42
VSimpleName: RX_TYPES
p3620
tp3621
I1
s(Vinsert
p3622
I42
VSimpleName: response1
p3623
tp3624
I1
s(Vinsert
p3625
I42
VSimpleName: isTerminated
p3626
tp3627
I1
s(Vinsert
p3628
I42
VSimpleName: valueInTimeout
p3629
tp3630
I1
s(Vinsert
p3631
I42
VSimpleName: rootNode
p3632
tp3633
I1
s(Vinsert
p3634
I42
VSimpleName: isAppEngine
p3635
tp3636
I3
s(Vinsert
p3637
I42
VSimpleName: scan
p3638
tp3639
I5
s(Vinsert
p3640
I42
VSimpleName: Reference
p3641
tp3642
I1
s(Vinsert
p3643
I42
VSimpleName: thread
p3644
tp3645
I2
s(Vinsert
p3646
I42
VSimpleName: httpCookie
p3647
tp3648
I1
s(Vinsert
p3649
I42
VSimpleName: cache
p3650
tp3651
I1
s(Vinsert
p3652
I40
VQualifiedName: FailureType.TIMEOUT
p3653
tp3654
I1
s(Vinsert
p3655
I66
VTextElement: This can be treated as an async operation as it just adds a references to "this" in the log even if the current command is still executing.
p3656
tp3657
I1
s(Vinsert
p3658
I42
VSimpleName: HystrixInvokable
p3659
tp3660
I2
s(Vinsert
p3661
I42
VSimpleName: latest
p3662
tp3663
I2
s(Vinsert
p3664
I42
VSimpleName: getParameter
p3665
tp3666
I4
s(Vinsert
p3667
I42
VSimpleName: ReplaySubject
p3668
tp3669
I4
s(Vinsert
p3670
I42
VSimpleName: getBlockingQueue
p3671
tp3672
I2
s(Vinsert
p3673
I42
VSimpleName: getTotalLatencyPercentile
p3674
tp3675
I1
s(Vinsert
p3676
I42
VSimpleName: Field
p3677
tp3678
I1
s(Vinsert
p3679
I45
VStringLiteral: "Rejection-Fallback"
p3680
tp3681
I1
s(Vinsert
p3682
I45
VStringLiteral: "propertyValue_requestCacheEnabled"
p3683
tp3684
I1
s(Vinsert
p3685
I43
VSimpleType: Closure
p3686
tp3687
I1
s(Vinsert
p3688
I43
VSimpleType: CollapserTimer
p3689
tp3690
I2
s(Vinsert
p3691
I42
VSimpleName: executor
p3692
tp3693
I8
s(Vinsert
p3694
I42
VSimpleName: numRequested
p3695
tp3696
I1
s(Vinsert
p3697
I42
VSimpleName: HystrixLatencyDistribution
p3698
tp3699
I8
s(Vinsert
p3700
I40
VQualifiedName: HystrixEventType.Collapser.BATCH_EXECUTED
p3701
tp3702
I1
s(Vinsert
p3703
I42
VSimpleName: ConcurrentUtils
p3704
tp3705
I1
s(Vinsert
p3706
I43
VSimpleType: HystrixContextScheduler
p3707
tp3708
I6
s(Vinsert
p3709
I7
VAssignment: +=
p3710
tp3711
I4
s(Vinsert
p3712
I40
VQualifiedName: HystrixEventType.TERMINAL_EVENT_TYPES
p3713
tp3714
I1
s(Vinsert
p3715
I42
VSimpleName: endCurrentThread
p3716
tp3717
I1
s(Vinsert
p3718
I74
VParameterizedType: Supplier<List<HystrixProperty>>
p3719
tp3720
I1
s(Vinsert
p3721
I74
VParameterizedType: ServiceLoader<HystrixDynamicProperties>
p3722
tp3723
I1
s(Vinsert
p3724
I42
VSimpleName: b2
p3725
tp3726
I2
s(Vinsert
p3727
I42
VSimpleName: handler
p3728
tp3729
I3
s(Vinsert
p3730
I27
VInfixExpression: -
p3731
tp3732
I5
s(Vinsert
p3733
I42
VSimpleName: setter
p3734
tp3735
I10
s(Vinsert
p3736
I42
VSimpleName: bucketData
p3737
tp3738
I1
s(Vinsert
p3739
I40
VQualifiedName: CommandStreamTest.Command
p3740
tp3741
I4
s(Vinsert
p3742
I42
VSimpleName: values
p3743
tp3744
I11
s(Vinsert
p3745
I43
VSimpleType: Action
p3746
tp3747
I1
s(Vinsert
p3748
I42
VSimpleName: RollingCollapserEventCounterStream
p3749
tp3750
I2
s(Vinsert
p3751
I42
VSimpleName: testSuccess
p3752
tp3753
I2
s(Vinsert
p3754
I43
VSimpleType: CommandWithLargeThreadPoolSmallQueue
p3755
tp3756
I1
s(Vinsert
p3757
I42
VSimpleName: getStartTimestamp
p3758
tp3759
I5
s(Vinsert
p3760
I66
VTextElement: in the same HystrixRequestContext will respond from cache.
p3761
tp3762
I1
s(Vinsert
p3763
I42
VSimpleName: incrementConcurrentExecutionCount
p3764
tp3765
I2
s(Vinsert
p3766
I42
VSimpleName: Thread
p3767
tp3768
I33
s(Vinsert
p3769
I42
VSimpleName: Integer
p3770
tp3771
I52
s(Vinsert
p3772
I42
VSimpleName: writeOnlyRequestEventsSubject
p3773
tp3774
I1
s(Vinsert
p3775
I42
VSimpleName: threadPoolDefaults
p3776
tp3777
I1
s(Vinsert
p3778
I42
VSimpleName: orderId
p3779
tp3780
I4
s(Vinsert
p3781
I42
VSimpleName: servlet
p3782
tp3783
I4
s(Vinsert
p3784
I42
VSimpleName: semaphore
p3785
tp3786
I2
s(Vinsert
p3787
I42
VSimpleName: ServletException
p3788
tp3789
I3
s(Vinsert
p3790
I74
VParameterizedType: CollapsedRequest<Object,Object>
p3791
tp3792
I1
s(Vinsert
p3793
I45
VStringLiteral: "Missing fallback status!"
p3794
tp3795
I1
s(Vinsert
p3796
I42
VSimpleName: weavingMode
p3797
tp3798
I2
s(Vinsert
p3799
I43
VSimpleType: TagList
p3800
tp3801
I1
s(Vinsert
p3802
I42
VSimpleName: compareAndSet
p3803
tp3804
I10
s(Vinsert
p3805
I42
VSimpleName: metric
p3806
tp3807
I2
s(Vinsert
p3808
I45
VStringLiteral: "  Started: "
p3809
tp3810
I1
s(Vinsert
p3811
I4
VArrayInitializer
p3812
tp3813
I1
s(Vinsert
p3814
I43
VSimpleType: HystrixRequestContext
p3815
tp3816
I15
s(Vinsert
p3817
I45
VStringLiteral: "Observed command time : "
p3818
tp3819
I1
s(Vinsert
p3820
I66
VTextElement:  sampled utilization as JSON string, taken on a timer
p3821
tp3822
I1
s(Vinsert
p3823
I42
VSimpleName: executable
p3824
tp3825
I3
s(Vinsert
p3826
I74
VParameterizedType: Promise<T>
p3827
tp3828
I1
s(Vinsert
p3829
I42
VSimpleName: getDefaultProperties
p3830
tp3831
I1
s(Vinsert
p3832
I40
VQualifiedName: _self.isCommandTimedOut
p3833
tp3834
I1
s(Vinsert
p3835
I42
VSimpleName: emptyCounterListsToStart
p3836
tp3837
I1
s(Vinsert
p3838
I42
VSimpleName: HttpCookie
p3839
tp3840
I1
s(Vinsert
p3841
I74
VParameterizedType: Subscriber<? super Boolean>
p3842
tp3843
I1
s(Vinsert
p3844
I45
VStringLiteral: "Exception: "
p3845
tp3846
I1
s(Vinsert
p3847
I42
VSimpleName: startTimestamp
p3848
tp3849
I3
s(Vinsert
p3850
I42
VSimpleName: SuccessfulCacheableCollapsedCommand
p3851
tp3852
I1
s(Vinsert
p3853
I42
VSimpleName: findAll
p3854
tp3855
I1
s(Vinsert
p3856
I42
VSimpleName: timeout
p3857
tp3858
I2
s(Vinsert
p3859
I43
VSimpleType: DummyCommand
p3860
tp3861
I1
s(Vinsert
p3862
I42
VSimpleName: HystrixMetricsPublisherFactoryTest
p3863
tp3864
I1
s(Vinsert
p3865
I42
VSimpleName: signature
p3866
tp3867
I6
s(Vinsert
p3868
I42
VSimpleName: toCompletable
p3869
tp3870
I1
s(Vinsert
p3871
I43
VSimpleType: HystrixMetricsPublisherCommand
p3872
tp3873
I1
s(Vinsert
p3874
I43
VSimpleType: Annotation
p3875
tp3876
I1
s(Vinsert
p3877
I74
VParameterizedType: TestSubscriber<String>
p3878
tp3879
I2
s(Vinsert
p3880
I42
VSimpleName: System
p3881
tp3882
I26
s(Vinsert
p3883
I42
VSimpleName: injected
p3884
tp3885
I2
s(Vinsert
p3886
I42
VSimpleName: task
p3887
tp3888
I2
s(Vinsert
p3889
I40
VQualifiedName: command.builder.executionHook.runFailureException
p3890
tp3891
I2
s(Vinsert
p3892
I42
VSimpleName: doOnTerminate
p3893
tp3894
I2
s(Vinsert
p3895
I74
VParameterizedType: Action1<Inner>
p3896
tp3897
I2
s(Vinsert
p3898
I43
VSimpleType: TestCommandBuilder
p3899
tp3900
I4
s(Vinsert
p3901
I43
VSimpleType: HystrixLatencyDistribution
p3902
tp3903
I7
s(Vinsert
p3904
I40
VQualifiedName: HystrixEventType.EMIT
p3905
tp3906
I2
s(Vinsert
p3907
I40
VQualifiedName: HystrixEventType.EXCEPTION_PRODUCING_EVENT_TYPES
p3908
tp3909
I1
s(Vinsert
p3910
I45
VStringLiteral: "4a"
p3911
tp3912
I1
s(Vinsert
p3913
I42
VSimpleName: getName
p3914
tp3915
I19
s(Vinsert
p3916
I43
VSimpleType: HystrixMetricsCollection
p3917
tp3918
I1
s(Vinsert
p3919
I42
VSimpleName: getFallbackMethod
p3920
tp3921
I2
s(Vinsert
p3922
I40
VQualifiedName: state.executorService
p3923
tp3924
I1
s(Vinsert
p3925
I42
VSimpleName: types
p3926
tp3927
I1
s(Vinsert
p3928
I42
VSimpleName: getCumulativeSum
p3929
tp3930
I5
s(Vinsert
p3931
I74
VParameterizedType: Func1<Histogram,CachedValuesHistogram>
p3932
tp3933
I1
s(Vinsert
p3934
I24
VForStatement
p3935
tp3936
I4
s(Vinsert
p3937
I42
VSimpleName: getStatsStringFromMetrics
p3938
tp3939
I1
s(Vinsert
p3940
I42
VSimpleName: commandContainsFallback
p3941
tp3942
I1
s(Vinsert
p3943
I5
VArrayType: long[]
p3944
tp3945
I20
s(Vinsert
p3946
I66
VTextElement: Store JSON messages in a queue.
p3947
tp3948
I1
s(Vinsert
p3949
I42
VSimpleName: getResponse
p3950
tp3951
I1
s(Vinsert
p3952
I42
VSimpleName: HystrixDynamicProperty
p3953
tp3954
I1
s(Vinsert
p3955
I42
VSimpleName: SetterCommand
p3956
tp3957
I1
s(Vinsert
p3958
I42
VSimpleName: aggregateHistogram
p3959
tp3960
I4
s(Vinsert
p3961
I42
VSimpleName: onRunStart
p3962
tp3963
I1
s(Vinsert
p3964
I42
VSimpleName: constantFuture
p3965
tp3966
I1
s(Vinsert
p3967
I43
VSimpleType: HystrixConfiguration
p3968
tp3969
I2
s(Vinsert
p3970
I42
VSimpleName: tpm
p3971
tp3972
I2
s(Vinsert
p3973
I42
VSimpleName: ObservableTest
p3974
tp3975
I1
s(Vinsert
p3976
I42
VSimpleName: timestamp
p3977
tp3978
I2
s(Vinsert
p3979
I42
VSimpleName: top
p3980
tp3981
I1
s(Vinsert
p3982
I42
VSimpleName: RollingThreadPoolConcurrencyStream
p3983
tp3984
I2
s(Vinsert
p3985
I42
VSimpleName: CommandActionExecutionException
p3986
tp3987
I4
s(Vinsert
p3988
I42
VSimpleName: overall
p3989
tp3990
I1
s(Vinsert
p3991
I42
VSimpleName: verifyStream
p3992
tp3993
I1
s(Vinsert
p3994
I42
VSimpleName: f3
p3995
tp3996
I2
s(Vinsert
p3997
I42
VSimpleName: EventStreamRequestHandler
p3998
tp3999
I1
s(Vinsert
p4000
I42
VSimpleName: coreSizePropertyValue
p4001
tp4002
I1
s(Vinsert
p4003
I42
VSimpleName: getRequestContext
p4004
tp4005
I1
s(Vinsert
p4006
I42
VSimpleName: aClass
p4007
tp4008
I1
s(Vinsert
p4009
I74
VParameterizedType: Subject<Void,Void>
p4010
tp4011
I1
s(Vinsert
p4012
I42
VSimpleName: ErrorPropagationTest
p4013
tp4014
I1
s(Vinsert
p4015
I42
VSimpleName: eventType
p4016
tp4017
I17
s(Vinsert
p4018
I42
VSimpleName: buildObservableCommandSetter
p4019
tp4020
I1
s(Vinsert
p4021
I48
VSuperMethodInvocation
p4022
tp4023
I4
s(Vinsert
p4024
I45
VStringLiteral: "Execution Sync OOME for TestHystrixObservableCommand"
p4025
tp4026
I1
s(Vinsert
p4027
I42
VSimpleName: matchesFilter
p4028
tp4029
I1
s(Vinsert
p4030
I42
VSimpleName: Number
p4031
tp4032
I35
s(Vinsert
p4033
I42
VSimpleName: getExecutedCommandsKeys
p4034
tp4035
I1
s(Vinsert
p4036
I42
VSimpleName: getUserAsyncWithFallbackCommand
p4037
tp4038
I2
s(Vinsert
p4039
I42
VSimpleName: numInFlight
p4040
tp4041
I2
s(Vinsert
p4042
I45
VStringLiteral: " not found"
p4043
tp4044
I1
s(Vinsert
p4045
I42
VSimpleName: getCurrentThreadExecutingCommand
p4046
tp4047
I2
s(Vinsert
p4048
I42
VSimpleName: TimeoutCommand
p4049
tp4050
I1
s(Vinsert
p4051
I42
VSimpleName: concurrentExecutionCount
p4052
tp4053
I4
s(Vinsert
p4054
I42
VSimpleName: orderMetrics
p4055
tp4056
I1
s(Vinsert
p4057
I42
VSimpleName: writeOnlySubject
p4058
tp4059
I2
s(Vinsert
p4060
I42
VSimpleName: moreDataWillBeSent
p4061
tp4062
I1
s(Vinsert
p4063
I42
VSimpleName: command
p4064
tp4065
I48
s(Vinsert
p4066
I65
VTagElement: @author
p4067
tp4068
I1
s(Vinsert
p4069
I42
VSimpleName: numberConnections
p4070
tp4071
I3
s(Vinsert
p4072
I42
VSimpleName: ignoreExceptions
p4073
tp4074
I4
s(Vinsert
p4075
I42
VSimpleName: executionSequence
p4076
tp4077
I2
s(Vinsert
p4078
I42
VSimpleName: getExecutions
p4079
tp4080
I1
s(Vinsert
p4081
I42
VSimpleName: allObservables
p4082
tp4083
I1
s(Vinsert
p4084
I42
VSimpleName: metrics
p4085
tp4086
I50
s(Vinsert
p4087
I42
VSimpleName: batchCommandMethod
p4088
tp4089
I1
s(Vinsert
p4090
I42
VSimpleName: hystrixCollapser
p4091
tp4092
I3
s(Vinsert
p4093
I42
VSimpleName: getTotalCount
p4094
tp4095
I2
s(Vinsert
p4096
I42
VSimpleName: eventTypeCounts
p4097
tp4098
I2
s(Vinsert
p4099
I42
VSimpleName: p90
p4100
tp4101
I1
s(Vinsert
p4102
I42
VSimpleName: wrappedThrowable
p4103
tp4104
I1
s(Vinsert
p4105
I19
VDoStatement
p4106
tp4107
I1
s(Vinsert
p4108
I42
VSimpleName: DefaultProperties
p4109
tp4110
I4
s(Vinsert
p4111
I60
VVariableDeclarationStatement
p4112
tp4113
I249
s(Vinsert
p4114
I42
VSimpleName: HystrixMetricsStreamServlet
p4115
tp4116
I2
s(Vinsert
p4117
I42
VSimpleName: run
p4118
tp4119
I9
s(Vinsert
p4120
I43
VSimpleType: HystrixThreadPool
p4121
tp4122
I3
s(Vinsert
p4123
I42
VSimpleName: threadPoolKey
p4124
tp4125
I17
s(Vinsert
p4126
I42
VSimpleName: r3
p4127
tp4128
I2
s(Vinsert
p4129
I66
VTextElement: Base properties for unit testing.
p4130
tp4131
I2
s(Vinsert
p4132
I42
VSimpleName: dataEmissionIntervalInMs
p4133
tp4134
I3
s(Vinsert
p4135
I43
VSimpleType: HystrixDynamicProperties
p4136
tp4137
I2
s(Vinsert
p4138
I43
VSimpleType: HystrixConcurrencyStrategy
p4139
tp4140
I1
s(Vinsert
p4141
I43
VSimpleType: IntCountsHistogram
p4142
tp4143
I1
s(Vinsert
p4144
I66
VTextElement: If it has been sitting in the queue, it should not execute if timed out by the time it hits the queue.
p4145
tp4146
I1
s(Vinsert
p4147
I42
VSimpleName: singleSource
p4148
tp4149
I1
s(Vinsert
p4150
I42
VSimpleName: propertiesFactory
p4151
tp4152
I1
s(Vinsert
p4153
I42
VSimpleName: cachedObservable
p4154
tp4155
I1
s(Vinsert
p4156
I42
VSimpleName: tl
p4157
tp4158
I2
s(Vinsert
p4159
I22
VFieldAccess
p4160
tp4161
I70
s(Vinsert
p4162
I42
VSimpleName: service
p4163
tp4164
I3
s(Vinsert
p4165
I45
VStringLiteral: "Expected 1 in flight but got : "
p4166
tp4167
I1
s(Vinsert
p4168
I42
VSimpleName: scheduler
p4169
tp4170
I1
s(Vinsert
p4171
I42
VSimpleName: apply
p4172
tp4173
I2
s(Vinsert
p4174
I42
VSimpleName: HystrixRequestContext
p4175
tp4176
I41
s(Vinsert
p4177
I42
VSimpleName: createErrorMsg
p4178
tp4179
I1
s(Vinsert
p4180
I42
VSimpleName: getData
p4181
tp4182
I7
s(Vinsert
p4183
I42
VSimpleName: PercentileState
p4184
tp4185
I1
s(Vinsert
p4186
I43
VSimpleType: ClassNotFoundException
p4187
tp4188
I2
s(Vinsert
p4189
I43
VSimpleType: ServiceLoader
p4190
tp4191
I1
s(Vinsert
p4192
I42
VSimpleName: getAllExecutedCommands
p4193
tp4194
I7
s(Vinsert
p4195
I43
VSimpleType: ParameterizedType
p4196
tp4197
I2
s(Vinsert
p4198
I42
VSimpleName: threadPoolStream
p4199
tp4200
I1
s(Vinsert
p4201
I42
VSimpleName: markEvent
p4202
tp4203
I6
s(Vinsert
p4204
I42
VSimpleName: metricsPublisher
p4205
tp4206
I2
s(Vinsert
p4207
I40
VQualifiedName: methodSignature.name
p4208
tp4209
I1
s(Vinsert
p4210
I42
VSimpleName: HystrixConcurrencyStrategyTestImpl
p4211
tp4212
I1
s(Vinsert
p4213
I40
VQualifiedName: CommandOwnerForUnitTest.OWNER_ONE
p4214
tp4215
I1
s(Vinsert
p4216
I42
VSimpleName: cborFactory
p4217
tp4218
I1
s(Vinsert
p4219
I45
VStringLiteral: "requestCacheEnabled"
p4220
tp4221
I1
s(Vinsert
p4222
I42
VSimpleName: responseThreads
p4223
tp4224
I1
s(Vinsert
p4225
I42
VSimpleName: HystrixConfiguration
p4226
tp4227
I2
s(Vinsert
p4228
I42
VSimpleName: PercentileBucketData
p4229
tp4230
I1
s(Vinsert
p4231
I43
VSimpleType: CacheKey
p4232
tp4233
I1
s(Vinsert
p4234
I42
VSimpleName: observeOn
p4235
tp4236
I1
s(Vinsert
p4237
I42
VSimpleName: maxNumberConnectionsAllowed
p4238
tp4239
I2
s(Vinsert
p4240
I42
VSimpleName: subscribe
p4241
tp4242
I10
s(Vinsert
p4243
I42
VSimpleName: executedCommands
p4244
tp4245
I2
s(Vinsert
p4246
I42
VSimpleName: getErrorPercentage
p4247
tp4248
I2
s(Vinsert
p4249
I40
VQualifiedName: HystrixThreadPool.HystrixThreadPoolDefault
p4250
tp4251
I1
s(Vinsert
p4252
I45
VStringLiteral: "mockKey"
p4253
tp4254
I1
s(Vinsert
p4255
I42
VSimpleName: timeInMilliseconds
p4256
tp4257
I1
s(Vinsert
p4258
I5
VArrayType: Object[]
p4259
tp4260
I8
s(Vinsert
p4261
I42
VSimpleName: hasFirstParameter
p4262
tp4263
I1
s(Vinsert
p4264
I42
VSimpleName: pausePollerThreadDelayInMs
p4265
tp4266
I1
s(Vinsert
p4267
I42
VSimpleName: String
p4268
tp4269
I99
s(Vinsert
p4270
I42
VSimpleName: coreSize
p4271
tp4272
I7
s(Vinsert
p4273
I42
VSimpleName: percentileMetricWindow
p4274
tp4275
I3
s(Vinsert
p4276
I42
VSimpleName: After
p4277
tp4278
I1
s(Vinsert
p4279
I42
VSimpleName: RequestCollapser
p4280
tp4281
I1
s(Vinsert
p4282
I65
VTagElement: @deprecated
p4283
tp4284
I1
s(Vinsert
p4285
I42
VSimpleName: observableCommand
p4286
tp4287
I1
s(Vinsert
p4288
I42
VSimpleName: notNull
p4289
tp4290
I4
s(Vinsert
p4291
I42
VSimpleName: cacheKeyInvocationContext
p4292
tp4293
I2
s(Vinsert
p4294
I43
VSimpleType: CounterState
p4295
tp4296
I4
s(Vinsert
p4297
I42
VSimpleName: assertNull
p4298
tp4299
I11
s(Vinsert
p4300
I42
VSimpleName: getCurrentActiveCount
p4301
tp4302
I1
s(Vinsert
p4303
I42
VSimpleName: that
p4304
tp4305
I1
s(Vinsert
p4306
I42
VSimpleName: allowMaximumSizeToDivergeFromCoreSize
p4307
tp4308
I5
s(Vinsert
p4309
I42
VSimpleName: Method
p4310
tp4311
I12
s(Vinsert
p4312
I76
VWildcardType: ? extends Throwable
p4313
tp4314
I4
s(Vinsert
p4315
I43
VSimpleType: NoSuchFieldError
p4316
tp4317
I2
s(Vinsert
p4318
I42
VSimpleName: onExecutionEmit
p4319
tp4320
I1
s(Vinsert
p4321
I40
VQualifiedName: state.command
p4322
tp4323
I2
s(Vinsert
p4324
I40
VQualifiedName: circuitBreaker.metrics
p4325
tp4326
I18
s(Vinsert
p4327
I71
VEnumDeclaration
p4328
tp4329
I1
s(Vinsert
p4330
I42
VSimpleName: setCommandPropertiesDefaults
p4331
tp4332
I3
s(Vinsert
p4333
I25
VIfStatement
p4334
tp4335
I144
s(Vinsert
p4336
I42
VSimpleName: HystrixMetricsPublisherFactory
p4337
tp4338
I1
s(Vinsert
p4339
I45
VStringLiteral: "propertyValue_queueSizeRejectionThreshold"
p4340
tp4341
I1
s(Vinsert
p4342
I42
VSimpleName: collapsedRequest
p4343
tp4344
I1
s(Vinsert
p4345
I42
VSimpleName: consumeCPU
p4346
tp4347
I2
s(Vinsert
p4348
I42
VSimpleName: FilterChain
p4349
tp4350
I2
s(Vinsert
p4351
I34
VNumberLiteral: 30000L
p4352
tp4353
I1
s(Vinsert
p4354
I43
VSimpleType: CountDownLatch
p4355
tp4356
I10
s(Vinsert
p4357
I45
VStringLiteral: "Hello Failure World!"
p4358
tp4359
I1
s(Vinsert
p4360
I66
VTextElement: This is intended to support uses of collapsers in an environment like a REPL
p4361
tp4362
I1
s(Vinsert
p4363
I42
VSimpleName: validate
p4364
tp4365
I1
s(Vinsert
p4366
I42
VSimpleName: concurrentThreadsExecuting
p4367
tp4368
I2
s(Vinsert
p4369
I66
VTextElement:  being invoked at a given percentile.
p4370
tp4371
I1
s(Vinsert
p4372
I34
VNumberLiteral: 1L
p4373
tp4374
I1
s(Vinsert
p4375
I42
VSimpleName: f2
p4376
tp4377
I4
s(Vinsert
p4378
I45
VStringLiteral: "url"
p4379
tp4380
I1
s(Vinsert
p4381
I42
VSimpleName: CollapserMetricsConfig
p4382
tp4383
I2
s(Vinsert
p4384
I34
VNumberLiteral: 950610
p4385
tp4386
I1
s(Vinsert
p4387
I42
VSimpleName: andThreadPoolPropertiesDefaults
p4388
tp4389
I3
s(Vinsert
p4390
I45
VStringLiteral: "CMD1 : "
p4391
tp4392
I1
s(Vinsert
p4393
I42
VSimpleName: isClosureCommand
p4394
tp4395
I1
s(Vinsert
p4396
I42
VSimpleName: asBoolean
p4397
tp4398
I2
s(Vinsert
p4399
I45
VStringLiteral: "request"
p4400
tp4401
I1
s(Vinsert
p4402
I42
VSimpleName: isCommand
p4403
tp4404
I1
s(Vinsert
p4405
I42
VSimpleName: testSemaphoreRejected
p4406
tp4407
I1
s(Vinsert
p4408
I42
VSimpleName: ClosureFactoryRegistry
p4409
tp4410
I1
s(Vinsert
p4411
I42
VSimpleName: HystrixRequestVariableLifecycle
p4412
tp4413
I1
s(Vinsert
p4414
I43
VSimpleType: HystrixServoMetricsPublisherCommand
p4415
tp4416
I2
s(Vinsert
p4417
I42
VSimpleName: PaymentInformation
p4418
tp4419
I2
s(Vinsert
p4420
I42
VSimpleName: CommandSetterBuilder
p4421
tp4422
I1
s(Vinsert
p4423
I42
VSimpleName: withAdditionalTag
p4424
tp4425
I2
s(Vinsert
p4426
I42
VSimpleName: getAllParameterizedTypes
p4427
tp4428
I1
s(Vinsert
p4429
I42
VSimpleName: getExecutionsMappedToLatencies
p4430
tp4431
I2
s(Vinsert
p4432
I42
VSimpleName: CollapserTimer
p4433
tp4434
I2
s(Vinsert
p4435
I42
VSimpleName: isUnsubscribed
p4436
tp4437
I3
s(Vinsert
p4438
I38
VPrefixExpression: !
p4439
tp4440
I22
s(Vinsert
p4441
I42
VSimpleName: setCommandKey
p4442
tp4443
I1
s(Vinsert
p4444
I40
VQualifiedName: ExecutionType.SYNCHRONOUS
p4445
tp4446
I1
s(Vinsert
p4447
I42
VSimpleName: merge
p4448
tp4449
I1
s(Vinsert
p4450
I43
VSimpleType: Boolean
p4451
tp4452
I44
s(Vinsert
p4453
I43
VSimpleType: BlockingQueue
p4454
tp4455
I1
s(Vinsert
p4456
I40
VQualifiedName: com.netflix.config.DynamicPropertyFactory
p4457
tp4458
I3
s(Vinsert
p4459
I42
VSimpleName: USER_NOT_FOUND
p4460
tp4461
I1
s(Vinsert
p4462
I42
VSimpleName: batchSize
p4463
tp4464
I1
s(Vinsert
p4465
I42
VSimpleName: hasExecutedCommandsOnThread
p4466
tp4467
I2
s(Vinsert
p4468
I66
VTextElement: <p>
p4469
tp4470
I3
s(Vinsert
p4471
I42
VSimpleName: getCircuitBreaker
p4472
tp4473
I1
s(Vinsert
p4474
I43
VSimpleType: A
p4475
tp4476
I2
s(Vinsert
p4477
I42
VSimpleName: time
p4478
tp4479
I2
s(Vinsert
p4480
I74
VParameterizedType: BlockingQueue<Runnable>
p4481
tp4482
I1
s(Vinsert
p4483
I42
VSimpleName: pool
p4484
tp4485
I4
s(Vinsert
p4486
I40
VQualifiedName: rx.util.functions.Func1
p4487
tp4488
I1
s(Vinsert
p4489
I42
VSimpleName: cacheHit
p4490
tp4491
I1
s(Vinsert
p4492
I42
VSimpleName: commandConfig
p4493
tp4494
I2
s(Vinsert
p4495
I42
VSimpleName: actualOnCompleted
p4496
tp4497
I1
s(Vinsert
p4498
I43
VSimpleType: ReplaySubject
p4499
tp4500
I2
s(Vinsert
p4501
I66
VTextElement:  and other related properties.
p4502
tp4503
I1
s(Vinsert
p4504
I42
VSimpleName: HystrixServoMetricsPublisherCommand
p4505
tp4506
I2
s(Vinsert
p4507
I40
VQualifiedName: s1.metrics
p4508
tp4509
I2
s(Vinsert
p4510
I42
VSimpleName: threadPoolJustCreated
p4511
tp4512
I1
s(Vinsert
p4513
I42
VSimpleName: dynamicMaximumSize
p4514
tp4515
I5
s(Vinsert
p4516
I42
VSimpleName: incrementGlobalConcurrentThreads
p4517
tp4518
I1
s(Vinsert
p4519
I43
VSimpleType: HystrixThreadPoolStartStream
p4520
tp4521
I3
s(Vinsert
p4522
I42
VSimpleName: C
p4523
tp4524
I1
s(Vinsert
p4525
I34
VNumberLiteral: 10
p4526
tp4527
I2
s(Vinsert
p4528
I42
VSimpleName: LazyCommandExecutionAction
p4529
tp4530
I1
s(Vinsert
p4531
I40
VQualifiedName: rx.subscriptions.Subscriptions
p4532
tp4533
I1
s(Vinsert
p4534
I42
VSimpleName: commandKey
p4535
tp4536
I13
s(Vinsert
p4537
I42
VSimpleName: getMaxNumberConcurrentConnectionsAllowed
p4538
tp4539
I1
s(Vinsert
p4540
I56
VTypeDeclarationStatement
p4541
tp4542
I1
s(Vinsert
p4543
I42
VSimpleName: annotation
p4544
tp4545
I1
s(Vinsert
p4546
I42
VSimpleName: proxy
p4547
tp4548
I3
s(Vinsert
p4549
I45
VStringLiteral: "Throwable caught while executing batch and mapping responses."
p4550
tp4551
I1
s(Vinsert
p4552
I42
VSimpleName: writeBooleanField
p4553
tp4554
I3
s(Vinsert
p4555
I42
VSimpleName: userResource
p4556
tp4557
I2
s(Vinsert
p4558
I42
VSimpleName: safelyCreateCumulativeCountForEvent
p4559
tp4560
I3
s(Vinsert
p4561
I42
VSimpleName: AsyncClosureFactory
p4562
tp4563
I1
s(Vinsert
p4564
I42
VSimpleName: maxSoFar
p4565
tp4566
I1
s(Vinsert
p4567
I42
VSimpleName: cr
p4568
tp4569
I1
s(Vinsert
p4570
I42
VSimpleName: CommandWithErrorThrown
p4571
tp4572
I2
s(Vinsert
p4573
I43
VSimpleType: GetUserException
p4574
tp4575
I1
s(Vinsert
p4576
I42
VSimpleName: isUnrecoverable
p4577
tp4578
I1
s(Vinsert
p4579
I42
VSimpleName: increment
p4580
tp4581
I3
s(Vinsert
p4582
I42
VSimpleName: getPluginImplementationViaArchaius
p4583
tp4584
I1
s(Vinsert
p4585
I45
VStringLiteral: "USE_DEFAULT"
p4586
tp4587
I1
s(Vinsert
p4588
I42
VSimpleName: copyOf
p4589
tp4590
I5
s(Vinsert
p4591
I43
VSimpleType: TryableSemaphore
p4592
tp4593
I4
s(Vinsert
p4594
I42
VSimpleName: DefaultHystrixGeneratedCacheKey
p4595
tp4596
I1
s(Vinsert
p4597
I42
VSimpleName: stream
p4598
tp4599
I29
s(Vinsert
p4600
I43
VSimpleType: HystrixEventType
p4601
tp4602
I17
s(Vinsert
p4603
I42
VSimpleName: assertValueCount
p4604
tp4605
I1
s(Vinsert
p4606
I34
VNumberLiteral: 951772
p4607
tp4608
I2
s(Vinsert
p4609
I42
VSimpleName: estimatedLength
p4610
tp4611
I1
s(Vinsert
p4612
I42
VSimpleName: requestVariableInstance
p4613
tp4614
I1
s(Vinsert
p4615
I42
VSimpleName: wavingModeParam
p4616
tp4617
I1
s(Vinsert
p4618
I42
VSimpleName: commandResponseFromCache
p4619
tp4620
I1
s(Vinsert
p4621
I42
VSimpleName: metricsRegistry
p4622
tp4623
I3
s(Vinsert
p4624
I42
VSimpleName: RequestContextTestResults
p4625
tp4626
I1
s(Vinsert
p4627
I43
VSimpleType: Event
p4628
tp4629
I2
s(Vinsert
p4630
I43
VSimpleType: HttpCookie
p4631
tp4632
I1
s(Vinsert
p4633
I42
VSimpleName: reduced
p4634
tp4635
I1
s(Vinsert
p4636
I74
VParameterizedType: Class<? extends Throwable>
p4637
tp4638
I2
s(Vinsert
p4639
I43
VSimpleType: HystrixRequestContextRule
p4640
tp4641
I3
s(Vinsert
p4642
I74
VParameterizedType: RequestBatch<BatchReturnType,ResponseType,RequestArgumentType>
p4643
tp4644
I3
s(Vinsert
p4645
I42
VSimpleName: origin
p4646
tp4647
I2
s(Vinsert
p4648
I42
VSimpleName: getBuffer
p4649
tp4650
I1
s(Vinsert
p4651
I40
VQualifiedName: HystrixCollapser.Setter
p4652
tp4653
I1
s(Vinsert
p4654
I43
VSimpleType: List
p4655
tp4656
I25
s(Vinsert
p4657
I42
VSimpleName: shards
p4658
tp4659
I2
s(Vinsert
p4660
I42
VSimpleName: withCollapserKey
p4661
tp4662
I2
s(Vinsert
p4663
I43
VSimpleType: Notification
p4664
tp4665
I1
s(Vinsert
p4666
I42
VSimpleName: createWithSize
p4667
tp4668
I1
s(Vinsert
p4669
I42
VSimpleName: loadClass
p4670
tp4671
I2
s(Vinsert
p4672
I34
VNumberLiteral: 3
p4673
tp4674
I7
s(Vinsert
p4675
I42
VSimpleName: commandEvent
p4676
tp4677
I7
s(Vinsert
p4678
I42
VSimpleName: counterMetricWindow
p4679
tp4680
I2
s(Vinsert
p4681
I42
VSimpleName: BlockingQueue
p4682
tp4683
I1
s(Vinsert
p4684
I42
VSimpleName: jsonString
p4685
tp4686
I6
s(Vinsert
p4687
I40
VQualifiedName: com.netflix.config.DynamicIntProperty
p4688
tp4689
I3
s(Vinsert
p4690
I74
VParameterizedType: Iterator<HystrixInvokableInfo<?>>
p4691
tp4692
I3
s(Vinsert
p4693
I42
VSimpleName: bucketSizeInMs
p4694
tp4695
I1
s(Vinsert
p4696
I45
VStringLiteral: "ReqLog : "
p4697
tp4698
I2
s(Vinsert
p4699
I42
VSimpleName: withCommand
p4700
tp4701
I1
s(Vinsert
p4702
I42
VSimpleName: MonitorConfig
p4703
tp4704
I11
s(Vinsert
p4705
I42
VSimpleName: getKey
p4706
tp4707
I2
s(Vinsert
p4708
I42
VSimpleName: threadPoolPublishers
p4709
tp4710
I1
s(Vinsert
p4711
I42
VSimpleName: ERROR_TYPE_MESSAGE
p4712
tp4713
I1
s(Vinsert
p4714
I42
VSimpleName: Subscribers
p4715
tp4716
I1
s(Vinsert
p4717
I74
VParameterizedType: Map.Entry<K,CollapsedRequest<ResponseType,RequestArgumentType>>
p4718
tp4719
I1
s(Vinsert
p4720
I43
VSimpleType: ExecutionType
p4721
tp4722
I5
s(Vinsert
p4723
I42
VSimpleName: ImmutableList
p4724
tp4725
I3
s(Vinsert
p4726
I42
VSimpleName: k
p4727
tp4728
I4
s(Vinsert
p4729
I42
VSimpleName: declaringClass
p4730
tp4731
I1
s(Vinsert
p4732
I42
VSimpleName: take
p4733
tp4734
I1
s(Vinsert
p4735
I43
VSimpleType: HystrixThreadPoolProperties.Setter
p4736
tp4737
I5
s(Vinsert
p4738
I74
VParameterizedType: Map.Entry<HystrixCommandKey,HystrixCommandUtilization>
p4739
tp4740
I1
s(Vinsert
p4741
I42
VSimpleName: EXCEPTION_THROWN
p4742
tp4743
I1
s(Vinsert
p4744
I40
VQualifiedName: cmd.metrics
p4745
tp4746
I4
s(Vinsert
p4747
I43
VSimpleType: HystrixInvokable
p4748
tp4749
I2
s(Vinsert
p4750
I42
VSimpleName: cacheKey
p4751
tp4752
I3
s(Vinsert
p4753
I40
VQualifiedName: args.length
p4754
tp4755
I2
s(Vinsert
p4756
I42
VSimpleName: setContentType
p4757
tp4758
I1
s(Vinsert
p4759
I42
VSimpleName: monitors
p4760
tp4761
I11
s(Vinsert
p4762
I34
VNumberLiteral: 40
p4763
tp4764
I1
s(Vinsert
p4765
I42
VSimpleName: sl
p4766
tp4767
I1
s(Vinsert
p4768
I42
VSimpleName: chainedProperty
p4769
tp4770
I2
s(Vinsert
p4771
I42
VSimpleName: markThreadPoolRejection
p4772
tp4773
I1
s(Vinsert
p4774
I74
VParameterizedType: TestHystrixCommand<Integer>
p4775
tp4776
I1
s(Vinsert
p4777
I42
VSimpleName: HystrixEventNotifier
p4778
tp4779
I1
s(Vinsert
p4780
I42
VSimpleName: defaultThreadPoolKey
p4781
tp4782
I1
s(Vinsert
p4783
I43
VSimpleType: AbstractCommand.TryableSemaphore
p4784
tp4785
I3
s(Vinsert
p4786
I42
VSimpleName: isSourceCurrentlySubscribed
p4787
tp4788
I6
s(Vinsert
p4789
I42
VSimpleName: CommandExecutionAction
p4790
tp4791
I1
s(Vinsert
p4792
I42
VSimpleName: collapserKeyFromString
p4793
tp4794
I1
s(Vinsert
p4795
I42
VSimpleName: HystrixBadRequestException
p4796
tp4797
I6
s(Vinsert
p4798
I43
VSimpleType: Integer
p4799
tp4800
I45
s(Vinsert
p4801
I42
VSimpleName: type
p4802
tp4803
I12
s(Vinsert
p4804
I45
VStringLiteral: "Missing fallback status on timeout."
p4805
tp4806
I1
s(Vinsert
p4807
I42
VSimpleName: numBuckets
p4808
tp4809
I2
s(Vinsert
p4810
I42
VSimpleName: executionEventsMatch
p4811
tp4812
I1
s(Vinsert
p4813
I42
VSimpleName: remaining
p4814
tp4815
I1
s(Vinsert
p4816
I42
VSimpleName: ExecutionType
p4817
tp4818
I7
s(Vinsert
p4819
I43
VSimpleType: ValueState
p4820
tp4821
I4
s(Vinsert
p4822
I54
VTryStatement
p4823
tp4824
I59
s(Vinsert
p4825
I42
VSimpleName: HystrixGlobalEventStream
p4826
tp4827
I1
s(Vinsert
p4828
I45
VStringLiteral: "SimpleRestClient"
p4829
tp4830
I1
s(Vinsert
p4831
I42
VSimpleName: HystrixCachingException
p4832
tp4833
I1
s(Vinsert
p4834
I45
VStringLiteral: "hystrix.HystrixThreadPool.threadGroup.totalTaskCount"
p4835
tp4836
I1
s(Vinsert
p4837
I42
VSimpleName: prime
p4838
tp4839
I1
s(Vinsert
p4840
I42
VSimpleName: os
p4841
tp4842
I1
s(Vinsert
p4843
I43
VSimpleType: IOException
p4844
tp4845
I12
s(Vinsert
p4846
I74
VParameterizedType: List<HystrixLatencyDistribution>
p4847
tp4848
I4
s(Vinsert
p4849
I42
VSimpleName: LongMaxUpdater
p4850
tp4851
I1
s(Vinsert
p4852
I42
VSimpleName: group
p4853
tp4854
I3
s(Vinsert
p4855
I42
VSimpleName: StringUtils
p4856
tp4857
I3
s(Vinsert
p4858
I42
VSimpleName: counter
p4859
tp4860
I18
s(Vinsert
p4861
I40
VQualifiedName: HystrixEventType.SHORT_CIRCUITED
p4862
tp4863
I2
s(Vinsert
p4864
I43
VSimpleType: TimeoutException
p4865
tp4866
I1
s(Vinsert
p4867
I42
VSimpleName: clear
p4868
tp4869
I11
s(Vinsert
p4870
I45
VStringLiteral: "ping: \u005cn"
p4871
tp4872
I1
s(Vinsert
p4873
I42
VSimpleName: Object
p4874
tp4875
I32
s(Vinsert
p4876
I40
VQualifiedName: HystrixRollingNumberEvent.TIMEOUT
p4877
tp4878
I4
s(Vinsert
p4879
I43
VSimpleType: IllegalStateException
p4880
tp4881
I7
s(Vinsert
p4882
I40
VQualifiedName: com.netflix.hystrix.metric.RollingCollapserEventCounterStream
p4883
tp4884
I1
s(Vinsert
p4885
I42
VSimpleName: threadPoolProperties
p4886
tp4887
I10
s(Vinsert
p4888
I42
VSimpleName: getCurrentCompletedTaskCount
p4889
tp4890
I3
s(Vinsert
p4891
I42
VSimpleName: p55
p4892
tp4893
I1
s(Vinsert
p4894
I42
VSimpleName: registerConcurrencyStrategy
p4895
tp4896
I2
s(Vinsert
p4897
I42
VSimpleName: sizeOfBatch
p4898
tp4899
I1
s(Vinsert
p4900
I42
VSimpleName: b1
p4901
tp4902
I2
s(Vinsert
p4903
I42
VSimpleName: Notification
p4904
tp4905
I1
s(Vinsert
p4906
I42
VSimpleName: interruptOnFutureCancel
p4907
tp4908
I2
s(Vinsert
p4909
I40
VQualifiedName: System.out
p4910
tp4911
I45
s(Vinsert
p4912
I42
VSimpleName: entry
p4913
tp4914
I3
s(Vinsert
p4915
I42
VSimpleName: getMetrics
p4916
tp4917
I4
s(Vinsert
p4918
I42
VSimpleName: getServoMonitors
p4919
tp4920
I1
s(Vinsert
p4921
I42
VSimpleName: r
p4922
tp4923
I13
s(Vinsert
p4924
I42
VSimpleName: parametersTypes
p4925
tp4926
I1
s(Vinsert
p4927
I40
VQualifiedName: HystrixThreadPool.Factory
p4928
tp4929
I1
s(Vinsert
p4930
I42
VSimpleName: createContext
p4931
tp4932
I1
s(Vinsert
p4933
I42
VSimpleName: requestEvents
p4934
tp4935
I1
s(Vinsert
p4936
I42
VSimpleName: handleJsonMetric
p4937
tp4938
I1
s(Vinsert
p4939
I42
VSimpleName: getCumulativeCountBatches
p4940
tp4941
I1
s(Vinsert
p4942
I74
VParameterizedType: HystrixCommand<Boolean>
p4943
tp4944
I4
s(Vinsert
p4945
I42
VSimpleName: ProceedingJoinPoint
p4946
tp4947
I2
s(Vinsert
p4948
I42
VSimpleName: number
p4949
tp4950
I2
s(Vinsert
p4951
I42
VSimpleName: ExceptionThreadingUtility
p4952
tp4953
I2
s(Vinsert
p4954
I42
VSimpleName: cacheRemoveInvocationContext
p4955
tp4956
I1
s(Vinsert
p4957
I42
VSimpleName: writeObjectFieldStart
p4958
tp4959
I5
s(Vinsert
p4960
I42
VSimpleName: q
p4961
tp4962
I2
s(Vinsert
p4963
I36
VParenthesizedExpression
p4964
tp4965
I8
s(Vinsert
p4966
I42
VSimpleName: CommandThatFailsFast
p4967
tp4968
I1
s(Vinsert
p4969
I42
VSimpleName: ByteBuffer
p4970
tp4971
I6
s(Vinsert
p4972
I42
VSimpleName: numbers
p4973
tp4974
I1
s(Vinsert
p4975
I42
VSimpleName: DummyCommand
p4976
tp4977
I1
s(Vinsert
p4978
I43
VSimpleType: CommandExecutionAction
p4979
tp4980
I1
s(Vinsert
p4981
I43
VSimpleType: HystrixMetricsPublisherThreadPool
p4982
tp4983
I1
s(Vinsert
p4984
I42
VSimpleName: emptyDistributionsToStart
p4985
tp4986
I1
s(Vinsert
p4987
I42
VSimpleName: commandName
p4988
tp4989
I1
s(Vinsert
p4990
I42
VSimpleName: commandExecutionHook
p4991
tp4992
I1
s(Vinsert
p4993
I52
VThisExpression
p4994
tp4995
I62
s(Vinsert
p4996
I40
VQualifiedName: System.err
p4997
tp4998
I2
s(Vinsert
p4999
I74
VParameterizedType: Observable<HystrixCommandCompletion>
p5000
tp5001
I3
s(Vinsert
p5002
I42
VSimpleName: collapser
p5003
tp5004
I1
s(Vinsert
p5005
I42
VSimpleName: filter
p5006
tp5007
I1
s(Vinsert
p5008
I43
VSimpleType: GenericSetterBuilder
p5009
tp5010
I1
s(Vinsert
p5011
I42
VSimpleName: numCounterBuckets
p5012
tp5013
I3
s(Vinsert
p5014
I42
VSimpleName: exceptionEventType
p5015
tp5016
I1
s(Vinsert
p5017
I42
VSimpleName: DynamicPropertyFactory
p5018
tp5019
I7
s(Vinsert
p5020
I42
VSimpleName: fallbackMethod
p5021
tp5022
I8
s(Vinsert
p5023
I42
VSimpleName: fail
p5024
tp5025
I14
s(Vinsert
p5026
I43
VSimpleType: TestCircuitBreaker
p5027
tp5028
I5
s(Vinsert
p5029
I42
VSimpleName: Arrays
p5030
tp5031
I6
s(Vinsert
p5032
I43
VSimpleType: ExecutorService
p5033
tp5034
I2
s(Vinsert
p5035
I43
VSimpleType: JsonGenerator
p5036
tp5037
I4
s(Vinsert
p5038
I42
VSimpleName: Pair
p5039
tp5040
I1
s(Vinsert
p5041
I74
VParameterizedType: Subscriber<? super String>
p5042
tp5043
I1
s(Vinsert
p5044
I42
VSimpleName: createFailedResponse
p5045
tp5046
I1
s(Vinsert
p5047
I42
VSimpleName: getConcurrencyStrategy
p5048
tp5049
I4
s(Vinsert
p5050
I42
VSimpleName: onComplete
p5051
tp5052
I2
s(Vinsert
p5053
I42
VSimpleName: f
p5054
tp5055
I7
s(Vinsert
p5056
I42
VSimpleName: ERROR_MSG
p5057
tp5058
I1
s(Vinsert
p5059
I45
VStringLiteral: "primary failure"
p5060
tp5061
I1
s(Vinsert
p5062
I42
VSimpleName: fromConstructor
p5063
tp5064
I1
s(Vinsert
p5065
I45
VStringLiteral: "currentCompletedTaskCount"
p5066
tp5067
I2
s(Vinsert
p5068
I40
VQualifiedName: java.util.concurrent.Executors
p5069
tp5070
I2
s(Vinsert
p5071
I42
VSimpleName: commandPropertiesDefaults
p5072
tp5073
I1
s(Vinsert
p5074
I43
VSimpleType: Collapser
p5075
tp5076
I1
s(Vinsert
p5077
I42
VSimpleName: getArgument
p5078
tp5079
I2
s(Vinsert
p5080
I40
VQualifiedName: HystrixThreadPoolKey.Factory
p5081
tp5082
I4
s(Vinsert
p5083
I42
VSimpleName: iterator
p5084
tp5085
I1
s(Vinsert
p5086
I66
VTextElement: If the command execution was successful, then this exception instance is null (there was no exception)
p5087
tp5088
I1
s(Vinsert
p5089
I42
VSimpleName: circuitBreakerDisabled
p5090
tp5091
I3
s(Vinsert
p5092
I42
VSimpleName: _self
p5093
tp5094
I1
s(Vinsert
p5095
I42
VSimpleName: Call
p5096
tp5097
I1
s(Vinsert
p5098
I40
VQualifiedName: command.builder.executionHook.runSuccessResponse
p5099
tp5100
I2
s(Vinsert
p5101
I42
VSimpleName: HashMap
p5102
tp5103
I2
s(Vinsert
p5104
I42
VSimpleName: JoinPoint
p5105
tp5106
I1
s(Vinsert
p5107
I42
VSimpleName: fallbackMethodName
p5108
tp5109
I1
s(Vinsert
p5110
I42
VSimpleName: delegate
p5111
tp5112
I4
s(Vinsert
p5113
I43
VSimpleType: MyHystrixCommandGroupKey
p5114
tp5115
I1
s(Vinsert
p5116
I42
VSimpleName: v
p5117
tp5118
I3
s(Vinsert
p5119
I42
VSimpleName: extFallback
p5120
tp5121
I1
s(Vinsert
p5122
I42
VSimpleName: observables
p5123
tp5124
I2
s(Vinsert
p5125
I42
VSimpleName: getThreadPoolPropertiesCacheKey
p5126
tp5127
I1
s(Vinsert
p5128
I43
VSimpleType: HystrixThreadPoolUtilization
p5129
tp5130
I3
s(Vinsert
p5131
I83
VModifier: final
p5132
tp5133
I72
s(Vinsert
p5134
I42
VSimpleName: latency
p5135
tp5136
I6
s(Vinsert
p5137
I42
VSimpleName: getThreadPoolProperties
p5138
tp5139
I1
s(Vinsert
p5140
I42
VSimpleName: getCanonicalName
p5141
tp5142
I1
s(Vinsert
p5143
I74
VParameterizedType: AtomicReference<String>
p5144
tp5145
I1
s(Vinsert
p5146
I42
VSimpleName: isExtendedParentFallback
p5147
tp5148
I1
s(Vinsert
p5149
I42
VSimpleName: markSuccess
p5150
tp5151
I1
s(Vinsert
p5152
I42
VSimpleName: commandEventStream
p5153
tp5154
I3
s(Vinsert
p5155
I42
VSimpleName: HystrixThreadPoolUtilization
p5156
tp5157
I3
s(Vinsert
p5158
I42
VSimpleName: cmd2
p5159
tp5160
I3
s(Vinsert
p5161
I45
VStringLiteral: "name: "
p5162
tp5163
I1
s(Vinsert
p5164
I83
VModifier: static
p5165
tp5166
I57
s(Vinsert
p5167
I42
VSimpleName: withAllowMaximumSizeToDivergeFromCoreSize
p5168
tp5169
I1
s(Vinsert
p5170
I42
VSimpleName: toString
p5171
tp5172
I10
s(Vinsert
p5173
I40
VQualifiedName: command.builder.executionHook.endExecuteFailureException
p5174
tp5175
I2
s(Vinsert
p5176
I42
VSimpleName: foundEventTypes
p5177
tp5178
I2
s(Vinsert
p5179
I42
VSimpleName: commandCleanupExecuted
p5180
tp5181
I3
s(Vinsert
p5182
I42
VSimpleName: newGauge
p5183
tp5184
I3
s(Vinsert
p5185
I74
VParameterizedType: Observable<Integer>
p5186
tp5187
I5
s(Vinsert
p5188
I42
VSimpleName: esi
p5189
tp5190
I2
s(Vinsert
p5191
I74
VParameterizedType: Class<T>
p5192
tp5193
I2
s(Vinsert
p5194
I42
VSimpleName: getImplementingClass
p5195
tp5196
I1
s(Vinsert
p5197
I43
VSimpleType: BasicObservableErrorPropagationTest
p5198
tp5199
I1
s(Vinsert
p5200
I42
VSimpleName: close
p5201
tp5202
I2
s(Vinsert
p5203
I42
VSimpleName: withCircuitBreakerEnabled
p5204
tp5205
I2
s(Vinsert
p5206
I40
VQualifiedName: AbstractTestHystrixCommand.ExecutionResult.ASYNC_UNRECOVERABLE_ERROR
p5207
tp5208
I1
s(Vinsert
p5209
I42
VSimpleName: BehaviorSubject
p5210
tp5211
I1
s(Vinsert
p5212
I43
VSimpleType: Subscription
p5213
tp5214
I9
s(Vinsert
p5215
I42
VSimpleName: invokeAjcMethod
p5216
tp5217
I1
s(Vinsert
p5218
I42
VSimpleName: HystrixUtilizationStream
p5219
tp5220
I2
s(Vinsert
p5221
I42
VSimpleName: build
p5222
tp5223
I16
s(Vinsert
p5224
I76
VWildcardType: ? super Scheduler
p5225
tp5226
I2
s(Vinsert
p5227
I42
VSimpleName: getMean
p5228
tp5229
I3
s(Vinsert
p5230
I42
VSimpleName: MethodSignature
p5231
tp5232
I2
s(Vinsert
p5233
I42
VSimpleName: contains
p5234
tp5235
I12
s(Vinsert
p5236
I42
VSimpleName: Deprecated
p5237
tp5238
I2
s(Vinsert
p5239
I37
VPostfixExpression: ++
p5240
tp5241
I14
s(Vinsert
p5242
I42
VSimpleName: u1
p5243
tp5244
I5
s(Vinsert
p5245
I42
VSimpleName: isObservable
p5246
tp5247
I2
s(Vinsert
p5248
I66
VTextElement:  or 
p5249
tp5250
I1
s(Vinsert
p5251
I42
VSimpleName: lines
p5252
tp5253
I1
s(Vinsert
p5254
I42
VSimpleName: command2
p5255
tp5256
I6
s(Vinsert
p5257
I13
VCharacterLiteral: '\u005c''
p5258
tp5259
I1
s(Vinsert
p5260
I42
VSimpleName: metricsRollingPercentileWindowBuckets
p5261
tp5262
I2
s(Vinsert
p5263
I42
VSimpleName: didCommandExecute
p5264
tp5265
I1
s(Vinsert
p5266
I42
VSimpleName: EurekaServiceInfo
p5267
tp5268
I2
s(Vinsert
p5269
I42
VSimpleName: writes
p5270
tp5271
I2
s(Vinsert
p5272
I42
VSimpleName: first
p5273
tp5274
I2
s(Vinsert
p5275
I42
VSimpleName: cachedFoo1
p5276
tp5277
I1
s(Vinsert
p5278
I42
VSimpleName: assertCompleted
p5279
tp5280
I1
s(Vinsert
p5281
I42
VSimpleName: NoSuchMethodException
p5282
tp5283
I1
s(Vinsert
p5284
I42
VSimpleName: CollapserTest
p5285
tp5286
I1
s(Vinsert
p5287
I42
VSimpleName: reduceBucket
p5288
tp5289
I9
s(Vinsert
p5290
I45
VStringLiteral: "rollingCountRequestsBatched"
p5291
tp5292
I1
s(Vinsert
p5293
I42
VSimpleName: getUserDefProperties
p5294
tp5295
I1
s(Vinsert
p5296
I42
VSimpleName: ajcMethod
p5297
tp5298
I1
s(Vinsert
p5299
I42
VSimpleName: InterruptibleCommand
p5300
tp5301
I2
s(Vinsert
p5302
I42
VSimpleName: AtomicReference
p5303
tp5304
I3
s(Vinsert
p5305
I42
VSimpleName: writeHeavyUpdateMax
p5306
tp5307
I2
s(Vinsert
p5308
I43
VSimpleType: EventStreamEnum
p5309
tp5310
I1
s(Vinsert
p5311
I42
VSimpleName: User
p5312
tp5313
I16
s(Vinsert
p5314
I42
VSimpleName: RollingCommandConcurrencyStreamTest
p5315
tp5316
I1
s(Vinsert
p5317
I42
VSimpleName: t2
p5318
tp5319
I1
s(Vinsert
p5320
I42
VSimpleName: getArray
p5321
tp5322
I1
s(Vinsert
p5323
I42
VSimpleName: GaugeMetric
p5324
tp5325
I4
s(Vinsert
p5326
I42
VSimpleName: archiausPropertyFactory
p5327
tp5328
I1
s(Vinsert
p5329
I42
VSimpleName: unmodifiableCollection
p5330
tp5331
I1
s(Vinsert
p5332
I42
VSimpleName: TestCommandBuilder
p5333
tp5334
I4
s(Vinsert
p5335
I42
VSimpleName: Func1
p5336
tp5337
I2
s(Vinsert
p5338
I43
VSimpleType: HystrixCommandKey
p5339
tp5340
I16
s(Vinsert
p5341
I42
VSimpleName: LatchedSemaphoreCommand
p5342
tp5343
I1
s(Vinsert
p5344
I45
VStringLiteral: "getUserRxCommandFallback has failed"
p5345
tp5346
I1
s(Vinsert
p5347
I42
VSimpleName: corePoolSize
p5348
tp5349
I1
s(Vinsert
p5350
I34
VNumberLiteral: 21
p5351
tp5352
I1
s(Vinsert
p5353
I42
VSimpleName: started
p5354
tp5355
I1
s(Vinsert
p5356
I34
VNumberLiteral: 4000
p5357
tp5358
I1
s(Vinsert
p5359
I42
VSimpleName: CommandWithDisabledTimeout
p5360
tp5361
I1
s(Vinsert
p5362
I43
VSimpleType: HystrixCommandExecution
p5363
tp5364
I2
s(Vinsert
p5365
I74
VParameterizedType: Optional<Method>
p5366
tp5367
I1
s(Vinsert
p5368
I42
VSimpleName: executionLog
p5369
tp5370
I1
s(Vinsert
p5371
I42
VSimpleName: getExecutionEvents
p5372
tp5373
I14
s(Vinsert
p5374
I42
VSimpleName: CommandExecutor
p5375
tp5376
I2
s(Vinsert
p5377
I74
VParameterizedType: List<Integer>
p5378
tp5379
I2
s(Vinsert
p5380
I7
VAssignment: =
p5381
tp5382
I126
s(Vinsert
p5383
I42
VSimpleName: HystrixEvent
p5384
tp5385
I1
s(Vinsert
p5386
I43
VSimpleType: HystrixCircuitBreakerTest.TestCircuitBreaker
p5387
tp5388
I2
s(Vinsert
p5389
I43
VSimpleType: RealCollapserTimer
p5390
tp5391
I1
s(Vinsert
p5392
I43
VSimpleType: GetUserAccountCommand
p5393
tp5394
I1
s(Vinsert
p5395
I42
VSimpleName: setProperty
p5396
tp5397
I9
s(Vinsert
p5398
I42
VSimpleName: secondCommand
p5399
tp5400
I1
s(Vinsert
p5401
I45
VStringLiteral: "streaming request events"
p5402
tp5403
I1
s(Vinsert
p5404
I42
VSimpleName: assertCommandExecutionEvents
p5405
tp5406
I1
s(Vinsert
p5407
I43
VSimpleType: MyHystrixCommandProperties
p5408
tp5409
I1
s(Vinsert
p5410
I42
VSimpleName: observe
p5411
tp5412
I25
s(Vinsert
p5413
I42
VSimpleName: scope
p5414
tp5415
I3
s(Vinsert
p5416
I42
VSimpleName: collapserMetrics
p5417
tp5418
I3
s(Vinsert
p5419
I40
VQualifiedName: originalCommand.concurrencyStrategy
p5420
tp5421
I2
s(Vinsert
p5422
I42
VSimpleName: INSTANCE
p5423
tp5424
I1
s(Vinsert
p5425
I27
VInfixExpression: >=
p5426
tp5427
I1
s(Vinsert
p5428
I42
VSimpleName: display
p5429
tp5430
I1
s(Vinsert
p5431
I42
VSimpleName: getThreadPoolKey
p5432
tp5433
I4
s(Vinsert
p5434
I40
VQualifiedName: AbstractTestHystrixCommand.ExecutionResult.ASYNC_HYSTRIX_FAILURE
p5435
tp5436
I1
s(Vinsert
p5437
I42
VSimpleName: testNoRequestContextOnSimpleConcurencyStrategyWithoutException
p5438
tp5439
I1
s(Vinsert
p5440
I42
VSimpleName: SYS_PROP_TIMEOUT
p5441
tp5442
I1
s(Vinsert
p5443
I42
VSimpleName: getDynamicProperties
p5444
tp5445
I1
s(Vinsert
p5446
I74
VParameterizedType: Subscriber<? super R>
p5447
tp5448
I1
s(Vinsert
p5449
I40
VQualifiedName: DataSourceLevel.DEBUG
p5450
tp5451
I2
s(Vinsert
p5452
I42
VSimpleName: batchResponseKeySelector
p5453
tp5454
I1
s(Vinsert
p5455
I65
VTagElement: @code
p5456
tp5457
I1
s(Vinsert
p5458
I42
VSimpleName: publisher
p5459
tp5460
I2
s(Vinsert
p5461
I42
VSimpleName: getCommandInstance
p5462
tp5463
I3
s(Vinsert
p5464
I45
VStringLiteral: "onStart - onFallbackStart - onFallbackError - onError - onComplete - "
p5465
tp5466
I1
s(Vinsert
p5467
I42
VSimpleName: withExecutionIsolationStrategy
p5468
tp5469
I1
s(Vinsert
p5470
I42
VSimpleName: Collection
p5471
tp5472
I8
s(Vinsert
p5473
I66
VTextElement: Increment concurrent requests counter.
p5474
tp5475
I1
s(Vinsert
p5476
I42
VSimpleName: result2
p5477
tp5478
I2
s(Vinsert
p5479
I40
VQualifiedName: HystrixCommandProperties.ExecutionIsolationStrategy.THREAD
p5480
tp5481
I1
s(Vinsert
p5482
I42
VSimpleName: impl
p5483
tp5484
I7
s(Vinsert
p5485
I40
VQualifiedName: command.builder.executionHook.startExecute
p5486
tp5487
I3
s(Vinsert
p5488
I74
VParameterizedType: TestSubscriber<Boolean>
p5489
tp5490
I1
s(Vinsert
p5491
I42
VSimpleName: sampleSubscription
p5492
tp5493
I1
s(Vinsert
p5494
I42
VSimpleName: HystrixMetricsCollection
p5495
tp5496
I1
s(Vinsert
p5497
I40
VQualifiedName: com.netflix.hystrix.metric.RollingCommandUserLatencyDistributionStream
p5498
tp5499
I1
s(Vinsert
p5500
I42
VSimpleName: nonNullThreadPoolKey
p5501
tp5502
I2
s(Vinsert
p5503
I45
VStringLiteral: "Error calling HystrixCommandExecutionHook.onExecutionStart"
p5504
tp5505
I1
s(Vinsert
p5506
I42
VSimpleName: hasCompleted
p5507
tp5508
I1
s(Vinsert
p5509
I65
VTagElement: @inheritDoc
p5510
tp5511
I4
s(Vinsert
p5512
I40
VQualifiedName: HystrixCommandGroupKey.Factory
p5513
tp5514
I11
s(Vinsert
p5515
I42
VSimpleName: ee
p5516
tp5517
I1
s(Vinsert
p5518
I42
VSimpleName: testShutdown
p5519
tp5520
I1
s(Vinsert
p5521
I42
VSimpleName: exceptionMessage
p5522
tp5523
I1
s(Vinsert
p5524
I42
VSimpleName: TimeoutException
p5525
tp5526
I1
s(Vinsert
p5527
I42
VSimpleName: startCachingStreamValuesIfUnstarted
p5528
tp5529
I32
s(Vinsert
p5530
I43
VSimpleType: HystrixCommandGroupKey
p5531
tp5532
I6
s(Vinsert
p5533
I43
VSimpleType: Service
p5534
tp5535
I1
s(Vinsert
p5536
I42
VSimpleName: maxQueueSize
p5537
tp5538
I2
s(Vinsert
p5539
I42
VSimpleName: req3Task1
p5540
tp5541
I1
s(Vinsert
p5542
I42
VSimpleName: recordExecutedCommand
p5543
tp5544
I1
s(Vinsert
p5545
I74
VParameterizedType: CollapsedRequest<Void,Integer>
p5546
tp5547
I1
s(Vinsert
p5548
I74
VParameterizedType: Collection<AbstractHystrixCommand<?>>
p5549
tp5550
I1
s(Vinsert
p5551
I43
VSimpleType: Future
p5552
tp5553
I13
s(Vinsert
p5554
I42
VSimpleName: commandState
p5555
tp5556
I1
s(Vinsert
p5557
I42
VSimpleName: ise
p5558
tp5559
I4
s(Vinsert
p5560
I42
VSimpleName: propagate
p5561
tp5562
I2
s(Vinsert
p5563
I42
VSimpleName: getValue
p5564
tp5565
I22
s(Vinsert
p5566
I42
VSimpleName: getExecutedCommands
p5567
tp5568
I1
s(Vinsert
p5569
I42
VSimpleName: markShards
p5570
tp5571
I2
s(Vinsert
p5572
I42
VSimpleName: awaitTerminalEvent
p5573
tp5574
I2
s(Vinsert
p5575
I45
VStringLiteral: "command.getExecutionTimeInMilliseconds(): "
p5576
tp5577
I1
s(Vinsert
p5578
I43
VSimpleType: NotFoundException
p5579
tp5580
I3
s(Vinsert
p5581
I43
VSimpleType: HystrixConcurrencyStrategyTestImpl
p5582
tp5583
I1
s(Vinsert
p5584
I42
VSimpleName: annotations
p5585
tp5586
I3
s(Vinsert
p5587
I42
VSimpleName: Schedulers
p5588
tp5589
I4
s(Vinsert
p5590
I66
VTextElement: </p>
p5591
tp5592
I1
s(Vinsert
p5593
I42
VSimpleName: hystrixCommandKey
p5594
tp5595
I1
s(Vinsert
p5596
I42
VSimpleName: R
p5597
tp5598
I17
s(Vinsert
p5599
I8
VBlock
p5600
tp5601
I794
s(Vinsert
p5602
I42
VSimpleName: withCircuitBreakerForceClosed
p5603
tp5604
I1
s(Vinsert
p5605
I43
VSimpleType: HystrixCollapser
p5606
tp5607
I1
s(Vinsert
p5608
I43
VSimpleType: E
p5609
tp5610
I1
s(Vinsert
p5611
I45
VStringLiteral: "A"
p5612
tp5613
I3
s(Vinsert
p5614
I42
VSimpleName: when
p5615
tp5616
I2
s(Vinsert
p5617
I34
VNumberLiteral: 1000
p5618
tp5619
I2
s(Vinsert
p5620
I42
VSimpleName: builderOverrideValue
p5621
tp5622
I7
s(Vinsert
p5623
I76
VWildcardType: ?
p5624
tp5625
I37
s(Vinsert
p5626
I40
VQualifiedName: com.netflix.hystrix.metric.RollingCollapserBatchSizeDistributionStream
p5627
tp5628
I1
s(Vinsert
p5629
I42
VSimpleName: markCommandCompletion
p5630
tp5631
I2
s(Vinsert
p5632
I42
VSimpleName: testCommandInheritsDefaultThreadPoolKey
p5633
tp5634
I1
s(Vinsert
p5635
I66
VTextElement: >
p5636
tp5637
I1
s(Vinsert
p5638
I42
VSimpleName: key
p5639
tp5640
I43
s(Vinsert
p5641
I42
VSimpleName: testMultipleCommands
p5642
tp5643
I1
s(Vinsert
p5644
I42
VSimpleName: onCompleted
p5645
tp5646
I6
s(Vinsert
p5647
I42
VSimpleName: asyncMethod
p5648
tp5649
I1
s(Vinsert
p5650
I74
VParameterizedType: List<HystrixException>
p5651
tp5652
I1
s(Vinsert
p5653
I40
VQualifiedName: HystrixRollingNumberEvent.COMMAND_MAX_ACTIVE
p5654
tp5655
I1
s(Vinsert
p5656
I42
VSimpleName: doOnUnsubscribe
p5657
tp5658
I4
s(Vinsert
p5659
I42
VSimpleName: markNonSuccess
p5660
tp5661
I2
s(Vinsert
p5662
I42
VSimpleName: checkError
p5663
tp5664
I1
s(Vinsert
p5665
I34
VNumberLiteral: 14
p5666
tp5667
I2
s(Vinsert
p5668
I42
VSimpleName: getUserSyncFallbackCommand
p5669
tp5670
I2
s(Vinsert
p5671
I42
VSimpleName: setCircuitBreaker
p5672
tp5673
I7
s(Vinsert
p5674
I42
VSimpleName: initializeCollapserProperties
p5675
tp5676
I2
s(Vinsert
p5677
I42
VSimpleName: executionState
p5678
tp5679
I1
s(Vinsert
p5680
I43
VSimpleType: StackTraceElement
p5681
tp5682
I1
s(Vinsert
p5683
I42
VSimpleName: getExecutionException
p5684
tp5685
I10
s(Vinsert
p5686
I45
VStringLiteral: "  actualFutureExecuted: "
p5687
tp5688
I1
s(Vinsert
p5689
I42
VSimpleName: RequestBatch
p5690
tp5691
I3
s(Vinsert
p5692
I42
VSimpleName: HystrixThreadPoolMetrics
p5693
tp5694
I11
s(Vinsert
p5695
I42
VSimpleName: getUpdatedList
p5696
tp5697
I1
s(Vinsert
p5698
I42
VSimpleName: decrementGlobalConcurrentThreads
p5699
tp5700
I1
s(Vinsert
p5701
I42
VSimpleName: CommandPropertiesTest
p5702
tp5703
I1
s(Vinsert
p5704
I42
VSimpleName: getCommandAction
p5705
tp5706
I1
s(Vinsert
p5707
I42
VSimpleName: getPercentile
p5708
tp5709
I3
s(Vinsert
p5710
I45
VStringLiteral: "v33"
p5711
tp5712
I2
s(Vinsert
p5713
I42
VSimpleName: responseKey
p5714
tp5715
I2
s(Vinsert
p5716
I42
VSimpleName: SynchronizedHttpServletResponse
p5717
tp5718
I1
s(Vinsert
p5719
I42
VSimpleName: SimpleExecution
p5720
tp5721
I1
s(Vinsert
p5722
I43
VSimpleType: HystrixCommandExecutionHook
p5723
tp5724
I2
s(Vinsert
p5725
I42
VSimpleName: order
p5726
tp5727
I2
s(Vinsert
p5728
I42
VSimpleName: readTree
p5729
tp5730
I1
s(Vinsert
p5731
I42
VSimpleName: getAllowMaximumSizeToDivergeFromCoreSize
p5732
tp5733
I2
s(Vinsert
p5734
I74
VParameterizedType: Observable<ServerSentEvent>
p5735
tp5736
I1
s(Vinsert
p5737
I40
VQualifiedName: parameterTypes.length
p5738
tp5739
I2
s(Vinsert
p5740
I42
VSimpleName: recordHookCall
p5741
tp5742
I3
s(Vinsert
p5743
I42
VSimpleName: isRecoverableError
p5744
tp5745
I1
s(Vinsert
p5746
I42
VSimpleName: SAMPLE_1
p5747
tp5748
I1
s(Vinsert
p5749
I74
VParameterizedType: Observable<List<HystrixLatencyDistribution>>
p5750
tp5751
I1
s(Vinsert
p5752
I42
VSimpleName: setRequestContextIfNeeded
p5753
tp5754
I1
s(Vinsert
p5755
I42
VSimpleName: Action1
p5756
tp5757
I3
s(Vinsert
p5758
I45
VStringLiteral: "CommandName"
p5759
tp5760
I1
s(Vinsert
p5761
I42
VSimpleName: Scheduler
p5762
tp5763
I4
s(Vinsert
p5764
I42
VSimpleName: extendedParentFallback
p5765
tp5766
I1
s(Vinsert
p5767
I43
VSimpleType: IllegalArgumentException
p5768
tp5769
I5
s(Vinsert
p5770
I42
VSimpleName: HystrixCollapserKey
p5771
tp5772
I7
s(Vinsert
p5773
I42
VSimpleName: HystrixThreadPoolConfiguration
p5774
tp5775
I2
s(Vinsert
p5776
I42
VSimpleName: propName
p5777
tp5778
I3
s(Vinsert
p5779
I42
VSimpleName: t
p5780
tp5781
I16
s(Vinsert
p5782
I45
VStringLiteral: " Executing with Request Context : "
p5783
tp5784
I1
s(Vinsert
p5785
I42
VSimpleName: testGetUserByNameIgnoreBadRequestException
p5786
tp5787
I1
s(Vinsert
p5788
I43
VSimpleType: FeatureContext
p5789
tp5790
I1
s(Vinsert
p5791
I42
VSimpleName: tagList
p5792
tp5793
I1
s(Vinsert
p5794
I42
VSimpleName: getBoolean
p5795
tp5796
I1
s(Vinsert
p5797
I42
VSimpleName: globalStream
p5798
tp5799
I1
s(Vinsert
p5800
I42
VSimpleName: ValueState
p5801
tp5802
I4
s(Vinsert
p5803
I43
VSimpleType: JoinPoint
p5804
tp5805
I1
s(Vinsert
p5806
I42
VSimpleName: wt1
p5807
tp5808
I1
s(Vinsert
p5809
I42
VSimpleName: forName
p5810
tp5811
I1
s(Vinsert
p5812
I42
VSimpleName: getCumulativeCountForEvent
p5813
tp5814
I1
s(Vinsert
p5815
I42
VSimpleName: asyncObservable
p5816
tp5817
I2
s(Vinsert
p5818
I43
VSimpleType: Exception
p5819
tp5820
I20
s(Vinsert
p5821
I42
VSimpleName: threadPoolEventStream
p5822
tp5823
I3
s(Vinsert
p5824
I42
VSimpleName: requestContext
p5825
tp5826
I4
s(Vinsert
p5827
I43
VSimpleType: CustomPublisher
p5828
tp5829
I1
s(Vinsert
p5830
I43
VSimpleType: Scope
p5831
tp5832
I2
s(Vinsert
p5833
I42
VSimpleName: onThreadComplete
p5834
tp5835
I1
s(Vinsert
p5836
I42
VSimpleName: getLatestCount
p5837
tp5838
I2
s(Vinsert
p5839
I42
VSimpleName: HystrixConfigurationStream
p5840
tp5841
I2
s(Vinsert
p5842
I74
VParameterizedType: List<User>
p5843
tp5844
I2
s(Vinsert
p5845
I42
VSimpleName: markShortCircuited
p5846
tp5847
I1
s(Vinsert
p5848
I43
VSimpleType: LongMaxUpdater
p5849
tp5850
I1
s(Vinsert
p5851
I45
VStringLiteral: "HystrixRequestLog.getCurrentRequest().getExecutedCommands(): "
p5852
tp5853
I1
s(Vinsert
p5854
I42
VSimpleName: isExecutionComplete
p5855
tp5856
I1
s(Vinsert
p5857
I42
VSimpleName: validatePlainReturnType
p5858
tp5859
I2
s(Vinsert
p5860
I43
VSimpleType: Instrumentation
p5861
tp5862
I1
s(Vinsert
p5863
I42
VSimpleName: requestCacheEnabled
p5864
tp5865
I2
s(Vinsert
p5866
I42
VSimpleName: Executors
p5867
tp5868
I2
s(Vinsert
p5869
I1
VAnonymousClassDeclaration
p5870
tp5871
I71
s(Vinsert
p5872
I42
VSimpleName: get
p5873
tp5874
I132
s(Vinsert
p5875
I42
VSimpleName: REQUEST
p5876
tp5877
I1
s(Vinsert
p5878
I42
VSimpleName: fooKey
p5879
tp5880
I1
s(Vinsert
p5881
I44
VSingleVariableDeclaration
p5882
tp5883
I313
s(Vinsert
p5884
I42
VSimpleName: bucketOfCommandCompletions
p5885
tp5886
I2
s(Vinsert
p5887
I45
VStringLiteral: "OnNext : "
p5888
tp5889
I1
s(Vinsert
p5890
I34
VNumberLiteral: 90
p5891
tp5892
I1
s(Vinsert
p5893
I43
VSimpleType: FailureCommand
p5894
tp5895
I1
s(Vinsert
p5896
I42
VSimpleName: ObservableCollapserGetWordForNumber
p5897
tp5898
I2
s(Vinsert
p5899
I42
VSimpleName: HystrixCommandConfiguration
p5900
tp5901
I3
s(Vinsert
p5902
I42
VSimpleName: unbride
p5903
tp5904
I1
s(Vinsert
p5905
I42
VSimpleName: testGetFallbackForExtendedCommandV2_extendedParameterFalse
p5906
tp5907
I1
s(Vinsert
p5908
I43
VSimpleType: CommandActionExecutionException
p5909
tp5910
I3
s(Vinsert
p5911
I66
VTextElement: See the License for the specific language governing permissions and
p5912
tp5913
I2
s(Vinsert
p5914
I74
VParameterizedType: List<HystrixCommandExecution>
p5915
tp5916
I1
s(Vinsert
p5917
I40
VQualifiedName: com.netflix.hystrix.contrib.javanica.utils.FutureDecorator
p5918
tp5919
I1
s(Vinsert
p5920
I46
VSuperConstructorInvocation
p5921
tp5922
I29
s(Vinsert
p5923
I42
VSimpleName: getString
p5924
tp5925
I3
s(Vinsert
p5926
I42
VSimpleName: assertRequestContext
p5927
tp5928
I1
s(Vinsert
p5929
I45
VStringLiteral: "B"
p5930
tp5931
I1
s(Vinsert
p5932
I43
VSimpleType: RollingCommandLatencyStream
p5933
tp5934
I2
s(Vinsert
p5935
I76
VWildcardType: ? super String
p5936
tp5937
I1
s(Vinsert
p5938
I42
VSimpleName: TestableExecutionHook
p5939
tp5940
I2
s(Vinsert
p5941
I42
VSimpleName: getId
p5942
tp5943
I3
s(Vinsert
p5944
I42
VSimpleName: Subscription
p5945
tp5946
I8
s(Vinsert
p5947
I42
VSimpleName: getClosure
p5948
tp5949
I1
s(Vinsert
p5950
I74
VParameterizedType: HystrixCollapser.CollapsedRequest<Object,Object>
p5951
tp5952
I2
s(Vinsert
p5953
I42
VSimpleName: defaultPropertiesOpt
p5954
tp5955
I2
s(Vinsert
p5956
I43
VSimpleType: R
p5957
tp5958
I16
s(Vinsert
p5959
I42
VSimpleName: ArrayList
p5960
tp5961
I8
s(Vinsert
p5962
I41
VReturnStatement
p5963
tp5964
I255
s(Vinsert
p5965
I42
VSimpleName: URL
p5966
tp5967
I1
s(Vinsert
p5968
I42
VSimpleName: TearDown
p5969
tp5970
I2
s(Vinsert
p5971
I42
VSimpleName: defaultValue
p5972
tp5973
I8
s(Vinsert
p5974
I42
VSimpleName: ExceptionNotWrappedByHystrix
p5975
tp5976
I1
s(Vinsert
p5977
I42
VSimpleName: root
p5978
tp5979
I1
s(Vinsert
p5980
I42
VSimpleName: eventNotifier
p5981
tp5982
I4
s(Vinsert
p5983
I27
VInfixExpression: <
p5984
tp5985
I8
s(Vinsert
p5986
I42
VSimpleName: IllegalStateException
p5987
tp5988
I7
s(Vinsert
p5989
I43
VSimpleType: Void
p5990
tp5991
I9
s(Vinsert
p5992
I42
VSimpleName: createRequestScopedTasks
p5993
tp5994
I3
s(Vinsert
p5995
I42
VSimpleName: initialize
p5996
tp5997
I1
s(Vinsert
p5998
I42
VSimpleName: isForceOpen
p5999
tp6000
I1
s(Vinsert
p6001
I42
VSimpleName: writeNumberField
p6002
tp6003
I23
s(Vinsert
p6004
I45
VStringLiteral: "mockValueFromHttpRequest"
p6005
tp6006
I1
s(Vinsert
p6007
I42
VSimpleName: id
p6008
tp6009
I13
s(Vinsert
p6010
I42
VSimpleName: markFallbackEmit
p6011
tp6012
I1
s(Vinsert
p6013
I42
VSimpleName: distribution
p6014
tp6015
I1
s(Vinsert
p6016
I42
VSimpleName: acquire
p6017
tp6018
I2
s(Vinsert
p6019
I42
VSimpleName: getInstances
p6020
tp6021
I4
s(Vinsert
p6022
I42
VSimpleName: ServerSentEvent
p6023
tp6024
I1
s(Vinsert
p6025
I45
VStringLiteral: "hystrix/config.stream"
p6026
tp6027
I1
s(Vinsert
p6028
I42
VSimpleName: joinPoint
p6029
tp6030
I10
s(Vinsert
p6031
I34
VNumberLiteral: 123
p6032
tp6033
I1
s(Vinsert
p6034
I43
VSimpleType: HealthCountsStream
p6035
tp6036
I3
s(Vinsert
p6037
I42
VSimpleName: actualFuture
p6038
tp6039
I1
s(Vinsert
p6040
I42
VSimpleName: putIfAbsent
p6041
tp6042
I9
s(Vinsert
p6043
I42
VSimpleName: payloads1
p6044
tp6045
I3
s(Vinsert
p6046
I42
VSimpleName: FailureInjectionHook
p6047
tp6048
I2
s(Vinsert
p6049
I42
VSimpleName: HystrixConcurrencyStrategyDefault
p6050
tp6051
I2
s(Vinsert
p6052
I42
VSimpleName: HystrixCacheKeyGenerator
p6053
tp6054
I2
s(Vinsert
p6055
I42
VSimpleName: Future
p6056
tp6057
I12
s(Vinsert
p6058
I42
VSimpleName: NUMBER_THREADPOOL_EVENT_TYPES
p6059
tp6060
I1
s(Vinsert
p6061
I42
VSimpleName: BasicCommandFallbackTest
p6062
tp6063
I1
s(Vinsert
p6064
I42
VSimpleName: userThreadLatency
p6065
tp6066
I3
s(Vinsert
p6067
I43
VSimpleType: GaugeMetric
p6068
tp6069
I2
s(Vinsert
p6070
I40
VQualifiedName: HystrixRollingNumberEvent.FALLBACK_EMIT
p6071
tp6072
I1
s(Vinsert
p6073
I74
VParameterizedType: ReplaySubject<R>
p6074
tp6075
I1
s(Vinsert
p6076
I42
VSimpleName: Builder
p6077
tp6078
I1
s(Vinsert
p6079
I42
VSimpleName: getRollingMaxValue
p6080
tp6081
I3
s(Vinsert
p6082
I42
VSimpleName: doOnNext
p6083
tp6084
I1
s(Vinsert
p6085
I42
VSimpleName: HystrixUtilizationSseServlet
p6086
tp6087
I2
s(Vinsert
p6088
I42
VSimpleName: getDefault
p6089
tp6090
I1
s(Vinsert
p6091
I40
VQualifiedName: Scheduler.Worker
p6092
tp6093
I2
s(Vinsert
p6094
I40
VQualifiedName: com.netflix.hystrix.metric.RollingThreadPoolConcurrencyStream
p6095
tp6096
I1
s(Vinsert
p6097
I42
VSimpleName: sum
p6098
tp6099
I2
s(Vinsert
p6100
I42
VSimpleName: payloadPublisher
p6101
tp6102
I3
s(Vinsert
p6103
I10
VBreakStatement
p6104
tp6105
I1
s(Vinsert
p6106
I45
VStringLiteral: "requestVolumeThreshold"
p6107
tp6108
I1
s(Vinsert
p6109
I34
VNumberLiteral: 654
p6110
tp6111
I1
s(Vinsert
p6112
I34
VNumberLiteral: 50
p6113
tp6114
I9
s(Vinsert
p6115
I42
VSimpleName: equals
p6116
tp6117
I25
s(Vinsert
p6118
I43
VSimpleType: HystrixCacheKeyGeneratorException
p6119
tp6120
I1
s(Vinsert
p6121
I12
VCatchClause
p6122
tp6123
I24
s(Vinsert
p6124
I74
VParameterizedType: HystrixCollapser.CollapsedRequest<String,String>
p6125
tp6126
I1
s(Vinsert
p6127
I42
VSimpleName: markThreadRejection
p6128
tp6129
I4
s(Vinsert
p6130
I42
VSimpleName: commandMaxActiveGauge
p6131
tp6132
I1
s(Vinsert
p6133
I42
VSimpleName: HystrixThreadPool
p6134
tp6135
I5
s(Vinsert
p6136
I45
VStringLiteral: "ca"
p6137
tp6138
I1
s(Vinsert
p6139
I42
VSimpleName: Blackhole
p6140
tp6141
I2
s(Vinsert
p6142
I45
VStringLiteral: "in isNonBlocking added timerlisterner"
p6143
tp6144
I1
s(Vinsert
p6145
I43
VSimpleType: InterruptibleCommand
p6146
tp6147
I2
s(Vinsert
p6148
I43
VSimpleType: ExecutionException
p6149
tp6150
I3
s(Vinsert
p6151
I42
VSimpleName: HystrixCommandStart
p6152
tp6153
I1
s(Vinsert
p6154
I40
VQualifiedName: CommandStreamTest.Collapser
p6155
tp6156
I1
s(Vinsert
p6157
I42
VSimpleName: percentileBatchSize
p6158
tp6159
I2
s(Vinsert
p6160
I42
VSimpleName: Event
p6161
tp6162
I3
s(Vinsert
p6163
I74
VParameterizedType: LinkedList<HystrixCommandKey>
p6164
tp6165
I1
s(Vinsert
p6166
I40
VQualifiedName: com.netflix.hystrix.metric.RollingCommandLatencyDistributionStream
p6167
tp6168
I1
s(Vinsert
p6169
I42
VSimpleName: threadPoolLatch
p6170
tp6171
I1
s(Vinsert
p6172
I43
VSimpleType: CommandState
p6173
tp6174
I2
s(Vinsert
p6175
I42
VSimpleName: ResettableCommand
p6176
tp6177
I1
s(Vinsert
p6178
I45
VStringLiteral: ""
p6179
tp6180
I3
s(Vinsert
p6181
I66
VTextElement: the code below may reference a HystrixRollingNumberEvent that does not exist in hystrix-core.  If this happens,
p6182
tp6183
I1
s(Vinsert
p6184
I43
VSimpleType: ClosureFactory
p6185
tp6186
I1
s(Vinsert
p6187
I42
VSimpleName: getFactory
p6188
tp6189
I1
s(Vinsert
p6190
I74
VParameterizedType: HystrixInvokableInfo<Integer>
p6191
tp6192
I1
s(Vinsert
p6193
I42
VSimpleName: getShardSizeMean
p6194
tp6195
I2
s(Vinsert
p6196
I42
VSimpleName: pCommandKey
p6197
tp6198
I1
s(Vinsert
p6199
I42
VSimpleName: b
p6200
tp6201
I8
s(Vinsert
p6202
I42
VSimpleName: rollingThreadPoolConcurrencyStream
p6203
tp6204
I3
s(Vinsert
p6205
I42
VSimpleName: subject
p6206
tp6207
I4
s(Vinsert
p6208
I42
VSimpleName: max
p6209
tp6210
I5
s(Vinsert
p6211
I42
VSimpleName: unsubscribe
p6212
tp6213
I4
s(Vinsert
p6214
I42
VSimpleName: BasicCollapserTest
p6215
tp6216
I1
s(Vinsert
p6217
I42
VSimpleName: fallbackResult
p6218
tp6219
I1
s(Vinsert
p6220
I66
VTextElement: You may obtain a copy of the License at
p6221
tp6222
I1
s(Vinsert
p6223
I43
VSimpleType: CannotCompileException
p6224
tp6225
I1
s(Vinsert
p6226
I42
VSimpleName: p75
p6227
tp6228
I1
s(Vinsert
p6229
I42
VSimpleName: MyCollapser
p6230
tp6231
I2
s(Vinsert
p6232
I43
VSimpleType: BasicObservableTest
p6233
tp6234
I1
s(Vinsert
p6235
I42
VSimpleName: props
p6236
tp6237
I1
s(Vinsert
p6238
I66
VTextElement:  agentgt
p6239
tp6240
I1
s(Vinsert
p6241
I42
VSimpleName: obj
p6242
tp6243
I14
s(Vinsert
p6244
I43
VSimpleType: HystrixCollapser.CollapsedRequest
p6245
tp6246
I3
s(Vinsert
p6247
I40
VQualifiedName: HystrixCommandProperties.ExecutionIsolationStrategy.SEMAPHORE
p6248
tp6249
I2
s(Vinsert
p6250
I45
VStringLiteral: "name: 5"
p6251
tp6252
I1
s(Vinsert
p6253
I42
VSimpleName: getPropertiesStrategy
p6254
tp6255
I1
s(Vinsert
p6256
I45
VStringLiteral: "node3"
p6257
tp6258
I1
s(Vinsert
p6259
I42
VSimpleName: HttpURLConnection
p6260
tp6261
I2
s(Vinsert
p6262
I42
VSimpleName: counterAggregator
p6263
tp6264
I1
s(Vinsert
p6265
I42
VSimpleName: getMaximumSize
p6266
tp6267
I2
s(Vinsert
p6268
I74
VParameterizedType: TestSubscriber<Void>
p6269
tp6270
I1
s(Vinsert
p6271
I42
VSimpleName: activeSubscription
p6272
tp6273
I1
s(Vinsert
p6274
I34
VNumberLiteral: 100
p6275
tp6276
I8
s(Vinsert
p6277
I66
VTextElement: Mark when a command gets rejected from the threadpool
p6278
tp6279
I1
s(Vinsert
p6280
I42
VSimpleName: testCacheWithoutContext
p6281
tp6282
I1
s(Vinsert
p6283
I42
VSimpleName: withMaxQueueSize
p6284
tp6285
I1
s(Vinsert
p6286
I43
VSimpleType: MetaHolder
p6287
tp6288
I4
s(Vinsert
p6289
I42
VSimpleName: getModifiers
p6290
tp6291
I1
s(Vinsert
p6292
I42
VSimpleName: CommandUsingRequestCache
p6293
tp6294
I2
s(Vinsert
p6295
I42
VSimpleName: withMaxRequestsInBatch
p6296
tp6297
I1
s(Vinsert
p6298
I43
VSimpleType: Node
p6299
tp6300
I1
s(Vinsert
p6301
I42
VSimpleName: addValue
p6302
tp6303
I2
s(Vinsert
p6304
I45
VStringLiteral: "c2 start: "
p6305
tp6306
I1
s(Vinsert
p6307
I43
VSimpleType: HystrixCommandConfiguration
p6308
tp6309
I3
s(Vinsert
p6310
I43
VSimpleType: SimpleExecution
p6311
tp6312
I1
s(Vinsert
p6313
I42
VSimpleName: config
p6314
tp6315
I4
s(Vinsert
p6316
I42
VSimpleName: hystrixCommandExecution
p6317
tp6318
I1
s(Vinsert
p6319
I42
VSimpleName: exceptions
p6320
tp6321
I1
s(Vinsert
p6322
I42
VSimpleName: eventCounts
p6323
tp6324
I2
s(Vinsert
p6325
I42
VSimpleName: CreditCardAuthorizationResult
p6326
tp6327
I2
s(Vinsert
p6328
I45
VStringLiteral: "run_exception"
p6329
tp6330
I1
s(Vinsert
p6331
I42
VSimpleName: properties
p6332
tp6333
I58
s(Vinsert
p6334
I40
VQualifiedName: rx.Subscription
p6335
tp6336
I1
s(Vinsert
p6337
I42
VSimpleName: isOnError
p6338
tp6339
I1
s(Vinsert
p6340
I42
VSimpleName: getConfig
p6341
tp6342
I1
s(Vinsert
p6343
I45
VStringLiteral: "Future was not started.  Key: "
p6344
tp6345
I1
s(Vinsert
p6346
I42
VSimpleName: getExceptionFromThrowable
p6347
tp6348
I3
s(Vinsert
p6349
I42
VSimpleName: circuitBreaker
p6350
tp6351
I15
s(Vinsert
p6352
I42
VSimpleName: observer
p6353
tp6354
I4
s(Vinsert
p6355
I42
VSimpleName: methodName
p6356
tp6357
I2
s(Vinsert
p6358
I42
VSimpleName: getThreadPool
p6359
tp6360
I1
s(Vinsert
p6361
I42
VSimpleName: sharedSemaphore
p6362
tp6363
I1
s(Vinsert
p6364
I42
VSimpleName: RollingCommandLatencyDistributionStream
p6365
tp6366
I1
s(Vinsert
p6367
I74
VParameterizedType: ArrayList<HystrixEventType>
p6368
tp6369
I4
s(Vinsert
p6370
I40
VQualifiedName: HystrixEventType.SUCCESS
p6371
tp6372
I5
s(Vinsert
p6373
I42
VSimpleName: Instrumentation
p6374
tp6375
I1
s(Vinsert
p6376
I43
VSimpleType: HystrixEventCounter
p6377
tp6378
I1
s(Vinsert
p6379
I42
VSimpleName: withDefault
p6380
tp6381
I2
s(Vinsert
p6382
I40
VQualifiedName: bucketData.stableHistogram
p6383
tp6384
I1
s(Vinsert
p6385
I42
VSimpleName: testGetUser_givenWrongCacheKeyMethodReturnType_shouldThrowException
p6386
tp6387
I1
s(Vinsert
p6388
I42
VSimpleName: cause
p6389
tp6390
I7
s(Vinsert
p6391
I42
VSimpleName: RuntimeException
p6392
tp6393
I18
s(Vinsert
p6394
I74
VParameterizedType: CollapsedRequest<String,String>
p6395
tp6396
I1
s(Vinsert
p6397
I43
VSimpleType: java.lang.Error
p6398
tp6399
I1
s(Vinsert
p6400
I42
VSimpleName: Void
p6401
tp6402
I10
s(Vinsert
p6403
I42
VSimpleName: echo
p6404
tp6405
I1
s(Vinsert
p6406
I42
VSimpleName: getCause
p6407
tp6408
I21
s(Vinsert
p6409
I34
VNumberLiteral: 0L
p6410
tp6411
I2
s(Vinsert
p6412
I74
VParameterizedType: Future<Boolean>
p6413
tp6414
I2
s(Vinsert
p6415
I42
VSimpleName: responseSubject
p6416
tp6417
I2
s(Vinsert
p6418
I40
VQualifiedName: HystrixCircuitBreakerTest.TestCircuitBreaker
p6419
tp6420
I2
s(Vinsert
p6421
I43
VSimpleType: HystrixRequestEventsStream
p6422
tp6423
I1
s(Vinsert
p6424
I42
VSimpleName: B
p6425
tp6426
I2
s(Vinsert
p6427
I42
VSimpleName: tpKey
p6428
tp6429
I1
s(Vinsert
p6430
I42
VSimpleName: premain
p6431
tp6432
I1
s(Vinsert
p6433
I42
VSimpleName: testSubscriber
p6434
tp6435
I1
s(Vinsert
p6436
I45
VStringLiteral: "propertyValue_maximumSize"
p6437
tp6438
I1
s(Vinsert
p6439
I42
VSimpleName: proxyUrl
p6440
tp6441
I1
s(Vinsert
p6442
I42
VSimpleName: onCacheHit
p6443
tp6444
I3
s(Vinsert
p6445
I40
VQualifiedName: ALL_THREADPOOL_EVENT_TYPES.length
p6446
tp6447
I1
s(Vinsert
p6448
I42
VSimpleName: Payload
p6449
tp6450
I7
s(Vinsert
p6451
I34
VNumberLiteral: 951959
p6452
tp6453
I1
s(Vinsert
p6454
I42
VSimpleName: source
p6455
tp6456
I2
s(Vinsert
p6457
I42
VSimpleName: asMock
p6458
tp6459
I1
s(Vinsert
p6460
I42
VSimpleName: HttpResponse
p6461
tp6462
I1
s(Vinsert
p6463
I42
VSimpleName: testGetUserSync
p6464
tp6465
I1
s(Vinsert
p6466
I42
VSimpleName: hystrixPropertiesStrategy
p6467
tp6468
I2
s(Vinsert
p6469
I34
VNumberLiteral: 25
p6470
tp6471
I5
s(Vinsert
p6472
I42
VSimpleName: ceil
p6473
tp6474
I1
s(Vinsert
p6475
I42
VSimpleName: newArrayList
p6476
tp6477
I2
s(Vinsert
p6478
I40
VQualifiedName: com.netflix.hystrix.strategy.HystrixPlugins
p6479
tp6480
I1
s(Vinsert
p6481
I42
VSimpleName: payload
p6482
tp6483
I3
s(Vinsert
p6484
I45
VStringLiteral: "You have set the bucket size to 0ms.  Please set a positive number, so that the metric stream can be properly consumed"
p6485
tp6486
I1
s(Vinsert
p6487
I43
VSimpleType: CommandStreamTest.Command
p6488
tp6489
I2
s(Vinsert
p6490
I42
VSimpleName: sProp
p6491
tp6492
I2
s(Vinsert
p6493
I42
VSimpleName: newSubscription
p6494
tp6495
I2
s(Vinsert
p6496
I66
VTextElement: a j.l.NoSuchFieldError occurs.  Since this data is not being generated by hystrix-core, it's safe to count it as 0
p6497
tp6498
I1
s(Vinsert
p6499
I23
VFieldDeclaration
p6500
tp6501
I24
s(Vinsert
p6502
I42
VSimpleName: FailureCommand
p6503
tp6504
I1
s(Vinsert
p6505
I45
VStringLiteral: "hystrix/utilization.stream"
p6506
tp6507
I1
s(Vinsert
p6508
I42
VSimpleName: SpecificException
p6509
tp6510
I2
s(Vinsert
p6511
I42
VSimpleName: commandActualReturnType
p6512
tp6513
I1
s(Vinsert
p6514
I42
VSimpleName: USERS
p6515
tp6516
I2
s(Vinsert
p6517
I42
VSimpleName: AutowireCapableBeanFactory
p6518
tp6519
I1
s(Vinsert
p6520
I45
VStringLiteral: "BatchCommand"
p6521
tp6522
I1
s(Vinsert
p6523
I43
VSimpleType: LazyCommandExecutionAction
p6524
tp6525
I1
s(Vinsert
p6526
I42
VSimpleName: HystrixCommandCompletion
p6527
tp6528
I7
s(Vinsert
p6529
I42
VSimpleName: HystrixMetricsPublisherCommand
p6530
tp6531
I1
s(Vinsert
p6532
I43
VSimpleType: HystrixMetricsPublisherThreadPoolContainer
p6533
tp6534
I1
s(Vinsert
p6535
I42
VSimpleName: child
p6536
tp6537
I1
s(Vinsert
p6538
I42
VSimpleName: countDown
p6539
tp6540
I9
s(Vinsert
p6541
I43
VSimpleType: HystrixContextRunnable
p6542
tp6543
I3
s(Vinsert
p6544
I42
VSimpleName: events
p6545
tp6546
I1
s(Vinsert
p6547
I42
VSimpleName: CacheRemove
p6548
tp6549
I2
s(Vinsert
p6550
I43
VSimpleType: HystrixThreadPoolMetrics
p6551
tp6552
I7
s(Vinsert
p6553
I42
VSimpleName: outstandingSubscriptions
p6554
tp6555
I1
s(Vinsert
p6556
I42
VSimpleName: CustomPublisher
p6557
tp6558
I1
s(Vinsert
p6559
I42
VSimpleName: replay
p6560
tp6561
I1
s(Vinsert
p6562
I62
VInstanceofExpression
p6563
tp6564
I12
s(Vinsert
p6565
I42
VSimpleName: Type
p6566
tp6567
I3
s(Vinsert
p6568
I45
VStringLiteral: "Exception while creating the MetricsPoller task"
p6569
tp6570
I1
s(Vinsert
p6571
I42
VSimpleName: setException
p6572
tp6573
I1
s(Vinsert
p6574
I45
VStringLiteral: "name: 4"
p6575
tp6576
I2
s(Vinsert
p6577
I43
VSimpleType: CreditCardAuthorizationResult
p6578
tp6579
I1
s(Vinsert
p6580
I69
VMethodRefParameter
p6581
tp6582
I2
s(Vinsert
p6583
I42
VSimpleName: isThreadPoolExecutionStart
p6584
tp6585
I2
s(Vinsert
p6586
I42
VSimpleName: CommandHelloWorld
p6587
tp6588
I1
s(Vinsert
p6589
I42
VSimpleName: response2
p6590
tp6591
I3
s(Vinsert
p6592
I42
VSimpleName: addTimerListener
p6593
tp6594
I2
s(Vinsert
p6595
I34
VNumberLiteral: 2
p6596
tp6597
I9
s(Vinsert
p6598
I42
VSimpleName: BasicCacheTest
p6599
tp6600
I1
s(Vinsert
p6601
I42
VSimpleName: assertThat
p6602
tp6603
I3
s(Vinsert
p6604
I42
VSimpleName: invocationStartTime
p6605
tp6606
I1
s(Vinsert
p6607
I74
VParameterizedType: Future<String>
p6608
tp6609
I4
s(Vinsert
p6610
I42
VSimpleName: CommandWithStubbedFallback
p6611
tp6612
I2
s(Vinsert
p6613
I42
VSimpleName: getThreadPoolCount
p6614
tp6615
I2
s(Vinsert
p6616
I42
VSimpleName: getCacheKey
p6617
tp6618
I3
s(Vinsert
p6619
I42
VSimpleName: CompositeSubscription
p6620
tp6621
I1
s(Vinsert
p6622
I42
VSimpleName: matchFailed
p6623
tp6624
I1
s(Vinsert
p6625
I42
VSimpleName: immediate
p6626
tp6627
I2
s(Vinsert
p6628
I43
VSimpleType: ByteBuffer
p6629
tp6630
I3
s(Vinsert
p6631
I65
VTagElement: @return
p6632
tp6633
I12
s(Vinsert
p6634
I74
VParameterizedType: Func0<HystrixRollingNumberEvent>
p6635
tp6636
I3
s(Vinsert
p6637
I43
VSimpleType: Payload
p6638
tp6639
I7
s(Vinsert
p6640
I42
VSimpleName: getRollingMax
p6641
tp6642
I2
s(Vinsert
p6643
I42
VSimpleName: request3
p6644
tp6645
I2
s(Vinsert
p6646
I43
VSimpleType: HystrixRequestCache
p6647
tp6648
I2
s(Vinsert
p6649
I42
VSimpleName: AtomicInteger
p6650
tp6651
I8
s(Vinsert
p6652
I42
VSimpleName: Throwables
p6653
tp6654
I1
s(Vinsert
p6655
I42
VSimpleName: HystrixPropertiesStrategy
p6656
tp6657
I2
s(Vinsert
p6658
I42
VSimpleName: getById
p6659
tp6660
I1
s(Vinsert
p6661
I40
VQualifiedName: com.netflix.hystrix.strategy.concurrency.HystrixContextScheduler
p6662
tp6663
I1
s(Vinsert
p6664
I45
VStringLiteral: "World"
p6665
tp6666
I2
s(Vinsert
p6667
I42
VSimpleName: BasicErrorPropagationTest
p6668
tp6669
I1
s(Vinsert
p6670
I66
VTextElement: issue is not a problem.
p6671
tp6672
I1
s(Vinsert
p6673
I42
VSimpleName: data
p6674
tp6675
I8
s(Vinsert
p6676
I43
VSimpleType: HystrixRollingNumberEvent
p6677
tp6678
I9
s(Vinsert
p6679
I74
VParameterizedType: Collection<HystrixThreadPoolMetrics>
p6680
tp6681
I1
s(Vinsert
p6682
I42
VSimpleName: collapserFactory
p6683
tp6684
I1
s(Vinsert
p6685
I42
VSimpleName: cumulativeThreadPoolEventCounterStream
p6686
tp6687
I2
s(Vinsert
p6688
I42
VSimpleName: collapserMetricsConfig
p6689
tp6690
I1
s(Vinsert
p6691
I31
VMethodDeclaration
p6692
tp6693
I222
s(Vinsert
p6694
I42
VSimpleName: ObservableCommandNumbersToWords
p6695
tp6696
I1
s(Vinsert
p6697
I42
VSimpleName: getFallbackException
p6698
tp6699
I1
s(Vinsert
p6700
I42
VSimpleName: val
p6701
tp6702
I2
s(Vinsert
p6703
I74
VParameterizedType: CollapsedRequestObservableFunction.ResponseHolder<T>
p6704
tp6705
I1
s(Vinsert
p6706
I27
VInfixExpression: *
p6707
tp6708
I2
s(Vinsert
p6709
I42
VSimpleName: writeHeaders
p6710
tp6711
I1
s(Vinsert
p6712
I40
VQualifiedName: pType.length
p6713
tp6714
I1
s(Vinsert
p6715
I43
VSimpleType: ResettableCommand
p6716
tp6717
I1
s(Vinsert
p6718
I39
VPrimitiveType: void
p6719
tp6720
I117
s(Vinsert
p6721
I40
VQualifiedName: HystrixThreadPoolProperties.Setter
p6722
tp6723
I6
s(Vinsert
p6724
I42
VSimpleName: messageForCause
p6725
tp6726
I1
s(Vinsert
p6727
I66
VTextElement: Licensed under the Apache License, Version 2.0 (the "License");
p6728
tp6729
I1
s(Vinsert
p6730
I74
VParameterizedType: Single<User>
p6731
tp6732
I1
s(Vinsert
p6733
I43
VSimpleType: HystrixMetricsPublisher
p6734
tp6735
I1
s(Vinsert
p6736
I42
VSimpleName: hystrixConfiguration
p6737
tp6738
I2
s(Vinsert
p6739
I43
VSimpleType: AutowireCapableBeanFactory
p6740
tp6741
I1
s(Vinsert
p6742
I42
VSimpleName: actualScheduler
p6743
tp6744
I4
s(Vinsert
p6745
I42
VSimpleName: cacheInvocationParameters
p6746
tp6747
I1
s(Vinsert
p6748
I42
VSimpleName: bucketEventCounts
p6749
tp6750
I3
s(Vinsert
p6751
I40
VQualifiedName: javax.cache.annotation.CacheRemove
p6752
tp6753
I1
s(Vinsert
p6754
I42
VSimpleName: input
p6755
tp6756
I5
s(Vinsert
p6757
I42
VSimpleName: sProperty
p6758
tp6759
I2
s(Vinsert
p6760
I66
VTextElement: the value to set
p6761
tp6762
I1
s(Vinsert
p6763
I74
VParameterizedType: HystrixObservableCommand<Boolean>
p6764
tp6765
I1
s(Vinsert
p6766
I42
VSimpleName: isPresent
p6767
tp6768
I5
s(Vinsert
p6769
I42
VSimpleName: validateReturnType
p6770
tp6771
I2
s(Vinsert
p6772
I43
VSimpleType: JsonNode
p6773
tp6774
I1
s(Vinsert
p6775
I42
VSimpleName: HystrixContexSchedulerAction
p6776
tp6777
I1
s(Vinsert
p6778
I45
VStringLiteral: "4"
p6779
tp6780
I3
s(Vinsert
p6781
I27
VInfixExpression: !=
p6782
tp6783
I26
s(Vinsert
p6784
I42
VSimpleName: ServiceLoader
p6785
tp6786
I1
s(Vinsert
p6787
I42
VSimpleName: Sets
p6788
tp6789
I1
s(Vinsert
p6790
I42
VSimpleName: connection
p6791
tp6792
I1
s(Vinsert
p6793
I42
VSimpleName: newStream
p6794
tp6795
I3
s(Vinsert
p6796
I40
VQualifiedName: TimeUnit.MILLISECONDS
p6797
tp6798
I6
s(Vinsert
p6799
I42
VSimpleName: getLastExecutedCommand
p6800
tp6801
I3
s(Vinsert
p6802
I42
VSimpleName: or
p6803
tp6804
I2
s(Vinsert
p6805
I42
VSimpleName: isShutdown
p6806
tp6807
I1
s(Vinsert
p6808
I42
VSimpleName: HystrixThreadPoolEventStream
p6809
tp6810
I3
s(Vinsert
p6811
I42
VSimpleName: HystrixCommand
p6812
tp6813
I17
s(Vinsert
p6814
I39
VPrimitiveType: boolean
p6815
tp6816
I33
s(Vinsert
p6817
I66
VTextElement:  is being concurrently called.
p6818
tp6819
I1
s(Vinsert
p6820
I42
VSimpleName: hashCode
p6821
tp6822
I5
s(Vinsert
p6823
I42
VSimpleName: Publisher
p6824
tp6825
I3
s(Vinsert
p6826
I42
VSimpleName: _s
p6827
tp6828
I2
s(Vinsert
p6829
I42
VSimpleName: getOriginal
p6830
tp6831
I1
s(Vinsert
p6832
I45
VStringLiteral: "simulated checked exception message"
p6833
tp6834
I2
s(Vinsert
p6835
I42
VSimpleName: wrap
p6836
tp6837
I3
s(Vinsert
p6838
I40
VQualifiedName: javax.cache.annotation.CacheResult
p6839
tp6840
I1
s(Vinsert
p6841
I42
VSimpleName: defaultCollapserKey
p6842
tp6843
I3
s(Vinsert
p6844
I42
VSimpleName: actualOnError
p6845
tp6846
I1
s(Vinsert
p6847
I43
VSimpleType: Scheduler
p6848
tp6849
I4
s(Vinsert
p6850
I42
VSimpleName: schedule
p6851
tp6852
I3
s(Vinsert
p6853
I42
VSimpleName: rawType
p6854
tp6855
I2
s(Vinsert
p6856
I45
VStringLiteral: "Command should implement "
p6857
tp6858
I1
s(Vinsert
p6859
I42
VSimpleName: stack
p6860
tp6861
I1
s(Vinsert
p6862
I42
VSimpleName: startLatch
p6863
tp6864
I4
s(Vinsert
p6865
I42
VSimpleName: getPropertiesAsMap
p6866
tp6867
I1
s(Vinsert
p6868
I34
VNumberLiteral: 99.5
p6869
tp6870
I1
s(Vinsert
p6871
I42
VSimpleName: fromPool
p6872
tp6873
I1
s(Vinsert
p6874
I42
VSimpleName: HttpClient
p6875
tp6876
I1
s(Vinsert
p6877
I42
VSimpleName: construct
p6878
tp6879
I3
s(Vinsert
p6880
I74
VParameterizedType: Observable<Void>
p6881
tp6882
I2
s(Vinsert
p6883
I74
VParameterizedType: Func1<HystrixRequestEvents,String>
p6884
tp6885
I1
s(Vinsert
p6886
I42
VSimpleName: pos
p6887
tp6888
I4
s(Vinsert
p6889
I42
VSimpleName: numCommands
p6890
tp6891
I1
s(Vinsert
p6892
I59
VVariableDeclarationFragment
p6893
tp6894
I361
s(Vinsert
p6895
I42
VSimpleName: u
p6896
tp6897
I1
s(Vinsert
p6898
I42
VSimpleName: metricsRollingPercentileEnabled
p6899
tp6900
I2
s(Vinsert
p6901
I42
VSimpleName: ClosureFactory
p6902
tp6903
I1
s(Vinsert
p6904
I42
VSimpleName: TestRequestCollapser
p6905
tp6906
I1
s(Vinsert
p6907
I42
VSimpleName: markBadRequest
p6908
tp6909
I1
s(Vinsert
p6910
I43
VSimpleType: Histogram
p6911
tp6912
I2
s(Vinsert
p6913
I43
VSimpleType: TimeUnit
p6914
tp6915
I1
s(Vinsert
p6916
I42
VSimpleName: wasUncontended
p6917
tp6918
I2
s(Vinsert
p6919
I42
VSimpleName: ObservableClosureFactory
p6920
tp6921
I1
s(Vinsert
p6922
I42
VSimpleName: shouldReturnOneExecutedTask
p6923
tp6924
I1
s(Vinsert
p6925
I42
VSimpleName: p
p6926
tp6927
I7
s(Vinsert
p6928
I42
VSimpleName: parentThreadState
p6929
tp6930
I3
s(Vinsert
p6931
I42
VSimpleName: HystrixCommandStartStream
p6932
tp6933
I2
s(Vinsert
p6934
I42
VSimpleName: TestSubscriber
p6935
tp6936
I9
s(Vinsert
p6937
I42
VSimpleName: bucketDataLength
p6938
tp6939
I2
s(Vinsert
p6940
I42
VSimpleName: results
p6941
tp6942
I2
s(Vinsert
p6943
I42
VSimpleName: isCommandCompletion
p6944
tp6945
I1
s(Vinsert
p6946
I42
VSimpleName: BatchHystrixCommandFactory
p6947
tp6948
I1
s(Vinsert
p6949
I43
VSimpleType: HystrixPlugins
p6950
tp6951
I3
s(Vinsert
p6952
I42
VSimpleName: metaHolder
p6953
tp6954
I32
s(Vinsert
p6955
I40
VQualifiedName: rx.subjects.ReplaySubject
p6956
tp6957
I1
s(Vinsert
p6958
I42
VSimpleName: startThreadIfNeeded
p6959
tp6960
I1
s(Vinsert
p6961
I45
VStringLiteral: "\u005c"["
p6962
tp6963
I1
s(Vinsert
p6964
I45
VStringLiteral: "countEmit"
p6965
tp6966
I1
s(Vinsert
p6967
I45
VStringLiteral: "we failed with a simulated issue"
p6968
tp6969
I1
s(Vinsert
p6970
I42
VSimpleName: DynamicIntProperty
p6971
tp6972
I7
s(Vinsert
p6973
I45
VStringLiteral: "not expecting"
p6974
tp6975
I1
s(Vinsert
p6976
I42
VSimpleName: getExecutionTimeInMilliseconds
p6977
tp6978
I4
s(Vinsert
p6979
I42
VSimpleName: rxType
p6980
tp6981
I2
s(Vinsert
p6982
I42
VSimpleName: instanceProperty
p6983
tp6984
I1
s(Vinsert
p6985
I42
VSimpleName: CacheResult
p6986
tp6987
I1
s(Vinsert
p6988
I42
VSimpleName: isNotEmpty
p6989
tp6990
I2
s(Vinsert
p6991
I42
VSimpleName: Runnable
p6992
tp6993
I6
s(Vinsert
p6994
I42
VSimpleName: KnownFailureThreadIsolatedTimeoutTestCommandWithFallback
p6995
tp6996
I1
s(Vinsert
p6997
I42
VSimpleName: currentThread
p6998
tp6999
I13
s(Vinsert
p7000
I43
VSimpleType: CBORParser
p7001
tp7002
I1
s(Vinsert
p7003
I42
VSimpleName: setExecutionOccurred
p7004
tp7005
I2
s(Vinsert
p7006
I51
VSynchronizedStatement
p7007
tp7008
I10
s(Vinsert
p7009
I43
VSimpleType: LatentCommand
p7010
tp7011
I1
s(Vinsert
p7012
I42
VSimpleName: NoRequestCacheTimeoutWithoutFallback
p7013
tp7014
I2
s(Vinsert
p7015
I42
VSimpleName: addTransformer
p7016
tp7017
I1
s(Vinsert
p7018
I42
VSimpleName: EventStreamEnum
p7019
tp7020
I1
s(Vinsert
p7021
I42
VSimpleName: desc
p7022
tp7023
I1
s(Vinsert
p7024
I42
VSimpleName: executionTimeoutInMilliseconds
p7025
tp7026
I9
s(Vinsert
p7027
I42
VSimpleName: listener
p7028
tp7029
I1
s(Vinsert
p7030
I45
VStringLiteral: "wrong number of permits for shared semaphore"
p7031
tp7032
I1
s(Vinsert
p7033
I43
VSimpleType: HystrixYammerMetricsPublisherThreadPool
p7034
tp7035
I1
s(Vinsert
p7036
I45
VStringLiteral: "Batch Response contained a response key not in request batch : "
p7037
tp7038
I1
s(Vinsert
p7039
I42
VSimpleName: percentileState
p7040
tp7041
I1
s(Vinsert
p7042
I42
VSimpleName: getRollingMaxConcurrentExecutions
p7043
tp7044
I4
s(Vinsert
p7045
I45
VStringLiteral: "onStart - onFallbackStart - onFallbackSuccess - onComplete - "
p7046
tp7047
I1
s(Vinsert
p7048
I42
VSimpleName: beanFactory
p7049
tp7050
I1
s(Vinsert
p7051
I42
VSimpleName: getDynamicProperty
p7052
tp7053
I1
s(Vinsert
p7054
I42
VSimpleName: TestPropertiesCommand
p7055
tp7056
I1
s(Vinsert
p7057
I42
VSimpleName: commandCleanup
p7058
tp7059
I1
s(Vinsert
p7060
I42
VSimpleName: scheduleLatch
p7061
tp7062
I1
s(Vinsert
p7063
I42
VSimpleName: event
p7064
tp7065
I12
s(Vinsert
p7066
I40
VQualifiedName: HystrixRollingNumberEvent.FALLBACK_MISSING
p7067
tp7068
I4
s(Vinsert
p7069
I42
VSimpleName: json
p7070
tp7071
I43
s(Vinsert
p7072
I42
VSimpleName: metricsRollingPercentileBucketSize
p7073
tp7074
I3
s(Vinsert
p7075
I74
VParameterizedType: ArrayList<String>
p7076
tp7077
I1
s(Vinsert
p7078
I42
VSimpleName: HystrixRequestEventsStream
p7079
tp7080
I1
s(Vinsert
p7081
I43
VSimpleType: HystrixPropertyException
p7082
tp7083
I1
s(Vinsert
p7084
I42
VSimpleName: tearDown
p7085
tp7086
I3
s(Vinsert
p7087
I45
VStringLiteral: "Ex1"
p7088
tp7089
I3
s(Vinsert
p7090
I42
VSimpleName: CommandConstructionPerfTest
p7091
tp7092
I1
s(Vinsert
p7093
I42
VSimpleName: currentTimeMillis
p7094
tp7095
I12
s(Vinsert
p7096
I74
VParameterizedType: TestHystrixCommand<Boolean>
p7097
tp7098
I3
s(Vinsert
p7099
I42
VSimpleName: timeoutRunnable
p7100
tp7101
I1
s(Vinsert
p7102
I42
VSimpleName: CacheTest
p7103
tp7104
I1
s(Vinsert
p7105
I42
VSimpleName: isCompileWeaving
p7106
tp7107
I1
s(Vinsert
p7108
I42
VSimpleName: stop
p7109
tp7110
I1
s(Vinsert
p7111
I42
VSimpleName: HystrixCollapserProperties
p7112
tp7113
I5
s(Vinsert
p7114
I74
VParameterizedType: Observable<Payload>
p7115
tp7116
I1
s(Vinsert
p7117
I42
VSimpleName: getUserSync
p7118
tp7119
I1
s(Vinsert
p7120
I34
VNumberLiteral: 300
p7121
tp7122
I1
s(Vinsert
p7123
I42
VSimpleName: cmd3
p7124
tp7125
I1
s(Vinsert
p7126
I42
VSimpleName: subscribeToStream
p7127
tp7128
I1
s(Vinsert
p7129
I43
VSimpleType: V
p7130
tp7131
I2
s(Vinsert
p7132
I42
VSimpleName: PlatformSpecific
p7133
tp7134
I6
s(Vinsert
p7135
I40
VQualifiedName: LazyHolder.loadCascadedPropertiesFromResources
p7136
tp7137
I1
s(Vinsert
p7138
I42
VSimpleName: getGenericParameter
p7139
tp7140
I1
s(Vinsert
p7141
I66
VTextElement: annotated with 
p7142
tp7143
I1
s(Vinsert
p7144
I42
VSimpleName: newEvents
p7145
tp7146
I1
s(Vinsert
p7147
I42
VSimpleName: exParameterTypes
p7148
tp7149
I1
s(Vinsert
p7150
I43
VSimpleType: HystrixEventType.ThreadPool
p7151
tp7152
I5
s(Vinsert
p7153
I43
VSimpleType: TestableExecutionHook
p7154
tp7155
I2
s(Vinsert
p7156
I40
VQualifiedName: HystrixRollingNumberEvent.SUCCESS
p7157
tp7158
I4
s(Vinsert
p7159
I42
VSimpleName: methodReturnType
p7160
tp7161
I1
s(Vinsert
p7162
I42
VSimpleName: requests
p7163
tp7164
I4
s(Vinsert
p7165
I43
VSimpleType: HystrixCollapserKey
p7166
tp7167
I6
s(Vinsert
p7168
I42
VSimpleName: hystrixThreadPool
p7169
tp7170
I1
s(Vinsert
p7171
I43
VSimpleType: CacheRemove
p7172
tp7173
I2
s(Vinsert
p7174
I43
VSimpleType: HystrixCircuitBreaker
p7175
tp7176
I3
s(Vinsert
p7177
I42
VSimpleName: getUnitTestPropertiesBuilder
p7178
tp7179
I4
s(Vinsert
p7180
I42
VSimpleName: getBooleanProperty
p7181
tp7182
I2
s(Vinsert
p7183
I77
VNormalAnnotation
p7184
tp7185
I2
s(Vinsert
p7186
I40
VQualifiedName: command.builder.executionHook.endExecuteFailureType
p7187
tp7188
I1
s(Vinsert
p7189
I42
VSimpleName: defaultGroupKey
p7190
tp7191
I1
s(Vinsert
p7192
I42
VSimpleName: Applications
p7193
tp7194
I1
s(Vinsert
p7195
I42
VSimpleName: testGetSingleUserWithRxFallback
p7196
tp7197
I1
s(Vinsert
p7198
I43
VSimpleType: CollapserMetricsConfig
p7199
tp7200
I2
s(Vinsert
p7201
I42
VSimpleName: command1
p7202
tp7203
I3
s(Vinsert
p7204
I42
VSimpleName: getUserCommand
p7205
tp7206
I6
s(Vinsert
p7207
I40
VQualifiedName: CommandState.OBSERVABLE_CHAIN_CREATED
p7208
tp7209
I1
s(Vinsert
p7210
I42
VSimpleName: writer
p7211
tp7212
I2
s(Vinsert
p7213
I42
VSimpleName: result1
p7214
tp7215
I1
s(Vinsert
p7216
I43
VSimpleType: Scheduler.Worker
p7217
tp7218
I2
s(Vinsert
p7219
I42
VSimpleName: ObservableCommand
p7220
tp7221
I1
s(Vinsert
p7222
I42
VSimpleName: getProperty
p7223
tp7224
I3
s(Vinsert
p7225
I42
VSimpleName: requestLog
p7226
tp7227
I1
s(Vinsert
p7228
I42
VSimpleName: GenericSetterBuilder
p7229
tp7230
I1
s(Vinsert
p7231
I42
VSimpleName: onFallbackError
p7232
tp7233
I1
s(Vinsert
p7234
I42
VSimpleName: SINGLETON
p7235
tp7236
I1
s(Vinsert
p7237
I42
VSimpleName: HystrixCommandProperties
p7238
tp7239
I6
s(Vinsert
p7240
I42
VSimpleName: isolationType
p7241
tp7242
I1
s(Vinsert
p7243
I34
VNumberLiteral: 4
p7244
tp7245
I3
s(Vinsert
p7246
I42
VSimpleName: propertiesStrategy
p7247
tp7248
I4
s(Vinsert
p7249
I42
VSimpleName: forInteger
p7250
tp7251
I3
s(Vinsert
p7252
I42
VSimpleName: OperationException
p7253
tp7254
I1
s(Vinsert
p7255
I42
VSimpleName: commandRunStartTimeInNanos
p7256
tp7257
I1
s(Vinsert
p7258
I42
VSimpleName: StackTraceElement
p7259
tp7260
I1
s(Vinsert
p7261
I42
VSimpleName: MyHystrixCommandGroupKey
p7262
tp7263
I1
s(Vinsert
p7264
I42
VSimpleName: agentArgs
p7265
tp7266
I1
s(Vinsert
p7267
I42
VSimpleName: EXECUTE_VALUE
p7268
tp7269
I1
s(Vinsert
p7270
I42
VSimpleName: Func0
p7271
tp7272
I10
s(Vinsert
p7273
I42
VSimpleName: getCommandRunStartTimeInNanos
p7274
tp7275
I2
s(Vinsert
p7276
I42
VSimpleName: requestString
p7277
tp7278
I1
s(Vinsert
p7279
I42
VSimpleName: add
p7280
tp7281
I46
s(Vinsert
p7282
I42
VSimpleName: assertEquals
p7283
tp7284
I114
s(Vinsert
p7285
I42
VSimpleName: CountDownLatch
p7286
tp7287
I10
s(Vinsert
p7288
I43
VSimpleType: ServletException
p7289
tp7290
I3
s(Vinsert
p7291
I42
VSimpleName: executionIsolationThreadInterruptOnFutureCancel
p7292
tp7293
I1
s(Vinsert
p7294
I40
VQualifiedName: HystrixEventType.FALLBACK_MISSING
p7295
tp7296
I1
s(Vinsert
p7297
I42
VSimpleName: res
p7298
tp7299
I4
s(Vinsert
p7300
I45
VStringLiteral: "(java.util.List) "
p7301
tp7302
I1
s(Vinsert
p7303
I42
VSimpleName: RollingCollapserBatchSizeDistributionStream
p7304
tp7305
I1
s(Vinsert
p7306
I42
VSimpleName: HISTOGRAM_POOL
p7307
tp7308
I1
s(Vinsert
p7309
I40
VQualifiedName: HystrixRollingNumberEvent.FALLBACK_FAILURE
p7310
tp7311
I2
s(Vinsert
p7312
I42
VSimpleName: assertFalse
p7313
tp7314
I10
s(Vinsert
p7315
I42
VSimpleName: commandDisabled
p7316
tp7317
I1
s(Vinsert
p7318
I43
VSimpleType: DefaultProperties
p7319
tp7320
I4
s(Vinsert
p7321
I42
VSimpleName: ParameterizedType
p7322
tp7323
I2
s(Vinsert
p7324
I42
VSimpleName: hystrixLatencyDistributions
p7325
tp7326
I6
s(Vinsert
p7327
I42
VSimpleName: shutdown
p7328
tp7329
I16
s(Vinsert
p7330
I45
VStringLiteral: "# GetOrderCommand: "
p7331
tp7332
I1
s(Vinsert
p7333
I42
VSimpleName: FALLBACK_VALUE
p7334
tp7335
I1
s(Vinsert
p7336
I42
VSimpleName: Order
p7337
tp7338
I3
s(Vinsert
p7339
I42
VSimpleName: toBlockingObservable
p7340
tp7341
I3
s(Vinsert
p7342
I42
VSimpleName: getWeavingMode
p7343
tp7344
I3
s(Vinsert
p7345
I42
VSimpleName: HystrixRequestCache
p7346
tp7347
I5
s(Vinsert
p7348
I42
VSimpleName: getCorePoolSize
p7349
tp7350
I2
s(Vinsert
p7351
I45
VStringLiteral: "properties"
p7352
tp7353
I1
s(Vinsert
p7354
I42
VSimpleName: GLOBAL
p7355
tp7356
I1
s(Vinsert
p7357
I27
VInfixExpression: &&
p7358
tp7359
I13
s(Vinsert
p7360
I42
VSimpleName: jsonFactory
p7361
tp7362
I5
s(Vinsert
p7363
I66
VTextElement: Record that this command was executed in the HystrixRequestLog.
p7364
tp7365
I1
s(Vinsert
p7366
I42
VSimpleName: TryableSemaphore
p7367
tp7368
I4
s(Vinsert
p7369
I42
VSimpleName: setFallbackSemaphore
p7370
tp7371
I1
s(Vinsert
p7372
I42
VSimpleName: collapserPublishers
p7373
tp7374
I1
s(Vinsert
p7375
I66
VTextElement: For the Hystrix case, each Command invocation has a single action so the concurrency
p7376
tp7377
I1
s(Vinsert
p7378
I43
VSimpleType: HystrixCollapserProperties
p7379
tp7380
I3
s(Vinsert
p7381
I42
VSimpleName: endCurrentThreadExecutingCommand
p7382
tp7383
I4
s(Vinsert
p7384
I66
VTextElement: Unless required by applicable law or agreed to in writing, software
p7385
tp7386
I1
s(Vinsert
p7387
I42
VSimpleName: getCacheName
p7388
tp7389
I2
s(Vinsert
p7390
I42
VSimpleName: executionAttempted
p7391
tp7392
I1
s(Vinsert
p7393
I42
VSimpleName: Monitor
p7394
tp7395
I1
s(Vinsert
p7396
I42
VSimpleName: FlexibleTestHystrixCommand
p7397
tp7398
I1
s(Vinsert
p7399
I42
VSimpleName: httpResponse
p7400
tp7401
I1
s(Vinsert
p7402
I42
VSimpleName: getCurrentMaximumPoolSize
p7403
tp7404
I1
s(Vinsert
p7405
I42
VSimpleName: getDeclaredField
p7406
tp7407
I1
s(Vinsert
p7408
I42
VSimpleName: actualMaximumSize
p7409
tp7410
I3
s(Vinsert
p7411
I42
VSimpleName: HystrixTimer
p7412
tp7413
I6
s(Vinsert
p7414
I42
VSimpleName: getFallbackObservable
p7415
tp7416
I2
s(Vinsert
p7417
I74
VParameterizedType: List<CacheInvocationParameter>
p7418
tp7419
I1
s(Vinsert
p7420
I45
VStringLiteral: "Unexpected execution type for method return type: "
p7421
tp7422
I1
s(Vinsert
p7423
I42
VSimpleName: LOGGER
p7424
tp7425
I4
s(Vinsert
p7426
I40
VQualifiedName: HystrixRequestEvents.ExecutionSignature
p7427
tp7428
I1
s(Vinsert
p7429
I42
VSimpleName: getUserByIdCommand
p7430
tp7431
I6
s(Vinsert
p7432
I42
VSimpleName: addedBucketMax
p7433
tp7434
I2
s(Vinsert
p7435
I42
VSimpleName: JsonNode
p7436
tp7437
I1
s(Vinsert
p7438
I42
VSimpleName: sendError
p7439
tp7440
I2
s(Vinsert
p7441
I42
VSimpleName: emptyList
p7442
tp7443
I2
s(Vinsert
p7444
I45
VStringLiteral: "2"
p7445
tp7446
I1
s(Vinsert
p7447
I42
VSimpleName: fallbackCommand
p7448
tp7449
I2
s(Vinsert
p7450
I43
VSimpleType: TickThread
p7451
tp7452
I1
s(Vinsert
p7453
I42
VSimpleName: Collapser
p7454
tp7455
I3
s(Vinsert
p7456
I42
VSimpleName: HystrixCollapserEventStream
p7457
tp7458
I2
s(Vinsert
p7459
I42
VSimpleName: parseProperty
p7460
tp7461
I1
s(Vinsert
p7462
I45
VStringLiteral: "propertyValue_executionTimeoutInMilliseconds"
p7463
tp7464
I2
s(Vinsert
p7465
I45
VStringLiteral: "OnUnsubscribe"
p7466
tp7467
I1
s(Vinsert
p7468
I43
VSimpleType: ExecutionResult
p7469
tp7470
I1
s(Vinsert
p7471
I74
VParameterizedType: Optional<Object>
p7472
tp7473
I2
s(Vinsert
p7474
I42
VSimpleName: getCommandUtilizationMap
p7475
tp7476
I1
s(Vinsert
p7477
I74
VParameterizedType: Class<?>
p7478
tp7479
I9
s(Vinsert
p7480
I42
VSimpleName: backedBy
p7481
tp7482
I1
s(Vinsert
p7483
I42
VSimpleName: iLow
p7484
tp7485
I1
s(Vinsert
p7486
I43
VSimpleType: LoggerSupplier
p7487
tp7488
I1
s(Vinsert
p7489
I40
VQualifiedName: java.util.Iterator
p7490
tp7491
I1
s(Vinsert
p7492
I43
VSimpleType: CacheKeyInvocationContext
p7493
tp7494
I2
s(Vinsert
p7495
I40
VQualifiedName: INSTANCE.listenersPerInterval
p7496
tp7497
I1
s(Vinsert
p7498
I42
VSimpleName: HystrixUtilizationSseController
p7499
tp7500
I1
s(Vinsert
p7501
I40
VQualifiedName: com.netflix.hystrix.util.HystrixTimer.TimerListener
p7502
tp7503
I1
s(Vinsert
p7504
I42
VSimpleName: mapResponseToRequests
p7505
tp7506
I1
s(Vinsert
p7507
I45
VStringLiteral: "propertyValue_metricsRollingStatisticalWindowInMilliseconds"
p7508
tp7509
I1
s(Vinsert
p7510
I42
VSimpleName: withFallbackEnabled
p7511
tp7512
I1
s(Vinsert
p7513
I43
VSimpleType: RollingThreadPoolEventCounterStream
p7514
tp7515
I2
s(Vinsert
p7516
I43
VSimpleType: CollapsedRequestObservableFunction.ResponseHolder
p7517
tp7518
I1
s(Vinsert
p7519
I42
VSimpleName: debug
p7520
tp7521
I2
s(Vinsert
p7522
I40
VQualifiedName: rx.Scheduler
p7523
tp7524
I1
s(Vinsert
p7525
I42
VSimpleName: collapserProperties
p7526
tp7527
I3
s(Vinsert
p7528
I42
VSimpleName: ctx
p7529
tp7530
I1
s(Vinsert
p7531
I42
VSimpleName: CacheInvocationParameterImpl
p7532
tp7533
I1
s(Vinsert
p7534
I40
VQualifiedName: command.builder.executionHook.endExecuteSuccessResponse
p7535
tp7536
I2
s(Vinsert
p7537
I45
VStringLiteral: "expected event: FALLBACK_MISSING"
p7538
tp7539
I1
s(Vinsert
p7540
I42
VSimpleName: uri
p7541
tp7542
I4
s(Vinsert
p7543
I40
VQualifiedName: command.metrics
p7544
tp7545
I2
s(Vinsert
p7546
I66
VTextElement: not be used in a production environment.
p7547
tp7548
I1
s(Vinsert
p7549
I40
VQualifiedName: percentileState.percentile
p7550
tp7551
I1
s(Vinsert
p7552
I45
VStringLiteral: "timed-out"
p7553
tp7554
I1
s(Vinsert
p7555
I42
VSimpleName: getSimpleName
p7556
tp7557
I4
s(Vinsert
p7558
I42
VSimpleName: cmds
p7559
tp7560
I1
s(Vinsert
p7561
I42
VSimpleName: HystrixPlugins
p7562
tp7563
I24
s(Vinsert
p7564
I42
VSimpleName: timer
p7565
tp7566
I13
s(Vinsert
p7567
I42
VSimpleName: openConnection
p7568
tp7569
I1
s(Vinsert
p7570
I42
VSimpleName: fallbackSemaphorePerCircuit
p7571
tp7572
I2
s(Vinsert
p7573
I45
VStringLiteral: "foo"
p7574
tp7575
I1
s(Vinsert
p7576
I42
VSimpleName: hp
p7577
tp7578
I4
s(Vinsert
p7579
I42
VSimpleName: decrementConcurrentExecutionCount
p7580
tp7581
I1
s(Vinsert
p7582
I45
VStringLiteral: "Ex2"
p7583
tp7584
I4
s(Vinsert
p7585
I42
VSimpleName: RollingCommandLatencyStream
p7586
tp7587
I2
s(Vinsert
p7588
I43
VSimpleType: HystrixThreadPoolProperties
p7589
tp7590
I5
s(Vinsert
p7591
I42
VSimpleName: isIgnorable
p7592
tp7593
I2
s(Vinsert
p7594
I42
VSimpleName: HystrixRequestLog
p7595
tp7596
I21
s(Vinsert
p7597
I66
VTextElement: distributed under the License is distributed on an "AS IS" BASIS,
p7598
tp7599
I1
s(Vinsert
p7600
I42
VSimpleName: errors
p7601
tp7602
I3
s(Vinsert
p7603
I66
VTextElement: are contrary to sequential execution.
p7604
tp7605
I1
s(Vinsert
p7606
I42
VSimpleName: req3Task2
p7607
tp7608
I1
s(Vinsert
p7609
I43
VSimpleType: OutOfMemoryError
p7610
tp7611
I1
s(Vinsert
p7612
I42
VSimpleName: executionIsolationThreadTimeoutInMilliseconds
p7613
tp7614
I1
s(Vinsert
p7615
I42
VSimpleName: HystrixException
p7616
tp7617
I2
s(Vinsert
p7618
I42
VSimpleName: HystrixCommandKey
p7619
tp7620
I21
s(Vinsert
p7621
I34
VNumberLiteral: 951682
p7622
tp7623
I1
s(Vinsert
p7624
I42
VSimpleName: isResponseTimedOut
p7625
tp7626
I1
s(Vinsert
p7627
I42
VSimpleName: shouldWorkWithInheritedMethod
p7628
tp7629
I1
s(Vinsert
p7630
I43
VSimpleType: CommandExecutionHook
p7631
tp7632
I1
s(Vinsert
p7633
I45
VStringLiteral: " OnCompleted"
p7634
tp7635
I1
s(Vinsert
p7636
I42
VSimpleName: incrementAndGet
p7637
tp7638
I11
s(Vinsert
p7639
I43
VSimpleType: HystrixEventNotifier
p7640
tp7641
I1
s(Vinsert
p7642
I43
VSimpleType: RequestContextTestResults
p7643
tp7644
I1
s(Vinsert
p7645
I42
VSimpleName: ExecutionException
p7646
tp7647
I3
s(Vinsert
p7648
I42
VSimpleName: CommandState
p7649
tp7650
I2
s(Vinsert
p7651
I42
VSimpleName: expectedEventType
p7652
tp7653
I1
s(Vinsert
p7654
I42
VSimpleName: paramType
p7655
tp7656
I1
s(Vinsert
p7657
I42
VSimpleName: Action0
p7658
tp7659
I9
s(Vinsert
p7660
I42
VSimpleName: executionOccurred
p7661
tp7662
I11
s(Vinsert
p7663
I76
VWildcardType: ? extends Subscription
p7664
tp7665
I2
s(Vinsert
p7666
I42
VSimpleName: retry
p7667
tp7668
I1
s(Vinsert
p7669
I42
VSimpleName: commandClass
p7670
tp7671
I2
s(Vinsert
p7672
I42
VSimpleName: ordinal
p7673
tp7674
I10
s(Vinsert
p7675
I42
VSimpleName: w
p7676
tp7677
I2
s(Vinsert
p7678
I42
VSimpleName: ResponseType
p7679
tp7680
I11
s(Vinsert
p7681
I42
VSimpleName: eventThunk
p7682
tp7683
I5
s(Vinsert
p7684
I45
VStringLiteral: "ping: \u005cn\u005cn"
p7685
tp7686
I1
s(Vinsert
p7687
I34
VNumberLiteral: 400
p7688
tp7689
I2
s(Vinsert
p7690
I42
VSimpleName: initialStream
p7691
tp7692
I15
s(Vinsert
p7693
I42
VSimpleName: node3
p7694
tp7695
I1
s(Vinsert
p7696
I42
VSimpleName: HystrixObservableCommand
p7697
tp7698
I3
s(Vinsert
p7699
I42
VSimpleName: logger
p7700
tp7701
I20
s(Vinsert
p7702
I40
VQualifiedName: ExecutionType.OBSERVABLE
p7703
tp7704
I1
s(Vinsert
p7705
I42
VSimpleName: threadPools
p7706
tp7707
I1
s(Vinsert
p7708
I42
VSimpleName: wt2
p7709
tp7710
I1
s(Vinsert
p7711
I42
VSimpleName: asList
p7712
tp7713
I3
s(Vinsert
p7714
I42
VSimpleName: toObservable
p7715
tp7716
I8
s(Vinsert
p7717
I42
VSimpleName: reduce
p7718
tp7719
I3
s(Vinsert
p7720
I42
VSimpleName: cmdIterator
p7721
tp7722
I1
s(Vinsert
p7723
I42
VSimpleName: RejectedExecutionException
p7724
tp7725
I2
s(Vinsert
p7726
I42
VSimpleName: commandIterator
p7727
tp7728
I1
s(Vinsert
p7729
I42
VSimpleName: commandInstance
p7730
tp7731
I14
s(Vinsert
p7732
I42
VSimpleName: doOnCompleted
p7733
tp7734
I2
s(Vinsert
p7735
I42
VSimpleName: servoPublisher
p7736
tp7737
I3
s(Vinsert
p7738
I42
VSimpleName: getLong
p7739
tp7740
I1
s(Vinsert
p7741
I43
VSimpleType: AtomicReference
p7742
tp7743
I2
s(Vinsert
p7744
I42
VSimpleName: getExecutionTimePercentile
p7745
tp7746
I5
s(Vinsert
p7747
I43
VSimpleType: DashboardData
p7748
tp7749
I1
s(Vinsert
p7750
I42
VSimpleName: list
p7751
tp7752
I2
s(Vinsert
p7753
I42
VSimpleName: collapsedReq
p7754
tp7755
I6
s(Vinsert
p7756
I42
VSimpleName: shutdownContextIfExists
p7757
tp7758
I1
s(Vinsert
p7759
I42
VSimpleName: representation
p7760
tp7761
I1
s(Vinsert
p7762
I74
VParameterizedType: ReplaySubject<ResponseType>
p7763
tp7764
I1
s(Vinsert
p7765
I42
VSimpleName: futures
p7766
tp7767
I1
s(Vinsert
p7768
I43
VSimpleType: WildcardType
p7769
tp7770
I2
s(Vinsert
p7771
I42
VSimpleName: printStackTrace
p7772
tp7773
I15
s(Vinsert
p7774
I42
VSimpleName: numFallbackEmissions
p7775
tp7776
I1
s(Vinsert
p7777
I42
VSimpleName: HystrixContextRunnable
p7778
tp7779
I3
s(Vinsert
p7780
I42
VSimpleName: defaultCommandKey
p7781
tp7782
I1
s(Vinsert
p7783
I42
VSimpleName: executionLatencyDistribution
p7784
tp7785
I2
s(Vinsert
p7786
I42
VSimpleName: setLength
p7787
tp7788
I1
s(Vinsert
p7789
I43
VSimpleType: CacheInvocationParameterImpl
p7790
tp7791
I1
s(Vinsert
p7792
I42
VSimpleName: JSONArray
p7793
tp7794
I2
s(Vinsert
p7795
I42
VSimpleName: l
p7796
tp7797
I3
s(Vinsert
p7798
I42
VSimpleName: newFixedThreadPool
p7799
tp7800
I2
s(Vinsert
p7801
I42
VSimpleName: fromCache
p7802
tp7803
I1
s(Vinsert
p7804
I42
VSimpleName: fallbackLatency
p7805
tp7806
I2
s(Vinsert
p7807
I42
VSimpleName: write
p7808
tp7809
I1
s(Vinsert
p7810
I45
VStringLiteral: "AFTER expected it to run inside a thread"
p7811
tp7812
I1
s(Vinsert
p7813
I40
VQualifiedName: cmd1.circuitBreaker
p7814
tp7815
I2
s(Vinsert
p7816
I42
VSimpleName: objectObservable
p7817
tp7818
I1
s(Vinsert
p7819
I42
VSimpleName: BasicCollapserPropertiesTest
p7820
tp7821
I1
s(Vinsert
p7822
I43
VSimpleType: BadRequestCommand
p7823
tp7824
I1
s(Vinsert
p7825
I42
VSimpleName: valueState
p7826
tp7827
I4
s(Vinsert
p7828
I45
VStringLiteral: "success"
p7829
tp7830
I1
s(Vinsert
p7831
I43
VSimpleType: Long
p7832
tp7833
I5
s(Vinsert
p7834
I42
VSimpleName: circuitBreakerConfig
p7835
tp7836
I3
s(Vinsert
p7837
I42
VSimpleName: totalLatencyDistribution
p7838
tp7839
I1
s(Vinsert
p7840
I45
VStringLiteral: "io error"
p7841
tp7842
I1
s(Vinsert
p7843
I42
VSimpleName: percentileTotal
p7844
tp7845
I1
s(Vinsert
p7846
I45
VStringLiteral: "getUserByIdAsync"
p7847
tp7848
I1
s(Vinsert
p7849
I42
VSimpleName: initialValue
p7850
tp7851
I2
s(Vinsert
p7852
I43
VSimpleType: TestCommand
p7853
tp7854
I3
s(Vinsert
p7855
I42
VSimpleName: HystrixCircuitBreaker
p7856
tp7857
I3
s(Vinsert
p7858
I42
VSimpleName: ResponseBuilder
p7859
tp7860
I1
s(Vinsert
p7861
I42
VSimpleName: startCurrentThreadExecutingCommand
p7862
tp7863
I2
s(Vinsert
p7864
I42
VSimpleName: Optional
p7865
tp7866
I6
s(Vinsert
p7867
I42
VSimpleName: completionLogicRun
p7868
tp7869
I2
s(Vinsert
p7870
I74
VParameterizedType: Call<Applications>
p7871
tp7872
I1
s(Vinsert
p7873
I66
VTextElement:  during its execution
p7874
tp7875
I1
s(Vinsert
p7876
I45
VStringLiteral: "CommandUtil["
p7877
tp7878
I1
s(Vinsert
p7879
I42
VSimpleName: concurrencyStrategy
p7880
tp7881
I9
s(Vinsert
p7882
I42
VSimpleName: perRequestMetrics
p7883
tp7884
I1
s(Vinsert
p7885
I42
VSimpleName: rank
p7886
tp7887
I2
s(Vinsert
p7888
I42
VSimpleName: availableForReads
p7889
tp7890
I1
s(Vinsert
p7891
I74
VParameterizedType: Future<R>
p7892
tp7893
I1
s(Vinsert
p7894
I42
VSimpleName: onFallbackStart
p7895
tp7896
I1
s(Vinsert
p7897
I42
VSimpleName: Test
p7898
tp7899
I26
s(Vinsert
p7900
I40
VQualifiedName: ProxyConnectionManager.httpClient
p7901
tp7902
I1
s(Vinsert
p7903
I66
VTextElement: An implementation note.  If there's a version mismatch between hystrix-core and hystrix-codahale-metrics-publisher,
p7904
tp7905
I1
s(Vinsert
p7906
I42
VSimpleName: testSingleCommandSingleInterval
p7907
tp7908
I1
s(Vinsert
p7909
I74
VParameterizedType: HystrixCommand<T>
p7910
tp7911
I1
s(Vinsert
p7912
I42
VSimpleName: startFallback
p7913
tp7914
I1
s(Vinsert
p7915
I42
VSimpleName: subscribeOn
p7916
tp7917
I2
s(Vinsert
p7918
I43
VSimpleType: CacheInvocationParameter
p7919
tp7920
I3
s(Vinsert
p7921
I42
VSimpleName: context
p7922
tp7923
I33
s(Vinsert
p7924
I42
VSimpleName: propagateCause
p7925
tp7926
I2
s(Vinsert
p7927
I74
VParameterizedType: Observer<String>
p7928
tp7929
I2
s(Vinsert
p7930
I42
VSimpleName: CumulativeCollapserEventCounterStream
p7931
tp7932
I1
s(Vinsert
p7933
I42
VSimpleName: circuitBreakersByCommand
p7934
tp7935
I1
s(Vinsert
p7936
I42
VSimpleName: r1
p7937
tp7938
I1
s(Vinsert
p7939
I66
VTextElement:  long
p7940
tp7941
I1
s(Vinsert
p7942
I42
VSimpleName: methodNames
p7943
tp7944
I1
s(Vinsert
p7945
I43
VSimpleType: IntegerProperty
p7946
tp7947
I1
s(Vinsert
p7948
I42
VSimpleName: circuitOpened
p7949
tp7950
I1
s(Vinsert
p7951
I42
VSimpleName: mayInterruptIfRunning
p7952
tp7953
I1
s(Vinsert
p7954
I43
VSimpleType: HystrixCommandExecutionHookDefault
p7955
tp7956
I1
s(Vinsert
p7957
I40
VQualifiedName: HystrixCommandMetrics.HealthCounts
p7958
tp7959
I1
s(Vinsert
p7960
I43
VSimpleType: HystrixCommandCompletion
p7961
tp7962
I6
s(Vinsert
p7963
I43
VSimpleType: ExceptionNotWrappedByHystrix
p7964
tp7965
I1
s(Vinsert
p7966
I43
VSimpleType: AtomicInteger
p7967
tp7968
I7
s(Vinsert
p7969
I43
VSimpleType: Publisher
p7970
tp7971
I2
s(Vinsert
p7972
I42
VSimpleName: numConcurrent
p7973
tp7974
I3
s(Vinsert
p7975
I42
VSimpleName: invokable
p7976
tp7977
I1
s(Vinsert
p7978
I42
VSimpleName: setterBuilder
p7979
tp7980
I3
s(Vinsert
p7981
I42
VSimpleName: CollapserPropertiesTest
p7982
tp7983
I1
s(Vinsert
p7984
I42
VSimpleName: clazz
p7985
tp7986
I2
s(Vinsert
p7987
I42
VSimpleName: methods
p7988
tp7989
I1
s(Vinsert
p7990
I42
VSimpleName: apps
p7991
tp7992
I2
s(Vinsert
p7993
I43
VSimpleType: CommandUsingRequestCache
p7994
tp7995
I2
s(Vinsert
p7996
I42
VSimpleName: HystrixCommandEvent
p7997
tp7998
I3
s(Vinsert
p7999
I40
VQualifiedName: java.util.concurrent.TimeUnit
p8000
tp8001
I1
s(Vinsert
p8002
I42
VSimpleName: initializeContext
p8003
tp8004
I15
s(Vinsert
p8005
I43
VSimpleType: HystrixMetricsPublisherFactory
p8006
tp8007
I1
s(Vinsert
p8008
I42
VSimpleName: TimeUnit
p8009
tp8010
I1
s(Vinsert
p8011
I42
VSimpleName: candidateSubscription
p8012
tp8013
I1
s(Vinsert
p8014
I43
VSimpleType: HystrixProperty
p8015
tp8016
I8
s(Vinsert
p8017
I42
VSimpleName: exception
p8018
tp8019
I4
s(Vinsert
p8020
I42
VSimpleName: globalScopedCollapsers
p8021
tp8022
I1
s(Vinsert
p8023
I45
VStringLiteral: "thirdAsyncFallbackCommand failed"
p8024
tp8025
I1
s(Vinsert
p8026
I42
VSimpleName: containsKey
p8027
tp8028
I2
s(Vinsert
p8029
I43
VSimpleType: HystrixRequestEvents.ExecutionSignature
p8030
tp8031
I1
s(Vinsert
p8032
I42
VSimpleName: getTransactionId
p8033
tp8034
I1
s(Vinsert
p8035
I45
VStringLiteral: "no-cache"
p8036
tp8037
I1
s(Vinsert
p8038
I42
VSimpleName: getTotalTimePercentile
p8039
tp8040
I13
s(Vinsert
p8041
I42
VSimpleName: HystrixPropertiesStrategyDefault
p8042
tp8043
I1
s(Vinsert
p8044
I42
VSimpleName: LatentCommand
p8045
tp8046
I1
s(Vinsert
p8047
I42
VSimpleName: RollingThreadPoolEventCounterStream
p8048
tp8049
I2
s(Vinsert
p8050
I43
VSimpleType: LatchedSemaphoreCommand
p8051
tp8052
I1
s(Vinsert
p8053
I43
VSimpleType: CumulativeThreadPoolEventCounterStream
p8054
tp8055
I2
s(Vinsert
p8056
I42
VSimpleName: NoSuchFieldError
p8057
tp8058
I2
s(Vinsert
p8059
I42
VSimpleName: getObj
p8060
tp8061
I2
s(Vinsert
p8062
I45
VStringLiteral: "threadPoolKey"
p8063
tp8064
I2
s(Vinsert
p8065
I34
VNumberLiteral: 60
p8066
tp8067
I1
s(Vinsert
p8068
I42
VSimpleName: testSynchronous
p8069
tp8070
I2
s(Vinsert
p8071
I42
VSimpleName: MockitoAnnotations
p8072
tp8073
I1
s(Vinsert
p8074
I45
VStringLiteral: "text/event-stream"
p8075
tp8076
I1
s(Vinsert
p8077
I43
VSimpleType: HystrixConfigSseServlet
p8078
tp8079
I3
s(Vinsert
p8080
I74
VParameterizedType: Action1<Throwable>
p8081
tp8082
I1
s(Vinsert
p8083
I42
VSimpleName: rollingThreadPoolEventCounterStream
p8084
tp8085
I2
s(Vinsert
p8086
I42
VSimpleName: subscribers
p8087
tp8088
I1
s(Vinsert
p8089
I42
VSimpleName: latch1
p8090
tp8091
I1
s(Vinsert
p8092
I43
VSimpleType: String
p8093
tp8094
I92
s(Vinsert
p8095
I42
VSimpleName: fallbackEventsMatch
p8096
tp8097
I1
s(Vinsert
p8098
I42
VSimpleName: HystrixRequestContextRule
p8099
tp8100
I3
s(Vinsert
p8101
I42
VSimpleName: newHead
p8102
tp8103
I1
s(Vinsert
p8104
I45
VStringLiteral: "execution attempted while in state : "
p8105
tp8106
I1
s(Vinsert
p8107
I42
VSimpleName: async
p8108
tp8109
I2
s(Vinsert
p8110
I42
VSimpleName: HystrixEventNotifierDefault
p8111
tp8112
I1
s(Vinsert
p8113
I42
VSimpleName: e
p8114
tp8115
I60
s(Vinsert
p8116
I42
VSimpleName: duration
p8117
tp8118
I2
s(Vinsert
p8119
I43
VSimpleType: Object
p8120
tp8121
I29
s(Vinsert
p8122
I43
VSimpleType: PercentileBucketData
p8123
tp8124
I1
s(Vinsert
p8125
I45
VStringLiteral: "hystrix-"
p8126
tp8127
I2
s(Vinsert
p8128
I45
VStringLiteral: "queueSize"
p8129
tp8130
I2
s(Vinsert
p8131
I40
VQualifiedName: rx.concurrency.Schedulers
p8132
tp8133
I1
s(Vinsert
p8134
I42
VSimpleName: testReadXmlInputStreamWithNull
p8135
tp8136
I1
s(Vinsert
p8137
I42
VSimpleName: lifecycle
p8138
tp8139
I1
s(Vinsert
p8140
I74
VParameterizedType: Collection<CollapsedRequest<ResponseType,RequestArgumentType>>
p8141
tp8142
I1
s(Vinsert
p8143
I42
VSimpleName: containsTerminalEvent
p8144
tp8145
I1
s(Vinsert
p8146
I67
VMemberRef
p8147
tp8148
I2
s(Vinsert
p8149
I42
VSimpleName: Setter
p8150
tp8151
I20
s(Vinsert
p8152
I42
VSimpleName: chain
p8153
tp8154
I3
s(Vinsert
p8155
I66
VTextElement: Percentile such as 50, 99, or 99.5.
p8156
tp8157
I2
s(Vinsert
p8158
I42
VSimpleName: healthStream
p8159
tp8160
I4
s(Vinsert
p8161
I42
VSimpleName: target
p8162
tp8163
I1
s(Vinsert
p8164
I42
VSimpleName: i
p8165
tp8166
I28
s(Vinsert
p8167
I40
VQualifiedName: HystrixEventType.Collapser.RESPONSE_FROM_CACHE
p8168
tp8169
I1
s(Vinsert
p8170
I42
VSimpleName: maximumSize
p8171
tp8172
I13
s(Vinsert
p8173
I40
VQualifiedName: com.netflix.hystrix.contrib.javanica.utils.ajc.AjcUtils.getOriginalMethod
p8174
tp8175
I1
s(Vinsert
p8176
I42
VSimpleName: assertNotNull
p8177
tp8178
I10
s(Vinsert
p8179
I43
VSimpleType: HystrixCollapserEventStream
p8180
tp8181
I2
s(Vinsert
p8182
I43
VSimpleType: HystrixCommand
p8183
tp8184
I11
s(Vinsert
p8185
I42
VSimpleName: CBORFactory
p8186
tp8187
I1
s(Vinsert
p8188
I42
VSimpleName: markThreadCompletion
p8189
tp8190
I2
s(Vinsert
p8191
I42
VSimpleName: Long
p8192
tp8193
I8
s(Vinsert
p8194
I40
VQualifiedName: sharedSemaphore.numberOfPermits
p8195
tp8196
I1
s(Vinsert
p8197
I42
VSimpleName: testCommandExecutionHookViaRegisterMethod
p8198
tp8199
I1
s(Vinsert
p8200
I42
VSimpleName: CommandExecutionHook
p8201
tp8202
I1
s(Vinsert
p8203
I43
VSimpleType: Func1
p8204
tp8205
I2
s(Vinsert
p8206
I45
VStringLiteral: "name: 1"
p8207
tp8208
I2
s(Vinsert
p8209
I42
VSimpleName: getLatchedSubscriber
p8210
tp8211
I1
s(Vinsert
p8212
I42
VSimpleName: HystrixYammerMetricsPublisherThreadPool
p8213
tp8214
I1
s(Vinsert
p8215
I42
VSimpleName: tick
p8216
tp8217
I1
s(Vinsert
p8218
I42
VSimpleName: replayAll
p8219
tp8220
I1
s(Vinsert
p8221
I42
VSimpleName: Class
p8222
tp8223
I20
s(Vinsert
p8224
I42
VSimpleName: reactiveSocket
p8225
tp8226
I1
s(Vinsert
p8227
I45
VStringLiteral: "5"
p8228
tp8229
I2
s(Vinsert
p8230
I42
VSimpleName: isDestroyed
p8231
tp8232
I1
s(Vinsert
p8233
I45
VStringLiteral: "countBatches"
p8234
tp8235
I1
s(Vinsert
p8236
I74
VParameterizedType: List<String>
p8237
tp8238
I2
s(Vinsert
p8239
I42
VSimpleName: HystrixMetricsPublisherThreadPool
p8240
tp8241
I1
s(Vinsert
p8242
I74
VParameterizedType: CacheKeyInvocationContext<CacheRemove>
p8243
tp8244
I1
s(Vinsert
p8245
I43
VSimpleType: HystrixCacheKeyGenerator
p8246
tp8247
I1
s(Vinsert
p8248
I42
VSimpleName: Override
p8249
tp8250
I128
s(Vinsert
p8251
I43
VSimpleType: BasicCommandPropertiesTest
p8252
tp8253
I1
s(Vinsert
p8254
I74
VParameterizedType: HystrixProperty<Boolean>
p8255
tp8256
I2
s(Vinsert
p8257
I45
VStringLiteral: "Interrupted ex"
p8258
tp8259
I6
s(Vinsert
p8260
I42
VSimpleName: mockReq
p8261
tp8262
I1
s(Vinsert
p8263
I43
VSimpleType: TestRequestCollapserWithShortCircuitedCommand
p8264
tp8265
I1
s(Vinsert
p8266
I42
VSimpleName: should_work_with_parameterized_asyncMethod
p8267
tp8268
I1
s(Vinsert
p8269
I42
VSimpleName: batchStarted
p8270
tp8271
I1
s(Vinsert
p8272
I42
VSimpleName: shouldExecute
p8273
tp8274
I1
s(Vinsert
p8275
I42
VSimpleName: flush
p8276
tp8277
I2
s(Vinsert
p8278
I43
VSimpleType: CumulativeCollapserEventCounterStream
p8279
tp8280
I1
s(Vinsert
p8281
I42
VSimpleName: UnitTest
p8282
tp8283
I3
s(Vinsert
p8284
I42
VSimpleName: andCommandKey
p8285
tp8286
I4
s(Vinsert
p8287
I42
VSimpleName: CommandWithLargeThreadPoolSmallQueue
p8288
tp8289
I1
s(Vinsert
p8290
I66
VTextElement: or any exception that implements ExceptionNotWrappedByHystrix.
p8291
tp8292
I1
s(Vinsert
p8293
I42
VSimpleName: getRollingSum
p8294
tp8295
I2
s(Vinsert
p8296
I42
VSimpleName: TestRequestCollapserWithShortCircuitedCommand
p8297
tp8298
I1
s(Vinsert
p8299
I42
VSimpleName: CumulativeThreadPoolEventCounterStream
p8300
tp8301
I2
s(Vinsert
p8302
I42
VSimpleName: IOException
p8303
tp8304
I13
s(Vinsert
p8305
I42
VSimpleName: executeWithArgs
p8306
tp8307
I3
s(Vinsert
p8308
I42
VSimpleName: HystrixConfigSseServlet
p8309
tp8310
I4
s(Vinsert
p8311
I40
VQualifiedName: java.util.List
p8312
tp8313
I1
s(Vinsert
p8314
I43
VSimpleType: FailureInjectionHook
p8315
tp8316
I2
s(Vinsert
p8317
I42
VSimpleName: intern
p8318
tp8319
I4
s(Vinsert
p8320
I42
VSimpleName: RollingCommandConcurrencyStream
p8321
tp8322
I1
s(Vinsert
p8323
I43
VSimpleType: HystrixTimer
p8324
tp8325
I3
s(Vinsert
p8326
I83
VModifier: private
p8327
tp8328
I23
s(Vinsert
p8329
I42
VSimpleName: assertNoTerminalEvent
p8330
tp8331
I1
s(Vinsert
p8332
I42
VSimpleName: requestStream
p8333
tp8334
I2
s(Vinsert
p8335
I43
VSimpleType: C
p8336
tp8337
I1
s(Vinsert
p8338
I42
VSimpleName: sharedLatch
p8339
tp8340
I3
s(Vinsert
p8341
I43
VSimpleType: SuccessfulCacheableCollapsedCommand
p8342
tp8343
I1
s(Vinsert
p8344
I42
VSimpleName: advancedUserService
p8345
tp8346
I1
s(Vinsert
p8347
I43
VSimpleType: CommandWithErrorThrown
p8348
tp8349
I2
s(Vinsert
p8350
I66
VTextElement:  HystrixRollingNumberEvent
p8351
tp8352
I1
s(Vinsert
p8353
I42
VSimpleName: hystrixTimer
p8354
tp8355
I2
s(Vinsert
p8356
I42
VSimpleName: collide
p8357
tp8358
I1
s(Vinsert
p8359
I42
VSimpleName: cacheKeyAction
p8360
tp8361
I1
s(Vinsert
p8362
I42
VSimpleName: put
p8363
tp8364
I5
s(Vinsert
p8365
I42
VSimpleName: ThreadPoolExecutor
p8366
tp8367
I3
s(Vinsert
p8368
I74
VParameterizedType: Collection<HystrixCommand<?>>
p8369
tp8370
I1
s(Vinsert
p8371
I42
VSimpleName: execution
p8372
tp8373
I3
s(Vinsert
p8374
I42
VSimpleName: CounterMetric
p8375
tp8376
I2
s(Vinsert
p8377
I42
VSimpleName: TimerListener
p8378
tp8379
I1
s(Vinsert
p8380
I42
VSimpleName: getOriginalMethod
p8381
tp8382
I1
s(Vinsert
p8383
I42
VSimpleName: activateUserCommand
p8384
tp8385
I2
s(Vinsert
p8386
I43
VSimpleType: ThreadFactory
p8387
tp8388
I2
s(Vinsert
p8389
I42
VSimpleName: withCoreSize
p8390
tp8391
I3
s(Vinsert
p8392
I40
VQualifiedName: AbstractCommand.TryableSemaphore
p8393
tp8394
I3
s(Vinsert
p8395
I40
VQualifiedName: HystrixCollapserProperties.Setter
p8396
tp8397
I3
s(Vinsert
p8398
I74
VParameterizedType: Future<T>
p8399
tp8400
I1
s(Vinsert
p8401
I42
VSimpleName: Histogram
p8402
tp8403
I3
s(Vinsert
p8404
I42
VSimpleName: E
p8405
tp8406
I1
s(Vinsert
p8407
I42
VSimpleName: commandKey2
p8408
tp8409
I1
s(Vinsert
p8410
I74
VParameterizedType: HashMap<HystrixCommandKey,HystrixCommandUtilization>
p8411
tp8412
I1
s(Vinsert
p8413
I42
VSimpleName: isExtendedFallback
p8414
tp8415
I3
s(Vinsert
p8416
I42
VSimpleName: getScheduler
p8417
tp8418
I2
s(Vinsert
p8419
I45
VStringLiteral: "b"
p8420
tp8421
I2
s(Vinsert
p8422
I42
VSimpleName: throwable
p8423
tp8424
I14
s(Vinsert
p8425
I40
VQualifiedName: HystrixRollingNumberEvent.SEMAPHORE_REJECTED
p8426
tp8427
I2
s(Vinsert
p8428
I42
VSimpleName: HystrixCommandExecutionHook
p8429
tp8430
I2
s(Vinsert
p8431
I43
VSimpleType: TestHystrixCommand
p8432
tp8433
I4
s(Vinsert
p8434
I53
VThrowStatement
p8435
tp8436
I15
s(Vinsert
p8437
I42
VSimpleName: TestCommand
p8438
tp8439
I4
s(Vinsert
p8440
I42
VSimpleName: CacheKey
p8441
tp8442
I1
s(Vinsert
p8443
I42
VSimpleName: InformationalMetric
p8444
tp8445
I4
s(Vinsert
p8446
I42
VSimpleName: AbstractHystrixCommand
p8447
tp8448
I2
s(Vinsert
p8449
I42
VSimpleName: out
p8450
tp8451
I2
s(Vinsert
p8452
I74
VParameterizedType: HashMap<HystrixCommandKey,HystrixCommandConfiguration>
p8453
tp8454
I1
s(Vinsert
p8455
I42
VSimpleName: logSupplier
p8456
tp8457
I2
s(Vinsert
p8458
I40
VQualifiedName: counterState.counter
p8459
tp8460
I4
s(Vinsert
p8461
I42
VSimpleName: cUser
p8462
tp8463
I1
s(Vinsert
p8464
I42
VSimpleName: commandAction
p8465
tp8466
I5
s(Vinsert
p8467
I45
VStringLiteral: "command creation should have HystrixRequestContext"
p8468
tp8469
I1
s(Vinsert
p8470
I42
VSimpleName: observableCommandShouldRaiseHystrixRuntimeException
p8471
tp8472
I1
s(Vinsert
p8473
I42
VSimpleName: Scopes
p8474
tp8475
I2
s(Vinsert
p8476
I43
VSimpleType: HystrixMetricsStreamServlet
p8477
tp8478
I2
s(Vinsert
p8479
I42
VSimpleName: client
p8480
tp8481
I3
s(Vinsert
p8482
I42
VSimpleName: updateRollingMax
p8483
tp8484
I3
s(Vinsert
p8485
I42
VSimpleName: hookEx
p8486
tp8487
I4
s(Vinsert
p8488
I43
VSimpleType: AbstractCommand.ExecutionResult
p8489
tp8490
I1
s(Vinsert
p8491
I45
VStringLiteral: "Execution Sync Error for TestHystrixObservableCommand"
p8492
tp8493
I1
s(Vinsert
p8494
I42
VSimpleName: shouldNotBeWrapped
p8495
tp8496
I4
s(Vinsert
p8497
I42
VSimpleName: cas
p8498
tp8499
I1
s(Vinsert
p8500
I74
VParameterizedType: Notification<?>
p8501
tp8502
I1
s(Vinsert
p8503
I42
VSimpleName: map
p8504
tp8505
I3
s(Vinsert
p8506
I66
VTextElement: for e.g., command threw an exception
p8507
tp8508
I1
s(Vinsert
p8509
I43
VSimpleType: HttpServletRequest
p8510
tp8511
I1
s(Vinsert
p8512
I43
VSimpleType: HttpClient
p8513
tp8514
I1
s(Vinsert
p8515
I43
VSimpleType: StringBuilder
p8516
tp8517
I6
s(Vinsert
p8518
I43
VSimpleType: com.netflix.hystrix.HystrixCommand
p8519
tp8520
I1
s(Vinsert
p8521
I42
VSimpleName: executionConfig
p8522
tp8523
I1
s(Vinsert
p8524
I21
VExpressionStatement
p8525
tp8526
I735
s(Vinsert
p8527
I42
VSimpleName: FALLBACK_EMIT
p8528
tp8529
I1
s(Vinsert
p8530
I42
VSimpleName: HystrixEventType
p8531
tp8532
I26
s(Vinsert
p8533
I26
VImportDeclaration
p8534
tp8535
I28
s(Vinsert
p8536
I42
VSimpleName: Annotation
p8537
tp8538
I1
s(Vinsert
p8539
I45
VStringLiteral: "\u005cn"
p8540
tp8541
I2
s(Vinsert
p8542
I45
VStringLiteral: ", "
p8543
tp8544
I1
s(Vinsert
p8545
I42
VSimpleName: abstractHystrixCommand
p8546
tp8547
I1
s(Vinsert
p8548
I43
VSimpleType: HystrixThreadPoolKey
p8549
tp8550
I10
s(Vinsert
p8551
I42
VSimpleName: response3
p8552
tp8553
I1
s(Vinsert
p8554
I42
VSimpleName: currentCommand
p8555
tp8556
I1
s.