(lp0
(Vinsert
p1
I42
VSimpleName: addValue
p2
tp3
a(Vinsert
p4
I42
VSimpleName: asProperty
p5
tp6
a(Vinsert
p7
I42
VSimpleName: onExecutionEmit
p8
tp9
a(Vinsert
p10
I42
VSimpleName: getContextForCurrentThread
p11
tp12
a(Vinsert
p13
I42
VSimpleName: getConfig
p14
tp15
a(Vinsert
p16
I42
VSimpleName: getData
p17
tp18
a(Vinsert
p19
I42
VSimpleName: getExceptionFromThrowable
p20
tp21
a(Vinsert
p22
I42
VSimpleName: getCommandActions
p23
tp24
a(Vinsert
p25
I42
VSimpleName: getAllExecutedCommands
p26
tp27
a(Vinsert
p28
I42
VSimpleName: reset
p29
tp30
a(Vinsert
p31
I42
VSimpleName: getThreadPool
p32
tp33
a(Vinsert
p34
I42
VSimpleName: markEvent
p35
tp36
a(Vinsert
p37
I42
VSimpleName: commandProperties
p38
tp39
a(Vinsert
p40
I42
VSimpleName: getCacheKeyMethod
p41
tp42
a(Vinsert
p43
I42
VSimpleName: builder
p44
tp45
a(Vinsert
p46
I42
VSimpleName: withMetricsHealthSnapshotIntervalInMilliseconds
p47
tp48
a(Vinsert
p49
I42
VSimpleName: getSingleUserWithRxFallback
p50
tp51
a(Vinsert
p52
I42
VSimpleName: path
p53
tp54
a(Vinsert
p55
I42
VSimpleName: sleep
p56
tp57
a(Vinsert
p58
I42
VSimpleName: subscribe
p59
tp60
a(Vinsert
p61
I42
VSimpleName: isEmpty
p62
tp63
a(Vinsert
p64
I42
VSimpleName: recordValue
p65
tp66
a(Vinsert
p67
I42
VSimpleName: getTarget
p68
tp69
a(Vinsert
p70
I42
VSimpleName: getCause
p71
tp72
a(Vinsert
p73
I42
VSimpleName: getUserByEmail
p74
tp75
a(Vinsert
p76
I42
VSimpleName: coreSize
p77
tp78
a(Vinsert
p79
I42
VSimpleName: isObservable
p80
tp81
a(Vinsert
p82
I42
VSimpleName: poll
p83
tp84
a(Vinsert
p85
I42
VSimpleName: onCacheHit
p86
tp87
a(Vinsert
p88
I42
VSimpleName: println
p89
tp90
a(Vinsert
p91
I42
VSimpleName: getValueAtPercentile
p92
tp93
a(Vinsert
p94
I42
VSimpleName: asMock
p95
tp96
a(Vinsert
p97
I42
VSimpleName: notNull
p98
tp99
a(Vinsert
p100
I42
VSimpleName: getCurrentActiveCount
p101
tp102
a(Vinsert
p103
I42
VSimpleName: writeEndObject
p104
tp105
a(Vinsert
p106
I42
VSimpleName: blockUser
p107
tp108
a(Vinsert
p109
I42
VSimpleName: setAccessible
p110
tp111
a(Vinsert
p112
I42
VSimpleName: getFallbackExecutionType
p113
tp114
a(Vinsert
p115
I42
VSimpleName: getUserByIdWithFallback
p116
tp117
a(Vinsert
p118
I42
VSimpleName: markThreadCompletion
p119
tp120
a(Vinsert
p121
I42
VSimpleName: setCommandPropertiesDefaults
p122
tp123
a(Vinsert
p124
I42
VSimpleName: isOnError
p125
tp126
a(Vinsert
p127
I42
VSimpleName: invoke
p128
tp129
a(Vinsert
p130
I42
VSimpleName: propagate
p131
tp132
a(Vinsert
p133
I42
VSimpleName: getAjcMethod
p134
tp135
a(Vinsert
p136
I42
VSimpleName: threadPoolProperties
p137
tp138
a(Vinsert
p139
I42
VSimpleName: sneakyThrow
p140
tp141
a(Vinsert
p142
I42
VSimpleName: getCurrentCompletedTaskCount
p143
tp144
a(Vinsert
p145
I42
VSimpleName: observeCommandCompletions
p146
tp147
a(Vinsert
p148
I42
VSimpleName: isThreadPoolExecutionStart
p149
tp150
a(Vinsert
p151
I42
VSimpleName: createOrRetrievePublisherForCollapser
p152
tp153
a(Vinsert
p154
I42
VSimpleName: getArgs
p155
tp156
a(Vinsert
p157
I42
VSimpleName: getCurrentLargestPoolSize
p158
tp159
a(Vinsert
p160
I42
VSimpleName: assertThat
p161
tp162
a(Vinsert
p163
I42
VSimpleName: getThreadPoolCount
p164
tp165
a(Vinsert
p166
I42
VSimpleName: isOpen
p167
tp168
a(Vinsert
p169
I42
VSimpleName: set
p170
tp171
a(Vinsert
p172
I42
VSimpleName: immediate
p173
tp174
a(Vinsert
p175
I42
VSimpleName: getExecutionsMappedToLatencies
p176
tp177
a(Vinsert
p178
I42
VSimpleName: isUnsubscribed
p179
tp180
a(Vinsert
p181
I42
VSimpleName: initialize
p182
tp183
a(Vinsert
p184
I42
VSimpleName: getRollingMax
p185
tp186
a(Vinsert
p187
I42
VSimpleName: getRollingMaxValue
p188
tp189
a(Vinsert
p190
I42
VSimpleName: remove
p191
tp192
a(Vinsert
p193
I42
VSimpleName: setCommandKey
p194
tp195
a(Vinsert
p196
I42
VSimpleName: merge
p197
tp198
a(Vinsert
p199
I42
VSimpleName: isPresent
p200
tp201
a(Vinsert
p202
I42
VSimpleName: executeWithArgs
p203
tp204
a(Vinsert
p205
I42
VSimpleName: onCompleted
p206
tp207
a(Vinsert
p208
I42
VSimpleName: getFallbackException
p209
tp210
a(Vinsert
p211
I42
VSimpleName: schedule
p212
tp213
a(Vinsert
p214
I42
VSimpleName: doOnError
p215
tp216
a(Vinsert
p217
I42
VSimpleName: getCommandKey
p218
tp219
a(Vinsert
p220
I42
VSimpleName: run
p221
tp222
a(Vinsert
p223
I42
VSimpleName: split
p224
tp225
a(Vinsert
p226
I42
VSimpleName: getAnnotation
p227
tp228
a(Vinsert
p229
I42
VSimpleName: executionType
p230
tp231
a(Vinsert
p232
I42
VSimpleName: getActualMaximumSize
p233
tp234
a(Vinsert
p235
I42
VSimpleName: share
p236
tp237
a(Vinsert
p238
I42
VSimpleName: validateReturnType
p239
tp240
a(Vinsert
p241
I42
VSimpleName: writeBooleanField
p242
tp243
a(Vinsert
p244
I42
VSimpleName: value
p245
tp246
a(Vinsert
p247
I42
VSimpleName: getOriginal
p248
tp249
a(Vinsert
p250
I42
VSimpleName: or
p251
tp252
a(Vinsert
p253
I42
VSimpleName: onRunSuccess
p254
tp255
a(Vinsert
p256
I42
VSimpleName: getRollingCount
p257
tp258
a(Vinsert
p259
I42
VSimpleName: increment
p260
tp261
a(Vinsert
p262
I42
VSimpleName: hashCode
p263
tp264
a(Vinsert
p265
I42
VSimpleName: withFallbackIsolationSemaphoreMaxConcurrentRequests
p266
tp267
a(Vinsert
p268
I42
VSimpleName: defer
p269
tp270
a(Vinsert
p271
I42
VSimpleName: withGroupKey
p272
tp273
a(Vinsert
p274
I42
VSimpleName: containsKey
p275
tp276
a(Vinsert
p277
I42
VSimpleName: getCurrentConcurrentExecutionCount
p278
tp279
a(Vinsert
p280
I42
VSimpleName: wrap
p281
tp282
a(Vinsert
p283
I42
VSimpleName: defaultCollapserKey
p284
tp285
a(Vinsert
p286
I42
VSimpleName: assertValueCount
p287
tp288
a(Vinsert
p289
I42
VSimpleName: getCurrentRequest
p290
tp291
a(Vinsert
p292
I42
VSimpleName: getInstance
p293
tp294
a(Vinsert
p295
I42
VSimpleName: toBlockingObservable
p296
tp297
a(Vinsert
p298
I42
VSimpleName: getCachedCount
p299
tp300
a(Vinsert
p301
I42
VSimpleName: onError
p302
tp303
a(Vinsert
p304
I42
VSimpleName: isResponseFromFallback
p305
tp306
a(Vinsert
p307
I42
VSimpleName: withCollapserKey
p308
tp309
a(Vinsert
p310
I42
VSimpleName: createWithSize
p311
tp312
a(Vinsert
p313
I42
VSimpleName: loadClass
p314
tp315
a(Vinsert
p316
I42
VSimpleName: getCommandConfig
p317
tp318
a(Vinsert
p319
I42
VSimpleName: error
p320
tp321
a(Vinsert
p322
I42
VSimpleName: fallback
p323
tp324
a(Vinsert
p325
I42
VSimpleName: isCommandCompletion
p326
tp327
a(Vinsert
p328
I42
VSimpleName: skip
p329
tp330
a(Vinsert
p331
I42
VSimpleName: initialValue
p332
tp333
a(Vinsert
p334
I42
VSimpleName: startCurrentThreadExecutingCommand
p335
tp336
a(Vinsert
p337
I42
VSimpleName: getKey
p338
tp339
a(Vinsert
p340
I42
VSimpleName: getClass
p341
tp342
a(Vinsert
p343
I42
VSimpleName: getCommandCount
p344
tp345
a(Vinsert
p346
I42
VSimpleName: getExecutionTimeInMilliseconds
p347
tp348
a(Vinsert
p349
I42
VSimpleName: getAutowireCapableBeanFactory
p350
tp351
a(Vinsert
p352
I42
VSimpleName: isNotEmpty
p353
tp354
a(Vinsert
p355
I42
VSimpleName: currentThread
p356
tp357
a(Vinsert
p358
I42
VSimpleName: addTransformer
p359
tp360
a(Vinsert
p361
I42
VSimpleName: getBuilder
p362
tp363
a(Vinsert
p364
I42
VSimpleName: offer
p365
tp366
a(Vinsert
p367
I42
VSimpleName: executionTimeoutInMilliseconds
p368
tp369
a(Vinsert
p370
I42
VSimpleName: getKeyParameters
p371
tp372
a(Vinsert
p373
I42
VSimpleName: markThreadPoolRejection
p374
tp375
a(Vinsert
p376
I42
VSimpleName: getRequestURI
p377
tp378
a(Vinsert
p379
I42
VSimpleName: defaultThreadPoolKey
p380
tp381
a(Vinsert
p382
I42
VSimpleName: computation
p383
tp384
a(Vinsert
p385
I42
VSimpleName: executionEventsMatch
p386
tp387
a(Vinsert
p388
I42
VSimpleName: initCause
p389
tp390
a(Vinsert
p391
I42
VSimpleName: getExecutedCommandsAsString
p392
tp393
a(Vinsert
p394
I42
VSimpleName: metricsRollingPercentileBucketSize
p395
tp396
a(Vinsert
p397
I42
VSimpleName: doFilter
p398
tp399
a(Vinsert
p400
I42
VSimpleName: single
p401
tp402
a(Vinsert
p403
I42
VSimpleName: getCollapserProperties
p404
tp405
a(Vinsert
p406
I42
VSimpleName: observable
p407
tp408
a(Vinsert
p409
I42
VSimpleName: currentTimeMillis
p410
tp411
a(Vinsert
p412
I42
VSimpleName: group
p413
tp414
a(Vinsert
p415
I42
VSimpleName: isAnnotationPresent
p416
tp417
a(Vinsert
p418
I42
VSimpleName: metricsRollingStatisticalWindowBuckets
p419
tp420
a(Vinsert
p421
I42
VSimpleName: clear
p422
tp423
a(Vinsert
p424
I42
VSimpleName: getUserSync
p425
tp426
a(Vinsert
p427
I42
VSimpleName: withAdditionalTag
p428
tp429
a(Vinsert
p430
I42
VSimpleName: getHystrixCommand
p431
tp432
a(Vinsert
p433
I42
VSimpleName: andThreadPoolPropertiesDefaults
p434
tp435
a(Vinsert
p436
I42
VSimpleName: getBlockingQueue
p437
tp438
a(Vinsert
p439
I42
VSimpleName: getProperties
p440
tp441
a(Vinsert
p442
I42
VSimpleName: toList
p443
tp444
a(Vinsert
p445
I42
VSimpleName: getAllowMaximumSizeToDivergeFromCoreSize
p446
tp447
a(Vinsert
p448
I42
VSimpleName: getReturnType
p449
tp450
a(Vinsert
p451
I42
VSimpleName: toJsonString
p452
tp453
a(Vinsert
p454
I42
VSimpleName: getParameterTypes
p455
tp456
a(Vinsert
p457
I42
VSimpleName: getMetrics
p458
tp459
a(Vinsert
p460
I42
VSimpleName: isDone
p461
tp462
a(Vinsert
p463
I42
VSimpleName: getUnitTestPropertiesBuilder
p464
tp465
a(Vinsert
p466
I42
VSimpleName: getBooleanProperty
p467
tp468
a(Vinsert
p469
I42
VSimpleName: fromNullable
p470
tp471
a(Vinsert
p472
I42
VSimpleName: addCallback
p473
tp474
a(Vinsert
p475
I42
VSimpleName: writeObjectFieldStart
p476
tp477
a(Vinsert
p478
I42
VSimpleName: cas
p479
tp480
a(Vinsert
p481
I42
VSimpleName: getProperty
p482
tp483
a(Vinsert
p484
I42
VSimpleName: isCurrentThreadInitialized
p485
tp486
a(Vinsert
p487
I42
VSimpleName: append
p488
tp489
a(Vinsert
p490
I42
VSimpleName: attachCallingThreadStack
p491
tp492
a(Vinsert
p493
I42
VSimpleName: onFallbackError
p494
tp495
a(Vinsert
p496
I42
VSimpleName: withTag
p497
tp498
a(Vinsert
p499
I42
VSimpleName: isInterrupted
p500
tp501
a(Vinsert
p502
I42
VSimpleName: loadCascadedPropertiesFromResources
p503
tp504
a(Vinsert
p505
I42
VSimpleName: intValue
p506
tp507
a(Vinsert
p508
I42
VSimpleName: info
p509
tp510
a(Vinsert
p511
I42
VSimpleName: markCommandStart
p512
tp513
a(Vinsert
p514
I42
VSimpleName: getCommandRunStartTimeInNanos
p515
tp516
a(Vinsert
p517
I42
VSimpleName: readXmlInputStream
p518
tp519
a(Vinsert
p520
I42
VSimpleName: add
p521
tp522
a(Vinsert
p523
I42
VSimpleName: isAssignableFrom
p524
tp525
a(Vinsert
p526
I42
VSimpleName: emitResponse
p527
tp528
a(Vinsert
p529
I42
VSimpleName: withCircuitBreakerErrorThresholdPercentage
p530
tp531
a(Vinsert
p532
I42
VSimpleName: execute
p533
tp534
a(Vinsert
p535
I42
VSimpleName: filter
p536
tp537
a(Vinsert
p538
I42
VSimpleName: openConnection
p539
tp540
a(Vinsert
p541
I42
VSimpleName: onComplete
p542
tp543
a(Vinsert
p544
I42
VSimpleName: markShards
p545
tp546
a(Vinsert
p547
I42
VSimpleName: getArgument
p548
tp549
a(Vinsert
p550
I42
VSimpleName: length
p551
tp552
a(Vinsert
p553
I42
VSimpleName: iterator
p554
tp555
a(Vinsert
p556
I42
VSimpleName: executionState
p557
tp558
a(Vinsert
p559
I42
VSimpleName: newArrayList
p560
tp561
a(Vinsert
p562
I42
VSimpleName: shutdown
p563
tp564
a(Vinsert
p565
I42
VSimpleName: retrieveAllAplications
p566
tp567
a(Vinsert
p568
I42
VSimpleName: getCumulativeCount
p569
tp570
a(Vinsert
p571
I42
VSimpleName: getRequestVolumeThreshold
p572
tp573
a(Vinsert
p574
I42
VSimpleName: getSampleStream
p575
tp576
a(Vinsert
p577
I42
VSimpleName: getCorePoolSize
p578
tp579
a(Vinsert
p580
I42
VSimpleName: submit
p581
tp582
a(Vinsert
p583
I42
VSimpleName: getCanonicalName
p584
tp585
a(Vinsert
p586
I42
VSimpleName: isResponseRejected
p587
tp588
a(Vinsert
p589
I42
VSimpleName: cacheName
p590
tp591
a(Vinsert
p592
I42
VSimpleName: isExtendedParentFallback
p593
tp594
a(Vinsert
p595
I42
VSimpleName: isExecutedInThread
p596
tp597
a(Vinsert
p598
I42
VSimpleName: getMethod
p599
tp600
a(Vinsert
p601
I42
VSimpleName: withMaximumSize
p602
tp603
a(Vinsert
p604
I42
VSimpleName: circuitBreakerForceOpen
p605
tp606
a(Vinsert
p607
I42
VSimpleName: toString
p608
tp609
a(Vinsert
p610
I42
VSimpleName: isResponseThreadPoolRejected
p611
tp612
a(Vinsert
p613
I42
VSimpleName: getCacheName
p614
tp615
a(Vinsert
p616
I42
VSimpleName: newGauge
p617
tp618
a(Vinsert
p619
I42
VSimpleName: join
p620
tp621
a(Vinsert
p622
I42
VSimpleName: clearProperty
p623
tp624
a(Vinsert
p625
I42
VSimpleName: close
p626
tp627
a(Vinsert
p628
I42
VSimpleName: withCircuitBreakerEnabled
p629
tp630
a(Vinsert
p631
I42
VSimpleName: getBuffer
p632
tp633
a(Vinsert
p634
I42
VSimpleName: warn
p635
tp636
a(Vinsert
p637
I42
VSimpleName: window
p638
tp639
a(Vinsert
p640
I42
VSimpleName: getExecutionType
p641
tp642
a(Vinsert
p643
I42
VSimpleName: getMean
p644
tp645
a(Vinsert
p646
I42
VSimpleName: sendError
p647
tp648
a(Vinsert
p649
I42
VSimpleName: metricsRollingPercentileWindowInMilliseconds
p650
tp651
a(Vinsert
p652
I42
VSimpleName: contains
p653
tp654
a(Vinsert
p655
I42
VSimpleName: toFuture
p656
tp657
a(Vinsert
p658
I42
VSimpleName: emptyList
p659
tp660
a(Vinsert
p661
I42
VSimpleName: getExecutor
p662
tp663
a(Vinsert
p664
I42
VSimpleName: toBlocking
p665
tp666
a(Vinsert
p667
I42
VSimpleName: next
p668
tp669
a(Vinsert
p670
I42
VSimpleName: flatMap
p671
tp672
a(Vinsert
p673
I42
VSimpleName: metricsRollingPercentileWindowBuckets
p674
tp675
a(Vinsert
p676
I42
VSimpleName: getThrowable
p677
tp678
a(Vinsert
p679
I42
VSimpleName: put
p680
tp681
a(Vinsert
p682
I42
VSimpleName: getFailedExecutionException
p683
tp684
a(Vinsert
p685
I42
VSimpleName: assertCompleted
p686
tp687
a(Vinsert
p688
I42
VSimpleName: getCommandUtilizationMap
p689
tp690
a(Vinsert
p691
I42
VSimpleName: backedBy
p692
tp693
a(Vinsert
p694
I42
VSimpleName: getConfigInstance
p695
tp696
a(Vinsert
p697
I42
VSimpleName: getArray
p698
tp699
a(Vinsert
p700
I42
VSimpleName: start
p701
tp702
a(Vinsert
p703
I42
VSimpleName: unmodifiableCollection
p704
tp705
a(Vinsert
p706
I42
VSimpleName: debug
p707
tp708
a(Vinsert
p709
I42
VSimpleName: cancel
p710
tp711
a(Vinsert
p712
I42
VSimpleName: await
p713
tp714
a(Vinsert
p715
I42
VSimpleName: observableExecutionMode
p716
tp717
a(Vinsert
p718
I42
VSimpleName: getRawType
p719
tp720
a(Vinsert
p721
I42
VSimpleName: trim
p722
tp723
a(Vinsert
p724
I42
VSimpleName: getSimpleName
p725
tp726
a(Vinsert
p727
I42
VSimpleName: getMaximumPoolSize
p728
tp729
a(Vinsert
p730
I42
VSimpleName: createGenerator
p731
tp732
a(Vinsert
p733
I42
VSimpleName: getExecutionEvents
p734
tp735
a(Vinsert
p736
I42
VSimpleName: getSignature
p737
tp738
a(Vinsert
p739
I42
VSimpleName: cast
p740
tp741
a(Vinsert
p742
I42
VSimpleName: commandInheritsThreadPoolKey
p743
tp744
a(Vinsert
p745
I42
VSimpleName: createFailedResponse
p746
tp747
a(Vinsert
p748
I42
VSimpleName: decrementConcurrentExecutionCount
p749
tp750
a(Vinsert
p751
I42
VSimpleName: setProperty
p752
tp753
a(Vinsert
p754
I42
VSimpleName: getCommandProperties
p755
tp756
a(Vinsert
p757
I42
VSimpleName: observe
p758
tp759
a(Vinsert
p760
I42
VSimpleName: setDaemon
p761
tp762
a(Vinsert
p763
I42
VSimpleName: getThreadPoolKey
p764
tp765
a(Vinsert
p766
I42
VSimpleName: wrapCallable
p767
tp768
a(Vinsert
p769
I42
VSimpleName: incrementAndGet
p770
tp771
a(Vinsert
p772
I42
VSimpleName: getAppEngineThreadFactory
p773
tp774
a(Vinsert
p775
I42
VSimpleName: getCommandInstance
p776
tp777
a(Vinsert
p778
I42
VSimpleName: onNext
p779
tp780
a(Vinsert
p781
I42
VSimpleName: retry
p782
tp783
a(Vinsert
p784
I42
VSimpleName: addEvents
p785
tp786
a(Vinsert
p787
I42
VSimpleName: ordinal
p788
tp789
a(Vinsert
p790
I42
VSimpleName: create
p791
tp792
a(Vinsert
p793
I42
VSimpleName: getHealthCounts
p794
tp795
a(Vinsert
p796
I42
VSimpleName: hasCompleted
p797
tp798
a(Vinsert
p799
I42
VSimpleName: asList
p800
tp801
a(Vinsert
p802
I42
VSimpleName: toObservable
p803
tp804
a(Vinsert
p805
I42
VSimpleName: reduce
p806
tp807
a(Vinsert
p808
I42
VSimpleName: isResponseShortCircuited
p809
tp810
a(Vinsert
p811
I42
VSimpleName: doOnCompleted
p812
tp813
a(Vinsert
p814
I42
VSimpleName: getLong
p815
tp816
a(Vinsert
p817
I42
VSimpleName: startCachingStreamValuesIfUnstarted
p818
tp819
a(Vinsert
p820
I42
VSimpleName: getExecutionTimePercentile
p821
tp822
a(Vinsert
p823
I42
VSimpleName: maxQueueSize
p824
tp825
a(Vinsert
p826
I42
VSimpleName: withMetricsRollingStatisticalWindowBuckets
p827
tp828
a(Vinsert
p829
I42
VSimpleName: call
p830
tp831
a(Vinsert
p832
I42
VSimpleName: getValue
p833
tp834
a(Vinsert
p835
I42
VSimpleName: getEventCounts
p836
tp837
a(Vinsert
p838
I42
VSimpleName: printStackTrace
p839
tp840
a(Vinsert
p841
I42
VSimpleName: executionOccurred
p842
tp843
a(Vinsert
p844
I42
VSimpleName: createWorker
p845
tp846
a(Vinsert
p847
I42
VSimpleName: newFixedThreadPool
p848
tp849
a(Vinsert
p850
I42
VSimpleName: write
p851
tp852
a(Vinsert
p853
I42
VSimpleName: getLowerBounds
p854
tp855
a(Vinsert
p856
I42
VSimpleName: getMetaHolder
p857
tp858
a(Vinsert
p859
I42
VSimpleName: withCircuitBreakerForceClosed
p860
tp861
a(Vinsert
p862
I42
VSimpleName: writeStringField
p863
tp864
a(Vinsert
p865
I42
VSimpleName: register
p866
tp867
a(Vinsert
p868
I42
VSimpleName: getDeclaredMethods
p869
tp870
a(Vinsert
p871
I42
VSimpleName: consumeCPU
p872
tp873
a(Vinsert
p874
I42
VSimpleName: empty
p875
tp876
a(Vinsert
p877
I42
VSimpleName: markCommandCompletion
p878
tp879
a(Vinsert
p880
I42
VSimpleName: getCacheRemoveInvocationContext
p881
tp882
a(Vinsert
p883
I42
VSimpleName: isResponseSemaphoreRejected
p884
tp885
a(Vinsert
p886
I42
VSimpleName: getIntervalHistogram
p887
tp888
a(Vinsert
p889
I42
VSimpleName: pop
p890
tp891
a(Vinsert
p892
I42
VSimpleName: onBackpressureBuffer
p893
tp894
a(Vinsert
p895
I42
VSimpleName: doOnUnsubscribe
p896
tp897
a(Vinsert
p898
I42
VSimpleName: markNonSuccess
p899
tp900
a(Vinsert
p901
I42
VSimpleName: getUserSyncFallbackCommand
p902
tp903
a(Vinsert
p904
I42
VSimpleName: setCircuitBreaker
p905
tp906
a(Vinsert
p907
I42
VSimpleName: markTimeout
p908
tp909
a(Vinsert
p910
I42
VSimpleName: getClassLoader
p911
tp912
a(Vinsert
p913
I42
VSimpleName: getExecutionException
p914
tp915
a(Vinsert
p916
I42
VSimpleName: print
p917
tp918
a(Vinsert
p919
I42
VSimpleName: getWriter
p920
tp921
a(Vinsert
p922
I42
VSimpleName: decrementGlobalConcurrentThreads
p923
tp924
a(Vinsert
p925
I42
VSimpleName: subscribeOn
p926
tp927
a(Vinsert
p928
I42
VSimpleName: context
p929
tp930
a(Vinsert
p931
I42
VSimpleName: getPercentile
p932
tp933
a(Vinsert
p934
I42
VSimpleName: load
p935
tp936
a(Vinsert
p937
I42
VSimpleName: readTree
p938
tp939
a(Vinsert
p940
I42
VSimpleName: getMessage
p941
tp942
a(Vinsert
p943
I42
VSimpleName: getInteger
p944
tp945
a(Vinsert
p946
I42
VSimpleName: addAll
p947
tp948
a(Vinsert
p949
I42
VSimpleName: allowRequest
p950
tp951
a(Vinsert
p952
I42
VSimpleName: setFallbackSemaphore
p953
tp954
a(Vinsert
p955
I42
VSimpleName: actualMaximumSize
p956
tp957
a(Vinsert
p958
I42
VSimpleName: endCurrentThreadExecutingCommand
p959
tp960
a(Vinsert
p961
I42
VSimpleName: withAllowMaximumSizeToDivergeFromCoreSize
p962
tp963
a(Vinsert
p964
I42
VSimpleName: scan
p965
tp966
a(Vinsert
p967
I42
VSimpleName: build
p968
tp969
a(Vinsert
p970
I42
VSimpleName: getUserDefProperties
p971
tp972
a(Vinsert
p973
I42
VSimpleName: forName
p974
tp975
a(Vinsert
p976
I42
VSimpleName: getParameter
p977
tp978
a(Vinsert
p979
I42
VSimpleName: withQueueSizeRejectionThreshold
p980
tp981
a(Vinsert
p982
I42
VSimpleName: findAll
p983
tp984
a(Vinsert
p985
I42
VSimpleName: initializeContext
p986
tp987
a(Vinsert
p988
I42
VSimpleName: executor
p989
tp990
a(Vinsert
p991
I42
VSimpleName: getLatestCount
p992
tp993
a(Vinsert
p994
I42
VSimpleName: getCacheKeyAction
p995
tp996
a(Vinsert
p997
I42
VSimpleName: from
p998
tp999
a(Vinsert
p1000
I42
VSimpleName: requestCacheEnabled
p1001
tp1002
a(Vinsert
p1003
I42
VSimpleName: updateRollingMax
p1004
tp1005
a(Vinsert
p1006
I42
VSimpleName: get
p1007
tp1008
a(Vinsert
p1009
I42
VSimpleName: getTotalTimePercentile
p1010
tp1011
a(Vinsert
p1012
I42
VSimpleName: values
p1013
tp1014
a(Vinsert
p1015
I42
VSimpleName: newHashSet
p1016
tp1017
a(Vinsert
p1018
I42
VSimpleName: cacheResultInvocationContext
p1019
tp1020
a(Vinsert
p1021
I42
VSimpleName: getStartTimestamp
p1022
tp1023
a(Vinsert
p1024
I42
VSimpleName: getObj
p1025
tp1026
a(Vinsert
p1027
I42
VSimpleName: getId
p1028
tp1029
a(Vinsert
p1030
I42
VSimpleName: weavingMode
p1031
tp1032
a(Vinsert
p1033
I42
VSimpleName: compareAndSet
p1034
tp1035
a(Vinsert
p1036
I42
VSimpleName: getString
p1037
tp1038
a(Vinsert
p1039
I42
VSimpleName: getDefaultProperties
p1040
tp1041
a(Vinsert
p1042
I42
VSimpleName: getUserById
p1043
tp1044
a(Vinsert
p1045
I42
VSimpleName: containsTerminalEvent
p1046
tp1047
a(Vinsert
p1048
I42
VSimpleName: hasBeenInterrupted
p1049
tp1050
a(Vinsert
p1051
I42
VSimpleName: Setter
p1052
tp1053
a(Vinsert
p1054
I42
VSimpleName: getClosure
p1055
tp1056
a(Vinsert
p1057
I42
VSimpleName: metricsRollingStatisticalWindowInMilliseconds
p1058
tp1059
a(Vinsert
p1060
I42
VSimpleName: maximumSize
p1061
tp1062
a(Vinsert
p1063
I42
VSimpleName: name
p1064
tp1065
a(Vinsert
p1066
I42
VSimpleName: toCompletable
p1067
tp1068
a(Vinsert
p1069
I42
VSimpleName: ceil
p1070
tp1071
a(Vinsert
p1072
I42
VSimpleName: valueOf
p1073
tp1074
a(Vinsert
p1075
I42
VSimpleName: doOnTerminate
p1076
tp1077
a(Vinsert
p1078
I42
VSimpleName: countDown
p1079
tp1080
a(Vinsert
p1081
I42
VSimpleName: setException
p1082
tp1083
a(Vinsert
p1084
I42
VSimpleName: initMocks
p1085
tp1086
a(Vinsert
p1087
I42
VSimpleName: getCollapserKey
p1088
tp1089
a(Vinsert
p1090
I42
VSimpleName: getName
p1091
tp1092
a(Vinsert
p1093
I42
VSimpleName: writeNumberField
p1094
tp1095
a(Vinsert
p1096
I42
VSimpleName: getLogger
p1097
tp1098
a(Vinsert
p1099
I42
VSimpleName: copyOf
p1100
tp1101
a(Vinsert
p1102
I42
VSimpleName: asKey
p1103
tp1104
a(Vinsert
p1105
I42
VSimpleName: getInstances
p1106
tp1107
a(Vinsert
p1108
I42
VSimpleName: setCharacterEncoding
p1109
tp1110
a(Vinsert
p1111
I42
VSimpleName: getOriginatingCollapserKey
p1112
tp1113
a(Vinsert
p1114
I42
VSimpleName: putIfAbsent
p1115
tp1116
a(Vinsert
p1117
I42
VSimpleName: executionIsolationThreadInterruptOnTimeout
p1118
tp1119
a(Vinsert
p1120
I42
VSimpleName: flush
p1121
tp1122
a(Vinsert
p1123
I42
VSimpleName: andCommandKey
p1124
tp1125
a(Vinsert
p1126
I42
VSimpleName: getRollingSum
p1127
tp1128
a(Vinsert
p1129
I42
VSimpleName: setResponse
p1130
tp1131
a(Vinsert
p1132
I42
VSimpleName: constantFuture
p1133
tp1134
a(Vinsert
p1135
I42
VSimpleName: getRollingMaxConcurrentExecutions
p1136
tp1137
a(Vinsert
p1138
I42
VSimpleName: doOnNext
p1139
tp1140
a(Vinsert
p1141
I42
VSimpleName: getDefault
p1142
tp1143
a(Vinsert
p1144
I42
VSimpleName: assertNoTerminalEvent
p1145
tp1146
a(Vinsert
p1147
I42
VSimpleName: handleSubscription
p1148
tp1149
a(Vinsert
p1150
I42
VSimpleName: requestStream
p1151
tp1152
a(Vinsert
p1153
I42
VSimpleName: equals
p1154
tp1155
a(Vinsert
p1156
I42
VSimpleName: setMetrics
p1157
tp1158
a(Vinsert
p1159
I42
VSimpleName: markThreadRejection
p1160
tp1161
a(Vinsert
p1162
I42
VSimpleName: getLatest
p1163
tp1164
a(Vinsert
p1165
I42
VSimpleName: withCoreSize
p1166
tp1167
a(Vinsert
p1168
I42
VSimpleName: onSuccess
p1169
tp1170
a(Vinsert
p1171
I42
VSimpleName: getUserAsyncWithFallbackCommand
p1172
tp1173
a(Vinsert
p1174
I42
VSimpleName: isExtendedFallback
p1175
tp1176
a(Vinsert
p1177
I42
VSimpleName: getDeclaredMethod
p1178
tp1179
a(Vinsert
p1180
I42
VSimpleName: getFactory
p1181
tp1182
a(Vinsert
p1183
I42
VSimpleName: getShardSizeMean
p1184
tp1185
a(Vinsert
p1186
I42
VSimpleName: max
p1187
tp1188
a(Vinsert
p1189
I42
VSimpleName: defaultFallback
p1190
tp1191
a(Vinsert
p1192
I42
VSimpleName: unsubscribe
p1193
tp1194
a(Vinsert
p1195
I42
VSimpleName: andCommandPropertiesDefaults
p1196
tp1197
a(Vinsert
p1198
I42
VSimpleName: getExecutions
p1199
tp1200
a(Vinsert
p1201
I42
VSimpleName: observableCommandShouldRaiseHystrixRuntimeException
p1202
tp1203
a(Vinsert
p1204
I42
VSimpleName: init
p1205
tp1206
a(Vinsert
p1207
I42
VSimpleName: onRunStart
p1208
tp1209
a(Vinsert
p1210
I42
VSimpleName: getTotalCount
p1211
tp1212
a(Vinsert
p1213
I42
VSimpleName: getCurrentCorePoolSize
p1214
tp1215
a(Vinsert
p1216
I42
VSimpleName: obj
p1217
tp1218
a(Vinsert
p1219
I42
VSimpleName: size
p1220
tp1221
a(Vinsert
p1222
I42
VSimpleName: getPropertiesStrategy
p1223
tp1224
a(Vinsert
p1225
I42
VSimpleName: queue
p1226
tp1227
a(Vinsert
p1228
I42
VSimpleName: map
p1229
tp1230
a(Vinsert
p1231
I42
VSimpleName: getCumulativeSum
p1232
tp1233
a(Vinsert
p1234
I42
VSimpleName: andCollapserPropertiesDefaults
p1235
tp1236
a(Vinsert
p1237
I42
VSimpleName: onBackpressureDrop
p1238
tp1239
a(Vinsert
p1240
I42
VSimpleName: getMaximumSize
p1241
tp1242
a(Vinsert
p1243
I42
VSimpleName: getNumberFallbackEmissions
p1244
tp1245
a(Vinsert
p1246
I42
VSimpleName: withMaxQueueSize
p1247
tp1248
a(Vinsert
p1249
I42
VSimpleName: withMaxRequestsInBatch
p1250
tp1251
a.