(lp0
(Vinsert
p1
I42
VSimpleName: getVerticalScrollBar
p2
tp3
a(Vinsert
p4
I42
VSimpleName: setRepositorySelector
p5
tp6
a(Vinsert
p7
I42
VSimpleName: getModel
p8
tp9
a(Vinsert
p10
I42
VSimpleName: GZCompress
p11
tp12
a(Vinsert
p13
I42
VSimpleName: setSelected
p14
tp15
a(Vinsert
p16
I42
VSimpleName: setSelectedIndex
p17
tp18
a(Vinsert
p19
I42
VSimpleName: setInternalDebugging
p20
tp21
a(Vinsert
p22
I42
VSimpleName: decode
p23
tp24
a(Vinsert
p25
I42
VSimpleName: escapeTags
p26
tp27
a(Vinsert
p28
I42
VSimpleName: peekObject
p29
tp30
a(Vinsert
p31
I42
VSimpleName: getContext
p32
tp33
a(Vinsert
p34
I42
VSimpleName: reset
p35
tp36
a(Vinsert
p37
I42
VSimpleName: getLabel
p38
tp39
a(Vinsert
p40
I42
VSimpleName: unmodifiableList
p41
tp42
a(Vinsert
p43
I42
VSimpleName: lookup
p44
tp45
a(Vinsert
p46
I42
VSimpleName: getPreferenceModel
p47
tp48
a(Vinsert
p49
I42
VSimpleName: getCount
p50
tp51
a(Vinsert
p52
I42
VSimpleName: getPathForLocation
p53
tp54
a(Vinsert
p55
I42
VSimpleName: release
p56
tp57
a(Vinsert
p58
I42
VSimpleName: getSortedColumnIndex
p59
tp60
a(Vinsert
p61
I42
VSimpleName: internalConf
p62
tp63
a(Vinsert
p64
I42
VSimpleName: available
p65
tp66
a(Vinsert
p67
I42
VSimpleName: getInterfaces
p68
tp69
a(Vinsert
p70
I42
VSimpleName: sleep
p71
tp72
a(Vinsert
p73
I42
VSimpleName: peek
p74
tp75
a(Vinsert
p76
I42
VSimpleName: isEmpty
p77
tp78
a(Vinsert
p79
I42
VSimpleName: currentTimeMillis
p80
tp81
a(Vinsert
p82
I42
VSimpleName: fatalError
p83
tp84
a(Vinsert
p85
I42
VSimpleName: getParent
p86
tp87
a(Vinsert
p88
I42
VSimpleName: getTargetException
p89
tp90
a(Vinsert
p91
I42
VSimpleName: getMDCKeySet
p92
tp93
a(Vinsert
p94
I42
VSimpleName: repaint
p95
tp96
a(Vinsert
p97
I42
VSimpleName: setContentType
p98
tp99
a(Vinsert
p100
I42
VSimpleName: setStroke
p101
tp102
a(Vinsert
p103
I42
VSimpleName: getLog4JLevels
p104
tp105
a(Vinsert
p106
I42
VSimpleName: getRealPath
p107
tp108
a(Vinsert
p109
I42
VSimpleName: getLogger1
p110
tp111
a(Vinsert
p112
I42
VSimpleName: getMDCCopy
p113
tp114
a(Vinsert
p115
I42
VSimpleName: println
p116
tp117
a(Vinsert
p118
I42
VSimpleName: setLoggerRepository
p119
tp120
a(Vinsert
p121
I42
VSimpleName: capacity
p122
tp123
a(Vinsert
p124
I42
VSimpleName: getFontFamily
p125
tp126
a(Vinsert
p127
I42
VSimpleName: entrySet
p128
tp129
a(Vinsert
p130
I42
VSimpleName: getSelectedIndex
p131
tp132
a(Vinsert
p133
I42
VSimpleName: getConnection
p134
tp135
a(Vinsert
p136
I42
VSimpleName: getSelectedComponent
p137
tp138
a(Vinsert
p139
I42
VSimpleName: getThrowableInformation
p140
tp141
a(Vinsert
p142
I42
VSimpleName: contains
p143
tp144
a(Vinsert
p145
I42
VSimpleName: randomInt
p146
tp147
a(Vinsert
p148
I42
VSimpleName: setDialogTitle
p149
tp150
a(Vinsert
p151
I42
VSimpleName: hasMoreTokens
p152
tp153
a(Vinsert
p154
I42
VSimpleName: setEnabled
p155
tp156
a(Vinsert
p157
I42
VSimpleName: fireRemoveAppenderEvent
p158
tp159
a(Vinsert
p160
I42
VSimpleName: appendLoopOnAppenders
p161
tp162
a(Vinsert
p163
I42
VSimpleName: isLogTreePanelVisible
p164
tp165
a(Vinsert
p166
I42
VSimpleName: countTokens
p167
tp168
a(Vinsert
p169
I42
VSimpleName: setValidating
p170
tp171
a(Vinsert
p172
I42
VSimpleName: setAccessible
p173
tp174
a(Vinsert
p175
I42
VSimpleName: isSelected
p176
tp177
a(Vinsert
p178
I42
VSimpleName: delete
p179
tp180
a(Vinsert
p181
I42
VSimpleName: setResizeWeight
p182
tp183
a(Vinsert
p184
I42
VSimpleName: getSelectionForeground
p185
tp186
a(Vinsert
p187
I42
VSimpleName: stopAllPlugins
p188
tp189
a(Vinsert
p190
I42
VSimpleName: getSelectedColumn
p191
tp192
a(Vinsert
p193
I42
VSimpleName: getBeanInfo
p194
tp195
a(Vinsert
p196
I42
VSimpleName: getInfo
p197
tp198
a(Vinsert
p199
I42
VSimpleName: matches
p200
tp201
a(Vinsert
p202
I42
VSimpleName: putValue
p203
tp204
a(Vinsert
p205
I42
VSimpleName: sharedInstance
p206
tp207
a(Vinsert
p208
I42
VSimpleName: setDefaultCloseOperation
p209
tp210
a(Vinsert
p211
I42
VSimpleName: invoke
p212
tp213
a(Vinsert
p214
I42
VSimpleName: getDefaultToolkit
p215
tp216
a(Vinsert
p217
I42
VSimpleName: rejectDrag
p218
tp219
a(Vinsert
p220
I42
VSimpleName: doConfigure
p221
tp222
a(Vinsert
p223
I42
VSimpleName: createHorizontalStrut
p224
tp225
a(Vinsert
p226
I42
VSimpleName: setFocusOn
p227
tp228
a(Vinsert
p229
I42
VSimpleName: putNextEntry
p230
tp231
a(Vinsert
p232
I42
VSimpleName: getMatchingEvents
p233
tp234
a(Vinsert
p235
I42
VSimpleName: print
p236
tp237
a(Vinsert
p238
I42
VSimpleName: discoverSQLDialect
p239
tp240
a(Vinsert
p241
I42
VSimpleName: getMaxSize
p242
tp243
a(Vinsert
p244
I42
VSimpleName: toURL
p245
tp246
a(Vinsert
p247
I42
VSimpleName: parseLong
p248
tp249
a(Vinsert
p250
I42
VSimpleName: getExecutionContext
p251
tp252
a(Vinsert
p253
I42
VSimpleName: ignoresThrowable
p254
tp255
a(Vinsert
p256
I42
VSimpleName: setRefinementRule
p257
tp258
a(Vinsert
p259
I42
VSimpleName: addTestSuite
p260
tp261
a(Vinsert
p262
I42
VSimpleName: nodeChanged
p263
tp264
a(Vinsert
p265
I42
VSimpleName: renameTo
p266
tp267
a(Vinsert
p268
I42
VSimpleName: getDocument
p269
tp270
a(Vinsert
p271
I42
VSimpleName: getLayout
p272
tp273
a(Vinsert
p274
I42
VSimpleName: createTopicConnection
p275
tp276
a(Vinsert
p277
I42
VSimpleName: getInputMap
p278
tp279
a(Vinsert
p280
I42
VSimpleName: isClosed
p281
tp282
a(Vinsert
p283
I42
VSimpleName: toInt
p284
tp285
a(Vinsert
p286
I42
VSimpleName: getCyclicBufferSize
p287
tp288
a(Vinsert
p289
I42
VSimpleName: isPrudent
p290
tp291
a(Vinsert
p292
I42
VSimpleName: getLocator
p293
tp294
a(Vinsert
p295
I42
VSimpleName: indexOfTab
p296
tp297
a(Vinsert
p298
I42
VSimpleName: setCompressionMode
p299
tp300
a(Vinsert
p301
I42
VSimpleName: remove
p302
tp303
a(Vinsert
p304
I42
VSimpleName: instantiateByKey
p305
tp306
a(Vinsert
p307
I42
VSimpleName: setMessage
p308
tp309
a(Vinsert
p310
I42
VSimpleName: getName
p311
tp312
a(Vinsert
p313
I42
VSimpleName: setMaximumFileSize
p314
tp315
a(Vinsert
p316
I42
VSimpleName: getContentPane
p317
tp318
a(Vinsert
p319
I42
VSimpleName: joinGroup
p320
tp321
a(Vinsert
p322
I42
VSimpleName: setPropertiesFilter
p323
tp324
a(Vinsert
p325
I42
VSimpleName: readInt
p326
tp327
a(Vinsert
p328
I42
VSimpleName: isInVisualAge
p329
tp330
a(Vinsert
p331
I42
VSimpleName: indexOf
p332
tp333
a(Vinsert
p334
I42
VSimpleName: rollover
p335
tp336
a(Vinsert
p337
I42
VSimpleName: getWriteMethod
p338
tp339
a(Vinsert
p340
I42
VSimpleName: concatanateArrays
p341
tp342
a(Vinsert
p343
I42
VSimpleName: getSystemClassLoader
p344
tp345
a(Vinsert
p346
I42
VSimpleName: setHorizontalAlignment
p347
tp348
a(Vinsert
p349
I42
VSimpleName: toBoolean
p350
tp351
a(Vinsert
p352
I42
VSimpleName: getLocalHost
p353
tp354
a(Vinsert
p355
I42
VSimpleName: getAbbreviator
p356
tp357
a(Vinsert
p358
I42
VSimpleName: toggleCyclic
p359
tp360
a(Vinsert
p361
I42
VSimpleName: getFullInfo
p362
tp363
a(Vinsert
p364
I42
VSimpleName: getActionMap
p365
tp366
a(Vinsert
p367
I42
VSimpleName: prepareStatement
p368
tp369
a(Vinsert
p370
I42
VSimpleName: getPropertyDescriptors
p371
tp372
a(Vinsert
p373
I42
VSimpleName: inherit
p374
tp375
a(Vinsert
p376
I42
VSimpleName: getConversionPattern
p377
tp378
a(Vinsert
p379
I42
VSimpleName: getCurrent
p380
tp381
a(Vinsert
p382
I42
VSimpleName: setSelector
p383
tp384
a(Vinsert
p385
I42
VSimpleName: notifyAll
p386
tp387
a(Vinsert
p388
I42
VSimpleName: isRegex
p389
tp390
a(Vinsert
p391
I42
VSimpleName: getRootLogger
p392
tp393
a(Vinsert
p394
I42
VSimpleName: loadSettings
p395
tp396
a(Vinsert
p397
I42
VSimpleName: transform
p398
tp399
a(Vinsert
p400
I42
VSimpleName: getObject
p401
tp402
a(Vinsert
p403
I42
VSimpleName: activateViewer
p404
tp405
a(Vinsert
p406
I42
VSimpleName: findAndSubst
p407
tp408
a(Vinsert
p409
I42
VSimpleName: setPlugin
p410
tp411
a(Vinsert
p412
I42
VSimpleName: parse
p413
tp414
a(Vinsert
p415
I42
VSimpleName: hashCode
p416
tp417
a(Vinsert
p418
I42
VSimpleName: getObjectMap
p419
tp420
a(Vinsert
p421
I42
VSimpleName: setAlignmentY
p422
tp423
a(Vinsert
p424
I42
VSimpleName: setColor
p425
tp426
a(Vinsert
p427
I42
VSimpleName: getDomain
p428
tp429
a(Vinsert
p430
I42
VSimpleName: signalWaiters
p431
tp432
a(Vinsert
p433
I42
VSimpleName: setOrientation
p434
tp435
a(Vinsert
p436
I42
VSimpleName: keySet
p437
tp438
a(Vinsert
p439
I42
VSimpleName: scrollToRow
p440
tp441
a(Vinsert
p442
I42
VSimpleName: toUpperCase
p443
tp444
a(Vinsert
p445
I42
VSimpleName: getBundle
p446
tp447
a(Vinsert
p448
I42
VSimpleName: getInstance
p449
tp450
a(Vinsert
p451
I42
VSimpleName: freeMemory
p452
tp453
a(Vinsert
p454
I42
VSimpleName: isPaused
p455
tp456
a(Vinsert
p457
I42
VSimpleName: compose
p458
tp459
a(Vinsert
p460
I42
VSimpleName: invokeLater
p461
tp462
a(Vinsert
p463
I42
VSimpleName: setSyslogHost
p464
tp465
a(Vinsert
p466
I42
VSimpleName: getClassName
p467
tp468
a(Vinsert
p469
I42
VSimpleName: lastIndexOf
p470
tp471
a(Vinsert
p472
I42
VSimpleName: compareTo
p473
tp474
a(Vinsert
p475
I42
VSimpleName: getErrorList
p476
tp477
a(Vinsert
p478
I42
VSimpleName: isScrollToBottom
p479
tp480
a(Vinsert
p481
I42
VSimpleName: showMessageDialog
p482
tp483
a(Vinsert
p484
I42
VSimpleName: peekLast
p485
tp486
a(Vinsert
p487
I42
VSimpleName: getRendererMap
p488
tp489
a(Vinsert
p490
I42
VSimpleName: resolveEntity
p491
tp492
a(Vinsert
p493
I42
VSimpleName: setAdditivity
p494
tp495
a(Vinsert
p496
I42
VSimpleName: loadClass
p497
tp498
a(Vinsert
p499
I42
VSimpleName: setType
p500
tp501
a(Vinsert
p502
I42
VSimpleName: getAdjustable
p503
tp504
a(Vinsert
p505
I42
VSimpleName: createHorizontalGlue
p506
tp507
a(Vinsert
p508
I42
VSimpleName: getPropertyType
p509
tp510
a(Vinsert
p511
I42
VSimpleName: error
p512
tp513
a(Vinsert
p514
I42
VSimpleName: getAttributes
p515
tp516
a(Vinsert
p517
I42
VSimpleName: getAncestorOfClass
p518
tp519
a(Vinsert
p520
I42
VSimpleName: getRenderedMessage
p521
tp522
a(Vinsert
p523
I42
VSimpleName: getCurrentCategories
p524
tp525
a(Vinsert
p526
I42
VSimpleName: createStatement
p527
tp528
a(Vinsert
p529
I42
VSimpleName: getReadMethod
p530
tp531
a(Vinsert
p532
I42
VSimpleName: getResourceAsStream
p533
tp534
a(Vinsert
p535
I42
VSimpleName: addMouseListener
p536
tp537
a(Vinsert
p538
I42
VSimpleName: getColumnName
p539
tp540
a(Vinsert
p541
I42
VSimpleName: addSeparator
p542
tp543
a(Vinsert
p544
I42
VSimpleName: setEntityResolver
p545
tp546
a(Vinsert
p547
I42
VSimpleName: getFilter
p548
tp549
a(Vinsert
p550
I42
VSimpleName: compare
p551
tp552
a(Vinsert
p553
I42
VSimpleName: addElement
p554
tp555
a(Vinsert
p556
I42
VSimpleName: getText
p557
tp558
a(Vinsert
p559
I42
VSimpleName: show
p560
tp561
a(Vinsert
p562
I42
VSimpleName: getKey
p563
tp564
a(Vinsert
p565
I42
VSimpleName: addError
p566
tp567
a(Vinsert
p568
I42
VSimpleName: getClass
p569
tp570
a(Vinsert
p571
I42
VSimpleName: setLineNumber
p572
tp573
a(Vinsert
p574
I42
VSimpleName: currentThread
p575
tp576
a(Vinsert
p577
I42
VSimpleName: getOkPanel
p578
tp579
a(Vinsert
p580
I42
VSimpleName: setDatePattern
p581
tp582
a(Vinsert
p583
I42
VSimpleName: getLogTextPanel
p584
tp585
a(Vinsert
p586
I42
VSimpleName: getMetaData
p587
tp588
a(Vinsert
p589
I42
VSimpleName: getLoggerRepository
p590
tp591
a(Vinsert
p592
I42
VSimpleName: computeSuccessiveS
p593
tp594
a(Vinsert
p595
I42
VSimpleName: startPlugin
p596
tp597
a(Vinsert
p598
I42
VSimpleName: getElementsByTagName
p599
tp600
a(Vinsert
p601
I42
VSimpleName: getNewValue
p602
tp603
a(Vinsert
p604
I42
VSimpleName: select
p605
tp606
a(Vinsert
p607
I42
VSimpleName: getFileObject
p608
tp609
a(Vinsert
p610
I42
VSimpleName: isActive
p611
tp612
a(Vinsert
p613
I42
VSimpleName: resizeAndRepaint
p614
tp615
a(Vinsert
p616
I42
VSimpleName: getNext
p617
tp618
a(Vinsert
p619
I42
VSimpleName: getMaximumCacheValidity
p620
tp621
a(Vinsert
p622
I42
VSimpleName: receive
p623
tp624
a(Vinsert
p625
I42
VSimpleName: getSubstitutionProperty
p626
tp627
a(Vinsert
p628
I42
VSimpleName: getInetAddress
p629
tp630
a(Vinsert
p631
I42
VSimpleName: doRender
p632
tp633
a(Vinsert
p634
I42
VSimpleName: addActionListener
p635
tp636
a(Vinsert
p637
I42
VSimpleName: getJoranParser
p638
tp639
a(Vinsert
p640
I42
VSimpleName: clear
p641
tp642
a(Vinsert
p643
I42
VSimpleName: openStream
p644
tp645
a(Vinsert
p646
I42
VSimpleName: validate
p647
tp648
a(Vinsert
p649
I42
VSimpleName: columnAtPoint
p650
tp651
a(Vinsert
p652
I42
VSimpleName: getProperties
p653
tp654
a(Vinsert
p655
I42
VSimpleName: executeQuery
p656
tp657
a(Vinsert
p658
I42
VSimpleName: setTimeZone
p659
tp660
a(Vinsert
p661
I42
VSimpleName: getListeners
p662
tp663
a(Vinsert
p664
I42
VSimpleName: addAppenderEvent
p665
tp666
a(Vinsert
p667
I42
VSimpleName: getFirstIndex
p668
tp669
a(Vinsert
p670
I42
VSimpleName: activeCount
p671
tp672
a(Vinsert
p673
I42
VSimpleName: removePropertyChangeListener
p674
tp675
a(Vinsert
p676
I42
VSimpleName: getSystemClipboard
p677
tp678
a(Vinsert
p679
I42
VSimpleName: getLocationInformation
p680
tp681
a(Vinsert
p682
I42
VSimpleName: activate
p683
tp684
a(Vinsert
p685
I42
VSimpleName: containsKey
p686
tp687
a(Vinsert
p688
I42
VSimpleName: isEnabled
p689
tp690
a(Vinsert
p691
I42
VSimpleName: setMnemonic
p692
tp693
a(Vinsert
p694
I42
VSimpleName: getModelIndex
p695
tp696
a(Vinsert
p697
I42
VSimpleName: getChannel
p698
tp699
a(Vinsert
p700
I42
VSimpleName: convertSpecialChars
p701
tp702
a(Vinsert
p703
I42
VSimpleName: isGreaterOrEqual
p704
tp705
a(Vinsert
p706
I42
VSimpleName: getNextSibling
p707
tp708
a(Vinsert
p709
I42
VSimpleName: setThreshold
p710
tp711
a(Vinsert
p712
I42
VSimpleName: advertise
p713
tp714
a(Vinsert
p715
I42
VSimpleName: getDefault
p716
tp717
a(Vinsert
p718
I42
VSimpleName: getNextCheckMillis
p719
tp720
a(Vinsert
p721
I42
VSimpleName: getTableCellEditorComponent
p722
tp723
a(Vinsert
p724
I42
VSimpleName: setDividerSize
p725
tp726
a(Vinsert
p727
I42
VSimpleName: configureAndWatch
p728
tp729
a(Vinsert
p730
I42
VSimpleName: getProperty
p731
tp732
a(Vinsert
p733
I42
VSimpleName: addPlugin
p734
tp735
a(Vinsert
p736
I42
VSimpleName: getJMSCorrelationID
p737
tp738
a(Vinsert
p739
I42
VSimpleName: append
p740
tp741
a(Vinsert
p742
I42
VSimpleName: setPreferredSize
p743
tp744
a(Vinsert
p745
I42
VSimpleName: setOption
p746
tp747
a(Vinsert
p748
I42
VSimpleName: getListenerCount
p749
tp750
a(Vinsert
p751
I42
VSimpleName: getPlugin
p752
tp753
a(Vinsert
p754
I42
VSimpleName: getSize
p755
tp756
a(Vinsert
p757
I42
VSimpleName: match
p758
tp759
a(Vinsert
p760
I42
VSimpleName: instantiateByClassName
p761
tp762
a(Vinsert
p763
I42
VSimpleName: setCaretPosition
p764
tp765
a(Vinsert
p766
I42
VSimpleName: setSelectionMode
p767
tp768
a(Vinsert
p769
I42
VSimpleName: setBorder
p770
tp771
a(Vinsert
p772
I42
VSimpleName: stringWidth
p773
tp774
a(Vinsert
p775
I42
VSimpleName: toggleLogTreePanel
p776
tp777
a(Vinsert
p778
I42
VSimpleName: info
p779
tp780
a(Vinsert
p781
I42
VSimpleName: locationInformationExists
p782
tp783
a(Vinsert
p784
I42
VSimpleName: setFile
p785
tp786
a(Vinsert
p787
I42
VSimpleName: setAppender
p788
tp789
a(Vinsert
p790
I42
VSimpleName: getNodeType
p791
tp792
a(Vinsert
p793
I42
VSimpleName: add
p794
tp795
a(Vinsert
p796
I42
VSimpleName: getApplicationPreferenceModel
p797
tp798
a(Vinsert
p799
I42
VSimpleName: getLocalName
p800
tp801
a(Vinsert
p802
I42
VSimpleName: getKeyStroke
p803
tp804
a(Vinsert
p805
I42
VSimpleName: isAssignableFrom
p806
tp807
a(Vinsert
p808
I42
VSimpleName: addFilter
p809
tp810
a(Vinsert
p811
I42
VSimpleName: getInputStream
p812
tp813
a(Vinsert
p814
I42
VSimpleName: execute
p815
tp816
a(Vinsert
p817
I42
VSimpleName: getThreshold
p818
tp819
a(Vinsert
p820
I42
VSimpleName: toExternalForm
p821
tp822
a(Vinsert
p823
I42
VSimpleName: getInterrupt
p824
tp825
a(Vinsert
p826
I42
VSimpleName: filter
p827
tp828
a(Vinsert
p829
I42
VSimpleName: releaseReadLock
p830
tp831
a(Vinsert
p832
I42
VSimpleName: getSystemProperty
p833
tp834
a(Vinsert
p835
I42
VSimpleName: getLookAndFeel
p836
tp837
a(Vinsert
p838
I42
VSimpleName: setCategory
p839
tp840
a(Vinsert
p841
I42
VSimpleName: getPattern
p842
tp843
a(Vinsert
p844
I42
VSimpleName: brighter
p845
tp846
a(Vinsert
p847
I42
VSimpleName: interrupt
p848
tp849
a(Vinsert
p850
I42
VSimpleName: setRollingPolicy
p851
tp852
a(Vinsert
p853
I42
VSimpleName: hasNext
p854
tp855
a(Vinsert
p856
I42
VSimpleName: length
p857
tp858
a(Vinsert
p859
I42
VSimpleName: getTitleAt
p860
tp861
a(Vinsert
p862
I42
VSimpleName: getBytes
p863
tp864
a(Vinsert
p865
I42
VSimpleName: iterator
p866
tp867
a(Vinsert
p868
I42
VSimpleName: getSuperclass
p869
tp870
a(Vinsert
p871
I42
VSimpleName: unmodifiableSet
p872
tp873
a(Vinsert
p874
I42
VSimpleName: getRowCount
p875
tp876
a(Vinsert
p877
I42
VSimpleName: stateChanged
p878
tp879
a(Vinsert
p880
I42
VSimpleName: getClassLoader
p881
tp882
a(Vinsert
p883
I42
VSimpleName: setPriorityFilter
p884
tp885
a(Vinsert
p886
I42
VSimpleName: isAttached
p887
tp888
a(Vinsert
p889
I42
VSimpleName: getLastIndex
p890
tp891
a(Vinsert
p892
I42
VSimpleName: getModifiers
p893
tp894
a(Vinsert
p895
I42
VSimpleName: setInteger
p896
tp897
a(Vinsert
p898
I42
VSimpleName: getOutputStream
p899
tp900
a(Vinsert
p901
I42
VSimpleName: handlesThrowable
p902
tp903
a(Vinsert
p904
I42
VSimpleName: getLength
p905
tp906
a(Vinsert
p907
I42
VSimpleName: darker
p908
tp909
a(Vinsert
p910
I42
VSimpleName: setDateFormatPattern
p911
tp912
a(Vinsert
p913
I42
VSimpleName: newInstance
p914
tp915
a(Vinsert
p916
I42
VSimpleName: replace
p917
tp918
a(Vinsert
p919
I42
VSimpleName: setLookAndFeel
p920
tp921
a(Vinsert
p922
I42
VSimpleName: getMethod
p923
tp924
a(Vinsert
p925
I42
VSimpleName: setSessionJNDI
p926
tp927
a(Vinsert
p928
I42
VSimpleName: pop
p929
tp930
a(Vinsert
p931
I42
VSimpleName: compile
p932
tp933
a(Vinsert
p934
I42
VSimpleName: toString
p935
tp936
a(Vinsert
p937
I42
VSimpleName: addErrorItem
p938
tp939
a(Vinsert
p940
I42
VSimpleName: popObject
p941
tp942
a(Vinsert
p943
I42
VSimpleName: setActiveFileName
p944
tp945
a(Vinsert
p946
I42
VSimpleName: showInputDialog
p947
tp948
a(Vinsert
p949
I42
VSimpleName: getID
p950
tp951
a(Vinsert
p952
I42
VSimpleName: join
p953
tp954
a(Vinsert
p955
I42
VSimpleName: charAt
p956
tp957
a(Vinsert
p958
I42
VSimpleName: elementAt
p959
tp960
a(Vinsert
p961
I42
VSimpleName: close
p962
tp963
a(Vinsert
p964
I42
VSimpleName: isPatternSafeForCaching
p965
tp966
a(Vinsert
p967
I42
VSimpleName: nextElement
p968
tp969
a(Vinsert
p970
I42
VSimpleName: format
p971
tp972
a(Vinsert
p973
I42
VSimpleName: equalsIgnoreCase
p974
tp975
a(Vinsert
p976
I42
VSimpleName: setInt
p977
tp978
a(Vinsert
p979
I42
VSimpleName: getTime
p980
tp981
a(Vinsert
p982
I42
VSimpleName: setHeaderValue
p983
tp984
a(Vinsert
p985
I42
VSimpleName: callAppenders
p986
tp987
a(Vinsert
p988
I42
VSimpleName: dumpErrors
p989
tp990
a(Vinsert
p991
I42
VSimpleName: encode
p992
tp993
a(Vinsert
p994
I42
VSimpleName: next
p995
tp996
a(Vinsert
p997
I42
VSimpleName: setMinimumSize
p998
tp999
a(Vinsert
p1000
I42
VSimpleName: min
p1001
tp1002
a(Vinsert
p1003
I42
VSimpleName: createVirtualFileSystem
p1004
tp1005
a(Vinsert
p1006
I42
VSimpleName: setHierarchy
p1007
tp1008
a(Vinsert
p1009
I42
VSimpleName: writeObject
p1010
tp1011
a(Vinsert
p1012
I42
VSimpleName: setFileNamePattern
p1013
tp1014
a(Vinsert
p1015
I42
VSimpleName: setTimeToLive
p1016
tp1017
a(Vinsert
p1018
I42
VSimpleName: getIdentifierExpression
p1019
tp1020
a(Vinsert
p1021
I42
VSimpleName: setForeground
p1022
tp1023
a(Vinsert
p1024
I42
VSimpleName: setName
p1025
tp1026
a(Vinsert
p1027
I42
VSimpleName: send
p1028
tp1029
a(Vinsert
p1030
I42
VSimpleName: getColumnModel
p1031
tp1032
a(Vinsert
p1033
I42
VSimpleName: getColumnNumber
p1034
tp1035
a(Vinsert
p1036
I42
VSimpleName: getByName
p1037
tp1038
a(Vinsert
p1039
I42
VSimpleName: getThreadName
p1040
tp1041
a(Vinsert
p1042
I42
VSimpleName: createBooleanTableCellEditor
p1043
tp1044
a(Vinsert
p1045
I42
VSimpleName: showConfirmDialog
p1046
tp1047
a(Vinsert
p1048
I42
VSimpleName: log
p1049
tp1050
a(Vinsert
p1051
I42
VSimpleName: setText
p1052
tp1053
a(Vinsert
p1054
I42
VSimpleName: getTimeZone
p1055
tp1056
a(Vinsert
p1057
I42
VSimpleName: setConversionPattern
p1058
tp1059
a(Vinsert
p1060
I42
VSimpleName: setModel
p1061
tp1062
a(Vinsert
p1063
I42
VSimpleName: read
p1064
tp1065
a(Vinsert
p1066
I42
VSimpleName: setLevelUseIcons
p1067
tp1068
a(Vinsert
p1069
I42
VSimpleName: getLineNumber
p1070
tp1071
a(Vinsert
p1072
I42
VSimpleName: start
p1073
tp1074
a(Vinsert
p1075
I42
VSimpleName: debug
p1076
tp1077
a(Vinsert
p1078
I42
VSimpleName: setBufferSize
p1079
tp1080
a(Vinsert
p1081
I42
VSimpleName: trim
p1082
tp1083
a(Vinsert
p1084
I42
VSimpleName: toPriority
p1085
tp1086
a(Vinsert
p1087
I42
VSimpleName: supportsBatchUpdates
p1088
tp1089
a(Vinsert
p1090
I42
VSimpleName: getWidth
p1091
tp1092
a(Vinsert
p1093
I42
VSimpleName: isLogType
p1094
tp1095
a(Vinsert
p1096
I42
VSimpleName: nextToken
p1097
tp1098
a(Vinsert
p1099
I42
VSimpleName: openConnection
p1100
tp1101
a(Vinsert
p1102
I42
VSimpleName: getHierarchy
p1103
tp1104
a(Vinsert
p1105
I42
VSimpleName: setShutdownAction
p1106
tp1107
a(Vinsert
p1108
I42
VSimpleName: addHyperlinkListener
p1109
tp1110
a(Vinsert
p1111
I42
VSimpleName: doLayout
p1112
tp1113
a(Vinsert
p1114
I42
VSimpleName: setProperty
p1115
tp1116
a(Vinsert
p1117
I42
VSimpleName: createCloseIcon
p1118
tp1119
a(Vinsert
p1120
I42
VSimpleName: getErrorHandler
p1121
tp1122
a(Vinsert
p1123
I42
VSimpleName: fatal
p1124
tp1125
a(Vinsert
p1126
I42
VSimpleName: getSchedulerInstance
p1127
tp1128
a(Vinsert
p1129
I42
VSimpleName: setDaemon
p1130
tp1131
a(Vinsert
p1132
I42
VSimpleName: setLocationInfo
p1133
tp1134
a(Vinsert
p1135
I42
VSimpleName: getCategory
p1136
tp1137
a(Vinsert
p1138
I42
VSimpleName: isAlive
p1139
tp1140
a(Vinsert
p1141
I42
VSimpleName: addEvent
p1142
tp1143
a(Vinsert
p1144
I42
VSimpleName: addImplcitAction
p1145
tp1146
a(Vinsert
p1147
I42
VSimpleName: writeUTF
p1148
tp1149
a(Vinsert
p1150
I42
VSimpleName: getDefaultHierarchy
p1151
tp1152
a(Vinsert
p1153
I42
VSimpleName: getMonitor
p1154
tp1155
a(Vinsert
p1156
I42
VSimpleName: getSystemResourceAsStream
p1157
tp1158
a(Vinsert
p1159
I42
VSimpleName: parseInt
p1160
tp1161
a(Vinsert
p1162
I42
VSimpleName: rename
p1163
tp1164
a(Vinsert
p1165
I42
VSimpleName: getThrowableStrRep
p1166
tp1167
a(Vinsert
p1168
I42
VSimpleName: setFQNOfLoggerClass
p1169
tp1170
a(Vinsert
p1171
I42
VSimpleName: addKeyListener
p1172
tp1173
a(Vinsert
p1174
I42
VSimpleName: gc
p1175
tp1176
a(Vinsert
p1177
I42
VSimpleName: entering
p1178
tp1179
a(Vinsert
p1180
I42
VSimpleName: getLevelToIconMap
p1181
tp1182
a(Vinsert
p1183
I42
VSimpleName: exerciseSMPTPAppender
p1184
tp1185
a(Vinsert
p1186
I42
VSimpleName: setRight
p1187
tp1188
a(Vinsert
p1189
I42
VSimpleName: hasMoreElements
p1190
tp1191
a(Vinsert
p1192
I42
VSimpleName: setErrorHandler
p1193
tp1194
a(Vinsert
p1195
I42
VSimpleName: addSettingsListener
p1196
tp1197
a(Vinsert
p1198
I42
VSimpleName: setTime
p1199
tp1200
a(Vinsert
p1201
I42
VSimpleName: setDateFormat
p1202
tp1203
a(Vinsert
p1204
I42
VSimpleName: setProperties
p1205
tp1206
a(Vinsert
p1207
I42
VSimpleName: asList
p1208
tp1209
a(Vinsert
p1210
I42
VSimpleName: getInteger
p1211
tp1212
a(Vinsert
p1213
I42
VSimpleName: getSystemId
p1214
tp1215
a(Vinsert
p1216
I42
VSimpleName: leftFirstDump
p1217
tp1218
a(Vinsert
p1219
I42
VSimpleName: getMethodName
p1220
tp1221
a(Vinsert
p1222
I42
VSimpleName: getTabbedPane
p1223
tp1224
a(Vinsert
p1225
I42
VSimpleName: hasStackTraceElement
p1226
tp1227
a(Vinsert
p1228
I42
VSimpleName: getPath
p1229
tp1230
a(Vinsert
p1231
I42
VSimpleName: getLogger
p1232
tp1233
a(Vinsert
p1234
I42
VSimpleName: setMDCFilter
p1235
tp1236
a(Vinsert
p1237
I42
VSimpleName: createTopicSession
p1238
tp1239
a(Vinsert
p1240
I42
VSimpleName: containsWelcomePanel
p1241
tp1242
a(Vinsert
p1243
I42
VSimpleName: getPlugins
p1244
tp1245
a(Vinsert
p1246
I42
VSimpleName: l7dlog
p1247
tp1248
a(Vinsert
p1249
I42
VSimpleName: notify
p1250
tp1251
a(Vinsert
p1252
I42
VSimpleName: accept
p1253
tp1254
a(Vinsert
p1255
I42
VSimpleName: setDefaultRepository
p1256
tp1257
a(Vinsert
p1258
I42
VSimpleName: getShortMonths
p1259
tp1260
a(Vinsert
p1261
I42
VSimpleName: getValue
p1262
tp1263
a(Vinsert
p1264
I42
VSimpleName: printStackTrace
p1265
tp1266
a(Vinsert
p1267
I42
VSimpleName: setLoggerRule
p1268
tp1269
a(Vinsert
p1270
I42
VSimpleName: setOpaque
p1271
tp1272
a(Vinsert
p1273
I42
VSimpleName: setLength
p1274
tp1275
a(Vinsert
p1276
I42
VSimpleName: setBackground
p1277
tp1278
a(Vinsert
p1279
I42
VSimpleName: setNext
p1280
tp1281
a(Vinsert
p1282
I42
VSimpleName: createEtchedBorder
p1283
tp1284
a(Vinsert
p1285
I42
VSimpleName: write
p1286
tp1287
a(Vinsert
p1288
I42
VSimpleName: getSecurityManager
p1289
tp1290
a(Vinsert
p1291
I42
VSimpleName: isDisabled
p1292
tp1293
a(Vinsert
p1294
I42
VSimpleName: setLeafIcon
p1295
tp1296
a(Vinsert
p1297
I42
VSimpleName: getCurrentLogPanel
p1298
tp1299
a(Vinsert
p1300
I42
VSimpleName: setToolTipText
p1301
tp1302
a(Vinsert
p1303
I42
VSimpleName: stripDuplicateBackslashes
p1304
tp1305
a(Vinsert
p1306
I42
VSimpleName: evaluate
p1307
tp1308
a(Vinsert
p1309
I42
VSimpleName: setPriority
p1310
tp1311
a(Vinsert
p1312
I42
VSimpleName: getRoot
p1313
tp1314
a(Vinsert
p1315
I42
VSimpleName: getAllAppenders
p1316
tp1317
a(Vinsert
p1318
I42
VSimpleName: setAction
p1319
tp1320
a(Vinsert
p1321
I42
VSimpleName: elements
p1322
tp1323
a(Vinsert
p1324
I42
VSimpleName: getClickCount
p1325
tp1326
a(Vinsert
p1327
I42
VSimpleName: setWriter
p1328
tp1329
a(Vinsert
p1330
I42
VSimpleName: getActiveFileName
p1331
tp1332
a(Vinsert
p1333
I42
VSimpleName: setFacilityPrinting
p1334
tp1335
a(Vinsert
p1336
I42
VSimpleName: isAddRow
p1337
tp1338
a(Vinsert
p1339
I42
VSimpleName: getNDC
p1340
tp1341
a(Vinsert
p1342
I42
VSimpleName: createHorizontalBox
p1343
tp1344
a(Vinsert
p1345
I42
VSimpleName: setLayout
p1346
tp1347
a(Vinsert
p1348
I42
VSimpleName: getAbsolutePath
p1349
tp1350
a(Vinsert
p1351
I42
VSimpleName: getDescription
p1352
tp1353
a(Vinsert
p1354
I42
VSimpleName: removeAllAppenders
p1355
tp1356
a(Vinsert
p1357
I42
VSimpleName: expandPath
p1358
tp1359
a(Vinsert
p1360
I42
VSimpleName: setFont
p1361
tp1362
a(Vinsert
p1363
I42
VSimpleName: setCursor
p1364
tp1365
a(Vinsert
p1366
I42
VSimpleName: getSelectedLevel
p1367
tp1368
a(Vinsert
p1369
I42
VSimpleName: doMyBidding
p1370
tp1371
a(Vinsert
p1372
I42
VSimpleName: getType
p1373
tp1374
a(Vinsert
p1375
I42
VSimpleName: getDrivers
p1376
tp1377
a(Vinsert
p1378
I42
VSimpleName: substVars
p1379
tp1380
a(Vinsert
p1381
I42
VSimpleName: setMinimumIntegerDigits
p1382
tp1383
a(Vinsert
p1384
I42
VSimpleName: getStartTime
p1385
tp1386
a(Vinsert
p1387
I42
VSimpleName: load
p1388
tp1389
a(Vinsert
p1390
I42
VSimpleName: abbreviate
p1391
tp1392
a(Vinsert
p1393
I42
VSimpleName: isCustomDateFormat
p1394
tp1395
a(Vinsert
p1396
I42
VSimpleName: getMessage
p1397
tp1398
a(Vinsert
p1399
I42
VSimpleName: addTest
p1400
tp1401
a(Vinsert
p1402
I42
VSimpleName: addAppender
p1403
tp1404
a(Vinsert
p1405
I42
VSimpleName: shutdown
p1406
tp1407
a(Vinsert
p1408
I42
VSimpleName: addAll
p1409
tp1410
a(Vinsert
p1411
I42
VSimpleName: putAll
p1412
tp1413
a(Vinsert
p1414
I42
VSimpleName: hasProvider
p1415
tp1416
a(Vinsert
p1417
I42
VSimpleName: getRule
p1418
tp1419
a(Vinsert
p1420
I42
VSimpleName: actionPerformed
p1421
tp1422
a(Vinsert
p1423
I42
VSimpleName: arraycopy
p1424
tp1425
a(Vinsert
p1426
I42
VSimpleName: exists
p1427
tp1428
a(Vinsert
p1429
I42
VSimpleName: isDebugEnabled
p1430
tp1431
a(Vinsert
p1432
I42
VSimpleName: getBoolean
p1433
tp1434
a(Vinsert
p1435
I42
VSimpleName: substring
p1436
tp1437
a(Vinsert
p1438
I42
VSimpleName: apply
p1439
tp1440
a(Vinsert
p1441
I42
VSimpleName: forName
p1442
tp1443
a(Vinsert
p1444
I42
VSimpleName: getParameter
p1445
tp1446
a(Vinsert
p1447
I42
VSimpleName: setParameter
p1448
tp1449
a(Vinsert
p1450
I42
VSimpleName: setLogType
p1451
tp1452
a(Vinsert
p1453
I42
VSimpleName: updateDetailPane
p1454
tp1455
a(Vinsert
p1456
I42
VSimpleName: nextInt
p1457
tp1458
a(Vinsert
p1459
I42
VSimpleName: isPopupTrigger
p1460
tp1461
a(Vinsert
p1462
I42
VSimpleName: yield
p1463
tp1464
a(Vinsert
p1465
I42
VSimpleName: getLogFile
p1466
tp1467
a(Vinsert
p1468
I42
VSimpleName: connect
p1469
tp1470
a(Vinsert
p1471
I42
VSimpleName: get
p1472
tp1473
a(Vinsert
p1474
I42
VSimpleName: removeColumn
p1475
tp1476
a(Vinsert
p1477
I42
VSimpleName: setPage
p1478
tp1479
a(Vinsert
p1480
I42
VSimpleName: exit
p1481
tp1482
a(Vinsert
p1483
I42
VSimpleName: resetConfiguration
p1484
tp1485
a(Vinsert
p1486
I42
VSimpleName: trace
p1487
tp1488
a(Vinsert
p1489
I42
VSimpleName: getAttribute
p1490
tp1491
a(Vinsert
p1492
I42
VSimpleName: setScrollToBottom
p1493
tp1494
a(Vinsert
p1495
I42
VSimpleName: setTimeStamp
p1496
tp1497
a(Vinsert
p1498
I42
VSimpleName: getFooter
p1499
tp1500
a(Vinsert
p1501
I42
VSimpleName: setVisible
p1502
tp1503
a(Vinsert
p1504
I42
VSimpleName: setDefaultRenderer
p1505
tp1506
a(Vinsert
p1507
I42
VSimpleName: getObjectStack
p1508
tp1509
a(Vinsert
p1510
I42
VSimpleName: pushObject
p1511
tp1512
a(Vinsert
p1513
I42
VSimpleName: getAppender
p1514
tp1515
a(Vinsert
p1516
I42
VSimpleName: getActionCommand
p1517
tp1518
a(Vinsert
p1519
I42
VSimpleName: setLevel
p1520
tp1521
a(Vinsert
p1522
I42
VSimpleName: getHost
p1523
tp1524
a(Vinsert
p1525
I42
VSimpleName: addRule
p1526
tp1527
a(Vinsert
p1528
I42
VSimpleName: readObject
p1529
tp1530
a(Vinsert
p1531
I42
VSimpleName: setString
p1532
tp1533
a(Vinsert
p1534
I42
VSimpleName: getSelectedRow
p1535
tp1536
a(Vinsert
p1537
I42
VSimpleName: getMDC
p1538
tp1539
a(Vinsert
p1540
I42
VSimpleName: getString
p1541
tp1542
a(Vinsert
p1543
I42
VSimpleName: setConverterRegistry
p1544
tp1545
a(Vinsert
p1546
I42
VSimpleName: extract
p1547
tp1548
a(Vinsert
p1549
I42
VSimpleName: endsWith
p1550
tp1551
a(Vinsert
p1552
I42
VSimpleName: setAppend
p1553
tp1554
a(Vinsert
p1555
I42
VSimpleName: deriveFont
p1556
tp1557
a(Vinsert
p1558
I42
VSimpleName: getStatusBar
p1559
tp1560
a(Vinsert
p1561
I42
VSimpleName: asInt
p1562
tp1563
a(Vinsert
p1564
I42
VSimpleName: isDirectory
p1565
tp1566
a(Vinsert
p1567
I42
VSimpleName: setIdentifierExpression
p1568
tp1569
a(Vinsert
p1570
I42
VSimpleName: toLowerCase
p1571
tp1572
a(Vinsert
p1573
I42
VSimpleName: set
p1574
tp1575
a(Vinsert
p1576
I42
VSimpleName: setSize
p1577
tp1578
a(Vinsert
p1579
I42
VSimpleName: getAllPossiblePriorities
p1580
tp1581
a(Vinsert
p1582
I42
VSimpleName: activateOptions
p1583
tp1584
a(Vinsert
p1585
I42
VSimpleName: getChars
p1586
tp1587
a(Vinsert
p1588
I42
VSimpleName: setOneTouchExpandable
p1589
tp1590
a(Vinsert
p1591
I42
VSimpleName: pluginNameExists
p1592
tp1593
a(Vinsert
p1594
I42
VSimpleName: isLeftAligned
p1595
tp1596
a(Vinsert
p1597
I42
VSimpleName: valueOf
p1598
tp1599
a(Vinsert
p1600
I42
VSimpleName: getTextPane
p1601
tp1602
a(Vinsert
p1603
I42
VSimpleName: setUserObject
p1604
tp1605
a(Vinsert
p1606
I42
VSimpleName: getFacilityPrinting
p1607
tp1608
a(Vinsert
p1609
I42
VSimpleName: sort
p1610
tp1611
a(Vinsert
p1612
I42
VSimpleName: setCallSystemExitOnClose
p1613
tp1614
a(Vinsert
p1615
I42
VSimpleName: getPropertyKeySet
p1616
tp1617
a(Vinsert
p1618
I42
VSimpleName: push
p1619
tp1620
a(Vinsert
p1621
I42
VSimpleName: getWrappedModel
p1622
tp1623
a(Vinsert
p1624
I42
VSimpleName: acquire
p1625
tp1626
a(Vinsert
p1627
I42
VSimpleName: isInfoEnabled
p1628
tp1629
a(Vinsert
p1630
I42
VSimpleName: setDelay
p1631
tp1632
a(Vinsert
p1633
I42
VSimpleName: setProgress
p1634
tp1635
a(Vinsert
p1636
I42
VSimpleName: saveSettings
p1637
tp1638
a(Vinsert
p1639
I42
VSimpleName: setFindRule
p1640
tp1641
a(Vinsert
p1642
I42
VSimpleName: getKeyCode
p1643
tp1644
a(Vinsert
p1645
I42
VSimpleName: firePropertyChange
p1646
tp1647
a(Vinsert
p1648
I42
VSimpleName: getMaxSelectionIndex
p1649
tp1650
a(Vinsert
p1651
I42
VSimpleName: flush
p1652
tp1653
a(Vinsert
p1654
I42
VSimpleName: addProperties
p1655
tp1656
a(Vinsert
p1657
I42
VSimpleName: setLevelToMatch
p1658
tp1659
a(Vinsert
p1660
I42
VSimpleName: getIcon
p1661
tp1662
a(Vinsert
p1663
I42
VSimpleName: supportsGetGeneratedKeys
p1664
tp1665
a(Vinsert
p1666
I42
VSimpleName: getProductVersionNumber
p1667
tp1668
a(Vinsert
p1669
I42
VSimpleName: getAlternateDateFormatPattern
p1670
tp1671
a(Vinsert
p1672
I42
VSimpleName: updateComponentTreeUI
p1673
tp1674
a(Vinsert
p1675
I42
VSimpleName: getFilteredEvents
p1676
tp1677
a(Vinsert
p1678
I42
VSimpleName: getUserObject
p1679
tp1680
a(Vinsert
p1681
I42
VSimpleName: getLevel
p1682
tp1683
a(Vinsert
p1684
I42
VSimpleName: getRootCategoryNode
p1685
tp1686
a(Vinsert
p1687
I42
VSimpleName: equals
p1688
tp1689
a(Vinsert
p1690
I42
VSimpleName: getNodeValue
p1691
tp1692
a(Vinsert
p1693
I42
VSimpleName: getLastMessage
p1694
tp1695
a(Vinsert
p1696
I42
VSimpleName: subst
p1697
tp1698
a(Vinsert
p1699
I42
VSimpleName: setPaused
p1700
tp1701
a(Vinsert
p1702
I42
VSimpleName: setResourceBundle
p1703
tp1704
a(Vinsert
p1705
I42
VSimpleName: getLastPathComponent
p1706
tp1707
a(Vinsert
p1708
I42
VSimpleName: addPropertyChangeListener
p1709
tp1710
a(Vinsert
p1711
I42
VSimpleName: put
p1712
tp1713
a(Vinsert
p1714
I42
VSimpleName: defaultWriteObject
p1715
tp1716
a(Vinsert
p1717
I42
VSimpleName: setPristine
p1718
tp1719
a(Vinsert
p1720
I42
VSimpleName: decodeEvents
p1721
tp1722
a(Vinsert
p1723
I42
VSimpleName: getSource
p1724
tp1725
a(Vinsert
p1726
I42
VSimpleName: convert
p1727
tp1728
a(Vinsert
p1729
I42
VSimpleName: readLine
p1730
tp1731
a(Vinsert
p1732
I42
VSimpleName: substitute
p1733
tp1734
a(Vinsert
p1735
I42
VSimpleName: getHeight
p1736
tp1737
a(Vinsert
p1738
I42
VSimpleName: setMargin
p1739
tp1740
a(Vinsert
p1741
I42
VSimpleName: toLevel
p1742
tp1743
a(Vinsert
p1744
I42
VSimpleName: configure
p1745
tp1746
a(Vinsert
p1747
I42
VSimpleName: setSystemId
p1748
tp1749
a(Vinsert
p1750
I42
VSimpleName: getImage
p1751
tp1752
a(Vinsert
p1753
I42
VSimpleName: isSortEnabled
p1754
tp1755
a(Vinsert
p1756
I42
VSimpleName: getLoggerName
p1757
tp1758
a(Vinsert
p1759
I42
VSimpleName: lastModified
p1760
tp1761
a(Vinsert
p1762
I42
VSimpleName: lookForChildren
p1763
tp1764
a(Vinsert
p1765
I42
VSimpleName: setMaxFileSize
p1766
tp1767
a(Vinsert
p1768
I42
VSimpleName: getActiveLogFileName
p1769
tp1770
a(Vinsert
p1771
I42
VSimpleName: matcher
p1772
tp1773
a(Vinsert
p1774
I42
VSimpleName: getChildNodes
p1775
tp1776
a(Vinsert
p1777
I42
VSimpleName: serializeClone
p1778
tp1779
a(Vinsert
p1780
I42
VSimpleName: isShowSplash
p1781
tp1782
a(Vinsert
p1783
I42
VSimpleName: size
p1784
tp1785
a(Vinsert
p1786
I42
VSimpleName: clone
p1787
tp1788
a(Vinsert
p1789
I42
VSimpleName: warn
p1790
tp1791
a(Vinsert
p1792
I42
VSimpleName: getResource
p1793
tp1794
a(Vinsert
p1795
I42
VSimpleName: setHeader
p1796
tp1797
a(Vinsert
p1798
I42
VSimpleName: getNamespace
p1799
tp1800
a(Vinsert
p1801
I42
VSimpleName: getSetting
p1802
tp1803
a(Vinsert
p1804
I42
VSimpleName: showApplicationPreferences
p1805
tp1806
a(Vinsert
p1807
I42
VSimpleName: getChainedPriority
p1808
tp1809
a(Vinsert
p1810
I42
VSimpleName: fireAddAppenderEvent
p1811
tp1812
a(Vinsert
p1813
I42
VSimpleName: addFirst
p1814
tp1815
a(Vinsert
p1816
I42
VSimpleName: getDefaultRepository
p1817
tp1818
a(Vinsert
p1819
I42
VSimpleName: item
p1820
tp1821
a(Vinsert
p1822
I42
VSimpleName: getTimeStamp
p1823
tp1824
a(Vinsert
p1825
I42
VSimpleName: isRegistered
p1826
tp1827
a.