(dp0
(Vinsert
p1
I74
VParameterizedType: List<T>
p2
tp3
I1
s(Vinsert
p4
I74
VParameterizedType: ArrayList<byte[]>
p5
tp6
I10
s(Vinsert
p7
I42
VSimpleName: ClientKillerUtil
p8
tp9
I2
s(Vinsert
p10
I42
VSimpleName: destroyResource
p11
tp12
I1
s(Vinsert
p13
I40
VQualifiedName: keys.length
p14
tp15
I7
s(Vinsert
p16
I42
VSimpleName: zrevrangeByScore
p17
tp18
I9
s(Vinsert
p19
I42
VSimpleName: resource
p20
tp21
I9
s(Vinsert
p22
I45
VStringLiteral: "foo2"
p23
tp24
I5
s(Vinsert
p25
I45
VStringLiteral: "+"
p26
tp27
I1
s(Vinsert
p28
I42
VSimpleName: sha1
p29
tp30
I4
s(Vinsert
p31
I42
VSimpleName: zlexcount
p32
tp33
I2
s(Vinsert
p34
I43
VSimpleType: GeoRadiusParam
p35
tp36
I1
s(Vinsert
p37
I42
VSimpleName: GEORADIUS
p38
tp39
I1
s(Vinsert
p40
I5
VArrayType: T[]
p41
tp42
I4
s(Vinsert
p43
I42
VSimpleName: getOne
p44
tp45
I4
s(Vinsert
p46
I45
VStringLiteral: " "
p47
tp48
I2
s(Vinsert
p49
I27
VInfixExpression: +
p50
tp51
I27
s(Vinsert
p52
I42
VSimpleName: resetPipelinedCount
p53
tp54
I1
s(Vinsert
p55
I42
VSimpleName: unformatted
p56
tp57
I3
s(Vinsert
p58
I8
VBlock
p59
tp60
I680
s(Vinsert
p61
I40
VQualifiedName: bvals.length
p62
tp63
I1
s(Vinsert
p64
I42
VSimpleName: scoreMembers
p65
tp66
I9
s(Vinsert
p67
I34
VNumberLiteral: 5461
p68
tp69
I1
s(Vinsert
p70
I42
VSimpleName: deadClient
p71
tp72
I3
s(Vinsert
p73
I42
VSimpleName: poll
p74
tp75
I1
s(Vinsert
p76
I42
VSimpleName: getMany
p77
tp78
I1
s(Vinsert
p79
I42
VSimpleName: println
p80
tp81
I6
s(Vinsert
p82
I45
VStringLiteral: "e"
p83
tp84
I1
s(Vinsert
p85
I42
VSimpleName: config
p86
tp87
I11
s(Vinsert
p88
I83
VModifier: protected
p89
tp90
I9
s(Vinsert
p91
I42
VSimpleName: chunks
p92
tp93
I3
s(Vinsert
p94
I43
VSimpleType: Matcher
p95
tp96
I1
s(Vinsert
p97
I42
VSimpleName: generateResponse
p98
tp99
I2
s(Vinsert
p100
I42
VSimpleName: JedisPool
p101
tp102
I28
s(Vinsert
p103
I42
VSimpleName: zaddBinary
p104
tp105
I4
s(Vinsert
p106
I45
VStringLiteral: "redis://localhost:6380"
p107
tp108
I2
s(Vinsert
p109
I42
VSimpleName: pools
p110
tp111
I2
s(Vinsert
p112
I42
VSimpleName: IllegalArgumentException
p113
tp114
I3
s(Vinsert
p115
I43
VSimpleType: ZAddParams
p116
tp117
I4
s(Vinsert
p118
I42
VSimpleName: MONITOR_MASTER_NAME
p119
tp120
I1
s(Vinsert
p121
I42
VSimpleName: masterName
p122
tp123
I3
s(Vinsert
p124
I43
VSimpleType: AtomicBoolean
p125
tp126
I2
s(Vinsert
p127
I45
VStringLiteral: "value"
p128
tp129
I1
s(Vinsert
p130
I42
VSimpleName: testModules
p131
tp132
I1
s(Vinsert
p133
I42
VSimpleName: slaveof
p134
tp135
I2
s(Vinsert
p136
I42
VSimpleName: Config
p137
tp138
I1
s(Vinsert
p139
I42
VSimpleName: print
p140
tp141
I1
s(Vinsert
p142
I40
VQualifiedName: ps.length
p143
tp144
I1
s(Vinsert
p145
I42
VSimpleName: keyCount
p146
tp147
I2
s(Vinsert
p148
I74
VParameterizedType: Map<String,String>
p149
tp150
I2
s(Vinsert
p151
I40
VQualifiedName: dependency.set
p152
tp153
I1
s(Vinsert
p154
I74
VParameterizedType: Response<Long>
p155
tp156
I9
s(Vinsert
p157
I42
VSimpleName: JedisTest
p158
tp159
I2
s(Vinsert
p160
I45
VStringLiteral: "quorum"
p161
tp162
I1
s(Vinsert
p163
I74
VParameterizedType: Response<Object>
p164
tp165
I1
s(Vinsert
p166
I40
VQualifiedName: Keyword.NOT
p167
tp168
I1
s(Vinsert
p169
I42
VSimpleName: isClosed
p170
tp171
I4
s(Vinsert
p172
I42
VSimpleName: set
p173
tp174
I52
s(Vinsert
p175
I42
VSimpleName: offset
p176
tp177
I32
s(Vinsert
p178
I42
VSimpleName: hostnameVerifier
p179
tp180
I4
s(Vinsert
p181
I42
VSimpleName: nodePool
p182
tp183
I3
s(Vinsert
p184
I42
VSimpleName: setbit
p185
tp186
I13
s(Vinsert
p187
I42
VSimpleName: message
p188
tp189
I8
s(Vinsert
p190
I42
VSimpleName: zrangeByScoreWithScores
p191
tp192
I4
s(Vinsert
p193
I42
VSimpleName: slots
p194
tp195
I6
s(Vinsert
p196
I42
VSimpleName: args
p197
tp198
I37
s(Vinsert
p199
I42
VSimpleName: infoLine
p200
tp201
I2
s(Vinsert
p202
I42
VSimpleName: buf
p203
tp204
I1
s(Vinsert
p205
I42
VSimpleName: renamenx
p206
tp207
I1
s(Vinsert
p208
I42
VSimpleName: slaveCount
p209
tp210
I1
s(Vinsert
p211
I42
VSimpleName: defaulthnp6
p212
tp213
I1
s(Vinsert
p214
I74
VParameterizedType: ThreadLocal<Jedis>
p215
tp216
I1
s(Vinsert
p217
I42
VSimpleName: setHostAndPort
p218
tp219
I1
s(Vinsert
p220
I42
VSimpleName: nosort
p221
tp222
I1
s(Vinsert
p223
I42
VSimpleName: h
p224
tp225
I6
s(Vinsert
p226
I42
VSimpleName: split
p227
tp228
I10
s(Vinsert
p229
I42
VSimpleName: Assert
p230
tp231
I6
s(Vinsert
p232
I42
VSimpleName: node3Id
p233
tp234
I1
s(Vinsert
p235
I42
VSimpleName: convertScoreMembersToBinary
p236
tp237
I1
s(Vinsert
p238
I42
VSimpleName: byteArrayMax
p239
tp240
I1
s(Vinsert
p241
I43
VSimpleType: Tuple
p242
tp243
I13
s(Vinsert
p244
I74
VParameterizedType: ArrayList<JedisShardInfo>
p245
tp246
I3
s(Vinsert
p247
I42
VSimpleName: value
p248
tp249
I44
s(Vinsert
p250
I42
VSimpleName: keysArgs
p251
tp252
I1
s(Vinsert
p253
I42
VSimpleName: writeIntCrLf
p254
tp255
I1
s(Vinsert
p256
I66
VTextElement:  instead
p257
tp258
I1
s(Vinsert
p259
I42
VSimpleName: getObject
p260
tp261
I3
s(Vinsert
p262
I42
VSimpleName: responses
p263
tp264
I5
s(Vinsert
p265
I42
VSimpleName: singleton
p266
tp267
I1
s(Vinsert
p268
I45
VStringLiteral: "host:9000"
p269
tp270
I1
s(Vinsert
p271
I42
VSimpleName: connectWithUrl
p272
tp273
I1
s(Vinsert
p274
I74
VParameterizedType: ScanResult<byte[]>
p275
tp276
I2
s(Vinsert
p277
I74
VParameterizedType: LinkedHashSet<String>
p278
tp279
I4
s(Vinsert
p280
I34
VNumberLiteral: 2d
p281
tp282
I4
s(Vinsert
p283
I11
VCastExpression
p284
tp285
I26
s(Vinsert
p286
I42
VSimpleName: URI
p287
tp288
I10
s(Vinsert
p289
I42
VSimpleName: multi
p290
tp291
I10
s(Vinsert
p292
I42
VSimpleName: bvals
p293
tp294
I1
s(Vinsert
p295
I42
VSimpleName: implementedCommands
p296
tp297
I1
s(Vinsert
p298
I40
VQualifiedName: java.util.logging.Logger
p299
tp300
I1
s(Vinsert
p301
I40
VQualifiedName: java.util.IllegalFormatException
p302
tp303
I1
s(Vinsert
p304
I42
VSimpleName: S
p305
tp306
I2
s(Vinsert
p307
I42
VSimpleName: compareTo
p308
tp309
I5
s(Vinsert
p310
I42
VSimpleName: touch
p311
tp312
I12
s(Vinsert
p313
I42
VSimpleName: moduleLoad
p314
tp315
I1
s(Vinsert
p316
I42
VSimpleName: bresp
p317
tp318
I2
s(Vinsert
p319
I42
VSimpleName: Collections
p320
tp321
I7
s(Vinsert
p322
I45
VStringLiteral: "This is a string"
p323
tp324
I2
s(Vinsert
p325
I42
VSimpleName: subscribeRetryWaitTimeMillis
p326
tp327
I3
s(Vinsert
p328
I42
VSimpleName: renameOldAndNewAreTheSame
p329
tp330
I1
s(Vinsert
p331
I42
VSimpleName: DOLLAR_BYTE
p332
tp333
I1
s(Vinsert
p334
I43
VSimpleType: UnknownHostException
p335
tp336
I1
s(Vinsert
p337
I18
VContinueStatement
p338
tp339
I2
s(Vinsert
p340
I42
VSimpleName: sdiffstore
p341
tp342
I2
s(Vinsert
p343
I42
VSimpleName: setReceiveBufferSize
p344
tp345
I1
s(Vinsert
p346
I42
VSimpleName: zremrangeByRank
p347
tp348
I2
s(Vinsert
p349
I42
VSimpleName: convertHost
p350
tp351
I2
s(Vinsert
p352
I61
VWhileStatement
p353
tp354
I5
s(Vinsert
p355
I42
VSimpleName: swapDB
p356
tp357
I3
s(Vinsert
p358
I42
VSimpleName: temp
p359
tp360
I2
s(Vinsert
p361
I42
VSimpleName: compare
p362
tp363
I4
s(Vinsert
p364
I42
VSimpleName: secondMapValue
p365
tp366
I1
s(Vinsert
p367
I42
VSimpleName: foo
p368
tp369
I1
s(Vinsert
p370
I43
VSimpleType: GenericObjectPool.Config
p371
tp372
I1
s(Vinsert
p373
I43
VSimpleType: JedisFactory
p374
tp375
I1
s(Vinsert
p376
I42
VSimpleName: getClass
p377
tp378
I10
s(Vinsert
p379
I42
VSimpleName: cache
p380
tp381
I5
s(Vinsert
p382
I42
VSimpleName: hkeys
p383
tp384
I1
s(Vinsert
p385
I42
VSimpleName: Socket
p386
tp387
I1
s(Vinsert
p388
I42
VSimpleName: ip
p389
tp390
I1
s(Vinsert
p391
I34
VNumberLiteral: 2000
p392
tp393
I6
s(Vinsert
p394
I42
VSimpleName: md5
p395
tp396
I2
s(Vinsert
p397
I80
VMemberValuePair
p398
tp399
I3
s(Vinsert
p400
I42
VSimpleName: initPool
p401
tp402
I2
s(Vinsert
p403
I42
VSimpleName: clusterRedirectResponse
p404
tp405
I1
s(Vinsert
p406
I42
VSimpleName: disconnect
p407
tp408
I1
s(Vinsert
p409
I42
VSimpleName: a
p410
tp411
I4
s(Vinsert
p412
I43
VSimpleType: ArrayList
p413
tp414
I36
s(Vinsert
p415
I7
VAssignment: ^=
p416
tp417
I1
s(Vinsert
p418
I42
VSimpleName: returnBrokenResource
p419
tp420
I5
s(Vinsert
p421
I74
VParameterizedType: Map.Entry<String,String>
p422
tp423
I1
s(Vinsert
p424
I42
VSimpleName: sentinel
p425
tp426
I1
s(Vinsert
p427
I45
VStringLiteral: "OK"
p428
tp429
I6
s(Vinsert
p430
I42
VSimpleName: jnrcne
p431
tp432
I2
s(Vinsert
p433
I39
VPrimitiveType: long
p434
tp435
I58
s(Vinsert
p436
I34
VNumberLiteral: 8
p437
tp438
I1
s(Vinsert
p439
I42
VSimpleName: time
p440
tp441
I9
s(Vinsert
p442
I42
VSimpleName: outputStream
p443
tp444
I1
s(Vinsert
p445
I42
VSimpleName: setPort
p446
tp447
I1
s(Vinsert
p448
I42
VSimpleName: RedisSlot
p449
tp450
I1
s(Vinsert
p451
I42
VSimpleName: Random
p452
tp453
I2
s(Vinsert
p454
I42
VSimpleName: slot3
p455
tp456
I1
s(Vinsert
p457
I42
VSimpleName: CHARSET
p458
tp459
I1
s(Vinsert
p460
I43
VSimpleType: JedisConnectionException
p461
tp462
I5
s(Vinsert
p463
I27
VInfixExpression: <<
p464
tp465
I2
s(Vinsert
p466
I45
VStringLiteral: "1:2:*->status"
p467
tp468
I1
s(Vinsert
p469
I57
VTypeLiteral
p470
tp471
I7
s(Vinsert
p472
I42
VSimpleName: slave
p473
tp474
I1
s(Vinsert
p475
I74
VParameterizedType: Entry<String,Object>
p476
tp477
I1
s(Vinsert
p478
I42
VSimpleName: LOCALHOST_STR
p479
tp480
I1
s(Vinsert
p481
I42
VSimpleName: getBinaryElement
p482
tp483
I1
s(Vinsert
p484
I14
VClassInstanceCreation
p485
tp486
I163
s(Vinsert
p487
I42
VSimpleName: jp
p488
tp489
I6
s(Vinsert
p490
I42
VSimpleName: intValue
p491
tp492
I6
s(Vinsert
p493
I42
VSimpleName: info
p494
tp495
I9
s(Vinsert
p496
I45
VStringLiteral: "123"
p497
tp498
I1
s(Vinsert
p499
I74
VParameterizedType: ThreadLocal<MessageDigest>
p500
tp501
I1
s(Vinsert
p502
I42
VSimpleName: Tuple
p503
tp504
I14
s(Vinsert
p505
I42
VSimpleName: bbit
p506
tp507
I1
s(Vinsert
p508
I42
VSimpleName: getNodes
p509
tp510
I5
s(Vinsert
p511
I42
VSimpleName: getConnection
p512
tp513
I4
s(Vinsert
p514
I45
VStringLiteral: "car1"
p515
tp516
I1
s(Vinsert
p517
I43
VSimpleType: Closeable
p518
tp519
I3
s(Vinsert
p520
I42
VSimpleName: getScheme
p521
tp522
I3
s(Vinsert
p523
I42
VSimpleName: numPatterns
p524
tp525
I1
s(Vinsert
p526
I27
VInfixExpression: >=
p527
tp528
I1
s(Vinsert
p529
I45
VStringLiteral: "JedisPubSub is not subscribed to a Jedis instance."
p530
tp531
I1
s(Vinsert
p532
I43
VSimpleType: Response
p533
tp534
I35
s(Vinsert
p535
I42
VSimpleName: paramsLength
p536
tp537
I1
s(Vinsert
p538
I42
VSimpleName: n
p539
tp540
I5
s(Vinsert
p541
I42
VSimpleName: index
p542
tp543
I5
s(Vinsert
p544
I42
VSimpleName: List
p545
tp546
I58
s(Vinsert
p547
I40
VQualifiedName: Map.Entry
p548
tp549
I3
s(Vinsert
p550
I42
VSimpleName: bsha1
p551
tp552
I1
s(Vinsert
p553
I43
VSimpleType: Map.Entry
p554
tp555
I3
s(Vinsert
p556
I45
VStringLiteral: "RENAMENX"
p557
tp558
I1
s(Vinsert
p559
I39
VPrimitiveType: int
p560
tp561
I124
s(Vinsert
p562
I42
VSimpleName: cmd
p563
tp564
I2
s(Vinsert
p565
I42
VSimpleName: submit
p566
tp567
I1
s(Vinsert
p568
I42
VSimpleName: busyMessage
p569
tp570
I1
s(Vinsert
p571
I42
VSimpleName: pivot
p572
tp573
I2
s(Vinsert
p574
I34
VNumberLiteral: 0x08
p575
tp576
I1
s(Vinsert
p577
I42
VSimpleName: PipedOutputStream
p578
tp579
I2
s(Vinsert
p580
I13
VCharacterLiteral: '*'
p581
tp582
I1
s(Vinsert
p583
I42
VSimpleName: zrem
p584
tp585
I5
s(Vinsert
p586
I42
VSimpleName: setrange
p587
tp588
I5
s(Vinsert
p589
I42
VSimpleName: charAt
p590
tp591
I1
s(Vinsert
p592
I42
VSimpleName: node2
p593
tp594
I8
s(Vinsert
p595
I42
VSimpleName: dump
p596
tp597
I1
s(Vinsert
p598
I42
VSimpleName: extractHashTag
p599
tp600
I1
s(Vinsert
p601
I42
VSimpleName: response
p602
tp603
I12
s(Vinsert
p604
I29
VJavadoc
p605
tp606
I1
s(Vinsert
p607
I42
VSimpleName: brpoplpush
p608
tp609
I5
s(Vinsert
p610
I42
VSimpleName: string
p611
tp612
I5
s(Vinsert
p613
I42
VSimpleName: next
p614
tp615
I4
s(Vinsert
p616
I45
VStringLiteral: "ZRANGEBYSCORE"
p617
tp618
I1
s(Vinsert
p619
I45
VStringLiteral: "resultOr"
p620
tp621
I1
s(Vinsert
p622
I34
VNumberLiteral: 1
p623
tp624
I59
s(Vinsert
p625
I42
VSimpleName: releaseConnection
p626
tp627
I1
s(Vinsert
p628
I34
VNumberLiteral: 100000
p629
tp630
I1
s(Vinsert
p631
I42
VSimpleName: elapsed
p632
tp633
I2
s(Vinsert
p634
I45
VStringLiteral: "ZCOUNT"
p635
tp636
I1
s(Vinsert
p637
I42
VSimpleName: pipeline2
p638
tp639
I2
s(Vinsert
p640
I42
VSimpleName: o
p641
tp642
I4
s(Vinsert
p643
I42
VSimpleName: read
p644
tp645
I4
s(Vinsert
p646
I42
VSimpleName: extractParts
p647
tp648
I2
s(Vinsert
p649
I42
VSimpleName: where
p650
tp651
I2
s(Vinsert
p652
I42
VSimpleName: JedisSentinelTestUtil
p653
tp654
I1
s(Vinsert
p655
I42
VSimpleName: hash
p656
tp657
I7
s(Vinsert
p658
I42
VSimpleName: compareList
p659
tp660
I1
s(Vinsert
p661
I42
VSimpleName: getScore
p662
tp663
I1
s(Vinsert
p664
I42
VSimpleName: byteKey
p665
tp666
I2
s(Vinsert
p667
I33
VNullLiteral
p668
tp669
I60
s(Vinsert
p670
I42
VSimpleName: printer
p671
tp672
I2
s(Vinsert
p673
I42
VSimpleName: bfoo2
p674
tp675
I1
s(Vinsert
p676
I42
VSimpleName: startOffset
p677
tp678
I2
s(Vinsert
p679
I42
VSimpleName: protocol
p680
tp681
I11
s(Vinsert
p682
I42
VSimpleName: zrank
p683
tp684
I1
s(Vinsert
p685
I42
VSimpleName: JedisCluster
p686
tp687
I15
s(Vinsert
p688
I40
VQualifiedName: redis.clients.jedis.Protocol.Keyword.NOSORT
p689
tp690
I1
s(Vinsert
p691
I42
VSimpleName: getCurrentHostMaster
p692
tp693
I1
s(Vinsert
p694
I42
VSimpleName: setDaemon
p695
tp696
I1
s(Vinsert
p697
I42
VSimpleName: EX
p698
tp699
I1
s(Vinsert
p700
I43
VSimpleType: Double
p701
tp702
I12
s(Vinsert
p703
I42
VSimpleName: returnConnection
p704
tp705
I1
s(Vinsert
p706
I27
VInfixExpression: >
p707
tp708
I6
s(Vinsert
p709
I42
VSimpleName: parseInt
p710
tp711
I6
s(Vinsert
p712
I40
VQualifiedName: Protocol.DEFAULT_PORT
p713
tp714
I4
s(Vinsert
p715
I42
VSimpleName: expected
p716
tp717
I30
s(Vinsert
p718
I42
VSimpleName: bitop
p719
tp720
I1
s(Vinsert
p721
I42
VSimpleName: availableQueue
p722
tp723
I2
s(Vinsert
p724
I42
VSimpleName: getCommand
p725
tp726
I1
s(Vinsert
p727
I42
VSimpleName: spop
p728
tp729
I12
s(Vinsert
p730
I43
VSimpleType: Method
p731
tp732
I1
s(Vinsert
p733
I42
VSimpleName: scriptLoad
p734
tp735
I2
s(Vinsert
p736
I42
VSimpleName: MASTER_NAME
p737
tp738
I5
s(Vinsert
p739
I39
VPrimitiveType: char
p740
tp741
I1
s(Vinsert
p742
I45
VStringLiteral: "aa"
p743
tp744
I4
s(Vinsert
p745
I42
VSimpleName: actual
p746
tp747
I2
s(Vinsert
p748
I42
VSimpleName: members
p749
tp750
I13
s(Vinsert
p751
I42
VSimpleName: zscore
p752
tp753
I2
s(Vinsert
p754
I42
VSimpleName: jedisArray
p755
tp756
I1
s(Vinsert
p757
I42
VSimpleName: pfcount
p758
tp759
I23
s(Vinsert
p760
I74
VParameterizedType: HashSet<HostAndPort>
p761
tp762
I6
s(Vinsert
p763
I40
VQualifiedName: Reset.SOFT
p764
tp765
I1
s(Vinsert
p766
I43
VSimpleType: BinaryJedisCluster
p767
tp768
I1
s(Vinsert
p769
I42
VSimpleName: setDataSource
p770
tp771
I2
s(Vinsert
p772
I34
VNumberLiteral: 31
p773
tp774
I1
s(Vinsert
p775
I40
VQualifiedName: sets.length
p776
tp777
I1
s(Vinsert
p778
I40
VQualifiedName: java.util.UUID
p779
tp780
I2
s(Vinsert
p781
I34
VNumberLiteral: 1000000
p782
tp783
I1
s(Vinsert
p784
I2
VArrayAccess
p785
tp786
I45
s(Vinsert
p787
I42
VSimpleName: clusterDelSlots
p788
tp789
I6
s(Vinsert
p790
I42
VSimpleName: register
p791
tp792
I1
s(Vinsert
p793
I74
VParameterizedType: HashMap<byte[],byte[]>
p794
tp795
I1
s(Vinsert
p796
I45
VStringLiteral: "ZREMRANGEBYRANK"
p797
tp798
I1
s(Vinsert
p799
I42
VSimpleName: index2
p800
tp801
I2
s(Vinsert
p802
I49
VSwitchCase
p803
tp804
I1
s(Vinsert
p805
I42
VSimpleName: param
p806
tp807
I4
s(Vinsert
p808
I42
VSimpleName: elements
p809
tp810
I6
s(Vinsert
p811
I42
VSimpleName: jedis0
p812
tp813
I5
s(Vinsert
p814
I42
VSimpleName: d
p815
tp816
I1
s(Vinsert
p817
I42
VSimpleName: JedisClusterCRC16
p818
tp819
I12
s(Vinsert
p820
I42
VSimpleName: resetState
p821
tp822
I5
s(Vinsert
p823
I43
VSimpleType: Entry
p824
tp825
I2
s(Vinsert
p826
I45
VStringLiteral: "key1"
p827
tp828
I6
s(Vinsert
p829
I42
VSimpleName: Math
p830
tp831
I1
s(Vinsert
p832
I42
VSimpleName: flushDB
p833
tp834
I2
s(Vinsert
p835
I42
VSimpleName: getNumIdle
p836
tp837
I1
s(Vinsert
p838
I42
VSimpleName: getClusterNodes
p839
tp840
I3
s(Vinsert
p841
I42
VSimpleName: sync
p842
tp843
I5
s(Vinsert
p844
I42
VSimpleName: addObject
p845
tp846
I1
s(Vinsert
p847
I42
VSimpleName: bhash
p848
tp849
I2
s(Vinsert
p850
I44
VSingleVariableDeclaration
p851
tp852
I463
s(Vinsert
p853
I40
VQualifiedName: GenericObjectPool.Config
p854
tp855
I1
s(Vinsert
p856
I40
VQualifiedName: redis.clients.jedis.ShardedJedis
p857
tp858
I1
s(Vinsert
p859
I42
VSimpleName: getMessage
p860
tp861
I3
s(Vinsert
p862
I42
VSimpleName: addAll
p863
tp864
I3
s(Vinsert
p865
I40
VQualifiedName: buf.length
p866
tp867
I2
s(Vinsert
p868
I42
VSimpleName: pubsub
p869
tp870
I1
s(Vinsert
p871
I39
VPrimitiveType: byte
p872
tp873
I173
s(Vinsert
p874
I42
VSimpleName: arraycopy
p875
tp876
I6
s(Vinsert
p877
I40
VQualifiedName: Protocol.SENTINEL_RESET
p878
tp879
I1
s(Vinsert
p880
I42
VSimpleName: monitor
p881
tp882
I1
s(Vinsert
p883
I40
VQualifiedName: master.host
p884
tp885
I1
s(Vinsert
p886
I42
VSimpleName: jedisCluster
p887
tp888
I1
s(Vinsert
p889
I42
VSimpleName: invalidDb
p890
tp891
I1
s(Vinsert
p892
I42
VSimpleName: sadd
p893
tp894
I7
s(Vinsert
p895
I42
VSimpleName: bFoo
p896
tp897
I1
s(Vinsert
p898
I42
VSimpleName: transaction
p899
tp900
I2
s(Vinsert
p901
I43
VSimpleType: JedisClusterCommand
p902
tp903
I1
s(Vinsert
p904
I42
VSimpleName: envHost
p905
tp906
I4
s(Vinsert
p907
I42
VSimpleName: from
p908
tp909
I1
s(Vinsert
p910
I42
VSimpleName: ShardedJedisPipeline
p911
tp912
I4
s(Vinsert
p913
I34
VNumberLiteral: 200000000000L
p914
tp915
I1
s(Vinsert
p916
I42
VSimpleName: ind
p917
tp918
I1
s(Vinsert
p919
I42
VSimpleName: ping
p920
tp921
I8
s(Vinsert
p922
I42
VSimpleName: method
p923
tp924
I3
s(Vinsert
p925
I34
VNumberLiteral: 500
p926
tp927
I3
s(Vinsert
p928
I42
VSimpleName: setShardedJedis
p929
tp930
I2
s(Vinsert
p931
I43
VSimpleType: ShardedJedis
p932
tp933
I7
s(Vinsert
p934
I43
VSimpleType: GenericObjectPoolConfig
p935
tp936
I6
s(Vinsert
p937
I34
VNumberLiteral: 7186
p938
tp939
I1
s(Vinsert
p940
I42
VSimpleName: masterJedis
p941
tp942
I3
s(Vinsert
p943
I42
VSimpleName: resetType
p944
tp945
I3
s(Vinsert
p946
I42
VSimpleName: isSetAreEquals
p947
tp948
I1
s(Vinsert
p949
I42
VSimpleName: AtomicBoolean
p950
tp951
I2
s(Vinsert
p952
I42
VSimpleName: reply
p953
tp954
I10
s(Vinsert
p955
I42
VSimpleName: setBlockWhenExhausted
p956
tp957
I1
s(Vinsert
p958
I42
VSimpleName: renewSlotCache
p959
tp960
I2
s(Vinsert
p961
I42
VSimpleName: getResourcesReturned
p962
tp963
I1
s(Vinsert
p964
I40
VQualifiedName: Integer.MAX_VALUE
p965
tp966
I1
s(Vinsert
p967
I74
VParameterizedType: JedisClusterCommand<Long>
p968
tp969
I1
s(Vinsert
p970
I74
VParameterizedType: List<?>
p971
tp972
I2
s(Vinsert
p973
I43
VSimpleType: DebugParams
p974
tp975
I1
s(Vinsert
p976
I74
VParameterizedType: Map<byte[],byte[]>
p977
tp978
I1
s(Vinsert
p979
I45
VStringLiteral: "bar3"
p980
tp981
I1
s(Vinsert
p982
I42
VSimpleName: processBulkReply
p983
tp984
I1
s(Vinsert
p985
I42
VSimpleName: valueOf
p986
tp987
I21
s(Vinsert
p988
I42
VSimpleName: setTestOnBorrow
p989
tp990
I1
s(Vinsert
p991
I42
VSimpleName: weight
p992
tp993
I1
s(Vinsert
p994
I45
VStringLiteral: "WEIGHTS"
p995
tp996
I1
s(Vinsert
p997
I42
VSimpleName: jc2
p998
tp999
I2
s(Vinsert
p1000
I32
VMethodInvocation
p1001
tp1002
I1645
s(Vinsert
p1003
I42
VSimpleName: GeoUnit
p1004
tp1005
I3
s(Vinsert
p1006
I45
VStringLiteral: "Cannot open Redis connection due invalid URI. %s"
p1007
tp1008
I1
s(Vinsert
p1009
I45
VStringLiteral: "redis.clients.jedis.BinaryJedis$SetFromList"
p1010
tp1011
I1
s(Vinsert
p1012
I42
VSimpleName: parameterMap
p1013
tp1014
I2
s(Vinsert
p1015
I42
VSimpleName: setClient
p1016
tp1017
I2
s(Vinsert
p1018
I16
VConditionalExpression
p1019
tp1020
I2
s(Vinsert
p1021
I45
VStringLiteral: "message"
p1022
tp1023
I1
s(Vinsert
p1024
I42
VSimpleName: closer
p1025
tp1026
I1
s(Vinsert
p1027
I42
VSimpleName: sentinelFailover
p1028
tp1029
I1
s(Vinsert
p1030
I42
VSimpleName: pipeline
p1031
tp1032
I14
s(Vinsert
p1033
I45
VStringLiteral: "bar"
p1034
tp1035
I24
s(Vinsert
p1036
I40
VQualifiedName: redis.clients.jedis.Response
p1037
tp1038
I2
s(Vinsert
p1039
I42
VSimpleName: clusterReset
p1040
tp1041
I3
s(Vinsert
p1042
I42
VSimpleName: createTrustNoOneSslSocketFactory
p1043
tp1044
I1
s(Vinsert
p1045
I42
VSimpleName: current
p1046
tp1047
I1
s(Vinsert
p1048
I42
VSimpleName: rollbackTimeout
p1049
tp1050
I4
s(Vinsert
p1051
I66
VTextElement:  GET
p1052
tp1053
I1
s(Vinsert
p1054
I45
VStringLiteral: "foo bar!"
p1055
tp1056
I1
s(Vinsert
p1057
I3
VArrayCreation
p1058
tp1059
I5
s(Vinsert
p1060
I43
VSimpleType: ScanParams
p1061
tp1062
I5
s(Vinsert
p1063
I42
VSimpleName: zrevrangeByScoreWithScores
p1064
tp1065
I5
s(Vinsert
p1066
I45
VStringLiteral: "bar2"
p1067
tp1068
I3
s(Vinsert
p1069
I42
VSimpleName: score
p1070
tp1071
I6
s(Vinsert
p1072
I42
VSimpleName: redirections
p1073
tp1074
I1
s(Vinsert
p1075
I40
VQualifiedName: bkeys.length
p1076
tp1077
I1
s(Vinsert
p1078
I42
VSimpleName: hset
p1079
tp1080
I3
s(Vinsert
p1081
I42
VSimpleName: expx
p1082
tp1083
I6
s(Vinsert
p1084
I74
VParameterizedType: ScanResult<Map.Entry<String,String>>
p1085
tp1086
I1
s(Vinsert
p1087
I43
VSimpleType: HashMap
p1088
tp1089
I5
s(Vinsert
p1090
I43
VSimpleType: Boolean
p1091
tp1092
I1
s(Vinsert
p1093
I17
VConstructorInvocation
p1094
tp1095
I3
s(Vinsert
p1096
I42
VSimpleName: node2Slots
p1097
tp1098
I1
s(Vinsert
p1099
I42
VSimpleName: bfoo
p1100
tp1101
I12
s(Vinsert
p1102
I42
VSimpleName: readonly
p1103
tp1104
I3
s(Vinsert
p1105
I43
VSimpleType: Wrapper
p1106
tp1107
I1
s(Vinsert
p1108
I42
VSimpleName: kw
p1109
tp1110
I2
s(Vinsert
p1111
I42
VSimpleName: ex
p1112
tp1113
I4
s(Vinsert
p1114
I45
VStringLiteral: "foobared"
p1115
tp1116
I23
s(Vinsert
p1117
I42
VSimpleName: targetHostAndPort
p1118
tp1119
I1
s(Vinsert
p1120
I42
VSimpleName: expxBytes
p1121
tp1122
I1
s(Vinsert
p1123
I34
VNumberLiteral: 0.1d
p1124
tp1125
I2
s(Vinsert
p1126
I42
VSimpleName: parameter
p1127
tp1128
I4
s(Vinsert
p1129
I42
VSimpleName: shardInfo
p1130
tp1131
I7
s(Vinsert
p1132
I42
VSimpleName: init
p1133
tp1134
I2
s(Vinsert
p1135
I34
VNumberLiteral: 16
p1136
tp1137
I1
s(Vinsert
p1138
I42
VSimpleName: BinaryJedisPubSub
p1139
tp1140
I1
s(Vinsert
p1141
I42
VSimpleName: longValue
p1142
tp1143
I3
s(Vinsert
p1144
I42
VSimpleName: ShardedJedisPool
p1145
tp1146
I5
s(Vinsert
p1147
I42
VSimpleName: matcher
p1148
tp1149
I1
s(Vinsert
p1150
I42
VSimpleName: size
p1151
tp1152
I33
s(Vinsert
p1153
I42
VSimpleName: getDBIndex
p1154
tp1155
I1
s(Vinsert
p1156
I34
VNumberLiteral: 1d
p1157
tp1158
I2
s(Vinsert
p1159
I42
VSimpleName: restore
p1160
tp1161
I3
s(Vinsert
p1162
I42
VSimpleName: warning
p1163
tp1164
I2
s(Vinsert
p1165
I42
VSimpleName: member
p1166
tp1167
I7
s(Vinsert
p1168
I42
VSimpleName: Iterator
p1169
tp1170
I5
s(Vinsert
p1171
I45
VStringLiteral: "test"
p1172
tp1173
I1
s(Vinsert
p1174
I40
VQualifiedName: hnp2.port
p1175
tp1176
I2
s(Vinsert
p1177
I45
VStringLiteral: "{bar"
p1178
tp1179
I2
s(Vinsert
p1180
I42
VSimpleName: r
p1181
tp1182
I3
s(Vinsert
p1183
I42
VSimpleName: inTransaction
p1184
tp1185
I2
s(Vinsert
p1186
I40
VQualifiedName: redis.clients.jedis.Protocol.Keyword.ASC
p1187
tp1188
I1
s(Vinsert
p1189
I42
VSimpleName: psetex
p1190
tp1191
I6
s(Vinsert
p1192
I42
VSimpleName: patterns
p1193
tp1194
I4
s(Vinsert
p1195
I27
VInfixExpression: ||
p1196
tp1197
I10
s(Vinsert
p1198
I42
VSimpleName: reset
p1199
tp1200
I1
s(Vinsert
p1201
I42
VSimpleName: parts
p1202
tp1203
I1
s(Vinsert
p1204
I66
VTextElement: Is the iteration complete. I.e. was the complete dataset scanned.
p1205
tp1206
I1
s(Vinsert
p1207
I34
VNumberLiteral: 5
p1208
tp1209
I2
s(Vinsert
p1210
I42
VSimpleName: rpush
p1211
tp1212
I2
s(Vinsert
p1213
I42
VSimpleName: nodeArray
p1214
tp1215
I2
s(Vinsert
p1216
I42
VSimpleName: brange2
p1217
tp1218
I1
s(Vinsert
p1219
I43
VSimpleType: ByteArrayOutputStream
p1220
tp1221
I1
s(Vinsert
p1222
I42
VSimpleName: sleep
p1223
tp1224
I9
s(Vinsert
p1225
I42
VSimpleName: isEmpty
p1226
tp1227
I11
s(Vinsert
p1228
I42
VSimpleName: name
p1229
tp1230
I15
s(Vinsert
p1231
I42
VSimpleName: sentinelSlaves
p1232
tp1233
I1
s(Vinsert
p1234
I42
VSimpleName: k
p1235
tp1236
I1
s(Vinsert
p1237
I42
VSimpleName: ByteArrayOutputStream
p1238
tp1239
I1
s(Vinsert
p1240
I42
VSimpleName: unit
p1241
tp1242
I2
s(Vinsert
p1243
I42
VSimpleName: j1
p1244
tp1245
I1
s(Vinsert
p1246
I42
VSimpleName: shard
p1247
tp1248
I9
s(Vinsert
p1249
I42
VSimpleName: pipelined
p1250
tp1251
I11
s(Vinsert
p1252
I40
VQualifiedName: Protocol.CLUSTER_SETSLOT
p1253
tp1254
I1
s(Vinsert
p1255
I42
VSimpleName: GeoRadiusParam
p1256
tp1257
I1
s(Vinsert
p1258
I42
VSimpleName: sets
p1259
tp1260
I1
s(Vinsert
p1261
I43
VSimpleType: Iterator
p1262
tp1263
I5
s(Vinsert
p1264
I42
VSimpleName: sslParameters
p1265
tp1266
I4
s(Vinsert
p1267
I42
VSimpleName: sentinels
p1268
tp1269
I5
s(Vinsert
p1270
I42
VSimpleName: setAccessible
p1271
tp1272
I1
s(Vinsert
p1273
I42
VSimpleName: EMPTY_ARGS
p1274
tp1275
I1
s(Vinsert
p1276
I5
VArrayType: String[]
p1277
tp1278
I12
s(Vinsert
p1279
I42
VSimpleName: keySlot
p1280
tp1281
I2
s(Vinsert
p1282
I74
VParameterizedType: List<Module>
p1283
tp1284
I2
s(Vinsert
p1285
I42
VSimpleName: onMessage
p1286
tp1287
I1
s(Vinsert
p1288
I42
VSimpleName: rpushx
p1289
tp1290
I4
s(Vinsert
p1291
I42
VSimpleName: encodeMany
p1292
tp1293
I1
s(Vinsert
p1294
I45
VStringLiteral: "foo1"
p1295
tp1296
I4
s(Vinsert
p1297
I42
VSimpleName: SCAN_POINTER_START
p1298
tp1299
I3
s(Vinsert
p1300
I27
VInfixExpression: ==
p1301
tp1302
I28
s(Vinsert
p1303
I42
VSimpleName: r2
p1304
tp1305
I2
s(Vinsert
p1306
I9
VBooleanLiteral: true
p1307
tp1308
I11
s(Vinsert
p1309
I45
VStringLiteral: "somekey"
p1310
tp1311
I1
s(Vinsert
p1312
I58
VVariableDeclarationExpression
p1313
tp1314
I5
s(Vinsert
p1315
I42
VSimpleName: sentinelGetMasterAddrByName
p1316
tp1317
I1
s(Vinsert
p1318
I7
VAssignment: *=
p1319
tp1320
I1
s(Vinsert
p1321
I42
VSimpleName: count
p1322
tp1323
I33
s(Vinsert
p1324
I42
VSimpleName: zcount
p1325
tp1326
I6
s(Vinsert
p1327
I5
VArrayType: Jedis[]
p1328
tp1329
I1
s(Vinsert
p1330
I42
VSimpleName: hincrByFloat
p1331
tp1332
I8
s(Vinsert
p1333
I42
VSimpleName: testGetSlot
p1334
tp1335
I1
s(Vinsert
p1336
I43
VSimpleType: HostnameVerifier
p1337
tp1338
I1
s(Vinsert
p1339
I34
VNumberLiteral: 65432
p1340
tp1341
I1
s(Vinsert
p1342
I42
VSimpleName: startsWith
p1343
tp1344
I3
s(Vinsert
p1345
I43
VSimpleType: BitPosParams
p1346
tp1347
I4
s(Vinsert
p1348
I42
VSimpleName: s1
p1349
tp1350
I1
s(Vinsert
p1351
I74
VParameterizedType: LinkedHashSet<Tuple>
p1352
tp1353
I1
s(Vinsert
p1354
I42
VSimpleName: floorEntry
p1355
tp1356
I1
s(Vinsert
p1357
I42
VSimpleName: checkCloseable
p1358
tp1359
I1
s(Vinsert
p1360
I74
VParameterizedType: List<byte[]>
p1361
tp1362
I3
s(Vinsert
p1363
I42
VSimpleName: addAvailableSlot
p1364
tp1365
I1
s(Vinsert
p1366
I42
VSimpleName: fill
p1367
tp1368
I1
s(Vinsert
p1369
I39
VPrimitiveType: double
p1370
tp1371
I32
s(Vinsert
p1372
I42
VSimpleName: properties
p1373
tp1374
I2
s(Vinsert
p1375
I42
VSimpleName: trans
p1376
tp1377
I2
s(Vinsert
p1378
I43
VSimpleType: Keyword
p1379
tp1380
I1
s(Vinsert
p1381
I42
VSimpleName: slaveJedis2
p1382
tp1383
I2
s(Vinsert
p1384
I42
VSimpleName: integer
p1385
tp1386
I2
s(Vinsert
p1387
I34
VNumberLiteral: 0x06
p1388
tp1389
I1
s(Vinsert
p1390
I74
VParameterizedType: List<Object>
p1391
tp1392
I12
s(Vinsert
p1393
I45
VStringLiteral: "foo{{bar}}zap"
p1394
tp1395
I1
s(Vinsert
p1396
I42
VSimpleName: jedisPubSub
p1397
tp1398
I1
s(Vinsert
p1399
I42
VSimpleName: LinkedHashSet
p1400
tp1401
I6
s(Vinsert
p1402
I42
VSimpleName: testAddObject
p1403
tp1404
I1
s(Vinsert
p1405
I43
VSimpleType: Module
p1406
tp1407
I3
s(Vinsert
p1408
I74
VParameterizedType: Response<List<Object>>
p1409
tp1410
I1
s(Vinsert
p1411
I43
VSimpleType: JedisException
p1412
tp1413
I20
s(Vinsert
p1414
I42
VSimpleName: JedisFactory
p1415
tp1416
I1
s(Vinsert
p1417
I42
VSimpleName: JedisClusterHashTagUtil
p1418
tp1419
I2
s(Vinsert
p1420
I34
VNumberLiteral: 0xFF
p1421
tp1422
I1
s(Vinsert
p1423
I42
VSimpleName: bfoo3
p1424
tp1425
I2
s(Vinsert
p1426
I42
VSimpleName: all
p1427
tp1428
I2
s(Vinsert
p1429
I43
VSimpleType: PooledObject
p1430
tp1431
I4
s(Vinsert
p1432
I42
VSimpleName: connectionPool
p1433
tp1434
I3
s(Vinsert
p1435
I43
VSimpleType: Client
p1436
tp1437
I10
s(Vinsert
p1438
I42
VSimpleName: jedisClusterNode
p1439
tp1440
I16
s(Vinsert
p1441
I34
VNumberLiteral: 6380
p1442
tp1443
I4
s(Vinsert
p1444
I42
VSimpleName: getInstance
p1445
tp1446
I4
s(Vinsert
p1447
I42
VSimpleName: availableSlots
p1448
tp1449
I1
s(Vinsert
p1450
I42
VSimpleName: exp
p1451
tp1452
I2
s(Vinsert
p1453
I42
VSimpleName: result
p1454
tp1455
I19
s(Vinsert
p1456
I42
VSimpleName: returnResource
p1457
tp1458
I5
s(Vinsert
p1459
I9
VBooleanLiteral: false
p1460
tp1461
I10
s(Vinsert
p1462
I42
VSimpleName: slot2
p1463
tp1464
I1
s(Vinsert
p1465
I42
VSimpleName: assertTrue
p1466
tp1467
I9
s(Vinsert
p1468
I42
VSimpleName: range
p1469
tp1470
I1
s(Vinsert
p1471
I42
VSimpleName: unwatch
p1472
tp1473
I1
s(Vinsert
p1474
I42
VSimpleName: error
p1475
tp1476
I1
s(Vinsert
p1477
I42
VSimpleName: slotInfo
p1478
tp1479
I1
s(Vinsert
p1480
I83
VModifier: volatile
p1481
tp1482
I1
s(Vinsert
p1483
I65
VTagElement
p1484
tp1485
I1
s(Vinsert
p1486
I42
VSimpleName: clientInfo
p1487
tp1488
I1
s(Vinsert
p1489
I42
VSimpleName: georadius
p1490
tp1491
I2
s(Vinsert
p1492
I42
VSimpleName: px
p1493
tp1494
I1
s(Vinsert
p1495
I42
VSimpleName: Closeable
p1496
tp1497
I3
s(Vinsert
p1498
I40
VQualifiedName: values.length
p1499
tp1500
I1
s(Vinsert
p1501
I45
VStringLiteral: "Can't use jedis instance when in Pipeline"
p1502
tp1503
I1
s(Vinsert
p1504
I40
VQualifiedName: defaulthnp6.host
p1505
tp1506
I1
s(Vinsert
p1507
I34
VNumberLiteral: 0x6C
p1508
tp1509
I2
s(Vinsert
p1510
I42
VSimpleName: st
p1511
tp1512
I2
s(Vinsert
p1513
I42
VSimpleName: JedisClusterCommand
p1514
tp1515
I1
s(Vinsert
p1516
I42
VSimpleName: bkeys
p1517
tp1518
I3
s(Vinsert
p1519
I43
VSimpleType: ShardedJedisPipeline
p1520
tp1521
I4
s(Vinsert
p1522
I42
VSimpleName: Pipeline
p1523
tp1524
I3
s(Vinsert
p1525
I74
VParameterizedType: PooledObject<ShardedJedis>
p1526
tp1527
I2
s(Vinsert
p1528
I34
VNumberLiteral: 0x65
p1529
tp1530
I1
s(Vinsert
p1531
I42
VSimpleName: configSet
p1532
tp1533
I8
s(Vinsert
p1534
I45
VStringLiteral: "3"
p1535
tp1536
I1
s(Vinsert
p1537
I43
VSimpleType: SSLSocketFactory
p1538
tp1539
I4
s(Vinsert
p1540
I42
VSimpleName: attempts
p1541
tp1542
I1
s(Vinsert
p1543
I42
VSimpleName: getConnectionFromSlot
p1544
tp1545
I4
s(Vinsert
p1546
I42
VSimpleName: flushBuffer
p1547
tp1548
I1
s(Vinsert
p1549
I42
VSimpleName: t4
p1550
tp1551
I1
s(Vinsert
p1552
I42
VSimpleName: clusterOk
p1553
tp1554
I2
s(Vinsert
p1555
I42
VSimpleName: milliseconds
p1556
tp1557
I4
s(Vinsert
p1558
I42
VSimpleName: isCompleteIteration
p1559
tp1560
I2
s(Vinsert
p1561
I42
VSimpleName: slotNums
p1562
tp1563
I1
s(Vinsert
p1564
I34
VNumberLiteral: 11
p1565
tp1566
I2
s(Vinsert
p1567
I42
VSimpleName: doubleValue
p1568
tp1569
I1
s(Vinsert
p1570
I42
VSimpleName: nodeInfo2
p1571
tp1572
I3
s(Vinsert
p1573
I42
VSimpleName: NOT
p1574
tp1575
I1
s(Vinsert
p1576
I40
VQualifiedName: Keyword.XOR
p1577
tp1578
I1
s(Vinsert
p1579
I45
VStringLiteral: "{user1000}.following"
p1580
tp1581
I2
s(Vinsert
p1582
I42
VSimpleName: BinaryJedis
p1583
tp1584
I10
s(Vinsert
p1585
I42
VSimpleName: subscribedChannels
p1586
tp1587
I3
s(Vinsert
p1588
I42
VSimpleName: sortedSet
p1589
tp1590
I1
s(Vinsert
p1591
I34
VNumberLiteral: 10.7d
p1592
tp1593
I1
s(Vinsert
p1594
I42
VSimpleName: toArray
p1595
tp1596
I6
s(Vinsert
p1597
I45
VStringLiteral: "ZREMRANGEBYSCORE"
p1598
tp1599
I1
s(Vinsert
p1600
I42
VSimpleName: nodeKey
p1601
tp1602
I1
s(Vinsert
p1603
I42
VSimpleName: node2Id
p1604
tp1605
I3
s(Vinsert
p1606
I43
VSimpleType: JedisDataException
p1607
tp1608
I5
s(Vinsert
p1609
I42
VSimpleName: password
p1610
tp1611
I9
s(Vinsert
p1612
I42
VSimpleName: containsKey
p1613
tp1614
I2
s(Vinsert
p1615
I40
VQualifiedName: redis.clients.jedis.exceptions.InvalidURIException
p1616
tp1617
I2
s(Vinsert
p1618
I42
VSimpleName: maxRedirections
p1619
tp1620
I1
s(Vinsert
p1621
I34
VNumberLiteral: 0
p1622
tp1623
I79
s(Vinsert
p1624
I42
VSimpleName: inputStream
p1625
tp1626
I1
s(Vinsert
p1627
I42
VSimpleName: getSimpleName
p1628
tp1629
I2
s(Vinsert
p1630
I42
VSimpleName: newEncoder
p1631
tp1632
I1
s(Vinsert
p1633
I43
VSimpleType: GeoCoordinate
p1634
tp1635
I4
s(Vinsert
p1636
I42
VSimpleName: append
p1637
tp1638
I8
s(Vinsert
p1639
I42
VSimpleName: bitfieldArgs
p1640
tp1641
I1
s(Vinsert
p1642
I42
VSimpleName: zrevrangeByLex
p1643
tp1644
I7
s(Vinsert
p1645
I42
VSimpleName: dataSource
p1646
tp1647
I3
s(Vinsert
p1648
I74
VParameterizedType: List<Boolean>
p1649
tp1650
I1
s(Vinsert
p1651
I70
VEnhancedForStatement
p1652
tp1653
I29
s(Vinsert
p1654
I42
VSimpleName: geopos
p1655
tp1656
I8
s(Vinsert
p1657
I74
VParameterizedType: Response<?>
p1658
tp1659
I3
s(Vinsert
p1660
I45
VStringLiteral: "set"
p1661
tp1662
I1
s(Vinsert
p1663
I42
VSimpleName: hmset
p1664
tp1665
I1
s(Vinsert
p1666
I42
VSimpleName: pattern
p1667
tp1668
I12
s(Vinsert
p1669
I42
VSimpleName: execute
p1670
tp1671
I42
s(Vinsert
p1672
I42
VSimpleName: connectWithShardInfoByIpAddress
p1673
tp1674
I1
s(Vinsert
p1675
I42
VSimpleName: moduleUnload
p1676
tp1677
I4
s(Vinsert
p1678
I42
VSimpleName: lpop
p1679
tp1680
I1
s(Vinsert
p1681
I42
VSimpleName: bout
p1682
tp1683
I3
s(Vinsert
p1684
I42
VSimpleName: lastsave
p1685
tp1686
I6
s(Vinsert
p1687
I42
VSimpleName: barray
p1688
tp1689
I1
s(Vinsert
p1690
I45
VStringLiteral: "foo"
p1691
tp1692
I48
s(Vinsert
p1693
I42
VSimpleName: clusterHostAndPortList
p1694
tp1695
I4
s(Vinsert
p1696
I42
VSimpleName: length
p1697
tp1698
I8
s(Vinsert
p1699
I42
VSimpleName: slot
p1700
tp1701
I12
s(Vinsert
p1702
I45
VStringLiteral: "(0.01"
p1703
tp1704
I1
s(Vinsert
p1705
I42
VSimpleName: getKeyTag
p1706
tp1707
I5
s(Vinsert
p1708
I42
VSimpleName: binaryJedis
p1709
tp1710
I3
s(Vinsert
p1711
I34
VNumberLiteral: 15000
p1712
tp1713
I1
s(Vinsert
p1714
I42
VSimpleName: bgsave
p1715
tp1716
I4
s(Vinsert
p1717
I42
VSimpleName: Boolean
p1718
tp1719
I1
s(Vinsert
p1720
I42
VSimpleName: join
p1721
tp1722
I1
s(Vinsert
p1723
I45
VStringLiteral: "test1"
p1724
tp1725
I1
s(Vinsert
p1726
I42
VSimpleName: begin
p1727
tp1728
I3
s(Vinsert
p1729
I43
VSimpleType: Transaction
p1730
tp1731
I4
s(Vinsert
p1732
I45
VStringLiteral: "LRANGE"
p1733
tp1734
I1
s(Vinsert
p1735
I40
VQualifiedName: redis.clients.jedis.Protocol.Keyword.GET
p1736
tp1737
I1
s(Vinsert
p1738
I42
VSimpleName: format
p1739
tp1740
I5
s(Vinsert
p1741
I34
VNumberLiteral: 7382
p1742
tp1743
I1
s(Vinsert
p1744
I27
VInfixExpression: >>>
p1745
tp1746
I1
s(Vinsert
p1747
I45
VStringLiteral: "LREM"
p1748
tp1749
I1
s(Vinsert
p1750
I42
VSimpleName: bttl
p1751
tp1752
I2
s(Vinsert
p1753
I42
VSimpleName: checkIsInMultiOrPipeline
p1754
tp1755
I17
s(Vinsert
p1756
I42
VSimpleName: Exception
p1757
tp1758
I13
s(Vinsert
p1759
I42
VSimpleName: clusterSetSlotMigrating
p1760
tp1761
I1
s(Vinsert
p1762
I43
VSimpleType: ShardInfo
p1763
tp1764
I9
s(Vinsert
p1765
I42
VSimpleName: encode
p1766
tp1767
I79
s(Vinsert
p1768
I74
VParameterizedType: Entry<Long,S>
p1769
tp1770
I1
s(Vinsert
p1771
I42
VSimpleName: shardedJedisPipeline
p1772
tp1773
I2
s(Vinsert
p1774
I42
VSimpleName: keysSize
p1775
tp1776
I1
s(Vinsert
p1777
I45
VStringLiteral: "c"
p1778
tp1779
I2
s(Vinsert
p1780
I42
VSimpleName: errorMessage
p1781
tp1782
I1
s(Vinsert
p1783
I42
VSimpleName: connectionHandler
p1784
tp1785
I17
s(Vinsert
p1786
I42
VSimpleName: ClusterNodeInformationParser
p1787
tp1788
I2
s(Vinsert
p1789
I43
VSimpleType: HostAndPort
p1790
tp1791
I33
s(Vinsert
p1792
I40
VQualifiedName: slave2.host
p1793
tp1794
I1
s(Vinsert
p1795
I42
VSimpleName: hostInfos
p1796
tp1797
I2
s(Vinsert
p1798
I42
VSimpleName: getByteParams
p1799
tp1800
I1
s(Vinsert
p1801
I42
VSimpleName: watch
p1802
tp1803
I2
s(Vinsert
p1804
I42
VSimpleName: start
p1805
tp1806
I12
s(Vinsert
p1807
I42
VSimpleName: createJedis
p1808
tp1809
I4
s(Vinsert
p1810
I42
VSimpleName: otherJedis
p1811
tp1812
I2
s(Vinsert
p1813
I42
VSimpleName: readLine
p1814
tp1815
I2
s(Vinsert
p1816
I42
VSimpleName: DOLLAR
p1817
tp1818
I2
s(Vinsert
p1819
I42
VSimpleName: settingPxWithExShouldNotBeAllowed
p1820
tp1821
I1
s(Vinsert
p1822
I42
VSimpleName: trim
p1823
tp1824
I1
s(Vinsert
p1825
I34
VNumberLiteral: 62
p1826
tp1827
I2
s(Vinsert
p1828
I43
VSimpleType: InterruptedException
p1829
tp1830
I2
s(Vinsert
p1831
I45
VStringLiteral: "return 'success!'"
p1832
tp1833
I1
s(Vinsert
p1834
I45
VStringLiteral: "hll_3"
p1835
tp1836
I1
s(Vinsert
p1837
I43
VSimpleType: Jedis
p1838
tp1839
I169
s(Vinsert
p1840
I42
VSimpleName: targetNode
p1841
tp1842
I2
s(Vinsert
p1843
I42
VSimpleName: llen
p1844
tp1845
I3
s(Vinsert
p1846
I42
VSimpleName: requestDependencyBuild
p1847
tp1848
I2
s(Vinsert
p1849
I42
VSimpleName: bScript
p1850
tp1851
I1
s(Vinsert
p1852
I40
VQualifiedName: Protocol.UTF8
p1853
tp1854
I10
s(Vinsert
p1855
I42
VSimpleName: soTimeout
p1856
tp1857
I2
s(Vinsert
p1858
I42
VSimpleName: resp
p1859
tp1860
I11
s(Vinsert
p1861
I42
VSimpleName: ssl
p1862
tp1863
I3
s(Vinsert
p1864
I43
VSimpleType: ThreadLocal
p1865
tp1866
I4
s(Vinsert
p1867
I42
VSimpleName: setEndpointIdentificationAlgorithm
p1868
tp1869
I1
s(Vinsert
p1870
I42
VSimpleName: sscan
p1871
tp1872
I8
s(Vinsert
p1873
I45
VStringLiteral: "QUEUED"
p1874
tp1875
I1
s(Vinsert
p1876
I42
VSimpleName: setTcpNoDelay
p1877
tp1878
I1
s(Vinsert
p1879
I42
VSimpleName: jc
p1880
tp1881
I13
s(Vinsert
p1882
I42
VSimpleName: onCommand
p1883
tp1884
I1
s(Vinsert
p1885
I42
VSimpleName: sb
p1886
tp1887
I7
s(Vinsert
p1888
I42
VSimpleName: ShardInfo
p1889
tp1890
I9
s(Vinsert
p1891
I45
VStringLiteral: "redis://:foobared@localhost:6379/"
p1892
tp1893
I1
s(Vinsert
p1894
I40
VQualifiedName: Long.MIN_VALUE
p1895
tp1896
I2
s(Vinsert
p1897
I66
VTextElement:  true if the iteration is complete
p1898
tp1899
I1
s(Vinsert
p1900
I43
VSimpleType: T
p1901
tp1902
I8
s(Vinsert
p1903
I45
VStringLiteral: " MD5 ops"
p1904
tp1905
I1
s(Vinsert
p1906
I42
VSimpleName: known
p1907
tp1908
I2
s(Vinsert
p1909
I42
VSimpleName: clusterNodeInfo
p1910
tp1911
I1
s(Vinsert
p1912
I42
VSimpleName: SSLParameters
p1913
tp1914
I3
s(Vinsert
p1915
I42
VSimpleName: create
p1916
tp1917
I2
s(Vinsert
p1918
I40
VQualifiedName: bsha1.length
p1919
tp1920
I1
s(Vinsert
p1921
I40
VQualifiedName: Protocol.DEFAULT_SENTINEL_PORT
p1922
tp1923
I1
s(Vinsert
p1924
I42
VSimpleName: Transaction
p1925
tp1926
I4
s(Vinsert
p1927
I13
VCharacterLiteral: '-'
p1928
tp1929
I1
s(Vinsert
p1930
I38
VPrefixExpression: -
p1931
tp1932
I15
s(Vinsert
p1933
I42
VSimpleName: JedisSentinelPool
p1934
tp1935
I3
s(Vinsert
p1936
I42
VSimpleName: pexpireAt
p1937
tp1938
I6
s(Vinsert
p1939
I45
VStringLiteral: "LINSERT"
p1940
tp1941
I1
s(Vinsert
p1942
I42
VSimpleName: field
p1943
tp1944
I10
s(Vinsert
p1945
I42
VSimpleName: psubscribe
p1946
tp1947
I1
s(Vinsert
p1948
I42
VSimpleName: getbit
p1949
tp1950
I6
s(Vinsert
p1951
I42
VSimpleName: multiBulkReply
p1952
tp1953
I1
s(Vinsert
p1954
I42
VSimpleName: getDeclaredMethod
p1955
tp1956
I1
s(Vinsert
p1957
I45
VStringLiteral: "myhash"
p1958
tp1959
I1
s(Vinsert
p1960
I74
VParameterizedType: Response<Set<String>>
p1961
tp1962
I1
s(Vinsert
p1963
I45
VStringLiteral: "Background append only file rewriting scheduled"
p1964
tp1965
I1
s(Vinsert
p1966
I85
VDimension
p1967
tp1968
I209
s(Vinsert
p1969
I42
VSimpleName: pttl
p1970
tp1971
I5
s(Vinsert
p1972
I42
VSimpleName: getStatusCodeReply
p1973
tp1974
I10
s(Vinsert
p1975
I42
VSimpleName: of
p1976
tp1977
I6
s(Vinsert
p1978
I42
VSimpleName: clientName
p1979
tp1980
I11
s(Vinsert
p1981
I42
VSimpleName: t1
p1982
tp1983
I4
s(Vinsert
p1984
I74
VParameterizedType: Iterator<Object>
p1985
tp1986
I1
s(Vinsert
p1987
I42
VSimpleName: sentinelHostAndPortList
p1988
tp1989
I1
s(Vinsert
p1990
I42
VSimpleName: ZAddParams
p1991
tp1992
I4
s(Vinsert
p1993
I42
VSimpleName: found
p1994
tp1995
I1
s(Vinsert
p1996
I42
VSimpleName: clusterCountKeysInSlot
p1997
tp1998
I3
s(Vinsert
p1999
I42
VSimpleName: is
p2000
tp2001
I5
s(Vinsert
p2002
I42
VSimpleName: GeoCoordinate
p2003
tp2004
I4
s(Vinsert
p2005
I74
VParameterizedType: List<Map<String,String>>
p2006
tp2007
I1
s(Vinsert
p2008
I34
VNumberLiteral: 20
p2009
tp2010
I1
s(Vinsert
p2011
I42
VSimpleName: hscan
p2012
tp2013
I1
s(Vinsert
p2014
I74
VParameterizedType: Map<Double,byte[]>
p2015
tp2016
I1
s(Vinsert
p2017
I42
VSimpleName: clientList
p2018
tp2019
I2
s(Vinsert
p2020
I42
VSimpleName: argsLength
p2021
tp2022
I1
s(Vinsert
p2023
I43
VSimpleType: PipedOutputStream
p2024
tp2025
I2
s(Vinsert
p2026
I42
VSimpleName: lset
p2027
tp2028
I1
s(Vinsert
p2029
I42
VSimpleName: max
p2030
tp2031
I20
s(Vinsert
p2032
I42
VSimpleName: element
p2033
tp2034
I3
s(Vinsert
p2035
I42
VSimpleName: done
p2036
tp2037
I4
s(Vinsert
p2038
I42
VSimpleName: auth
p2039
tp2040
I27
s(Vinsert
p2041
I42
VSimpleName: factory
p2042
tp2043
I4
s(Vinsert
p2044
I42
VSimpleName: incrReallyLargeNumbers
p2045
tp2046
I1
s(Vinsert
p2047
I78
VMarkerAnnotation
p2048
tp2049
I68
s(Vinsert
p2050
I42
VSimpleName: main
p2051
tp2052
I2
s(Vinsert
p2053
I42
VSimpleName: ShardedJedis
p2054
tp2055
I7
s(Vinsert
p2056
I42
VSimpleName: move
p2057
tp2058
I2
s(Vinsert
p2059
I42
VSimpleName: infoOutput
p2060
tp2061
I4
s(Vinsert
p2062
I42
VSimpleName: clientSetname
p2063
tp2064
I4
s(Vinsert
p2065
I45
VStringLiteral: "* resourcesReturned...:"
p2066
tp2067
I1
s(Vinsert
p2068
I40
VQualifiedName: Protocol.CLUSTER_RESET
p2069
tp2070
I1
s(Vinsert
p2071
I42
VSimpleName: sentinel2
p2072
tp2073
I1
s(Vinsert
p2074
I83
VModifier: public
p2075
tp2076
I164
s(Vinsert
p2077
I42
VSimpleName: getClientCount
p2078
tp2079
I1
s(Vinsert
p2080
I42
VSimpleName: sortBy
p2081
tp2082
I1
s(Vinsert
p2083
I40
VQualifiedName: BitOP.OR
p2084
tp2085
I1
s(Vinsert
p2086
I42
VSimpleName: exists
p2087
tp2088
I12
s(Vinsert
p2089
I42
VSimpleName: scan
p2090
tp2091
I3
s(Vinsert
p2092
I42
VSimpleName: getNodeKey
p2093
tp2094
I1
s(Vinsert
p2095
I42
VSimpleName: substring
p2096
tp2097
I1
s(Vinsert
p2098
I42
VSimpleName: hget
p2099
tp2100
I1
s(Vinsert
p2101
I42
VSimpleName: executor
p2102
tp2103
I1
s(Vinsert
p2104
I42
VSimpleName: p2
p2105
tp2106
I1
s(Vinsert
p2107
I45
VStringLiteral: "51"
p2108
tp2109
I1
s(Vinsert
p2110
I45
VStringLiteral: "Could not connect to redis-server"
p2111
tp2112
I1
s(Vinsert
p2113
I42
VSimpleName: sentinelJedis
p2114
tp2115
I1
s(Vinsert
p2116
I42
VSimpleName: connect
p2117
tp2118
I15
s(Vinsert
p2119
I34
VNumberLiteral: 10d
p2120
tp2121
I2
s(Vinsert
p2122
I42
VSimpleName: dval
p2123
tp2124
I1
s(Vinsert
p2125
I27
VInfixExpression: -
p2126
tp2127
I2
s(Vinsert
p2128
I42
VSimpleName: HostnameVerifier
p2129
tp2130
I1
s(Vinsert
p2131
I74
VParameterizedType: HashMap<ShardInfo<R>,R>
p2132
tp2133
I1
s(Vinsert
p2134
I42
VSimpleName: values
p2135
tp2136
I7
s(Vinsert
p2137
I42
VSimpleName: jedisList
p2138
tp2139
I2
s(Vinsert
p2140
I42
VSimpleName: pfmerge
p2141
tp2142
I2
s(Vinsert
p2143
I42
VSimpleName: channel
p2144
tp2145
I4
s(Vinsert
p2146
I42
VSimpleName: Thread
p2147
tp2148
I8
s(Vinsert
p2149
I42
VSimpleName: Integer
p2150
tp2151
I12
s(Vinsert
p2152
I42
VSimpleName: filterSetName
p2153
tp2154
I1
s(Vinsert
p2155
I42
VSimpleName: sp
p2156
tp2157
I2
s(Vinsert
p2158
I42
VSimpleName: getRandomConnection
p2159
tp2160
I2
s(Vinsert
p2161
I42
VSimpleName: bitfield
p2162
tp2163
I8
s(Vinsert
p2164
I34
VNumberLiteral: 10485760
p2165
tp2166
I1
s(Vinsert
p2167
I42
VSimpleName: localNodes
p2168
tp2169
I1
s(Vinsert
p2170
I42
VSimpleName: getAvailableSlots
p2171
tp2172
I1
s(Vinsert
p2173
I42
VSimpleName: getMemberByString
p2174
tp2175
I2
s(Vinsert
p2176
I43
VSimpleType: JedisShardInfo
p2177
tp2178
I14
s(Vinsert
p2179
I42
VSimpleName: scheduled
p2180
tp2181
I1
s(Vinsert
p2182
I42
VSimpleName: borrowObject
p2183
tp2184
I2
s(Vinsert
p2185
I4
VArrayInitializer
p2186
tp2187
I3
s(Vinsert
p2188
I40
VQualifiedName: slave2.port
p2189
tp2190
I1
s(Vinsert
p2191
I34
VNumberLiteral: 10.0
p2192
tp2193
I2
s(Vinsert
p2194
I42
VSimpleName: sentinelJedis2
p2195
tp2196
I1
s(Vinsert
p2197
I42
VSimpleName: poolConfig
p2198
tp2199
I7
s(Vinsert
p2200
I34
VNumberLiteral: 15
p2201
tp2202
I1
s(Vinsert
p2203
I42
VSimpleName: zinterstore
p2204
tp2205
I2
s(Vinsert
p2206
I42
VSimpleName: exit
p2207
tp2208
I2
s(Vinsert
p2209
I42
VSimpleName: destination
p2210
tp2211
I5
s(Vinsert
p2212
I42
VSimpleName: timeout
p2213
tp2214
I11
s(Vinsert
p2215
I42
VSimpleName: Map
p2216
tp2217
I8
s(Vinsert
p2218
I42
VSimpleName: objectIdletime
p2219
tp2220
I4
s(Vinsert
p2221
I42
VSimpleName: sortAlpha
p2222
tp2223
I1
s(Vinsert
p2224
I42
VSimpleName: sendCommand
p2225
tp2226
I23
s(Vinsert
p2227
I42
VSimpleName: bbar
p2228
tp2229
I6
s(Vinsert
p2230
I42
VSimpleName: pipelineDiscardShoudThrowJedisDataExceptionWhenNotInMulti
p2231
tp2232
I1
s(Vinsert
p2233
I42
VSimpleName: BitPosParams
p2234
tp2235
I6
s(Vinsert
p2236
I42
VSimpleName: System
p2237
tp2238
I9
s(Vinsert
p2239
I42
VSimpleName: clusterSetSlotNode
p2240
tp2241
I2
s(Vinsert
p2242
I42
VSimpleName: getrange
p2243
tp2244
I7
s(Vinsert
p2245
I42
VSimpleName: edis
p2246
tp2247
I1
s(Vinsert
p2248
I42
VSimpleName: blpop
p2249
tp2250
I1
s(Vinsert
p2251
I42
VSimpleName: discard
p2252
tp2253
I8
s(Vinsert
p2254
I42
VSimpleName: shardInfo2
p2255
tp2256
I1
s(Vinsert
p2257
I42
VSimpleName: socket
p2258
tp2259
I3
s(Vinsert
p2260
I24
VForStatement
p2261
tp2262
I7
s(Vinsert
p2263
I42
VSimpleName: Protocol
p2264
tp2265
I2
s(Vinsert
p2266
I40
VQualifiedName: redis.clients.jedis.exceptions.JedisConnectionException
p2267
tp2268
I1
s(Vinsert
p2269
I42
VSimpleName: node1
p2270
tp2271
I7
s(Vinsert
p2272
I42
VSimpleName: destKey
p2273
tp2274
I1
s(Vinsert
p2275
I42
VSimpleName: getResponse
p2276
tp2277
I4
s(Vinsert
p2278
I42
VSimpleName: str
p2279
tp2280
I2
s(Vinsert
p2281
I42
VSimpleName: targetNodeId
p2282
tp2283
I1
s(Vinsert
p2284
I42
VSimpleName: isBound
p2285
tp2286
I1
s(Vinsert
p2287
I42
VSimpleName: getMultiBulkReply
p2288
tp2289
I7
s(Vinsert
p2290
I42
VSimpleName: Keyword
p2291
tp2292
I2
s(Vinsert
p2293
I42
VSimpleName: runChecks
p2294
tp2295
I3
s(Vinsert
p2296
I42
VSimpleName: configResetStat
p2297
tp2298
I1
s(Vinsert
p2299
I42
VSimpleName: Slowlog
p2300
tp2301
I1
s(Vinsert
p2302
I42
VSimpleName: testEvalsha
p2303
tp2304
I1
s(Vinsert
p2305
I42
VSimpleName: bsize
p2306
tp2307
I1
s(Vinsert
p2308
I34
VNumberLiteral: 4
p2309
tp2310
I4
s(Vinsert
p2311
I45
VStringLiteral: " only supports SCAN commands with non-empty MATCH patterns"
p2312
tp2313
I2
s(Vinsert
p2314
I45
VStringLiteral: "\u005cr\u005cn"
p2315
tp2316
I1
s(Vinsert
p2317
I40
VQualifiedName: redis.clients.jedis.HostAndPort
p2318
tp2319
I2
s(Vinsert
p2320
I42
VSimpleName: broken
p2321
tp2322
I4
s(Vinsert
p2323
I42
VSimpleName: j
p2324
tp2325
I159
s(Vinsert
p2326
I43
VSimpleType: MessageDigest
p2327
tp2328
I1
s(Vinsert
p2329
I42
VSimpleName: getSlot
p2330
tp2331
I14
s(Vinsert
p2332
I48
VSuperMethodInvocation
p2333
tp2334
I3
s(Vinsert
p2335
I42
VSimpleName: Wrapper
p2336
tp2337
I1
s(Vinsert
p2338
I74
VParameterizedType: ScanResult<Tuple>
p2339
tp2340
I1
s(Vinsert
p2341
I40
VQualifiedName: fields.length
p2342
tp2343
I1
s(Vinsert
p2344
I42
VSimpleName: rawResults
p2345
tp2346
I1
s(Vinsert
p2347
I42
VSimpleName: srem
p2348
tp2349
I1
s(Vinsert
p2350
I42
VSimpleName: targetPool
p2351
tp2352
I1
s(Vinsert
p2353
I42
VSimpleName: testCloseableWithMulti
p2354
tp2355
I1
s(Vinsert
p2356
I42
VSimpleName: command
p2357
tp2358
I4
s(Vinsert
p2359
I40
VQualifiedName: Hashing.MURMURE_HASH
p2360
tp2361
I1
s(Vinsert
p2362
I45
VStringLiteral: "foo{bar}"
p2363
tp2364
I1
s(Vinsert
p2365
I42
VSimpleName: bargs
p2366
tp2367
I1
s(Vinsert
p2368
I42
VSimpleName: metrics
p2369
tp2370
I2
s(Vinsert
p2371
I42
VSimpleName: sentinelMonitor
p2372
tp2373
I2
s(Vinsert
p2374
I74
VParameterizedType: ArrayList<Object>
p2375
tp2376
I4
s(Vinsert
p2377
I43
VSimpleType: S
p2378
tp2379
I1
s(Vinsert
p2380
I42
VSimpleName: limit
p2381
tp2382
I2
s(Vinsert
p2383
I43
VSimpleType: InvalidURIException
p2384
tp2385
I3
s(Vinsert
p2386
I19
VDoStatement
p2387
tp2388
I2
s(Vinsert
p2389
I42
VSimpleName: validateWhenInMulti
p2390
tp2391
I1
s(Vinsert
p2392
I60
VVariableDeclarationStatement
p2393
tp2394
I288
s(Vinsert
p2395
I42
VSimpleName: shardInfo1
p2396
tp2397
I2
s(Vinsert
p2398
I42
VSimpleName: currentClientCount
p2399
tp2400
I1
s(Vinsert
p2401
I42
VSimpleName: lrange
p2402
tp2403
I4
s(Vinsert
p2404
I43
VSimpleType: ClusterNodeInformationParser
p2405
tp2406
I2
s(Vinsert
p2407
I42
VSimpleName: getResource
p2408
tp2409
I25
s(Vinsert
p2410
I42
VSimpleName: pfadd
p2411
tp2412
I8
s(Vinsert
p2413
I43
VSimpleType: Set
p2414
tp2415
I17
s(Vinsert
p2416
I42
VSimpleName: r3
p2417
tp2418
I2
s(Vinsert
p2419
I42
VSimpleName: bit
p2420
tp2421
I1
s(Vinsert
p2422
I42
VSimpleName: clusterSlots
p2423
tp2424
I3
s(Vinsert
p2425
I74
VParameterizedType: Iterator<byte[]>
p2426
tp2427
I4
s(Vinsert
p2428
I42
VSimpleName: Set
p2429
tp2430
I17
s(Vinsert
p2431
I42
VSimpleName: arguments
p2432
tp2433
I5
s(Vinsert
p2434
I22
VFieldAccess
p2435
tp2436
I34
s(Vinsert
p2437
I42
VSimpleName: quit
p2438
tp2439
I3
s(Vinsert
p2440
I42
VSimpleName: resultOr
p2441
tp2442
I1
s(Vinsert
p2443
I45
VStringLiteral: "-inf"
p2444
tp2445
I1
s(Vinsert
p2446
I42
VSimpleName: getDb
p2447
tp2448
I2
s(Vinsert
p2449
I42
VSimpleName: firstMapValue
p2450
tp2451
I1
s(Vinsert
p2452
I42
VSimpleName: SetFromList
p2453
tp2454
I5
s(Vinsert
p2455
I45
VStringLiteral: "SMEMBERS"
p2456
tp2457
I1
s(Vinsert
p2458
I43
VSimpleType: Map
p2459
tp2460
I8
s(Vinsert
p2461
I45
VStringLiteral: "barrr"
p2462
tp2463
I1
s(Vinsert
p2464
I42
VSimpleName: subscribe
p2465
tp2466
I1
s(Vinsert
p2467
I42
VSimpleName: pipelinedCommands
p2468
tp2469
I2
s(Vinsert
p2470
I42
VSimpleName: bpattern
p2471
tp2472
I3
s(Vinsert
p2473
I42
VSimpleName: conn
p2474
tp2475
I2
s(Vinsert
p2476
I5
VArrayType: Object[]
p2477
tp2478
I2
s(Vinsert
p2479
I45
VStringLiteral: "* resourcesProvided...:"
p2480
tp2481
I1
s(Vinsert
p2482
I42
VSimpleName: GenericObjectPoolConfig
p2483
tp2484
I6
s(Vinsert
p2485
I42
VSimpleName: String
p2486
tp2487
I364
s(Vinsert
p2488
I42
VSimpleName: Module
p2489
tp2490
I3
s(Vinsert
p2491
I42
VSimpleName: LIST_POSITION
p2492
tp2493
I1
s(Vinsert
p2494
I42
VSimpleName: After
p2495
tp2496
I2
s(Vinsert
p2497
I42
VSimpleName: bHll
p2498
tp2499
I1
s(Vinsert
p2500
I34
VNumberLiteral: 0x07
p2501
tp2502
I1
s(Vinsert
p2503
I42
VSimpleName: KeyMergeUtil
p2504
tp2505
I1
s(Vinsert
p2506
I42
VSimpleName: host
p2507
tp2508
I23
s(Vinsert
p2509
I45
VStringLiteral: "+inf"
p2510
tp2511
I2
s(Vinsert
p2512
I42
VSimpleName: entrySet
p2513
tp2514
I3
s(Vinsert
p2515
I42
VSimpleName: buildCommand
p2516
tp2517
I1
s(Vinsert
p2518
I43
VSimpleType: JedisCluster
p2519
tp2520
I15
s(Vinsert
p2521
I42
VSimpleName: that
p2522
tp2523
I1
s(Vinsert
p2524
I42
VSimpleName: c
p2525
tp2526
I14
s(Vinsert
p2527
I42
VSimpleName: Method
p2528
tp2529
I1
s(Vinsert
p2530
I34
VNumberLiteral: 0.0
p2531
tp2532
I1
s(Vinsert
p2533
I42
VSimpleName: SafeEncoder
p2534
tp2535
I64
s(Vinsert
p2536
I42
VSimpleName: equalsIgnoreCase
p2537
tp2538
I3
s(Vinsert
p2539
I42
VSimpleName: HostAndPortUtil
p2540
tp2541
I3
s(Vinsert
p2542
I42
VSimpleName: zrangebyscoreWithScores
p2543
tp2544
I1
s(Vinsert
p2545
I42
VSimpleName: sentinelReset
p2546
tp2547
I1
s(Vinsert
p2548
I25
VIfStatement
p2549
tp2550
I81
s(Vinsert
p2551
I42
VSimpleName: ASTERISK
p2552
tp2553
I1
s(Vinsert
p2554
I42
VSimpleName: md5Holder
p2555
tp2556
I2
s(Vinsert
p2557
I45
VStringLiteral: "key"
p2558
tp2559
I1
s(Vinsert
p2560
I34
VNumberLiteral: 1L
p2561
tp2562
I3
s(Vinsert
p2563
I42
VSimpleName: firstObj
p2564
tp2565
I1
s(Vinsert
p2566
I45
VStringLiteral: "masterauth"
p2567
tp2568
I1
s(Vinsert
p2569
I42
VSimpleName: returnKeyOnAbsence
p2570
tp2571
I1
s(Vinsert
p2572
I42
VSimpleName: getBulkReply
p2573
tp2574
I2
s(Vinsert
p2575
I42
VSimpleName: envPort
p2576
tp2577
I5
s(Vinsert
p2578
I42
VSimpleName: Reset
p2579
tp2580
I2
s(Vinsert
p2581
I42
VSimpleName: setDependency
p2582
tp2583
I1
s(Vinsert
p2584
I42
VSimpleName: zadd
p2585
tp2586
I23
s(Vinsert
p2587
I42
VSimpleName: getDB
p2588
tp2589
I7
s(Vinsert
p2590
I74
VParameterizedType: Set<String>
p2591
tp2592
I6
s(Vinsert
p2593
I42
VSimpleName: bgrewriteaof
p2594
tp2595
I6
s(Vinsert
p2596
I42
VSimpleName: stringHostAndPort
p2597
tp2598
I1
s(Vinsert
p2599
I38
VPrefixExpression: !
p2600
tp2601
I11
s(Vinsert
p2602
I43
VSimpleType: ScanResult
p2603
tp2604
I7
s(Vinsert
p2605
I40
VQualifiedName: Protocol.CLUSTER_ADDSLOTS
p2606
tp2607
I1
s(Vinsert
p2608
I42
VSimpleName: merge
p2609
tp2610
I1
s(Vinsert
p2611
I42
VSimpleName: flatHash
p2612
tp2613
I4
s(Vinsert
p2614
I45
VStringLiteral: "baz"
p2615
tp2616
I1
s(Vinsert
p2617
I45
VStringLiteral: "C"
p2618
tp2619
I1
s(Vinsert
p2620
I40
VQualifiedName: redis.clients.jedis.Protocol.Keyword.LIMIT
p2621
tp2622
I1
s(Vinsert
p2623
I42
VSimpleName: resources
p2624
tp2625
I2
s(Vinsert
p2626
I42
VSimpleName: getShuffledNodesPool
p2627
tp2628
I1
s(Vinsert
p2629
I74
VParameterizedType: ArrayList<>
p2630
tp2631
I1
s(Vinsert
p2632
I42
VSimpleName: pool
p2633
tp2634
I39
s(Vinsert
p2635
I42
VSimpleName: indexOf
p2636
tp2637
I1
s(Vinsert
p2638
I42
VSimpleName: random
p2639
tp2640
I2
s(Vinsert
p2641
I42
VSimpleName: InvalidURIException
p2642
tp2643
I3
s(Vinsert
p2644
I34
VNumberLiteral: 10
p2645
tp2646
I1
s(Vinsert
p2647
I42
VSimpleName: slowlogGetBinary
p2648
tp2649
I2
s(Vinsert
p2650
I74
VParameterizedType: ScanResult<String>
p2651
tp2652
I3
s(Vinsert
p2653
I66
VTextElement:  the SortingParams Object
p2654
tp2655
I1
s(Vinsert
p2656
I42
VSimpleName: pexpire
p2657
tp2658
I6
s(Vinsert
p2659
I42
VSimpleName: builder
p2660
tp2661
I1
s(Vinsert
p2662
I45
VStringLiteral: "pipelined2"
p2663
tp2664
I1
s(Vinsert
p2665
I42
VSimpleName: increment
p2666
tp2667
I2
s(Vinsert
p2668
I42
VSimpleName: checkConvertHost
p2669
tp2670
I1
s(Vinsert
p2671
I40
VQualifiedName: BuilderFactory.DOUBLE
p2672
tp2673
I1
s(Vinsert
p2674
I42
VSimpleName: sourcekeys
p2675
tp2676
I1
s(Vinsert
p2677
I42
VSimpleName: testResetStateWhenInPipeline
p2678
tp2679
I1
s(Vinsert
p2680
I42
VSimpleName: COMMAND_DELIMITER
p2681
tp2682
I4
s(Vinsert
p2683
I42
VSimpleName: strLen
p2684
tp2685
I1
s(Vinsert
p2686
I42
VSimpleName: pooledShardedJedis
p2687
tp2688
I2
s(Vinsert
p2689
I42
VSimpleName: StringBuilder
p2690
tp2691
I1
s(Vinsert
p2692
I43
VSimpleType: List
p2693
tp2694
I56
s(Vinsert
p2695
I42
VSimpleName: shards
p2696
tp2697
I18
s(Vinsert
p2698
I45
VStringLiteral: "Cannot connect to sentinel running @ "
p2699
tp2700
I1
s(Vinsert
p2701
I34
VNumberLiteral: 3
p2702
tp2703
I13
s(Vinsert
p2704
I45
VStringLiteral: "DECRBY"
p2705
tp2706
I1
s(Vinsert
p2707
I42
VSimpleName: breducedLog
p2708
tp2709
I2
s(Vinsert
p2710
I43
VSimpleType: CharsetEncoder
p2711
tp2712
I2
s(Vinsert
p2713
I74
VParameterizedType: Response<List<Module>>
p2714
tp2715
I1
s(Vinsert
p2716
I42
VSimpleName: getKey
p2717
tp2718
I2
s(Vinsert
p2719
I42
VSimpleName: JedisCommandTestBase
p2720
tp2721
I1
s(Vinsert
p2722
I43
VSimpleType: Pipeline
p2723
tp2724
I2
s(Vinsert
p2725
I42
VSimpleName: setKeepAlive
p2726
tp2727
I1
s(Vinsert
p2728
I42
VSimpleName: clusterGetKeysInSlot
p2729
tp2730
I2
s(Vinsert
p2731
I42
VSimpleName: getExpx
p2732
tp2733
I1
s(Vinsert
p2734
I42
VSimpleName: moduleList
p2735
tp2736
I3
s(Vinsert
p2737
I45
VStringLiteral: "redis-port"
p2738
tp2739
I1
s(Vinsert
p2740
I42
VSimpleName: MessageDigest
p2741
tp2742
I2
s(Vinsert
p2743
I42
VSimpleName: messageInfo
p2744
tp2745
I1
s(Vinsert
p2746
I40
VQualifiedName: args.length
p2747
tp2748
I1
s(Vinsert
p2749
I43
VSimpleType: BinaryJedisPubSub
p2750
tp2751
I1
s(Vinsert
p2752
I43
VSimpleType: ByteArrayInputStream
p2753
tp2754
I2
s(Vinsert
p2755
I43
VSimpleType: Integer
p2756
tp2757
I7
s(Vinsert
p2758
I42
VSimpleName: select
p2759
tp2760
I12
s(Vinsert
p2761
I42
VSimpleName: ZParams
p2762
tp2763
I1
s(Vinsert
p2764
I42
VSimpleName: testBinaryGetAndSet
p2765
tp2766
I1
s(Vinsert
p2767
I74
VParameterizedType: Set<byte[]>
p2768
tp2769
I1
s(Vinsert
p2770
I42
VSimpleName: Matcher
p2771
tp2772
I1
s(Vinsert
p2773
I54
VTryStatement
p2774
tp2775
I31
s(Vinsert
p2776
I74
VParameterizedType: List<Long>
p2777
tp2778
I3
s(Vinsert
p2779
I42
VSimpleName: algo
p2780
tp2781
I1
s(Vinsert
p2782
I42
VSimpleName: os
p2783
tp2784
I3
s(Vinsert
p2785
I43
VSimpleType: IOException
p2786
tp2787
I7
s(Vinsert
p2788
I45
VStringLiteral: "*"
p2789
tp2790
I1
s(Vinsert
p2791
I42
VSimpleName: multiBlockWithErrorRedisForceToExecuteAllCommands
p2792
tp2793
I1
s(Vinsert
p2794
I42
VSimpleName: hnp
p2795
tp2796
I17
s(Vinsert
p2797
I43
VSimpleType: TimeoutException
p2798
tp2799
I1
s(Vinsert
p2800
I42
VSimpleName: clear
p2801
tp2802
I1
s(Vinsert
p2803
I42
VSimpleName: Object
p2804
tp2805
I34
s(Vinsert
p2806
I40
VQualifiedName: defaulthnp6.port
p2807
tp2808
I1
s(Vinsert
p2809
I42
VSimpleName: pis
p2810
tp2811
I1
s(Vinsert
p2812
I45
VStringLiteral: "unchecked"
p2813
tp2814
I3
s(Vinsert
p2815
I42
VSimpleName: pubSubNumPat
p2816
tp2817
I3
s(Vinsert
p2818
I45
VStringLiteral: "Sentinel's master is not yet changed, sleep..."
p2819
tp2820
I1
s(Vinsert
p2821
I40
VQualifiedName: System.out
p2822
tp2823
I3
s(Vinsert
p2824
I42
VSimpleName: entry
p2825
tp2826
I1
s(Vinsert
p2827
I34
VNumberLiteral: 7383
p2828
tp2829
I1
s(Vinsert
p2830
I42
VSimpleName: jre
p2831
tp2832
I2
s(Vinsert
p2833
I42
VSimpleName: ZRANGEBYSCORE
p2834
tp2835
I1
s(Vinsert
p2836
I42
VSimpleName: strlen
p2837
tp2838
I6
s(Vinsert
p2839
I43
VSimpleType: Protocol
p2840
tp2841
I2
s(Vinsert
p2842
I45
VStringLiteral: "*4\u005cr\u005cn$3\u005cr\u005cnfoo\u005cr\u005cn$13\u005cr\u005cnbarbarbarfooz\u005cr\u005cn$5\u005cr\u005cnHello\u005cr\u005cn$5\u005cr\u005cnWorld\u005cr\u005cn"
p2843
tp2844
I1
s(Vinsert
p2845
I42
VSimpleName: source
p2846
tp2847
I5
s(Vinsert
p2848
I45
VStringLiteral: "s"
p2849
tp2850
I1
s(Vinsert
p2851
I45
VStringLiteral: "return {redis.call('hget',KEYS[1],ARGV[1]),redis.call('hget',KEYS[2],ARGV[2])}"
p2852
tp2853
I1
s(Vinsert
p2854
I42
VSimpleName: zrangeByScore
p2855
tp2856
I4
s(Vinsert
p2857
I36
VParenthesizedExpression
p2858
tp2859
I11
s(Vinsert
p2860
I42
VSimpleName: ByteBuffer
p2861
tp2862
I1
s(Vinsert
p2863
I52
VThisExpression
p2864
tp2865
I42
s(Vinsert
p2866
I42
VSimpleName: checkIsInMulti
p2867
tp2868
I41
s(Vinsert
p2869
I43
VSimpleType: Logger
p2870
tp2871
I1
s(Vinsert
p2872
I42
VSimpleName: incrBy
p2873
tp2874
I1
s(Vinsert
p2875
I74
VParameterizedType: List<JedisPool>
p2876
tp2877
I1
s(Vinsert
p2878
I45
VStringLiteral: "string"
p2879
tp2880
I1
s(Vinsert
p2881
I45
VStringLiteral: "bar1"
p2882
tp2883
I2
s(Vinsert
p2884
I42
VSimpleName: match
p2885
tp2886
I4
s(Vinsert
p2887
I42
VSimpleName: clients
p2888
tp2889
I1
s(Vinsert
p2890
I42
VSimpleName: fail
p2891
tp2892
I2
s(Vinsert
p2893
I42
VSimpleName: serializedValue
p2894
tp2895
I3
s(Vinsert
p2896
I42
VSimpleName: ros
p2897
tp2898
I1
s(Vinsert
p2899
I42
VSimpleName: Response
p2900
tp2901
I39
s(Vinsert
p2902
I42
VSimpleName: Arrays
p2903
tp2904
I7
s(Vinsert
p2905
I43
VSimpleType: JedisClusterInfoCache
p2906
tp2907
I2
s(Vinsert
p2908
I42
VSimpleName: listWithItem
p2909
tp2910
I1
s(Vinsert
p2911
I42
VSimpleName: getTimeInMillis
p2912
tp2913
I2
s(Vinsert
p2914
I42
VSimpleName: getPipelinedResponseLength
p2915
tp2916
I1
s(Vinsert
p2917
I43
VSimpleType: JedisNoReachableClusterNodeException
p2918
tp2919
I1
s(Vinsert
p2920
I42
VSimpleName: getResult
p2921
tp2922
I2
s(Vinsert
p2923
I42
VSimpleName: generateHostAndPort
p2924
tp2925
I1
s(Vinsert
p2926
I42
VSimpleName: iterator
p2927
tp2928
I14
s(Vinsert
p2929
I42
VSimpleName: s
p2930
tp2931
I2
s(Vinsert
p2932
I42
VSimpleName: scriptEvalShaReturnNullValues
p2933
tp2934
I1
s(Vinsert
p2935
I42
VSimpleName: HashMap
p2936
tp2937
I5
s(Vinsert
p2938
I42
VSimpleName: refcount
p2939
tp2940
I1
s(Vinsert
p2941
I42
VSimpleName: sdiff
p2942
tp2943
I4
s(Vinsert
p2944
I42
VSimpleName: params
p2945
tp2946
I42
s(Vinsert
p2947
I42
VSimpleName: getTestOnBorrow
p2948
tp2949
I1
s(Vinsert
p2950
I42
VSimpleName: SSLSocketFactory
p2951
tp2952
I6
s(Vinsert
p2953
I83
VModifier: final
p2954
tp2955
I157
s(Vinsert
p2956
I40
VQualifiedName: dependency.built
p2957
tp2958
I1
s(Vinsert
p2959
I83
VModifier: static
p2960
tp2961
I5
s(Vinsert
p2962
I42
VSimpleName: toString
p2963
tp2964
I9
s(Vinsert
p2965
I42
VSimpleName: noNullsList
p2966
tp2967
I2
s(Vinsert
p2968
I42
VSimpleName: getResourcesProvided
p2969
tp2970
I1
s(Vinsert
p2971
I42
VSimpleName: pool0
p2972
tp2973
I2
s(Vinsert
p2974
I42
VSimpleName: close
p2975
tp2976
I18
s(Vinsert
p2977
I42
VSimpleName: scard
p2978
tp2979
I2
s(Vinsert
p2980
I45
VStringLiteral: "(c"
p2981
tp2982
I1
s(Vinsert
p2983
I45
VStringLiteral: "\u005cn"
p2984
tp2985
I3
s(Vinsert
p2986
I42
VSimpleName: Connection
p2987
tp2988
I1
s(Vinsert
p2989
I42
VSimpleName: contains
p2990
tp2991
I8
s(Vinsert
p2992
I42
VSimpleName: Deprecated
p2993
tp2994
I2
s(Vinsert
p2995
I37
VPostfixExpression: ++
p2996
tp2997
I31
s(Vinsert
p2998
I42
VSimpleName: destroy
p2999
tp3000
I4
s(Vinsert
p3001
I40
VQualifiedName: BuilderFactory.STRING
p3002
tp3003
I2
s(Vinsert
p3004
I74
VParameterizedType: List<Slowlog>
p3005
tp3006
I1
s(Vinsert
p3007
I74
VParameterizedType: ShardInfo<R>
p3008
tp3009
I1
s(Vinsert
p3010
I42
VSimpleName: tagPattern
p3011
tp3012
I1
s(Vinsert
p3013
I40
VQualifiedName: hnp.host
p3014
tp3015
I4
s(Vinsert
p3016
I42
VSimpleName: testEvalNestedListsWithBinary
p3017
tp3018
I1
s(Vinsert
p3019
I42
VSimpleName: replicas
p3020
tp3021
I1
s(Vinsert
p3022
I42
VSimpleName: publish
p3023
tp3024
I11
s(Vinsert
p3025
I45
VStringLiteral: "jedis"
p3026
tp3027
I1
s(Vinsert
p3028
I42
VSimpleName: dstkey
p3029
tp3030
I11
s(Vinsert
p3031
I42
VSimpleName: bresult
p3032
tp3033
I2
s(Vinsert
p3034
I42
VSimpleName: t2
p3035
tp3036
I2
s(Vinsert
p3037
I42
VSimpleName: returnBrokenConnection
p3038
tp3039
I1
s(Vinsert
p3040
I42
VSimpleName: entries
p3041
tp3042
I1
s(Vinsert
p3043
I42
VSimpleName: key4
p3044
tp3045
I1
s(Vinsert
p3046
I42
VSimpleName: ba
p3047
tp3048
I1
s(Vinsert
p3049
I42
VSimpleName: started
p3050
tp3051
I1
s(Vinsert
p3052
I34
VNumberLiteral: 4000
p3053
tp3054
I1
s(Vinsert
p3055
I74
VParameterizedType: List<Integer>
p3056
tp3057
I1
s(Vinsert
p3058
I7
VAssignment: =
p3059
tp3060
I119
s(Vinsert
p3061
I42
VSimpleName: slot51
p3062
tp3063
I2
s(Vinsert
p3064
I42
VSimpleName: buildDouble
p3065
tp3066
I1
s(Vinsert
p3067
I43
VSimpleType: TestConnection
p3068
tp3069
I2
s(Vinsert
p3070
I45
VStringLiteral: "-"
p3071
tp3072
I1
s(Vinsert
p3073
I45
VStringLiteral: "SADD"
p3074
tp3075
I1
s(Vinsert
p3076
I42
VSimpleName: getKeysDifferentShard
p3077
tp3078
I1
s(Vinsert
p3079
I43
VSimpleType: SortingParams
p3080
tp3081
I9
s(Vinsert
p3082
I42
VSimpleName: TestConnection
p3083
tp3084
I2
s(Vinsert
p3085
I42
VSimpleName: rename
p3086
tp3087
I1
s(Vinsert
p3088
I42
VSimpleName: bBar
p3089
tp3090
I1
s(Vinsert
p3091
I42
VSimpleName: getLogger
p3092
tp3093
I2
s(Vinsert
p3094
I74
VParameterizedType: Response<List<String>>
p3095
tp3096
I1
s(Vinsert
p3097
I42
VSimpleName: tagClient
p3098
tp3099
I2
s(Vinsert
p3100
I42
VSimpleName: getClusterServers
p3101
tp3102
I2
s(Vinsert
p3103
I42
VSimpleName: section
p3104
tp3105
I1
s(Vinsert
p3106
I42
VSimpleName: sha
p3107
tp3108
I1
s(Vinsert
p3109
I42
VSimpleName: channels
p3110
tp3111
I1
s(Vinsert
p3112
I42
VSimpleName: getShard
p3113
tp3114
I67
s(Vinsert
p3115
I42
VSimpleName: oldkey
p3116
tp3117
I2
s(Vinsert
p3118
I42
VSimpleName: TimeoutException
p3119
tp3120
I1
s(Vinsert
p3121
I45
VStringLiteral: "my_shiny_client_name"
p3122
tp3123
I2
s(Vinsert
p3124
I42
VSimpleName: sismember
p3125
tp3126
I4
s(Vinsert
p3127
I42
VSimpleName: setPassword
p3128
tp3129
I8
s(Vinsert
p3130
I42
VSimpleName: processError
p3131
tp3132
I1
s(Vinsert
p3133
I42
VSimpleName: b3
p3134
tp3135
I1
s(Vinsert
p3136
I42
VSimpleName: Double
p3137
tp3138
I16
s(Vinsert
p3139
I45
VStringLiteral: ":0"
p3140
tp3141
I1
s(Vinsert
p3142
I45
VStringLiteral: "The code did not throw the expected JedisConnectionException."
p3143
tp3144
I1
s(Vinsert
p3145
I45
VStringLiteral: "test2"
p3146
tp3147
I1
s(Vinsert
p3148
I5
VArrayType: byte[][]
p3149
tp3150
I4
s(Vinsert
p3151
I40
VQualifiedName: redis.clients.jedis.ShardedJedisPipeline
p3152
tp3153
I1
s(Vinsert
p3154
I43
VSimpleType: Reset
p3155
tp3156
I2
s(Vinsert
p3157
I42
VSimpleName: node3Slots
p3158
tp3159
I1
s(Vinsert
p3160
I42
VSimpleName: JedisException
p3161
tp3162
I21
s(Vinsert
p3163
I42
VSimpleName: R
p3164
tp3165
I3
s(Vinsert
p3166
I42
VSimpleName: bbar1
p3167
tp3168
I1
s(Vinsert
p3169
I34
VNumberLiteral: 1.0d
p3170
tp3171
I1
s(Vinsert
p3172
I42
VSimpleName: InputStream
p3173
tp3174
I2
s(Vinsert
p3175
I34
VNumberLiteral: 1000
p3176
tp3177
I9
s(Vinsert
p3178
I74
VParameterizedType: HashSet<String>
p3179
tp3180
I1
s(Vinsert
p3181
I76
VWildcardType: ?
p3182
tp3183
I6
s(Vinsert
p3184
I42
VSimpleName: totalWeight
p3185
tp3186
I2
s(Vinsert
p3187
I45
VStringLiteral: "LPUSH"
p3188
tp3189
I1
s(Vinsert
p3190
I43
VSimpleType: Slowlog
p3191
tp3192
I1
s(Vinsert
p3193
I42
VSimpleName: unlink
p3194
tp3195
I13
s(Vinsert
p3196
I42
VSimpleName: JedisDataException
p3197
tp3198
I5
s(Vinsert
p3199
I42
VSimpleName: killClient
p3200
tp3201
I1
s(Vinsert
p3202
I42
VSimpleName: key
p3203
tp3204
I219
s(Vinsert
p3205
I42
VSimpleName: newmaster
p3206
tp3207
I1
s(Vinsert
p3208
I42
VSimpleName: scanCompletely
p3209
tp3210
I1
s(Vinsert
p3211
I42
VSimpleName: sentinelJedis1
p3212
tp3213
I1
s(Vinsert
p3214
I42
VSimpleName: zrevrangeByLexBinary
p3215
tp3216
I1
s(Vinsert
p3217
I42
VSimpleName: JedisShardInfo
p3218
tp3219
I15
s(Vinsert
p3220
I42
VSimpleName: nextSlot
p3221
tp3222
I1
s(Vinsert
p3223
I42
VSimpleName: nodeInfo1
p3224
tp3225
I1
s(Vinsert
p3226
I43
VSimpleType: Connection
p3227
tp3228
I1
s(Vinsert
p3229
I5
VArrayType: byte[]
p3230
tp3231
I132
s(Vinsert
p3232
I42
VSimpleName: pathSplit
p3233
tp3234
I1
s(Vinsert
p3235
I42
VSimpleName: SortingParams
p3236
tp3237
I8
s(Vinsert
p3238
I45
VStringLiteral: "redis://user:password@host:9000/3"
p3239
tp3240
I1
s(Vinsert
p3241
I42
VSimpleName: order
p3242
tp3243
I1
s(Vinsert
p3244
I34
VNumberLiteral: 10922
p3245
tp3246
I1
s(Vinsert
p3247
I42
VSimpleName: isBroken
p3248
tp3249
I2
s(Vinsert
p3250
I42
VSimpleName: URISyntaxException
p3251
tp3252
I3
s(Vinsert
p3253
I42
VSimpleName: setConnectionTimeout
p3254
tp3255
I3
s(Vinsert
p3256
I42
VSimpleName: raw
p3257
tp3258
I6
s(Vinsert
p3259
I42
VSimpleName: OBJECT
p3260
tp3261
I1
s(Vinsert
p3262
I43
VSimpleType: IllegalArgumentException
p3263
tp3264
I3
s(Vinsert
p3265
I42
VSimpleName: t
p3266
tp3267
I9
s(Vinsert
p3268
I42
VSimpleName: Aggregate
p3269
tp3270
I1
s(Vinsert
p3271
I42
VSimpleName: getAndIncrement
p3272
tp3273
I1
s(Vinsert
p3274
I40
VQualifiedName: Keyword.QUEUED
p3275
tp3276
I2
s(Vinsert
p3277
I43
VSimpleType: InputStream
p3278
tp3279
I2
s(Vinsert
p3280
I42
VSimpleName: forName
p3281
tp3282
I2
s(Vinsert
p3283
I43
VSimpleType: Exception
p3284
tp3285
I12
s(Vinsert
p3286
I42
VSimpleName: getMeanBorrowWaitTimeMillis
p3287
tp3288
I2
s(Vinsert
p3289
I42
VSimpleName: radius
p3290
tp3291
I1
s(Vinsert
p3292
I42
VSimpleName: clusterSlaves
p3293
tp3294
I1
s(Vinsert
p3295
I1
VAnonymousClassDeclaration
p3296
tp3297
I8
s(Vinsert
p3298
I42
VSimpleName: get
p3299
tp3300
I59
s(Vinsert
p3301
I40
VQualifiedName: Protocol.CLUSTER_COUNTKEYINSLOT
p3302
tp3303
I1
s(Vinsert
p3304
I42
VSimpleName: endOffset
p3305
tp3306
I3
s(Vinsert
p3307
I42
VSimpleName: m
p3308
tp3309
I2
s(Vinsert
p3310
I42
VSimpleName: masters
p3311
tp3312
I1
s(Vinsert
p3313
I42
VSimpleName: JedisPoolConfig
p3314
tp3315
I5
s(Vinsert
p3316
I42
VSimpleName: incr
p3317
tp3318
I2
s(Vinsert
p3319
I42
VSimpleName: connectionTimeout
p3320
tp3321
I2
s(Vinsert
p3322
I45
VStringLiteral: "DEBUG"
p3323
tp3324
I1
s(Vinsert
p3325
I40
VQualifiedName: redis.clients.jedis.Protocol.Keyword.ALPHA
p3326
tp3327
I1
s(Vinsert
p3328
I42
VSimpleName: redis2
p3329
tp3330
I7
s(Vinsert
p3331
I42
VSimpleName: setUp
p3332
tp3333
I4
s(Vinsert
p3334
I46
VSuperConstructorInvocation
p3335
tp3336
I6
s(Vinsert
p3337
I42
VSimpleName: HostAndPort
p3338
tp3339
I40
s(Vinsert
p3340
I40
VQualifiedName: hp.port
p3341
tp3342
I1
s(Vinsert
p3343
I42
VSimpleName: clusterMeet
p3344
tp3345
I2
s(Vinsert
p3346
I42
VSimpleName: save
p3347
tp3348
I7
s(Vinsert
p3349
I66
VTextElement: ) but you don't want the sorting overhead.
p3350
tp3351
I1
s(Vinsert
p3352
I42
VSimpleName: database
p3353
tp3354
I5
s(Vinsert
p3355
I42
VSimpleName: slaveofNoOne
p3356
tp3357
I1
s(Vinsert
p3358
I42
VSimpleName: exec
p3359
tp3360
I6
s(Vinsert
p3361
I43
VSimpleType: R
p3362
tp3363
I3
s(Vinsert
p3364
I42
VSimpleName: ArrayList
p3365
tp3366
I37
s(Vinsert
p3367
I42
VSimpleName: masterAddr
p3368
tp3369
I6
s(Vinsert
p3370
I43
VSimpleType: String
p3371
tp3372
I330
s(Vinsert
p3373
I41
VReturnStatement
p3374
tp3375
I180
s(Vinsert
p3376
I42
VSimpleName: currentConnection
p3377
tp3378
I3
s(Vinsert
p3379
I42
VSimpleName: internalPool
p3380
tp3381
I8
s(Vinsert
p3382
I42
VSimpleName: getAllShards
p3383
tp3384
I4
s(Vinsert
p3385
I42
VSimpleName: argument
p3386
tp3387
I3
s(Vinsert
p3388
I27
VInfixExpression: <
p3389
tp3390
I28
s(Vinsert
p3391
I42
VSimpleName: T
p3392
tp3393
I8
s(Vinsert
p3394
I42
VSimpleName: askConnection
p3395
tp3396
I2
s(Vinsert
p3397
I42
VSimpleName: ps
p3398
tp3399
I1
s(Vinsert
p3400
I42
VSimpleName: wrongSentinels
p3401
tp3402
I2
s(Vinsert
p3403
I42
VSimpleName: run
p3404
tp3405
I7
s(Vinsert
p3406
I42
VSimpleName: JedisPipeline
p3407
tp3408
I1
s(Vinsert
p3409
I42
VSimpleName: bResult
p3410
tp3411
I3
s(Vinsert
p3412
I42
VSimpleName: id
p3413
tp3414
I1
s(Vinsert
p3415
I42
VSimpleName: MASTER_IP
p3416
tp3417
I1
s(Vinsert
p3418
I42
VSimpleName: zrange
p3419
tp3420
I3
s(Vinsert
p3421
I45
VStringLiteral: "ERR This instance has cluster support disabled"
p3422
tp3423
I1
s(Vinsert
p3424
I42
VSimpleName: connectWithShardInfo
p3425
tp3426
I1
s(Vinsert
p3427
I43
VSimpleType: JedisPipeline
p3428
tp3429
I1
s(Vinsert
p3430
I42
VSimpleName: getDefault
p3431
tp3432
I2
s(Vinsert
p3433
I42
VSimpleName: mergedKeys
p3434
tp3435
I2
s(Vinsert
p3436
I45
VStringLiteral: "SLAVEOF"
p3437
tp3438
I1
s(Vinsert
p3439
I42
VSimpleName: CharsetEncoder
p3440
tp3441
I2
s(Vinsert
p3442
I10
VBreakStatement
p3443
tp3444
I1
s(Vinsert
p3445
I42
VSimpleName: getPort
p3446
tp3447
I22
s(Vinsert
p3448
I42
VSimpleName: isListAreEquals
p3449
tp3450
I2
s(Vinsert
p3451
I34
VNumberLiteral: 50
p3452
tp3453
I2
s(Vinsert
p3454
I42
VSimpleName: setHost
p3455
tp3456
I2
s(Vinsert
p3457
I42
VSimpleName: equals
p3458
tp3459
I17
s(Vinsert
p3460
I42
VSimpleName: asking
p3461
tp3462
I4
s(Vinsert
p3463
I12
VCatchClause
p3464
tp3465
I12
s(Vinsert
p3466
I42
VSimpleName: bj
p3467
tp3468
I4
s(Vinsert
p3469
I42
VSimpleName: objectList
p3470
tp3471
I3
s(Vinsert
p3472
I42
VSimpleName: hap
p3473
tp3474
I1
s(Vinsert
p3475
I42
VSimpleName: argCount
p3476
tp3477
I1
s(Vinsert
p3478
I42
VSimpleName: del
p3479
tp3480
I7
s(Vinsert
p3481
I45
VStringLiteral: "of"
p3482
tp3483
I1
s(Vinsert
p3484
I40
VQualifiedName: TimeUnit.SECONDS
p3485
tp3486
I1
s(Vinsert
p3487
I43
VSimpleType: Socket
p3488
tp3489
I1
s(Vinsert
p3490
I45
VStringLiteral: ""
p3491
tp3492
I2
s(Vinsert
p3493
I34
VNumberLiteral: 7379
p3494
tp3495
I5
s(Vinsert
p3496
I42
VSimpleName: jedis2
p3497
tp3498
I11
s(Vinsert
p3499
I42
VSimpleName: b
p3500
tp3501
I5
s(Vinsert
p3502
I34
VNumberLiteral: 0.3
p3503
tp3504
I2
s(Vinsert
p3505
I45
VStringLiteral: "1:2:jobIds"
p3506
tp3507
I1
s(Vinsert
p3508
I42
VSimpleName: msetnx
p3509
tp3510
I2
s(Vinsert
p3511
I42
VSimpleName: unsubscribe
p3512
tp3513
I1
s(Vinsert
p3514
I42
VSimpleName: setTimeoutInfinite
p3515
tp3516
I4
s(Vinsert
p3517
I42
VSimpleName: nextConnection
p3518
tp3519
I1
s(Vinsert
p3520
I43
VSimpleType: Config
p3521
tp3522
I1
s(Vinsert
p3523
I42
VSimpleName: bfoo1
p3524
tp3525
I1
s(Vinsert
p3526
I42
VSimpleName: obj
p3527
tp3528
I11
s(Vinsert
p3529
I45
VStringLiteral: "redis://localhost:6380/"
p3530
tp3531
I1
s(Vinsert
p3532
I42
VSimpleName: shouldRecognized
p3533
tp3534
I1
s(Vinsert
p3535
I42
VSimpleName: processStatusCodeReply
p3536
tp3537
I1
s(Vinsert
p3538
I42
VSimpleName: evalsha
p3539
tp3540
I4
s(Vinsert
p3541
I42
VSimpleName: slaves
p3542
tp3543
I3
s(Vinsert
p3544
I42
VSimpleName: JedisNoReachableClusterNodeException
p3545
tp3546
I1
s(Vinsert
p3547
I74
VParameterizedType: ArrayList<Module>
p3548
tp3549
I1
s(Vinsert
p3550
I42
VSimpleName: publishOne
p3551
tp3552
I1
s(Vinsert
p3553
I42
VSimpleName: PooledObject
p3554
tp3555
I1
s(Vinsert
p3556
I42
VSimpleName: getShardInfo
p3557
tp3558
I1
s(Vinsert
p3559
I42
VSimpleName: getMember
p3560
tp3561
I1
s(Vinsert
p3562
I40
VQualifiedName: resource.wrapped
p3563
tp3564
I1
s(Vinsert
p3565
I42
VSimpleName: pooledJedis
p3566
tp3567
I2
s(Vinsert
p3568
I42
VSimpleName: currentHostMaster
p3569
tp3570
I2
s(Vinsert
p3571
I42
VSimpleName: hostAndPort
p3572
tp3573
I10
s(Vinsert
p3574
I74
VParameterizedType: ArrayList<Integer>
p3575
tp3576
I1
s(Vinsert
p3577
I42
VSimpleName: sv
p3578
tp3579
I1
s(Vinsert
p3580
I43
VSimpleType: LIST_POSITION
p3581
tp3582
I1
s(Vinsert
p3583
I40
VQualifiedName: arg.length
p3584
tp3585
I3
s(Vinsert
p3586
I42
VSimpleName: setMaxTotal
p3587
tp3588
I3
s(Vinsert
p3589
I42
VSimpleName: db
p3590
tp3591
I1
s(Vinsert
p3592
I42
VSimpleName: binaryScoreMembers
p3593
tp3594
I1
s(Vinsert
p3595
I42
VSimpleName: ltrim
p3596
tp3597
I1
s(Vinsert
p3598
I42
VSimpleName: getCause
p3599
tp3600
I1
s(Vinsert
p3601
I34
VNumberLiteral: 0L
p3602
tp3603
I1
s(Vinsert
p3604
I42
VSimpleName: emptyString
p3605
tp3606
I1
s(Vinsert
p3607
I45
VStringLiteral: "list"
p3608
tp3609
I1
s(Vinsert
p3610
I42
VSimpleName: nxxx
p3611
tp3612
I1
s(Vinsert
p3613
I42
VSimpleName: Client
p3614
tp3615
I11
s(Vinsert
p3616
I45
VStringLiteral: "third"
p3617
tp3618
I1
s(Vinsert
p3619
I42
VSimpleName: setParams
p3620
tp3621
I1
s(Vinsert
p3622
I45
VStringLiteral: "2a11:1b1:0:111:e111:1f11:1111:1f1e"
p3623
tp3624
I1
s(Vinsert
p3625
I40
VQualifiedName: BuilderFactory.LONG
p3626
tp3627
I2
s(Vinsert
p3628
I42
VSimpleName: unixTime
p3629
tp3630
I1
s(Vinsert
p3631
I42
VSimpleName: setNodeIfNotExist
p3632
tp3633
I1
s(Vinsert
p3634
I40
VQualifiedName: java.util.Collections
p3635
tp3636
I1
s(Vinsert
p3637
I42
VSimpleName: emptySet
p3638
tp3639
I9
s(Vinsert
p3640
I23
VFieldDeclaration
p3641
tp3642
I4
s(Vinsert
p3643
I43
VSimpleType: ShardedJedisPool
p3644
tp3645
I4
s(Vinsert
p3646
I45
VStringLiteral: "[aa"
p3647
tp3648
I1
s(Vinsert
p3649
I42
VSimpleName: dbSize
p3650
tp3651
I3
s(Vinsert
p3652
I42
VSimpleName: nodeInfoParser
p3653
tp3654
I1
s(Vinsert
p3655
I42
VSimpleName: Entry
p3656
tp3657
I2
s(Vinsert
p3658
I42
VSimpleName: slowlogGet
p3659
tp3660
I3
s(Vinsert
p3661
I42
VSimpleName: mydata
p3662
tp3663
I3
s(Vinsert
p3664
I42
VSimpleName: HashSet
p3665
tp3666
I7
s(Vinsert
p3667
I45
VStringLiteral: ". Trying next one."
p3668
tp3669
I1
s(Vinsert
p3670
I74
VParameterizedType: Wrapper<T>
p3671
tp3672
I1
s(Vinsert
p3673
I62
VInstanceofExpression
p3674
tp3675
I1
s(Vinsert
p3676
I42
VSimpleName: sslSocketFactory
p3677
tp3678
I6
s(Vinsert
p3679
I42
VSimpleName: setIfExistAndGet
p3680
tp3681
I1
s(Vinsert
p3682
I42
VSimpleName: weights
p3683
tp3684
I3
s(Vinsert
p3685
I69
VMethodRefParameter
p3686
tp3687
I1
s(Vinsert
p3688
I42
VSimpleName: Jedis
p3689
tp3690
I171
s(Vinsert
p3691
I42
VSimpleName: keys
p3692
tp3693
I39
s(Vinsert
p3694
I34
VNumberLiteral: 2
p3695
tp3696
I20
s(Vinsert
p3697
I45
VStringLiteral: "SORT"
p3698
tp3699
I1
s(Vinsert
p3700
I42
VSimpleName: assertThat
p3701
tp3702
I1
s(Vinsert
p3703
I43
VSimpleType: Random
p3704
tp3705
I2
s(Vinsert
p3706
I42
VSimpleName: paramsList
p3707
tp3708
I1
s(Vinsert
p3709
I42
VSimpleName: waitForSentinelsRecognizeEachOthers
p3710
tp3711
I1
s(Vinsert
p3712
I42
VSimpleName: jedis
p3713
tp3714
I224
s(Vinsert
p3715
I43
VSimpleType: ByteBuffer
p3716
tp3717
I1
s(Vinsert
p3718
I65
VTagElement: @return
p3719
tp3720
I2
s(Vinsert
p3721
I42
VSimpleName: AtomicInteger
p3722
tp3723
I1
s(Vinsert
p3724
I45
VStringLiteral: "car"
p3725
tp3726
I1
s(Vinsert
p3727
I42
VSimpleName: newMaster
p3728
tp3729
I2
s(Vinsert
p3730
I42
VSimpleName: out
p3731
tp3732
I1
s(Vinsert
p3733
I42
VSimpleName: byteParams
p3734
tp3735
I9
s(Vinsert
p3736
I42
VSimpleName: syncAndReturnAll
p3737
tp3738
I1
s(Vinsert
p3739
I42
VSimpleName: data
p3740
tp3741
I3
s(Vinsert
p3742
I42
VSimpleName: getName
p3743
tp3744
I1
s(Vinsert
p3745
I31
VMethodDeclaration
p3746
tp3747
I126
s(Vinsert
p3748
I42
VSimpleName: objectEncoding
p3749
tp3750
I6
s(Vinsert
p3751
I27
VInfixExpression: *
p3752
tp3753
I5
s(Vinsert
p3754
I39
VPrimitiveType: void
p3755
tp3756
I101
s(Vinsert
p3757
I42
VSimpleName: configGet
p3758
tp3759
I2
s(Vinsert
p3760
I42
VSimpleName: isConnected
p3761
tp3762
I7
s(Vinsert
p3763
I42
VSimpleName: responseList
p3764
tp3765
I1
s(Vinsert
p3766
I45
VStringLiteral: "ZRANGE"
p3767
tp3768
I1
s(Vinsert
p3769
I42
VSimpleName: getBinaryBulkReply
p3770
tp3771
I2
s(Vinsert
p3772
I34
VNumberLiteral: 6000
p3773
tp3774
I1
s(Vinsert
p3775
I42
VSimpleName: cut
p3776
tp3777
I2
s(Vinsert
p3778
I42
VSimpleName: incrByFloat
p3779
tp3780
I5
s(Vinsert
p3781
I42
VSimpleName: readByte
p3782
tp3783
I1
s(Vinsert
p3784
I43
VSimpleType: JedisPoolConfig
p3785
tp3786
I4
s(Vinsert
p3787
I40
VQualifiedName: redis.clients.jedis.Tuple
p3788
tp3789
I2
s(Vinsert
p3790
I27
VInfixExpression: !=
p3791
tp3792
I34
s(Vinsert
p3793
I42
VSimpleName: end
p3794
tp3795
I9
s(Vinsert
p3796
I42
VSimpleName: assertArrayEquals
p3797
tp3798
I1
s(Vinsert
p3799
I42
VSimpleName: flushAll
p3800
tp3801
I5
s(Vinsert
p3802
I42
VSimpleName: connection
p3803
tp3804
I83
s(Vinsert
p3805
I42
VSimpleName: allArgs
p3806
tp3807
I1
s(Vinsert
p3808
I45
VStringLiteral: "LIMIT"
p3809
tp3810
I1
s(Vinsert
p3811
I39
VPrimitiveType: boolean
p3812
tp3813
I14
s(Vinsert
p3814
I42
VSimpleName: hashCode
p3815
tp3816
I2
s(Vinsert
p3817
I42
VSimpleName: ScanParams
p3818
tp3819
I5
s(Vinsert
p3820
I42
VSimpleName: persist
p3821
tp3822
I5
s(Vinsert
p3823
I42
VSimpleName: lock
p3824
tp3825
I3
s(Vinsert
p3826
I40
VQualifiedName: Sharded.DEFAULT_WEIGHT
p3827
tp3828
I2
s(Vinsert
p3829
I40
VQualifiedName: hnp.port
p3830
tp3831
I3
s(Vinsert
p3832
I42
VSimpleName: pos
p3833
tp3834
I3
s(Vinsert
p3835
I42
VSimpleName: zrevrangebyscoreWithScores
p3836
tp3837
I1
s(Vinsert
p3838
I59
VVariableDeclarationFragment
p3839
tp3840
I395
s(Vinsert
p3841
I42
VSimpleName: ok
p3842
tp3843
I1
s(Vinsert
p3844
I40
VQualifiedName: java.util.List
p3845
tp3846
I1
s(Vinsert
p3847
I42
VSimpleName: zrangeByLex
p3848
tp3849
I7
s(Vinsert
p3850
I45
VStringLiteral: "localhost"
p3851
tp3852
I26
s(Vinsert
p3853
I42
VSimpleName: results
p3854
tp3855
I14
s(Vinsert
p3856
I42
VSimpleName: membersWithScores
p3857
tp3858
I2
s(Vinsert
p3859
I42
VSimpleName: getPath
p3860
tp3861
I2
s(Vinsert
p3862
I42
VSimpleName: bexpected
p3863
tp3864
I7
s(Vinsert
p3865
I42
VSimpleName: eval
p3866
tp3867
I7
s(Vinsert
p3868
I42
VSimpleName: initialValue
p3869
tp3870
I1
s(Vinsert
p3871
I42
VSimpleName: getClient
p3872
tp3873
I32
s(Vinsert
p3874
I74
VParameterizedType: Map<byte[],Double>
p3875
tp3876
I1
s(Vinsert
p3877
I42
VSimpleName: node
p3878
tp3879
I5
s(Vinsert
p3880
I42
VSimpleName: clusterInfo
p3881
tp3882
I3
s(Vinsert
p3883
I42
VSimpleName: convertScoreMembersToByteArrays
p3884
tp3885
I1
s(Vinsert
p3886
I42
VSimpleName: SuppressWarnings
p3887
tp3888
I1
s(Vinsert
p3889
I42
VSimpleName: bitpos
p3890
tp3891
I6
s(Vinsert
p3892
I40
VQualifiedName: Double.MAX_VALUE
p3893
tp3894
I1
s(Vinsert
p3895
I42
VSimpleName: getSentinelServers
p3896
tp3897
I1
s(Vinsert
p3898
I13
VCharacterLiteral: '['
p3899
tp3900
I1
s(Vinsert
p3901
I42
VSimpleName: i
p3902
tp3903
I88
s(Vinsert
p3904
I45
VStringLiteral: "127.0.0.1"
p3905
tp3906
I4
s(Vinsert
p3907
I74
VParameterizedType: Map.Entry<Keyword,ByteBuffer>
p3908
tp3909
I1
s(Vinsert
p3910
I42
VSimpleName: UnknownHostException
p3911
tp3912
I1
s(Vinsert
p3913
I42
VSimpleName: hasPipelinedResponse
p3914
tp3915
I1
s(Vinsert
p3916
I42
VSimpleName: nodeInfoPartArray
p3917
tp3918
I1
s(Vinsert
p3919
I42
VSimpleName: closeInternalPool
p3920
tp3921
I1
s(Vinsert
p3922
I42
VSimpleName: clusterNodes
p3923
tp3924
I5
s(Vinsert
p3925
I74
VParameterizedType: Map<Double,String>
p3926
tp3927
I1
s(Vinsert
p3928
I42
VSimpleName: bin
p3929
tp3930
I1
s(Vinsert
p3931
I42
VSimpleName: tearDown
p3932
tp3933
I2
s(Vinsert
p3934
I42
VSimpleName: movedInfo
p3935
tp3936
I1
s(Vinsert
p3937
I45
VStringLiteral: "thrown exception"
p3938
tp3939
I1
s(Vinsert
p3940
I42
VSimpleName: currentTimeMillis
p3941
tp3942
I2
s(Vinsert
p3943
I42
VSimpleName: ttl
p3944
tp3945
I5
s(Vinsert
p3946
I43
VSimpleType: BinaryJedis
p3947
tp3948
I10
s(Vinsert
p3949
I42
VSimpleName: isKnownNode
p3950
tp3951
I1
s(Vinsert
p3952
I74
VParameterizedType: Response<String>
p3953
tp3954
I13
s(Vinsert
p3955
I42
VSimpleName: getNumActive
p3956
tp3957
I2
s(Vinsert
p3958
I45
VStringLiteral: "hll"
p3959
tp3960
I1
s(Vinsert
p3961
I42
VSimpleName: TOTAL_OPERATIONS
p3962
tp3963
I2
s(Vinsert
p3964
I45
VStringLiteral: "1"
p3965
tp3966
I1
s(Vinsert
p3967
I42
VSimpleName: millisecondsTimestamp
p3968
tp3969
I5
s(Vinsert
p3970
I45
VStringLiteral: "setrange"
p3971
tp3972
I1
s(Vinsert
p3973
I42
VSimpleName: dbIndex
p3974
tp3975
I2
s(Vinsert
p3976
I42
VSimpleName: JedisConnectionException
p3977
tp3978
I6
s(Vinsert
p3979
I42
VSimpleName: bcar
p3980
tp3981
I2
s(Vinsert
p3982
I45
VStringLiteral: "MasterListener-%s-[%s:%d]"
p3983
tp3984
I1
s(Vinsert
p3985
I42
VSimpleName: isValid
p3986
tp3987
I4
s(Vinsert
p3988
I42
VSimpleName: getNodeId
p3989
tp3990
I3
s(Vinsert
p3991
I77
VNormalAnnotation
p3992
tp3993
I2
s(Vinsert
p3994
I42
VSimpleName: argumentArray
p3995
tp3996
I1
s(Vinsert
p3997
I42
VSimpleName: isClusterCompliantMatchPattern
p3998
tp3999
I2
s(Vinsert
p4000
I42
VSimpleName: getProperty
p4001
tp4002
I1
s(Vinsert
p4003
I42
VSimpleName: brpop
p4004
tp4005
I10
s(Vinsert
p4006
I42
VSimpleName: getAll
p4007
tp4008
I2
s(Vinsert
p4009
I42
VSimpleName: expected2
p4010
tp4011
I2
s(Vinsert
p4012
I42
VSimpleName: numKeys
p4013
tp4014
I1
s(Vinsert
p4015
I43
VSimpleType: SSLParameters
p4016
tp4017
I3
s(Vinsert
p4018
I74
VParameterizedType: HashMap<String,String>
p4019
tp4020
I2
s(Vinsert
p4021
I43
VSimpleType: GeoUnit
p4022
tp4023
I2
s(Vinsert
p4024
I45
VStringLiteral: "Background append only file rewriting started"
p4025
tp4026
I1
s(Vinsert
p4027
I42
VSimpleName: t3
p4028
tp4029
I1
s(Vinsert
p4030
I40
VQualifiedName: vals.length
p4031
tp4032
I1
s(Vinsert
p4033
I42
VSimpleName: add
p4034
tp4035
I85
s(Vinsert
p4036
I42
VSimpleName: assertEquals
p4037
tp4038
I84
s(Vinsert
p4039
I74
VParameterizedType: Set<Tuple>
p4040
tp4041
I1
s(Vinsert
p4042
I74
VParameterizedType: PooledObject<Jedis>
p4043
tp4044
I2
s(Vinsert
p4045
I42
VSimpleName: subresp
p4046
tp4047
I1
s(Vinsert
p4048
I42
VSimpleName: bf
p4049
tp4050
I2
s(Vinsert
p4051
I42
VSimpleName: bhashResponse
p4052
tp4053
I1
s(Vinsert
p4054
I42
VSimpleName: res
p4055
tp4056
I1
s(Vinsert
p4057
I42
VSimpleName: master
p4058
tp4059
I10
s(Vinsert
p4060
I42
VSimpleName: assertFalse
p4061
tp4062
I5
s(Vinsert
p4063
I34
VNumberLiteral: 15363
p4064
tp4065
I2
s(Vinsert
p4066
I42
VSimpleName: getBytes
p4067
tp4068
I30
s(Vinsert
p4069
I42
VSimpleName: zremrangeByScore
p4070
tp4071
I3
s(Vinsert
p4072
I45
VStringLiteral: "We expect exception here!"
p4073
tp4074
I1
s(Vinsert
p4075
I45
VStringLiteral: "foo3"
p4076
tp4077
I1
s(Vinsert
p4078
I42
VSimpleName: shutdown
p4079
tp4080
I3
s(Vinsert
p4081
I42
VSimpleName: getrangeBytes
p4082
tp4083
I1
s(Vinsert
p4084
I42
VSimpleName: zscan
p4085
tp4086
I1
s(Vinsert
p4087
I27
VInfixExpression: &&
p4088
tp4089
I7
s(Vinsert
p4090
I42
VSimpleName: srandmember
p4091
tp4092
I3
s(Vinsert
p4093
I42
VSimpleName: cursor
p4094
tp4095
I7
s(Vinsert
p4096
I42
VSimpleName: HOST_AND_PORT_INDEX
p4097
tp4098
I1
s(Vinsert
p4099
I42
VSimpleName: shouldNotExist
p4100
tp4101
I1
s(Vinsert
p4102
I42
VSimpleName: brange
p4103
tp4104
I1
s(Vinsert
p4105
I42
VSimpleName: hgetAll
p4106
tp4107
I2
s(Vinsert
p4108
I42
VSimpleName: readIntCrLf
p4109
tp4110
I1
s(Vinsert
p4111
I45
VStringLiteral: "{user1000}.followers"
p4112
tp4113
I1
s(Vinsert
p4114
I42
VSimpleName: returnBrokenResourceWithNullResource
p4115
tp4116
I1
s(Vinsert
p4117
I42
VSimpleName: emptyList
p4118
tp4119
I3
s(Vinsert
p4120
I42
VSimpleName: bpublish
p4121
tp4122
I1
s(Vinsert
p4123
I42
VSimpleName: min
p4124
tp4125
I26
s(Vinsert
p4126
I27
VInfixExpression: <=
p4127
tp4128
I2
s(Vinsert
p4129
I42
VSimpleName: JedisURIHelper
p4130
tp4131
I5
s(Vinsert
p4132
I42
VSimpleName: writeAsciiCrLf
p4133
tp4134
I1
s(Vinsert
p4135
I42
VSimpleName: arg
p4136
tp4137
I18
s(Vinsert
p4138
I27
VInfixExpression: /
p4139
tp4140
I1
s(Vinsert
p4141
I42
VSimpleName: ByteArrayComparator
p4142
tp4143
I2
s(Vinsert
p4144
I42
VSimpleName: InterruptedException
p4145
tp4146
I2
s(Vinsert
p4147
I42
VSimpleName: log
p4148
tp4149
I4
s(Vinsert
p4150
I42
VSimpleName: debug
p4151
tp4152
I4
s(Vinsert
p4153
I42
VSimpleName: HOST_MYSELF_IDENTIFIER
p4154
tp4155
I1
s(Vinsert
p4156
I42
VSimpleName: slaveJedis
p4157
tp4158
I1
s(Vinsert
p4159
I74
VParameterizedType: ThreadLocal<Random>
p4160
tp4161
I1
s(Vinsert
p4162
I40
VQualifiedName: hnp2.host
p4163
tp4164
I2
s(Vinsert
p4165
I43
VSimpleType: ZParams
p4166
tp4167
I1
s(Vinsert
p4168
I42
VSimpleName: p
p4169
tp4170
I16
s(Vinsert
p4171
I42
VSimpleName: uri
p4172
tp4173
I17
s(Vinsert
p4174
I42
VSimpleName: processSlot
p4175
tp4176
I1
s(Vinsert
p4177
I40
VQualifiedName: ShardedJedis.DEFAULT_KEY_TAG_PATTERN
p4178
tp4179
I1
s(Vinsert
p4180
I45
VStringLiteral: "localhost:6380"
p4181
tp4182
I1
s(Vinsert
p4183
I42
VSimpleName: status
p4184
tp4185
I31
s(Vinsert
p4186
I42
VSimpleName: getCursor
p4187
tp4188
I1
s(Vinsert
p4189
I45
VStringLiteral: "Palermo"
p4190
tp4191
I1
s(Vinsert
p4192
I74
VParameterizedType: ArrayList<JedisPool>
p4193
tp4194
I1
s(Vinsert
p4195
I34
VNumberLiteral: 13
p4196
tp4197
I2
s(Vinsert
p4198
I42
VSimpleName: hp
p4199
tp4200
I1
s(Vinsert
p4201
I42
VSimpleName: getIntegerReply
p4202
tp4203
I15
s(Vinsert
p4204
I42
VSimpleName: fine
p4205
tp4206
I1
s(Vinsert
p4207
I42
VSimpleName: by
p4208
tp4209
I2
s(Vinsert
p4210
I45
VStringLiteral: "DEAD"
p4211
tp4212
I3
s(Vinsert
p4213
I42
VSimpleName: redisHostAndPortList
p4214
tp4215
I1
s(Vinsert
p4216
I42
VSimpleName: bhello
p4217
tp4218
I1
s(Vinsert
p4219
I42
VSimpleName: pingWithMessage
p4220
tp4221
I1
s(Vinsert
p4222
I43
VSimpleType: URI
p4223
tp4224
I9
s(Vinsert
p4225
I42
VSimpleName: cluster
p4226
tp4227
I7
s(Vinsert
p4228
I42
VSimpleName: w
p4229
tp4230
I2
s(Vinsert
p4231
I42
VSimpleName: node3
p4232
tp4233
I3
s(Vinsert
p4234
I42
VSimpleName: waitReplicas
p4235
tp4236
I3
s(Vinsert
p4237
I42
VSimpleName: getParams
p4238
tp4239
I2
s(Vinsert
p4240
I42
VSimpleName: asList
p4241
tp4242
I2
s(Vinsert
p4243
I42
VSimpleName: sortingParameters
p4244
tp4245
I9
s(Vinsert
p4246
I34
VNumberLiteral: 39
p4247
tp4248
I1
s(Vinsert
p4249
I34
VNumberLiteral: 5000
p4250
tp4251
I1
s(Vinsert
p4252
I42
VSimpleName: firstMapKey
p4253
tp4254
I1
s(Vinsert
p4255
I42
VSimpleName: poolInactive
p4256
tp4257
I2
s(Vinsert
p4258
I42
VSimpleName: BinaryJedisCluster
p4259
tp4260
I1
s(Vinsert
p4261
I42
VSimpleName: connected
p4262
tp4263
I2
s(Vinsert
p4264
I45
VStringLiteral: "SINTERSTORE"
p4265
tp4266
I1
s(Vinsert
p4267
I34
VNumberLiteral: 6
p4268
tp4269
I1
s(Vinsert
p4270
I42
VSimpleName: bchannel
p4271
tp4272
I3
s(Vinsert
p4273
I43
VSimpleType: JedisSentinelPool
p4274
tp4275
I2
s(Vinsert
p4276
I42
VSimpleName: list
p4277
tp4278
I8
s(Vinsert
p4279
I40
VQualifiedName: master.port
p4280
tp4281
I1
s(Vinsert
p4282
I42
VSimpleName: scriptExists
p4283
tp4284
I5
s(Vinsert
p4285
I42
VSimpleName: DEFAULT_CONFIG
p4286
tp4287
I1
s(Vinsert
p4288
I42
VSimpleName: printStackTrace
p4289
tp4290
I1
s(Vinsert
p4291
I74
VParameterizedType: Map<String,JedisPool>
p4292
tp4293
I2
s(Vinsert
p4294
I43
VSimpleType: JedisPool
p4295
tp4296
I26
s(Vinsert
p4297
I42
VSimpleName: pipeline3
p4298
tp4299
I1
s(Vinsert
p4300
I42
VSimpleName: l
p4301
tp4302
I1
s(Vinsert
p4303
I42
VSimpleName: argsArray
p4304
tp4305
I1
s(Vinsert
p4306
I42
VSimpleName: write
p4307
tp4308
I6
s(Vinsert
p4309
I42
VSimpleName: onPSubscribe
p4310
tp4311
I2
s(Vinsert
p4312
I42
VSimpleName: Logger
p4313
tp4314
I2
s(Vinsert
p4315
I42
VSimpleName: redis1
p4316
tp4317
I4
s(Vinsert
p4318
I42
VSimpleName: testBinaryBitfield
p4319
tp4320
I1
s(Vinsert
p4321
I42
VSimpleName: expxValue
p4322
tp4323
I1
s(Vinsert
p4324
I27
VInfixExpression: &
p4325
tp4326
I1
s(Vinsert
p4327
I43
VSimpleType: Long
p4328
tp4329
I53
s(Vinsert
p4330
I42
VSimpleName: bvalue
p4331
tp4332
I1
s(Vinsert
p4333
I74
VParameterizedType: Response<byte[]>
p4334
tp4335
I2
s(Vinsert
p4336
I42
VSimpleName: getWeight
p4337
tp4338
I1
s(Vinsert
p4339
I42
VSimpleName: newkey
p4340
tp4341
I2
s(Vinsert
p4342
I42
VSimpleName: si
p4343
tp4344
I2
s(Vinsert
p4345
I42
VSimpleName: latitude
p4346
tp4347
I1
s(Vinsert
p4348
I42
VSimpleName: lpush
p4349
tp4350
I6
s(Vinsert
p4351
I42
VSimpleName: Test
p4352
tp4353
I35
s(Vinsert
p4354
I42
VSimpleName: getSlotPool
p4355
tp4356
I1
s(Vinsert
p4357
I42
VSimpleName: nx
p4358
tp4359
I1
s(Vinsert
p4360
I42
VSimpleName: bstatus
p4361
tp4362
I1
s(Vinsert
p4363
I45
VStringLiteral: "foooo"
p4364
tp4365
I1
s(Vinsert
p4366
I42
VSimpleName: pipelineResponseWithoutData
p4367
tp4368
I2
s(Vinsert
p4369
I42
VSimpleName: r1
p4370
tp4371
I1
s(Vinsert
p4372
I42
VSimpleName: port
p4373
tp4374
I15
s(Vinsert
p4375
I42
VSimpleName: destkey
p4376
tp4377
I1
s(Vinsert
p4378
I42
VSimpleName: si1
p4379
tp4380
I2
s(Vinsert
p4381
I42
VSimpleName: currentDb
p4382
tp4383
I1
s(Vinsert
p4384
I42
VSimpleName: build
p4385
tp4386
I6
s(Vinsert
p4387
I42
VSimpleName: waitForSentinelRecognizeRedisReplication
p4388
tp4389
I1
s(Vinsert
p4390
I45
VStringLiteral: "zset"
p4391
tp4392
I3
s(Vinsert
p4393
I42
VSimpleName: oldMaster
p4394
tp4395
I1
s(Vinsert
p4396
I42
VSimpleName: getSingleLineReply
p4397
tp4398
I2
s(Vinsert
p4399
I34
VNumberLiteral: 7380
p4400
tp4401
I1
s(Vinsert
p4402
I42
VSimpleName: clazz
p4403
tp4404
I1
s(Vinsert
p4405
I42
VSimpleName: methods
p4406
tp4407
I1
s(Vinsert
p4408
I42
VSimpleName: len
p4409
tp4410
I3
s(Vinsert
p4411
I42
VSimpleName: ScanResult
p4412
tp4413
I7
s(Vinsert
p4414
I74
VParameterizedType: List<GeoCoordinate>
p4415
tp4416
I2
s(Vinsert
p4417
I42
VSimpleName: linsert
p4418
tp4419
I2
s(Vinsert
p4420
I40
VQualifiedName: BY.raw
p4421
tp4422
I2
s(Vinsert
p4423
I45
VStringLiteral: "a"
p4424
tp4425
I6
s(Vinsert
p4426
I74
VParameterizedType: Map.Entry<Double,String>
p4427
tp4428
I1
s(Vinsert
p4429
I40
VQualifiedName: java.util.Map
p4430
tp4431
I2
s(Vinsert
p4432
I45
VStringLiteral: "Jedis"
p4433
tp4434
I1
s(Vinsert
p4435
I42
VSimpleName: foo2
p4436
tp4437
I1
s(Vinsert
p4438
I42
VSimpleName: bitcount
p4439
tp4440
I3
s(Vinsert
p4441
I34
VNumberLiteral: 0x05
p4442
tp4443
I1
s(Vinsert
p4444
I42
VSimpleName: getHost
p4445
tp4446
I36
s(Vinsert
p4447
I42
VSimpleName: index1
p4448
tp4449
I2
s(Vinsert
p4450
I45
VStringLiteral: "testmodule.simple"
p4451
tp4452
I1
s(Vinsert
p4453
I42
VSimpleName: assertNotSame
p4454
tp4455
I1
s(Vinsert
p4456
I42
VSimpleName: setDb
p4457
tp4458
I2
s(Vinsert
p4459
I42
VSimpleName: running
p4460
tp4461
I2
s(Vinsert
p4462
I42
VSimpleName: builtResponse
p4463
tp4464
I2
s(Vinsert
p4465
I42
VSimpleName: isInMulti
p4466
tp4467
I1
s(Vinsert
p4468
I42
VSimpleName: e
p4469
tp4470
I14
s(Vinsert
p4471
I42
VSimpleName: duration
p4472
tp4473
I1
s(Vinsert
p4474
I43
VSimpleType: Object
p4475
tp4476
I33
s(Vinsert
p4477
I45
VStringLiteral: "ok"
p4478
tp4479
I1
s(Vinsert
p4480
I42
VSimpleName: Calendar
p4481
tp4482
I3
s(Vinsert
p4483
I42
VSimpleName: DebugParams
p4484
tp4485
I2
s(Vinsert
p4486
I40
VQualifiedName: ScanParams.SCAN_POINTER_START
p4487
tp4488
I1
s(Vinsert
p4489
I42
VSimpleName: jedisPipeline
p4490
tp4491
I2
s(Vinsert
p4492
I42
VSimpleName: nodes
p4493
tp4494
I9
s(Vinsert
p4495
I42
VSimpleName: assertNotNull
p4496
tp4497
I4
s(Vinsert
p4498
I42
VSimpleName: Long
p4499
tp4500
I58
s(Vinsert
p4501
I45
VStringLiteral: "rediss://localhost:6390"
p4502
tp4503
I2
s(Vinsert
p4504
I42
VSimpleName: ThreadLocal
p4505
tp4506
I5
s(Vinsert
p4507
I45
VStringLiteral: "No way to dispatch this command to Redis Cluster."
p4508
tp4509
I1
s(Vinsert
p4510
I40
VQualifiedName: java.util.Set
p4511
tp4512
I2
s(Vinsert
p4513
I42
VSimpleName: sort
p4514
tp4515
I15
s(Vinsert
p4516
I43
VSimpleType: LinkedHashSet
p4517
tp4518
I5
s(Vinsert
p4519
I42
VSimpleName: caught
p4520
tp4521
I1
s(Vinsert
p4522
I42
VSimpleName: ByteArrayInputStream
p4523
tp4524
I2
s(Vinsert
p4525
I42
VSimpleName: assignSlotToNode
p4526
tp4527
I2
s(Vinsert
p4528
I42
VSimpleName: expire
p4529
tp4530
I1
s(Vinsert
p4531
I74
VParameterizedType: List<String>
p4532
tp4533
I16
s(Vinsert
p4534
I42
VSimpleName: Override
p4535
tp4536
I39
s(Vinsert
p4537
I42
VSimpleName: dependency
p4538
tp4539
I3
s(Vinsert
p4540
I42
VSimpleName: strpattern
p4541
tp4542
I2
s(Vinsert
p4543
I42
VSimpleName: flush
p4544
tp4545
I11
s(Vinsert
p4546
I74
VParameterizedType: ArrayList<String>
p4547
tp4548
I11
s(Vinsert
p4549
I42
VSimpleName: getObjectMultiBulkReply
p4550
tp4551
I4
s(Vinsert
p4552
I38
VPrefixExpression: ++
p4553
tp4554
I2
s(Vinsert
p4555
I42
VSimpleName: IOException
p4556
tp4557
I7
s(Vinsert
p4558
I42
VSimpleName: hstrlen
p4559
tp4560
I9
s(Vinsert
p4561
I34
VNumberLiteral: 0x6F
p4562
tp4563
I1
s(Vinsert
p4564
I42
VSimpleName: MINUS_BYTE
p4565
tp4566
I1
s(Vinsert
p4567
I66
VTextElement:  when a complete iteration has finished
p4568
tp4569
I1
s(Vinsert
p4570
I83
VModifier: private
p4571
tp4572
I7
s(Vinsert
p4573
I42
VSimpleName: clusterAddSlots
p4574
tp4575
I5
s(Vinsert
p4576
I34
VNumberLiteral: 6379
p4577
tp4578
I1
s(Vinsert
p4579
I42
VSimpleName: bbarstar
p4580
tp4581
I1
s(Vinsert
p4582
I34
VNumberLiteral: 0x68
p4583
tp4584
I1
s(Vinsert
p4585
I42
VSimpleName: lrem
p4586
tp4587
I2
s(Vinsert
p4588
I42
VSimpleName: nj
p4589
tp4590
I6
s(Vinsert
p4591
I42
VSimpleName: put
p4592
tp4593
I9
s(Vinsert
p4594
I45
VStringLiteral: "key2"
p4595
tp4596
I1
s(Vinsert
p4597
I45
VStringLiteral: "cluster"
p4598
tp4599
I1
s(Vinsert
p4600
I42
VSimpleName: pipelinedResponses
p4601
tp4602
I3
s(Vinsert
p4603
I42
VSimpleName: testBinaryScriptFlush
p4604
tp4605
I1
s(Vinsert
p4606
I45
VStringLiteral: "6379"
p4607
tp4608
I1
s(Vinsert
p4609
I45
VStringLiteral: "b"
p4610
tp4611
I3
s(Vinsert
p4612
I42
VSimpleName: nodeInfo
p4613
tp4614
I1
s(Vinsert
p4615
I42
VSimpleName: bb
p4616
tp4617
I5
s(Vinsert
p4618
I53
VThrowStatement
p4619
tp4620
I11
s(Vinsert
p4621
I42
VSimpleName: script
p4622
tp4623
I7
s(Vinsert
p4624
I42
VSimpleName: smembers
p4625
tp4626
I3
s(Vinsert
p4627
I40
VQualifiedName: redis.clients.jedis.Protocol.Keyword.DESC
p4628
tp4629
I1
s(Vinsert
p4630
I42
VSimpleName: contained
p4631
tp4632
I1
s(Vinsert
p4633
I42
VSimpleName: nodeId
p4634
tp4635
I2
s(Vinsert
p4636
I42
VSimpleName: shardedJedis
p4637
tp4638
I3
s(Vinsert
p4639
I42
VSimpleName: failWhenSendingNullValues
p4640
tp4641
I1
s(Vinsert
p4642
I42
VSimpleName: client
p4643
tp4644
I214
s(Vinsert
p4645
I40
VQualifiedName: redis.clients.util.SafeEncoder
p4646
tp4647
I2
s(Vinsert
p4648
I37
VPostfixExpression: --
p4649
tp4650
I2
s(Vinsert
p4651
I42
VSimpleName: map
p4652
tp4653
I2
s(Vinsert
p4654
I42
VSimpleName: setSoTimeout
p4655
tp4656
I3
s(Vinsert
p4657
I43
VSimpleType: StringBuilder
p4658
tp4659
I1
s(Vinsert
p4660
I21
VExpressionStatement
p4661
tp4662
I832
s(Vinsert
p4663
I43
VSimpleType: HashSet
p4664
tp4665
I7
s(Vinsert
p4666
I26
VImportDeclaration
p4667
tp4668
I22
s(Vinsert
p4669
I42
VSimpleName: listResult
p4670
tp4671
I2
s(Vinsert
p4672
I74
VParameterizedType: HashMap<String,JedisPool>
p4673
tp4674
I1
s(Vinsert
p4675
I42
VSimpleName: setResourcesNumber
p4676
tp4677
I4
s.