(lp0
(Vinsert
p1
I42
VSimpleName: build
p2
tp3
a(Vinsert
p4
I42
VSimpleName: psubscribe
p5
tp6
a(Vinsert
p7
I42
VSimpleName: isBound
p8
tp9
a(Vinsert
p10
I42
VSimpleName: setNodeIfNotExist
p11
tp12
a(Vinsert
p13
I42
VSimpleName: readIntCrLf
p14
tp15
a(Vinsert
p16
I42
VSimpleName: substring
p17
tp18
a(Vinsert
p19
I42
VSimpleName: contains
p20
tp21
a(Vinsert
p22
I42
VSimpleName: sentinelMonitor
p23
tp24
a(Vinsert
p25
I42
VSimpleName: pfcount
p26
tp27
a(Vinsert
p28
I42
VSimpleName: emptyList
p29
tp30
a(Vinsert
p31
I42
VSimpleName: psetex
p32
tp33
a(Vinsert
p34
I42
VSimpleName: borrowObject
p35
tp36
a(Vinsert
p37
I42
VSimpleName: encode
p38
tp39
a(Vinsert
p40
I42
VSimpleName: next
p41
tp42
a(Vinsert
p43
I42
VSimpleName: slaveofNoOne
p44
tp45
a(Vinsert
p46
I42
VSimpleName: buildCommand
p47
tp48
a(Vinsert
p49
I42
VSimpleName: sadd
p50
tp51
a(Vinsert
p52
I42
VSimpleName: min
p53
tp54
a(Vinsert
p55
I42
VSimpleName: sdiffstore
p56
tp57
a(Vinsert
p58
I42
VSimpleName: zrangeByLex
p59
tp60
a(Vinsert
p61
I42
VSimpleName: quit
p62
tp63
a(Vinsert
p64
I42
VSimpleName: setReceiveBufferSize
p65
tp66
a(Vinsert
p67
I42
VSimpleName: zrevrangeByScore
p68
tp69
a(Vinsert
p70
I42
VSimpleName: exec
p71
tp72
a(Vinsert
p73
I42
VSimpleName: zremrangeByRank
p74
tp75
a(Vinsert
p76
I42
VSimpleName: setKeepAlive
p77
tp78
a(Vinsert
p79
I42
VSimpleName: getParams
p80
tp81
a(Vinsert
p82
I42
VSimpleName: georadius
p83
tp84
a(Vinsert
p85
I42
VSimpleName: destroy
p86
tp87
a(Vinsert
p88
I42
VSimpleName: clusterGetKeysInSlot
p89
tp90
a(Vinsert
p91
I42
VSimpleName: writeAsciiCrLf
p92
tp93
a(Vinsert
p94
I42
VSimpleName: px
p95
tp96
a(Vinsert
p97
I42
VSimpleName: getMeanBorrowWaitTimeMillis
p98
tp99
a(Vinsert
p100
I42
VSimpleName: getPath
p101
tp102
a(Vinsert
p103
I42
VSimpleName: swapDB
p104
tp105
a(Vinsert
p106
I42
VSimpleName: reset
p107
tp108
a(Vinsert
p109
I42
VSimpleName: connect
p110
tp111
a(Vinsert
p112
I42
VSimpleName: compare
p113
tp114
a(Vinsert
p115
I42
VSimpleName: hget
p116
tp117
a(Vinsert
p118
I42
VSimpleName: clusterInfo
p119
tp120
a(Vinsert
p121
I42
VSimpleName: doubleValue
p122
tp123
a(Vinsert
p124
I42
VSimpleName: getDb
p125
tp126
a(Vinsert
p127
I42
VSimpleName: incr
p128
tp129
a(Vinsert
p130
I42
VSimpleName: zrevrangeByLex
p131
tp132
a(Vinsert
p133
I42
VSimpleName: ping
p134
tp135
a(Vinsert
p136
I42
VSimpleName: eval
p137
tp138
a(Vinsert
p139
I42
VSimpleName: get
p140
tp141
a(Vinsert
p142
I42
VSimpleName: getClient
p143
tp144
a(Vinsert
p145
I42
VSimpleName: log
p146
tp147
a(Vinsert
p148
I42
VSimpleName: publish
p149
tp150
a(Vinsert
p151
I42
VSimpleName: setShardedJedis
p152
tp153
a(Vinsert
p154
I42
VSimpleName: getObject
p155
tp156
a(Vinsert
p157
I42
VSimpleName: values
p158
tp159
a(Vinsert
p160
I42
VSimpleName: setMaxTotal
p161
tp162
a(Vinsert
p163
I42
VSimpleName: getOne
p164
tp165
a(Vinsert
p166
I42
VSimpleName: read
p167
tp168
a(Vinsert
p169
I42
VSimpleName: evalsha
p170
tp171
a(Vinsert
p172
I42
VSimpleName: getClass
p173
tp174
a(Vinsert
p175
I42
VSimpleName: getAndIncrement
p176
tp177
a(Vinsert
p178
I42
VSimpleName: setHostAndPort
p179
tp180
a(Vinsert
p181
I42
VSimpleName: extractParts
p182
tp183
a(Vinsert
p184
I42
VSimpleName: hincrByFloat
p185
tp186
a(Vinsert
p187
I42
VSimpleName: sleep
p188
tp189
a(Vinsert
p190
I42
VSimpleName: ltrim
p191
tp192
a(Vinsert
p193
I42
VSimpleName: forName
p194
tp195
a(Vinsert
p196
I42
VSimpleName: isEmpty
p197
tp198
a(Vinsert
p199
I42
VSimpleName: pfmerge
p200
tp201
a(Vinsert
p202
I42
VSimpleName: name
p203
tp204
a(Vinsert
p205
I42
VSimpleName: linsert
p206
tp207
a(Vinsert
p208
I42
VSimpleName: getExpx
p209
tp210
a(Vinsert
p211
I42
VSimpleName: zscan
p212
tp213
a(Vinsert
p214
I42
VSimpleName: bitpos
p215
tp216
a(Vinsert
p217
I42
VSimpleName: pttl
p218
tp219
a(Vinsert
p220
I42
VSimpleName: getCause
p221
tp222
a(Vinsert
p223
I42
VSimpleName: bitfield
p224
tp225
a(Vinsert
p226
I42
VSimpleName: hash
p227
tp228
a(Vinsert
p229
I42
VSimpleName: configSet
p230
tp231
a(Vinsert
p232
I42
VSimpleName: del
p233
tp234
a(Vinsert
p235
I42
VSimpleName: compareList
p236
tp237
a(Vinsert
p238
I42
VSimpleName: watch
p239
tp240
a(Vinsert
p241
I42
VSimpleName: moduleList
p242
tp243
a(Vinsert
p244
I42
VSimpleName: getAvailableSlots
p245
tp246
a(Vinsert
p247
I42
VSimpleName: trim
p248
tp249
a(Vinsert
p250
I42
VSimpleName: getHost
p251
tp252
a(Vinsert
p253
I42
VSimpleName: setBlockWhenExhausted
p254
tp255
a(Vinsert
p256
I42
VSimpleName: unwatch
p257
tp258
a(Vinsert
p259
I42
VSimpleName: poll
p260
tp261
a(Vinsert
p262
I42
VSimpleName: getMany
p263
tp264
a(Vinsert
p265
I42
VSimpleName: renewSlotCache
p266
tp267
a(Vinsert
p268
I42
VSimpleName: rollbackTimeout
p269
tp270
a(Vinsert
p271
I42
VSimpleName: matcher
p272
tp273
a(Vinsert
p274
I42
VSimpleName: clusterSlaves
p275
tp276
a(Vinsert
p277
I42
VSimpleName: pipelined
p278
tp279
a(Vinsert
p280
I42
VSimpleName: getCursor
p281
tp282
a(Vinsert
p283
I42
VSimpleName: hasPipelinedResponse
p284
tp285
a(Vinsert
p286
I42
VSimpleName: entrySet
p287
tp288
a(Vinsert
p289
I42
VSimpleName: getConnection
p290
tp291
a(Vinsert
p292
I42
VSimpleName: clusterNodes
p293
tp294
a(Vinsert
p295
I42
VSimpleName: getResourcesReturned
p296
tp297
a(Vinsert
p298
I42
VSimpleName: llen
p299
tp300
a(Vinsert
p301
I42
VSimpleName: select
p302
tp303
a(Vinsert
p304
I42
VSimpleName: save
p305
tp306
a(Vinsert
p307
I42
VSimpleName: length
p308
tp309
a(Vinsert
p310
I42
VSimpleName: getScore
p311
tp312
a(Vinsert
p313
I42
VSimpleName: bitcount
p314
tp315
a(Vinsert
p316
I42
VSimpleName: getBinaryBulkReply
p317
tp318
a(Vinsert
p319
I42
VSimpleName: getIntegerReply
p320
tp321
a(Vinsert
p322
I42
VSimpleName: disconnect
p323
tp324
a(Vinsert
p325
I42
VSimpleName: zinterstore
p326
tp327
a(Vinsert
p328
I42
VSimpleName: zrank
p329
tp330
a(Vinsert
p331
I42
VSimpleName: fine
p332
tp333
a(Vinsert
p334
I42
VSimpleName: equalsIgnoreCase
p335
tp336
a(Vinsert
p337
I42
VSimpleName: setEndpointIdentificationAlgorithm
p338
tp339
a(Vinsert
p340
I42
VSimpleName: srandmember
p341
tp342
a(Vinsert
p343
I42
VSimpleName: debug
p344
tp345
a(Vinsert
p346
I42
VSimpleName: emptySet
p347
tp348
a(Vinsert
p349
I42
VSimpleName: zaddBinary
p350
tp351
a(Vinsert
p352
I42
VSimpleName: sscan
p353
tp354
a(Vinsert
p355
I42
VSimpleName: setTcpNoDelay
p356
tp357
a(Vinsert
p358
I42
VSimpleName: getObjectMultiBulkReply
p359
tp360
a(Vinsert
p361
I42
VSimpleName: objectIdletime
p362
tp363
a(Vinsert
p364
I42
VSimpleName: sendCommand
p365
tp366
a(Vinsert
p367
I42
VSimpleName: currentTimeMillis
p368
tp369
a(Vinsert
p370
I42
VSimpleName: sismember
p371
tp372
a(Vinsert
p373
I42
VSimpleName: returnBrokenResource
p374
tp375
a(Vinsert
p376
I42
VSimpleName: zremrangeByScore
p377
tp378
a(Vinsert
p379
I42
VSimpleName: brpoplpush
p380
tp381
a(Vinsert
p382
I42
VSimpleName: clear
p383
tp384
a(Vinsert
p385
I42
VSimpleName: returnConnection
p386
tp387
a(Vinsert
p388
I42
VSimpleName: getrange
p389
tp390
a(Vinsert
p391
I42
VSimpleName: order
p392
tp393
a(Vinsert
p394
I42
VSimpleName: valueOf
p395
tp396
a(Vinsert
p397
I42
VSimpleName: getAllShards
p398
tp399
a(Vinsert
p400
I42
VSimpleName: dbSize
p401
tp402
a(Vinsert
p403
I42
VSimpleName: rpushx
p404
tp405
a(Vinsert
p406
I42
VSimpleName: setTestOnBorrow
p407
tp408
a(Vinsert
p409
I42
VSimpleName: parseInt
p410
tp411
a(Vinsert
p412
I42
VSimpleName: bgsave
p413
tp414
a(Vinsert
p415
I42
VSimpleName: toArray
p416
tp417
a(Vinsert
p418
I42
VSimpleName: encodeMany
p419
tp420
a(Vinsert
p421
I42
VSimpleName: slowlogGet
p422
tp423
a(Vinsert
p424
I42
VSimpleName: rename
p425
tp426
a(Vinsert
p427
I42
VSimpleName: getNumActive
p428
tp429
a(Vinsert
p430
I42
VSimpleName: blpop
p431
tp432
a(Vinsert
p433
I42
VSimpleName: scriptExists
p434
tp435
a(Vinsert
p436
I42
VSimpleName: getName
p437
tp438
a(Vinsert
p439
I42
VSimpleName: getKeyTag
p440
tp441
a(Vinsert
p442
I42
VSimpleName: sentinelSlaves
p443
tp444
a(Vinsert
p445
I42
VSimpleName: time
p446
tp447
a(Vinsert
p448
I42
VSimpleName: run
p449
tp450
a(Vinsert
p451
I42
VSimpleName: cluster
p452
tp453
a(Vinsert
p454
I42
VSimpleName: assignSlotToNode
p455
tp456
a(Vinsert
p457
I42
VSimpleName: getCommand
p458
tp459
a(Vinsert
p460
I42
VSimpleName: brpop
p461
tp462
a(Vinsert
p463
I42
VSimpleName: discard
p464
tp465
a(Vinsert
p466
I42
VSimpleName: ttl
p467
tp468
a(Vinsert
p469
I42
VSimpleName: lastsave
p470
tp471
a(Vinsert
p472
I42
VSimpleName: setClient
p473
tp474
a(Vinsert
p475
I42
VSimpleName: getLogger
p476
tp477
a(Vinsert
p478
I42
VSimpleName: print
p479
tp480
a(Vinsert
p481
I42
VSimpleName: setPort
p482
tp483
a(Vinsert
p484
I42
VSimpleName: containsKey
p485
tp486
a(Vinsert
p487
I42
VSimpleName: create
p488
tp489
a(Vinsert
p490
I42
VSimpleName: move
p491
tp492
a(Vinsert
p493
I42
VSimpleName: setResourcesNumber
p494
tp495
a(Vinsert
p496
I42
VSimpleName: spop
p497
tp498
a(Vinsert
p499
I42
VSimpleName: waitReplicas
p500
tp501
a(Vinsert
p502
I42
VSimpleName: strlen
p503
tp504
a(Vinsert
p505
I42
VSimpleName: isValid
p506
tp507
a(Vinsert
p508
I42
VSimpleName: getBulkReply
p509
tp510
a(Vinsert
p511
I42
VSimpleName: zcount
p512
tp513
a(Vinsert
p514
I42
VSimpleName: getAll
p515
tp516
a(Vinsert
p517
I42
VSimpleName: clusterReset
p518
tp519
a(Vinsert
p520
I42
VSimpleName: pexpireAt
p521
tp522
a(Vinsert
p523
I42
VSimpleName: println
p524
tp525
a(Vinsert
p526
I42
VSimpleName: scriptLoad
p527
tp528
a(Vinsert
p529
I42
VSimpleName: getShard
p530
tp531
a(Vinsert
p532
I42
VSimpleName: flush
p533
tp534
a(Vinsert
p535
I42
VSimpleName: setDependency
p536
tp537
a(Vinsert
p538
I42
VSimpleName: zadd
p539
tp540
a(Vinsert
p541
I42
VSimpleName: isClusterCompliantMatchPattern
p542
tp543
a(Vinsert
p544
I42
VSimpleName: getDB
p545
tp546
a(Vinsert
p547
I42
VSimpleName: zrangeByScore
p548
tp549
a(Vinsert
p550
I42
VSimpleName: isClosed
p551
tp552
a(Vinsert
p553
I42
VSimpleName: set
p554
tp555
a(Vinsert
p556
I42
VSimpleName: getMultiBulkReply
p557
tp558
a(Vinsert
p559
I42
VSimpleName: newEncoder
p560
tp561
a(Vinsert
p562
I42
VSimpleName: startsWith
p563
tp564
a(Vinsert
p565
I42
VSimpleName: bgrewriteaof
p566
tp567
a(Vinsert
p568
I42
VSimpleName: setDb
p569
tp570
a(Vinsert
p571
I42
VSimpleName: append
p572
tp573
a(Vinsert
p574
I42
VSimpleName: getbit
p575
tp576
a(Vinsert
p577
I42
VSimpleName: configResetStat
p578
tp579
a(Vinsert
p580
I42
VSimpleName: setPassword
p581
tp582
a(Vinsert
p583
I42
VSimpleName: setbit
p584
tp585
a(Vinsert
p586
I42
VSimpleName: getDefault
p587
tp588
a(Vinsert
p589
I42
VSimpleName: hstrlen
p590
tp591
a(Vinsert
p592
I42
VSimpleName: zrangeByScoreWithScores
p593
tp594
a(Vinsert
p595
I42
VSimpleName: syncAndReturnAll
p596
tp597
a(Vinsert
p598
I42
VSimpleName: warning
p599
tp600
a(Vinsert
p601
I42
VSimpleName: setDataSource
p602
tp603
a(Vinsert
p604
I42
VSimpleName: merge
p605
tp606
a(Vinsert
p607
I42
VSimpleName: zrevrangeByScoreWithScores
p608
tp609
a(Vinsert
p610
I42
VSimpleName: zscore
p611
tp612
a(Vinsert
p613
I42
VSimpleName: match
p614
tp615
a(Vinsert
p616
I42
VSimpleName: floorEntry
p617
tp618
a(Vinsert
p619
I42
VSimpleName: clusterAddSlots
p620
tp621
a(Vinsert
p622
I42
VSimpleName: getPort
p623
tp624
a(Vinsert
p625
I42
VSimpleName: geopos
p626
tp627
a(Vinsert
p628
I42
VSimpleName: sentinelFailover
p629
tp630
a(Vinsert
p631
I42
VSimpleName: printStackTrace
p632
tp633
a(Vinsert
p634
I42
VSimpleName: isListAreEquals
p635
tp636
a(Vinsert
p637
I42
VSimpleName: sort
p638
tp639
a(Vinsert
p640
I42
VSimpleName: setHost
p641
tp642
a(Vinsert
p643
I42
VSimpleName: isInMulti
p644
tp645
a(Vinsert
p646
I42
VSimpleName: equals
p647
tp648
a(Vinsert
p649
I42
VSimpleName: asking
p650
tp651
a(Vinsert
p652
I42
VSimpleName: info
p653
tp654
a(Vinsert
p655
I42
VSimpleName: by
p656
tp657
a(Vinsert
p658
I42
VSimpleName: renamenx
p659
tp660
a(Vinsert
p661
I42
VSimpleName: getStatusCodeReply
p662
tp663
a(Vinsert
p664
I42
VSimpleName: lrem
p665
tp666
a(Vinsert
p667
I42
VSimpleName: of
p668
tp669
a(Vinsert
p670
I42
VSimpleName: write
p671
tp672
a(Vinsert
p673
I42
VSimpleName: objectEncoding
p674
tp675
a(Vinsert
p676
I42
VSimpleName: put
p677
tp678
a(Vinsert
p679
I42
VSimpleName: add
p680
tp681
a(Vinsert
p682
I42
VSimpleName: assertEquals
p683
tp684
a(Vinsert
p685
I42
VSimpleName: getNodes
p686
tp687
a(Vinsert
p688
I42
VSimpleName: isConnected
p689
tp690
a(Vinsert
p691
I42
VSimpleName: getSlot
p692
tp693
a(Vinsert
p694
I42
VSimpleName: indexOf
p695
tp696
a(Vinsert
p697
I42
VSimpleName: returnBrokenConnection
p698
tp699
a(Vinsert
p700
I42
VSimpleName: readLine
p701
tp702
a(Vinsert
p703
I42
VSimpleName: resetPipelinedCount
p704
tp705
a(Vinsert
p706
I42
VSimpleName: clusterDelSlots
p707
tp708
a(Vinsert
p709
I42
VSimpleName: clusterCountKeysInSlot
p710
tp711
a(Vinsert
p712
I42
VSimpleName: getScheme
p713
tp714
a(Vinsert
p715
I42
VSimpleName: split
p716
tp717
a(Vinsert
p718
I42
VSimpleName: slaveof
p719
tp720
a(Vinsert
p721
I42
VSimpleName: readonly
p722
tp723
a(Vinsert
p724
I42
VSimpleName: getCurrentHostMaster
p725
tp726
a(Vinsert
p727
I42
VSimpleName: moduleUnload
p728
tp729
a(Vinsert
p730
I42
VSimpleName: returnResource
p731
tp732
a(Vinsert
p733
I42
VSimpleName: getWeight
p734
tp735
a(Vinsert
p736
I42
VSimpleName: getTimeInMillis
p737
tp738
a(Vinsert
p739
I42
VSimpleName: getSingleLineReply
p740
tp741
a(Vinsert
p742
I42
VSimpleName: getKey
p743
tp744
a(Vinsert
p745
I42
VSimpleName: ex
p746
tp747
a(Vinsert
p748
I42
VSimpleName: incrByFloat
p749
tp750
a(Vinsert
p751
I42
VSimpleName: pubSubNumPat
p752
tp753
a(Vinsert
p754
I42
VSimpleName: unlink
p755
tp756
a(Vinsert
p757
I42
VSimpleName: hscan
p758
tp759
a(Vinsert
p760
I42
VSimpleName: readByte
p761
tp762
a(Vinsert
p763
I42
VSimpleName: clusterMeet
p764
tp765
a(Vinsert
p766
I42
VSimpleName: monitor
p767
tp768
a(Vinsert
p769
I42
VSimpleName: resetState
p770
tp771
a(Vinsert
p772
I42
VSimpleName: clientList
p773
tp774
a(Vinsert
p775
I42
VSimpleName: getBytes
p776
tp777
a(Vinsert
p778
I42
VSimpleName: iterator
p779
tp780
a(Vinsert
p781
I42
VSimpleName: getMessage
p782
tp783
a(Vinsert
p784
I42
VSimpleName: smembers
p785
tp786
a(Vinsert
p787
I42
VSimpleName: pexpire
p788
tp789
a(Vinsert
p790
I42
VSimpleName: getByteParams
p791
tp792
a(Vinsert
p793
I42
VSimpleName: flushDB
p794
tp795
a(Vinsert
p796
I42
VSimpleName: msetnx
p797
tp798
a(Vinsert
p799
I42
VSimpleName: assertArrayEquals
p800
tp801
a(Vinsert
p802
I42
VSimpleName: unsubscribe
p803
tp804
a(Vinsert
p805
I42
VSimpleName: flushAll
p806
tp807
a(Vinsert
p808
I42
VSimpleName: arraycopy
p809
tp810
a(Vinsert
p811
I42
VSimpleName: shutdown
p812
tp813
a(Vinsert
p814
I42
VSimpleName: getClusterNodes
p815
tp816
a(Vinsert
p817
I42
VSimpleName: sdiff
p818
tp819
a(Vinsert
p820
I42
VSimpleName: lset
p821
tp822
a(Vinsert
p823
I42
VSimpleName: getTestOnBorrow
p824
tp825
a(Vinsert
p826
I42
VSimpleName: intValue
p827
tp828
a(Vinsert
p829
I42
VSimpleName: lpush
p830
tp831
a(Vinsert
p832
I42
VSimpleName: getSlotPool
p833
tp834
a(Vinsert
p835
I42
VSimpleName: join
p836
tp837
a(Vinsert
p838
I42
VSimpleName: longValue
p839
tp840
a(Vinsert
p841
I42
VSimpleName: sync
p842
tp843
a(Vinsert
p844
I42
VSimpleName: submit
p845
tp846
a(Vinsert
p847
I42
VSimpleName: hashCode
p848
tp849
a(Vinsert
p850
I42
VSimpleName: auth
p851
tp852
a(Vinsert
p853
I42
VSimpleName: isSetAreEquals
p854
tp855
a(Vinsert
p856
I42
VSimpleName: singleton
p857
tp858
a(Vinsert
p859
I42
VSimpleName: addObject
p860
tp861
a(Vinsert
p862
I42
VSimpleName: setTimeoutInfinite
p863
tp864
a(Vinsert
p865
I42
VSimpleName: persist
p866
tp867
a(Vinsert
p868
I42
VSimpleName: getClusterServers
p869
tp870
a(Vinsert
p871
I42
VSimpleName: getShardInfo
p872
tp873
a(Vinsert
p874
I42
VSimpleName: size
p875
tp876
a(Vinsert
p877
I42
VSimpleName: getDBIndex
p878
tp879
a(Vinsert
p880
I42
VSimpleName: lock
p881
tp882
a(Vinsert
p883
I42
VSimpleName: hset
p884
tp885
a(Vinsert
p886
I42
VSimpleName: restore
p887
tp888
a(Vinsert
p889
I42
VSimpleName: zlexcount
p890
tp891
a(Vinsert
p892
I42
VSimpleName: configGet
p893
tp894
a(Vinsert
p895
I42
VSimpleName: addAll
p896
tp897
a(Vinsert
p898
I42
VSimpleName: lrange
p899
tp900
a(Vinsert
p901
I42
VSimpleName: setSoTimeout
p902
tp903
a(Vinsert
p904
I42
VSimpleName: toString
p905
tp906
a(Vinsert
p907
I42
VSimpleName: getResource
p908
tp909
a(Vinsert
p910
I42
VSimpleName: start
p911
tp912
a(Vinsert
p913
I42
VSimpleName: multi
p914
tp915
a(Vinsert
p916
I42
VSimpleName: clientSetname
p917
tp918
a(Vinsert
p919
I42
VSimpleName: pfadd
p920
tp921
a(Vinsert
p922
I42
VSimpleName: getInstance
p923
tp924
a(Vinsert
p925
I42
VSimpleName: setConnectionTimeout
p926
tp927
a(Vinsert
p928
I42
VSimpleName: zrem
p929
tp930
a(Vinsert
p931
I42
VSimpleName: setrange
p932
tp933
a(Vinsert
p934
I42
VSimpleName: clusterSlots
p935
tp936
a(Vinsert
p937
I42
VSimpleName: scan
p938
tp939
a(Vinsert
p940
I42
VSimpleName: charAt
p941
tp942
a(Vinsert
p943
I42
VSimpleName: close
p944
tp945
a(Vinsert
p946
I42
VSimpleName: getConnectionFromSlot
p947
tp948
a(Vinsert
p949
I42
VSimpleName: dump
p950
tp951
a(Vinsert
p952
I42
VSimpleName: exists
p953
tp954
a(Vinsert
p955
I42
VSimpleName: hgetAll
p956
tp957
a(Vinsert
p958
I42
VSimpleName: compareTo
p959
tp960
a(Vinsert
p961
I42
VSimpleName: touch
p962
tp963
a(Vinsert
p964
I42
VSimpleName: format
p965
tp966
a(Vinsert
p967
I42
VSimpleName: setAccessible
p968
tp969
a(Vinsert
p970
I42
VSimpleName: moduleLoad
p971
tp972
a.