(lp0
(Vinsert
p1
I42
VSimpleName: isAggressiveLazyLoading
p2
tp3
a(Vinsert
p4
I42
VSimpleName: setDefaultEnumTypeHandler
p5
tp6
a(Vinsert
p7
I42
VSimpleName: getField
p8
tp9
a(Vinsert
p10
I42
VSimpleName: assertNull
p11
tp12
a(Vinsert
p13
I42
VSimpleName: parameterize
p14
tp15
a(Vinsert
p16
I42
VSimpleName: isStatic
p17
tp18
a(Vinsert
p19
I42
VSimpleName: unmodifiableList
p20
tp21
a(Vinsert
p22
I42
VSimpleName: unwrapThrowable
p23
tp24
a(Vinsert
p25
I42
VSimpleName: getChildrenAsProperties
p26
tp27
a(Vinsert
p28
I42
VSimpleName: setQueryTimeout
p29
tp30
a(Vinsert
p31
I42
VSimpleName: findForClass
p32
tp33
a(Vinsert
p34
I42
VSimpleName: getMappedColumnNames
p35
tp36
a(Vinsert
p37
I42
VSimpleName: getInterfaces
p38
tp39
a(Vinsert
p40
I42
VSimpleName: expect
p41
tp42
a(Vinsert
p43
I42
VSimpleName: isEmpty
p44
tp45
a(Vinsert
p46
I42
VSimpleName: setDefaultDriverClass
p47
tp48
a(Vinsert
p49
I42
VSimpleName: getWarnings
p50
tp51
a(Vinsert
p52
I42
VSimpleName: prepareSelectOneAuthorMappedStatement
p53
tp54
a(Vinsert
p55
I42
VSimpleName: isAnnotationPresent
p56
tp57
a(Vinsert
p58
I42
VSimpleName: transactionFactory
p59
tp60
a(Vinsert
p61
I42
VSimpleName: parseScriptNode
p62
tp63
a(Vinsert
p64
I42
VSimpleName: println
p65
tp66
a(Vinsert
p67
I42
VSimpleName: getOffset
p68
tp69
a(Vinsert
p70
I42
VSimpleName: getenv
p71
tp72
a(Vinsert
p73
I42
VSimpleName: entrySet
p74
tp75
a(Vinsert
p76
I42
VSimpleName: getConnection
p77
tp78
a(Vinsert
p79
I42
VSimpleName: isNull
p80
tp81
a(Vinsert
p82
I42
VSimpleName: resultSets
p83
tp84
a(Vinsert
p85
I42
VSimpleName: getVariables
p86
tp87
a(Vinsert
p88
I42
VSimpleName: openSession
p89
tp90
a(Vinsert
p91
I42
VSimpleName: evaluateBoolean
p92
tp93
a(Vinsert
p94
I42
VSimpleName: nestedQueryId
p95
tp96
a(Vinsert
p97
I42
VSimpleName: getDeclaredConstructors
p98
tp99
a(Vinsert
p100
I42
VSimpleName: getProxyFactory
p101
tp102
a(Vinsert
p103
I42
VSimpleName: newProxyFactory
p104
tp105
a(Vinsert
p106
I42
VSimpleName: countTokens
p107
tp108
a(Vinsert
p109
I42
VSimpleName: getMap
p110
tp111
a(Vinsert
p112
I42
VSimpleName: setAccessible
p113
tp114
a(Vinsert
p115
I42
VSimpleName: getFloat
p116
tp117
a(Vinsert
p118
I42
VSimpleName: delete
p119
tp120
a(Vinsert
p121
I42
VSimpleName: findOneUsingConstructor
p122
tp123
a(Vinsert
p124
I42
VSimpleName: checking
p125
tp126
a(Vinsert
p127
I42
VSimpleName: unmodifiableSortedMap
p128
tp129
a(Vinsert
p130
I42
VSimpleName: isMemberClass
p131
tp132
a(Vinsert
p133
I42
VSimpleName: isCaseSensitive
p134
tp135
a(Vinsert
p136
I42
VSimpleName: getShort
p137
tp138
a(Vinsert
p139
I42
VSimpleName: getUrl
p140
tp141
a(Vinsert
p142
I42
VSimpleName: invoke
p143
tp144
a(Vinsert
p145
I42
VSimpleName: expectMessage
p146
tp147
a(Vinsert
p148
I42
VSimpleName: clearLocalCache
p149
tp150
a(Vinsert
p151
I42
VSimpleName: getInt
p152
tp153
a(Vinsert
p154
I42
VSimpleName: getTypeHandlerRegistry
p155
tp156
a(Vinsert
p157
I42
VSimpleName: queryCursor
p158
tp159
a(Vinsert
p160
I42
VSimpleName: getTypeHandler
p161
tp162
a(Vinsert
p163
I42
VSimpleName: getAListOfMaps
p164
tp165
a(Vinsert
p166
I42
VSimpleName: isTrue
p167
tp168
a(Vinsert
p169
I42
VSimpleName: selectBlogsWithAutors
p170
tp171
a(Vinsert
p172
I42
VSimpleName: defaultCharset
p173
tp174
a(Vinsert
p175
I42
VSimpleName: isClosed
p176
tp177
a(Vinsert
p178
I42
VSimpleName: fetchSize
p179
tp180
a(Vinsert
p181
I42
VSimpleName: startsWith
p182
tp183
a(Vinsert
p184
I42
VSimpleName: getTitle
p185
tp186
a(Vinsert
p187
I42
VSimpleName: getUserWithPhoneNumber
p188
tp189
a(Vinsert
p190
I42
VSimpleName: selectVelocityWithMapper
p191
tp192
a(Vinsert
p193
I42
VSimpleName: nextResultObject
p194
tp195
a(Vinsert
p196
I42
VSimpleName: rollback
p197
tp198
a(Vinsert
p199
I42
VSimpleName: getJavaType
p200
tp201
a(Vinsert
p202
I42
VSimpleName: remove
p203
tp204
a(Vinsert
p205
I42
VSimpleName: javaType
p206
tp207
a(Vinsert
p208
I42
VSimpleName: merge
p209
tp210
a(Vinsert
p211
I42
VSimpleName: getNestedResultMapId
p212
tp213
a(Vinsert
p214
I42
VSimpleName: getDoubleValue
p215
tp216
a(Vinsert
p217
I42
VSimpleName: fill
p218
tp219
a(Vinsert
p220
I42
VSimpleName: getMappers
p221
tp222
a(Vinsert
p223
I42
VSimpleName: insert2
p224
tp225
a(Vinsert
p226
I42
VSimpleName: applyCurrentNamespace
p227
tp228
a(Vinsert
p229
I42
VSimpleName: getPosts
p230
tp231
a(Vinsert
p232
I42
VSimpleName: getComments
p233
tp234
a(Vinsert
p235
I42
VSimpleName: indexOf
p236
tp237
a(Vinsert
p238
I42
VSimpleName: insertAuthor
p239
tp240
a(Vinsert
p241
I42
VSimpleName: setLazyLoadingEnabled
p242
tp243
a(Vinsert
p244
I42
VSimpleName: split
p245
tp246
a(Vinsert
p247
I42
VSimpleName: getAnnotation
p248
tp249
a(Vinsert
p250
I42
VSimpleName: selectBlog
p251
tp252
a(Vinsert
p253
I42
VSimpleName: isReturnInstanceForEmptyRow
p254
tp255
a(Vinsert
p256
I42
VSimpleName: getMessageFactory
p257
tp258
a(Vinsert
p259
I42
VSimpleName: getNString
p260
tp261
a(Vinsert
p262
I42
VSimpleName: fromString
p263
tp264
a(Vinsert
p265
I42
VSimpleName: forClass
p266
tp267
a(Vinsert
p268
I42
VSimpleName: getMarker
p269
tp270
a(Vinsert
p271
I42
VSimpleName: getBindings
p272
tp273
a(Vinsert
p274
I42
VSimpleName: getLocalCacheScope
p275
tp276
a(Vinsert
p277
I42
VSimpleName: isSafeRowBoundsEnabled
p278
tp279
a(Vinsert
p280
I42
VSimpleName: id
p281
tp282
a(Vinsert
p283
I42
VSimpleName: commit
p284
tp285
a(Vinsert
p286
I42
VSimpleName: value
p287
tp288
a(Vinsert
p289
I42
VSimpleName: isTraceEnabled
p290
tp291
a(Vinsert
p292
I42
VSimpleName: forCode
p293
tp294
a(Vinsert
p295
I42
VSimpleName: isEqualTo
p296
tp297
a(Vinsert
p298
I42
VSimpleName: getObject
p299
tp300
a(Vinsert
p301
I42
VSimpleName: setStopOnError
p302
tp303
a(Vinsert
p304
I42
VSimpleName: addResource
p305
tp306
a(Vinsert
p307
I42
VSimpleName: many
p308
tp309
a(Vinsert
p310
I42
VSimpleName: getTransactionFactory
p311
tp312
a(Vinsert
p313
I42
VSimpleName: parse
p314
tp315
a(Vinsert
p316
I42
VSimpleName: hashCode
p317
tp318
a(Vinsert
p319
I42
VSimpleName: getStringAttribute
p320
tp321
a(Vinsert
p322
I42
VSimpleName: insertIdentity
p323
tp324
a(Vinsert
p325
I42
VSimpleName: newXNode
p326
tp327
a(Vinsert
p328
I42
VSimpleName: getColumnCount
p329
tp330
a(Vinsert
p331
I42
VSimpleName: byteValue
p332
tp333
a(Vinsert
p334
I42
VSimpleName: wrapException
p335
tp336
a(Vinsert
p337
I42
VSimpleName: replaceAll
p338
tp339
a(Vinsert
p340
I42
VSimpleName: applyTransactionTimeout
p341
tp342
a(Vinsert
p343
I42
VSimpleName: keySet
p344
tp345
a(Vinsert
p346
I42
VSimpleName: getClasses
p347
tp348
a(Vinsert
p349
I42
VSimpleName: toUpperCase
p350
tp351
a(Vinsert
p352
I42
VSimpleName: parseStatementNode
p353
tp354
a(Vinsert
p355
I42
VSimpleName: getIndexedName
p356
tp357
a(Vinsert
p358
I42
VSimpleName: getReverseTypeHandler
p359
tp360
a(Vinsert
p361
I42
VSimpleName: thenReturn
p362
tp363
a(Vinsert
p364
I42
VSimpleName: isPrimitive
p365
tp366
a(Vinsert
p367
I42
VSimpleName: setLong
p368
tp369
a(Vinsert
p370
I42
VSimpleName: isAnonymousClass
p371
tp372
a(Vinsert
p373
I42
VSimpleName: setPoolPingEnabled
p374
tp375
a(Vinsert
p376
I42
VSimpleName: lastIndexOf
p377
tp378
a(Vinsert
p379
I42
VSimpleName: getOrderDetailsWithHeadersAnnotationBased
p380
tp381
a(Vinsert
p382
I42
VSimpleName: assertTrue
p383
tp384
a(Vinsert
p385
I42
VSimpleName: getGroups
p386
tp387
a(Vinsert
p388
I42
VSimpleName: error
p389
tp390
a(Vinsert
p391
I42
VSimpleName: isResultOrdered
p392
tp393
a(Vinsert
p394
I42
VSimpleName: getActualTypeArguments
p395
tp396
a(Vinsert
p397
I42
VSimpleName: getResourceAsStream
p398
tp399
a(Vinsert
p400
I42
VSimpleName: setEntityResolver
p401
tp402
a(Vinsert
p403
I42
VSimpleName: getAutoCommit
p404
tp405
a(Vinsert
p406
I42
VSimpleName: getResultMap
p407
tp408
a(Vinsert
p409
I42
VSimpleName: getLog
p410
tp411
a(Vinsert
p412
I42
VSimpleName: setInjectionFilter
p413
tp414
a(Vinsert
p415
I42
VSimpleName: setLastUsedTimestamp
p416
tp417
a(Vinsert
p418
I42
VSimpleName: getClass
p419
tp420
a(Vinsert
p421
I42
VSimpleName: insertNameAnnotated
p422
tp423
a(Vinsert
p424
I42
VSimpleName: getNameOnlyMapped
p425
tp426
a(Vinsert
p427
I42
VSimpleName: keyProperty
p428
tp429
a(Vinsert
p430
I42
VSimpleName: multiResultsWithUpdate
p431
tp432
a(Vinsert
p433
I42
VSimpleName: currentThread
p434
tp435
a(Vinsert
p436
I42
VSimpleName: lazy
p437
tp438
a(Vinsert
p439
I42
VSimpleName: getColumnClassName
p440
tp441
a(Vinsert
p442
I42
VSimpleName: blocking
p443
tp444
a(Vinsert
p445
I42
VSimpleName: isSameAs
p446
tp447
a(Vinsert
p448
I42
VSimpleName: newStatementHandler
p449
tp450
a(Vinsert
p451
I42
VSimpleName: getGenericSuperclass
p452
tp453
a(Vinsert
p454
I42
VSimpleName: parseExpression
p455
tp456
a(Vinsert
p457
I42
VSimpleName: methodToProperty
p458
tp459
a(Vinsert
p460
I42
VSimpleName: addParameterObject
p461
tp462
a(Vinsert
p463
I42
VSimpleName: select
p464
tp465
a(Vinsert
p466
I42
VSimpleName: getSmallnumber
p467
tp468
a(Vinsert
p469
I42
VSimpleName: bind
p470
tp471
a(Vinsert
p472
I42
VSimpleName: extractRowBounds
p473
tp474
a(Vinsert
p475
I42
VSimpleName: getColumnNames
p476
tp477
a(Vinsert
p478
I42
VSimpleName: isDynamic
p479
tp480
a(Vinsert
p481
I42
VSimpleName: getResultMaps
p482
tp483
a(Vinsert
p484
I42
VSimpleName: getUsersFromList
p485
tp486
a(Vinsert
p487
I42
VSimpleName: selectAllNoFlush
p488
tp489
a(Vinsert
p490
I42
VSimpleName: instance
p491
tp492
a(Vinsert
p493
I42
VSimpleName: stop
p494
tp495
a(Vinsert
p496
I42
VSimpleName: clear
p497
tp498
a(Vinsert
p499
I42
VSimpleName: keyColumn
p500
tp501
a(Vinsert
p502
I42
VSimpleName: selectRangeBlogsAsMapById
p503
tp504
a(Vinsert
p505
I42
VSimpleName: getProperty
p506
tp507
a(Vinsert
p508
I42
VSimpleName: toArray
p509
tp510
a(Vinsert
p511
I42
VSimpleName: selectMap
p512
tp513
a(Vinsert
p514
I42
VSimpleName: getUsersMap2
p515
tp516
a(Vinsert
p517
I42
VSimpleName: setId
p518
tp519
a(Vinsert
p520
I42
VSimpleName: getReturnType
p521
tp522
a(Vinsert
p523
I42
VSimpleName: getBoundSql
p524
tp525
a(Vinsert
p526
I42
VSimpleName: getParameterTypes
p527
tp528
a(Vinsert
p529
I42
VSimpleName: containsKey
p530
tp531
a(Vinsert
p532
I42
VSimpleName: parseStatement
p533
tp534
a(Vinsert
p535
I42
VSimpleName: getCurrentNamespace
p536
tp537
a(Vinsert
p538
I42
VSimpleName: getDatabaseId
p539
tp540
a(Vinsert
p541
I42
VSimpleName: getCoAuthor
p542
tp543
a(Vinsert
p544
I42
VSimpleName: getDefaultStatementTimeout
p545
tp546
a(Vinsert
p547
I42
VSimpleName: setLastName
p548
tp549
a(Vinsert
p550
I42
VSimpleName: createCacheKey
p551
tp552
a(Vinsert
p553
I42
VSimpleName: selectById
p554
tp555
a(Vinsert
p556
I42
VSimpleName: append
p557
tp558
a(Vinsert
p559
I42
VSimpleName: useCacheRef
p560
tp561
a(Vinsert
p562
I42
VSimpleName: selectList
p563
tp564
a(Vinsert
p565
I42
VSimpleName: size
p566
tp567
a(Vinsert
p568
I42
VSimpleName: setDefaultFetchSize
p569
tp570
a(Vinsert
p571
I42
VSimpleName: getBio
p572
tp573
a(Vinsert
p574
I42
VSimpleName: resolveReturnType
p575
tp576
a(Vinsert
p577
I42
VSimpleName: getOriginalObject
p578
tp579
a(Vinsert
p580
I42
VSimpleName: findProperty
p581
tp582
a(Vinsert
p583
I42
VSimpleName: getAutoMappingUnknownColumnBehavior
p584
tp585
a(Vinsert
p586
I42
VSimpleName: wasNull
p587
tp588
a(Vinsert
p589
I42
VSimpleName: evalNode
p590
tp591
a(Vinsert
p592
I42
VSimpleName: store
p593
tp594
a(Vinsert
p595
I42
VSimpleName: isCallSettersOnNulls
p596
tp597
a(Vinsert
p598
I42
VSimpleName: getMappedStatement
p599
tp600
a(Vinsert
p601
I42
VSimpleName: getClob
p602
tp603
a(Vinsert
p604
I42
VSimpleName: getIncompleteMethods
p605
tp606
a(Vinsert
p607
I42
VSimpleName: adder3
p608
tp609
a(Vinsert
p610
I42
VSimpleName: fail
p611
tp612
a(Vinsert
p613
I42
VSimpleName: selectBlogsWithAutorAndPostsEagerly
p614
tp615
a(Vinsert
p616
I42
VSimpleName: assertEquals
p617
tp618
a(Vinsert
p619
I42
VSimpleName: isAssignableFrom
p620
tp621
a(Vinsert
p622
I42
VSimpleName: execute
p623
tp624
a(Vinsert
p625
I42
VSimpleName: hasSetter
p626
tp627
a(Vinsert
p628
I42
VSimpleName: getResult
p629
tp630
a(Vinsert
p631
I42
VSimpleName: assertFalse
p632
tp633
a(Vinsert
p634
I42
VSimpleName: length
p635
tp636
a(Vinsert
p637
I42
VSimpleName: isMapUnderscoreToCamelCase
p638
tp639
a(Vinsert
p640
I42
VSimpleName: getBytes
p641
tp642
a(Vinsert
p643
I42
VSimpleName: iterator
p644
tp645
a(Vinsert
p646
I42
VSimpleName: LEFT_OUTER_JOIN
p647
tp648
a(Vinsert
p649
I42
VSimpleName: getSuperclass
p650
tp651
a(Vinsert
p652
I42
VSimpleName: resulSets
p653
tp654
a(Vinsert
p655
I42
VSimpleName: setCallback
p656
tp657
a(Vinsert
p658
I42
VSimpleName: UPDATE
p659
tp660
a(Vinsert
p661
I42
VSimpleName: isInterface
p662
tp663
a(Vinsert
p664
I42
VSimpleName: find
p665
tp666
a(Vinsert
p667
I42
VSimpleName: getShippingAddress
p668
tp669
a(Vinsert
p670
I42
VSimpleName: singletonList
p671
tp672
a(Vinsert
p673
I42
VSimpleName: getLength
p674
tp675
a(Vinsert
p676
I42
VSimpleName: getCanonicalName
p677
tp678
a(Vinsert
p679
I42
VSimpleName: getMapperRegistry
p680
tp681
a(Vinsert
p682
I42
VSimpleName: insert
p683
tp684
a(Vinsert
p685
I42
VSimpleName: classForName
p686
tp687
a(Vinsert
p688
I42
VSimpleName: newInstance
p689
tp690
a(Vinsert
p691
I42
VSimpleName: replace
p692
tp693
a(Vinsert
p694
I42
VSimpleName: selectAllProducts
p695
tp696
a(Vinsert
p697
I42
VSimpleName: getUsersByNameUsingMap
p698
tp699
a(Vinsert
p700
I42
VSimpleName: getVfsImpl
p701
tp702
a(Vinsert
p703
I42
VSimpleName: getMethod
p704
tp705
a(Vinsert
p706
I42
VSimpleName: compile
p707
tp708
a(Vinsert
p709
I42
VSimpleName: toString
p710
tp711
a(Vinsert
p712
I42
VSimpleName: selectBlogsAsMapById
p713
tp714
a(Vinsert
p715
I42
VSimpleName: getDate
p716
tp717
a(Vinsert
p718
I42
VSimpleName: getKeyColumnNames
p719
tp720
a(Vinsert
p721
I42
VSimpleName: close
p722
tp723
a(Vinsert
p724
I42
VSimpleName: getGeneratedName
p725
tp726
a(Vinsert
p727
I42
VSimpleName: warn
p728
tp729
a(Vinsert
p730
I42
VSimpleName: processBatch
p731
tp732
a(Vinsert
p733
I42
VSimpleName: setInt
p734
tp735
a(Vinsert
p736
I42
VSimpleName: getTime
p737
tp738
a(Vinsert
p739
I42
VSimpleName: contains
p740
tp741
a(Vinsert
p742
I42
VSimpleName: emptyList
p743
tp744
a(Vinsert
p745
I42
VSimpleName: next
p746
tp747
a(Vinsert
p748
I42
VSimpleName: min
p749
tp750
a(Vinsert
p751
I42
VSimpleName: writeObject
p752
tp753
a(Vinsert
p754
I42
VSimpleName: setName
p755
tp756
a(Vinsert
p757
I42
VSimpleName: getLanguageRegistry
p758
tp759
a(Vinsert
p760
I42
VSimpleName: unmodifiableMap
p761
tp762
a(Vinsert
p763
I42
VSimpleName: log
p764
tp765
a(Vinsert
p766
I42
VSimpleName: setDefaultMapResultHandlerType
p767
tp768
a(Vinsert
p769
I42
VSimpleName: read
p770
tp771
a(Vinsert
p772
I42
VSimpleName: flushInterval
p773
tp774
a(Vinsert
p775
I42
VSimpleName: getArray
p776
tp777
a(Vinsert
p778
I42
VSimpleName: forName
p779
tp780
a(Vinsert
p781
I42
VSimpleName: start
p782
tp783
a(Vinsert
p784
I42
VSimpleName: unmodifiableCollection
p785
tp786
a(Vinsert
p787
I42
VSimpleName: debug
p788
tp789
a(Vinsert
p790
I42
VSimpleName: getNameId
p791
tp792
a(Vinsert
p793
I42
VSimpleName: update
p794
tp795
a(Vinsert
p796
I42
VSimpleName: setErrorLogWriter
p797
tp798
a(Vinsert
p799
I42
VSimpleName: getByte
p800
tp801
a(Vinsert
p802
I42
VSimpleName: getRawType
p803
tp804
a(Vinsert
p805
I42
VSimpleName: trim
p806
tp807
a(Vinsert
p808
I42
VSimpleName: selectAuthorLinkedHashMap
p809
tp810
a(Vinsert
p811
I42
VSimpleName: getSimpleName
p812
tp813
a(Vinsert
p814
I42
VSimpleName: addResultMap
p815
tp816
a(Vinsert
p817
I42
VSimpleName: cast
p818
tp819
a(Vinsert
p820
I42
VSimpleName: setFetchSize
p821
tp822
a(Vinsert
p823
I42
VSimpleName: INTO_COLUMNS
p824
tp825
a(Vinsert
p826
I42
VSimpleName: setProperty
p827
tp828
a(Vinsert
p829
I42
VSimpleName: registerAlias
p830
tp831
a(Vinsert
p832
I42
VSimpleName: returnsMany
p833
tp834
a(Vinsert
p835
I42
VSimpleName: createTempFile
p836
tp837
a(Vinsert
p838
I42
VSimpleName: getMappedResults
p839
tp840
a(Vinsert
p841
I42
VSimpleName: isInstanceOf
p842
tp843
a(Vinsert
p844
I42
VSimpleName: useSlf4jLogging
p845
tp846
a(Vinsert
p847
I42
VSimpleName: getResultObject
p848
tp849
a(Vinsert
p850
I42
VSimpleName: hasMessageStartingWith
p851
tp852
a(Vinsert
p853
I42
VSimpleName: getResultSet
p854
tp855
a(Vinsert
p856
I42
VSimpleName: getNamesAndItems
p857
tp858
a(Vinsert
p859
I42
VSimpleName: columnPrefix
p860
tp861
a(Vinsert
p862
I42
VSimpleName: setLogWriter
p863
tp864
a(Vinsert
p865
I42
VSimpleName: addMapper
p866
tp867
a(Vinsert
p868
I42
VSimpleName: getSql
p869
tp870
a(Vinsert
p871
I42
VSimpleName: lang
p872
tp873
a(Vinsert
p874
I42
VSimpleName: getGenericComponentType
p875
tp876
a(Vinsert
p877
I42
VSimpleName: getBounds
p878
tp879
a(Vinsert
p880
I42
VSimpleName: gc
p881
tp882
a(Vinsert
p883
I42
VSimpleName: getSqlFragments
p884
tp885
a(Vinsert
p886
I42
VSimpleName: getUserWithPets_Inline
p887
tp888
a(Vinsert
p889
I42
VSimpleName: hasMoreElements
p890
tp891
a(Vinsert
p892
I42
VSimpleName: isDebugEnabled
p893
tp894
a(Vinsert
p895
I42
VSimpleName: getDataSource
p896
tp897
a(Vinsert
p898
I42
VSimpleName: getObjectFactory
p899
tp900
a(Vinsert
p901
I42
VSimpleName: getGetterType
p902
tp903
a(Vinsert
p904
I42
VSimpleName: setProperties
p905
tp906
a(Vinsert
p907
I42
VSimpleName: asList
p908
tp909
a(Vinsert
p910
I42
VSimpleName: getDeclaredField
p911
tp912
a(Vinsert
p913
I42
VSimpleName: getColumn
p914
tp915
a(Vinsert
p916
I42
VSimpleName: getComponentType
p917
tp918
a(Vinsert
p919
I42
VSimpleName: toBigInteger
p920
tp921
a(Vinsert
p922
I42
VSimpleName: createDefaultContext
p923
tp924
a(Vinsert
p925
I42
VSimpleName: getLogger
p926
tp927
a(Vinsert
p928
I42
VSimpleName: getKeyProperties
p929
tp930
a(Vinsert
p931
I42
VSimpleName: selectXmlWithMapperAndSqlSymbols
p932
tp933
a(Vinsert
p934
I42
VSimpleName: list
p935
tp936
a(Vinsert
p937
I42
VSimpleName: addLoadedResource
p938
tp939
a(Vinsert
p940
I42
VSimpleName: createProxy
p941
tp942
a(Vinsert
p943
I42
VSimpleName: getValue
p944
tp945
a(Vinsert
p946
I42
VSimpleName: query
p947
tp948
a(Vinsert
p949
I42
VSimpleName: acceptsURL
p950
tp951
a(Vinsert
p952
I42
VSimpleName: selectWithNonEmptyList_noCollectionId
p953
tp954
a(Vinsert
p955
I42
VSimpleName: setLength
p956
tp957
a(Vinsert
p958
I42
VSimpleName: newFixedThreadPool
p959
tp960
a(Vinsert
p961
I42
VSimpleName: getBlob
p962
tp963
a(Vinsert
p964
I42
VSimpleName: getDefaultListResultHandlerType
p965
tp966
a(Vinsert
p967
I42
VSimpleName: deferLoad
p968
tp969
a(Vinsert
p970
I42
VSimpleName: register
p971
tp972
a(Vinsert
p973
I42
VSimpleName: createDeserializationProxy
p974
tp975
a(Vinsert
p976
I42
VSimpleName: when
p977
tp978
a(Vinsert
p979
I42
VSimpleName: getAutoMappingBehavior
p980
tp981
a(Vinsert
p982
I42
VSimpleName: resolveFieldType
p983
tp984
a(Vinsert
p985
I42
VSimpleName: getReflectorFactory
p986
tp987
a(Vinsert
p988
I42
VSimpleName: newProxyInstance
p989
tp990
a(Vinsert
p991
I42
VSimpleName: getJdbcTypeForNull
p992
tp993
a(Vinsert
p994
I42
VSimpleName: isFinal
p995
tp996
a(Vinsert
p997
I42
VSimpleName: readLock
p998
tp999
a(Vinsert
p1000
I42
VSimpleName: clearCache
p1001
tp1002
a(Vinsert
p1003
I42
VSimpleName: getType
p1004
tp1005
a(Vinsert
p1006
I42
VSimpleName: add
p1007
tp1008
a(Vinsert
p1009
I42
VSimpleName: load
p1010
tp1011
a(Vinsert
p1012
I42
VSimpleName: getMessage
p1013
tp1014
a(Vinsert
p1015
I42
VSimpleName: runScript
p1016
tp1017
a(Vinsert
p1018
I42
VSimpleName: addAll
p1019
tp1020
a(Vinsert
p1021
I42
VSimpleName: putAll
p1022
tp1023
a(Vinsert
p1024
I42
VSimpleName: hasGetter
p1025
tp1026
a(Vinsert
p1027
I42
VSimpleName: getColumnType
p1028
tp1029
a(Vinsert
p1030
I42
VSimpleName: getUpdateCount
p1031
tp1032
a(Vinsert
p1033
I42
VSimpleName: hasTypeHandler
p1034
tp1035
a(Vinsert
p1036
I42
VSimpleName: getEnumAttribute
p1037
tp1038
a(Vinsert
p1039
I42
VSimpleName: getObjectWrapperFactory
p1040
tp1041
a(Vinsert
p1042
I42
VSimpleName: getBoolean
p1043
tp1044
a(Vinsert
p1045
I42
VSimpleName: build
p1046
tp1047
a(Vinsert
p1048
I42
VSimpleName: substring
p1049
tp1050
a(Vinsert
p1051
I42
VSimpleName: apply
p1052
tp1053
a(Vinsert
p1054
I42
VSimpleName: isSafeResultHandlerEnabled
p1055
tp1056
a(Vinsert
p1057
I42
VSimpleName: getBigDecimal
p1058
tp1059
a(Vinsert
p1060
I42
VSimpleName: getMapperMethod
p1061
tp1062
a(Vinsert
p1063
I42
VSimpleName: isLazy
p1064
tp1065
a(Vinsert
p1066
I42
VSimpleName: getAuthor
p1067
tp1068
a(Vinsert
p1069
I42
VSimpleName: forObject
p1070
tp1071
a(Vinsert
p1072
I42
VSimpleName: extractObjectFromList
p1073
tp1074
a(Vinsert
p1075
I42
VSimpleName: getLogPrefix
p1076
tp1077
a(Vinsert
p1078
I42
VSimpleName: getNamesAnnotatedLowHighWithXMLResultMap
p1079
tp1080
a(Vinsert
p1081
I42
VSimpleName: setColumn
p1082
tp1083
a(Vinsert
p1084
I42
VSimpleName: appendSql
p1085
tp1086
a(Vinsert
p1087
I42
VSimpleName: getParameters
p1088
tp1089
a(Vinsert
p1090
I42
VSimpleName: get
p1091
tp1092
a(Vinsert
p1093
I42
VSimpleName: values
p1094
tp1095
a(Vinsert
p1096
I42
VSimpleName: getCanonicalPath
p1097
tp1098
a(Vinsert
p1099
I42
VSimpleName: trace
p1100
tp1101
a(Vinsert
p1102
I42
VSimpleName: hasMessageContaining
p1103
tp1104
a(Vinsert
p1105
I42
VSimpleName: getFld1
p1106
tp1107
a(Vinsert
p1108
I42
VSimpleName: getItems
p1109
tp1110
a(Vinsert
p1111
I42
VSimpleName: getMethodCache
p1112
tp1113
a(Vinsert
p1114
I42
VSimpleName: setFirstName
p1115
tp1116
a(Vinsert
p1117
I42
VSimpleName: mock
p1118
tp1119
a(Vinsert
p1120
I42
VSimpleName: getReadWriteLock
p1121
tp1122
a(Vinsert
p1123
I42
VSimpleName: matcher
p1124
tp1125
a(Vinsert
p1126
I42
VSimpleName: getPropertyResultMappings
p1127
tp1128
a(Vinsert
p1129
I42
VSimpleName: getPermissions
p1130
tp1131
a(Vinsert
p1132
I42
VSimpleName: readObject
p1133
tp1134
a(Vinsert
p1135
I42
VSimpleName: setAdditionalParameter
p1136
tp1137
a(Vinsert
p1138
I42
VSimpleName: nestedResultOrdered
p1139
tp1140
a(Vinsert
p1141
I42
VSimpleName: setId1
p1142
tp1143
a(Vinsert
p1144
I42
VSimpleName: getString
p1145
tp1146
a(Vinsert
p1147
I42
VSimpleName: getUserById
p1148
tp1149
a(Vinsert
p1150
I42
VSimpleName: convertToObjectArray
p1151
tp1152
a(Vinsert
p1153
I42
VSimpleName: setValue
p1154
tp1155
a(Vinsert
p1156
I42
VSimpleName: addImplClass
p1157
tp1158
a(Vinsert
p1159
I42
VSimpleName: getId
p1160
tp1161
a(Vinsert
p1162
I42
VSimpleName: JOIN
p1163
tp1164
a(Vinsert
p1165
I42
VSimpleName: getStringBody
p1166
tp1167
a(Vinsert
p1168
I42
VSimpleName: findAll
p1169
tp1170
a(Vinsert
p1171
I42
VSimpleName: name
p1172
tp1173
a(Vinsert
p1174
I42
VSimpleName: printf
p1175
tp1176
a(Vinsert
p1177
I42
VSimpleName: getNames
p1178
tp1179
a(Vinsert
p1180
I42
VSimpleName: assertNotNull
p1181
tp1182
a(Vinsert
p1183
I42
VSimpleName: setObject
p1184
tp1185
a(Vinsert
p1186
I42
VSimpleName: getDouble
p1187
tp1188
a(Vinsert
p1189
I42
VSimpleName: getTimestamp
p1190
tp1191
a(Vinsert
p1192
I42
VSimpleName: valueOf
p1193
tp1194
a(Vinsert
p1195
I42
VSimpleName: oneArgumentAndProviderContext
p1196
tp1197
a(Vinsert
p1198
I42
VSimpleName: getDefaultMapResultHandlerType
p1199
tp1200
a(Vinsert
p1201
I42
VSimpleName: getDeclaringClass
p1202
tp1203
a(Vinsert
p1204
I42
VSimpleName: getTimeout
p1205
tp1206
a(Vinsert
p1207
I42
VSimpleName: removeAll
p1208
tp1209
a(Vinsert
p1210
I42
VSimpleName: getName
p1211
tp1212
a(Vinsert
p1213
I42
VSimpleName: isSimpleType
p1214
tp1215
a(Vinsert
p1216
I42
VSimpleName: getChild
p1217
tp1218
a(Vinsert
p1219
I42
VSimpleName: parameterMap
p1220
tp1221
a(Vinsert
p1222
I42
VSimpleName: getLong
p1223
tp1224
a(Vinsert
p1225
I42
VSimpleName: getConfiguration
p1226
tp1227
a(Vinsert
p1228
I42
VSimpleName: getFirstName
p1229
tp1230
a(Vinsert
p1231
I42
VSimpleName: setEscapeProcessing
p1232
tp1233
a(Vinsert
p1234
I42
VSimpleName: databaseId
p1235
tp1236
a(Vinsert
p1237
I42
VSimpleName: isBridge
p1238
tp1239
a(Vinsert
p1240
I42
VSimpleName: getNode
p1241
tp1242
a(Vinsert
p1243
I42
VSimpleName: getNestedQueryId
p1244
tp1245
a(Vinsert
p1246
I42
VSimpleName: getChildren
p1247
tp1248
a(Vinsert
p1249
I42
VSimpleName: getNamesAndItemsAnnotatedWithXMLResultMapArray
p1250
tp1251
a(Vinsert
p1252
I42
VSimpleName: getNamesAndItemsLinkedById
p1253
tp1254
a(Vinsert
p1255
I42
VSimpleName: getMapper
p1256
tp1257
a(Vinsert
p1258
I42
VSimpleName: toByteArray
p1259
tp1260
a(Vinsert
p1261
I42
VSimpleName: getBooleanAttribute
p1262
tp1263
a(Vinsert
p1264
I42
VSimpleName: setPublicId
p1265
tp1266
a(Vinsert
p1267
I42
VSimpleName: getStringValue
p1268
tp1269
a(Vinsert
p1270
I42
VSimpleName: getBinaryStream
p1271
tp1272
a(Vinsert
p1273
I42
VSimpleName: selectAuthor
p1274
tp1275
a(Vinsert
p1276
I42
VSimpleName: equals
p1277
tp1278
a(Vinsert
p1279
I42
VSimpleName: setEnvironment
p1280
tp1281
a(Vinsert
p1282
I42
VSimpleName: put
p1283
tp1284
a(Vinsert
p1285
I42
VSimpleName: hasMessage
p1286
tp1287
a(Vinsert
p1288
I42
VSimpleName: readLine
p1289
tp1290
a(Vinsert
p1291
I42
VSimpleName: getAutoMapping
p1292
tp1293
a(Vinsert
p1294
I42
VSimpleName: charAt
p1295
tp1296
a(Vinsert
p1297
I42
VSimpleName: isCollection
p1298
tp1299
a(Vinsert
p1300
I42
VSimpleName: getDeclaredMethod
p1301
tp1302
a(Vinsert
p1303
I42
VSimpleName: setNodeValue
p1304
tp1305
a(Vinsert
p1306
I42
VSimpleName: getNameOnly
p1307
tp1308
a(Vinsert
p1309
I42
VSimpleName: evalShort
p1310
tp1311
a(Vinsert
p1312
I42
VSimpleName: getUser
p1313
tp1314
a(Vinsert
p1315
I42
VSimpleName: getDeclaredFields
p1316
tp1317
a(Vinsert
p1318
I42
VSimpleName: getCharset
p1319
tp1320
a(Vinsert
p1321
I42
VSimpleName: getFather
p1322
tp1323
a(Vinsert
p1324
I42
VSimpleName: selectCursor
p1325
tp1326
a(Vinsert
p1327
I42
VSimpleName: getResourceAsReader
p1328
tp1329
a(Vinsert
p1330
I42
VSimpleName: getMappedProperties
p1331
tp1332
a(Vinsert
p1333
I42
VSimpleName: getChildNodes
p1334
tp1335
a(Vinsert
p1336
I42
VSimpleName: removeObject
p1337
tp1338
a(Vinsert
p1339
I42
VSimpleName: selectXmlWithMapper
p1340
tp1341
a(Vinsert
p1342
I42
VSimpleName: getPets
p1343
tp1344
a(Vinsert
p1345
I42
VSimpleName: synchronizedMap
p1346
tp1347
a(Vinsert
p1348
I42
VSimpleName: getTodoItems
p1349
tp1350
a(Vinsert
p1351
I42
VSimpleName: getConstructor
p1352
tp1353
a(Vinsert
p1354
I42
VSimpleName: getStatementType
p1355
tp1356
a(Vinsert
p1357
I42
VSimpleName: createSqlSource
p1358
tp1359
a(Vinsert
p1360
I42
VSimpleName: isEnum
p1361
tp1362
a(Vinsert
p1363
I42
VSimpleName: newMetaObject
p1364
tp1365
a(Vinsert
p1366
I42
VSimpleName: isInjectionFilterEnabled
p1367
tp1368
a(Vinsert
p1369
I42
VSimpleName: setBestFriend
p1370
tp1371
a(Vinsert
p1372
I42
VSimpleName: hasDefaultConstructor
p1373
tp1374
a(Vinsert
p1375
I42
VSimpleName: selectOne
p1376
tp1377
a(Vinsert
p1378
I42
VSimpleName: isResourceLoaded
p1379
tp1380
a(Vinsert
p1381
I42
VSimpleName: setUseActualParamName
p1382
tp1383
a.