(dp0
(Vinsert
p1
I42
VSimpleName: loadFactor
p2
tp3
I2
s(Vinsert
p4
I42
VSimpleName: RT
p5
tp6
I155
s(Vinsert
p7
I42
VSimpleName: vtag
p8
tp9
I1
s(Vinsert
p10
I7
VAssignment: |=
p11
tp12
I1
s(Vinsert
p13
I42
VSimpleName: finallyLocal
p14
tp15
I2
s(Vinsert
p16
I42
VSimpleName: opts
p17
tp18
I6
s(Vinsert
p19
I42
VSimpleName: COMPILE_PATH
p20
tp21
I1
s(Vinsert
p22
I34
VNumberLiteral: 0x01f
p23
tp24
I1
s(Vinsert
p25
I42
VSimpleName: falseLabel
p26
tp27
I2
s(Vinsert
p28
I42
VSimpleName: _CT_OUT
p29
tp30
I1
s(Vinsert
p31
I42
VSimpleName: innerName
p32
tp33
I1
s(Vinsert
p34
I42
VSimpleName: Lock
p35
tp36
I1
s(Vinsert
p37
I40
VQualifiedName: f.bmap
p38
tp39
I1
s(Vinsert
p40
I45
VStringLiteral: "+"
p41
tp42
I1
s(Vinsert
p43
I42
VSimpleName: pushVal
p44
tp45
I1
s(Vinsert
p46
I40
VQualifiedName: Opcodes.ACC_PRIVATE
p47
tp48
I1
s(Vinsert
p49
I43
VSimpleType: Counted
p50
tp51
I3
s(Vinsert
p52
I45
VStringLiteral: " "
p53
tp54
I1
s(Vinsert
p55
I27
VInfixExpression: +
p56
tp57
I69
s(Vinsert
p58
I42
VSimpleName: oldval
p59
tp60
I1
s(Vinsert
p61
I42
VSimpleName: _rest
p62
tp63
I11
s(Vinsert
p64
I42
VSimpleName: path
p65
tp66
I2
s(Vinsert
p67
I42
VSimpleName: balanceLeft
p68
tp69
I2
s(Vinsert
p70
I42
VSimpleName: NotSerializableException
p71
tp72
I2
s(Vinsert
p73
I42
VSimpleName: ADD_ANNOTATIONS
p74
tp75
I1
s(Vinsert
p76
I43
VSimpleType: Tail
p77
tp78
I1
s(Vinsert
p79
I42
VSimpleName: LinkedList
p80
tp81
I4
s(Vinsert
p82
I43
VSimpleType: Throwable
p83
tp84
I3
s(Vinsert
p85
I42
VSimpleName: kval
p86
tp87
I1
s(Vinsert
p88
I45
VStringLiteral: "Value out of range for long: "
p89
tp90
I2
s(Vinsert
p91
I45
VStringLiteral: "ns"
p92
tp93
I2
s(Vinsert
p94
I42
VSimpleName: retstr
p95
tp96
I1
s(Vinsert
p97
I42
VSimpleName: getParentFile
p98
tp99
I1
s(Vinsert
p100
I40
VQualifiedName: LazySeq.EMPTY
p101
tp102
I1
s(Vinsert
p103
I42
VSimpleName: poll
p104
tp105
I3
s(Vinsert
p106
I43
VSimpleType: Ops
p107
tp108
I3
s(Vinsert
p109
I42
VSimpleName: Byte
p110
tp111
I3
s(Vinsert
p112
I43
VSimpleType: IllegalAccessException
p113
tp114
I1
s(Vinsert
p115
I42
VSimpleName: v1
p116
tp117
I2
s(Vinsert
p118
I42
VSimpleName: println
p119
tp120
I5
s(Vinsert
p121
I42
VSimpleName: Sequential
p122
tp123
I6
s(Vinsert
p124
I42
VSimpleName: off
p125
tp126
I1
s(Vinsert
p127
I40
VQualifiedName: bi.binding.used
p128
tp129
I1
s(Vinsert
p130
I42
VSimpleName: kns
p131
tp132
I3
s(Vinsert
p133
I43
VSimpleType: RT
p134
tp135
I2
s(Vinsert
p136
I43
VSimpleType: RuntimeException
p137
tp138
I3
s(Vinsert
p139
I43
VSimpleType: Matcher
p140
tp141
I1
s(Vinsert
p142
I42
VSimpleName: rseq
p143
tp144
I1
s(Vinsert
p145
I42
VSimpleName: assoc
p146
tp147
I15
s(Vinsert
p148
I42
VSimpleName: arr
p149
tp150
I1
s(Vinsert
p151
I42
VSimpleName: pool
p152
tp153
I1
s(Vinsert
p154
I43
VSimpleType: Symbol
p155
tp156
I49
s(Vinsert
p157
I45
VStringLiteral: "meta"
p158
tp159
I1
s(Vinsert
p160
I42
VSimpleName: IllegalArgumentException
p161
tp162
I14
s(Vinsert
p163
I42
VSimpleName: canEmitHostExpr
p164
tp165
I1
s(Vinsert
p166
I42
VSimpleName: argvs
p167
tp168
I2
s(Vinsert
p169
I42
VSimpleName: matches
p170
tp171
I2
s(Vinsert
p172
I43
VSimpleType: MetaExpr
p173
tp174
I2
s(Vinsert
p175
I42
VSimpleName: csym
p176
tp177
I1
s(Vinsert
p178
I42
VSimpleName: tval
p179
tp180
I2
s(Vinsert
p181
I42
VSimpleName: returnType
p182
tp183
I1
s(Vinsert
p184
I43
VSimpleType: T5
p185
tp186
I1
s(Vinsert
p187
I42
VSimpleName: DRETURN
p188
tp189
I1
s(Vinsert
p190
I42
VSimpleName: pop
p191
tp192
I8
s(Vinsert
p193
I40
VQualifiedName: PersistentArrayMap.EMPTY
p194
tp195
I1
s(Vinsert
p196
I42
VSimpleName: print
p197
tp198
I1
s(Vinsert
p199
I42
VSimpleName: gen
p200
tp201
I104
s(Vinsert
p202
I42
VSimpleName: thenExpr
p203
tp204
I2
s(Vinsert
p205
I42
VSimpleName: vars
p206
tp207
I3
s(Vinsert
p208
I42
VSimpleName: RetryException
p209
tp210
I1
s(Vinsert
p211
I45
VStringLiteral: "legacy-script"
p212
tp213
I1
s(Vinsert
p214
I42
VSimpleName: dupX2
p215
tp216
I1
s(Vinsert
p217
I42
VSimpleName: runnable
p218
tp219
I2
s(Vinsert
p220
I42
VSimpleName: ifn
p221
tp222
I1
s(Vinsert
p223
I42
VSimpleName: Handle
p224
tp225
I3
s(Vinsert
p226
I42
VSimpleName: callLabel
p227
tp228
I1
s(Vinsert
p229
I45
VStringLiteral: "+ 1 "
p230
tp231
I1
s(Vinsert
p232
I42
VSimpleName: s
p233
tp234
I126
s(Vinsert
p235
I42
VSimpleName: sexpr
p236
tp237
I2
s(Vinsert
p238
I42
VSimpleName: ARETURN
p239
tp240
I1
s(Vinsert
p241
I42
VSimpleName: getLastModified
p242
tp243
I1
s(Vinsert
p244
I42
VSimpleName: getInstanceField
p245
tp246
I2
s(Vinsert
p247
I42
VSimpleName: set
p248
tp249
I21
s(Vinsert
p250
I42
VSimpleName: offset
p251
tp252
I1
s(Vinsert
p253
I45
VStringLiteral: "redef"
p254
tp255
I1
s(Vinsert
p256
I40
VQualifiedName: et.rest
p257
tp258
I1
s(Vinsert
p259
I42
VSimpleName: booleanCast
p260
tp261
I16
s(Vinsert
p262
I43
VSimpleType: Collection
p263
tp264
I3
s(Vinsert
p265
I42
VSimpleName: remove
p266
tp267
I10
s(Vinsert
p268
I43
VSimpleType: ListIterator
p269
tp270
I1
s(Vinsert
p271
I42
VSimpleName: BindingInit
p272
tp273
I4
s(Vinsert
p274
I42
VSimpleName: pushbackReader
p275
tp276
I1
s(Vinsert
p277
I42
VSimpleName: args
p278
tp279
I23
s(Vinsert
p280
I40
VQualifiedName: RT.CURRENT_NS_SYM
p281
tp282
I2
s(Vinsert
p283
I42
VSimpleName: LA
p284
tp285
I2
s(Vinsert
p286
I42
VSimpleName: errorMsg
p287
tp288
I2
s(Vinsert
p289
I42
VSimpleName: ClassNotFoundException
p290
tp291
I5
s(Vinsert
p292
I42
VSimpleName: getHistoryCount
p293
tp294
I1
s(Vinsert
p295
I42
VSimpleName: CompilerException
p296
tp297
I8
s(Vinsert
p298
I42
VSimpleName: PushbackReader
p299
tp300
I3
s(Vinsert
p301
I45
VStringLiteral: ", had: "
p302
tp303
I1
s(Vinsert
p304
I40
VQualifiedName: Boolean.FALSE
p305
tp306
I3
s(Vinsert
p307
I42
VSimpleName: h
p308
tp309
I3
s(Vinsert
p310
I40
VQualifiedName: Opcodes.ACC_TRANSIENT
p311
tp312
I1
s(Vinsert
p313
I42
VSimpleName: Compiler
p314
tp315
I10
s(Vinsert
p316
I43
VSimpleType: ILookup
p317
tp318
I6
s(Vinsert
p319
I43
VSimpleType: Pattern
p320
tp321
I3
s(Vinsert
p322
I42
VSimpleName: intVal
p323
tp324
I1
s(Vinsert
p325
I42
VSimpleName: prefix
p326
tp327
I1
s(Vinsert
p328
I42
VSimpleName: gmap
p329
tp330
I1
s(Vinsert
p331
I42
VSimpleName: toRatio
p332
tp333
I1
s(Vinsert
p334
I43
VSimpleType: MonitorEnterExpr
p335
tp336
I1
s(Vinsert
p337
I42
VSimpleName: value
p338
tp339
I6
s(Vinsert
p340
I45
VStringLiteral: "Key must be integer"
p341
tp342
I1
s(Vinsert
p343
I42
VSimpleName: hashUnencodedChars
p344
tp345
I1
s(Vinsert
p346
I45
VStringLiteral: "__"
p347
tp348
I4
s(Vinsert
p349
I42
VSimpleName: NS_TYPE
p350
tp351
I1
s(Vinsert
p352
I43
VSimpleType: Class
p353
tp354
I25
s(Vinsert
p355
I42
VSimpleName: createArrayMap
p356
tp357
I1
s(Vinsert
p358
I45
VStringLiteral: "eval"
p359
tp360
I1
s(Vinsert
p361
I42
VSimpleName: ids
p362
tp363
I2
s(Vinsert
p364
I43
VSimpleType: RBTree
p365
tp366
I2
s(Vinsert
p367
I42
VSimpleName: AMap
p368
tp369
I4
s(Vinsert
p370
I45
VStringLiteral: "clojure.core.server"
p371
tp372
I1
s(Vinsert
p373
I42
VSimpleName: frame
p374
tp375
I1
s(Vinsert
p376
I42
VSimpleName: ArraySeq
p377
tp378
I3
s(Vinsert
p379
I42
VSimpleName: exprType
p380
tp381
I2
s(Vinsert
p382
I42
VSimpleName: containsAll
p383
tp384
I1
s(Vinsert
p385
I11
VCastExpression
p386
tp387
I249
s(Vinsert
p388
I42
VSimpleName: stackMap
p389
tp390
I1
s(Vinsert
p391
I42
VSimpleName: internVar
p392
tp393
I2
s(Vinsert
p394
I42
VSimpleName: vf
p395
tp396
I7
s(Vinsert
p397
I42
VSimpleName: atts
p398
tp399
I1
s(Vinsert
p400
I43
VSimpleType: ConcurrentHashMap
p401
tp402
I2
s(Vinsert
p403
I40
VQualifiedName: array.length
p404
tp405
I10
s(Vinsert
p406
I42
VSimpleName: InstanceMemberSymbol
p407
tp408
I3
s(Vinsert
p409
I42
VSimpleName: lastIndexOf
p410
tp411
I7
s(Vinsert
p412
I45
VStringLiteral: "clojure.compile.unchecked-math"
p413
tp414
I1
s(Vinsert
p415
I42
VSimpleName: Boolean
p416
tp417
I5
s(Vinsert
p418
I45
VStringLiteral: "clojure.elide.meta"
p419
tp420
I1
s(Vinsert
p421
I40
VQualifiedName: Void.TYPE
p422
tp423
I1
s(Vinsert
p424
I40
VQualifiedName: nextMaster.basis
p425
tp426
I1
s(Vinsert
p427
I42
VSimpleName: bins
p428
tp429
I1
s(Vinsert
p430
I42
VSimpleName: enqueue
p431
tp432
I1
s(Vinsert
p433
I42
VSimpleName: freshLoader
p434
tp435
I2
s(Vinsert
p436
I40
VQualifiedName: fn.thisName
p437
tp438
I4
s(Vinsert
p439
I42
VSimpleName: Collections
p440
tp441
I1
s(Vinsert
p442
I42
VSimpleName: localName
p443
tp444
I1
s(Vinsert
p445
I40
VQualifiedName: leaves.length
p446
tp447
I1
s(Vinsert
p448
I43
VSimpleType: Box
p449
tp450
I2
s(Vinsert
p451
I42
VSimpleName: xprefs
p452
tp453
I1
s(Vinsert
p454
I42
VSimpleName: clinitgen
p455
tp456
I6
s(Vinsert
p457
I42
VSimpleName: LINE_BEFORE
p458
tp459
I2
s(Vinsert
p460
I61
VWhileStatement
p461
tp462
I23
s(Vinsert
p463
I42
VSimpleName: argsyms
p464
tp465
I1
s(Vinsert
p466
I42
VSimpleName: temp
p467
tp468
I1
s(Vinsert
p469
I42
VSimpleName: compare
p470
tp471
I4
s(Vinsert
p472
I42
VSimpleName: LazySeq
p473
tp474
I2
s(Vinsert
p475
I43
VSimpleType: ClassWriter
p476
tp477
I1
s(Vinsert
p478
I42
VSimpleName: other
p479
tp480
I8
s(Vinsert
p481
I42
VSimpleName: fromLongMethod
p482
tp483
I1
s(Vinsert
p484
I42
VSimpleName: refer
p485
tp486
I1
s(Vinsert
p487
I42
VSimpleName: loadThis
p488
tp489
I3
s(Vinsert
p490
I45
VStringLiteral: "No matching ctor found"
p491
tp492
I2
s(Vinsert
p493
I42
VSimpleName: MapEntry
p494
tp495
I6
s(Vinsert
p496
I42
VSimpleName: ensurePending
p497
tp498
I2
s(Vinsert
p499
I42
VSimpleName: cache
p500
tp501
I1
s(Vinsert
p502
I42
VSimpleName: dims
p503
tp504
I2
s(Vinsert
p505
I42
VSimpleName: floatVal
p506
tp507
I1
s(Vinsert
p508
I42
VSimpleName: Short
p509
tp510
I4
s(Vinsert
p511
I42
VSimpleName: unchecked_math
p512
tp513
I1
s(Vinsert
p514
I42
VSimpleName: getType
p515
tp516
I14
s(Vinsert
p517
I42
VSimpleName: hadError
p518
tp519
I2
s(Vinsert
p520
I42
VSimpleName: checkCast
p521
tp522
I1
s(Vinsert
p523
I42
VSimpleName: barrier
p524
tp525
I1
s(Vinsert
p526
I42
VSimpleName: longCast
p527
tp528
I1
s(Vinsert
p529
I42
VSimpleName: mark
p530
tp531
I9
s(Vinsert
p532
I43
VSimpleType: Reader
p533
tp534
I4
s(Vinsert
p535
I42
VSimpleName: overrideables
p536
tp537
I1
s(Vinsert
p538
I42
VSimpleName: Ops
p539
tp540
I3
s(Vinsert
p541
I42
VSimpleName: getCompiledClass
p542
tp543
I2
s(Vinsert
p544
I42
VSimpleName: Enumeration
p545
tp546
I1
s(Vinsert
p547
I34
VNumberLiteral: 42
p548
tp549
I1
s(Vinsert
p550
I42
VSimpleName: subroutine
p551
tp552
I2
s(Vinsert
p553
I43
VSimpleType: WarnBoxedMath
p554
tp555
I1
s(Vinsert
p556
I42
VSimpleName: a
p557
tp558
I14
s(Vinsert
p559
I45
VStringLiteral: "Sets *ns* to the namespace named by the symbol, creating it if needed."
p560
tp561
I1
s(Vinsert
p562
I42
VSimpleName: demunge
p563
tp564
I1
s(Vinsert
p565
I40
VQualifiedName: ret._meta
p566
tp567
I1
s(Vinsert
p568
I43
VSimpleType: ArrayList
p569
tp570
I5
s(Vinsert
p571
I42
VSimpleName: Module
p572
tp573
I2
s(Vinsert
p574
I42
VSimpleName: IReduceInit
p575
tp576
I1
s(Vinsert
p577
I43
VSimpleType: Compiler
p578
tp579
I1
s(Vinsert
p580
I42
VSimpleName: supportsMeta
p581
tp582
I1
s(Vinsert
p583
I45
VStringLiteral: "true"
p584
tp585
I2
s(Vinsert
p586
I43
VSimpleType: TVal
p587
tp588
I6
s(Vinsert
p589
I45
VStringLiteral: "Reflection warning, line: %d - call to %s can't be resolved.\u005cn"
p590
tp591
I1
s(Vinsert
p592
I42
VSimpleName: ctorTypes
p593
tp594
I1
s(Vinsert
p595
I42
VSimpleName: Indexed
p596
tp597
I1
s(Vinsert
p598
I43
VSimpleType: MapEntry
p599
tp600
I4
s(Vinsert
p601
I39
VPrimitiveType: long
p602
tp603
I20
s(Vinsert
p604
I34
VNumberLiteral: 8
p605
tp606
I4
s(Vinsert
p607
I42
VSimpleName: getReturnType
p608
tp609
I2
s(Vinsert
p610
I40
VQualifiedName: RT.NS_VAR
p611
tp612
I1
s(Vinsert
p613
I42
VSimpleName: lte
p614
tp615
I1
s(Vinsert
p616
I20
VEmptyStatement
p617
tp618
I2
s(Vinsert
p619
I42
VSimpleName: genPath
p620
tp621
I1
s(Vinsert
p622
I45
VStringLiteral: "unquote"
p623
tp624
I1
s(Vinsert
p625
I42
VSimpleName: keywords
p626
tp627
I1
s(Vinsert
p628
I43
VSimpleType: GeneratorAdapter
p629
tp630
I14
s(Vinsert
p631
I42
VSimpleName: baseLoader
p632
tp633
I3
s(Vinsert
p634
I42
VSimpleName: Random
p635
tp636
I2
s(Vinsert
p637
I42
VSimpleName: HASHSET
p638
tp639
I1
s(Vinsert
p640
I43
VSimpleType: LinkedList
p641
tp642
I4
s(Vinsert
p643
I42
VSimpleName: BitmapIndexedNode
p644
tp645
I1
s(Vinsert
p646
I42
VSimpleName: ATHROW
p647
tp648
I1
s(Vinsert
p649
I42
VSimpleName: putShort
p650
tp651
I1
s(Vinsert
p652
I43
VSimpleType: ASeq.Src
p653
tp654
I1
s(Vinsert
p655
I27
VInfixExpression: <<
p656
tp657
I2
s(Vinsert
p658
I57
VTypeLiteral
p659
tp660
I33
s(Vinsert
p661
I42
VSimpleName: ILookupSite
p662
tp663
I1
s(Vinsert
p664
I42
VSimpleName: replaceVal
p665
tp666
I1
s(Vinsert
p667
I42
VSimpleName: av
p668
tp669
I4
s(Vinsert
p670
I40
VQualifiedName: clojure.lang.Namespace
p671
tp672
I1
s(Vinsert
p673
I42
VSimpleName: fclass
p674
tp675
I1
s(Vinsert
p676
I14
VClassInstanceCreation
p677
tp678
I117
s(Vinsert
p679
I42
VSimpleName: intValue
p680
tp681
I11
s(Vinsert
p682
I43
VSimpleType: IObj
p683
tp684
I10
s(Vinsert
p685
I42
VSimpleName: info
p686
tp687
I2
s(Vinsert
p688
I43
VSimpleType: BigDecimal
p689
tp690
I8
s(Vinsert
p691
I42
VSimpleName: lt
p692
tp693
I2
s(Vinsert
p694
I42
VSimpleName: isAssignableFrom
p695
tp696
I3
s(Vinsert
p697
I42
VSimpleName: USE_CONTEXT_CLASSLOADER
p698
tp699
I1
s(Vinsert
p700
I43
VSimpleType: IllegalAccessError
p701
tp702
I2
s(Vinsert
p703
I65
VTagElement: @param
p704
tp705
I2
s(Vinsert
p706
I42
VSimpleName: slash
p707
tp708
I2
s(Vinsert
p709
I50
VSwitchStatement
p710
tp711
I4
s(Vinsert
p712
I45
VStringLiteral: ".."
p713
tp714
I1
s(Vinsert
p715
I42
VSimpleName: newv
p716
tp717
I5
s(Vinsert
p718
I45
VStringLiteral: "Class"
p719
tp720
I1
s(Vinsert
p721
I42
VSimpleName: nextSeq
p722
tp723
I1
s(Vinsert
p724
I42
VSimpleName: TRef
p725
tp726
I6
s(Vinsert
p727
I42
VSimpleName: visitLineNumber
p728
tp729
I5
s(Vinsert
p730
I42
VSimpleName: jdx
p731
tp732
I1
s(Vinsert
p733
I42
VSimpleName: throwArity
p734
tp735
I6
s(Vinsert
p736
I42
VSimpleName: excExpr
p737
tp738
I1
s(Vinsert
p739
I45
VStringLiteral: "((Number)~A).byteValue()"
p740
tp741
I1
s(Vinsert
p742
I42
VSimpleName: tagOf
p743
tp744
I1
s(Vinsert
p745
I42
VSimpleName: index
p746
tp747
I3
s(Vinsert
p748
I42
VSimpleName: List
p749
tp750
I9
s(Vinsert
p751
I42
VSimpleName: tltest
p752
tp753
I1
s(Vinsert
p754
I40
VQualifiedName: Map.Entry
p755
tp756
I11
s(Vinsert
p757
I42
VSimpleName: readTagged
p758
tp759
I1
s(Vinsert
p760
I43
VSimpleType: IDeref
p761
tp762
I6
s(Vinsert
p763
I42
VSimpleName: emitExpressionString
p764
tp765
I1
s(Vinsert
p766
I42
VSimpleName: getClassLoader
p767
tp768
I2
s(Vinsert
p769
I40
VQualifiedName: ClassWriter.COMPUTE_MAXS
p770
tp771
I1
s(Vinsert
p772
I42
VSimpleName: find
p773
tp774
I10
s(Vinsert
p775
I40
VQualifiedName: lb.idx
p776
tp777
I1
s(Vinsert
p778
I43
VSimpleType: Map.Entry
p779
tp780
I11
s(Vinsert
p781
I42
VSimpleName: RestFn
p782
tp783
I2
s(Vinsert
p784
I42
VSimpleName: invokeInterface
p785
tp786
I3
s(Vinsert
p787
I42
VSimpleName: retClass
p788
tp789
I3
s(Vinsert
p790
I39
VPrimitiveType: int
p791
tp792
I113
s(Vinsert
p793
I42
VSimpleName: internalName
p794
tp795
I1
s(Vinsert
p796
I42
VSimpleName: subsumes
p797
tp798
I2
s(Vinsert
p799
I42
VSimpleName: newInstance
p800
tp801
I4
s(Vinsert
p802
I42
VSimpleName: replace
p803
tp804
I4
s(Vinsert
p805
I42
VSimpleName: k1
p806
tp807
I21
s(Vinsert
p808
I43
VSimpleType: RetryException
p809
tp810
I1
s(Vinsert
p811
I42
VSimpleName: Expr
p812
tp813
I4
s(Vinsert
p814
I43
VSimpleType: AtomicLong
p815
tp816
I2
s(Vinsert
p817
I42
VSimpleName: getElementType
p818
tp819
I1
s(Vinsert
p820
I42
VSimpleName: v
p821
tp822
I44
s(Vinsert
p823
I42
VSimpleName: NO_RECUR
p824
tp825
I1
s(Vinsert
p826
I40
VQualifiedName: master.rev
p827
tp828
I1
s(Vinsert
p829
I42
VSimpleName: Node
p830
tp831
I10
s(Vinsert
p832
I40
VQualifiedName: agent.q
p833
tp834
I2
s(Vinsert
p835
I42
VSimpleName: loadFile
p836
tp837
I3
s(Vinsert
p838
I42
VSimpleName: tryExpr
p839
tp840
I1
s(Vinsert
p841
I40
VQualifiedName: e.rev
p842
tp843
I1
s(Vinsert
p844
I29
VJavadoc
p845
tp846
I1
s(Vinsert
p847
I42
VSimpleName: IllegalAccessError
p848
tp849
I2
s(Vinsert
p850
I66
VTextElement:  the value of the attr or nil if not found
p851
tp852
I1
s(Vinsert
p853
I42
VSimpleName: next
p854
tp855
I46
s(Vinsert
p856
I40
VQualifiedName: APersistentMap.ValSeq
p857
tp858
I2
s(Vinsert
p859
I42
VSimpleName: EMPTY
p860
tp861
I20
s(Vinsert
p862
I42
VSimpleName: IArray
p863
tp864
I3
s(Vinsert
p865
I34
VNumberLiteral: 1
p866
tp867
I55
s(Vinsert
p868
I43
VSimpleType: CompilerException
p869
tp870
I8
s(Vinsert
p871
I42
VSimpleName: _CRT_OUT
p872
tp873
I2
s(Vinsert
p874
I42
VSimpleName: prior
p875
tp876
I8
s(Vinsert
p877
I42
VSimpleName: loader
p878
tp879
I2
s(Vinsert
p880
I42
VSimpleName: IPersistentCollection
p881
tp882
I16
s(Vinsert
p883
I42
VSimpleName: dvals
p884
tp885
I9
s(Vinsert
p886
I42
VSimpleName: getColumnNumber
p887
tp888
I2
s(Vinsert
p889
I45
VStringLiteral: "Too few arguments to throw, throw expects a single Throwable instance"
p890
tp891
I1
s(Vinsert
p892
I42
VSimpleName: SoftReference
p893
tp894
I1
s(Vinsert
p895
I42
VSimpleName: getReadPoint
p896
tp897
I1
s(Vinsert
p898
I45
VStringLiteral: "Vector arg to map conj must be a pair"
p899
tp900
I1
s(Vinsert
p901
I42
VSimpleName: action
p902
tp903
I1
s(Vinsert
p904
I42
VSimpleName: o
p905
tp906
I54
s(Vinsert
p907
I42
VSimpleName: PersistentQueue
p908
tp909
I1
s(Vinsert
p910
I42
VSimpleName: read
p911
tp912
I11
s(Vinsert
p913
I42
VSimpleName: getError
p914
tp915
I1
s(Vinsert
p916
I42
VSimpleName: msig
p917
tp918
I1
s(Vinsert
p919
I45
VStringLiteral: "public static long clojure.lang.RT.uncheckedLongCast(byte)"
p920
tp921
I1
s(Vinsert
p922
I42
VSimpleName: Seqable
p923
tp924
I1
s(Vinsert
p925
I42
VSimpleName: sites
p926
tp927
I2
s(Vinsert
p928
I42
VSimpleName: hash
p929
tp930
I15
s(Vinsert
p931
I42
VSimpleName: shift
p932
tp933
I1
s(Vinsert
p934
I42
VSimpleName: bytes
p935
tp936
I1
s(Vinsert
p937
I42
VSimpleName: createWithCheck
p938
tp939
I1
s(Vinsert
p940
I42
VSimpleName: GeneratorAdapter
p941
tp942
I15
s(Vinsert
p943
I42
VSimpleName: clause
p944
tp945
I1
s(Vinsert
p946
I42
VSimpleName: leaves
p947
tp948
I1
s(Vinsert
p949
I42
VSimpleName: rets
p950
tp951
I3
s(Vinsert
p952
I33
VNullLiteral
p953
tp954
I267
s(Vinsert
p955
I43
VSimpleType: Type
p956
tp957
I2
s(Vinsert
p958
I43
VSimpleType: Exception
p959
tp960
I114
s(Vinsert
p961
I42
VSimpleName: invokeStaticMethod
p962
tp963
I2
s(Vinsert
p964
I43
VSimpleType: Numbers
p965
tp966
I1
s(Vinsert
p967
I42
VSimpleName: AtomicLong
p968
tp969
I2
s(Vinsert
p970
I42
VSimpleName: completedThroughPoint
p971
tp972
I1
s(Vinsert
p973
I42
VSimpleName: allmethods
p974
tp975
I4
s(Vinsert
p976
I42
VSimpleName: readChar
p977
tp978
I1
s(Vinsert
p979
I42
VSimpleName: position
p980
tp981
I1
s(Vinsert
p982
I42
VSimpleName: ny
p983
tp984
I3
s(Vinsert
p985
I40
VQualifiedName: java.io.ObjectOutputStream
p986
tp987
I2
s(Vinsert
p988
I42
VSimpleName: MACRO_META
p989
tp990
I1
s(Vinsert
p991
I42
VSimpleName: fieldSyms
p992
tp993
I4
s(Vinsert
p994
I43
VSimpleType: InputStreamReader
p995
tp996
I1
s(Vinsert
p997
I42
VSimpleName: primc
p998
tp999
I5
s(Vinsert
p1000
I43
VSimpleType: Double
p1001
tp1002
I1
s(Vinsert
p1003
I42
VSimpleName: retLocal
p1004
tp1005
I2
s(Vinsert
p1006
I42
VSimpleName: Tail
p1007
tp1008
I1
s(Vinsert
p1009
I27
VInfixExpression: >
p1010
tp1011
I18
s(Vinsert
p1012
I42
VSimpleName: V
p1013
tp1014
I2
s(Vinsert
p1015
I42
VSimpleName: parseInt
p1016
tp1017
I1
s(Vinsert
p1018
I45
VStringLiteral: "*ns*"
p1019
tp1020
I1
s(Vinsert
p1021
I40
VQualifiedName: addedLeaf.val
p1022
tp1023
I1
s(Vinsert
p1024
I42
VSimpleName: maybeField
p1025
tp1026
I1
s(Vinsert
p1027
I45
VStringLiteral: "clojure.lang.IFn"
p1028
tp1029
I1
s(Vinsert
p1030
I42
VSimpleName: bmap
p1031
tp1032
I1
s(Vinsert
p1033
I40
VQualifiedName: ObjExpr.ILOOKUP_THUNK_TYPE
p1034
tp1035
I1
s(Vinsert
p1036
I42
VSimpleName: hashLong
p1037
tp1038
I2
s(Vinsert
p1039
I40
VQualifiedName: java.security.PrivilegedAction
p1040
tp1041
I1
s(Vinsert
p1042
I42
VSimpleName: Counted
p1043
tp1044
I3
s(Vinsert
p1045
I42
VSimpleName: tstamp
p1046
tp1047
I1
s(Vinsert
p1048
I43
VSimpleType: Method
p1049
tp1050
I8
s(Vinsert
p1051
I13
VCharacterLiteral: '{'
p1052
tp1053
I1
s(Vinsert
p1054
I42
VSimpleName: CURRENT_NS
p1055
tp1056
I4
s(Vinsert
p1057
I42
VSimpleName: module
p1058
tp1059
I2
s(Vinsert
p1060
I42
VSimpleName: visitMethodInsn
p1061
tp1062
I4
s(Vinsert
p1063
I42
VSimpleName: ClassVisitor
p1064
tp1065
I1
s(Vinsert
p1066
I42
VSimpleName: _more
p1067
tp1068
I3
s(Vinsert
p1069
I45
VStringLiteral: "*err*"
p1070
tp1071
I1
s(Vinsert
p1072
I42
VSimpleName: write
p1073
tp1074
I19
s(Vinsert
p1075
I43
VSimpleType: RecognitionException
p1076
tp1077
I1
s(Vinsert
p1078
I43
VSimpleType: IFn
p1079
tp1080
I9
s(Vinsert
p1081
I42
VSimpleName: remEntries
p1082
tp1083
I1
s(Vinsert
p1084
I43
VSimpleType: PathNode
p1085
tp1086
I1
s(Vinsert
p1087
I42
VSimpleName: makeClassLoader
p1088
tp1089
I2
s(Vinsert
p1090
I42
VSimpleName: getEx
p1091
tp1092
I2
s(Vinsert
p1093
I42
VSimpleName: newLocals
p1094
tp1095
I1
s(Vinsert
p1096
I42
VSimpleName: from
p1097
tp1098
I11
s(Vinsert
p1099
I40
VQualifiedName: master.load
p1100
tp1101
I1
s(Vinsert
p1102
I42
VSimpleName: CLOJURE
p1103
tp1104
I1
s(Vinsert
p1105
I42
VSimpleName: mkdirs
p1106
tp1107
I1
s(Vinsert
p1108
I42
VSimpleName: popThreadBinding
p1109
tp1110
I4
s(Vinsert
p1111
I42
VSimpleName: third
p1112
tp1113
I3
s(Vinsert
p1114
I34
VNumberLiteral: 31
p1115
tp1116
I2
s(Vinsert
p1117
I40
VQualifiedName: sym.ns
p1118
tp1119
I4
s(Vinsert
p1120
I34
VNumberLiteral: 1000000
p1121
tp1122
I1
s(Vinsert
p1123
I42
VSimpleName: onceOnly
p1124
tp1125
I1
s(Vinsert
p1126
I45
VStringLiteral: "elide-meta"
p1127
tp1128
I1
s(Vinsert
p1129
I2
VArrayAccess
p1130
tp1131
I34
s(Vinsert
p1132
I42
VSimpleName: errPrintWriter
p1133
tp1134
I2
s(Vinsert
p1135
I42
VSimpleName: munge
p1136
tp1137
I7
s(Vinsert
p1138
I66
VTextElement: prefixed with a slash or not.</li>
p1139
tp1140
I1
s(Vinsert
p1141
I42
VSimpleName: nsname
p1142
tp1143
I3
s(Vinsert
p1144
I42
VSimpleName: visitInvokeDynamicInsn
p1145
tp1146
I3
s(Vinsert
p1147
I45
VStringLiteral: "chars"
p1148
tp1149
I1
s(Vinsert
p1150
I42
VSimpleName: METHOD
p1151
tp1152
I2
s(Vinsert
p1153
I49
VSwitchCase
p1154
tp1155
I18
s(Vinsert
p1156
I42
VSimpleName: UnsupportedOperationException
p1157
tp1158
I4
s(Vinsert
p1159
I42
VSimpleName: SOURCE
p1160
tp1161
I1
s(Vinsert
p1162
I42
VSimpleName: numerator
p1163
tp1164
I6
s(Vinsert
p1165
I42
VSimpleName: d
p1166
tp1167
I2
s(Vinsert
p1168
I42
VSimpleName: vals
p1169
tp1170
I6
s(Vinsert
p1171
I45
VStringLiteral: "Expecting var, "
p1172
tp1173
I1
s(Vinsert
p1174
I42
VSimpleName: WARN_ON_REFLECTION
p1175
tp1176
I2
s(Vinsert
p1177
I43
VSimpleType: Entry
p1178
tp1179
I3
s(Vinsert
p1180
I42
VSimpleName: Math
p1181
tp1182
I5
s(Vinsert
p1183
I42
VSimpleName: COLUMN
p1184
tp1185
I1
s(Vinsert
p1186
I40
VQualifiedName: right.key
p1187
tp1188
I1
s(Vinsert
p1189
I42
VSimpleName: Namespace
p1190
tp1191
I18
s(Vinsert
p1192
I45
VStringLiteral: "IFn"
p1193
tp1194
I1
s(Vinsert
p1195
I45
VStringLiteral: ":"
p1196
tp1197
I1
s(Vinsert
p1198
I42
VSimpleName: protocolOn
p1199
tp1200
I2
s(Vinsert
p1201
I42
VSimpleName: _str
p1202
tp1203
I3
s(Vinsert
p1204
I42
VSimpleName: trimmedTail
p1205
tp1206
I1
s(Vinsert
p1207
I42
VSimpleName: emitVar
p1208
tp1209
I1
s(Vinsert
p1210
I42
VSimpleName: loadFrom
p1211
tp1212
I1
s(Vinsert
p1213
I43
VSimpleType: TBox
p1214
tp1215
I1
s(Vinsert
p1216
I42
VSimpleName: rightBalance
p1217
tp1218
I1
s(Vinsert
p1219
I42
VSimpleName: sc
p1220
tp1221
I4
s(Vinsert
p1222
I42
VSimpleName: getMessage
p1223
tp1224
I2
s(Vinsert
p1225
I42
VSimpleName: getDynamicBinding
p1226
tp1227
I3
s(Vinsert
p1228
I43
VSimpleType: PersistentIdentityListMap
p1229
tp1230
I2
s(Vinsert
p1231
I42
VSimpleName: initProvided
p1232
tp1233
I4
s(Vinsert
p1234
I42
VSimpleName: LocalBinding
p1235
tp1236
I5
s(Vinsert
p1237
I39
VPrimitiveType: byte
p1238
tp1239
I3
s(Vinsert
p1240
I42
VSimpleName: arraycopy
p1241
tp1242
I12
s(Vinsert
p1243
I42
VSimpleName: visitLabel
p1244
tp1245
I1
s(Vinsert
p1246
I42
VSimpleName: identity
p1247
tp1248
I4
s(Vinsert
p1249
I42
VSimpleName: chars
p1250
tp1251
I1
s(Vinsert
p1252
I42
VSimpleName: rangedIterator
p1253
tp1254
I1
s(Vinsert
p1255
I42
VSimpleName: getConstructorDescriptor
p1256
tp1257
I1
s(Vinsert
p1258
I5
VArrayType: int[]
p1259
tp1260
I1
s(Vinsert
p1261
I42
VSimpleName: shortCast
p1262
tp1263
I1
s(Vinsert
p1264
I42
VSimpleName: nextInt
p1265
tp1266
I1
s(Vinsert
p1267
I42
VSimpleName: transaction
p1268
tp1269
I4
s(Vinsert
p1270
I38
VPrefixExpression: ~
p1271
tp1272
I1
s(Vinsert
p1273
I45
VStringLiteral: "clojure.core"
p1274
tp1275
I6
s(Vinsert
p1276
I42
VSimpleName: incr
p1277
tp1278
I1
s(Vinsert
p1279
I40
VQualifiedName: Float.TYPE
p1280
tp1281
I1
s(Vinsert
p1282
I42
VSimpleName: method
p1283
tp1284
I12
s(Vinsert
p1285
I40
VQualifiedName: h.tag
p1286
tp1287
I1
s(Vinsert
p1288
I42
VSimpleName: nssym
p1289
tp1290
I2
s(Vinsert
p1291
I42
VSimpleName: pclass
p1292
tp1293
I2
s(Vinsert
p1294
I42
VSimpleName: hashCombine
p1295
tp1296
I7
s(Vinsert
p1297
I42
VSimpleName: looproot
p1298
tp1299
I1
s(Vinsert
p1300
I42
VSimpleName: INVOKEINTERFACE
p1301
tp1302
I1
s(Vinsert
p1303
I13
VCharacterLiteral: '\u005cuD800'
p1304
tp1305
I1
s(Vinsert
p1306
I40
VQualifiedName: lb.isArg
p1307
tp1308
I1
s(Vinsert
p1309
I42
VSimpleName: CLDESC
p1310
tp1311
I2
s(Vinsert
p1312
I42
VSimpleName: visitTableSwitchInsn
p1313
tp1314
I1
s(Vinsert
p1315
I42
VSimpleName: object
p1316
tp1317
I1
s(Vinsert
p1318
I42
VSimpleName: invokeConstructor
p1319
tp1320
I2
s(Vinsert
p1321
I42
VSimpleName: FnMethod
p1322
tp1323
I4
s(Vinsert
p1324
I42
VSimpleName: INFINITE
p1325
tp1326
I1
s(Vinsert
p1327
I42
VSimpleName: bitOr
p1328
tp1329
I2
s(Vinsert
p1330
I40
VQualifiedName: ns.name.name
p1331
tp1332
I1
s(Vinsert
p1333
I42
VSimpleName: arg0
p1334
tp1335
I3
s(Vinsert
p1336
I42
VSimpleName: it
p1337
tp1338
I1
s(Vinsert
p1339
I42
VSimpleName: o1
p1340
tp1341
I5
s(Vinsert
p1342
I74
VParameterizedType: Map.Entry<TRef,Object>
p1343
tp1344
I1
s(Vinsert
p1345
I42
VSimpleName: Array
p1346
tp1347
I5
s(Vinsert
p1348
I45
VStringLiteral: ", "
p1349
tp1350
I1
s(Vinsert
p1351
I42
VSimpleName: intValueOfMethod
p1352
tp1353
I1
s(Vinsert
p1354
I42
VSimpleName: check
p1355
tp1356
I2
s(Vinsert
p1357
I40
VQualifiedName: b.init
p1358
tp1359
I1
s(Vinsert
p1360
I42
VSimpleName: multiplyBy
p1361
tp1362
I4
s(Vinsert
p1363
I42
VSimpleName: rv
p1364
tp1365
I1
s(Vinsert
p1366
I42
VSimpleName: cw
p1367
tp1368
I5
s(Vinsert
p1369
I40
VQualifiedName: Integer.MAX_VALUE
p1370
tp1371
I3
s(Vinsert
p1372
I42
VSimpleName: msecs
p1373
tp1374
I2
s(Vinsert
p1375
I42
VSimpleName: HostExpr
p1376
tp1377
I4
s(Vinsert
p1378
I42
VSimpleName: deref
p1379
tp1380
I37
s(Vinsert
p1381
I42
VSimpleName: name
p1382
tp1383
I71
s(Vinsert
p1384
I42
VSimpleName: elseExpr
p1385
tp1386
I4
s(Vinsert
p1387
I43
VSimpleType: PushbackReader
p1388
tp1389
I3
s(Vinsert
p1390
I42
VSimpleName: reader
p1391
tp1392
I5
s(Vinsert
p1393
I42
VSimpleName: valueOf
p1394
tp1395
I13
s(Vinsert
p1396
I42
VSimpleName: ArithmeticException
p1397
tp1398
I1
s(Vinsert
p1399
I43
VSimpleType: PrintWriter
p1400
tp1401
I8
s(Vinsert
p1402
I32
VMethodInvocation
p1403
tp1404
I1758
s(Vinsert
p1405
I40
VQualifiedName: name.name
p1406
tp1407
I1
s(Vinsert
p1408
I42
VSimpleName: loadLibrary
p1409
tp1410
I1
s(Vinsert
p1411
I42
VSimpleName: isVariadic
p1412
tp1413
I2
s(Vinsert
p1414
I42
VSimpleName: getMapping
p1415
tp1416
I3
s(Vinsert
p1417
I16
VConditionalExpression
p1418
tp1419
I25
s(Vinsert
p1420
I42
VSimpleName: arg12
p1421
tp1422
I2
s(Vinsert
p1423
I13
VCharacterLiteral: '.'
p1424
tp1425
I2
s(Vinsert
p1426
I45
VStringLiteral: "in-ns"
p1427
tp1428
I3
s(Vinsert
p1429
I43
VSimpleType: java.lang.reflect.Method
p1430
tp1431
I1
s(Vinsert
p1432
I42
VSimpleName: notSameClassLabel
p1433
tp1434
I1
s(Vinsert
p1435
I40
VQualifiedName: java.lang.reflect.Constructor
p1436
tp1437
I1
s(Vinsert
p1438
I43
VSimpleType: Enumeration
p1439
tp1440
I1
s(Vinsert
p1441
I42
VSimpleName: IParser
p1442
tp1443
I2
s(Vinsert
p1444
I42
VSimpleName: current
p1445
tp1446
I3
s(Vinsert
p1447
I42
VSimpleName: UNCHECKED_MATH
p1448
tp1449
I1
s(Vinsert
p1450
I43
VSimpleType: SAXException
p1451
tp1452
I1
s(Vinsert
p1453
I40
VQualifiedName: b.val
p1454
tp1455
I1
s(Vinsert
p1456
I3
VArrayCreation
p1457
tp1458
I11
s(Vinsert
p1459
I40
VQualifiedName: nsQualifiedSym.ns
p1460
tp1461
I2
s(Vinsert
p1462
I74
VParameterizedType: Collection<Object>
p1463
tp1464
I2
s(Vinsert
p1465
I45
VStringLiteral: "Mutable used by non-owner thread"
p1466
tp1467
I1
s(Vinsert
p1468
I45
VStringLiteral: "\u005c\u005ct"
p1469
tp1470
I1
s(Vinsert
p1471
I42
VSimpleName: Symbol
p1472
tp1473
I97
s(Vinsert
p1474
I43
VSimpleType: Link
p1475
tp1476
I1
s(Vinsert
p1477
I42
VSimpleName: test
p1478
tp1479
I2
s(Vinsert
p1480
I42
VSimpleName: pc
p1481
tp1482
I1
s(Vinsert
p1483
I40
VQualifiedName: Frame.TOP
p1484
tp1485
I1
s(Vinsert
p1486
I43
VSimpleType: HashMap
p1487
tp1488
I2
s(Vinsert
p1489
I42
VSimpleName: assocN
p1490
tp1491
I2
s(Vinsert
p1492
I42
VSimpleName: ArgVector
p1493
tp1494
I1
s(Vinsert
p1495
I17
VConstructorInvocation
p1496
tp1497
I2
s(Vinsert
p1498
I42
VSimpleName: emitArgsAsArray
p1499
tp1500
I2
s(Vinsert
p1501
I42
VSimpleName: pendingForms
p1502
tp1503
I6
s(Vinsert
p1504
I42
VSimpleName: sourcePath
p1505
tp1506
I2
s(Vinsert
p1507
I42
VSimpleName: state
p1508
tp1509
I4
s(Vinsert
p1510
I42
VSimpleName: findInternedVar
p1511
tp1512
I3
s(Vinsert
p1513
I42
VSimpleName: minSize
p1514
tp1515
I2
s(Vinsert
p1516
I45
VStringLiteral: "let"
p1517
tp1518
I1
s(Vinsert
p1519
I43
VSimpleType: IPersistentMap
p1520
tp1521
I40
s(Vinsert
p1522
I42
VSimpleName: OBJECT_TYPE
p1523
tp1524
I1
s(Vinsert
p1525
I40
VQualifiedName: ASeq.Src
p1526
tp1527
I1
s(Vinsert
p1528
I45
VStringLiteral: "clojure.spec/macroexpand-check"
p1529
tp1530
I1
s(Vinsert
p1531
I40
VQualifiedName: allmethods.length
p1532
tp1533
I1
s(Vinsert
p1534
I42
VSimpleName: booleanValue
p1535
tp1536
I2
s(Vinsert
p1537
I42
VSimpleName: macroexpand
p1538
tp1539
I1
s(Vinsert
p1540
I42
VSimpleName: init
p1541
tp1542
I35
s(Vinsert
p1543
I34
VNumberLiteral: 16
p1544
tp1545
I1
s(Vinsert
p1546
I42
VSimpleName: findInMemoryClass
p1547
tp1548
I1
s(Vinsert
p1549
I42
VSimpleName: longValue
p1550
tp1551
I8
s(Vinsert
p1552
I42
VSimpleName: isWhitespace
p1553
tp1554
I1
s(Vinsert
p1555
I42
VSimpleName: matcher
p1556
tp1557
I1
s(Vinsert
p1558
I42
VSimpleName: _val
p1559
tp1560
I2
s(Vinsert
p1561
I40
VQualifiedName: ks.ns
p1562
tp1563
I1
s(Vinsert
p1564
I40
VQualifiedName: clojure.lang.Fn
p1565
tp1566
I1
s(Vinsert
p1567
I42
VSimpleName: size
p1568
tp1569
I9
s(Vinsert
p1570
I42
VSimpleName: loadClassForName
p1571
tp1572
I1
s(Vinsert
p1573
I42
VSimpleName: elide_meta
p1574
tp1575
I1
s(Vinsert
p1576
I43
VSimpleType: HostExpr
p1577
tp1578
I1
s(Vinsert
p1579
I45
VStringLiteral: "hashCode"
p1580
tp1581
I1
s(Vinsert
p1582
I42
VSimpleName: _CT_MODULE
p1583
tp1584
I2
s(Vinsert
p1585
I42
VSimpleName: getNamespace
p1586
tp1587
I2
s(Vinsert
p1588
I45
VStringLiteral: "Vars are not values"
p1589
tp1590
I1
s(Vinsert
p1591
I42
VSimpleName: fjfork
p1592
tp1593
I1
s(Vinsert
p1594
I45
VStringLiteral: "clojure-user"
p1595
tp1596
I1
s(Vinsert
p1597
I43
VSimpleType: PersistentArray
p1598
tp1599
I1
s(Vinsert
p1600
I42
VSimpleName: mk
p1601
tp1602
I1
s(Vinsert
p1603
I45
VStringLiteral: "line"
p1604
tp1605
I1
s(Vinsert
p1606
I42
VSimpleName: Iterator
p1607
tp1608
I4
s(Vinsert
p1609
I45
VStringLiteral: "test"
p1610
tp1611
I2
s(Vinsert
p1612
I42
VSimpleName: item
p1613
tp1614
I4
s(Vinsert
p1615
I42
VSimpleName: getText
p1616
tp1617
I1
s(Vinsert
p1618
I42
VSimpleName: r
p1619
tp1620
I26
s(Vinsert
p1621
I40
VQualifiedName: v.sym.name
p1622
tp1623
I1
s(Vinsert
p1624
I42
VSimpleName: getField
p1625
tp1626
I5
s(Vinsert
p1627
I45
VStringLiteral: "121:1: expression returns [Object val] : (d= dotExpression | e= otherThanDotExpression );"
p1628
tp1629
I1
s(Vinsert
p1630
I27
VInfixExpression: ||
p1631
tp1632
I26
s(Vinsert
p1633
I45
VStringLiteral: "StringBuilder"
p1634
tp1635
I1
s(Vinsert
p1636
I42
VSimpleName: argType
p1637
tp1638
I2
s(Vinsert
p1639
I42
VSimpleName: pushThreadBindings
p1640
tp1641
I7
s(Vinsert
p1642
I43
VSimpleType: PersistentArrayMap
p1643
tp1644
I1
s(Vinsert
p1645
I42
VSimpleName: Reader
p1646
tp1647
I5
s(Vinsert
p1648
I42
VSimpleName: ce
p1649
tp1650
I1
s(Vinsert
p1651
I42
VSimpleName: LOADER_SUFFIX
p1652
tp1653
I1
s(Vinsert
p1654
I42
VSimpleName: recurMismatches
p1655
tp1656
I3
s(Vinsert
p1657
I45
VStringLiteral: "unsynchronized-mutable"
p1658
tp1659
I1
s(Vinsert
p1660
I34
VNumberLiteral: 5
p1661
tp1662
I2
s(Vinsert
p1663
I42
VSimpleName: sqExpandList
p1664
tp1665
I1
s(Vinsert
p1666
I74
VParameterizedType: Map.Entry<String,WeakReference<Class>>
p1667
tp1668
I1
s(Vinsert
p1669
I40
VQualifiedName: RT.T
p1670
tp1671
I2
s(Vinsert
p1672
I42
VSimpleName: sizeOrSeq
p1673
tp1674
I2
s(Vinsert
p1675
I42
VSimpleName: suppressRead
p1676
tp1677
I1
s(Vinsert
p1678
I42
VSimpleName: isEmpty
p1679
tp1680
I2
s(Vinsert
p1681
I42
VSimpleName: amount
p1682
tp1683
I1
s(Vinsert
p1684
I42
VSimpleName: numParams
p1685
tp1686
I2
s(Vinsert
p1687
I42
VSimpleName: keyOrNull
p1688
tp1689
I1
s(Vinsert
p1690
I45
VStringLiteral: "vector"
p1691
tp1692
I1
s(Vinsert
p1693
I42
VSimpleName: k
p1694
tp1695
I8
s(Vinsert
p1696
I42
VSimpleName: refinfo
p1697
tp1698
I1
s(Vinsert
p1699
I42
VSimpleName: prepRet
p1700
tp1701
I2
s(Vinsert
p1702
I40
VQualifiedName: java.util.Collection
p1703
tp1704
I1
s(Vinsert
p1705
I43
VSimpleType: Sequential
p1706
tp1707
I6
s(Vinsert
p1708
I42
VSimpleName: basefields
p1709
tp1710
I3
s(Vinsert
p1711
I42
VSimpleName: sets
p1712
tp1713
I1
s(Vinsert
p1714
I43
VSimpleType: Iterator
p1715
tp1716
I4
s(Vinsert
p1717
I45
VStringLiteral: "Can't call public method of non-public class: "
p1718
tp1719
I1
s(Vinsert
p1720
I42
VSimpleName: array
p1721
tp1722
I14
s(Vinsert
p1723
I42
VSimpleName: valOrNode
p1724
tp1725
I1
s(Vinsert
p1726
I43
VSimpleType: BitmapIndexedNode
p1727
tp1728
I1
s(Vinsert
p1729
I42
VSimpleName: Box
p1730
tp1731
I2
s(Vinsert
p1732
I42
VSimpleName: emitClearThis
p1733
tp1734
I2
s(Vinsert
p1735
I13
VCharacterLiteral: '\u005cf'
p1736
tp1737
I2
s(Vinsert
p1738
I5
VArrayType: String[]
p1739
tp1740
I1
s(Vinsert
p1741
I42
VSimpleName: StringWriter
p1742
tp1743
I1
s(Vinsert
p1744
I42
VSimpleName: INITIAL_SIZE
p1745
tp1746
I2
s(Vinsert
p1747
I42
VSimpleName: Float
p1748
tp1749
I5
s(Vinsert
p1750
I43
VSimpleType: PersistentArrayList
p1751
tp1752
I2
s(Vinsert
p1753
I42
VSimpleName: parent
p1754
tp1755
I5
s(Vinsert
p1756
I42
VSimpleName: fx
p1757
tp1758
I1
s(Vinsert
p1759
I42
VSimpleName: invoke
p1760
tp1761
I55
s(Vinsert
p1762
I42
VSimpleName: frameCount
p1763
tp1764
I1
s(Vinsert
p1765
I42
VSimpleName: attr
p1766
tp1767
I2
s(Vinsert
p1768
I42
VSimpleName: isSynthetic
p1769
tp1770
I1
s(Vinsert
p1771
I27
VInfixExpression: ==
p1772
tp1773
I140
s(Vinsert
p1774
I9
VBooleanLiteral: true
p1775
tp1776
I21
s(Vinsert
p1777
I42
VSimpleName: editable
p1778
tp1779
I2
s(Vinsert
p1780
I42
VSimpleName: radix
p1781
tp1782
I1
s(Vinsert
p1783
I42
VSimpleName: sneakyThrow
p1784
tp1785
I5
s(Vinsert
p1786
I43
VSimpleType: IPersistentList
p1787
tp1788
I1
s(Vinsert
p1789
I40
VQualifiedName: tld.dynamicBindings
p1790
tp1791
I2
s(Vinsert
p1792
I42
VSimpleName: not
p1793
tp1794
I2
s(Vinsert
p1795
I58
VVariableDeclarationExpression
p1796
tp1797
I45
s(Vinsert
p1798
I42
VSimpleName: count
p1799
tp1800
I60
s(Vinsert
p1801
I40
VQualifiedName: Type.DOUBLE_TYPE
p1802
tp1803
I1
s(Vinsert
p1804
I40
VQualifiedName: PersistentHashMap.EMPTY
p1805
tp1806
I3
s(Vinsert
p1807
I42
VSimpleName: TVal
p1808
tp1809
I5
s(Vinsert
p1810
I42
VSimpleName: T
p1811
tp1812
I5
s(Vinsert
p1813
I42
VSimpleName: writeLock
p1814
tp1815
I5
s(Vinsert
p1816
I42
VSimpleName: present
p1817
tp1818
I3
s(Vinsert
p1819
I42
VSimpleName: column
p1820
tp1821
I3
s(Vinsert
p1822
I42
VSimpleName: tc
p1823
tp1824
I2
s(Vinsert
p1825
I45
VStringLiteral: "Can't embed object in code, maybe print-dup not defined: "
p1826
tp1827
I1
s(Vinsert
p1828
I42
VSimpleName: startsWith
p1829
tp1830
I2
s(Vinsert
p1831
I42
VSimpleName: s1
p1832
tp1833
I2
s(Vinsert
p1834
I42
VSimpleName: PRINT_READABLY
p1835
tp1836
I1
s(Vinsert
p1837
I42
VSimpleName: fc
p1838
tp1839
I1
s(Vinsert
p1840
I42
VSimpleName: bindsToStaticFn
p1841
tp1842
I2
s(Vinsert
p1843
I42
VSimpleName: K
p1844
tp1845
I1
s(Vinsert
p1846
I45
VStringLiteral: "(Ljava/lang/Object;Ljava/lang/Object;)Ljava/lang/Object;"
p1847
tp1848
I1
s(Vinsert
p1849
I42
VSimpleName: table
p1850
tp1851
I6
s(Vinsert
p1852
I42
VSimpleName: err
p1853
tp1854
I1
s(Vinsert
p1855
I42
VSimpleName: keyword
p1856
tp1857
I2
s(Vinsert
p1858
I42
VSimpleName: doInvoke
p1859
tp1860
I14
s(Vinsert
p1861
I39
VPrimitiveType: double
p1862
tp1863
I8
s(Vinsert
p1864
I45
VStringLiteral: " params"
p1865
tp1866
I1
s(Vinsert
p1867
I42
VSimpleName: trans
p1868
tp1869
I1
s(Vinsert
p1870
I74
VParameterizedType: Enumeration<URL>
p1871
tp1872
I1
s(Vinsert
p1873
I40
VQualifiedName: java.util.Map.Entry
p1874
tp1875
I1
s(Vinsert
p1876
I40
VQualifiedName: tref.tvals
p1877
tp1878
I1
s(Vinsert
p1879
I43
VSimpleType: Keyword
p1880
tp1881
I20
s(Vinsert
p1882
I42
VSimpleName: getAnnotation
p1883
tp1884
I1
s(Vinsert
p1885
I42
VSimpleName: solo
p1886
tp1887
I2
s(Vinsert
p1888
I43
VSimpleType: ObjectStreamException
p1889
tp1890
I1
s(Vinsert
p1891
I42
VSimpleName: goTo
p1892
tp1893
I2
s(Vinsert
p1894
I43
VSimpleType: Constructor
p1895
tp1896
I2
s(Vinsert
p1897
I42
VSimpleName: ARRAY
p1898
tp1899
I1
s(Vinsert
p1900
I42
VSimpleName: me
p1901
tp1902
I4
s(Vinsert
p1903
I42
VSimpleName: cljfile
p1904
tp1905
I2
s(Vinsert
p1906
I45
VStringLiteral: "\u005c\u005cf"
p1907
tp1908
I1
s(Vinsert
p1909
I40
VQualifiedName: x.numerator
p1910
tp1911
I1
s(Vinsert
p1912
I42
VSimpleName: SERVER
p1913
tp1914
I1
s(Vinsert
p1915
I43
VSimpleType: Module
p1916
tp1917
I1
s(Vinsert
p1918
I42
VSimpleName: toplevel
p1919
tp1920
I1
s(Vinsert
p1921
I42
VSimpleName: parse
p1922
tp1923
I5
s(Vinsert
p1924
I42
VSimpleName: listIterator
p1925
tp1926
I1
s(Vinsert
p1927
I42
VSimpleName: Iterate
p1928
tp1929
I1
s(Vinsert
p1930
I42
VSimpleName: all
p1931
tp1932
I1
s(Vinsert
p1933
I42
VSimpleName: PersistentHashSet
p1934
tp1935
I7
s(Vinsert
p1936
I42
VSimpleName: I2L
p1937
tp1938
I2
s(Vinsert
p1939
I42
VSimpleName: symbols
p1940
tp1941
I1
s(Vinsert
p1942
I43
VSimpleType: IParser
p1943
tp1944
I1
s(Vinsert
p1945
I42
VSimpleName: findOrCreateModule
p1946
tp1947
I1
s(Vinsert
p1948
I42
VSimpleName: isArg
p1949
tp1950
I3
s(Vinsert
p1951
I42
VSimpleName: Error
p1952
tp1953
I2
s(Vinsert
p1954
I42
VSimpleName: ctor
p1955
tp1956
I2
s(Vinsert
p1957
I42
VSimpleName: cr
p1958
tp1959
I1
s(Vinsert
p1960
I42
VSimpleName: result
p1961
tp1962
I1
s(Vinsert
p1963
I9
VBooleanLiteral: false
p1964
tp1965
I23
s(Vinsert
p1966
I40
VQualifiedName: RT.F
p1967
tp1968
I1
s(Vinsert
p1969
I42
VSimpleName: nanoTime
p1970
tp1971
I5
s(Vinsert
p1972
I42
VSimpleName: isPrimitive
p1973
tp1974
I12
s(Vinsert
p1975
I45
VStringLiteral: "if(~A ~A null)~%"
p1976
tp1977
I1
s(Vinsert
p1978
I42
VSimpleName: ClassWriter
p1979
tp1980
I1
s(Vinsert
p1981
I45
VStringLiteral: "SMAP\u005cn"
p1982
tp1983
I1
s(Vinsert
p1984
I42
VSimpleName: loopLabel
p1985
tp1986
I2
s(Vinsert
p1987
I45
VStringLiteral: "Thread"
p1988
tp1989
I1
s(Vinsert
p1990
I42
VSimpleName: pooledExecutor
p1991
tp1992
I1
s(Vinsert
p1993
I13
VCharacterLiteral: 'u'
p1994
tp1995
I1
s(Vinsert
p1996
I42
VSimpleName: start
p1997
tp1998
I9
s(Vinsert
p1999
I42
VSimpleName: rand2
p2000
tp2001
I1
s(Vinsert
p2002
I43
VSimpleType: AMap
p2003
tp2004
I4
s(Vinsert
p2005
I42
VSimpleName: HASHTABLE_THRESHOLD
p2006
tp2007
I1
s(Vinsert
p2008
I42
VSimpleName: lng
p2009
tp2010
I2
s(Vinsert
p2011
I42
VSimpleName: aFnType
p2012
tp2013
I1
s(Vinsert
p2014
I42
VSimpleName: fromBigInteger
p2015
tp2016
I4
s(Vinsert
p2017
I45
VStringLiteral: "*print-readably*"
p2018
tp2019
I1
s(Vinsert
p2020
I43
VSimpleType: SoftReference
p2021
tp2022
I1
s(Vinsert
p2023
I42
VSimpleName: IMap
p2024
tp2025
I3
s(Vinsert
p2026
I40
VQualifiedName: ret.thisName
p2027
tp2028
I1
s(Vinsert
p2029
I43
VSimpleType: StringSeq
p2030
tp2031
I1
s(Vinsert
p2032
I42
VSimpleName: addBytecode
p2033
tp2034
I1
s(Vinsert
p2035
I45
VStringLiteral: "clojure.lang.Var"
p2036
tp2037
I1
s(Vinsert
p2038
I45
VStringLiteral: "Must assign primitive to primitive volatile: "
p2039
tp2040
I1
s(Vinsert
p2041
I42
VSimpleName: attrs
p2042
tp2043
I10
s(Vinsert
p2044
I43
VSimpleType: AtomicInteger
p2045
tp2046
I1
s(Vinsert
p2047
I43
VSimpleType: CloneNotSupportedException
p2048
tp2049
I1
s(Vinsert
p2050
I42
VSimpleName: api
p2051
tp2052
I2
s(Vinsert
p2053
I42
VSimpleName: dotname
p2054
tp2055
I1
s(Vinsert
p2056
I45
VStringLiteral: "java.lang.System"
p2057
tp2058
I1
s(Vinsert
p2059
I40
VQualifiedName: o.v0
p2060
tp2061
I1
s(Vinsert
p2062
I42
VSimpleName: considered
p2063
tp2064
I1
s(Vinsert
p2065
I42
VSimpleName: ConstantExpr
p2066
tp2067
I4
s(Vinsert
p2068
I42
VSimpleName: PersistentIdentityListMap
p2069
tp2070
I3
s(Vinsert
p2071
I43
VSimpleType: StringBuffer
p2072
tp2073
I2
s(Vinsert
p2074
I42
VSimpleName: tasks
p2075
tp2076
I1
s(Vinsert
p2077
I42
VSimpleName: foundExact
p2078
tp2079
I2
s(Vinsert
p2080
I42
VSimpleName: file
p2081
tp2082
I4
s(Vinsert
p2083
I42
VSimpleName: an
p2084
tp2085
I1
s(Vinsert
p2086
I42
VSimpleName: boundedLength
p2087
tp2088
I2
s(Vinsert
p2089
I42
VSimpleName: doubleValue
p2090
tp2091
I7
s(Vinsert
p2092
I45
VStringLiteral: "refer"
p2093
tp2094
I1
s(Vinsert
p2095
I42
VSimpleName: arg4
p2096
tp2097
I8
s(Vinsert
p2098
I42
VSimpleName: bitNot
p2099
tp2100
I1
s(Vinsert
p2101
I43
VSimpleType: Handle
p2102
tp2103
I2
s(Vinsert
p2104
I40
VQualifiedName: ref.tvals.next
p2105
tp2106
I1
s(Vinsert
p2107
I43
VSimpleType: PersistentVector
p2108
tp2109
I3
s(Vinsert
p2110
I42
VSimpleName: docstring
p2111
tp2112
I1
s(Vinsert
p2113
I42
VSimpleName: cs
p2114
tp2115
I2
s(Vinsert
p2116
I42
VSimpleName: rns
p2117
tp2118
I1
s(Vinsert
p2119
I42
VSimpleName: altering
p2120
tp2121
I1
s(Vinsert
p2122
I42
VSimpleName: tcount
p2123
tp2124
I1
s(Vinsert
p2125
I42
VSimpleName: nested
p2126
tp2127
I2
s(Vinsert
p2128
I42
VSimpleName: instance
p2129
tp2130
I3
s(Vinsert
p2131
I42
VSimpleName: alter
p2132
tp2133
I1
s(Vinsert
p2134
I42
VSimpleName: TBox
p2135
tp2136
I1
s(Vinsert
p2137
I42
VSimpleName: entryString
p2138
tp2139
I3
s(Vinsert
p2140
I40
VQualifiedName: x.denominator
p2141
tp2142
I2
s(Vinsert
p2143
I42
VSimpleName: varCallsites
p2144
tp2145
I2
s(Vinsert
p2146
I42
VSimpleName: quote
p2147
tp2148
I1
s(Vinsert
p2149
I42
VSimpleName: multianewarray
p2150
tp2151
I1
s(Vinsert
p2152
I42
VSimpleName: shortValue
p2153
tp2154
I2
s(Vinsert
p2155
I42
VSimpleName: y
p2156
tp2157
I17
s(Vinsert
p2158
I27
VInfixExpression: >>
p2159
tp2160
I1
s(Vinsert
p2161
I42
VSimpleName: File
p2162
tp2163
I1
s(Vinsert
p2164
I42
VSimpleName: getParameterTypes
p2165
tp2166
I4
s(Vinsert
p2167
I42
VSimpleName: swapThunk
p2168
tp2169
I1
s(Vinsert
p2170
I42
VSimpleName: containsKey
p2171
tp2172
I6
s(Vinsert
p2173
I42
VSimpleName: charLength
p2174
tp2175
I1
s(Vinsert
p2176
I42
VSimpleName: Numbers
p2177
tp2178
I15
s(Vinsert
p2179
I42
VSimpleName: rec
p2180
tp2181
I2
s(Vinsert
p2182
I42
VSimpleName: cons
p2183
tp2184
I19
s(Vinsert
p2185
I42
VSimpleName: xform
p2186
tp2187
I3
s(Vinsert
p2188
I40
VQualifiedName: tref.lockedBy
p2189
tp2190
I1
s(Vinsert
p2191
I42
VSimpleName: ch
p2192
tp2193
I9
s(Vinsert
p2194
I42
VSimpleName: newval
p2195
tp2196
I4
s(Vinsert
p2197
I42
VSimpleName: arg16
p2198
tp2199
I1
s(Vinsert
p2200
I34
VNumberLiteral: 0
p2201
tp2202
I97
s(Vinsert
p2203
I42
VSimpleName: status
p2204
tp2205
I2
s(Vinsert
p2206
I42
VSimpleName: append
p2207
tp2208
I4
s(Vinsert
p2209
I70
VEnhancedForStatement
p2210
tp2211
I12
s(Vinsert
p2212
I42
VSimpleName: buckets
p2213
tp2214
I6
s(Vinsert
p2215
I42
VSimpleName: n
p2216
tp2217
I44
s(Vinsert
p2218
I42
VSimpleName: bsmArgs
p2219
tp2220
I2
s(Vinsert
p2221
I40
VQualifiedName: BigInt.ZERO
p2222
tp2223
I1
s(Vinsert
p2224
I42
VSimpleName: reqs
p2225
tp2226
I1
s(Vinsert
p2227
I43
VSimpleType: Number
p2228
tp2229
I29
s(Vinsert
p2230
I42
VSimpleName: tailoff
p2231
tp2232
I1
s(Vinsert
p2233
I42
VSimpleName: swap
p2234
tp2235
I3
s(Vinsert
p2236
I42
VSimpleName: isVolatile
p2237
tp2238
I1
s(Vinsert
p2239
I39
VPrimitiveType: float
p2240
tp2241
I1
s(Vinsert
p2242
I42
VSimpleName: execute
p2243
tp2244
I4
s(Vinsert
p2245
I43
VSimpleType: HostSymbol
p2246
tp2247
I1
s(Vinsert
p2248
I42
VSimpleName: maxSize
p2249
tp2250
I2
s(Vinsert
p2251
I42
VSimpleName: maxLocal
p2252
tp2253
I2
s(Vinsert
p2254
I42
VSimpleName: read1
p2255
tp2256
I2
s(Vinsert
p2257
I42
VSimpleName: getAndIncrement
p2258
tp2259
I6
s(Vinsert
p2260
I42
VSimpleName: clearpath
p2261
tp2262
I1
s(Vinsert
p2263
I42
VSimpleName: loop23
p2264
tp2265
I1
s(Vinsert
p2266
I42
VSimpleName: multiply
p2267
tp2268
I5
s(Vinsert
p2269
I42
VSimpleName: length
p2270
tp2271
I17
s(Vinsert
p2272
I42
VSimpleName: v2
p2273
tp2274
I2
s(Vinsert
p2275
I40
VQualifiedName: t.key
p2276
tp2277
I1
s(Vinsert
p2278
I42
VSimpleName: et
p2279
tp2280
I2
s(Vinsert
p2281
I43
VSimpleType: Ratio
p2282
tp2283
I6
s(Vinsert
p2284
I40
VQualifiedName: v.ns.name.name
p2285
tp2286
I1
s(Vinsert
p2287
I43
VSimpleType: ByteVector
p2288
tp2289
I2
s(Vinsert
p2290
I45
VStringLiteral: "Can't specify more than "
p2291
tp2292
I1
s(Vinsert
p2293
I40
VQualifiedName: ret.internalName
p2294
tp2295
I1
s(Vinsert
p2296
I42
VSimpleName: op
p2297
tp2298
I2
s(Vinsert
p2299
I45
VStringLiteral: "Invalid number: "
p2300
tp2301
I1
s(Vinsert
p2302
I42
VSimpleName: equals
p2303
tp2304
I50
s(Vinsert
p2305
I42
VSimpleName: classForName
p2306
tp2307
I1
s(Vinsert
p2308
I45
VStringLiteral: "\u005c\u005cb"
p2309
tp2310
I2
s(Vinsert
p2311
I42
VSimpleName: MethodVisitor
p2312
tp2313
I1
s(Vinsert
p2314
I42
VSimpleName: getMethod
p2315
tp2316
I22
s(Vinsert
p2317
I13
VCharacterLiteral: '\u005cb'
p2318
tp2319
I2
s(Vinsert
p2320
I42
VSimpleName: compile
p2321
tp2322
I1
s(Vinsert
p2323
I42
VSimpleName: DOUBLE
p2324
tp2325
I1
s(Vinsert
p2326
I12
VCatchClause
p2327
tp2328
I8
s(Vinsert
p2329
I43
VSimpleType: ListMap
p2330
tp2331
I1
s(Vinsert
p2332
I42
VSimpleName: compareTo
p2333
tp2334
I6
s(Vinsert
p2335
I42
VSimpleName: bv
p2336
tp2337
I3
s(Vinsert
p2338
I42
VSimpleName: KeywordCallSite
p2339
tp2340
I2
s(Vinsert
p2341
I42
VSimpleName: LINE_AFTER
p2342
tp2343
I1
s(Vinsert
p2344
I66
VTextElement: Any number of Clojure files can be provided as path arguments; these
p2345
tp2346
I1
s(Vinsert
p2347
I42
VSimpleName: APPLY
p2348
tp2349
I2
s(Vinsert
p2350
I43
VSimpleType: Transaction
p2351
tp2352
I4
s(Vinsert
p2353
I42
VSimpleName: setValidator
p2354
tp2355
I1
s(Vinsert
p2356
I42
VSimpleName: ya
p2357
tp2358
I1
s(Vinsert
p2359
I42
VSimpleName: tagToClass
p2360
tp2361
I3
s(Vinsert
p2362
I42
VSimpleName: format
p2363
tp2364
I8
s(Vinsert
p2365
I42
VSimpleName: dv
p2366
tp2367
I3
s(Vinsert
p2368
I42
VSimpleName: arglistskw
p2369
tp2370
I1
s(Vinsert
p2371
I40
VQualifiedName: bootstrapMethods.length
p2372
tp2373
I1
s(Vinsert
p2374
I42
VSimpleName: Exception
p2375
tp2376
I115
s(Vinsert
p2377
I42
VSimpleName: inSameSubroutine
p2378
tp2379
I1
s(Vinsert
p2380
I42
VSimpleName: getObjectType
p2381
tp2382
I1
s(Vinsert
p2383
I42
VSimpleName: entriesFor
p2384
tp2385
I1
s(Vinsert
p2386
I42
VSimpleName: isNaN
p2387
tp2388
I3
s(Vinsert
p2389
I45
VStringLiteral: "((~A)~A)"
p2390
tp2391
I1
s(Vinsert
p2392
I42
VSimpleName: VISITED2
p2393
tp2394
I1
s(Vinsert
p2395
I42
VSimpleName: locals
p2396
tp2397
I1
s(Vinsert
p2398
I43
VSimpleType: Thread
p2399
tp2400
I7
s(Vinsert
p2401
I42
VSimpleName: bsmIndex
p2402
tp2403
I1
s(Vinsert
p2404
I42
VSimpleName: clearErrors
p2405
tp2406
I1
s(Vinsert
p2407
I43
VSimpleType: BigInteger
p2408
tp2409
I10
s(Vinsert
p2410
I42
VSimpleName: bi
p2411
tp2412
I5
s(Vinsert
p2413
I42
VSimpleName: oldm
p2414
tp2415
I2
s(Vinsert
p2416
I42
VSimpleName: LRETURN
p2417
tp2418
I1
s(Vinsert
p2419
I42
VSimpleName: lastPoint
p2420
tp2421
I1
s(Vinsert
p2422
I42
VSimpleName: allctors
p2423
tp2424
I1
s(Vinsert
p2425
I42
VSimpleName: FILE_KEY
p2426
tp2427
I1
s(Vinsert
p2428
I42
VSimpleName: tailPosition
p2429
tp2430
I3
s(Vinsert
p2431
I42
VSimpleName: getCompilerOption
p2432
tp2433
I1
s(Vinsert
p2434
I42
VSimpleName: MaybePrimitiveExpr
p2435
tp2436
I3
s(Vinsert
p2437
I45
VStringLiteral: "No matching field found: "
p2438
tp2439
I1
s(Vinsert
p2440
I42
VSimpleName: Throwable
p2441
tp2442
I3
s(Vinsert
p2443
I42
VSimpleName: notifyWatches
p2444
tp2445
I2
s(Vinsert
p2446
I40
VQualifiedName: Tuple.MAX_SIZE
p2447
tp2448
I1
s(Vinsert
p2449
I42
VSimpleName: del
p2450
tp2451
I1
s(Vinsert
p2452
I43
VSimpleType: MapExpr
p2453
tp2454
I2
s(Vinsert
p2455
I42
VSimpleName: getFn
p2456
tp2457
I1
s(Vinsert
p2458
I42
VSimpleName: catchExprs
p2459
tp2460
I2
s(Vinsert
p2461
I40
VQualifiedName: lnk._rest
p2462
tp2463
I1
s(Vinsert
p2464
I42
VSimpleName: subtractFrom
p2465
tp2466
I3
s(Vinsert
p2467
I42
VSimpleName: bindings
p2468
tp2469
I5
s(Vinsert
p2470
I40
VQualifiedName: L.successor
p2471
tp2472
I1
s(Vinsert
p2473
I42
VSimpleName: nth
p2474
tp2475
I23
s(Vinsert
p2476
I43
VSimpleType: StringWriter
p2477
tp2478
I1
s(Vinsert
p2479
I42
VSimpleName: canEmitPrimitive
p2480
tp2481
I2
s(Vinsert
p2482
I42
VSimpleName: PersistentListMap
p2483
tp2484
I2
s(Vinsert
p2485
I45
VStringLiteral: "[LObject;"
p2486
tp2487
I1
s(Vinsert
p2488
I42
VSimpleName: PersistentHashMap
p2489
tp2490
I2
s(Vinsert
p2491
I42
VSimpleName: putUTF8
p2492
tp2493
I1
s(Vinsert
p2494
I42
VSimpleName: storeArg
p2495
tp2496
I2
s(Vinsert
p2497
I42
VSimpleName: xc
p2498
tp2499
I3
s(Vinsert
p2500
I43
VSimpleType: ThreadLocal
p2501
tp2502
I4
s(Vinsert
p2503
I43
VSimpleType: InheritableThreadLocal
p2504
tp2505
I2
s(Vinsert
p2506
I42
VSimpleName: PersistentArray
p2507
tp2508
I2
s(Vinsert
p2509
I13
VCharacterLiteral: '\u005ct'
p2510
tp2511
I1
s(Vinsert
p2512
I42
VSimpleName: Frame
p2513
tp2514
I5
s(Vinsert
p2515
I42
VSimpleName: runtimeException
p2516
tp2517
I32
s(Vinsert
p2518
I42
VSimpleName: visitTryCatchBlock
p2519
tp2520
I2
s(Vinsert
p2521
I43
VSimpleType: ITransientMap
p2522
tp2523
I1
s(Vinsert
p2524
I42
VSimpleName: sb
p2525
tp2526
I4
s(Vinsert
p2527
I43
VSimpleType: IReduceInit
p2528
tp2529
I1
s(Vinsert
p2530
I42
VSimpleName: toCharArray
p2531
tp2532
I1
s(Vinsert
p2533
I42
VSimpleName: MAX_POSITIONAL_ARITY
p2534
tp2535
I3
s(Vinsert
p2536
I40
VQualifiedName: y.lpart
p2537
tp2538
I1
s(Vinsert
p2539
I42
VSimpleName: setMacro
p2540
tp2541
I1
s(Vinsert
p2542
I42
VSimpleName: getOpcode
p2543
tp2544
I1
s(Vinsert
p2545
I40
VQualifiedName: Long.MIN_VALUE
p2546
tp2547
I1
s(Vinsert
p2548
I43
VSimpleType: CFn
p2549
tp2550
I1
s(Vinsert
p2551
I42
VSimpleName: meta
p2552
tp2553
I33
s(Vinsert
p2554
I42
VSimpleName: InheritableThreadLocal
p2555
tp2556
I2
s(Vinsert
p2557
I43
VSimpleType: T
p2558
tp2559
I2
s(Vinsert
p2560
I42
VSimpleName: tagClass
p2561
tp2562
I1
s(Vinsert
p2563
I42
VSimpleName: visitLocalVariable
p2564
tp2565
I2
s(Vinsert
p2566
I42
VSimpleName: chunk
p2567
tp2568
I2
s(Vinsert
p2569
I42
VSimpleName: second
p2570
tp2571
I13
s(Vinsert
p2572
I42
VSimpleName: ISeq
p2573
tp2574
I60
s(Vinsert
p2575
I42
VSimpleName: create
p2576
tp2577
I85
s(Vinsert
p2578
I40
VQualifiedName: k.k.sym
p2579
tp2580
I1
s(Vinsert
p2581
I42
VSimpleName: loopLocals
p2582
tp2583
I5
s(Vinsert
p2584
I42
VSimpleName: ACC_FINAL
p2585
tp2586
I1
s(Vinsert
p2587
I42
VSimpleName: newline
p2588
tp2589
I1
s(Vinsert
p2590
I42
VSimpleName: floatToRawIntBits
p2591
tp2592
I1
s(Vinsert
p2593
I13
VCharacterLiteral: '-'
p2594
tp2595
I1
s(Vinsert
p2596
I38
VPrefixExpression: -
p2597
tp2598
I7
s(Vinsert
p2599
I42
VSimpleName: bootstrapMethods
p2600
tp2601
I1
s(Vinsert
p2602
I42
VSimpleName: nop
p2603
tp2604
I1
s(Vinsert
p2605
I42
VSimpleName: toBigInteger
p2606
tp2607
I1
s(Vinsert
p2608
I45
VStringLiteral: "require"
p2609
tp2610
I1
s(Vinsert
p2611
I40
VQualifiedName: val.bipart
p2612
tp2613
I2
s(Vinsert
p2614
I42
VSimpleName: field
p2615
tp2616
I4
s(Vinsert
p2617
I42
VSimpleName: identityHashCode
p2618
tp2619
I1
s(Vinsert
p2620
I42
VSimpleName: KEYWORDS
p2621
tp2622
I1
s(Vinsert
p2623
I42
VSimpleName: loadArg
p2624
tp2625
I1
s(Vinsert
p2626
I42
VSimpleName: getStatic
p2627
tp2628
I3
s(Vinsert
p2629
I42
VSimpleName: getRootClassLoader
p2630
tp2631
I1
s(Vinsert
p2632
I66
VTextElement: files are loaded in order, as if via <code>load-file</code>.  Filesystem and classpath
p2633
tp2634
I1
s(Vinsert
p2635
I42
VSimpleName: sourceName
p2636
tp2637
I3
s(Vinsert
p2638
I85
VDimension
p2639
tp2640
I34
s(Vinsert
p2641
I43
VSimpleType: IMap
p2642
tp2643
I3
s(Vinsert
p2644
I42
VSimpleName: subvec
p2645
tp2646
I1
s(Vinsert
p2647
I42
VSimpleName: gs
p2648
tp2649
I1
s(Vinsert
p2650
I42
VSimpleName: div
p2651
tp2652
I2
s(Vinsert
p2653
I66
VTextElement:   a PersistentArray
p2654
tp2655
I1
s(Vinsert
p2656
I42
VSimpleName: ai
p2657
tp2658
I2
s(Vinsert
p2659
I42
VSimpleName: arg1
p2660
tp2661
I22
s(Vinsert
p2662
I42
VSimpleName: existingRef
p2663
tp2664
I1
s(Vinsert
p2665
I40
VQualifiedName: val.lpart
p2666
tp2667
I1
s(Vinsert
p2668
I40
VQualifiedName: ClassWriter.FLOAT
p2669
tp2670
I1
s(Vinsert
p2671
I42
VSimpleName: rw
p2672
tp2673
I2
s(Vinsert
p2674
I42
VSimpleName: cv
p2675
tp2676
I8
s(Vinsert
p2677
I42
VSimpleName: def
p2678
tp2679
I1
s(Vinsert
p2680
I42
VSimpleName: arg13
p2681
tp2682
I8
s(Vinsert
p2683
I40
VQualifiedName: RT.ERR
p2684
tp2685
I3
s(Vinsert
p2686
I42
VSimpleName: seqToTypedArray
p2687
tp2688
I1
s(Vinsert
p2689
I42
VSimpleName: PersistentVector
p2690
tp2691
I7
s(Vinsert
p2692
I43
VSimpleType: LocalBindingExpr
p2693
tp2694
I3
s(Vinsert
p2695
I45
VStringLiteral: "Divide by zero"
p2696
tp2697
I1
s(Vinsert
p2698
I42
VSimpleName: ma
p2699
tp2700
I1
s(Vinsert
p2701
I42
VSimpleName: w
p2702
tp2703
I14
s(Vinsert
p2704
I42
VSimpleName: used
p2705
tp2706
I1
s(Vinsert
p2707
I42
VSimpleName: Keyword
p2708
tp2709
I29
s(Vinsert
p2710
I42
VSimpleName: ObjectStreamException
p2711
tp2712
I1
s(Vinsert
p2713
I42
VSimpleName: ensures
p2714
tp2715
I2
s(Vinsert
p2716
I42
VSimpleName: tld
p2717
tp2718
I26
s(Vinsert
p2719
I42
VSimpleName: classname
p2720
tp2721
I3
s(Vinsert
p2722
I42
VSimpleName: preds
p2723
tp2724
I1
s(Vinsert
p2725
I74
VParameterizedType: HashMap<BindingInit,Label>
p2726
tp2727
I1
s(Vinsert
p2728
I42
VSimpleName: HASHMAP
p2729
tp2730
I1
s(Vinsert
p2731
I43
VSimpleType: CyclicBarrier
p2732
tp2733
I1
s(Vinsert
p2734
I78
VMarkerAnnotation
p2735
tp2736
I3
s(Vinsert
p2737
I42
VSimpleName: LINE
p2738
tp2739
I4
s(Vinsert
p2740
I42
VSimpleName: load
p2741
tp2742
I9
s(Vinsert
p2743
I42
VSimpleName: NullPointerException
p2744
tp2745
I1
s(Vinsert
p2746
I42
VSimpleName: inTailCall
p2747
tp2748
I1
s(Vinsert
p2749
I66
VTextElement: </ol>
p2750
tp2751
I1
s(Vinsert
p2752
I42
VSimpleName: seqToPassedArray
p2753
tp2754
I5
s(Vinsert
p2755
I42
VSimpleName: createdLoader
p2756
tp2757
I1
s(Vinsert
p2758
I45
VStringLiteral: "double doubleCast(Object)"
p2759
tp2760
I1
s(Vinsert
p2761
I43
VSimpleType: PersistentListMap
p2762
tp2763
I1
s(Vinsert
p2764
I40
VQualifiedName: ref.lock
p2765
tp2766
I2
s(Vinsert
p2767
I45
VStringLiteral: "let*"
p2768
tp2769
I1
s(Vinsert
p2770
I83
VModifier: public
p2771
tp2772
I101
s(Vinsert
p2773
I42
VSimpleName: getClass
p2774
tp2775
I25
s(Vinsert
p2776
I43
VSimpleType: Actor.Action
p2777
tp2778
I1
s(Vinsert
p2779
I42
VSimpleName: nestedIter
p2780
tp2781
I1
s(Vinsert
p2782
I42
VSimpleName: isPublic
p2783
tp2784
I4
s(Vinsert
p2785
I42
VSimpleName: ListMap
p2786
tp2787
I2
s(Vinsert
p2788
I42
VSimpleName: COMMITTING
p2789
tp2790
I1
s(Vinsert
p2791
I42
VSimpleName: exists
p2792
tp2793
I1
s(Vinsert
p2794
I42
VSimpleName: thread
p2795
tp2796
I2
s(Vinsert
p2797
I42
VSimpleName: anInt
p2798
tp2799
I1
s(Vinsert
p2800
I45
VStringLiteral: "clojure.compile.warn-on-reflection"
p2801
tp2802
I1
s(Vinsert
p2803
I42
VSimpleName: targetClass
p2804
tp2805
I2
s(Vinsert
p2806
I42
VSimpleName: substring
p2807
tp2808
I10
s(Vinsert
p2809
I40
VQualifiedName: parent.edit
p2810
tp2811
I1
s(Vinsert
p2812
I42
VSimpleName: keyOrNode
p2813
tp2814
I2
s(Vinsert
p2815
I42
VSimpleName: UTF8
p2816
tp2817
I2
s(Vinsert
p2818
I42
VSimpleName: attrName
p2819
tp2820
I1
s(Vinsert
p2821
I42
VSimpleName: executor
p2822
tp2823
I1
s(Vinsert
p2824
I42
VSimpleName: getRunning
p2825
tp2826
I1
s(Vinsert
p2827
I7
VAssignment: +=
p2828
tp2829
I7
s(Vinsert
p2830
I40
VQualifiedName: RT.READER_RESOLVER
p2831
tp2832
I1
s(Vinsert
p2833
I74
VParameterizedType: java.lang.reflect.Constructor<?>
p2834
tp2835
I1
s(Vinsert
p2836
I42
VSimpleName: RBTree
p2837
tp2838
I2
s(Vinsert
p2839
I42
VSimpleName: toArray
p2840
tp2841
I1
s(Vinsert
p2842
I42
VSimpleName: methodTable
p2843
tp2844
I1
s(Vinsert
p2845
I42
VSimpleName: _chunk
p2846
tp2847
I1
s(Vinsert
p2848
I42
VSimpleName: invokeInstanceMember
p2849
tp2850
I3
s(Vinsert
p2851
I42
VSimpleName: InputStream
p2852
tp2853
I2
s(Vinsert
p2854
I27
VInfixExpression: -
p2855
tp2856
I13
s(Vinsert
p2857
I43
VSimpleType: ConstantExpr
p2858
tp2859
I4
s(Vinsert
p2860
I42
VSimpleName: sigtag
p2861
tp2862
I1
s(Vinsert
p2863
I42
VSimpleName: RandomAccess
p2864
tp2865
I1
s(Vinsert
p2866
I42
VSimpleName: BigDecimal
p2867
tp2868
I9
s(Vinsert
p2869
I40
VQualifiedName: Integer.MIN_VALUE
p2870
tp2871
I1
s(Vinsert
p2872
I40
VQualifiedName: RT.DATA_READERS
p2873
tp2874
I1
s(Vinsert
p2875
I66
VTextElement: </p>
p2876
tp2877
I3
s(Vinsert
p2878
I42
VSimpleName: types1
p2879
tp2880
I1
s(Vinsert
p2881
I42
VSimpleName: Integer
p2882
tp2883
I19
s(Vinsert
p2884
I42
VSimpleName: notFound
p2885
tp2886
I7
s(Vinsert
p2887
I42
VSimpleName: packages
p2888
tp2889
I1
s(Vinsert
p2890
I45
VStringLiteral: "__init"
p2891
tp2892
I1
s(Vinsert
p2893
I40
VQualifiedName: be.b
p2894
tp2895
I1
s(Vinsert
p2896
I42
VSimpleName: requireField
p2897
tp2898
I5
s(Vinsert
p2899
I40
VQualifiedName: RT.LINE_KEY
p2900
tp2901
I1
s(Vinsert
p2902
I42
VSimpleName: compareAndSet
p2903
tp2904
I3
s(Vinsert
p2905
I42
VSimpleName: processCommandLine
p2906
tp2907
I2
s(Vinsert
p2908
I43
VSimpleType: KeywordCallSite
p2909
tp2910
I2
s(Vinsert
p2911
I42
VSimpleName: ILookupThunk
p2912
tp2913
I1
s(Vinsert
p2914
I42
VSimpleName: syntaxQuote
p2915
tp2916
I1
s(Vinsert
p2917
I42
VSimpleName: fn
p2918
tp2919
I25
s(Vinsert
p2920
I42
VSimpleName: paramlists
p2921
tp2922
I4
s(Vinsert
p2923
I42
VSimpleName: lname
p2924
tp2925
I2
s(Vinsert
p2926
I42
VSimpleName: superName
p2927
tp2928
I1
s(Vinsert
p2929
I45
VStringLiteral: "java/lang/Float"
p2930
tp2931
I1
s(Vinsert
p2932
I40
VQualifiedName: Compiler.COMPILE_FILES
p2933
tp2934
I1
s(Vinsert
p2935
I5
VArrayType: char[]
p2936
tp2937
I3
s(Vinsert
p2938
I42
VSimpleName: endsWith
p2939
tp2940
I3
s(Vinsert
p2941
I45
VStringLiteral: "clojure/lang/IPersistentMap"
p2942
tp2943
I1
s(Vinsert
p2944
I42
VSimpleName: allConstantKeysUnique
p2945
tp2946
I1
s(Vinsert
p2947
I42
VSimpleName: IPersistentVector
p2948
tp2949
I4
s(Vinsert
p2950
I42
VSimpleName: cljURL
p2951
tp2952
I1
s(Vinsert
p2953
I43
VSimpleType: ILookupThunk
p2954
tp2955
I1
s(Vinsert
p2956
I42
VSimpleName: exit
p2957
tp2958
I2
s(Vinsert
p2959
I42
VSimpleName: enclosingMethodOwner
p2960
tp2961
I1
s(Vinsert
p2962
I42
VSimpleName: list
p2963
tp2964
I23
s(Vinsert
p2965
I42
VSimpleName: arg8
p2966
tp2967
I1
s(Vinsert
p2968
I45
VStringLiteral: "/"
p2969
tp2970
I1
s(Vinsert
p2971
I42
VSimpleName: NOP
p2972
tp2973
I1
s(Vinsert
p2974
I42
VSimpleName: Map
p2975
tp2976
I10
s(Vinsert
p2977
I42
VSimpleName: PersistentTree
p2978
tp2979
I1
s(Vinsert
p2980
I45
VStringLiteral: "<clinit>"
p2981
tp2982
I1
s(Vinsert
p2983
I42
VSimpleName: System
p2984
tp2985
I16
s(Vinsert
p2986
I40
VQualifiedName: ListMap.EMPTY
p2987
tp2988
I1
s(Vinsert
p2989
I42
VSimpleName: newTail
p2990
tp2991
I1
s(Vinsert
p2992
I42
VSimpleName: getDeclaringClass
p2993
tp2994
I7
s(Vinsert
p2995
I42
VSimpleName: getName
p2996
tp2997
I15
s(Vinsert
p2998
I40
VQualifiedName: ClassWriter.INDY
p2999
tp3000
I1
s(Vinsert
p3001
I43
VSimpleType: LineNumberReader
p3002
tp3003
I6
s(Vinsert
p3004
I45
VStringLiteral: "TYPE"
p3005
tp3006
I2
s(Vinsert
p3007
I13
VCharacterLiteral: '"'
p3008
tp3009
I1
s(Vinsert
p3010
I42
VSimpleName: LocalBindingExpr
p3011
tp3012
I4
s(Vinsert
p3013
I42
VSimpleName: u
p3014
tp3015
I1
s(Vinsert
p3016
I24
VForStatement
p3017
tp3018
I49
s(Vinsert
p3019
I43
VSimpleType: java.lang.Number
p3020
tp3021
I1
s(Vinsert
p3022
I5
VArrayType: long[]
p3023
tp3024
I2
s(Vinsert
p3025
I42
VSimpleName: isBridge
p3026
tp3027
I1
s(Vinsert
p3028
I42
VSimpleName: num
p3029
tp3030
I11
s(Vinsert
p3031
I45
VStringLiteral: "Clojure\u005cn"
p3032
tp3033
I1
s(Vinsert
p3034
I42
VSimpleName: str
p3035
tp3036
I1
s(Vinsert
p3037
I42
VSimpleName: fieldName
p3038
tp3039
I2
s(Vinsert
p3040
I42
VSimpleName: CatchClause
p3041
tp3042
I2
s(Vinsert
p3043
I42
VSimpleName: isBound
p3044
tp3045
I7
s(Vinsert
p3046
I42
VSimpleName: T2
p3047
tp3048
I3
s(Vinsert
p3049
I42
VSimpleName: Category
p3050
tp3051
I1
s(Vinsert
p3052
I43
VSimpleType: Obj
p3053
tp3054
I1
s(Vinsert
p3055
I34
VNumberLiteral: 4
p3056
tp3057
I4
s(Vinsert
p3058
I43
VSimpleType: IdentityHashMap
p3059
tp3060
I3
s(Vinsert
p3061
I42
VSimpleName: emitReturn
p3062
tp3063
I1
s(Vinsert
p3064
I42
VSimpleName: IPersistentList
p3065
tp3066
I1
s(Vinsert
p3067
I42
VSimpleName: booleanValueMethod
p3068
tp3069
I1
s(Vinsert
p3070
I42
VSimpleName: getAsMethodOfPublicBase
p3071
tp3072
I2
s(Vinsert
p3073
I40
VQualifiedName: ret.length
p3074
tp3075
I1
s(Vinsert
p3076
I42
VSimpleName: stringrdr
p3077
tp3078
I1
s(Vinsert
p3079
I42
VSimpleName: cname
p3080
tp3081
I1
s(Vinsert
p3082
I42
VSimpleName: bytecode
p3083
tp3084
I1
s(Vinsert
p3085
I42
VSimpleName: getDescriptor
p3086
tp3087
I1
s(Vinsert
p3088
I43
VSimpleType: BindingInit
p3089
tp3090
I4
s(Vinsert
p3091
I42
VSimpleName: j
p3092
tp3093
I8
s(Vinsert
p3094
I42
VSimpleName: v3
p3095
tp3096
I1
s(Vinsert
p3097
I42
VSimpleName: arglist
p3098
tp3099
I37
s(Vinsert
p3100
I42
VSimpleName: type
p3101
tp3102
I4
s(Vinsert
p3103
I42
VSimpleName: Number
p3104
tp3105
I29
s(Vinsert
p3106
I45
VStringLiteral: "fn__"
p3107
tp3108
I3
s(Vinsert
p3109
I43
VSimpleType: File
p3110
tp3111
I1
s(Vinsert
p3112
I42
VSimpleName: findOrCreate
p3113
tp3114
I8
s(Vinsert
p3115
I45
VStringLiteral: "public static long clojure.lang.RT.uncheckedLongCast(int)"
p3116
tp3117
I1
s(Vinsert
p3118
I42
VSimpleName: PersistentListIdentityMap
p3119
tp3120
I4
s(Vinsert
p3121
I45
VStringLiteral: "quote"
p3122
tp3123
I2
s(Vinsert
p3124
I42
VSimpleName: si
p3125
tp3126
I1
s(Vinsert
p3127
I42
VSimpleName: NIL_EXPR
p3128
tp3129
I1
s(Vinsert
p3130
I43
VSimpleType: Category
p3131
tp3132
I1
s(Vinsert
p3133
I42
VSimpleName: dvout
p3134
tp3135
I2
s(Vinsert
p3136
I42
VSimpleName: LOADER
p3137
tp3138
I1
s(Vinsert
p3139
I43
VSimpleType: ClassLoader
p3140
tp3141
I3
s(Vinsert
p3142
I42
VSimpleName: fjtask
p3143
tp3144
I1
s(Vinsert
p3145
I42
VSimpleName: actions
p3146
tp3147
I1
s(Vinsert
p3148
I19
VDoStatement
p3149
tp3150
I1
s(Vinsert
p3151
I43
VSimpleType: MonitorExitExpr
p3152
tp3153
I1
s(Vinsert
p3154
I42
VSimpleName: createFromMap
p3155
tp3156
I2
s(Vinsert
p3157
I60
VVariableDeclarationStatement
p3158
tp3159
I287
s(Vinsert
p3160
I45
VStringLiteral: "Var names must have namespace"
p3161
tp3162
I1
s(Vinsert
p3163
I43
VSimpleType: IArray
p3164
tp3165
I3
s(Vinsert
p3166
I40
VQualifiedName: BigInteger.ZERO
p3167
tp3168
I1
s(Vinsert
p3169
I42
VSimpleName: getResource
p3170
tp3171
I2
s(Vinsert
p3172
I42
VSimpleName: returnValue
p3173
tp3174
I1
s(Vinsert
p3175
I13
VCharacterLiteral: '\u005cuDFFF'
p3176
tp3177
I1
s(Vinsert
p3178
I42
VSimpleName: invokeStatic
p3179
tp3180
I8
s(Vinsert
p3181
I43
VSimpleType: Set
p3182
tp3183
I4
s(Vinsert
p3184
I42
VSimpleName: bit
p3185
tp3186
I3
s(Vinsert
p3187
I42
VSimpleName: newImpl
p3188
tp3189
I6
s(Vinsert
p3190
I40
VQualifiedName: RT.NS_REFERS
p3191
tp3192
I1
s(Vinsert
p3193
I42
VSimpleName: analyze
p3194
tp3195
I3
s(Vinsert
p3196
I42
VSimpleName: isDynamic
p3197
tp3198
I4
s(Vinsert
p3199
I40
VQualifiedName: RT.NS_IMPORTS
p3200
tp3201
I2
s(Vinsert
p3202
I42
VSimpleName: Set
p3203
tp3204
I6
s(Vinsert
p3205
I42
VSimpleName: getJavaClass
p3206
tp3207
I9
s(Vinsert
p3208
I43
VSimpleType: Attributes
p3209
tp3210
I1
s(Vinsert
p3211
I43
VSimpleType: T2
p3212
tp3213
I2
s(Vinsert
p3214
I42
VSimpleName: more
p3215
tp3216
I2
s(Vinsert
p3217
I43
VSimpleType: DynamicVar
p3218
tp3219
I1
s(Vinsert
p3220
I42
VSimpleName: peek
p3221
tp3222
I1
s(Vinsert
p3223
I22
VFieldAccess
p3224
tp3225
I66
s(Vinsert
p3226
I42
VSimpleName: Character
p3227
tp3228
I4
s(Vinsert
p3229
I40
VQualifiedName: tail.length
p3230
tp3231
I1
s(Vinsert
p3232
I42
VSimpleName: getPrimitiveType
p3233
tp3234
I1
s(Vinsert
p3235
I42
VSimpleName: workerReserve
p3236
tp3237
I1
s(Vinsert
p3238
I42
VSimpleName: APersistentMap
p3239
tp3240
I1
s(Vinsert
p3241
I40
VQualifiedName: BigDecimal.ZERO
p3242
tp3243
I1
s(Vinsert
p3244
I42
VSimpleName: ms
p3245
tp3246
I11
s(Vinsert
p3247
I40
VQualifiedName: java.lang.reflect.Method
p3248
tp3249
I1
s(Vinsert
p3250
I43
VSimpleType: ClassNotFoundException
p3251
tp3252
I4
s(Vinsert
p3253
I42
VSimpleName: Stream
p3254
tp3255
I3
s(Vinsert
p3256
I42
VSimpleName: shiftRight
p3257
tp3258
I1
s(Vinsert
p3259
I43
VSimpleType: MaybePrimitiveExpr
p3260
tp3261
I3
s(Vinsert
p3262
I42
VSimpleName: unmodifiableList
p3263
tp3264
I2
s(Vinsert
p3265
I42
VSimpleName: eqLabel
p3266
tp3267
I1
s(Vinsert
p3268
I42
VSimpleName: tinfo
p3269
tp3270
I1
s(Vinsert
p3271
I43
VSimpleType: RestFn
p3272
tp3273
I1
s(Vinsert
p3274
I42
VSimpleName: locks
p3275
tp3276
I2
s(Vinsert
p3277
I42
VSimpleName: ilookupThunk
p3278
tp3279
I1
s(Vinsert
p3280
I42
VSimpleName: willBeStaticMethod
p3281
tp3282
I1
s(Vinsert
p3283
I42
VSimpleName: PrintWriter
p3284
tp3285
I8
s(Vinsert
p3286
I43
VSimpleType: IPersistentCollection
p3287
tp3288
I15
s(Vinsert
p3289
I42
VSimpleName: visit
p3290
tp3291
I2
s(Vinsert
p3292
I43
VSimpleType: Map
p3293
tp3294
I9
s(Vinsert
p3295
I42
VSimpleName: extypes
p3296
tp3297
I1
s(Vinsert
p3298
I42
VSimpleName: be
p3299
tp3300
I3
s(Vinsert
p3301
I45
VStringLiteral: "Can't embed unreadable object in code: "
p3302
tp3303
I1
s(Vinsert
p3304
I42
VSimpleName: rev
p3305
tp3306
I3
s(Vinsert
p3307
I42
VSimpleName: getParent
p3308
tp3309
I2
s(Vinsert
p3310
I45
VStringLiteral: "Method names must begin with '.': "
p3311
tp3312
I1
s(Vinsert
p3313
I42
VSimpleName: IDeref
p3314
tp3315
I7
s(Vinsert
p3316
I5
VArrayType: Object[]
p3317
tp3318
I17
s(Vinsert
p3319
I42
VSimpleName: src
p3320
tp3321
I1
s(Vinsert
p3322
I40
VQualifiedName: Opcodes.ACONST_NULL
p3323
tp3324
I2
s(Vinsert
p3325
I42
VSimpleName: opsWith
p3326
tp3327
I1
s(Vinsert
p3328
I42
VSimpleName: forceChunk
p3329
tp3330
I1
s(Vinsert
p3331
I45
VStringLiteral: " for "
p3332
tp3333
I6
s(Vinsert
p3334
I42
VSimpleName: String
p3335
tp3336
I96
s(Vinsert
p3337
I7
VAssignment: ^=
p3338
tp3339
I2
s(Vinsert
p3340
I40
VQualifiedName: bi.init
p3341
tp3342
I2
s(Vinsert
p3343
I42
VSimpleName: Reflector
p3344
tp3345
I11
s(Vinsert
p3346
I42
VSimpleName: retryex
p3347
tp3348
I1
s(Vinsert
p3349
I43
VSimpleType: Associative
p3350
tp3351
I1
s(Vinsert
p3352
I45
VStringLiteral: "Key already present"
p3353
tp3354
I1
s(Vinsert
p3355
I42
VSimpleName: existingk
p3356
tp3357
I2
s(Vinsert
p3358
I42
VSimpleName: eql
p3359
tp3360
I1
s(Vinsert
p3361
I42
VSimpleName: isArray
p3362
tp3363
I2
s(Vinsert
p3364
I42
VSimpleName: entrySet
p3365
tp3366
I9
s(Vinsert
p3367
I42
VSimpleName: valAt
p3368
tp3369
I18
s(Vinsert
p3370
I42
VSimpleName: c
p3371
tp3372
I60
s(Vinsert
p3373
I42
VSimpleName: Method
p3374
tp3375
I23
s(Vinsert
p3376
I42
VSimpleName: basename
p3377
tp3378
I1
s(Vinsert
p3379
I42
VSimpleName: barged
p3380
tp3381
I1
s(Vinsert
p3382
I45
VStringLiteral: "arglists"
p3383
tp3384
I1
s(Vinsert
p3385
I42
VSimpleName: ClassLoader
p3386
tp3387
I5
s(Vinsert
p3388
I42
VSimpleName: applyToHelper
p3389
tp3390
I1
s(Vinsert
p3391
I40
VQualifiedName: Compiler.SOURCE
p3392
tp3393
I1
s(Vinsert
p3394
I42
VSimpleName: setTransaction
p3395
tp3396
I3
s(Vinsert
p3397
I42
VSimpleName: rest
p3398
tp3399
I78
s(Vinsert
p3400
I25
VIfStatement
p3401
tp3402
I350
s(Vinsert
p3403
I42
VSimpleName: FnExpr
p3404
tp3405
I10
s(Vinsert
p3406
I45
VStringLiteral: "Don't know how to get vals from: "
p3407
tp3408
I1
s(Vinsert
p3409
I42
VSimpleName: put12
p3410
tp3411
I1
s(Vinsert
p3412
I40
VQualifiedName: parent.key
p3413
tp3414
I2
s(Vinsert
p3415
I42
VSimpleName: toBigDecimal
p3416
tp3417
I2
s(Vinsert
p3418
I42
VSimpleName: visitFieldInsn
p3419
tp3420
I3
s(Vinsert
p3421
I42
VSimpleName: idx
p3422
tp3423
I5
s(Vinsert
p3424
I42
VSimpleName: AbstractMethodError
p3425
tp3426
I1
s(Vinsert
p3427
I45
VStringLiteral: "Mutable used after immutable call"
p3428
tp3429
I1
s(Vinsert
p3430
I42
VSimpleName: oldv
p3431
tp3432
I2
s(Vinsert
p3433
I83
VModifier: synchronized
p3434
tp3435
I4
s(Vinsert
p3436
I42
VSimpleName: MethodExpr
p3437
tp3438
I2
s(Vinsert
p3439
I43
VSimpleType: Cons
p3440
tp3441
I10
s(Vinsert
p3442
I74
VParameterizedType: ConcurrentHashMap<Symbol,Var>
p3443
tp3444
I1
s(Vinsert
p3445
I43
VSimpleType: TRef
p3446
tp3447
I6
s(Vinsert
p3448
I42
VSimpleName: ARG_TYPES
p3449
tp3450
I1
s(Vinsert
p3451
I42
VSimpleName: IteratorIter
p3452
tp3453
I1
s(Vinsert
p3454
I42
VSimpleName: qName
p3455
tp3456
I1
s(Vinsert
p3457
I40
VQualifiedName: info.status
p3458
tp3459
I1
s(Vinsert
p3460
I40
VQualifiedName: method.prim
p3461
tp3462
I4
s(Vinsert
p3463
I42
VSimpleName: Iterable
p3464
tp3465
I5
s(Vinsert
p3466
I38
VPrefixExpression: !
p3467
tp3468
I37
s(Vinsert
p3469
I42
VSimpleName: MACRO_CHECK
p3470
tp3471
I1
s(Vinsert
p3472
I42
VSimpleName: lookupVar
p3473
tp3474
I1
s(Vinsert
p3475
I42
VSimpleName: in
p3476
tp3477
I6
s(Vinsert
p3478
I43
VSimpleType: Boolean
p3479
tp3480
I5
s(Vinsert
p3481
I45
VStringLiteral: "splice not in list"
p3482
tp3483
I1
s(Vinsert
p3484
I43
VSimpleType: IntegerNum
p3485
tp3486
I1
s(Vinsert
p3487
I42
VSimpleName: getFD
p3488
tp3489
I1
s(Vinsert
p3490
I66
VTextElement: <p>
p3491
tp3492
I2
s(Vinsert
p3493
I5
VArrayType: BigInteger[]
p3494
tp3495
I1
s(Vinsert
p3496
I42
VSimpleName: getThreadBinding
p3497
tp3498
I1
s(Vinsert
p3499
I42
VSimpleName: readUnsignedShort
p3500
tp3501
I2
s(Vinsert
p3502
I43
VSimpleType: K
p3503
tp3504
I1
s(Vinsert
p3505
I42
VSimpleName: arity
p3506
tp3507
I1
s(Vinsert
p3508
I42
VSimpleName: boxedMath
p3509
tp3510
I1
s(Vinsert
p3511
I42
VSimpleName: indexOf
p3512
tp3513
I3
s(Vinsert
p3514
I42
VSimpleName: url
p3515
tp3516
I4
s(Vinsert
p3517
I42
VSimpleName: Cons
p3518
tp3519
I10
s(Vinsert
p3520
I42
VSimpleName: strVal1
p3521
tp3522
I1
s(Vinsert
p3523
I43
VSimpleType: java.io.ObjectOutputStream
p3524
tp3525
I2
s(Vinsert
p3526
I42
VSimpleName: C
p3527
tp3528
I8
s(Vinsert
p3529
I42
VSimpleName: invokeVirtual
p3530
tp3531
I2
s(Vinsert
p3532
I34
VNumberLiteral: 10
p3533
tp3534
I1
s(Vinsert
p3535
I42
VSimpleName: rdr
p3536
tp3537
I2
s(Vinsert
p3538
I45
VStringLiteral: ")"
p3539
tp3540
I1
s(Vinsert
p3541
I42
VSimpleName: arg5
p3542
tp3543
I6
s(Vinsert
p3544
I43
VSimpleType: ISeq
p3545
tp3546
I58
s(Vinsert
p3547
I42
VSimpleName: asTransient
p3548
tp3549
I8
s(Vinsert
p3550
I40
VQualifiedName: tag.ns
p3551
tp3552
I1
s(Vinsert
p3553
I42
VSimpleName: MACRO_CHECK_LOADING
p3554
tp3555
I1
s(Vinsert
p3556
I42
VSimpleName: letfn
p3557
tp3558
I2
s(Vinsert
p3559
I42
VSimpleName: fromIntMethod
p3560
tp3561
I1
s(Vinsert
p3562
I40
VQualifiedName: dvout.dvals
p3563
tp3564
I1
s(Vinsert
p3565
I66
VTextElement: paths may be provided in any order, and be intermixed as necessary.
p3566
tp3567
I1
s(Vinsert
p3568
I42
VSimpleName: throwIntOverflow
p3569
tp3570
I1
s(Vinsert
p3571
I42
VSimpleName: redefKey
p3572
tp3573
I1
s(Vinsert
p3574
I42
VSimpleName: mm
p3575
tp3576
I3
s(Vinsert
p3577
I42
VSimpleName: releaseThreadBindings
p3578
tp3579
I1
s(Vinsert
p3580
I45
VStringLiteral: "clojure.lang.Num from(int)"
p3581
tp3582
I1
s(Vinsert
p3583
I42
VSimpleName: visitMaxs
p3584
tp3585
I1
s(Vinsert
p3586
I43
VSimpleType: URL
p3587
tp3588
I3
s(Vinsert
p3589
I45
VStringLiteral: "valAt"
p3590
tp3591
I1
s(Vinsert
p3592
I42
VSimpleName: CHUNK_SIZE
p3593
tp3594
I2
s(Vinsert
p3595
I42
VSimpleName: Callable
p3596
tp3597
I1
s(Vinsert
p3598
I42
VSimpleName: argclasses
p3599
tp3600
I1
s(Vinsert
p3601
I42
VSimpleName: x
p3602
tp3603
I100
s(Vinsert
p3604
I42
VSimpleName: putInt
p3605
tp3606
I2
s(Vinsert
p3607
I40
VQualifiedName: ns.name
p3608
tp3609
I1
s(Vinsert
p3610
I42
VSimpleName: resolvedNS
p3611
tp3612
I1
s(Vinsert
p3613
I42
VSimpleName: emit
p3614
tp3615
I9
s(Vinsert
p3616
I42
VSimpleName: ready
p3617
tp3618
I1
s(Vinsert
p3619
I42
VSimpleName: getClassName
p3620
tp3621
I1
s(Vinsert
p3622
I45
VStringLiteral: "Invalid character constant: \u005c\u005cu"
p3623
tp3624
I1
s(Vinsert
p3625
I42
VSimpleName: setRoot
p3626
tp3627
I1
s(Vinsert
p3628
I42
VSimpleName: constants
p3629
tp3630
I2
s(Vinsert
p3631
I42
VSimpleName: INode
p3632
tp3633
I7
s(Vinsert
p3634
I43
VSimpleType: NotSerializableException
p3635
tp3636
I2
s(Vinsert
p3637
I42
VSimpleName: isLoop
p3638
tp3639
I3
s(Vinsert
p3640
I43
VSimpleType: Lock
p3641
tp3642
I1
s(Vinsert
p3643
I43
VSimpleType: List
p3644
tp3645
I8
s(Vinsert
p3646
I42
VSimpleName: MonitorExitExpr
p3647
tp3648
I1
s(Vinsert
p3649
I42
VSimpleName: ctorgen
p3650
tp3651
I3
s(Vinsert
p3652
I42
VSimpleName: ListIterator
p3653
tp3654
I1
s(Vinsert
p3655
I42
VSimpleName: arg17
p3656
tp3657
I2
s(Vinsert
p3658
I42
VSimpleName: loadClass
p3659
tp3660
I1
s(Vinsert
p3661
I34
VNumberLiteral: 3
p3662
tp3663
I3
s(Vinsert
p3664
I42
VSimpleName: availableProcessors
p3665
tp3666
I1
s(Vinsert
p3667
I42
VSimpleName: rand
p3668
tp3669
I1
s(Vinsert
p3670
I42
VSimpleName: Parser
p3671
tp3672
I1
s(Vinsert
p3673
I42
VSimpleName: getResourceAsStream
p3674
tp3675
I3
s(Vinsert
p3676
I40
VQualifiedName: RT.READEVAL
p3677
tp3678
I1
s(Vinsert
p3679
I42
VSimpleName: space
p3680
tp3681
I1
s(Vinsert
p3682
I42
VSimpleName: addTo
p3683
tp3684
I4
s(Vinsert
p3685
I42
VSimpleName: argexprs
p3686
tp3687
I2
s(Vinsert
p3688
I45
VStringLiteral: "letfn"
p3689
tp3690
I1
s(Vinsert
p3691
I42
VSimpleName: mask
p3692
tp3693
I1
s(Vinsert
p3694
I42
VSimpleName: addAnnotation
p3695
tp3696
I1
s(Vinsert
p3697
I43
VSimpleType: Serialized
p3698
tp3699
I1
s(Vinsert
p3700
I42
VSimpleName: getKey
p3701
tp3702
I6
s(Vinsert
p3703
I42
VSimpleName: READERS
p3704
tp3705
I1
s(Vinsert
p3706
I42
VSimpleName: reduceBigInteger
p3707
tp3708
I1
s(Vinsert
p3709
I45
VStringLiteral: "Gensym literal not in syntax-quote"
p3710
tp3711
I1
s(Vinsert
p3712
I42
VSimpleName: meths
p3713
tp3714
I1
s(Vinsert
p3715
I42
VSimpleName: applyTo
p3716
tp3717
I5
s(Vinsert
p3718
I40
VQualifiedName: Transaction.ZERO_POINT
p3719
tp3720
I1
s(Vinsert
p3721
I42
VSimpleName: MACRO_CHECK_LOCK
p3722
tp3723
I1
s(Vinsert
p3724
I42
VSimpleName: MetaExpr
p3725
tp3726
I2
s(Vinsert
p3727
I42
VSimpleName: SOURCE_PATH
p3728
tp3729
I2
s(Vinsert
p3730
I42
VSimpleName: hasJavaClass
p3731
tp3732
I6
s(Vinsert
p3733
I42
VSimpleName: isInteger
p3734
tp3735
I5
s(Vinsert
p3736
I42
VSimpleName: unlock
p3737
tp3738
I1
s(Vinsert
p3739
I43
VSimpleType: Integer
p3740
tp3741
I17
s(Vinsert
p3742
I42
VSimpleName: sym
p3743
tp3744
I28
s(Vinsert
p3745
I45
VStringLiteral: "double"
p3746
tp3747
I2
s(Vinsert
p3748
I42
VSimpleName: access
p3749
tp3750
I5
s(Vinsert
p3751
I40
VQualifiedName: sym.name
p3752
tp3753
I12
s(Vinsert
p3754
I42
VSimpleName: Matcher
p3755
tp3756
I1
s(Vinsert
p3757
I54
VTryStatement
p3758
tp3759
I27
s(Vinsert
p3760
I42
VSimpleName: black
p3761
tp3762
I3
s(Vinsert
p3763
I42
VSimpleName: suffix
p3764
tp3765
I1
s(Vinsert
p3766
I43
VSimpleType: IOException
p3767
tp3768
I5
s(Vinsert
p3769
I42
VSimpleName: group
p3770
tp3771
I9
s(Vinsert
p3772
I42
VSimpleName: capacity
p3773
tp3774
I2
s(Vinsert
p3775
I40
VQualifiedName: oa.length
p3776
tp3777
I1
s(Vinsert
p3778
I42
VSimpleName: UNCHECKED_MATH_PROP
p3779
tp3780
I1
s(Vinsert
p3781
I42
VSimpleName: Object
p3782
tp3783
I233
s(Vinsert
p3784
I30
VLabeledStatement
p3785
tp3786
I1
s(Vinsert
p3787
I43
VSimpleType: IllegalStateException
p3788
tp3789
I6
s(Vinsert
p3790
I42
VSimpleName: validate
p3791
tp3792
I1
s(Vinsert
p3793
I42
VSimpleName: currentNS
p3794
tp3795
I8
s(Vinsert
p3796
I45
VStringLiteral: "Expecting Symbol + Namespace"
p3797
tp3798
I1
s(Vinsert
p3799
I42
VSimpleName: bipart
p3800
tp3801
I3
s(Vinsert
p3802
I42
VSimpleName: ROOT_CLASSLOADER
p3803
tp3804
I3
s(Vinsert
p3805
I42
VSimpleName: bsm
p3806
tp3807
I3
s(Vinsert
p3808
I40
VQualifiedName: arr.length
p3809
tp3810
I1
s(Vinsert
p3811
I42
VSimpleName: startTime
p3812
tp3813
I2
s(Vinsert
p3814
I40
VQualifiedName: System.out
p3815
tp3816
I4
s(Vinsert
p3817
I42
VSimpleName: entry
p3818
tp3819
I1
s(Vinsert
p3820
I42
VSimpleName: ConcurrentHashMap
p3821
tp3822
I2
s(Vinsert
p3823
I42
VSimpleName: nextID
p3824
tp3825
I6
s(Vinsert
p3826
I42
VSimpleName: ensureEditable
p3827
tp3828
I2
s(Vinsert
p3829
I42
VSimpleName: mv
p3830
tp3831
I21
s(Vinsert
p3832
I42
VSimpleName: MathContext
p3833
tp3834
I1
s(Vinsert
p3835
I40
VQualifiedName: Opcodes.GETSTATIC
p3836
tp3837
I1
s(Vinsert
p3838
I42
VSimpleName: _count
p3839
tp3840
I5
s(Vinsert
p3841
I43
VSimpleType: InstanceMemberSymbol
p3842
tp3843
I2
s(Vinsert
p3844
I43
VSimpleType: AbstractMethodError
p3845
tp3846
I1
s(Vinsert
p3847
I42
VSimpleName: q
p3848
tp3849
I1
s(Vinsert
p3850
I36
VParenthesizedExpression
p3851
tp3852
I172
s(Vinsert
p3853
I40
VQualifiedName: bi.binding.name
p3854
tp3855
I1
s(Vinsert
p3856
I42
VSimpleName: Attributes
p3857
tp3858
I1
s(Vinsert
p3859
I42
VSimpleName: isReduced
p3860
tp3861
I10
s(Vinsert
p3862
I42
VSimpleName: loadArgs
p3863
tp3864
I3
s(Vinsert
p3865
I42
VSimpleName: parms
p3866
tp3867
I5
s(Vinsert
p3868
I52
VThisExpression
p3869
tp3870
I76
s(Vinsert
p3871
I42
VSimpleName: quotedVals
p3872
tp3873
I1
s(Vinsert
p3874
I40
VQualifiedName: System.err
p3875
tp3876
I2
s(Vinsert
p3877
I42
VSimpleName: bn
p3878
tp3879
I3
s(Vinsert
p3880
I42
VSimpleName: tvals
p3881
tp3882
I4
s(Vinsert
p3883
I42
VSimpleName: isInterface
p3884
tp3885
I1
s(Vinsert
p3886
I43
VSimpleType: LineNumberingPushbackReader
p3887
tp3888
I7
s(Vinsert
p3889
I42
VSimpleName: ILookup
p3890
tp3891
I6
s(Vinsert
p3892
I42
VSimpleName: dissoc
p3893
tp3894
I1
s(Vinsert
p3895
I42
VSimpleName: AccessController
p3896
tp3897
I1
s(Vinsert
p3898
I42
VSimpleName: labels
p3899
tp3900
I1
s(Vinsert
p3901
I40
VQualifiedName: tref.lock
p3902
tp3903
I1
s(Vinsert
p3904
I42
VSimpleName: preferTable
p3905
tp3906
I1
s(Vinsert
p3907
I45
VStringLiteral: "int hashCode()"
p3908
tp3909
I1
s(Vinsert
p3910
I42
VSimpleName: Arrays
p3911
tp3912
I1
s(Vinsert
p3913
I42
VSimpleName: sname
p3914
tp3915
I1
s(Vinsert
p3916
I42
VSimpleName: c2
p3917
tp3918
I1
s(Vinsert
p3919
I45
VStringLiteral: "Reflection warning, %s:%d:%d - call to method %s can't be resolved (target class is unknown).\u005cn"
p3920
tp3921
I1
s(Vinsert
p3922
I42
VSimpleName: f
p3923
tp3924
I48
s(Vinsert
p3925
I42
VSimpleName: Serialized
p3926
tp3927
I1
s(Vinsert
p3928
I42
VSimpleName: setMethod
p3929
tp3930
I1
s(Vinsert
p3931
I42
VSimpleName: _meta
p3932
tp3933
I10
s(Vinsert
p3934
I42
VSimpleName: hasNext
p3935
tp3936
I12
s(Vinsert
p3937
I40
VQualifiedName: ver.point
p3938
tp3939
I1
s(Vinsert
p3940
I40
VQualifiedName: APersistentMap.KeySeq
p3941
tp3942
I1
s(Vinsert
p3943
I42
VSimpleName: wideOffset
p3944
tp3945
I1
s(Vinsert
p3946
I42
VSimpleName: iterator
p3947
tp3948
I9
s(Vinsert
p3949
I42
VSimpleName: Num
p3950
tp3951
I27
s(Vinsert
p3952
I42
VSimpleName: resolve
p3953
tp3954
I2
s(Vinsert
p3955
I42
VSimpleName: nvae
p3956
tp3957
I1
s(Vinsert
p3958
I42
VSimpleName: bindingInits
p3959
tp3960
I5
s(Vinsert
p3961
I42
VSimpleName: HashMap
p3962
tp3963
I2
s(Vinsert
p3964
I42
VSimpleName: LineNumberReader
p3965
tp3966
I6
s(Vinsert
p3967
I43
VSimpleType: FnExpr
p3968
tp3969
I8
s(Vinsert
p3970
I42
VSimpleName: expr2
p3971
tp3972
I1
s(Vinsert
p3973
I40
VQualifiedName: BigInteger.TEN
p3974
tp3975
I1
s(Vinsert
p3976
I83
VModifier: final
p3977
tp3978
I59
s(Vinsert
p3979
I42
VSimpleName: popThreadBindings
p3980
tp3981
I3
s(Vinsert
p3982
I40
VQualifiedName: ver.val
p3983
tp3984
I1
s(Vinsert
p3985
I42
VSimpleName: importClass
p3986
tp3987
I1
s(Vinsert
p3988
I42
VSimpleName: ops
p3989
tp3990
I3
s(Vinsert
p3991
I42
VSimpleName: VAR_TYPE
p3992
tp3993
I1
s(Vinsert
p3994
I40
VQualifiedName: s.ns
p3995
tp3996
I1
s(Vinsert
p3997
I83
VModifier: static
p3998
tp3999
I57
s(Vinsert
p4000
I42
VSimpleName: toString
p4001
tp4002
I15
s(Vinsert
p4003
I42
VSimpleName: D2L
p4004
tp4005
I1
s(Vinsert
p4006
I40
VQualifiedName: tv.tstamp.msecs
p4007
tp4008
I1
s(Vinsert
p4009
I45
VStringLiteral: "Callable"
p4010
tp4011
I1
s(Vinsert
p4012
I42
VSimpleName: close
p4013
tp4014
I4
s(Vinsert
p4015
I40
VQualifiedName: Opcodes.TOP
p4016
tp4017
I1
s(Vinsert
p4018
I42
VSimpleName: nextElement
p4019
tp4020
I3
s(Vinsert
p4021
I42
VSimpleName: contains
p4022
tp4023
I11
s(Vinsert
p4024
I40
VQualifiedName: PersistentArrayMap.HASHTABLE_THRESHOLD
p4025
tp4026
I1
s(Vinsert
p4027
I37
VPostfixExpression: ++
p4028
tp4029
I28
s(Vinsert
p4030
I43
VSimpleType: Label
p4031
tp4032
I14
s(Vinsert
p4033
I43
VSimpleType: Num
p4034
tp4035
I13
s(Vinsert
p4036
I42
VSimpleName: printString
p4037
tp4038
I4
s(Vinsert
p4039
I42
VSimpleName: cnt
p4040
tp4041
I2
s(Vinsert
p4042
I42
VSimpleName: usedConstants
p4043
tp4044
I3
s(Vinsert
p4045
I42
VSimpleName: require
p4046
tp4047
I1
s(Vinsert
p4048
I42
VSimpleName: writeObject
p4049
tp4050
I2
s(Vinsert
p4051
I43
VSimpleType: ThreadLocalData
p4052
tp4053
I8
s(Vinsert
p4054
I42
VSimpleName: first
p4055
tp4056
I89
s(Vinsert
p4057
I42
VSimpleName: ver
p4058
tp4059
I1
s(Vinsert
p4060
I42
VSimpleName: asSym
p4061
tp4062
I1
s(Vinsert
p4063
I42
VSimpleName: ls
p4064
tp4065
I3
s(Vinsert
p4066
I43
VSimpleType: ArraySeq
p4067
tp4068
I1
s(Vinsert
p4069
I42
VSimpleName: ctp
p4070
tp4071
I1
s(Vinsert
p4072
I45
VStringLiteral: "clojure"
p4073
tp4074
I10
s(Vinsert
p4075
I45
VStringLiteral: "float floatCast(Object)"
p4076
tp4077
I1
s(Vinsert
p4078
I42
VSimpleName: vs
p4079
tp4080
I2
s(Vinsert
p4081
I42
VSimpleName: getLineNumber
p4082
tp4083
I5
s(Vinsert
p4084
I42
VSimpleName: entries
p4085
tp4086
I7
s(Vinsert
p4087
I42
VSimpleName: getResources
p4088
tp4089
I1
s(Vinsert
p4090
I42
VSimpleName: data_readers
p4091
tp4092
I1
s(Vinsert
p4093
I42
VSimpleName: IN_NS
p4094
tp4095
I1
s(Vinsert
p4096
I42
VSimpleName: _firstFn
p4097
tp4098
I4
s(Vinsert
p4099
I40
VQualifiedName: java.math.BigDecimal
p4100
tp4101
I1
s(Vinsert
p4102
I42
VSimpleName: InvocationTargetException
p4103
tp4104
I1
s(Vinsert
p4105
I42
VSimpleName: persistentMap
p4106
tp4107
I1
s(Vinsert
p4108
I42
VSimpleName: IPersistentSet
p4109
tp4110
I8
s(Vinsert
p4111
I42
VSimpleName: hist
p4112
tp4113
I1
s(Vinsert
p4114
I42
VSimpleName: setName
p4115
tp4116
I1
s(Vinsert
p4117
I42
VSimpleName: objtype
p4118
tp4119
I1
s(Vinsert
p4120
I40
VQualifiedName: l.status
p4121
tp4122
I2
s(Vinsert
p4123
I40
VQualifiedName: C.EXPRESSION
p4124
tp4125
I5
s(Vinsert
p4126
I42
VSimpleName: Info
p4127
tp4128
I1
s(Vinsert
p4129
I45
VStringLiteral: "EOF while reading regex"
p4130
tp4131
I3
s(Vinsert
p4132
I42
VSimpleName: readUTF8
p4133
tp4134
I1
s(Vinsert
p4135
I42
VSimpleName: visitFrame
p4136
tp4137
I1
s(Vinsert
p4138
I43
VSimpleType: LazySeq
p4139
tp4140
I2
s(Vinsert
p4141
I27
VInfixExpression: >=
p4142
tp4143
I6
s(Vinsert
p4144
I42
VSimpleName: aclass
p4145
tp4146
I1
s(Vinsert
p4147
I42
VSimpleName: errors
p4148
tp4149
I3
s(Vinsert
p4150
I45
VStringLiteral: "/zip.clj"
p4151
tp4152
I1
s(Vinsert
p4153
I42
VSimpleName: PersistentTreeSet
p4154
tp4155
I2
s(Vinsert
p4156
I42
VSimpleName: VECTOR
p4157
tp4158
I1
s(Vinsert
p4159
I42
VSimpleName: ELIDE_META_PROP
p4160
tp4161
I1
s(Vinsert
p4162
I45
VStringLiteral: "<init>"
p4163
tp4164
I2
s(Vinsert
p4165
I42
VSimpleName: local
p4166
tp4167
I1
s(Vinsert
p4168
I42
VSimpleName: UNREALIZED_SEED
p4169
tp4170
I1
s(Vinsert
p4171
I42
VSimpleName: imports
p4172
tp4173
I1
s(Vinsert
p4174
I42
VSimpleName: AFunction
p4175
tp4176
I1
s(Vinsert
p4177
I42
VSimpleName: writeReplace
p4178
tp4179
I1
s(Vinsert
p4180
I42
VSimpleName: RUNNING
p4181
tp4182
I1
s(Vinsert
p4183
I42
VSimpleName: keyvals
p4184
tp4185
I4
s(Vinsert
p4186
I42
VSimpleName: arg10
p4187
tp4188
I4
s(Vinsert
p4189
I45
VStringLiteral: " is mapped to "
p4190
tp4191
I1
s(Vinsert
p4192
I42
VSimpleName: Collection
p4193
tp4194
I3
s(Vinsert
p4195
I42
VSimpleName: stare
p4196
tp4197
I1
s(Vinsert
p4198
I42
VSimpleName: prev
p4199
tp4200
I1
s(Vinsert
p4201
I42
VSimpleName: impl
p4202
tp4203
I10
s(Vinsert
p4204
I42
VSimpleName: hasMoreElements
p4205
tp4206
I1
s(Vinsert
p4207
I42
VSimpleName: dynamicBindings
p4208
tp4209
I1
s(Vinsert
p4210
I43
VSimpleType: java.lang.reflect.Constructor
p4211
tp4212
I1
s(Vinsert
p4213
I42
VSimpleName: Resolver
p4214
tp4215
I2
s(Vinsert
p4216
I42
VSimpleName: listStar
p4217
tp4218
I1
s(Vinsert
p4219
I42
VSimpleName: finallyLabel
p4220
tp4221
I3
s(Vinsert
p4222
I42
VSimpleName: visitAnnotation
p4223
tp4224
I1
s(Vinsert
p4225
I42
VSimpleName: _first
p4226
tp4227
I6
s(Vinsert
p4228
I42
VSimpleName: startTry
p4229
tp4230
I1
s(Vinsert
p4231
I42
VSimpleName: keywordCallsites
p4232
tp4233
I1
s(Vinsert
p4234
I43
VSimpleType: JarURLConnection
p4235
tp4236
I1
s(Vinsert
p4237
I27
VInfixExpression: |
p4238
tp4239
I2
s(Vinsert
p4240
I42
VSimpleName: dest
p4241
tp4242
I1
s(Vinsert
p4243
I42
VSimpleName: doCompare
p4244
tp4245
I1
s(Vinsert
p4246
I42
VSimpleName: nsSym
p4247
tp4248
I1
s(Vinsert
p4249
I42
VSimpleName: estimatedTime
p4250
tp4251
I2
s(Vinsert
p4252
I40
VQualifiedName: tstamp.status
p4253
tp4254
I1
s(Vinsert
p4255
I42
VSimpleName: addType
p4256
tp4257
I1
s(Vinsert
p4258
I42
VSimpleName: setTag
p4259
tp4260
I1
s(Vinsert
p4261
I43
VSimpleType: Stream
p4262
tp4263
I3
s(Vinsert
p4264
I42
VSimpleName: intern
p4265
tp4266
I72
s(Vinsert
p4267
I40
VQualifiedName: predOps.length
p4268
tp4269
I1
s(Vinsert
p4270
I42
VSimpleName: Double
p4271
tp4272
I3
s(Vinsert
p4273
I42
VSimpleName: tref
p4274
tp4275
I4
s(Vinsert
p4276
I40
VQualifiedName: PersistentVector.EMPTY
p4277
tp4278
I4
s(Vinsert
p4279
I42
VSimpleName: getValue
p4280
tp4281
I7
s(Vinsert
p4282
I42
VSimpleName: prefers
p4283
tp4284
I1
s(Vinsert
p4285
I42
VSimpleName: setMeta
p4286
tp4287
I3
s(Vinsert
p4288
I45
VStringLiteral: "/boot.clj"
p4289
tp4290
I1
s(Vinsert
p4291
I42
VSimpleName: namesym
p4292
tp4293
I1
s(Vinsert
p4294
I42
VSimpleName: persistent
p4295
tp4296
I10
s(Vinsert
p4297
I43
VSimpleType: clojure.lang.Fn
p4298
tp4299
I1
s(Vinsert
p4300
I8
VBlock
p4301
tp4302
I651
s(Vinsert
p4303
I40
VQualifiedName: rx.numerator
p4304
tp4305
I1
s(Vinsert
p4306
I43
VSimpleType: ObjExpr
p4307
tp4308
I1
s(Vinsert
p4309
I42
VSimpleName: ERR
p4310
tp4311
I1
s(Vinsert
p4312
I40
VQualifiedName: parent.array
p4313
tp4314
I1
s(Vinsert
p4315
I42
VSimpleName: site
p4316
tp4317
I2
s(Vinsert
p4318
I43
VSimpleType: Character
p4319
tp4320
I1
s(Vinsert
p4321
I76
VWildcardType: ?
p4322
tp4323
I2
s(Vinsert
p4324
I42
VSimpleName: getSuperclass
p4325
tp4326
I2
s(Vinsert
p4327
I42
VSimpleName: USER_NS
p4328
tp4329
I1
s(Vinsert
p4330
I5
VArrayType: double[]
p4331
tp4332
I3
s(Vinsert
p4333
I42
VSimpleName: getRuntime
p4334
tp4335
I1
s(Vinsert
p4336
I46
VSuperConstructorInvocation
p4337
tp4338
I5
s(Vinsert
p4339
I42
VSimpleName: key
p4340
tp4341
I37
s(Vinsert
p4342
I42
VSimpleName: denominator
p4343
tp4344
I2
s(Vinsert
p4345
I40
VQualifiedName: l.successors.next.successor
p4346
tp4347
I1
s(Vinsert
p4348
I42
VSimpleName: floatValue
p4349
tp4350
I4
s(Vinsert
p4351
I42
VSimpleName: defaultLabel
p4352
tp4353
I2
s(Vinsert
p4354
I42
VSimpleName: NodeSeq
p4355
tp4356
I1
s(Vinsert
p4357
I42
VSimpleName: readLock
p4358
tp4359
I4
s(Vinsert
p4360
I45
VStringLiteral: ", time: "
p4361
tp4362
I1
s(Vinsert
p4363
I42
VSimpleName: arg7
p4364
tp4365
I1
s(Vinsert
p4366
I42
VSimpleName: arg9
p4367
tp4368
I2
s(Vinsert
p4369
I42
VSimpleName: star3
p4370
tp4371
I1
s(Vinsert
p4372
I5
VArrayType: byte[]
p4373
tp4374
I1
s(Vinsert
p4375
I40
VQualifiedName: Boolean.TRUE
p4376
tp4377
I3
s(Vinsert
p4378
I42
VSimpleName: bx
p4379
tp4380
I3
s(Vinsert
p4381
I42
VSimpleName: values
p4382
tp4383
I2
s(Vinsert
p4384
I40
VQualifiedName: Transaction.Info
p4385
tp4386
I1
s(Vinsert
p4387
I42
VSimpleName: APersistentVector
p4388
tp4389
I2
s(Vinsert
p4390
I40
VQualifiedName: parameterTypes.length
p4391
tp4392
I1
s(Vinsert
p4393
I42
VSimpleName: host
p4394
tp4395
I1
s(Vinsert
p4396
I42
VSimpleName: divide
p4397
tp4398
I2
s(Vinsert
p4399
I42
VSimpleName: pow
p4400
tp4401
I1
s(Vinsert
p4402
I42
VSimpleName: mi
p4403
tp4404
I1
s(Vinsert
p4405
I43
VSimpleType: ITransientSet
p4406
tp4407
I4
s(Vinsert
p4408
I42
VSimpleName: _next
p4409
tp4410
I5
s(Vinsert
p4411
I42
VSimpleName: OBJECT
p4412
tp4413
I1
s(Vinsert
p4414
I42
VSimpleName: dupX1
p4415
tp4416
I1
s(Vinsert
p4417
I43
VSimpleType: PersistentHashSet
p4418
tp4419
I5
s(Vinsert
p4420
I42
VSimpleName: zeroPred
p4421
tp4422
I1
s(Vinsert
p4423
I42
VSimpleName: IN_NS_VAR
p4424
tp4425
I1
s(Vinsert
p4426
I43
VSimpleType: IllegalArgumentException
p4427
tp4428
I12
s(Vinsert
p4429
I74
VParameterizedType: ThreadLocal<Object[]>
p4430
tp4431
I4
s(Vinsert
p4432
I45
VStringLiteral: "clojure.lang.ExceptionInfo: "
p4433
tp4434
I1
s(Vinsert
p4435
I42
VSimpleName: t
p4436
tp4437
I29
s(Vinsert
p4438
I42
VSimpleName: maxHistory
p4439
tp4440
I1
s(Vinsert
p4441
I42
VSimpleName: getBoolean
p4442
tp4443
I1
s(Vinsert
p4444
I43
VSimpleType: Binding
p4445
tp4446
I2
s(Vinsert
p4447
I43
VSimpleType: InputStream
p4448
tp4449
I2
s(Vinsert
p4450
I42
VSimpleName: seq
p4451
tp4452
I72
s(Vinsert
p4453
I42
VSimpleName: forName
p4454
tp4455
I6
s(Vinsert
p4456
I42
VSimpleName: dot
p4457
tp4458
I2
s(Vinsert
p4459
I42
VSimpleName: isUnquote
p4460
tp4461
I2
s(Vinsert
p4462
I42
VSimpleName: getSystemResource
p4463
tp4464
I1
s(Vinsert
p4465
I42
VSimpleName: lastExpr
p4466
tp4467
I2
s(Vinsert
p4468
I45
VStringLiteral: "Unexpected param type"
p4469
tp4470
I1
s(Vinsert
p4471
I39
VPrimitiveType: char
p4472
tp4473
I5
s(Vinsert
p4474
I42
VSimpleName: visitVarInsn
p4475
tp4476
I3
s(Vinsert
p4477
I42
VSimpleName: stripTrailingZeros
p4478
tp4479
I1
s(Vinsert
p4480
I34
VNumberLiteral: 0x7FFFFFFF
p4481
tp4482
I1
s(Vinsert
p4483
I42
VSimpleName: Thread
p4484
tp4485
I12
s(Vinsert
p4486
I1
VAnonymousClassDeclaration
p4487
tp4488
I4
s(Vinsert
p4489
I42
VSimpleName: METHOD_RETURN_CONTEXT
p4490
tp4491
I1
s(Vinsert
p4492
I42
VSimpleName: FloatArrayOps
p4493
tp4494
I1
s(Vinsert
p4495
I42
VSimpleName: get
p4496
tp4497
I104
s(Vinsert
p4498
I42
VSimpleName: uncheckedMathProp
p4499
tp4500
I1
s(Vinsert
p4501
I34
VNumberLiteral: 64
p4502
tp4503
I2
s(Vinsert
p4504
I44
VSingleVariableDeclaration
p4505
tp4506
I299
s(Vinsert
p4507
I45
VStringLiteral: "No such namespace: "
p4508
tp4509
I2
s(Vinsert
p4510
I40
VQualifiedName: C.STATEMENT
p4511
tp4512
I9
s(Vinsert
p4513
I42
VSimpleName: reqParms
p4514
tp4515
I1
s(Vinsert
p4516
I42
VSimpleName: m
p4517
tp4518
I34
s(Vinsert
p4519
I42
VSimpleName: exact
p4520
tp4521
I2
s(Vinsert
p4522
I45
VStringLiteral: "\u005c\u005cn"
p4523
tp4524
I1
s(Vinsert
p4525
I45
VStringLiteral: "unknown"
p4526
tp4527
I1
s(Vinsert
p4528
I40
VQualifiedName: Long.TYPE
p4529
tp4530
I1
s(Vinsert
p4531
I42
VSimpleName: IMapEntry
p4532
tp4533
I7
s(Vinsert
p4534
I42
VSimpleName: failed
p4535
tp4536
I1
s(Vinsert
p4537
I42
VSimpleName: lnk
p4538
tp4539
I5
s(Vinsert
p4540
I42
VSimpleName: LockingTransaction
p4541
tp4542
I3
s(Vinsert
p4543
I42
VSimpleName: tap
p4544
tp4545
I1
s(Vinsert
p4546
I42
VSimpleName: setDynamic
p4547
tp4548
I12
s(Vinsert
p4549
I13
VCharacterLiteral: ':'
p4550
tp4551
I2
s(Vinsert
p4552
I42
VSimpleName: maybeClass
p4553
tp4554
I2
s(Vinsert
p4555
I42
VSimpleName: scriptbase
p4556
tp4557
I2
s(Vinsert
p4558
I42
VSimpleName: visitCode
p4559
tp4560
I2
s(Vinsert
p4561
I42
VSimpleName: resolver
p4562
tp4563
I1
s(Vinsert
p4564
I45
VStringLiteral: "Actor has errors"
p4565
tp4566
I1
s(Vinsert
p4567
I40
VQualifiedName: RT.WARN_ON_REFLECTION
p4568
tp4569
I1
s(Vinsert
p4570
I42
VSimpleName: tv
p4571
tp4572
I2
s(Vinsert
p4573
I42
VSimpleName: exec
p4574
tp4575
I2
s(Vinsert
p4576
I42
VSimpleName: ArrayList
p4577
tp4578
I5
s(Vinsert
p4579
I42
VSimpleName: NoViableAltException
p4580
tp4581
I1
s(Vinsert
p4582
I45
VStringLiteral: "No method of interface: "
p4583
tp4584
I1
s(Vinsert
p4585
I41
VReturnStatement
p4586
tp4587
I365
s(Vinsert
p4588
I42
VSimpleName: watchers
p4589
tp4590
I3
s(Vinsert
p4591
I42
VSimpleName: fv
p4592
tp4593
I4
s(Vinsert
p4594
I42
VSimpleName: DynamicVar
p4595
tp4596
I3
s(Vinsert
p4597
I42
VSimpleName: URL
p4598
tp4599
I3
s(Vinsert
p4600
I43
VSimpleType: Short
p4601
tp4602
I3
s(Vinsert
p4603
I40
VQualifiedName: C.RETURN
p4604
tp4605
I3
s(Vinsert
p4606
I42
VSimpleName: InputStreamReader
p4607
tp4608
I1
s(Vinsert
p4609
I42
VSimpleName: getHash
p4610
tp4611
I2
s(Vinsert
p4612
I42
VSimpleName: var
p4613
tp4614
I22
s(Vinsert
p4615
I42
VSimpleName: root
p4616
tp4617
I4
s(Vinsert
p4618
I27
VInfixExpression: <
p4619
tp4620
I46
s(Vinsert
p4621
I42
VSimpleName: IllegalStateException
p4622
tp4623
I6
s(Vinsert
p4624
I42
VSimpleName: visitSource
p4625
tp4626
I1
s(Vinsert
p4627
I42
VSimpleName: ps
p4628
tp4629
I8
s(Vinsert
p4630
I42
VSimpleName: MapExpr
p4631
tp4632
I4
s(Vinsert
p4633
I45
VStringLiteral: "Ljava/lang/Object;"
p4634
tp4635
I1
s(Vinsert
p4636
I42
VSimpleName: id
p4637
tp4638
I3
s(Vinsert
p4639
I45
VStringLiteral: "current-ns"
p4640
tp4641
I1
s(Vinsert
p4642
I42
VSimpleName: bs
p4643
tp4644
I8
s(Vinsert
p4645
I42
VSimpleName: restsym
p4646
tp4647
I1
s(Vinsert
p4648
I42
VSimpleName: instanceOf
p4649
tp4650
I1
s(Vinsert
p4651
I45
VStringLiteral: "seq"
p4652
tp4653
I1
s(Vinsert
p4654
I43
VSimpleType: MathContext
p4655
tp4656
I1
s(Vinsert
p4657
I45
VStringLiteral: "System"
p4658
tp4659
I1
s(Vinsert
p4660
I42
VSimpleName: endLabel
p4661
tp4662
I1
s(Vinsert
p4663
I42
VSimpleName: niters
p4664
tp4665
I2
s(Vinsert
p4666
I40
VQualifiedName: lb.sym
p4667
tp4668
I1
s(Vinsert
p4669
I42
VSimpleName: putIfAbsent
p4670
tp4671
I1
s(Vinsert
p4672
I43
VSimpleType: clojure.lang.Namespace
p4673
tp4674
I1
s(Vinsert
p4675
I42
VSimpleName: lpart
p4676
tp4677
I3
s(Vinsert
p4678
I42
VSimpleName: PersistentArrayList
p4679
tp4680
I3
s(Vinsert
p4681
I42
VSimpleName: IdentityHashMap
p4682
tp4683
I3
s(Vinsert
p4684
I42
VSimpleName: interfaces
p4685
tp4686
I1
s(Vinsert
p4687
I42
VSimpleName: iter
p4688
tp4689
I11
s(Vinsert
p4690
I40
VQualifiedName: l.frame
p4691
tp4692
I1
s(Vinsert
p4693
I42
VSimpleName: scale
p4694
tp4695
I3
s(Vinsert
p4696
I42
VSimpleName: _attrs
p4697
tp4698
I3
s(Vinsert
p4699
I42
VSimpleName: Util
p4700
tp4701
I49
s(Vinsert
p4702
I42
VSimpleName: readTimeMsecs
p4703
tp4704
I2
s(Vinsert
p4705
I42
VSimpleName: qualifiedName
p4706
tp4707
I1
s(Vinsert
p4708
I42
VSimpleName: sum
p4709
tp4710
I1
s(Vinsert
p4711
I10
VBreakStatement
p4712
tp4713
I15
s(Vinsert
p4714
I4
VArrayInitializer
p4715
tp4716
I1
s(Vinsert
p4717
I42
VSimpleName: sval
p4718
tp4719
I1
s(Vinsert
p4720
I42
VSimpleName: maxLocals
p4721
tp4722
I3
s(Vinsert
p4723
I42
VSimpleName: Label
p4724
tp4725
I13
s(Vinsert
p4726
I42
VSimpleName: metaMap
p4727
tp4728
I1
s(Vinsert
p4729
I43
VSimpleType: INode
p4730
tp4731
I7
s(Vinsert
p4732
I42
VSimpleName: endTry
p4733
tp4734
I1
s(Vinsert
p4735
I42
VSimpleName: ry
p4736
tp4737
I1
s(Vinsert
p4738
I43
VSimpleType: CatchClause
p4739
tp4740
I2
s(Vinsert
p4741
I45
VStringLiteral: "^module"
p4742
tp4743
I1
s(Vinsert
p4744
I42
VSimpleName: readLine
p4745
tp4746
I2
s(Vinsert
p4747
I42
VSimpleName: newEntries
p4748
tp4749
I3
s(Vinsert
p4750
I43
VSimpleType: Float
p4751
tp4752
I4
s(Vinsert
p4753
I42
VSimpleName: recordClass
p4754
tp4755
I1
s(Vinsert
p4756
I42
VSimpleName: IllegalAccessException
p4757
tp4758
I1
s(Vinsert
p4759
I42
VSimpleName: namespaces
p4760
tp4761
I2
s(Vinsert
p4762
I40
VQualifiedName: next.q
p4763
tp4764
I2
s(Vinsert
p4765
I42
VSimpleName: charAt
p4766
tp4767
I8
s(Vinsert
p4768
I42
VSimpleName: iinc
p4769
tp4770
I1
s(Vinsert
p4771
I45
VStringLiteral: ""
p4772
tp4773
I4
s(Vinsert
p4774
I43
VSimpleType: Resolver
p4775
tp4776
I2
s(Vinsert
p4777
I42
VSimpleName: IPersistentMap
p4778
tp4779
I39
s(Vinsert
p4780
I42
VSimpleName: collection
p4781
tp4782
I2
s(Vinsert
p4783
I43
VSimpleType: LockingTransaction
p4784
tp4785
I2
s(Vinsert
p4786
I40
VQualifiedName: ref.tvals.val
p4787
tp4788
I3
s(Vinsert
p4789
I42
VSimpleName: thunkType
p4790
tp4791
I1
s(Vinsert
p4792
I42
VSimpleName: b
p4793
tp4794
I13
s(Vinsert
p4795
I42
VSimpleName: max
p4796
tp4797
I1
s(Vinsert
p4798
I42
VSimpleName: PersistentTreeMap
p4799
tp4800
I3
s(Vinsert
p4801
I42
VSimpleName: registerQuotedVal
p4802
tp4803
I1
s(Vinsert
p4804
I13
VCharacterLiteral: 'M'
p4805
tp4806
I1
s(Vinsert
p4807
I42
VSimpleName: resolveSymbol
p4808
tp4809
I1
s(Vinsert
p4810
I43
VSimpleType: AFn
p4811
tp4812
I1
s(Vinsert
p4813
I42
VSimpleName: Transaction
p4814
tp4815
I9
s(Vinsert
p4816
I40
VQualifiedName: method.parms
p4817
tp4818
I1
s(Vinsert
p4819
I45
VStringLiteral: "jar"
p4820
tp4821
I1
s(Vinsert
p4822
I45
VStringLiteral: "Recursive change"
p4823
tp4824
I1
s(Vinsert
p4825
I42
VSimpleName: obj
p4826
tp4827
I20
s(Vinsert
p4828
I42
VSimpleName: without
p4829
tp4830
I3
s(Vinsert
p4831
I42
VSimpleName: primInterface
p4832
tp4833
I1
s(Vinsert
p4834
I42
VSimpleName: signature
p4835
tp4836
I1
s(Vinsert
p4837
I13
VCharacterLiteral: '/'
p4838
tp4839
I5
s(Vinsert
p4840
I42
VSimpleName: form
p4841
tp4842
I32
s(Vinsert
p4843
I42
VSimpleName: clone
p4844
tp4845
I6
s(Vinsert
p4846
I42
VSimpleName: matchIdx
p4847
tp4848
I2
s(Vinsert
p4849
I42
VSimpleName: rform
p4850
tp4851
I3
s(Vinsert
p4852
I40
VQualifiedName: method.body
p4853
tp4854
I1
s(Vinsert
p4855
I34
VNumberLiteral: 15
p4856
tp4857
I2
s(Vinsert
p4858
I42
VSimpleName: truncateDivide
p4859
tp4860
I1
s(Vinsert
p4861
I34
VNumberLiteral: 100
p4862
tp4863
I1
s(Vinsert
p4864
I42
VSimpleName: kvreduce
p4865
tp4866
I3
s(Vinsert
p4867
I45
VStringLiteral: "public static long clojure.lang.RT.uncheckedLongCast(long)"
p4868
tp4869
I1
s(Vinsert
p4870
I42
VSimpleName: getModifiers
p4871
tp4872
I6
s(Vinsert
p4873
I43
VSimpleType: IPersistentVector
p4874
tp4875
I3
s(Vinsert
p4876
I43
VSimpleType: Node
p4877
tp4878
I10
s(Vinsert
p4879
I42
VSimpleName: restFn
p4880
tp4881
I2
s(Vinsert
p4882
I43
VSimpleType: PersistentListIdentityMap
p4883
tp4884
I3
s(Vinsert
p4885
I42
VSimpleName: uncheckedMath
p4886
tp4887
I2
s(Vinsert
p4888
I42
VSimpleName: exceptions
p4889
tp4890
I1
s(Vinsert
p4891
I43
VSimpleType: OutputStreamWriter
p4892
tp4893
I1
s(Vinsert
p4894
I38
VPrefixExpression: --
p4895
tp4896
I1
s(Vinsert
p4897
I42
VSimpleName: maingen
p4898
tp4899
I3
s(Vinsert
p4900
I43
VSimpleType: IMapEntry
p4901
tp4902
I7
s(Vinsert
p4903
I43
VSimpleType: PersistentTree
p4904
tp4905
I1
s(Vinsert
p4906
I40
VQualifiedName: dvout.root
p4907
tp4908
I1
s(Vinsert
p4909
I43
VSimpleType: Byte
p4910
tp4911
I3
s(Vinsert
p4912
I40
VQualifiedName: thisSym.name
p4913
tp4914
I1
s(Vinsert
p4915
I42
VSimpleName: createNewFile
p4916
tp4917
I1
s(Vinsert
p4918
I42
VSimpleName: im
p4919
tp4920
I1
s(Vinsert
p4921
I43
VSimpleType: LocalBinding
p4922
tp4923
I5
s(Vinsert
p4924
I45
VStringLiteral: "clojure.lang.Ref"
p4925
tp4926
I1
s(Vinsert
p4927
I42
VSimpleName: methodName
p4928
tp4929
I3
s(Vinsert
p4930
I45
VStringLiteral: "fn"
p4931
tp4932
I2
s(Vinsert
p4933
I42
VSimpleName: SuspReverse
p4934
tp4935
I1
s(Vinsert
p4936
I42
VSimpleName: right
p4937
tp4938
I4
s(Vinsert
p4939
I45
VStringLiteral: "false"
p4940
tp4941
I2
s(Vinsert
p4942
I43
VSimpleType: Callable
p4943
tp4944
I1
s(Vinsert
p4945
I42
VSimpleName: cause
p4946
tp4947
I1
s(Vinsert
p4948
I42
VSimpleName: RuntimeException
p4949
tp4950
I3
s(Vinsert
p4951
I42
VSimpleName: queued
p4952
tp4953
I1
s(Vinsert
p4954
I42
VSimpleName: WarnBoxedMath
p4955
tp4956
I1
s(Vinsert
p4957
I42
VSimpleName: ret1
p4958
tp4959
I16
s(Vinsert
p4960
I42
VSimpleName: ITransientSet
p4961
tp4962
I4
s(Vinsert
p4963
I42
VSimpleName: getCause
p4964
tp4965
I10
s(Vinsert
p4966
I40
VQualifiedName: dest.length
p4967
tp4968
I1
s(Vinsert
p4969
I13
VCharacterLiteral: 'f'
p4970
tp4971
I1
s(Vinsert
p4972
I42
VSimpleName: binding
p4973
tp4974
I3
s(Vinsert
p4975
I42
VSimpleName: doublequote
p4976
tp4977
I1
s(Vinsert
p4978
I42
VSimpleName: getAliases
p4979
tp4980
I1
s(Vinsert
p4981
I42
VSimpleName: source
p4982
tp4983
I7
s(Vinsert
p4984
I42
VSimpleName: pcequiv
p4985
tp4986
I1
s(Vinsert
p4987
I42
VSimpleName: arg2
p4988
tp4989
I15
s(Vinsert
p4990
I42
VSimpleName: blacken
p4991
tp4992
I2
s(Vinsert
p4993
I42
VSimpleName: symPat
p4994
tp4995
I1
s(Vinsert
p4996
I42
VSimpleName: dup
p4997
tp4998
I4
s(Vinsert
p4999
I40
VQualifiedName: ref.faults
p5000
tp5001
I1
s(Vinsert
p5002
I42
VSimpleName: fexpr
p5003
tp5004
I4
s(Vinsert
p5005
I42
VSimpleName: emitUnboxed
p5006
tp5007
I3
s(Vinsert
p5008
I42
VSimpleName: equal
p5009
tp5010
I8
s(Vinsert
p5011
I23
VFieldDeclaration
p5012
tp5013
I31
s(Vinsert
p5014
I43
VSimpleType: ClassVisitor
p5015
tp5016
I1
s(Vinsert
p5017
I43
VSimpleType: Var
p5018
tp5019
I30
s(Vinsert
p5020
I42
VSimpleName: k2
p5021
tp5022
I16
s(Vinsert
p5023
I42
VSimpleName: LineNumberingPushbackReader
p5024
tp5025
I7
s(Vinsert
p5026
I42
VSimpleName: newStatus
p5027
tp5028
I1
s(Vinsert
p5029
I43
VSimpleType: SuspReverse
p5030
tp5031
I1
s(Vinsert
p5032
I42
VSimpleName: subList
p5033
tp5034
I1
s(Vinsert
p5035
I42
VSimpleName: nextRev
p5036
tp5037
I3
s(Vinsert
p5038
I42
VSimpleName: CLOJURE_SLASH
p5039
tp5040
I1
s(Vinsert
p5041
I42
VSimpleName: Entry
p5042
tp5043
I6
s(Vinsert
p5044
I40
VQualifiedName: master.maxLoad
p5045
tp5046
I1
s(Vinsert
p5047
I42
VSimpleName: threadBindings
p5048
tp5049
I2
s(Vinsert
p5050
I42
VSimpleName: FIND_NS
p5051
tp5052
I1
s(Vinsert
p5053
I42
VSimpleName: NOT_FOUND
p5054
tp5055
I4
s(Vinsert
p5056
I42
VSimpleName: ThreadLocal
p5057
tp5058
I2
s(Vinsert
p5059
I42
VSimpleName: _seed
p5060
tp5061
I2
s(Vinsert
p5062
I40
VQualifiedName: argsarray.length
p5063
tp5064
I1
s(Vinsert
p5065
I42
VSimpleName: _hash
p5066
tp5067
I3
s(Vinsert
p5068
I62
VInstanceofExpression
p5069
tp5070
I78
s(Vinsert
p5071
I42
VSimpleName: Type
p5072
tp5073
I16
s(Vinsert
p5074
I42
VSimpleName: bridgeMethods
p5075
tp5076
I2
s(Vinsert
p5077
I42
VSimpleName: keys
p5078
tp5079
I5
s(Vinsert
p5080
I42
VSimpleName: arg14
p5081
tp5082
I9
s(Vinsert
p5083
I42
VSimpleName: LA23_0
p5084
tp5085
I1
s(Vinsert
p5086
I34
VNumberLiteral: 2
p5087
tp5088
I11
s(Vinsert
p5089
I43
VSimpleType: Random
p5090
tp5091
I2
s(Vinsert
p5092
I42
VSimpleName: coll
p5093
tp5094
I44
s(Vinsert
p5095
I42
VSimpleName: CLASS
p5096
tp5097
I1
s(Vinsert
p5098
I45
VStringLiteral: "float uncheckedFloatCast(Object)"
p5099
tp5100
I1
s(Vinsert
p5101
I65
VTagElement: @return
p5102
tp5103
I1
s(Vinsert
p5104
I42
VSimpleName: equiv
p5105
tp5106
I8
s(Vinsert
p5107
I42
VSimpleName: AtomicInteger
p5108
tp5109
I1
s(Vinsert
p5110
I42
VSimpleName: tmp
p5111
tp5112
I1
s(Vinsert
p5113
I42
VSimpleName: OutputStreamWriter
p5114
tp5115
I1
s(Vinsert
p5116
I42
VSimpleName: out
p5117
tp5118
I6
s(Vinsert
p5119
I42
VSimpleName: ACC_STATIC
p5120
tp5121
I1
s(Vinsert
p5122
I42
VSimpleName: data
p5123
tp5124
I2
s(Vinsert
p5125
I42
VSimpleName: Pattern
p5126
tp5127
I3
s(Vinsert
p5128
I31
VMethodDeclaration
p5129
tp5130
I100
s(Vinsert
p5131
I42
VSimpleName: newRoot
p5132
tp5133
I1
s(Vinsert
p5134
I42
VSimpleName: MATH_CONTEXT
p5135
tp5136
I1
s(Vinsert
p5137
I42
VSimpleName: val
p5138
tp5139
I74
s(Vinsert
p5140
I42
VSimpleName: lastDot
p5141
tp5142
I1
s(Vinsert
p5143
I27
VInfixExpression: *
p5144
tp5145
I8
s(Vinsert
p5146
I42
VSimpleName: arr2
p5147
tp5148
I1
s(Vinsert
p5149
I39
VPrimitiveType: void
p5150
tp5151
I19
s(Vinsert
p5152
I42
VSimpleName: LINE_KEY
p5153
tp5154
I1
s(Vinsert
p5155
I42
VSimpleName: SEQ
p5156
tp5157
I1
s(Vinsert
p5158
I42
VSimpleName: input
p5159
tp5160
I4
s(Vinsert
p5161
I42
VSimpleName: bargeTimeElapsed
p5162
tp5163
I1
s(Vinsert
p5164
I42
VSimpleName: v0
p5165
tp5166
I3
s(Vinsert
p5167
I42
VSimpleName: push
p5168
tp5169
I17
s(Vinsert
p5170
I42
VSimpleName: fjjoin
p5171
tp5172
I1
s(Vinsert
p5173
I42
VSimpleName: emitKeyword
p5174
tp5175
I1
s(Vinsert
p5176
I42
VSimpleName: notifyAll
p5177
tp5178
I1
s(Vinsert
p5179
I27
VInfixExpression: !=
p5180
tp5181
I150
s(Vinsert
p5182
I42
VSimpleName: end
p5183
tp5184
I11
s(Vinsert
p5185
I42
VSimpleName: readerOpts
p5186
tp5187
I1
s(Vinsert
p5188
I42
VSimpleName: fromIndex
p5189
tp5190
I1
s(Vinsert
p5191
I42
VSimpleName: or
p5192
tp5193
I1
s(Vinsert
p5194
I42
VSimpleName: newLabel
p5195
tp5196
I14
s(Vinsert
p5197
I42
VSimpleName: AtomicReference
p5198
tp5199
I1
s(Vinsert
p5200
I42
VSimpleName: finallyExpr
p5201
tp5202
I1
s(Vinsert
p5203
I39
VPrimitiveType: boolean
p5204
tp5205
I24
s(Vinsert
p5206
I42
VSimpleName: hashCode
p5207
tp5208
I13
s(Vinsert
p5209
I42
VSimpleName: SAXException
p5210
tp5211
I1
s(Vinsert
p5212
I42
VSimpleName: classOf
p5213
tp5214
I1
s(Vinsert
p5215
I42
VSimpleName: fs
p5216
tp5217
I1
s(Vinsert
p5218
I42
VSimpleName: parameterType
p5219
tp5220
I2
s(Vinsert
p5221
I42
VSimpleName: pushThreadBinding
p5222
tp5223
I1
s(Vinsert
p5224
I42
VSimpleName: byteValue
p5225
tp5226
I1
s(Vinsert
p5227
I42
VSimpleName: lock
p5228
tp5229
I7
s(Vinsert
p5230
I42
VSimpleName: warn_on_reflection
p5231
tp5232
I2
s(Vinsert
p5233
I42
VSimpleName: bt
p5234
tp5235
I1
s(Vinsert
p5236
I42
VSimpleName: stack
p5237
tp5238
I4
s(Vinsert
p5239
I42
VSimpleName: JarURLConnection
p5240
tp5241
I1
s(Vinsert
p5242
I42
VSimpleName: edit
p5243
tp5244
I5
s(Vinsert
p5245
I40
VQualifiedName: action.actor
p5246
tp5247
I1
s(Vinsert
p5248
I42
VSimpleName: dropFirst
p5249
tp5250
I1
s(Vinsert
p5251
I59
VVariableDeclarationFragment
p5252
tp5253
I458
s(Vinsert
p5254
I42
VSimpleName: ACC_PUBLIC
p5255
tp5256
I2
s(Vinsert
p5257
I42
VSimpleName: owner
p5258
tp5259
I4
s(Vinsert
p5260
I43
VSimpleType: java.util.Map
p5261
tp5262
I1
s(Vinsert
p5263
I43
VSimpleType: UnsupportedOperationException
p5264
tp5265
I3
s(Vinsert
p5266
I42
VSimpleName: p
p5267
tp5268
I8
s(Vinsert
p5269
I42
VSimpleName: escapeStr
p5270
tp5271
I1
s(Vinsert
p5272
I42
VSimpleName: lookupAlias
p5273
tp5274
I2
s(Vinsert
p5275
I42
VSimpleName: newArray
p5276
tp5277
I1
s(Vinsert
p5278
I42
VSimpleName: QUOTE
p5279
tp5280
I1
s(Vinsert
p5281
I45
VStringLiteral: ", needed: "
p5282
tp5283
I1
s(Vinsert
p5284
I42
VSimpleName: ctors
p5285
tp5286
I3
s(Vinsert
p5287
I45
VStringLiteral: "Can't intern namespace-qualified symbol"
p5288
tp5289
I1
s(Vinsert
p5290
I34
VNumberLiteral: 32
p5291
tp5292
I1
s(Vinsert
p5293
I42
VSimpleName: cc
p5294
tp5295
I1
s(Vinsert
p5296
I42
VSimpleName: eval
p5297
tp5298
I8
s(Vinsert
p5299
I42
VSimpleName: lockSeq
p5300
tp5301
I1
s(Vinsert
p5302
I42
VSimpleName: node
p5303
tp5304
I3
s(Vinsert
p5305
I42
VSimpleName: T5
p5306
tp5307
I1
s(Vinsert
p5308
I42
VSimpleName: frm
p5309
tp5310
I2
s(Vinsert
p5311
I45
VStringLiteral: "AbstractMethodError"
p5312
tp5313
I1
s(Vinsert
p5314
I42
VSimpleName: Runnable
p5315
tp5316
I1
s(Vinsert
p5317
I42
VSimpleName: setLineNumber
p5318
tp5319
I2
s(Vinsert
p5320
I42
VSimpleName: bitpos
p5321
tp5322
I1
s(Vinsert
p5323
I42
VSimpleName: currentThread
p5324
tp5325
I8
s(Vinsert
p5326
I45
VStringLiteral: ".cljc"
p5327
tp5328
I1
s(Vinsert
p5329
I42
VSimpleName: visitField
p5330
tp5331
I1
s(Vinsert
p5332
I51
VSynchronizedStatement
p5333
tp5334
I8
s(Vinsert
p5335
I42
VSimpleName: nsc
p5336
tp5337
I1
s(Vinsert
p5338
I42
VSimpleName: i
p5339
tp5340
I173
s(Vinsert
p5341
I42
VSimpleName: internAccessor
p5342
tp5343
I2
s(Vinsert
p5344
I42
VSimpleName: desc
p5345
tp5346
I8
s(Vinsert
p5347
I42
VSimpleName: matchSymbol
p5348
tp5349
I1
s(Vinsert
p5350
I42
VSimpleName: visitIincInsn
p5351
tp5352
I1
s(Vinsert
p5353
I45
VStringLiteral: "java.lang.StringBuilder"
p5354
tp5355
I1
s(Vinsert
p5356
I42
VSimpleName: nextHistory
p5357
tp5358
I1
s(Vinsert
p5359
I42
VSimpleName: ByteVector
p5360
tp5361
I2
s(Vinsert
p5362
I42
VSimpleName: attr_access
p5363
tp5364
I1
s(Vinsert
p5365
I43
VSimpleType: UnresolvedVarExpr
p5366
tp5367
I1
s(Vinsert
p5368
I40
VQualifiedName: Label.VISITED2
p5369
tp5370
I1
s(Vinsert
p5371
I42
VSimpleName: RESOLVED
p5372
tp5373
I1
s(Vinsert
p5374
I45
VStringLiteral: "*3"
p5375
tp5376
I1
s(Vinsert
p5377
I42
VSimpleName: Constructor
p5378
tp5379
I2
s(Vinsert
p5380
I42
VSimpleName: AFn
p5381
tp5382
I6
s(Vinsert
p5383
I42
VSimpleName: es
p5384
tp5385
I4
s(Vinsert
p5386
I43
VSimpleType: V
p5387
tp5388
I2
s(Vinsert
p5389
I40
VQualifiedName: other.dvals
p5390
tp5391
I1
s(Vinsert
p5392
I42
VSimpleName: charValue
p5393
tp5394
I2
s(Vinsert
p5395
I42
VSimpleName: IObj
p5396
tp5397
I11
s(Vinsert
p5398
I42
VSimpleName: getSetArray
p5399
tp5400
I1
s(Vinsert
p5401
I45
VStringLiteral: "Object ~A"
p5402
tp5403
I1
s(Vinsert
p5404
I42
VSimpleName: getProtocol
p5405
tp5406
I2
s(Vinsert
p5407
I43
VSimpleType: Mutable
p5408
tp5409
I1
s(Vinsert
p5410
I42
VSimpleName: readably
p5411
tp5412
I2
s(Vinsert
p5413
I42
VSimpleName: targetType
p5414
tp5415
I1
s(Vinsert
p5416
I42
VSimpleName: ISequential
p5417
tp5418
I2
s(Vinsert
p5419
I42
VSimpleName: PersistentHashtableMap
p5420
tp5421
I1
s(Vinsert
p5422
I42
VSimpleName: rt
p5423
tp5424
I3
s(Vinsert
p5425
I42
VSimpleName: bint
p5426
tp5427
I1
s(Vinsert
p5428
I42
VSimpleName: left
p5429
tp5430
I3
s(Vinsert
p5431
I42
VSimpleName: mmapVal
p5432
tp5433
I1
s(Vinsert
p5434
I45
VStringLiteral: "*use-context-classloader*"
p5435
tp5436
I1
s(Vinsert
p5437
I42
VSimpleName: Modifier
p5438
tp5439
I4
s(Vinsert
p5440
I42
VSimpleName: getProperty
p5441
tp5442
I1
s(Vinsert
p5443
I45
VStringLiteral: "#<Var: "
p5444
tp5445
I1
s(Vinsert
p5446
I45
VStringLiteral: "Iterator must have elements to construct Iter"
p5447
tp5448
I2
s(Vinsert
p5449
I45
VStringLiteral: "*print-length*"
p5450
tp5451
I1
s(Vinsert
p5452
I42
VSimpleName: removed
p5453
tp5454
I1
s(Vinsert
p5455
I42
VSimpleName: getSize
p5456
tp5457
I1
s(Vinsert
p5458
I42
VSimpleName: kvs
p5459
tp5460
I1
s(Vinsert
p5461
I42
VSimpleName: bindingLabels
p5462
tp5463
I2
s(Vinsert
p5464
I42
VSimpleName: ignore
p5465
tp5466
I2
s(Vinsert
p5467
I43
VSimpleType: ArithmeticException
p5468
tp5469
I1
s(Vinsert
p5470
I40
VQualifiedName: v.dynamic
p5471
tp5472
I1
s(Vinsert
p5473
I40
VQualifiedName: y.bipart
p5474
tp5475
I1
s(Vinsert
p5476
I43
VSimpleType: Error
p5477
tp5478
I2
s(Vinsert
p5479
I42
VSimpleName: add
p5480
tp5481
I15
s(Vinsert
p5482
I42
VSimpleName: getMappings
p5483
tp5484
I2
s(Vinsert
p5485
I42
VSimpleName: LA1_16
p5486
tp5487
I1
s(Vinsert
p5488
I43
VSimpleType: Seqable
p5489
tp5490
I1
s(Vinsert
p5491
I42
VSimpleName: o2
p5492
tp5493
I4
s(Vinsert
p5494
I7
VAssignment: =
p5495
tp5496
I255
s(Vinsert
p5497
I42
VSimpleName: zerop
p5498
tp5499
I3
s(Vinsert
p5500
I42
VSimpleName: LispReader
p5501
tp5502
I4
s(Vinsert
p5503
I42
VSimpleName: IDENTITY
p5504
tp5505
I1
s(Vinsert
p5506
I42
VSimpleName: master
p5507
tp5508
I1
s(Vinsert
p5509
I40
VQualifiedName: Opcodes.ACC_PUBLIC
p5510
tp5511
I2
s(Vinsert
p5512
I42
VSimpleName: Mutable
p5513
tp5514
I1
s(Vinsert
p5515
I42
VSimpleName: MAIN
p5516
tp5517
I1
s(Vinsert
p5518
I43
VSimpleType: PersistentTreeMap
p5519
tp5520
I3
s(Vinsert
p5521
I42
VSimpleName: FORM_KW
p5522
tp5523
I2
s(Vinsert
p5524
I43
VSimpleType: BigInt
p5525
tp5526
I1
s(Vinsert
p5527
I42
VSimpleName: shutdown
p5528
tp5529
I1
s(Vinsert
p5530
I45
VStringLiteral: "int intCast(Object)"
p5531
tp5532
I1
s(Vinsert
p5533
I43
VSimpleType: IteratorIter
p5534
tp5535
I1
s(Vinsert
p5536
I42
VSimpleName: StringBuffer
p5537
tp5538
I2
s(Vinsert
p5539
I42
VSimpleName: getLength
p5540
tp5541
I1
s(Vinsert
p5542
I42
VSimpleName: svuidFields
p5543
tp5544
I1
s(Vinsert
p5545
I27
VInfixExpression: &&
p5546
tp5547
I57
s(Vinsert
p5548
I42
VSimpleName: IntegerNum
p5549
tp5550
I1
s(Vinsert
p5551
I42
VSimpleName: classForNameNonLoading
p5552
tp5553
I1
s(Vinsert
p5554
I40
VQualifiedName: nextMaster.array
p5555
tp5556
I1
s(Vinsert
p5557
I42
VSimpleName: nsName
p5558
tp5559
I1
s(Vinsert
p5560
I40
VQualifiedName: Opcodes.ASM4
p5561
tp5562
I1
s(Vinsert
p5563
I5
VArrayType: Class[]
p5564
tp5565
I1
s(Vinsert
p5566
I42
VSimpleName: category
p5567
tp5568
I1
s(Vinsert
p5569
I43
VSimpleType: Writer
p5570
tp5571
I3
s(Vinsert
p5572
I42
VSimpleName: reqArity
p5573
tp5574
I2
s(Vinsert
p5575
I42
VSimpleName: primclasses
p5576
tp5577
I1
s(Vinsert
p5578
I40
VQualifiedName: other.tvals
p5579
tp5580
I1
s(Vinsert
p5581
I42
VSimpleName: arg11
p5582
tp5583
I3
s(Vinsert
p5584
I42
VSimpleName: proxy
p5585
tp5586
I1
s(Vinsert
p5587
I42
VSimpleName: allKeysConstant
p5588
tp5589
I2
s(Vinsert
p5590
I42
VSimpleName: sequence
p5591
tp5592
I1
s(Vinsert
p5593
I40
VQualifiedName: Opcodes.ACC_STATIC
p5594
tp5595
I1
s(Vinsert
p5596
I42
VSimpleName: Many
p5597
tp5598
I1
s(Vinsert
p5599
I42
VSimpleName: MonitorEnterExpr
p5600
tp5601
I1
s(Vinsert
p5602
I42
VSimpleName: createFromObject
p5603
tp5604
I2
s(Vinsert
p5605
I42
VSimpleName: alt23
p5606
tp5607
I1
s(Vinsert
p5608
I42
VSimpleName: getTransaction
p5609
tp5610
I4
s(Vinsert
p5611
I42
VSimpleName: min
p5612
tp5613
I4
s(Vinsert
p5614
I42
VSimpleName: nv
p5615
tp5616
I2
s(Vinsert
p5617
I27
VInfixExpression: <=
p5618
tp5619
I7
s(Vinsert
p5620
I42
VSimpleName: seqToArray
p5621
tp5622
I1
s(Vinsert
p5623
I42
VSimpleName: popDynamicBinding
p5624
tp5625
I1
s(Vinsert
p5626
I42
VSimpleName: lhs
p5627
tp5628
I2
s(Vinsert
p5629
I74
VParameterizedType: AtomicReference<Thread>
p5630
tp5631
I3
s(Vinsert
p5632
I42
VSimpleName: arg
p5633
tp5634
I5
s(Vinsert
p5635
I27
VInfixExpression: /
p5636
tp5637
I3
s(Vinsert
p5638
I42
VSimpleName: xs
p5639
tp5640
I7
s(Vinsert
p5641
I42
VSimpleName: InterruptedException
p5642
tp5643
I1
s(Vinsert
p5644
I42
VSimpleName: CLOJURE_MAIN_NS
p5645
tp5646
I1
s(Vinsert
p5647
I45
VStringLiteral: "main"
p5648
tp5649
I1
s(Vinsert
p5650
I40
VQualifiedName: def.keyslots
p5651
tp5652
I1
s(Vinsert
p5653
I43
VSimpleType: FnMethod
p5654
tp5655
I4
s(Vinsert
p5656
I42
VSimpleName: UnresolvedVarExpr
p5657
tp5658
I1
s(Vinsert
p5659
I43
VSimpleType: MethodVisitor
p5660
tp5661
I1
s(Vinsert
p5662
I42
VSimpleName: inc
p5663
tp5664
I1
s(Vinsert
p5665
I42
VSimpleName: exprs
p5666
tp5667
I1
s(Vinsert
p5668
I40
VQualifiedName: iters.length
p5669
tp5670
I1
s(Vinsert
p5671
I66
VTextElement: Once the final script path has been loaded, the java process exits.
p5672
tp5673
I1
s(Vinsert
p5674
I42
VSimpleName: getMethods
p5675
tp5676
I1
s(Vinsert
p5677
I42
VSimpleName: scriptfile
p5678
tp5679
I1
s(Vinsert
p5680
I42
VSimpleName: Writer
p5681
tp5682
I3
s(Vinsert
p5683
I43
VSimpleType: Expr
p5684
tp5685
I2
s(Vinsert
p5686
I43
VSimpleType: Namespace
p5687
tp5688
I12
s(Vinsert
p5689
I42
VSimpleName: getSimpleName
p5690
tp5691
I1
s(Vinsert
p5692
I40
VQualifiedName: Double.TYPE
p5693
tp5694
I2
s(Vinsert
p5695
I42
VSimpleName: line
p5696
tp5697
I16
s(Vinsert
p5698
I42
VSimpleName: _key
p5699
tp5700
I2
s(Vinsert
p5701
I45
VStringLiteral: "EOF while reading string"
p5702
tp5703
I2
s(Vinsert
p5704
I42
VSimpleName: openConnection
p5705
tp5706
I1
s(Vinsert
p5707
I40
VQualifiedName: Type.VOID_TYPE
p5708
tp5709
I1
s(Vinsert
p5710
I42
VSimpleName: flipBit
p5711
tp5712
I1
s(Vinsert
p5713
I42
VSimpleName: OUT
p5714
tp5715
I3
s(Vinsert
p5716
I65
VTagElement: @throws
p5717
tp5718
I1
s(Vinsert
p5719
I42
VSimpleName: UNKNOWN
p5720
tp5721
I1
s(Vinsert
p5722
I40
VQualifiedName: lb.name
p5723
tp5724
I3
s(Vinsert
p5725
I42
VSimpleName: negate
p5726
tp5727
I1
s(Vinsert
p5728
I40
VQualifiedName: init.length
p5729
tp5730
I1
s(Vinsert
p5731
I40
VQualifiedName: L.status
p5732
tp5733
I1
s(Vinsert
p5734
I42
VSimpleName: REFLECTION_WARNING_PROP
p5735
tp5736
I1
s(Vinsert
p5737
I43
VSimpleType: APersistentVector
p5738
tp5739
I2
s(Vinsert
p5740
I42
VSimpleName: getWatches
p5741
tp5742
I1
s(Vinsert
p5743
I42
VSimpleName: doSet
p5744
tp5745
I2
s(Vinsert
p5746
I42
VSimpleName: lb
p5747
tp5748
I2
s(Vinsert
p5749
I42
VSimpleName: incrementAndGet
p5750
tp5751
I1
s(Vinsert
p5752
I42
VSimpleName: pclasses
p5753
tp5754
I1
s(Vinsert
p5755
I42
VSimpleName: paramType
p5756
tp5757
I4
s(Vinsert
p5758
I42
VSimpleName: firstline
p5759
tp5760
I1
s(Vinsert
p5761
I42
VSimpleName: bindRoot
p5762
tp5763
I1
s(Vinsert
p5764
I42
VSimpleName: box
p5765
tp5766
I8
s(Vinsert
p5767
I42
VSimpleName: StringSeq
p5768
tp5769
I1
s(Vinsert
p5770
I42
VSimpleName: opcode
p5771
tp5772
I2
s(Vinsert
p5773
I42
VSimpleName: RT_TYPE
p5774
tp5775
I2
s(Vinsert
p5776
I42
VSimpleName: get2
p5777
tp5778
I1
s(Vinsert
p5779
I42
VSimpleName: LazyTransformer
p5780
tp5781
I1
s(Vinsert
p5782
I45
VStringLiteral: "clojure.lang.Var var(String,String)"
p5783
tp5784
I1
s(Vinsert
p5785
I13
VCharacterLiteral: ')'
p5786
tp5787
I1
s(Vinsert
p5788
I42
VSimpleName: basecnt
p5789
tp5790
I1
s(Vinsert
p5791
I43
VSimpleType: Comparable
p5792
tp5793
I3
s(Vinsert
p5794
I13
VCharacterLiteral: ' '
p5795
tp5796
I1
s(Vinsert
p5797
I42
VSimpleName: fseq
p5798
tp5799
I2
s(Vinsert
p5800
I42
VSimpleName: lineAfter
p5801
tp5802
I1
s(Vinsert
p5803
I42
VSimpleName: asList
p5804
tp5805
I1
s(Vinsert
p5806
I43
VSimpleType: NullPointerException
p5807
tp5808
I1
s(Vinsert
p5809
I43
VSimpleType: java.util.Collection
p5810
tp5811
I1
s(Vinsert
p5812
I42
VSimpleName: reduce
p5813
tp5814
I3
s(Vinsert
p5815
I42
VSimpleName: getComponentType
p5816
tp5817
I1
s(Vinsert
p5818
I42
VSimpleName: SUPPRESS_READ
p5819
tp5820
I1
s(Vinsert
p5821
I42
VSimpleName: cf
p5822
tp5823
I3
s(Vinsert
p5824
I45
VStringLiteral: "Mismatched primitive return, expected: "
p5825
tp5826
I1
s(Vinsert
p5827
I42
VSimpleName: onMethodExit
p5828
tp5829
I1
s(Vinsert
p5830
I42
VSimpleName: combine
p5831
tp5832
I2
s(Vinsert
p5833
I42
VSimpleName: RecognitionException
p5834
tp5835
I1
s(Vinsert
p5836
I34
VNumberLiteral: 6
p5837
tp5838
I1
s(Vinsert
p5839
I42
VSimpleName: i1
p5840
tp5841
I1
s(Vinsert
p5842
I43
VSimpleType: AtomicReference
p5843
tp5844
I4
s(Vinsert
p5845
I42
VSimpleName: Link
p5846
tp5847
I1
s(Vinsert
p5848
I42
VSimpleName: inns
p5849
tp5850
I2
s(Vinsert
p5851
I42
VSimpleName: BigInt
p5852
tp5853
I6
s(Vinsert
p5854
I42
VSimpleName: DOT
p5855
tp5856
I1
s(Vinsert
p5857
I42
VSimpleName: sig
p5858
tp5859
I1
s(Vinsert
p5860
I45
VStringLiteral: "*refers*"
p5861
tp5862
I1
s(Vinsert
p5863
I40
VQualifiedName: PATHTYPE.PATH
p5864
tp5865
I1
s(Vinsert
p5866
I42
VSimpleName: readPoint
p5867
tp5868
I3
s(Vinsert
p5869
I42
VSimpleName: printStackTrace
p5870
tp5871
I5
s(Vinsert
p5872
I42
VSimpleName: unscaledValue
p5873
tp5874
I1
s(Vinsert
p5875
I42
VSimpleName: CFn
p5876
tp5877
I1
s(Vinsert
p5878
I45
VStringLiteral: "Var"
p5879
tp5880
I1
s(Vinsert
p5881
I40
VQualifiedName: v.ns
p5882
tp5883
I1
s(Vinsert
p5884
I45
VStringLiteral: "EnclosingMethod"
p5885
tp5886
I1
s(Vinsert
p5887
I40
VQualifiedName: l.frame.owner
p5888
tp5889
I1
s(Vinsert
p5890
I42
VSimpleName: l
p5891
tp5892
I3
s(Vinsert
p5893
I42
VSimpleName: lenfm
p5894
tp5895
I1
s(Vinsert
p5896
I42
VSimpleName: oldp
p5897
tp5898
I2
s(Vinsert
p5899
I45
VStringLiteral: "*F\u005cn"
p5900
tp5901
I1
s(Vinsert
p5902
I45
VStringLiteral: "clojure.lang.Var setDynamic(boolean)"
p5903
tp5904
I1
s(Vinsert
p5905
I40
VQualifiedName: ret.objtype
p5906
tp5907
I1
s(Vinsert
p5908
I42
VSimpleName: mform
p5909
tp5910
I1
s(Vinsert
p5911
I42
VSimpleName: addP
p5912
tp5913
I3
s(Vinsert
p5914
I42
VSimpleName: makeSeq
p5915
tp5916
I1
s(Vinsert
p5917
I27
VInfixExpression: &
p5918
tp5919
I9
s(Vinsert
p5920
I40
VQualifiedName: java.lang.Number
p5921
tp5922
I1
s(Vinsert
p5923
I43
VSimpleType: Long
p5924
tp5925
I6
s(Vinsert
p5926
I45
VStringLiteral: "longCast"
p5927
tp5928
I1
s(Vinsert
p5929
I42
VSimpleName: divideToIntegralValue
p5930
tp5931
I1
s(Vinsert
p5932
I42
VSimpleName: expr
p5933
tp5934
I2
s(Vinsert
p5935
I42
VSimpleName: FNS
p5936
tp5937
I1
s(Vinsert
p5938
I42
VSimpleName: frms
p5939
tp5940
I1
s(Vinsert
p5941
I42
VSimpleName: setInstanceField
p5942
tp5943
I1
s(Vinsert
p5944
I42
VSimpleName: objx
p5945
tp5946
I1
s(Vinsert
p5947
I42
VSimpleName: newState
p5948
tp5949
I1
s(Vinsert
p5950
I42
VSimpleName: doPrivileged
p5951
tp5952
I1
s(Vinsert
p5953
I40
VQualifiedName: bi.binding.canBeCleared
p5954
tp5955
I1
s(Vinsert
p5956
I42
VSimpleName: typ
p5957
tp5958
I2
s(Vinsert
p5959
I42
VSimpleName: visitTypeInsn
p5960
tp5961
I1
s(Vinsert
p5962
I42
VSimpleName: items
p5963
tp5964
I16
s(Vinsert
p5965
I42
VSimpleName: startPoint
p5966
tp5967
I1
s(Vinsert
p5968
I42
VSimpleName: meth
p5969
tp5970
I2
s(Vinsert
p5971
I42
VSimpleName: getAbsolutePath
p5972
tp5973
I1
s(Vinsert
p5974
I42
VSimpleName: testExpr
p5975
tp5976
I1
s(Vinsert
p5977
I42
VSimpleName: visitOuterClass
p5978
tp5979
I1
s(Vinsert
p5980
I42
VSimpleName: ninstances
p5981
tp5982
I1
s(Vinsert
p5983
I42
VSimpleName: context
p5984
tp5985
I18
s(Vinsert
p5986
I42
VSimpleName: added
p5987
tp5988
I1
s(Vinsert
p5989
I40
VQualifiedName: ClassWriter.CLASS
p5990
tp5991
I1
s(Vinsert
p5992
I42
VSimpleName: ratioLiteral_StartIndex
p5993
tp5994
I1
s(Vinsert
p5995
I42
VSimpleName: Obj
p5996
tp5997
I1
s(Vinsert
p5998
I43
VSimpleType: ISequential
p5999
tp6000
I2
s(Vinsert
p6001
I42
VSimpleName: isMacro
p6002
tp6003
I1
s(Vinsert
p6004
I42
VSimpleName: startElement
p6005
tp6006
I1
s(Vinsert
p6007
I45
VStringLiteral: "java.lang.Thread"
p6008
tp6009
I1
s(Vinsert
p6010
I43
VSimpleType: Iterate
p6011
tp6012
I1
s(Vinsert
p6013
I43
VSimpleType: PersistentQueue
p6014
tp6015
I1
s(Vinsert
p6016
I42
VSimpleName: dispatchAction
p6017
tp6018
I1
s(Vinsert
p6019
I45
VStringLiteral: "identity"
p6020
tp6021
I1
s(Vinsert
p6022
I45
VStringLiteral: "\u005cn"
p6023
tp6024
I1
s(Vinsert
p6025
I42
VSimpleName: comp
p6026
tp6027
I3
s(Vinsert
p6028
I42
VSimpleName: Ratio
p6029
tp6030
I6
s(Vinsert
p6031
I42
VSimpleName: USES
p6032
tp6033
I2
s(Vinsert
p6034
I42
VSimpleName: invokeMatchingMethod
p6035
tp6036
I1
s(Vinsert
p6037
I42
VSimpleName: cloneThreadBindingFrame
p6038
tp6039
I1
s(Vinsert
p6040
I42
VSimpleName: len
p6041
tp6042
I5
s(Vinsert
p6043
I42
VSimpleName: ArrayStream
p6044
tp6045
I1
s(Vinsert
p6046
I42
VSimpleName: ks
p6047
tp6048
I3
s(Vinsert
p6049
I42
VSimpleName: localsUsedInCatchFinally
p6050
tp6051
I1
s(Vinsert
p6052
I42
VSimpleName: soloExecutor
p6053
tp6054
I1
s(Vinsert
p6055
I42
VSimpleName: newUTF8
p6056
tp6057
I3
s(Vinsert
p6058
I42
VSimpleName: has
p6059
tp6060
I1
s(Vinsert
p6061
I43
VSimpleType: InvocationTargetException
p6062
tp6063
I1
s(Vinsert
p6064
I42
VSimpleName: exception
p6065
tp6066
I2
s(Vinsert
p6067
I74
VParameterizedType: TRef<IPersistentMap>
p6068
tp6069
I1
s(Vinsert
p6070
I42
VSimpleName: L
p6071
tp6072
I1
s(Vinsert
p6073
I42
VSimpleName: aq
p6074
tp6075
I1
s(Vinsert
p6076
I42
VSimpleName: PathNode
p6077
tp6078
I1
s(Vinsert
p6079
I42
VSimpleName: PersistentArrayMap
p6080
tp6081
I1
s(Vinsert
p6082
I42
VSimpleName: withMeta
p6083
tp6084
I21
s(Vinsert
p6085
I42
VSimpleName: isExported
p6086
tp6087
I1
s(Vinsert
p6088
I43
VSimpleType: RandomAccess
p6089
tp6090
I1
s(Vinsert
p6091
I42
VSimpleName: elides
p6092
tp6093
I1
s(Vinsert
p6094
I42
VSimpleName: TOP
p6095
tp6096
I1
s(Vinsert
p6097
I42
VSimpleName: dockw
p6098
tp6099
I1
s(Vinsert
p6100
I42
VSimpleName: ret
p6101
tp6102
I81
s(Vinsert
p6103
I42
VSimpleName: className
p6104
tp6105
I4
s(Vinsert
p6106
I42
VSimpleName: createHT
p6107
tp6108
I1
s(Vinsert
p6109
I40
VQualifiedName: Actor.Action
p6110
tp6111
I1
s(Vinsert
p6112
I40
VQualifiedName: java.util.Map
p6113
tp6114
I1
s(Vinsert
p6115
I42
VSimpleName: doRun
p6116
tp6117
I1
s(Vinsert
p6118
I42
VSimpleName: ELIDE_META
p6119
tp6120
I1
s(Vinsert
p6121
I42
VSimpleName: ensurePoint
p6122
tp6123
I1
s(Vinsert
p6124
I43
VSimpleType: String
p6125
tp6126
I90
s(Vinsert
p6127
I42
VSimpleName: c1
p6128
tp6129
I2
s(Vinsert
p6130
I42
VSimpleName: getSort
p6131
tp6132
I1
s(Vinsert
p6133
I43
VSimpleType: IPersistentSet
p6134
tp6135
I8
s(Vinsert
p6136
I42
VSimpleName: rettag
p6137
tp6138
I2
s(Vinsert
p6139
I42
VSimpleName: Runtime
p6140
tp6141
I1
s(Vinsert
p6142
I42
VSimpleName: e
p6143
tp6144
I64
s(Vinsert
p6145
I40
VQualifiedName: b.used
p6146
tp6147
I1
s(Vinsert
p6148
I43
VSimpleType: Object
p6149
tp6150
I213
s(Vinsert
p6151
I42
VSimpleName: divideAndRemainder
p6152
tp6153
I1
s(Vinsert
p6154
I42
VSimpleName: HostSymbol
p6155
tp6156
I1
s(Vinsert
p6157
I40
VQualifiedName: Opcodes.ACC_FINAL
p6158
tp6159
I1
s(Vinsert
p6160
I42
VSimpleName: CLOJURE_NS
p6161
tp6162
I1
s(Vinsert
p6163
I42
VSimpleName: toLowerCase
p6164
tp6165
I1
s(Vinsert
p6166
I42
VSimpleName: target
p6167
tp6168
I17
s(Vinsert
p6169
I42
VSimpleName: Var
p6170
tp6171
I47
s(Vinsert
p6172
I45
VStringLiteral: "UnsupportedOperationException"
p6173
tp6174
I1
s(Vinsert
p6175
I42
VSimpleName: hasheq
p6176
tp6177
I8
s(Vinsert
p6178
I42
VSimpleName: refers
p6179
tp6180
I2
s(Vinsert
p6181
I42
VSimpleName: nodes
p6182
tp6183
I3
s(Vinsert
p6184
I42
VSimpleName: ascending
p6185
tp6186
I1
s(Vinsert
p6187
I42
VSimpleName: mappings
p6188
tp6189
I1
s(Vinsert
p6190
I42
VSimpleName: print_level
p6191
tp6192
I1
s(Vinsert
p6193
I42
VSimpleName: Long
p6194
tp6195
I7
s(Vinsert
p6196
I42
VSimpleName: visitor
p6197
tp6198
I1
s(Vinsert
p6199
I42
VSimpleName: NS
p6200
tp6201
I1
s(Vinsert
p6202
I42
VSimpleName: Class
p6203
tp6204
I30
s(Vinsert
p6205
I42
VSimpleName: sort
p6206
tp6207
I1
s(Vinsert
p6208
I42
VSimpleName: Comparable
p6209
tp6210
I3
s(Vinsert
p6211
I42
VSimpleName: bigIntegerValue
p6212
tp6213
I1
s(Vinsert
p6214
I45
VStringLiteral: "count = "
p6215
tp6216
I1
s(Vinsert
p6217
I42
VSimpleName: visitInsn
p6218
tp6219
I7
s(Vinsert
p6220
I42
VSimpleName: in_ns
p6221
tp6222
I1
s(Vinsert
p6223
I74
VParameterizedType: List<String>
p6224
tp6225
I1
s(Vinsert
p6226
I42
VSimpleName: ins
p6227
tp6228
I9
s(Vinsert
p6229
I42
VSimpleName: ns
p6230
tp6231
I37
s(Vinsert
p6232
I42
VSimpleName: visitSubroutine
p6233
tp6234
I1
s(Vinsert
p6235
I42
VSimpleName: Override
p6236
tp6237
I3
s(Vinsert
p6238
I42
VSimpleName: print_length
p6239
tp6240
I1
s(Vinsert
p6241
I42
VSimpleName: simpleName
p6242
tp6243
I2
s(Vinsert
p6244
I42
VSimpleName: maybePrimitiveType
p6245
tp6246
I2
s(Vinsert
p6247
I42
VSimpleName: vector
p6248
tp6249
I3
s(Vinsert
p6250
I42
VSimpleName: Associative
p6251
tp6252
I1
s(Vinsert
p6253
I42
VSimpleName: toIndex
p6254
tp6255
I1
s(Vinsert
p6256
I42
VSimpleName: flush
p6257
tp6258
I1
s(Vinsert
p6259
I45
VStringLiteral: ".java\u005cn"
p6260
tp6261
I1
s(Vinsert
p6262
I42
VSimpleName: replaceRoot
p6263
tp6264
I1
s(Vinsert
p6265
I42
VSimpleName: tag
p6266
tp6267
I12
s(Vinsert
p6268
I45
VStringLiteral: "REPL"
p6269
tp6270
I1
s(Vinsert
p6271
I38
VPrefixExpression: ++
p6272
tp6273
I18
s(Vinsert
p6274
I42
VSimpleName: IOException
p6275
tp6276
I5
s(Vinsert
p6277
I42
VSimpleName: pop2
p6278
tp6279
I1
s(Vinsert
p6280
I40
VQualifiedName: nm.name
p6281
tp6282
I1
s(Vinsert
p6283
I40
VQualifiedName: editable.bitmap
p6284
tp6285
I1
s(Vinsert
p6286
I83
VModifier: private
p6287
tp6288
I8
s(Vinsert
p6289
I42
VSimpleName: internNew
p6290
tp6291
I1
s(Vinsert
p6292
I43
VSimpleType: C
p6293
tp6294
I8
s(Vinsert
p6295
I42
VSimpleName: initialCapacity
p6296
tp6297
I2
s(Vinsert
p6298
I74
VParameterizedType: AtomicReference<TVal>
p6299
tp6300
I1
s(Vinsert
p6301
I42
VSimpleName: put
p6302
tp6303
I20
s(Vinsert
p6304
I45
VStringLiteral: "*S Clojure\u005cn"
p6305
tp6306
I1
s(Vinsert
p6307
I40
VQualifiedName: state.val
p6308
tp6309
I3
s(Vinsert
p6310
I40
VQualifiedName: exclasses.length
p6311
tp6312
I1
s(Vinsert
p6313
I42
VSimpleName: sigTag
p6314
tp6315
I1
s(Vinsert
p6316
I42
VSimpleName: CONCAT
p6317
tp6318
I1
s(Vinsert
p6319
I43
VSimpleType: PersistentHashtableMap
p6320
tp6321
I1
s(Vinsert
p6322
I42
VSimpleName: hashOrdered
p6323
tp6324
I1
s(Vinsert
p6325
I42
VSimpleName: START
p6326
tp6327
I1
s(Vinsert
p6328
I43
VSimpleType: Iterable
p6329
tp6330
I5
s(Vinsert
p6331
I42
VSimpleName: arg3
p6332
tp6333
I13
s(Vinsert
p6334
I42
VSimpleName: IFn
p6335
tp6336
I10
s(Vinsert
p6337
I40
VQualifiedName: ver.prior
p6338
tp6339
I1
s(Vinsert
p6340
I53
VThrowStatement
p6341
tp6342
I49
s(Vinsert
p6343
I42
VSimpleName: bitLength
p6344
tp6345
I3
s(Vinsert
p6346
I42
VSimpleName: level
p6347
tp6348
I1
s(Vinsert
p6349
I42
VSimpleName: rq
p6350
tp6351
I4
s(Vinsert
p6352
I42
VSimpleName: ct
p6353
tp6354
I2
s(Vinsert
p6355
I42
VSimpleName: addURL
p6356
tp6357
I1
s(Vinsert
p6358
I42
VSimpleName: _current
p6359
tp6360
I1
s(Vinsert
p6361
I42
VSimpleName: throwCauseOrElseException
p6362
tp6363
I1
s(Vinsert
p6364
I45
VStringLiteral: "__hash"
p6365
tp6366
I1
s(Vinsert
p6367
I42
VSimpleName: asVector
p6368
tp6369
I1
s(Vinsert
p6370
I42
VSimpleName: mc
p6371
tp6372
I2
s(Vinsert
p6373
I42
VSimpleName: bind
p6374
tp6375
I2
s(Vinsert
p6376
I42
VSimpleName: aclone
p6377
tp6378
I2
s(Vinsert
p6379
I43
VSimpleType: Frame
p6380
tp6381
I5
s(Vinsert
p6382
I42
VSimpleName: VARS
p6383
tp6384
I1
s(Vinsert
p6385
I42
VSimpleName: uncheckedLongCast
p6386
tp6387
I1
s(Vinsert
p6388
I42
VSimpleName: leaf
p6389
tp6390
I1
s(Vinsert
p6391
I42
VSimpleName: map
p6392
tp6393
I29
s(Vinsert
p6394
I42
VSimpleName: staticKey
p6395
tp6396
I1
s(Vinsert
p6397
I43
VSimpleType: Indexed
p6398
tp6399
I1
s(Vinsert
p6400
I42
VSimpleName: classCache
p6401
tp6402
I1
s(Vinsert
p6403
I42
VSimpleName: BigInteger
p6404
tp6405
I16
s(Vinsert
p6406
I39
VPrimitiveType: short
p6407
tp6408
I2
s(Vinsert
p6409
I45
VStringLiteral: "backspace"
p6410
tp6411
I1
s(Vinsert
p6412
I21
VExpressionStatement
p6413
tp6414
I452
s(Vinsert
p6415
I42
VSimpleName: ThreadLocalData
p6416
tp6417
I12
s(Vinsert
p6418
I42
VSimpleName: mmap
p6419
tp6420
I1
s(Vinsert
p6421
I26
VImportDeclaration
p6422
tp6423
I2
s(Vinsert
p6424
I42
VSimpleName: forms
p6425
tp6426
I1
s(Vinsert
p6427
I42
VSimpleName: ref
p6428
tp6429
I3
s(Vinsert
p6430
I42
VSimpleName: RET
p6431
tp6432
I1
s(Vinsert
p6433
I40
VQualifiedName: ref.tvals
p6434
tp6435
I2
s(Vinsert
p6436
I43
VSimpleType: PersistentTreeSet
p6437
tp6438
I2
s(Vinsert
p6439
I42
VSimpleName: namespaceFor
p6440
tp6441
I3
s(Vinsert
p6442
I45
VStringLiteral: "Ref"
p6443
tp6444
I1
s(Vinsert
p6445
I42
VSimpleName: arg15
p6446
tp6447
I5
s.