(lp0
(Vinsert
p1
I42
VSimpleName: sqrt
p2
tp3
a(Vinsert
p4
I42
VSimpleName: testCopyOf_collection_enumSet
p5
tp6
a(Vinsert
p7
I42
VSimpleName: and
p8
tp9
a(Vinsert
p10
I42
VSimpleName: countTrue
p11
tp12
a(Vinsert
p13
I42
VSimpleName: hashKeys
p14
tp15
a(Vinsert
p16
I42
VSimpleName: hasPrevious
p17
tp18
a(Vinsert
p19
I42
VSimpleName: createSource
p20
tp21
a(Vinsert
p22
I42
VSimpleName: testEntrySet_contain
p23
tp24
a(Vinsert
p25
I42
VSimpleName: isStatic
p26
tp27
a(Vinsert
p28
I42
VSimpleName: sha1
p29
tp30
a(Vinsert
p31
I42
VSimpleName: withUpperBound
p32
tp33
a(Vinsert
p34
I42
VSimpleName: getTopLevelClasses
p35
tp36
a(Vinsert
p37
I42
VSimpleName: randomLowSurrogate
p38
tp39
a(Vinsert
p40
I42
VSimpleName: testInOrder
p41
tp42
a(Vinsert
p43
I42
VSimpleName: invalidateAll
p44
tp45
a(Vinsert
p46
I42
VSimpleName: expect
p47
tp48
a(Vinsert
p49
I42
VSimpleName: mixK1
p50
tp51
a(Vinsert
p52
I42
VSimpleName: advance
p53
tp54
a(Vinsert
p55
I42
VSimpleName: isUriInetAddress
p56
tp57
a(Vinsert
p58
I42
VSimpleName: computeIfAbsent
p59
tp60
a(Vinsert
p61
I42
VSimpleName: encloses
p62
tp63
a(Vinsert
p64
I42
VSimpleName: poll
p65
tp66
a(Vinsert
p67
I42
VSimpleName: sumOfSquaresOfDeltas
p68
tp69
a(Vinsert
p70
I42
VSimpleName: println
p71
tp72
a(Vinsert
p73
I42
VSimpleName: trimTrailingFrom
p74
tp75
a(Vinsert
p76
I42
VSimpleName: testEqualsImpl
p77
tp78
a(Vinsert
p79
I42
VSimpleName: config
p80
tp81
a(Vinsert
p82
I42
VSimpleName: unmodifiableSet
p83
tp84
a(Vinsert
p85
I42
VSimpleName: flip
p86
tp87
a(Vinsert
p88
I42
VSimpleName: retainAll
p89
tp90
a(Vinsert
p91
I42
VSimpleName: listenInPoolThread
p92
tp93
a(Vinsert
p94
I42
VSimpleName: matches
p95
tp96
a(Vinsert
p97
I42
VSimpleName: inRange
p98
tp99
a(Vinsert
p100
I42
VSimpleName: newProxy
p101
tp102
a(Vinsert
p103
I42
VSimpleName: testForEach
p104
tp105
a(Vinsert
p106
I42
VSimpleName: invalidate
p107
tp108
a(Vinsert
p109
I42
VSimpleName: testToImmutableListMultimap
p110
tp111
a(Vinsert
p112
I42
VSimpleName: compute
p113
tp114
a(Vinsert
p115
I42
VSimpleName: lazyWeakReadWriteLock
p116
tp117
a(Vinsert
p118
I42
VSimpleName: isPackagePrivate
p119
tp120
a(Vinsert
p121
I42
VSimpleName: enter
p122
tp123
a(Vinsert
p124
I42
VSimpleName: testAsConverter_nominal
p125
tp126
a(Vinsert
p127
I42
VSimpleName: set
p128
tp129
a(Vinsert
p130
I42
VSimpleName: offset
p131
tp132
a(Vinsert
p133
I42
VSimpleName: lazyWeakLock
p134
tp135
a(Vinsert
p136
I42
VSimpleName: removeEdge
p137
tp138
a(Vinsert
p139
I42
VSimpleName: writeLines
p140
tp141
a(Vinsert
p142
I42
VSimpleName: remove
p143
tp144
a(Vinsert
p145
I42
VSimpleName: nodeA
p146
tp147
a(Vinsert
p148
I42
VSimpleName: testIndexOfImpl_null
p149
tp150
a(Vinsert
p151
I42
VSimpleName: hasUpperBound
p152
tp153
a(Vinsert
p154
I42
VSimpleName: notifyStarted
p155
tp156
a(Vinsert
p157
I42
VSimpleName: removeHandler
p158
tp159
a(Vinsert
p160
I42
VSimpleName: oppositeNode
p161
tp162
a(Vinsert
p163
I42
VSimpleName: split
p164
tp165
a(Vinsert
p166
I42
VSimpleName: testFirstNonNull_throwsNullPointerException
p167
tp168
a(Vinsert
p169
I42
VSimpleName: singleWidth
p170
tp171
a(Vinsert
p172
I42
VSimpleName: table
p173
tp174
a(Vinsert
p175
I42
VSimpleName: value
p176
tp177
a(Vinsert
p178
I42
VSimpleName: testConcatNested_appendToEnd
p179
tp180
a(Vinsert
p181
I42
VSimpleName: hashUnencodedChars
p182
tp183
a(Vinsert
p184
I42
VSimpleName: removePredecessor
p185
tp186
a(Vinsert
p187
I42
VSimpleName: isNullOrEmpty
p188
tp189
a(Vinsert
p190
I42
VSimpleName: testSortedCopyOf_empty
p191
tp192
a(Vinsert
p193
I42
VSimpleName: testFlatteningToImmutableListMultimap
p194
tp195
a(Vinsert
p196
I42
VSimpleName: singleton
p197
tp198
a(Vinsert
p199
I42
VSimpleName: forMap
p200
tp201
a(Vinsert
p202
I42
VSimpleName: awaitClear
p203
tp204
a(Vinsert
p205
I42
VSimpleName: containsAll
p206
tp207
a(Vinsert
p208
I42
VSimpleName: visit
p209
tp210
a(Vinsert
p211
I42
VSimpleName: toUpperCase
p212
tp213
a(Vinsert
p214
I42
VSimpleName: forArray
p215
tp216
a(Vinsert
p217
I42
VSimpleName: elementSetImpl
p218
tp219
a(Vinsert
p220
I42
VSimpleName: toArrayImpl
p221
tp222
a(Vinsert
p223
I42
VSimpleName: singleQuantile
p224
tp225
a(Vinsert
p226
I42
VSimpleName: thenReturn
p227
tp228
a(Vinsert
p229
I42
VSimpleName: lastIndexOf
p230
tp231
a(Vinsert
p232
I42
VSimpleName: compareTo
p233
tp234
a(Vinsert
p235
I42
VSimpleName: asMap
p236
tp237
a(Vinsert
p238
I42
VSimpleName: containsNoDuplicates
p239
tp240
a(Vinsert
p241
I42
VSimpleName: hasContentsAnyOrder
p242
tp243
a(Vinsert
p244
I42
VSimpleName: enqueue
p245
tp246
a(Vinsert
p247
I42
VSimpleName: testAllPublicStaticMethods
p248
tp249
a(Vinsert
p250
I42
VSimpleName: testCustomEscaper
p251
tp252
a(Vinsert
p253
I42
VSimpleName: testRemoveIf_randomAccess_notPermittingDuplicates
p254
tp255
a(Vinsert
p256
I42
VSimpleName: collect
p257
tp258
a(Vinsert
p259
I42
VSimpleName: addAndGet
p260
tp261
a(Vinsert
p262
I42
VSimpleName: compare
p263
tp264
a(Vinsert
p265
I42
VSimpleName: newStrongInterner
p266
tp267
a(Vinsert
p268
I42
VSimpleName: least
p269
tp270
a(Vinsert
p271
I42
VSimpleName: singletonIterator
p272
tp273
a(Vinsert
p274
I42
VSimpleName: getClass
p275
tp276
a(Vinsert
p277
I42
VSimpleName: constrainedMap
p278
tp279
a(Vinsert
p280
I42
VSimpleName: none
p281
tp282
a(Vinsert
p283
I42
VSimpleName: md5
p284
tp285
a(Vinsert
p286
I42
VSimpleName: testInverseEntrySetValue
p287
tp288
a(Vinsert
p289
I42
VSimpleName: checkCast
p290
tp291
a(Vinsert
p292
I42
VSimpleName: fromEntries
p293
tp294
a(Vinsert
p295
I42
VSimpleName: propagateIfInstanceOf
p296
tp297
a(Vinsert
p298
I42
VSimpleName: testValuesIsNotASet
p299
tp300
a(Vinsert
p301
I42
VSimpleName: appendCodePoint
p302
tp303
a(Vinsert
p304
I42
VSimpleName: enumKeys
p305
tp306
a(Vinsert
p307
I42
VSimpleName: mapEntry
p308
tp309
a(Vinsert
p310
I42
VSimpleName: loadFinalizer
p311
tp312
a(Vinsert
p313
I42
VSimpleName: getAllPresent
p314
tp315
a(Vinsert
p316
I42
VSimpleName: isReusable
p317
tp318
a(Vinsert
p319
I42
VSimpleName: tryParse
p320
tp321
a(Vinsert
p322
I42
VSimpleName: testIterationOrderThroughBuilderRemovals
p323
tp324
a(Vinsert
p325
I42
VSimpleName: areClosed
p326
tp327
a(Vinsert
p328
I42
VSimpleName: getFile
p329
tp330
a(Vinsert
p331
I42
VSimpleName: containsExactly
p332
tp333
a(Vinsert
p334
I42
VSimpleName: withValue
p335
tp336
a(Vinsert
p337
I42
VSimpleName: testSortDescendingIndexed
p338
tp339
a(Vinsert
p340
I42
VSimpleName: getClassPathFromManifest
p341
tp342
a(Vinsert
p343
I42
VSimpleName: safeRemove
p344
tp345
a(Vinsert
p346
I42
VSimpleName: interruptTask
p347
tp348
a(Vinsert
p349
I42
VSimpleName: any
p350
tp351
a(Vinsert
p352
I42
VSimpleName: testToImmutableBiMap_exceptionOnDuplicateKey
p353
tp354
a(Vinsert
p355
I42
VSimpleName: transform
p356
tp357
a(Vinsert
p358
I42
VSimpleName: fromNullable
p359
tp360
a(Vinsert
p361
I42
VSimpleName: newBuilder
p362
tp363
a(Vinsert
p364
I42
VSimpleName: unmodifiableNavigableSet
p365
tp366
a(Vinsert
p367
I42
VSimpleName: testMax
p368
tp369
a(Vinsert
p370
I42
VSimpleName: encodingStream
p371
tp372
a(Vinsert
p373
I42
VSimpleName: intValue
p374
tp375
a(Vinsert
p376
I42
VSimpleName: contentEquals
p377
tp378
a(Vinsert
p379
I42
VSimpleName: ofNullable
p380
tp381
a(Vinsert
p382
I42
VSimpleName: orderValuesBy
p383
tp384
a(Vinsert
p385
I42
VSimpleName: getOrLoadAll
p386
tp387
a(Vinsert
p388
I42
VSimpleName: isAssignableFrom
p389
tp390
a(Vinsert
p391
I42
VSimpleName: usingGenerator
p392
tp393
a(Vinsert
p394
I42
VSimpleName: inferKeyType
p395
tp396
a(Vinsert
p397
I42
VSimpleName: toCollection
p398
tp399
a(Vinsert
p400
I42
VSimpleName: runTearDown
p401
tp402
a(Vinsert
p403
I42
VSimpleName: testTryParse_radixTooBig
p404
tp405
a(Vinsert
p406
I42
VSimpleName: exactly
p407
tp408
a(Vinsert
p409
I42
VSimpleName: index
p410
tp411
a(Vinsert
p412
I42
VSimpleName: getClassLoader
p413
tp414
a(Vinsert
p415
I42
VSimpleName: find
p416
tp417
a(Vinsert
p418
I42
VSimpleName: ofUndirected
p419
tp420
a(Vinsert
p421
I42
VSimpleName: getNameWithoutExtension
p422
tp423
a(Vinsert
p424
I42
VSimpleName: strong
p425
tp426
a(Vinsert
p427
I42
VSimpleName: abs
p428
tp429
a(Vinsert
p430
I42
VSimpleName: testUnmodifiableIterable_forEach
p431
tp432
a(Vinsert
p433
I42
VSimpleName: edgeValueOrDefault
p434
tp435
a(Vinsert
p436
I42
VSimpleName: reverseBytes
p437
tp438
a(Vinsert
p439
I42
VSimpleName: submit
p440
tp441
a(Vinsert
p442
I42
VSimpleName: descendingMap
p443
tp444
a(Vinsert
p445
I42
VSimpleName: newInstance
p446
tp447
a(Vinsert
p448
I42
VSimpleName: mightContain
p449
tp450
a(Vinsert
p451
I42
VSimpleName: replace
p452
tp453
a(Vinsert
p454
I42
VSimpleName: nextBytes
p455
tp456
a(Vinsert
p457
I42
VSimpleName: systemTicker
p458
tp459
a(Vinsert
p460
I42
VSimpleName: missRate
p461
tp462
a(Vinsert
p463
I42
VSimpleName: startAndWait
p464
tp465
a(Vinsert
p466
I42
VSimpleName: charAt
p467
tp468
a(Vinsert
p469
I42
VSimpleName: testSomeSequences
p470
tp471
a(Vinsert
p472
I42
VSimpleName: asIterable
p473
tp474
a(Vinsert
p475
I42
VSimpleName: testRemoveIf_iterable
p476
tp477
a(Vinsert
p478
I42
VSimpleName: testCheckNotNull_simple_success
p479
tp480
a(Vinsert
p481
I42
VSimpleName: ceilingEntry
p482
tp483
a(Vinsert
p484
I42
VSimpleName: getThreadFactory
p485
tp486
a(Vinsert
p487
I42
VSimpleName: createDirected
p488
tp489
a(Vinsert
p490
I42
VSimpleName: testTransformEntriesSecretlySorted
p491
tp492
a(Vinsert
p493
I42
VSimpleName: next
p494
tp495
a(Vinsert
p496
I42
VSimpleName: testEncodedLength_validStrings2
p497
tp498
a(Vinsert
p499
I42
VSimpleName: testCombinations
p500
tp501
a(Vinsert
p502
I42
VSimpleName: elapsed
p503
tp504
a(Vinsert
p505
I42
VSimpleName: forSupplier
p506
tp507
a(Vinsert
p508
I42
VSimpleName: enqueueOn
p509
tp510
a(Vinsert
p511
I42
VSimpleName: probablePrime
p512
tp513
a(Vinsert
p514
I42
VSimpleName: closed
p515
tp516
a(Vinsert
p517
I42
VSimpleName: read
p518
tp519
a(Vinsert
p520
I42
VSimpleName: safeGet
p521
tp522
a(Vinsert
p523
I42
VSimpleName: hasEdgeConnecting
p524
tp525
a(Vinsert
p526
I42
VSimpleName: toHexString
p527
tp528
a(Vinsert
p529
I42
VSimpleName: where
p530
tp531
a(Vinsert
p532
I42
VSimpleName: transitionSucceeded
p533
tp534
a(Vinsert
p535
I42
VSimpleName: testTruncateIllegalArguments
p536
tp537
a(Vinsert
p538
I42
VSimpleName: cancel
p539
tp540
a(Vinsert
p541
I42
VSimpleName: enqueueNotification
p542
tp543
a(Vinsert
p544
I42
VSimpleName: hash
p545
tp546
a(Vinsert
p547
I42
VSimpleName: closeQuietly
p548
tp549
a(Vinsert
p550
I42
VSimpleName: getBytesInternal
p551
tp552
a(Vinsert
p553
I42
VSimpleName: testSortIndexed
p554
tp555
a(Vinsert
p556
I42
VSimpleName: edges
p557
tp558
a(Vinsert
p559
I42
VSimpleName: cast
p560
tp561
a(Vinsert
p562
I42
VSimpleName: waitForValue
p563
tp564
a(Vinsert
p565
I42
VSimpleName: subMap
p566
tp567
a(Vinsert
p568
I42
VSimpleName: checkedGet
p569
tp570
a(Vinsert
p571
I42
VSimpleName: parseUnsignedLong
p572
tp573
a(Vinsert
p574
I42
VSimpleName: position
p575
tp576
a(Vinsert
p577
I42
VSimpleName: createTempFile
p578
tp579
a(Vinsert
p580
I42
VSimpleName: lockInterruptibly
p581
tp582
a(Vinsert
p583
I42
VSimpleName: testBuilder_orderEntriesByValueFails
p584
tp585
a(Vinsert
p586
I42
VSimpleName: isInstanceOf
p587
tp588
a(Vinsert
p589
I42
VSimpleName: setDaemon
p590
tp591
a(Vinsert
p592
I42
VSimpleName: isAlive
p593
tp594
a(Vinsert
p595
I42
VSimpleName: testSaturatedCast
p596
tp597
a(Vinsert
p598
I42
VSimpleName: parseInt
p599
tp600
a(Vinsert
p601
I42
VSimpleName: newArrayListWithCapacity
p602
tp603
a(Vinsert
p604
I42
VSimpleName: toNanos
p605
tp606
a(Vinsert
p607
I42
VSimpleName: combine
p608
tp609
a(Vinsert
p610
I42
VSimpleName: setBits
p611
tp612
a(Vinsert
p613
I42
VSimpleName: expireAfterWrite
p614
tp615
a(Vinsert
p616
I42
VSimpleName: to
p617
tp618
a(Vinsert
p619
I42
VSimpleName: hashBytes
p620
tp621
a(Vinsert
p622
I42
VSimpleName: getNextInBucket
p623
tp624
a(Vinsert
p625
I42
VSimpleName: getDeclaredField
p626
tp627
a(Vinsert
p628
I42
VSimpleName: forDigit
p629
tp630
a(Vinsert
p631
I42
VSimpleName: getOutput
p632
tp633
a(Vinsert
p634
I42
VSimpleName: getAsMapEntrySetIteratorRemoveMethod
p635
tp636
a(Vinsert
p637
I42
VSimpleName: on
p638
tp639
a(Vinsert
p640
I42
VSimpleName: repeat
p641
tp642
a(Vinsert
p643
I42
VSimpleName: getLogger
p644
tp645
a(Vinsert
p646
I42
VSimpleName: getHoldCount
p647
tp648
a(Vinsert
p649
I42
VSimpleName: removeIfZero
p650
tp651
a(Vinsert
p652
I42
VSimpleName: removeIf
p653
tp654
a(Vinsert
p655
I42
VSimpleName: testRemoveOccurrencesMultisetEmpty
p656
tp657
a(Vinsert
p658
I42
VSimpleName: getStoredLogRecords
p659
tp660
a(Vinsert
p661
I42
VSimpleName: makeMap
p662
tp663
a(Vinsert
p664
I42
VSimpleName: mkdirs
p665
tp666
a(Vinsert
p667
I42
VSimpleName: renamingDecorator
p668
tp669
a(Vinsert
p670
I42
VSimpleName: getLowerBounds
p671
tp672
a(Vinsert
p673
I42
VSimpleName: degree
p674
tp675
a(Vinsert
p676
I42
VSimpleName: register
p677
tp678
a(Vinsert
p679
I42
VSimpleName: getBytes
p680
tp681
a(Vinsert
p682
I42
VSimpleName: naturalOrder
p683
tp684
a(Vinsert
p685
I42
VSimpleName: method
p686
tp687
a(Vinsert
p688
I42
VSimpleName: hasValue
p689
tp690
a(Vinsert
p691
I42
VSimpleName: precomputedInternal
p692
tp693
a(Vinsert
p694
I42
VSimpleName: isSubtypeOf
p695
tp696
a(Vinsert
p697
I42
VSimpleName: daemonThreadFactory
p698
tp699
a(Vinsert
p700
I42
VSimpleName: newTreeSet
p701
tp702
a(Vinsert
p703
I42
VSimpleName: isOverridable
p704
tp705
a(Vinsert
p706
I42
VSimpleName: lexicographicalComparator
p707
tp708
a(Vinsert
p709
I42
VSimpleName: testFromRangeTwoEnds
p710
tp711
a(Vinsert
p712
I42
VSimpleName: lower
p713
tp714
a(Vinsert
p715
I42
VSimpleName: getType
p716
tp717
a(Vinsert
p718
I42
VSimpleName: testNulls
p719
tp720
a(Vinsert
p721
I42
VSimpleName: adjacentEdges
p722
tp723
a(Vinsert
p724
I42
VSimpleName: getMessage
p725
tp726
a(Vinsert
p727
I42
VSimpleName: isNot
p728
tp729
a(Vinsert
p730
I42
VSimpleName: addAll
p731
tp732
a(Vinsert
p733
I42
VSimpleName: putAll
p734
tp735
a(Vinsert
p736
I42
VSimpleName: ceiling
p737
tp738
a(Vinsert
p739
I42
VSimpleName: stats
p740
tp741
a(Vinsert
p742
I42
VSimpleName: arraycopy
p743
tp744
a(Vinsert
p745
I42
VSimpleName: testIsInOrder
p746
tp747
a(Vinsert
p748
I42
VSimpleName: generate
p749
tp750
a(Vinsert
p751
I42
VSimpleName: concurrencyLevel
p752
tp753
a(Vinsert
p754
I42
VSimpleName: identity
p755
tp756
a(Vinsert
p757
I42
VSimpleName: newArrayDeque
p758
tp759
a(Vinsert
p760
I42
VSimpleName: forAllPublicStaticMethods
p761
tp762
a(Vinsert
p763
I42
VSimpleName: forGraph
p764
tp765
a(Vinsert
p766
I42
VSimpleName: getStackTrace
p767
tp768
a(Vinsert
p769
I42
VSimpleName: forEachLine
p770
tp771
a(Vinsert
p772
I42
VSimpleName: newReferenceArray
p773
tp774
a(Vinsert
p775
I42
VSimpleName: testInstanceMethods
p776
tp777
a(Vinsert
p778
I42
VSimpleName: nextInt
p779
tp780
a(Vinsert
p781
I42
VSimpleName: testMapWithIndex_intStream_closeIsPropagated_sized
p782
tp783
a(Vinsert
p784
I42
VSimpleName: from
p785
tp786
a(Vinsert
p787
I42
VSimpleName: testRemove
p788
tp789
a(Vinsert
p790
I42
VSimpleName: cleanUp
p791
tp792
a(Vinsert
p793
I42
VSimpleName: getParameters
p794
tp795
a(Vinsert
p796
I42
VSimpleName: tryAcquire
p797
tp798
a(Vinsert
p799
I42
VSimpleName: newHashSet
p800
tp801
a(Vinsert
p802
I42
VSimpleName: testElapsed_notRunning
p803
tp804
a(Vinsert
p805
I42
VSimpleName: getAccessTime
p806
tp807
a(Vinsert
p808
I42
VSimpleName: testConcat_refStream_closeIsPropagated_Stream_concat
p809
tp810
a(Vinsert
p811
I42
VSimpleName: adler32
p812
tp813
a(Vinsert
p814
I42
VSimpleName: testCycleRemoveAfterHasNextExtraPicky
p815
tp816
a(Vinsert
p817
I42
VSimpleName: reserializeAndAssert
p818
tp819
a(Vinsert
p820
I42
VSimpleName: check
p821
tp822
a(Vinsert
p823
I42
VSimpleName: putCoalescing
p824
tp825
a(Vinsert
p826
I42
VSimpleName: intersection
p827
tp828
a(Vinsert
p829
I42
VSimpleName: finer
p830
tp831
a(Vinsert
p832
I42
VSimpleName: testCatchingAsync_nullInsteadOfFuture
p833
tp834
a(Vinsert
p835
I42
VSimpleName: getCanonicalFile
p836
tp837
a(Vinsert
p838
I42
VSimpleName: getSubscribers
p839
tp840
a(Vinsert
p841
I42
VSimpleName: returning
p842
tp843
a(Vinsert
p844
I42
VSimpleName: synchronizedNavigableMap
p845
tp846
a(Vinsert
p847
I42
VSimpleName: name
p848
tp849
a(Vinsert
p850
I42
VSimpleName: sampleStandardDeviation
p851
tp852
a(Vinsert
p853
I42
VSimpleName: catchingAsync
p854
tp855
a(Vinsert
p856
I42
VSimpleName: newEnumMap
p857
tp858
a(Vinsert
p859
I42
VSimpleName: valueOf
p860
tp861
a(Vinsert
p862
I42
VSimpleName: testBuilder_orderEntriesByValueAfterExactSizeBuild
p863
tp864
a(Vinsert
p865
I42
VSimpleName: testEntryEqualsNull
p866
tp867
a(Vinsert
p868
I42
VSimpleName: testTransformPreservesIOOBEsThrownByFunction
p869
tp870
a(Vinsert
p871
I42
VSimpleName: roundToInt
p872
tp873
a(Vinsert
p874
I42
VSimpleName: testFromHost
p875
tp876
a(Vinsert
p877
I42
VSimpleName: successors
p878
tp879
a(Vinsert
p880
I42
VSimpleName: testRandomRemoves
p881
tp882
a(Vinsert
p883
I42
VSimpleName: awaitTermination
p884
tp885
a(Vinsert
p886
I42
VSimpleName: fromIntBits
p887
tp888
a(Vinsert
p889
I42
VSimpleName: testGet_good
p890
tp891
a(Vinsert
p892
I42
VSimpleName: withType
p893
tp894
a(Vinsert
p895
I42
VSimpleName: natural
p896
tp897
a(Vinsert
p898
I42
VSimpleName: bigIntegers
p899
tp900
a(Vinsert
p901
I42
VSimpleName: testAllPublicInstanceMethods
p902
tp903
a(Vinsert
p904
I42
VSimpleName: testToImmutableSortedMapMerging
p905
tp906
a(Vinsert
p907
I42
VSimpleName: sampleCovariance
p908
tp909
a(Vinsert
p910
I42
VSimpleName: containsTypeVariable
p911
tp912
a(Vinsert
p913
I42
VSimpleName: pearsonsCorrelationCoefficient
p914
tp915
a(Vinsert
p916
I42
VSimpleName: testBuilder_withMutableEntry
p917
tp918
a(Vinsert
p919
I42
VSimpleName: systemNanoTime
p920
tp921
a(Vinsert
p922
I42
VSimpleName: holdsLock
p923
tp924
a(Vinsert
p925
I42
VSimpleName: elapsedTime
p926
tp927
a(Vinsert
p928
I42
VSimpleName: test
p929
tp930
a(Vinsert
p931
I42
VSimpleName: simplifyPath
p932
tp933
a(Vinsert
p934
I42
VSimpleName: testCountTrue
p935
tp936
a(Vinsert
p937
I42
VSimpleName: shuffle
p938
tp939
a(Vinsert
p940
I42
VSimpleName: parseUnsignedInt
p941
tp942
a(Vinsert
p943
I42
VSimpleName: intersects
p944
tp945
a(Vinsert
p946
I42
VSimpleName: open
p947
tp948
a(Vinsert
p949
I42
VSimpleName: state
p950
tp951
a(Vinsert
p952
I42
VSimpleName: getInput
p953
tp954
a(Vinsert
p955
I42
VSimpleName: testToStringHelperLenient_moreThanNineAnonymousClasses
p956
tp957
a(Vinsert
p958
I42
VSimpleName: getDeclaredMethod
p959
tp960
a(Vinsert
p961
I42
VSimpleName: testCreation_oneElement
p962
tp963
a(Vinsert
p964
I42
VSimpleName: casValue
p965
tp966
a(Vinsert
p967
I42
VSimpleName: isCancelled
p968
tp969
a(Vinsert
p970
I42
VSimpleName: forEachOrdered
p971
tp972
a(Vinsert
p973
I42
VSimpleName: parseBoolean
p974
tp975
a(Vinsert
p976
I42
VSimpleName: testOr_T_present
p977
tp978
a(Vinsert
p979
I42
VSimpleName: escape
p980
tp981
a(Vinsert
p982
I42
VSimpleName: rawTypes
p983
tp984
a(Vinsert
p985
I42
VSimpleName: forTree
p986
tp987
a(Vinsert
p988
I42
VSimpleName: getDeclaredFields
p989
tp990
a(Vinsert
p991
I42
VSimpleName: addListener
p992
tp993
a(Vinsert
p994
I42
VSimpleName: getMainAttributes
p995
tp996
a(Vinsert
p997
I42
VSimpleName: longValue
p998
tp999
a(Vinsert
p1000
I42
VSimpleName: uncaughtException
p1001
tp1002
a(Vinsert
p1003
I42
VSimpleName: firstEntry
p1004
tp1005
a(Vinsert
p1006
I42
VSimpleName: findLast
p1007
tp1008
a(Vinsert
p1009
I42
VSimpleName: matcher
p1010
tp1011
a(Vinsert
p1012
I42
VSimpleName: deepToString
p1013
tp1014
a(Vinsert
p1015
I42
VSimpleName: consistentHash
p1016
tp1017
a(Vinsert
p1018
I42
VSimpleName: size
p1019
tp1020
a(Vinsert
p1021
I42
VSimpleName: copyToList
p1022
tp1023
a(Vinsert
p1024
I42
VSimpleName: queue
p1025
tp1026
a(Vinsert
p1027
I42
VSimpleName: subArray
p1028
tp1029
a(Vinsert
p1030
I42
VSimpleName: warning
p1031
tp1032
a(Vinsert
p1033
I42
VSimpleName: testContainsValue
p1034
tp1035
a(Vinsert
p1036
I42
VSimpleName: memoizeWithExpiration
p1037
tp1038
a(Vinsert
p1039
I42
VSimpleName: writeBytesTo
p1040
tp1041
a(Vinsert
p1042
I42
VSimpleName: testIndexOf_arrayTarget
p1043
tp1044
a(Vinsert
p1045
I42
VSimpleName: isEnum
p1046
tp1047
a(Vinsert
p1048
I42
VSimpleName: toImmutableMultiset
p1049
tp1050
a(Vinsert
p1051
I42
VSimpleName: difference
p1052
tp1053
a(Vinsert
p1054
I42
VSimpleName: treeValue
p1055
tp1056
a(Vinsert
p1057
I42
VSimpleName: newLinkedHashMap
p1058
tp1059
a(Vinsert
p1060
I42
VSimpleName: item
p1061
tp1062
a(Vinsert
p1063
I42
VSimpleName: defaultReadObject
p1064
tp1065
a(Vinsert
p1066
I42
VSimpleName: newConcurrentMap
p1067
tp1068
a(Vinsert
p1069
I42
VSimpleName: testEncloseAll_nullValue
p1070
tp1071
a(Vinsert
p1072
I42
VSimpleName: paddedPartition
p1073
tp1074
a(Vinsert
p1075
I42
VSimpleName: assertNull
p1076
tp1077
a(Vinsert
p1078
I42
VSimpleName: checkNonNegative
p1079
tp1080
a(Vinsert
p1081
I42
VSimpleName: testTrueFirst
p1082
tp1083
a(Vinsert
p1084
I42
VSimpleName: numberOfTrailingZeros
p1085
tp1086
a(Vinsert
p1087
I42
VSimpleName: checkPositionIndexes
p1088
tp1089
a(Vinsert
p1090
I42
VSimpleName: reset
p1091
tp1092
a(Vinsert
p1093
I42
VSimpleName: inEdges
p1094
tp1095
a(Vinsert
p1096
I42
VSimpleName: listIterator
p1097
tp1098
a(Vinsert
p1099
I42
VSimpleName: schedule
p1100
tp1101
a(Vinsert
p1102
I42
VSimpleName: asByteSink
p1103
tp1104
a(Vinsert
p1105
I42
VSimpleName: withRefreshes
p1106
tp1107
a(Vinsert
p1108
I42
VSimpleName: builder
p1109
tp1110
a(Vinsert
p1111
I42
VSimpleName: testKeysSpliterator
p1112
tp1113
a(Vinsert
p1114
I42
VSimpleName: sleep
p1115
tp1116
a(Vinsert
p1117
I42
VSimpleName: isEmpty
p1118
tp1119
a(Vinsert
p1120
I42
VSimpleName: drainRecencyQueues
p1121
tp1122
a(Vinsert
p1123
I42
VSimpleName: keyOrNull
p1124
tp1125
a(Vinsert
p1126
I42
VSimpleName: usingJdkPatternCompiler
p1127
tp1128
a(Vinsert
p1129
I42
VSimpleName: hasSameComparator
p1130
tp1131
a(Vinsert
p1132
I42
VSimpleName: newHashSetWithExpectedSize
p1133
tp1134
a(Vinsert
p1135
I42
VSimpleName: removeAllImpl
p1136
tp1137
a(Vinsert
p1138
I42
VSimpleName: getOwnerType
p1139
tp1140
a(Vinsert
p1141
I42
VSimpleName: testIntersection
p1142
tp1143
a(Vinsert
p1144
I42
VSimpleName: allowsParallelEdges
p1145
tp1146
a(Vinsert
p1147
I42
VSimpleName: testDoubler
p1148
tp1149
a(Vinsert
p1150
I42
VSimpleName: transformEntries
p1151
tp1152
a(Vinsert
p1153
I42
VSimpleName: putLong
p1154
tp1155
a(Vinsert
p1156
I42
VSimpleName: retainAllImpl
p1157
tp1158
a(Vinsert
p1159
I42
VSimpleName: isNull
p1160
tp1161
a(Vinsert
p1162
I42
VSimpleName: expireAfterAccess
p1163
tp1164
a(Vinsert
p1165
I42
VSimpleName: getInnerGenerator
p1166
tp1167
a(Vinsert
p1168
I42
VSimpleName: testEntrySet
p1169
tp1170
a(Vinsert
p1171
I42
VSimpleName: setAccessible
p1172
tp1173
a(Vinsert
p1174
I42
VSimpleName: lines
p1175
tp1176
a(Vinsert
p1177
I42
VSimpleName: ignoreClasses
p1178
tp1179
a(Vinsert
p1180
I42
VSimpleName: parent
p1181
tp1182
a(Vinsert
p1183
I42
VSimpleName: testToMultisetCountFunction
p1184
tp1185
a(Vinsert
p1186
I42
VSimpleName: immutableEntry
p1187
tp1188
a(Vinsert
p1189
I42
VSimpleName: isSynthetic
p1190
tp1191
a(Vinsert
p1192
I42
VSimpleName: immutableEnumMap
p1193
tp1194
a(Vinsert
p1195
I42
VSimpleName: enterWhenUninterruptibly
p1196
tp1197
a(Vinsert
p1198
I42
VSimpleName: not
p1199
tp1200
a(Vinsert
p1201
I42
VSimpleName: constrainedMultimap
p1202
tp1203
a(Vinsert
p1204
I42
VSimpleName: count
p1205
tp1206
a(Vinsert
p1207
I42
VSimpleName: rowKeySet
p1208
tp1209
a(Vinsert
p1210
I42
VSimpleName: predecessors
p1211
tp1212
a(Vinsert
p1213
I42
VSimpleName: testMapEntrySetContainsNefariousEntry
p1214
tp1215
a(Vinsert
p1216
I42
VSimpleName: checkValidState
p1217
tp1218
a(Vinsert
p1219
I42
VSimpleName: writeLock
p1220
tp1221
a(Vinsert
p1222
I42
VSimpleName: testComparator
p1223
tp1224
a(Vinsert
p1225
I42
VSimpleName: testHeadMapEntrySet
p1226
tp1227
a(Vinsert
p1228
I42
VSimpleName: accumulator
p1229
tp1230
a(Vinsert
p1231
I42
VSimpleName: floorEntry
p1232
tp1233
a(Vinsert
p1234
I42
VSimpleName: getDigestLength
p1235
tp1236
a(Vinsert
p1237
I42
VSimpleName: inDegree
p1238
tp1239
a(Vinsert
p1240
I42
VSimpleName: fill
p1241
tp1242
a(Vinsert
p1243
I42
VSimpleName: testHashCode
p1244
tp1245
a(Vinsert
p1246
I42
VSimpleName: lengthIfKnown
p1247
tp1248
a(Vinsert
p1249
I42
VSimpleName: asRanges
p1250
tp1251
a(Vinsert
p1252
I42
VSimpleName: testSerialization_from
p1253
tp1254
a(Vinsert
p1255
I42
VSimpleName: funnel
p1256
tp1257
a(Vinsert
p1258
I42
VSimpleName: minusRange
p1259
tp1260
a(Vinsert
p1261
I42
VSimpleName: testSortedCopyOf_natural_empty
p1262
tp1263
a(Vinsert
p1264
I42
VSimpleName: expectCollects
p1265
tp1266
a(Vinsert
p1267
I42
VSimpleName: newThread
p1268
tp1269
a(Vinsert
p1270
I42
VSimpleName: fromString
p1271
tp1272
a(Vinsert
p1273
I42
VSimpleName: notifyFailed
p1274
tp1275
a(Vinsert
p1276
I42
VSimpleName: adjacentNodes
p1277
tp1278
a(Vinsert
p1279
I42
VSimpleName: testFromStringUnusedDefaultPort
p1280
tp1281
a(Vinsert
p1282
I42
VSimpleName: publicSuffix
p1283
tp1284
a(Vinsert
p1285
I42
VSimpleName: removeExactly
p1286
tp1287
a(Vinsert
p1288
I42
VSimpleName: onClose
p1289
tp1290
a(Vinsert
p1291
I42
VSimpleName: isTerminal
p1292
tp1293
a(Vinsert
p1294
I42
VSimpleName: getAndAdd
p1295
tp1296
a(Vinsert
p1297
I42
VSimpleName: testLowerUnderscoreToLowerHyphen
p1298
tp1299
a(Vinsert
p1300
I42
VSimpleName: parse
p1301
tp1302
a(Vinsert
p1303
I42
VSimpleName: lift
p1304
tp1305
a(Vinsert
p1306
I42
VSimpleName: outEdges
p1307
tp1308
a(Vinsert
p1309
I42
VSimpleName: isPrime
p1310
tp1311
a(Vinsert
p1312
I42
VSimpleName: acquire
p1313
tp1314
a(Vinsert
p1315
I42
VSimpleName: createStarted
p1316
tp1317
a(Vinsert
p1318
I42
VSimpleName: testXmlAttributeEscaper
p1319
tp1320
a(Vinsert
p1321
I42
VSimpleName: all
p1322
tp1323
a(Vinsert
p1324
I42
VSimpleName: headMap
p1325
tp1326
a(Vinsert
p1327
I42
VSimpleName: getInstance
p1328
tp1329
a(Vinsert
p1330
I42
VSimpleName: binarySearch
p1331
tp1332
a(Vinsert
p1333
I42
VSimpleName: splitToList
p1334
tp1335
a(Vinsert
p1336
I42
VSimpleName: addEscapes
p1337
tp1338
a(Vinsert
p1339
I42
VSimpleName: isEqualTo
p1340
tp1341
a(Vinsert
p1342
I42
VSimpleName: forEach
p1343
tp1344
a(Vinsert
p1345
I42
VSimpleName: testNewHashSetFromCollection
p1346
tp1347
a(Vinsert
p1348
I42
VSimpleName: asUnsigned
p1349
tp1350
a(Vinsert
p1351
I42
VSimpleName: allowsSelfLoops
p1352
tp1353
a(Vinsert
p1354
I42
VSimpleName: assertTrue
p1355
tp1356
a(Vinsert
p1357
I42
VSimpleName: gcd
p1358
tp1359
a(Vinsert
p1360
I42
VSimpleName: range
p1361
tp1362
a(Vinsert
p1363
I42
VSimpleName: crc32
p1364
tp1365
a(Vinsert
p1366
I42
VSimpleName: failureCause
p1367
tp1368
a(Vinsert
p1369
I42
VSimpleName: testLeastOfIterable_simple_n
p1370
tp1371
a(Vinsert
p1372
I42
VSimpleName: getHashFunction
p1373
tp1374
a(Vinsert
p1375
I42
VSimpleName: arraysCopyOf
p1376
tp1377
a(Vinsert
p1378
I42
VSimpleName: isOrdered
p1379
tp1380
a(Vinsert
p1381
I42
VSimpleName: cancellationExceptionWithCause
p1382
tp1383
a(Vinsert
p1384
I42
VSimpleName: leave
p1385
tp1386
a(Vinsert
p1387
I42
VSimpleName: deque
p1388
tp1389
a(Vinsert
p1390
I42
VSimpleName: mutationResult
p1391
tp1392
a(Vinsert
p1393
I42
VSimpleName: isSameAs
p1394
tp1395
a(Vinsert
p1396
I42
VSimpleName: offer
p1397
tp1398
a(Vinsert
p1399
I42
VSimpleName: e1
p1400
tp1401
a(Vinsert
p1402
I42
VSimpleName: getTicker
p1403
tp1404
a(Vinsert
p1405
I42
VSimpleName: linkedHashKeys
p1406
tp1407
a(Vinsert
p1408
I42
VSimpleName: testCreateEmptyWithoutClassFails
p1409
tp1410
a(Vinsert
p1411
I42
VSimpleName: doubleValue
p1412
tp1413
a(Vinsert
p1414
I42
VSimpleName: navigableKeySet
p1415
tp1416
a(Vinsert
p1417
I42
VSimpleName: testEvictingAfterThree
p1418
tp1419
a(Vinsert
p1420
I42
VSimpleName: initCause
p1421
tp1422
a(Vinsert
p1423
I42
VSimpleName: toChars
p1424
tp1425
a(Vinsert
p1426
I42
VSimpleName: flushQuietly
p1427
tp1428
a(Vinsert
p1429
I42
VSimpleName: checkValue
p1430
tp1431
a(Vinsert
p1432
I42
VSimpleName: nodeV
p1433
tp1434
a(Vinsert
p1435
I42
VSimpleName: pollLastEntry
p1436
tp1437
a(Vinsert
p1438
I42
VSimpleName: isAnnotationPresent
p1439
tp1440
a(Vinsert
p1441
I42
VSimpleName: keyStrength
p1442
tp1443
a(Vinsert
p1444
I42
VSimpleName: forBoolean
p1445
tp1446
a(Vinsert
p1447
I42
VSimpleName: openStream
p1448
tp1449
a(Vinsert
p1450
I42
VSimpleName: cellSet
p1451
tp1452
a(Vinsert
p1453
I42
VSimpleName: hasMessageThat
p1454
tp1455
a(Vinsert
p1456
I42
VSimpleName: toArray
p1457
tp1458
a(Vinsert
p1459
I42
VSimpleName: getProperties
p1460
tp1461
a(Vinsert
p1462
I42
VSimpleName: shortValue
p1463
tp1464
a(Vinsert
p1465
I42
VSimpleName: toTable
p1466
tp1467
a(Vinsert
p1468
I42
VSimpleName: getParameterTypes
p1469
tp1470
a(Vinsert
p1471
I42
VSimpleName: containsKey
p1472
tp1473
a(Vinsert
p1474
I42
VSimpleName: isDone
p1475
tp1476
a(Vinsert
p1477
I42
VSimpleName: testPeekOnEmptyList
p1478
tp1479
a(Vinsert
p1480
I42
VSimpleName: firstKey
p1481
tp1482
a(Vinsert
p1483
I42
VSimpleName: keySet
p1484
tp1485
a(Vinsert
p1486
I42
VSimpleName: addCallback
p1487
tp1488
a(Vinsert
p1489
I42
VSimpleName: isSupplementaryCodePoint
p1490
tp1491
a(Vinsert
p1492
I42
VSimpleName: addLast
p1493
tp1494
a(Vinsert
p1495
I42
VSimpleName: mergeSorted
p1496
tp1497
a(Vinsert
p1498
I42
VSimpleName: expandedCapacity
p1499
tp1500
a(Vinsert
p1501
I42
VSimpleName: append
p1502
tp1503
a(Vinsert
p1504
I42
VSimpleName: toImmutableRangeMap
p1505
tp1506
a(Vinsert
p1507
I42
VSimpleName: e3
p1508
tp1509
a(Vinsert
p1510
I42
VSimpleName: keyType
p1511
tp1512
a(Vinsert
p1513
I42
VSimpleName: getPackageName
p1514
tp1515
a(Vinsert
p1516
I42
VSimpleName: fromCode
p1517
tp1518
a(Vinsert
p1519
I42
VSimpleName: awaitUninterruptibly
p1520
tp1521
a(Vinsert
p1522
I42
VSimpleName: swap
p1523
tp1524
a(Vinsert
p1525
I42
VSimpleName: pattern
p1526
tp1527
a(Vinsert
p1528
I42
VSimpleName: execute
p1529
tp1530
a(Vinsert
p1531
I42
VSimpleName: samples
p1532
tp1533
a(Vinsert
p1534
I42
VSimpleName: testMap
p1535
tp1536
a(Vinsert
p1537
I42
VSimpleName: exhaust
p1538
tp1539
a(Vinsert
p1540
I42
VSimpleName: newCopyOnWriteArraySet
p1541
tp1542
a(Vinsert
p1543
I42
VSimpleName: biMap
p1544
tp1545
a(Vinsert
p1546
I42
VSimpleName: testPadEnd_null
p1547
tp1548
a(Vinsert
p1549
I42
VSimpleName: length
p1550
tp1551
a(Vinsert
p1552
I42
VSimpleName: asValueToValueFunction
p1553
tp1554
a(Vinsert
p1555
I42
VSimpleName: cartesianProduct
p1556
tp1557
a(Vinsert
p1558
I42
VSimpleName: testMinus
p1559
tp1560
a(Vinsert
p1561
I42
VSimpleName: testNullsBeforeB
p1562
tp1563
a(Vinsert
p1564
I42
VSimpleName: ensureCapacity
p1565
tp1566
a(Vinsert
p1567
I42
VSimpleName: typeName
p1568
tp1569
a(Vinsert
p1570
I42
VSimpleName: collectingAndThen
p1571
tp1572
a(Vinsert
p1573
I42
VSimpleName: getFields
p1574
tp1575
a(Vinsert
p1576
I42
VSimpleName: parallelEdges
p1577
tp1578
a(Vinsert
p1579
I42
VSimpleName: isAtMost
p1580
tp1581
a(Vinsert
p1582
I42
VSimpleName: smearedHash
p1583
tp1584
a(Vinsert
p1585
I42
VSimpleName: getMethod
p1586
tp1587
a(Vinsert
p1588
I42
VSimpleName: reverseOrder
p1589
tp1590
a(Vinsert
p1591
I42
VSimpleName: unmodifiableEntry
p1592
tp1593
a(Vinsert
p1594
I42
VSimpleName: unmodifiableSortedSet
p1595
tp1596
a(Vinsert
p1597
I42
VSimpleName: compile
p1598
tp1599
a(Vinsert
p1600
I42
VSimpleName: tryLock
p1601
tp1602
a(Vinsert
p1603
I42
VSimpleName: testNewLinkedListFromIterable
p1604
tp1605
a(Vinsert
p1606
I42
VSimpleName: incidentEdges
p1607
tp1608
a(Vinsert
p1609
I42
VSimpleName: toStringImpl
p1610
tp1611
a(Vinsert
p1612
I42
VSimpleName: join
p1613
tp1614
a(Vinsert
p1615
I42
VSimpleName: clearProperty
p1616
tp1617
a(Vinsert
p1618
I42
VSimpleName: onRemoval
p1619
tp1620
a(Vinsert
p1621
I42
VSimpleName: getTypeParameters
p1622
tp1623
a(Vinsert
p1624
I42
VSimpleName: closedOpen
p1625
tp1626
a(Vinsert
p1627
I42
VSimpleName: format
p1628
tp1629
a(Vinsert
p1630
I42
VSimpleName: integers
p1631
tp1632
a(Vinsert
p1633
I42
VSimpleName: testConstrainedMultisetLegal
p1634
tp1635
a(Vinsert
p1636
I42
VSimpleName: indexOfImpl
p1637
tp1638
a(Vinsert
p1639
I42
VSimpleName: isNaN
p1640
tp1641
a(Vinsert
p1642
I42
VSimpleName: defaultWriteObject
p1643
tp1644
a(Vinsert
p1645
I42
VSimpleName: testFrom_one
p1646
tp1647
a(Vinsert
p1648
I42
VSimpleName: murmur3_128
p1649
tp1650
a(Vinsert
p1651
I42
VSimpleName: refreshInterval
p1652
tp1653
a(Vinsert
p1654
I42
VSimpleName: testHashCodeNull
p1655
tp1656
a(Vinsert
p1657
I42
VSimpleName: testTransformAsync_genericsHierarchy_AsyncFunction
p1658
tp1659
a(Vinsert
p1660
I42
VSimpleName: newCondition
p1661
tp1662
a(Vinsert
p1663
I42
VSimpleName: backingMap
p1664
tp1665
a(Vinsert
p1666
I42
VSimpleName: upperCase
p1667
tp1668
a(Vinsert
p1669
I42
VSimpleName: convert
p1670
tp1671
a(Vinsert
p1672
I42
VSimpleName: testBuilderInitialStateNoReplacement
p1673
tp1674
a(Vinsert
p1675
I42
VSimpleName: start
p1676
tp1677
a(Vinsert
p1678
I42
VSimpleName: await
p1679
tp1680
a(Vinsert
p1681
I42
VSimpleName: getRawType
p1682
tp1683
a(Vinsert
p1684
I42
VSimpleName: describeAsUpperBound
p1685
tp1686
a(Vinsert
p1687
I42
VSimpleName: testRandomAddsAndRemoves_duplicateElements
p1688
tp1689
a(Vinsert
p1690
I42
VSimpleName: unmodifiableRowSortedTable
p1691
tp1692
a(Vinsert
p1693
I42
VSimpleName: charactersOf
p1694
tp1695
a(Vinsert
p1696
I42
VSimpleName: registrySuffix
p1697
tp1698
a(Vinsert
p1699
I42
VSimpleName: hasLength
p1700
tp1701
a(Vinsert
p1702
I42
VSimpleName: getUninterruptibly
p1703
tp1704
a(Vinsert
p1705
I42
VSimpleName: getBalancePolicy
p1706
tp1707
a(Vinsert
p1708
I42
VSimpleName: testAsConverter_toString
p1709
tp1710
a(Vinsert
p1711
I42
VSimpleName: log10
p1712
tp1713
a(Vinsert
p1714
I42
VSimpleName: checkRemove
p1715
tp1716
a(Vinsert
p1717
I42
VSimpleName: testIteratesOnce
p1718
tp1719
a(Vinsert
p1720
I42
VSimpleName: nonChainingCall
p1721
tp1722
a(Vinsert
p1723
I42
VSimpleName: transformEntriesIgnoreNavigable
p1724
tp1725
a(Vinsert
p1726
I42
VSimpleName: emptyIterator
p1727
tp1728
a(Vinsert
p1729
I42
VSimpleName: synchronizedNavigableSet
p1730
tp1731
a(Vinsert
p1732
I42
VSimpleName: toCharArray
p1733
tp1734
a(Vinsert
p1735
I42
VSimpleName: newFastestDeque
p1736
tp1737
a(Vinsert
p1738
I42
VSimpleName: tailMap
p1739
tp1740
a(Vinsert
p1741
I42
VSimpleName: hasContentsInOrder
p1742
tp1743
a(Vinsert
p1744
I42
VSimpleName: unsafeArrayCopy
p1745
tp1746
a(Vinsert
p1747
I42
VSimpleName: forNaN
p1748
tp1749
a(Vinsert
p1750
I42
VSimpleName: htmlContentEscaper
p1751
tp1752
a(Vinsert
p1753
I42
VSimpleName: create
p1754
tp1755
a(Vinsert
p1756
I42
VSimpleName: getEvents
p1757
tp1758
a(Vinsert
p1759
I42
VSimpleName: equivalent
p1760
tp1761
a(Vinsert
p1762
I42
VSimpleName: immutableSortedCopy
p1763
tp1764
a(Vinsert
p1765
I42
VSimpleName: isPartialView
p1766
tp1767
a(Vinsert
p1768
I42
VSimpleName: equalsImpl
p1769
tp1770
a(Vinsert
p1771
I42
VSimpleName: implies
p1772
tp1773
a(Vinsert
p1774
I42
VSimpleName: supertypeOf
p1775
tp1776
a(Vinsert
p1777
I42
VSimpleName: testFromFluentFuture
p1778
tp1779
a(Vinsert
p1780
I42
VSimpleName: containsRow
p1781
tp1782
a(Vinsert
p1783
I42
VSimpleName: identityHashCode
p1784
tp1785
a(Vinsert
p1786
I42
VSimpleName: directed
p1787
tp1788
a(Vinsert
p1789
I42
VSimpleName: call
p1790
tp1791
a(Vinsert
p1792
I42
VSimpleName: accept
p1793
tp1794
a(Vinsert
p1795
I42
VSimpleName: offerAll
p1796
tp1797
a(Vinsert
p1798
I42
VSimpleName: incidentNodes
p1799
tp1800
a(Vinsert
p1801
I42
VSimpleName: setNameFormat
p1802
tp1803
a(Vinsert
p1804
I42
VSimpleName: putByte
p1805
tp1806
a(Vinsert
p1807
I42
VSimpleName: immediateFuture
p1808
tp1809
a(Vinsert
p1810
I42
VSimpleName: signum
p1811
tp1812
a(Vinsert
p1813
I42
VSimpleName: of
p1814
tp1815
a(Vinsert
p1816
I42
VSimpleName: hasPrefix
p1817
tp1818
a(Vinsert
p1819
I42
VSimpleName: e4
p1820
tp1821
a(Vinsert
p1822
I42
VSimpleName: skip
p1823
tp1824
a(Vinsert
p1825
I42
VSimpleName: toMillis
p1826
tp1827
a(Vinsert
p1828
I42
VSimpleName: classes
p1829
tp1830
a(Vinsert
p1831
I42
VSimpleName: unmodifiableSortedMap
p1832
tp1833
a(Vinsert
p1834
I42
VSimpleName: is
p1835
tp1836
a(Vinsert
p1837
I42
VSimpleName: empty
p1838
tp1839
a(Vinsert
p1840
I42
VSimpleName: log2
p1841
tp1842
a(Vinsert
p1843
I42
VSimpleName: mapping
p1844
tp1845
a(Vinsert
p1846
I42
VSimpleName: subRangeMap
p1847
tp1848
a(Vinsert
p1849
I42
VSimpleName: collectionIteratorTesterNumIterations
p1850
tp1851
a(Vinsert
p1852
I42
VSimpleName: element
p1853
tp1854
a(Vinsert
p1855
I42
VSimpleName: parallelStream
p1856
tp1857
a(Vinsert
p1858
I42
VSimpleName: serialize
p1859
tp1860
a(Vinsert
p1861
I42
VSimpleName: encodedLength
p1862
tp1863
a(Vinsert
p1864
I42
VSimpleName: load
p1865
tp1866
a(Vinsert
p1867
I42
VSimpleName: testPutWithForbiddenKeyAllowedValue
p1868
tp1869
a(Vinsert
p1870
I42
VSimpleName: toURI
p1871
tp1872
a(Vinsert
p1873
I42
VSimpleName: isTerminated
p1874
tp1875
a(Vinsert
p1876
I42
VSimpleName: forEachEntry
p1877
tp1878
a(Vinsert
p1879
I42
VSimpleName: getQueue
p1880
tp1881
a(Vinsert
p1882
I42
VSimpleName: lexicographicalComparatorJavaImpl
p1883
tp1884
a(Vinsert
p1885
I42
VSimpleName: testIndexOf_withDuplicates
p1886
tp1887
a(Vinsert
p1888
I42
VSimpleName: allFrom
p1889
tp1890
a(Vinsert
p1891
I42
VSimpleName: substring
p1892
tp1893
a(Vinsert
p1894
I42
VSimpleName: roundToBigInteger
p1895
tp1896
a(Vinsert
p1897
I42
VSimpleName: copyToSet
p1898
tp1899
a(Vinsert
p1900
I42
VSimpleName: putBytes
p1901
tp1902
a(Vinsert
p1903
I42
VSimpleName: testEmptyImmutableEnumMap
p1904
tp1905
a(Vinsert
p1906
I42
VSimpleName: newLinkedHashSetWithExpectedSize
p1907
tp1908
a(Vinsert
p1909
I42
VSimpleName: orderEntriesByValue
p1910
tp1911
a(Vinsert
p1912
I42
VSimpleName: lessThanBranchFree
p1913
tp1914
a(Vinsert
p1915
I42
VSimpleName: values
p1916
tp1917
a(Vinsert
p1918
I42
VSimpleName: newHashMapWithExpectedSize
p1919
tp1920
a(Vinsert
p1921
I42
VSimpleName: asDescendingSetOfRanges
p1922
tp1923
a(Vinsert
p1924
I42
VSimpleName: addNode
p1925
tp1926
a(Vinsert
p1927
I42
VSimpleName: fromEntryArray
p1928
tp1929
a(Vinsert
p1930
I42
VSimpleName: getIfPresent
p1931
tp1932
a(Vinsert
p1933
I42
VSimpleName: compareAndSet
p1934
tp1935
a(Vinsert
p1936
I42
VSimpleName: removeOccurrences
p1937
tp1938
a(Vinsert
p1939
I42
VSimpleName: testMapLength
p1940
tp1941
a(Vinsert
p1942
I42
VSimpleName: setNextExpirable
p1943
tp1944
a(Vinsert
p1945
I42
VSimpleName: isIPv4CompatibleAddress
p1946
tp1947
a(Vinsert
p1948
I42
VSimpleName: removeNode
p1949
tp1950
a(Vinsert
p1951
I42
VSimpleName: isFalse
p1952
tp1953
a(Vinsert
p1954
I42
VSimpleName: getConstructor
p1955
tp1956
a(Vinsert
p1957
I42
VSimpleName: exit
p1958
tp1959
a(Vinsert
p1960
I42
VSimpleName: isDirectory
p1961
tp1962
a(Vinsert
p1963
I42
VSimpleName: union
p1964
tp1965
a(Vinsert
p1966
I42
VSimpleName: newWeakInterner
p1967
tp1968
a(Vinsert
p1969
I42
VSimpleName: ascii
p1970
tp1971
a(Vinsert
p1972
I42
VSimpleName: setException
p1973
tp1974
a(Vinsert
p1975
I42
VSimpleName: tryAdvance
p1976
tp1977
a(Vinsert
p1978
I42
VSimpleName: getDeclaringClass
p1979
tp1980
a(Vinsert
p1981
I42
VSimpleName: correctedDoForward
p1982
tp1983
a(Vinsert
p1984
I42
VSimpleName: removeAll
p1985
tp1986
a(Vinsert
p1987
I42
VSimpleName: getName
p1988
tp1989
a(Vinsert
p1990
I42
VSimpleName: toImmutableBiMap
p1991
tp1992
a(Vinsert
p1993
I42
VSimpleName: clone
p1994
tp1995
a(Vinsert
p1996
I42
VSimpleName: asMapOfRanges
p1997
tp1998
a(Vinsert
p1999
I42
VSimpleName: indexed
p2000
tp2001
a(Vinsert
p2002
I42
VSimpleName: missCount
p2003
tp2004
a(Vinsert
p2005
I42
VSimpleName: testTryParse
p2006
tp2007
a(Vinsert
p2008
I42
VSimpleName: node1
p2009
tp2010
a(Vinsert
p2011
I42
VSimpleName: edgeValues
p2012
tp2013
a(Vinsert
p2014
I42
VSimpleName: getOnlyElement
p2015
tp2016
a(Vinsert
p2017
I42
VSimpleName: isSatisfied
p2018
tp2019
a(Vinsert
p2020
I42
VSimpleName: isBridge
p2021
tp2022
a(Vinsert
p2023
I42
VSimpleName: testToImmutableEnumSetEmpty
p2024
tp2025
a(Vinsert
p2026
I42
VSimpleName: testToString
p2027
tp2028
a(Vinsert
p2029
I42
VSimpleName: stringConverter
p2030
tp2031
a(Vinsert
p2032
I42
VSimpleName: asByteSource
p2033
tp2034
a(Vinsert
p2035
I42
VSimpleName: toByteArray
p2036
tp2037
a(Vinsert
p2038
I42
VSimpleName: instantiate
p2039
tp2040
a(Vinsert
p2041
I42
VSimpleName: getLevel
p2042
tp2043
a(Vinsert
p2044
I42
VSimpleName: hasEdge
p2045
tp2046
a(Vinsert
p2047
I42
VSimpleName: getLast
p2048
tp2049
a(Vinsert
p2050
I42
VSimpleName: immediateFailedFuture
p2051
tp2052
a(Vinsert
p2053
I42
VSimpleName: childOrNull
p2054
tp2055
a(Vinsert
p2056
I42
VSimpleName: urlByteSourceFactory
p2057
tp2058
a(Vinsert
p2059
I42
VSimpleName: sleepMillis
p2060
tp2061
a(Vinsert
p2062
I42
VSimpleName: rowComparator
p2063
tp2064
a(Vinsert
p2065
I42
VSimpleName: isHealthy
p2066
tp2067
a(Vinsert
p2068
I42
VSimpleName: testSameThreadExecutionException
p2069
tp2070
a(Vinsert
p2071
I42
VSimpleName: suppressing
p2072
tp2073
a(Vinsert
p2074
I42
VSimpleName: testMissingException
p2075
tp2076
a(Vinsert
p2077
I42
VSimpleName: emptyMap
p2078
tp2079
a(Vinsert
p2080
I42
VSimpleName: powerSet
p2081
tp2082
a(Vinsert
p2083
I42
VSimpleName: forEachPair
p2084
tp2085
a(Vinsert
p2086
I42
VSimpleName: callAsync
p2087
tp2088
a(Vinsert
p2089
I42
VSimpleName: andThen
p2090
tp2091
a(Vinsert
p2092
I42
VSimpleName: fromByteArray
p2093
tp2094
a(Vinsert
p2095
I42
VSimpleName: referenceValue
p2096
tp2097
a(Vinsert
p2098
I42
VSimpleName: testKeySetRemoveAll
p2099
tp2100
a(Vinsert
p2101
I42
VSimpleName: testIn_handlesNullPointerException
p2102
tp2103
a(Vinsert
p2104
I42
VSimpleName: toMicros
p2105
tp2106
a(Vinsert
p2107
I42
VSimpleName: getServer
p2108
tp2109
a(Vinsert
p2110
I42
VSimpleName: getModifiers
p2111
tp2112
a(Vinsert
p2113
I42
VSimpleName: testCompareBooleans
p2114
tp2115
a(Vinsert
p2116
I42
VSimpleName: entryValue
p2117
tp2118
a(Vinsert
p2119
I42
VSimpleName: valueIterator
p2120
tp2121
a(Vinsert
p2122
I42
VSimpleName: digit
p2123
tp2124
a(Vinsert
p2125
I42
VSimpleName: getResource
p2126
tp2127
a(Vinsert
p2128
I42
VSimpleName: segmentFor
p2129
tp2130
a(Vinsert
p2131
I42
VSimpleName: recordWrite
p2132
tp2133
a(Vinsert
p2134
I42
VSimpleName: testEncloses_open
p2135
tp2136
a(Vinsert
p2137
I42
VSimpleName: testUrlFragmentEscaper
p2138
tp2139
a(Vinsert
p2140
I42
VSimpleName: sameThreadExecutor
p2141
tp2142
a(Vinsert
p2143
I42
VSimpleName: prefixOrNull
p2144
tp2145
a(Vinsert
p2146
I42
VSimpleName: putChar
p2147
tp2148
a(Vinsert
p2149
I42
VSimpleName: setBit
p2150
tp2151
a(Vinsert
p2152
I42
VSimpleName: testNewBuilder
p2153
tp2154
a(Vinsert
p2155
I42
VSimpleName: createArray
p2156
tp2157
a(Vinsert
p2158
I42
VSimpleName: longBitsToDouble
p2159
tp2160
a(Vinsert
p2161
I42
VSimpleName: testBuilder_withImmutableEntry
p2162
tp2163
a(Vinsert
p2164
I42
VSimpleName: newFastestQueue
p2165
tp2166
a(Vinsert
p2167
I42
VSimpleName: testToJavaUtil
p2168
tp2169
a(Vinsert
p2170
I42
VSimpleName: named
p2171
tp2172
a(Vinsert
p2173
I42
VSimpleName: shiftRight
p2174
tp2175
a(Vinsert
p2176
I42
VSimpleName: toMinutes
p2177
tp2178
a(Vinsert
p2179
I42
VSimpleName: unmodifiableList
p2180
tp2181
a(Vinsert
p2182
I42
VSimpleName: getSystemClassLoader
p2183
tp2184
a(Vinsert
p2185
I42
VSimpleName: descendingIterator
p2186
tp2187
a(Vinsert
p2188
I42
VSimpleName: copyIntoArray
p2189
tp2190
a(Vinsert
p2191
I42
VSimpleName: forString
p2192
tp2193
a(Vinsert
p2194
I42
VSimpleName: binomial
p2195
tp2196
a(Vinsert
p2197
I42
VSimpleName: available
p2198
tp2199
a(Vinsert
p2200
I42
VSimpleName: singletonMap
p2201
tp2202
a(Vinsert
p2203
I42
VSimpleName: testHtmlEscaper
p2204
tp2205
a(Vinsert
p2206
I42
VSimpleName: testToJavaUtil_static
p2207
tp2208
a(Vinsert
p2209
I42
VSimpleName: peek
p2210
tp2211
a(Vinsert
p2212
I42
VSimpleName: setValueReference
p2213
tp2214
a(Vinsert
p2215
I42
VSimpleName: partition
p2216
tp2217
a(Vinsert
p2218
I42
VSimpleName: newGuard
p2219
tp2220
a(Vinsert
p2221
I42
VSimpleName: testBiMapEntrySetIteratorRemove
p2222
tp2223
a(Vinsert
p2224
I42
VSimpleName: entrySet
p2225
tp2226
a(Vinsert
p2227
I42
VSimpleName: testRemoveIfZero
p2228
tp2229
a(Vinsert
p2230
I42
VSimpleName: asByteSourceFactory
p2231
tp2232
a(Vinsert
p2233
I42
VSimpleName: testToImmutableSetMultimap
p2234
tp2235
a(Vinsert
p2236
I42
VSimpleName: takeFirst
p2237
tp2238
a(Vinsert
p2239
I42
VSimpleName: that
p2240
tp2241
a(Vinsert
p2242
I42
VSimpleName: getDeclaredConstructors
p2243
tp2244
a(Vinsert
p2245
I42
VSimpleName: tests
p2246
tp2247
a(Vinsert
p2248
I42
VSimpleName: equalsIgnoreCase
p2249
tp2250
a(Vinsert
p2251
I42
VSimpleName: getWriteTime
p2252
tp2253
a(Vinsert
p2254
I42
VSimpleName: isComputingReference
p2255
tp2256
a(Vinsert
p2257
I42
VSimpleName: padding
p2258
tp2259
a(Vinsert
p2260
I42
VSimpleName: delete
p2261
tp2262
a(Vinsert
p2263
I42
VSimpleName: hasPort
p2264
tp2265
a(Vinsert
p2266
I42
VSimpleName: handleException
p2267
tp2268
a(Vinsert
p2269
I42
VSimpleName: lastIndexOfImpl
p2270
tp2271
a(Vinsert
p2272
I42
VSimpleName: filterSortedIgnoreNavigable
p2273
tp2274
a(Vinsert
p2275
I42
VSimpleName: wasStreamOpened
p2276
tp2277
a(Vinsert
p2278
I42
VSimpleName: addEdge
p2279
tp2280
a(Vinsert
p2281
I42
VSimpleName: testDefaultBehaviorOfPeekForEmptyIteration
p2282
tp2283
a(Vinsert
p2284
I42
VSimpleName: addTestSuite
p2285
tp2286
a(Vinsert
p2287
I42
VSimpleName: isTrue
p2288
tp2289
a(Vinsert
p2290
I42
VSimpleName: toInt
p2291
tp2292
a(Vinsert
p2293
I42
VSimpleName: testReverseIndexed
p2294
tp2295
a(Vinsert
p2296
I42
VSimpleName: testGetAndAdd
p2297
tp2298
a(Vinsert
p2299
I42
VSimpleName: testToImmutableMultisetCountFunction
p2300
tp2301
a(Vinsert
p2302
I42
VSimpleName: setThreadFactory
p2303
tp2304
a(Vinsert
p2305
I42
VSimpleName: merge
p2306
tp2307
a(Vinsert
p2308
I42
VSimpleName: weakKeys
p2309
tp2310
a(Vinsert
p2311
I42
VSimpleName: longFunnel
p2312
tp2313
a(Vinsert
p2314
I42
VSimpleName: testFloorPowerOfTwo
p2315
tp2316
a(Vinsert
p2317
I42
VSimpleName: decrementAndGetRemainingCount
p2318
tp2319
a(Vinsert
p2320
I42
VSimpleName: higher
p2321
tp2322
a(Vinsert
p2323
I42
VSimpleName: sipHash24
p2324
tp2325
a(Vinsert
p2326
I42
VSimpleName: testIncrementAndGet
p2327
tp2328
a(Vinsert
p2329
I42
VSimpleName: pollNext
p2330
tp2331
a(Vinsert
p2332
I42
VSimpleName: noneOf
p2333
tp2334
a(Vinsert
p2335
I42
VSimpleName: getExponent
p2336
tp2337
a(Vinsert
p2338
I42
VSimpleName: consumeTokenIfPresent
p2339
tp2340
a(Vinsert
p2341
I42
VSimpleName: indexOf
p2342
tp2343
a(Vinsert
p2344
I42
VSimpleName: isAssignable
p2345
tp2346
a(Vinsert
p2347
I42
VSimpleName: url
p2348
tp2349
a(Vinsert
p2350
I42
VSimpleName: testNopEscaper
p2351
tp2352
a(Vinsert
p2353
I42
VSimpleName: testToMultimap
p2354
tp2355
a(Vinsert
p2356
I42
VSimpleName: reserialize
p2357
tp2358
a(Vinsert
p2359
I42
VSimpleName: e0
p2360
tp2361
a(Vinsert
p2362
I42
VSimpleName: slice
p2363
tp2364
a(Vinsert
p2365
I42
VSimpleName: transformEntry
p2366
tp2367
a(Vinsert
p2368
I42
VSimpleName: useForNull
p2369
tp2370
a(Vinsert
p2371
I42
VSimpleName: doubleToRawLongBits
p2372
tp2373
a(Vinsert
p2374
I42
VSimpleName: createSink
p2375
tp2376
a(Vinsert
p2377
I42
VSimpleName: setTableEntryForTesting
p2378
tp2379
a(Vinsert
p2380
I42
VSimpleName: firstNonNull
p2381
tp2382
a(Vinsert
p2383
I42
VSimpleName: toStringHelper
p2384
tp2385
a(Vinsert
p2386
I42
VSimpleName: putEdge
p2387
tp2388
a(Vinsert
p2389
I42
VSimpleName: setFuture
p2390
tp2391
a(Vinsert
p2392
I42
VSimpleName: copyOf
p2393
tp2394
a(Vinsert
p2395
I42
VSimpleName: builderWithExpectedSize
p2396
tp2397
a(Vinsert
p2398
I42
VSimpleName: digest
p2399
tp2400
a(Vinsert
p2401
I42
VSimpleName: parseUnsignedByte
p2402
tp2403
a(Vinsert
p2404
I42
VSimpleName: stream
p2405
tp2406
a(Vinsert
p2407
I42
VSimpleName: reverse
p2408
tp2409
a(Vinsert
p2410
I42
VSimpleName: expectCall
p2411
tp2412
a(Vinsert
p2413
I42
VSimpleName: newReentrantLock
p2414
tp2415
a(Vinsert
p2416
I42
VSimpleName: putInt
p2417
tp2418
a(Vinsert
p2419
I42
VSimpleName: immediateCancelledFuture
p2420
tp2421
a(Vinsert
p2422
I42
VSimpleName: createTestSubject
p2423
tp2424
a(Vinsert
p2425
I42
VSimpleName: simulateKeyReclamation
p2426
tp2427
a(Vinsert
p2428
I42
VSimpleName: getClassName
p2429
tp2430
a(Vinsert
p2431
I42
VSimpleName: isAbsent
p2432
tp2433
a(Vinsert
p2434
I42
VSimpleName: postReadCleanup
p2435
tp2436
a(Vinsert
p2437
I42
VSimpleName: getBuffer
p2438
tp2439
a(Vinsert
p2440
I42
VSimpleName: testPending
p2441
tp2442
a(Vinsert
p2443
I42
VSimpleName: loadClass
p2444
tp2445
a(Vinsert
p2446
I42
VSimpleName: constrainedBiMap
p2447
tp2448
a(Vinsert
p2449
I42
VSimpleName: getKey
p2450
tp2451
a(Vinsert
p2452
I42
VSimpleName: asGraph
p2453
tp2454
a(Vinsert
p2455
I42
VSimpleName: stringIsNullOrEmpty
p2456
tp2457
a(Vinsert
p2458
I42
VSimpleName: removalListener
p2459
tp2460
a(Vinsert
p2461
I42
VSimpleName: outDegree
p2462
tp2463
a(Vinsert
p2464
I42
VSimpleName: needsResizing
p2465
tp2466
a(Vinsert
p2467
I42
VSimpleName: whenAllComplete
p2468
tp2469
a(Vinsert
p2470
I42
VSimpleName: delegateCollection
p2471
tp2472
a(Vinsert
p2473
I42
VSimpleName: nodeOrder
p2474
tp2475
a(Vinsert
p2476
I42
VSimpleName: testBinomialOutside
p2477
tp2478
a(Vinsert
p2479
I42
VSimpleName: offerFirst
p2480
tp2481
a(Vinsert
p2482
I42
VSimpleName: isInlineCleanup
p2483
tp2484
a(Vinsert
p2485
I42
VSimpleName: parameterIsPrimitiveOrNullable
p2486
tp2487
a(Vinsert
p2488
I42
VSimpleName: atMost
p2489
tp2490
a(Vinsert
p2491
I42
VSimpleName: readDouble
p2492
tp2493
a(Vinsert
p2494
I42
VSimpleName: hasCauseThat
p2495
tp2496
a(Vinsert
p2497
I42
VSimpleName: getTip
p2498
tp2499
a(Vinsert
p2500
I42
VSimpleName: getGenericSuperclass
p2501
tp2502
a(Vinsert
p2503
I42
VSimpleName: setDistinctValues
p2504
tp2505
a(Vinsert
p2506
I42
VSimpleName: unlock
p2507
tp2508
a(Vinsert
p2509
I42
VSimpleName: type
p2510
tp2511
a(Vinsert
p2512
I42
VSimpleName: subListImpl
p2513
tp2514
a(Vinsert
p2515
I42
VSimpleName: testSkipNulls
p2516
tp2517
a(Vinsert
p2518
I42
VSimpleName: remaining
p2519
tp2520
a(Vinsert
p2521
I42
VSimpleName: limit
p2522
tp2523
a(Vinsert
p2524
I42
VSimpleName: testConstrainToRange
p2525
tp2526
a(Vinsert
p2527
I42
VSimpleName: dispatch
p2528
tp2529
a(Vinsert
p2530
I42
VSimpleName: writeByte
p2531
tp2532
a(Vinsert
p2533
I42
VSimpleName: testEqualsObject
p2534
tp2535
a(Vinsert
p2536
I42
VSimpleName: insertion
p2537
tp2538
a(Vinsert
p2539
I42
VSimpleName: group
p2540
tp2541
a(Vinsert
p2542
I42
VSimpleName: capacity
p2543
tp2544
a(Vinsert
p2545
I42
VSimpleName: clear
p2546
tp2547
a(Vinsert
p2548
I42
VSimpleName: nullsFirst
p2549
tp2550
a(Vinsert
p2551
I42
VSimpleName: skipCollectionTests
p2552
tp2553
a(Vinsert
p2554
I42
VSimpleName: newTreeMap
p2555
tp2556
a(Vinsert
p2557
I42
VSimpleName: padEnd
p2558
tp2559
a(Vinsert
p2560
I42
VSimpleName: populationVariance
p2561
tp2562
a(Vinsert
p2563
I42
VSimpleName: getInstanceMethodsToTest
p2564
tp2565
a(Vinsert
p2566
I42
VSimpleName: newListMultimap
p2567
tp2568
a(Vinsert
p2569
I42
VSimpleName: testToImmutableList
p2570
tp2571
a(Vinsert
p2572
I42
VSimpleName: incrementBy
p2573
tp2574
a(Vinsert
p2575
I42
VSimpleName: testTryParse_withNullGwt
p2576
tp2577
a(Vinsert
p2578
I42
VSimpleName: executeAndCompare
p2579
tp2580
a(Vinsert
p2581
I42
VSimpleName: cacheSerializationProxy
p2582
tp2583
a(Vinsert
p2584
I42
VSimpleName: cas
p2585
tp2586
a(Vinsert
p2587
I42
VSimpleName: subtract
p2588
tp2589
a(Vinsert
p2590
I42
VSimpleName: testIndexOf
p2591
tp2592
a(Vinsert
p2593
I42
VSimpleName: headSet
p2594
tp2595
a(Vinsert
p2596
I42
VSimpleName: absent
p2597
tp2598
a(Vinsert
p2599
I42
VSimpleName: entryPredicate
p2600
tp2601
a(Vinsert
p2602
I42
VSimpleName: filter
p2603
tp2604
a(Vinsert
p2605
I42
VSimpleName: isVarArgs
p2606
tp2607
a(Vinsert
p2608
I42
VSimpleName: isInterface
p2609
tp2610
a(Vinsert
p2611
I42
VSimpleName: fromBytes
p2612
tp2613
a(Vinsert
p2614
I42
VSimpleName: testConverter_toString
p2615
tp2616
a(Vinsert
p2617
I42
VSimpleName: testFlatteningToMultimap
p2618
tp2619
a(Vinsert
p2620
I42
VSimpleName: fail
p2621
tp2622
a(Vinsert
p2623
I42
VSimpleName: toPrecision
p2624
tp2625
a(Vinsert
p2626
I42
VSimpleName: assertEqualIgnoringOrder
p2627
tp2628
a(Vinsert
p2629
I42
VSimpleName: testParent
p2630
tp2631
a(Vinsert
p2632
I42
VSimpleName: canTransitionTo
p2633
tp2634
a(Vinsert
p2635
I42
VSimpleName: ceilingPowerOfTwo
p2636
tp2637
a(Vinsert
p2638
I42
VSimpleName: treeKeys
p2639
tp2640
a(Vinsert
p2641
I42
VSimpleName: hasNext
p2642
tp2643
a(Vinsert
p2644
I42
VSimpleName: bitCount
p2645
tp2646
a(Vinsert
p2647
I42
VSimpleName: newStringBuilderForCollection
p2648
tp2649
a(Vinsert
p2650
I42
VSimpleName: iterator
p2651
tp2652
a(Vinsert
p2653
I42
VSimpleName: getPolicy
p2654
tp2655
a(Vinsert
p2656
I42
VSimpleName: testWhitespaceBreakingWhitespaceSubset
p2657
tp2658
a(Vinsert
p2659
I42
VSimpleName: tailMultiset
p2660
tp2661
a(Vinsert
p2662
I42
VSimpleName: newHashMap
p2663
tp2664
a(Vinsert
p2665
I42
VSimpleName: noOpScheduledExecutor
p2666
tp2667
a(Vinsert
p2668
I42
VSimpleName: getFeatures
p2669
tp2670
a(Vinsert
p2671
I42
VSimpleName: testParseIntWithRadixLimits
p2672
tp2673
a(Vinsert
p2674
I42
VSimpleName: allTests
p2675
tp2676
a(Vinsert
p2677
I42
VSimpleName: fuzzyEquals
p2678
tp2679
a(Vinsert
p2680
I42
VSimpleName: sortedCopy
p2681
tp2682
a(Vinsert
p2683
I42
VSimpleName: newHasher
p2684
tp2685
a(Vinsert
p2686
I42
VSimpleName: highestOneBit
p2687
tp2688
a(Vinsert
p2689
I42
VSimpleName: toString
p2690
tp2691
a(Vinsert
p2692
I42
VSimpleName: assertBasic
p2693
tp2694
a(Vinsert
p2695
I42
VSimpleName: addEscape
p2696
tp2697
a(Vinsert
p2698
I42
VSimpleName: entryOf
p2699
tp2700
a(Vinsert
p2701
I42
VSimpleName: inverse
p2702
tp2703
a(Vinsert
p2704
I42
VSimpleName: close
p2705
tp2706
a(Vinsert
p2707
I42
VSimpleName: testToImmutableMultiset_duplicates
p2708
tp2709
a(Vinsert
p2710
I42
VSimpleName: testWithDups
p2711
tp2712
a(Vinsert
p2713
I42
VSimpleName: getSubjectGenerator
p2714
tp2715
a(Vinsert
p2716
I42
VSimpleName: contains
p2717
tp2718
a(Vinsert
p2719
I42
VSimpleName: commonSuffix
p2720
tp2721
a(Vinsert
p2722
I42
VSimpleName: testManyEqual
p2723
tp2724
a(Vinsert
p2725
I42
VSimpleName: awaitRunning
p2726
tp2727
a(Vinsert
p2728
I42
VSimpleName: equal
p2729
tp2730
a(Vinsert
p2731
I42
VSimpleName: writeObject
p2732
tp2733
a(Vinsert
p2734
I42
VSimpleName: first
p2735
tp2736
a(Vinsert
p2737
I42
VSimpleName: encloseAll
p2738
tp2739
a(Vinsert
p2740
I42
VSimpleName: putEdgeValue
p2741
tp2742
a(Vinsert
p2743
I42
VSimpleName: converterTo
p2744
tp2745
a(Vinsert
p2746
I42
VSimpleName: optimalNumOfHashFunctions
p2747
tp2748
a(Vinsert
p2749
I42
VSimpleName: unmodifiableMap
p2750
tp2751
a(Vinsert
p2752
I42
VSimpleName: toLong
p2753
tp2754
a(Vinsert
p2755
I42
VSimpleName: entries
p2756
tp2757
a(Vinsert
p2758
I42
VSimpleName: newLinkedList
p2759
tp2760
a(Vinsert
p2761
I42
VSimpleName: getResources
p2762
tp2763
a(Vinsert
p2764
I42
VSimpleName: update
p2765
tp2766
a(Vinsert
p2767
I42
VSimpleName: testAllPublicConstructors
p2768
tp2769
a(Vinsert
p2770
I42
VSimpleName: newSetFromMap
p2771
tp2772
a(Vinsert
p2773
I42
VSimpleName: subtypeOf
p2774
tp2775
a(Vinsert
p2776
I42
VSimpleName: lastEntry
p2777
tp2778
a(Vinsert
p2779
I42
VSimpleName: checkNo2BitCharacteristics
p2780
tp2781
a(Vinsert
p2782
I42
VSimpleName: hitCount
p2783
tp2784
a(Vinsert
p2785
I42
VSimpleName: getInitialCapacity
p2786
tp2787
a(Vinsert
p2788
I42
VSimpleName: testCreation_simple
p2789
tp2790
a(Vinsert
p2791
I42
VSimpleName: numberOfLeadingZeros
p2792
tp2793
a(Vinsert
p2794
I42
VSimpleName: getUnchecked
p2795
tp2796
a(Vinsert
p2797
I42
VSimpleName: testParseLongEmptyString
p2798
tp2799
a(Vinsert
p2800
I42
VSimpleName: hashInt
p2801
tp2802
a(Vinsert
p2803
I42
VSimpleName: transformAsync
p2804
tp2805
a(Vinsert
p2806
I42
VSimpleName: checkState
p2807
tp2808
a(Vinsert
p2809
I42
VSimpleName: preOrderTraversal
p2810
tp2811
a(Vinsert
p2812
I42
VSimpleName: testSmear
p2813
tp2814
a(Vinsert
p2815
I42
VSimpleName: belowValue
p2816
tp2817
a(Vinsert
p2818
I42
VSimpleName: testToImmutableSet_duplicates
p2819
tp2820
a(Vinsert
p2821
I42
VSimpleName: refreshAfterWrite
p2822
tp2823
a(Vinsert
p2824
I42
VSimpleName: testCharsUpper
p2825
tp2826
a(Vinsert
p2827
I42
VSimpleName: expectedNodeCount
p2828
tp2829
a(Vinsert
p2830
I42
VSimpleName: newEntry
p2831
tp2832
a(Vinsert
p2833
I42
VSimpleName: testToImmutableMapMerging
p2834
tp2835
a(Vinsert
p2836
I42
VSimpleName: recordStats
p2837
tp2838
a(Vinsert
p2839
I42
VSimpleName: withBits
p2840
tp2841
a(Vinsert
p2842
I42
VSimpleName: crc8
p2843
tp2844
a(Vinsert
p2845
I42
VSimpleName: testGet_bad
p2846
tp2847
a(Vinsert
p2848
I42
VSimpleName: invoke
p2849
tp2850
a(Vinsert
p2851
I42
VSimpleName: getAsBoolean
p2852
tp2853
a(Vinsert
p2854
I42
VSimpleName: addEqualityGroup
p2855
tp2856
a(Vinsert
p2857
I42
VSimpleName: testNullIsNotPassedThrough
p2858
tp2859
a(Vinsert
p2860
I42
VSimpleName: e2
p2861
tp2862
a(Vinsert
p2863
I42
VSimpleName: omitEmptyStrings
p2864
tp2865
a(Vinsert
p2866
I42
VSimpleName: putString
p2867
tp2868
a(Vinsert
p2869
I42
VSimpleName: intern
p2870
tp2871
a(Vinsert
p2872
I42
VSimpleName: asCharSource
p2873
tp2874
a(Vinsert
p2875
I42
VSimpleName: higherKey
p2876
tp2877
a(Vinsert
p2878
I42
VSimpleName: getValue
p2879
tp2880
a(Vinsert
p2881
I42
VSimpleName: valueComparator
p2882
tp2883
a(Vinsert
p2884
I42
VSimpleName: verify
p2885
tp2886
a(Vinsert
p2887
I42
VSimpleName: containsExactlyElementsIn
p2888
tp2889
a(Vinsert
p2890
I42
VSimpleName: getDeclaredConstructor
p2891
tp2892
a(Vinsert
p2893
I42
VSimpleName: testSerialization
p2894
tp2895
a(Vinsert
p2896
I42
VSimpleName: evictionListener
p2897
tp2898
a(Vinsert
p2899
I42
VSimpleName: remainingCapacity
p2900
tp2901
a(Vinsert
p2902
I42
VSimpleName: allPrimitiveTypes
p2903
tp2904
a(Vinsert
p2905
I42
VSimpleName: getDeclaredMethods
p2906
tp2907
a(Vinsert
p2908
I42
VSimpleName: getAlgorithm
p2909
tp2910
a(Vinsert
p2911
I42
VSimpleName: when
p2912
tp2913
a(Vinsert
p2914
I42
VSimpleName: ofNanos
p2915
tp2916
a(Vinsert
p2917
I42
VSimpleName: readByte
p2918
tp2919
a(Vinsert
p2920
I42
VSimpleName: floatValue
p2921
tp2922
a(Vinsert
p2923
I42
VSimpleName: testStringConverter_nullConversions
p2924
tp2925
a(Vinsert
p2926
I42
VSimpleName: isAbstract
p2927
tp2928
a(Vinsert
p2929
I42
VSimpleName: asEntryTransformer
p2930
tp2931
a(Vinsert
p2932
I42
VSimpleName: whitespace
p2933
tp2934
a(Vinsert
p2935
I42
VSimpleName: isValidUtf8
p2936
tp2937
a(Vinsert
p2938
I42
VSimpleName: edgeValueOrNull
p2939
tp2940
a(Vinsert
p2941
I42
VSimpleName: summaryStatistics
p2942
tp2943
a(Vinsert
p2944
I42
VSimpleName: getSubscriber
p2945
tp2946
a(Vinsert
p2947
I42
VSimpleName: testInsertionOrderAfterRemoveLast
p2948
tp2949
a(Vinsert
p2950
I42
VSimpleName: asMapSortedIgnoreNavigable
p2951
tp2952
a(Vinsert
p2953
I42
VSimpleName: getDelay
p2954
tp2955
a(Vinsert
p2956
I42
VSimpleName: withNarrowedType
p2957
tp2958
a(Vinsert
p2959
I42
VSimpleName: nodeU
p2960
tp2961
a(Vinsert
p2962
I42
VSimpleName: order
p2963
tp2964
a(Vinsert
p2965
I42
VSimpleName: divide
p2966
tp2967
a(Vinsert
p2968
I42
VSimpleName: pow
p2969
tp2970
a(Vinsert
p2971
I42
VSimpleName: entryIterator
p2972
tp2973
a(Vinsert
p2974
I42
VSimpleName: newLinkedBlockingDeque
p2975
tp2976
a(Vinsert
p2977
I42
VSimpleName: tooHigh
p2978
tp2979
a(Vinsert
p2980
I42
VSimpleName: hashCodeImpl
p2981
tp2982
a(Vinsert
p2983
I42
VSimpleName: apply
p2984
tp2985
a(Vinsert
p2986
I42
VSimpleName: forName
p2987
tp2988
a(Vinsert
p2989
I42
VSimpleName: nodeB
p2990
tp2991
a(Vinsert
p2992
I42
VSimpleName: tailSet
p2993
tp2994
a(Vinsert
p2995
I42
VSimpleName: wasEvicted
p2996
tp2997
a(Vinsert
p2998
I42
VSimpleName: keyPredicateOnEntries
p2999
tp3000
a(Vinsert
p3001
I42
VSimpleName: get
p3002
tp3003
a(Vinsert
p3004
I42
VSimpleName: testNullValuesInCopyOfMap
p3005
tp3006
a(Vinsert
p3007
I42
VSimpleName: getReplacementArray
p3008
tp3009
a(Vinsert
p3010
I42
VSimpleName: testLog2Ceiling
p3011
tp3012
a(Vinsert
p3013
I42
VSimpleName: sleepMicrosUninterruptibly
p3014
tp3015
a(Vinsert
p3016
I42
VSimpleName: rotateLeft
p3017
tp3018
a(Vinsert
p3019
I42
VSimpleName: comparing
p3020
tp3021
a(Vinsert
p3022
I42
VSimpleName: getDefaultStrategyFromSystemProperty
p3023
tp3024
a(Vinsert
p3025
I42
VSimpleName: setUp
p3026
tp3027
a(Vinsert
p3028
I42
VSimpleName: fromLong
p3029
tp3030
a(Vinsert
p3031
I42
VSimpleName: testNoMatches
p3032
tp3033
a(Vinsert
p3034
I42
VSimpleName: failed
p3035
tp3036
a(Vinsert
p3037
I42
VSimpleName: optimalNumOfBits
p3038
tp3039
a(Vinsert
p3040
I42
VSimpleName: readObject
p3041
tp3042
a(Vinsert
p3043
I42
VSimpleName: getString
p3044
tp3045
a(Vinsert
p3046
I42
VSimpleName: createTestSuite
p3047
tp3048
a(Vinsert
p3049
I42
VSimpleName: assertEqualInOrder
p3050
tp3051
a(Vinsert
p3052
I42
VSimpleName: copyOfRange
p3053
tp3054
a(Vinsert
p3055
I42
VSimpleName: getHost
p3056
tp3057
a(Vinsert
p3058
I42
VSimpleName: getFieldSetter
p3059
tp3060
a(Vinsert
p3061
I42
VSimpleName: awaitTerminated
p3062
tp3063
a(Vinsert
p3064
I42
VSimpleName: startsWith
p3065
tp3066
a(Vinsert
p3067
I42
VSimpleName: transformValues
p3068
tp3069
a(Vinsert
p3070
I42
VSimpleName: getHash
p3071
tp3072
a(Vinsert
p3073
I42
VSimpleName: testLastIndexOfImpl_null
p3074
tp3075
a(Vinsert
p3076
I42
VSimpleName: readBoolean
p3077
tp3078
a(Vinsert
p3079
I42
VSimpleName: invokeAll
p3080
tp3081
a(Vinsert
p3082
I42
VSimpleName: run
p3083
tp3084
a(Vinsert
p3085
I42
VSimpleName: saturatedAdd
p3086
tp3087
a(Vinsert
p3088
I42
VSimpleName: hasPartialArray
p3089
tp3090
a(Vinsert
p3091
I42
VSimpleName: reportItem
p3092
tp3093
a(Vinsert
p3094
I42
VSimpleName: testConverterToForward
p3095
tp3096
a(Vinsert
p3097
I42
VSimpleName: getNextExpirable
p3098
tp3099
a(Vinsert
p3100
I42
VSimpleName: createMock
p3101
tp3102
a(Vinsert
p3103
I42
VSimpleName: testUrlFormParameterEscaper
p3104
tp3105
a(Vinsert
p3106
I42
VSimpleName: putIfAbsent
p3107
tp3108
a(Vinsert
p3109
I42
VSimpleName: openBufferedStream
p3110
tp3111
a(Vinsert
p3112
I42
VSimpleName: isVisible
p3113
tp3114
a(Vinsert
p3115
I42
VSimpleName: array
p3116
tp3117
a(Vinsert
p3118
I42
VSimpleName: scale
p3119
tp3120
a(Vinsert
p3121
I42
VSimpleName: remainder
p3122
tp3123
a(Vinsert
p3124
I42
VSimpleName: saturatedCast
p3125
tp3126
a(Vinsert
p3127
I42
VSimpleName: falseFirst
p3128
tp3129
a(Vinsert
p3130
I42
VSimpleName: toImmutableSortedMap
p3131
tp3132
a(Vinsert
p3133
I42
VSimpleName: previous
p3134
tp3135
a(Vinsert
p3136
I42
VSimpleName: sum
p3137
tp3138
a(Vinsert
p3139
I42
VSimpleName: getPort
p3140
tp3141
a(Vinsert
p3142
I42
VSimpleName: equals
p3143
tp3144
a(Vinsert
p3145
I42
VSimpleName: asImmutableList
p3146
tp3147
a(Vinsert
p3148
I42
VSimpleName: createWithDummyValues
p3149
tp3150
a(Vinsert
p3151
I42
VSimpleName: copy
p3152
tp3153
a(Vinsert
p3154
I42
VSimpleName: hasMessage
p3155
tp3156
a(Vinsert
p3157
I42
VSimpleName: filterValues
p3158
tp3159
a(Vinsert
p3160
I42
VSimpleName: readLine
p3161
tp3162
a(Vinsert
p3163
I42
VSimpleName: testStaticMethods
p3164
tp3165
a(Vinsert
p3166
I42
VSimpleName: addImpliedFeatures
p3167
tp3168
a(Vinsert
p3169
I42
VSimpleName: row
p3170
tp3171
a(Vinsert
p3172
I42
VSimpleName: mod
p3173
tp3174
a(Vinsert
p3175
I42
VSimpleName: isNotInstanceOf
p3176
tp3177
a(Vinsert
p3178
I42
VSimpleName: threadRenaming
p3179
tp3180
a(Vinsert
p3181
I42
VSimpleName: max
p3182
tp3183
a(Vinsert
p3184
I42
VSimpleName: reversed
p3185
tp3186
a(Vinsert
p3187
I42
VSimpleName: testCheckArgument_singleNullArg_failure
p3188
tp3189
a(Vinsert
p3190
I42
VSimpleName: stopAndWait
p3191
tp3192
a(Vinsert
p3193
I42
VSimpleName: withPadChar
p3194
tp3195
a(Vinsert
p3196
I42
VSimpleName: memoize
p3197
tp3198
a(Vinsert
p3199
I42
VSimpleName: isSupertypeOf
p3200
tp3201
a(Vinsert
p3202
I42
VSimpleName: comparingValuesUsing
p3203
tp3204
a(Vinsert
p3205
I42
VSimpleName: exactlyAs
p3206
tp3207
a(Vinsert
p3208
I42
VSimpleName: isInstance
p3209
tp3210
a(Vinsert
p3211
I42
VSimpleName: refresh
p3212
tp3213
a(Vinsert
p3214
I42
VSimpleName: fromLongBits
p3215
tp3216
a(Vinsert
p3217
I42
VSimpleName: testComplicatedOrderingExample
p3218
tp3219
a(Vinsert
p3220
I42
VSimpleName: asInt
p3221
tp3222
a(Vinsert
p3223
I42
VSimpleName: evictEntry
p3224
tp3225
a(Vinsert
p3226
I42
VSimpleName: addValue
p3227
tp3228
a(Vinsert
p3229
I42
VSimpleName: deserialize
p3230
tp3231
a(Vinsert
p3232
I42
VSimpleName: assertNonNullValues
p3233
tp3234
a(Vinsert
p3235
I42
VSimpleName: allocate
p3236
tp3237
a(Vinsert
p3238
I42
VSimpleName: addShutdownHook
p3239
tp3240
a(Vinsert
p3241
I42
VSimpleName: weigher
p3242
tp3243
a(Vinsert
p3244
I42
VSimpleName: testEquals
p3245
tp3246
a(Vinsert
p3247
I42
VSimpleName: checkArgument
p3248
tp3249
a(Vinsert
p3250
I42
VSimpleName: getCount
p3251
tp3252
a(Vinsert
p3253
I42
VSimpleName: createHashTable
p3254
tp3255
a(Vinsert
p3256
I42
VSimpleName: testAddAll_largeList
p3257
tp3258
a(Vinsert
p3259
I42
VSimpleName: spliterator
p3260
tp3261
a(Vinsert
p3262
I42
VSimpleName: applyAsLong
p3263
tp3264
a(Vinsert
p3265
I42
VSimpleName: testAddAllImpl
p3266
tp3267
a(Vinsert
p3268
I42
VSimpleName: testVerify_complexMessage_failure
p3269
tp3270
a(Vinsert
p3271
I42
VSimpleName: testEntrySetRemoveAll
p3272
tp3273
a(Vinsert
p3274
I42
VSimpleName: getCause
p3275
tp3276
a(Vinsert
p3277
I42
VSimpleName: testReverseReverse
p3278
tp3279
a(Vinsert
p3280
I42
VSimpleName: trimResults
p3281
tp3282
a(Vinsert
p3283
I42
VSimpleName: getUpperBounds
p3284
tp3285
a(Vinsert
p3286
I42
VSimpleName: source
p3287
tp3288
a(Vinsert
p3289
I42
VSimpleName: expireEntries
p3290
tp3291
a(Vinsert
p3292
I42
VSimpleName: isDirected
p3293
tp3294
a(Vinsert
p3295
I42
VSimpleName: newArrayList
p3296
tp3297
a(Vinsert
p3298
I42
VSimpleName: startAsync
p3299
tp3300
a(Vinsert
p3301
I42
VSimpleName: testFromByteArrayFails
p3302
tp3303
a(Vinsert
p3304
I42
VSimpleName: allAsList
p3305
tp3306
a(Vinsert
p3307
I42
VSimpleName: emptySet
p3308
tp3309
a(Vinsert
p3310
I42
VSimpleName: newSegment
p3311
tp3312
a(Vinsert
p3313
I42
VSimpleName: testReturning
p3314
tp3315
a(Vinsert
p3316
I42
VSimpleName: copyTo
p3317
tp3318
a(Vinsert
p3319
I42
VSimpleName: testDoNothingRunnableIsSingleton
p3320
tp3321
a(Vinsert
p3322
I42
VSimpleName: subList
p3323
tp3324
a(Vinsert
p3325
I42
VSimpleName: edgeValue
p3326
tp3327
a(Vinsert
p3328
I42
VSimpleName: countDown
p3329
tp3330
a(Vinsert
p3331
I42
VSimpleName: asList
p3332
tp3333
a(Vinsert
p3334
I42
VSimpleName: truncate
p3335
tp3336
a(Vinsert
p3337
I42
VSimpleName: replay
p3338
tp3339
a(Vinsert
p3340
I42
VSimpleName: getIteratorRemoveMethod
p3341
tp3342
a(Vinsert
p3343
I42
VSimpleName: indexIn
p3344
tp3345
a(Vinsert
p3346
I42
VSimpleName: appendTo
p3347
tp3348
a(Vinsert
p3349
I42
VSimpleName: toURL
p3350
tp3351
a(Vinsert
p3352
I42
VSimpleName: keys
p3353
tp3354
a(Vinsert
p3355
I42
VSimpleName: testCopyOf_multiset_empty
p3356
tp3357
a(Vinsert
p3358
I42
VSimpleName: nextSetBit
p3359
tp3360
a(Vinsert
p3361
I42
VSimpleName: assertThat
p3362
tp3363
a(Vinsert
p3364
I42
VSimpleName: setCount
p3365
tp3366
a(Vinsert
p3367
I42
VSimpleName: getPreviousEvictable
p3368
tp3369
a(Vinsert
p3370
I42
VSimpleName: initialize
p3371
tp3372
a(Vinsert
p3373
I42
VSimpleName: testInvalidLongRange
p3374
tp3375
a(Vinsert
p3376
I42
VSimpleName: testContains
p3377
tp3378
a(Vinsert
p3379
I42
VSimpleName: removeFirstMatching
p3380
tp3381
a(Vinsert
p3382
I42
VSimpleName: optimalM
p3383
tp3384
a(Vinsert
p3385
I42
VSimpleName: getOrLoad
p3386
tp3387
a(Vinsert
p3388
I42
VSimpleName: isEqual
p3389
tp3390
a(Vinsert
p3391
I42
VSimpleName: leastOf
p3392
tp3393
a(Vinsert
p3394
I42
VSimpleName: isConnected
p3395
tp3396
a(Vinsert
p3397
I42
VSimpleName: minus
p3398
tp3399
a(Vinsert
p3400
I42
VSimpleName: testException
p3401
tp3402
a(Vinsert
p3403
I42
VSimpleName: asAsyncCallable
p3404
tp3405
a(Vinsert
p3406
I42
VSimpleName: isPresent
p3407
tp3408
a(Vinsert
p3409
I42
VSimpleName: readInt
p3410
tp3411
a(Vinsert
p3412
I42
VSimpleName: edgeConnecting
p3413
tp3414
a(Vinsert
p3415
I42
VSimpleName: getByAddress
p3416
tp3417
a(Vinsert
p3418
I42
VSimpleName: makeUninterruptible
p3419
tp3420
a(Vinsert
p3421
I42
VSimpleName: getSuppressed
p3422
tp3423
a(Vinsert
p3424
I42
VSimpleName: matchesAnyOf
p3425
tp3426
a(Vinsert
p3427
I42
VSimpleName: or
p3428
tp3429
a(Vinsert
p3430
I42
VSimpleName: getLowerBoundType
p3431
tp3432
a(Vinsert
p3433
I42
VSimpleName: computeIfPresent
p3434
tp3435
a(Vinsert
p3436
I42
VSimpleName: isShutdown
p3437
tp3438
a(Vinsert
p3439
I42
VSimpleName: hashCode
p3440
tp3441
a(Vinsert
p3442
I42
VSimpleName: mkdir
p3443
tp3444
a(Vinsert
p3445
I42
VSimpleName: testReplacementPriority
p3446
tp3447
a(Vinsert
p3448
I42
VSimpleName: wrap
p3449
tp3450
a(Vinsert
p3451
I42
VSimpleName: byteValue
p3452
tp3453
a(Vinsert
p3454
I42
VSimpleName: lock
p3455
tp3456
a(Vinsert
p3457
I42
VSimpleName: replaceAll
p3458
tp3459
a(Vinsert
p3460
I42
VSimpleName: filterEntries
p3461
tp3462
a(Vinsert
p3463
I42
VSimpleName: lowerEntry
p3464
tp3465
a(Vinsert
p3466
I42
VSimpleName: fromJavaUtil
p3467
tp3468
a(Vinsert
p3469
I42
VSimpleName: testToImmutableSortedSet_customComparator
p3470
tp3471
a(Vinsert
p3472
I42
VSimpleName: testConcatPartiallyAdvancedSecond
p3473
tp3474
a(Vinsert
p3475
I42
VSimpleName: compose
p3476
tp3477
a(Vinsert
p3478
I42
VSimpleName: testAssertEqualInOrder
p3479
tp3480
a(Vinsert
p3481
I42
VSimpleName: interrupt
p3482
tp3483
a(Vinsert
p3484
I42
VSimpleName: testEnsureCapacity_fail
p3485
tp3486
a(Vinsert
p3487
I42
VSimpleName: getEnumConstants
p3488
tp3489
a(Vinsert
p3490
I42
VSimpleName: ordered
p3491
tp3492
a(Vinsert
p3493
I42
VSimpleName: testCopyOf_plainIterable
p3494
tp3495
a(Vinsert
p3496
I42
VSimpleName: immutableCell
p3497
tp3498
a(Vinsert
p3499
I42
VSimpleName: testMemoizeExceptionThrown
p3500
tp3501
a(Vinsert
p3502
I42
VSimpleName: getHostText
p3503
tp3504
a(Vinsert
p3505
I42
VSimpleName: estimateSize
p3506
tp3507
a(Vinsert
p3508
I42
VSimpleName: testSingleTearDown
p3509
tp3510
a(Vinsert
p3511
I42
VSimpleName: newArray
p3512
tp3513
a(Vinsert
p3514
I42
VSimpleName: bitSize
p3515
tp3516
a(Vinsert
p3517
I42
VSimpleName: readLines
p3518
tp3519
a(Vinsert
p3520
I42
VSimpleName: testTopDomainUnderRegistrySuffix
p3521
tp3522
a(Vinsert
p3523
I42
VSimpleName: capture
p3524
tp3525
a(Vinsert
p3526
I42
VSimpleName: base32
p3527
tp3528
a(Vinsert
p3529
I42
VSimpleName: currentThread
p3530
tp3531
a(Vinsert
p3532
I42
VSimpleName: nextLong
p3533
tp3534
a(Vinsert
p3535
I42
VSimpleName: replaceFirst
p3536
tp3537
a(Vinsert
p3538
I42
VSimpleName: containsColumn
p3539
tp3540
a(Vinsert
p3541
I42
VSimpleName: chain
p3542
tp3543
a(Vinsert
p3544
I42
VSimpleName: edgesConnecting
p3545
tp3546
a(Vinsert
p3547
I42
VSimpleName: populate
p3548
tp3549
a(Vinsert
p3550
I42
VSimpleName: forComparator
p3551
tp3552
a(Vinsert
p3553
I42
VSimpleName: combineOrdered
p3554
tp3555
a(Vinsert
p3556
I42
VSimpleName: getNext
p3557
tp3558
a(Vinsert
p3559
I42
VSimpleName: murmur3_32
p3560
tp3561
a(Vinsert
p3562
I42
VSimpleName: tearDown
p3563
tp3564
a(Vinsert
p3565
I42
VSimpleName: saturatedMultiply
p3566
tp3567
a(Vinsert
p3568
I42
VSimpleName: currentTimeMillis
p3569
tp3570
a(Vinsert
p3571
I42
VSimpleName: forcePut
p3572
tp3573
a(Vinsert
p3574
I42
VSimpleName: stop
p3575
tp3576
a(Vinsert
p3577
I42
VSimpleName: getSetValueMethod
p3578
tp3579
a(Vinsert
p3580
I42
VSimpleName: nullsLast
p3581
tp3582
a(Vinsert
p3583
I42
VSimpleName: recordsAccess
p3584
tp3585
a(Vinsert
p3586
I42
VSimpleName: usesKeyReferences
p3587
tp3588
a(Vinsert
p3589
I42
VSimpleName: testStringConverter_convertError
p3590
tp3591
a(Vinsert
p3592
I42
VSimpleName: supplierFunction
p3593
tp3594
a(Vinsert
p3595
I42
VSimpleName: fromInt
p3596
tp3597
a(Vinsert
p3598
I42
VSimpleName: testForwardingObject
p3599
tp3600
a(Vinsert
p3601
I42
VSimpleName: getProtocol
p3602
tp3603
a(Vinsert
p3604
I42
VSimpleName: evictsBySize
p3605
tp3606
a(Vinsert
p3607
I42
VSimpleName: isPrivate
p3608
tp3609
a(Vinsert
p3610
I42
VSimpleName: farmHashFingerprint64
p3611
tp3612
a(Vinsert
p3613
I42
VSimpleName: descendingSet
p3614
tp3615
a(Vinsert
p3616
I42
VSimpleName: doNothing
p3617
tp3618
a(Vinsert
p3619
I42
VSimpleName: addEqualObject
p3620
tp3621
a(Vinsert
p3622
I42
VSimpleName: testGetParameters
p3623
tp3624
a(Vinsert
p3625
I42
VSimpleName: getProperty
p3626
tp3627
a(Vinsert
p3628
I42
VSimpleName: hasPublicSuffix
p3629
tp3630
a(Vinsert
p3631
I42
VSimpleName: hasLowerBound
p3632
tp3633
a(Vinsert
p3634
I42
VSimpleName: getAll
p3635
tp3636
a(Vinsert
p3637
I42
VSimpleName: joinUninterruptibly
p3638
tp3639
a(Vinsert
p3640
I42
VSimpleName: orderedBy
p3641
tp3642
a(Vinsert
p3643
I42
VSimpleName: getPreviousExpirable
p3644
tp3645
a(Vinsert
p3646
I42
VSimpleName: nextDouble
p3647
tp3648
a(Vinsert
p3649
I42
VSimpleName: add
p3650
tp3651
a(Vinsert
p3652
I42
VSimpleName: assertEquals
p3653
tp3654
a(Vinsert
p3655
I42
VSimpleName: sha384
p3656
tp3657
a(Vinsert
p3658
I42
VSimpleName: recordHit
p3659
tp3660
a(Vinsert
p3661
I42
VSimpleName: testMapWithIndex_arrayListSource
p3662
tp3663
a(Vinsert
p3664
I42
VSimpleName: longs
p3665
tp3666
a(Vinsert
p3667
I42
VSimpleName: hashLong
p3668
tp3669
a(Vinsert
p3670
I42
VSimpleName: assertFalse
p3671
tp3672
a(Vinsert
p3673
I42
VSimpleName: testConcatPartiallyAdvanced
p3674
tp3675
a(Vinsert
p3676
I42
VSimpleName: getFirst
p3677
tp3678
a(Vinsert
p3679
I42
VSimpleName: populationCovariance
p3680
tp3681
a(Vinsert
p3682
I42
VSimpleName: testGetRootCause_SingleWrapped
p3683
tp3684
a(Vinsert
p3685
I42
VSimpleName: shutdown
p3686
tp3687
a(Vinsert
p3688
I42
VSimpleName: hasSize
p3689
tp3690
a(Vinsert
p3691
I42
VSimpleName: singletonList
p3692
tp3693
a(Vinsert
p3694
I42
VSimpleName: assertInvariants
p3695
tp3696
a(Vinsert
p3697
I42
VSimpleName: doesNotContain
p3698
tp3699
a(Vinsert
p3700
I42
VSimpleName: withFeatures
p3701
tp3702
a(Vinsert
p3703
I42
VSimpleName: nanoTime
p3704
tp3705
a(Vinsert
p3706
I42
VSimpleName: isPrimitive
p3707
tp3708
a(Vinsert
p3709
I42
VSimpleName: newLinkedHashSet
p3710
tp3711
a(Vinsert
p3712
I42
VSimpleName: containsValue
p3713
tp3714
a(Vinsert
p3715
I42
VSimpleName: invokeAny
p3716
tp3717
a(Vinsert
p3718
I42
VSimpleName: getClassPathEntries
p3719
tp3720
a(Vinsert
p3721
I42
VSimpleName: callAndAssertReturns
p3722
tp3723
a(Vinsert
p3724
I42
VSimpleName: areEqual
p3725
tp3726
a(Vinsert
p3727
I42
VSimpleName: hashString
p3728
tp3729
a(Vinsert
p3730
I42
VSimpleName: testCopyOf
p3731
tp3732
a(Vinsert
p3733
I42
VSimpleName: decode
p3734
tp3735
a(Vinsert
p3736
I42
VSimpleName: testPermutationSetEmpty
p3737
tp3738
a(Vinsert
p3739
I42
VSimpleName: emptyList
p3740
tp3741
a(Vinsert
p3742
I42
VSimpleName: weakCompareAndSet
p3743
tp3744
a(Vinsert
p3745
I42
VSimpleName: toImmutableSet
p3746
tp3747
a(Vinsert
p3748
I42
VSimpleName: wasCalled
p3749
tp3750
a(Vinsert
p3751
I42
VSimpleName: min
p3752
tp3753
a(Vinsert
p3754
I42
VSimpleName: propagateIfPossible
p3755
tp3756
a(Vinsert
p3757
I42
VSimpleName: smear
p3758
tp3759
a(Vinsert
p3760
I42
VSimpleName: getByName
p3761
tp3762
a(Vinsert
p3763
I42
VSimpleName: onEviction
p3764
tp3765
a(Vinsert
p3766
I42
VSimpleName: drainTo
p3767
tp3768
a(Vinsert
p3769
I42
VSimpleName: post
p3770
tp3771
a(Vinsert
p3772
I42
VSimpleName: log
p3773
tp3774
a(Vinsert
p3775
I42
VSimpleName: validateGraph
p3776
tp3777
a(Vinsert
p3778
I42
VSimpleName: elementSet
p3779
tp3780
a(Vinsert
p3781
I42
VSimpleName: newLinkedHashMapWithExpectedSize
p3782
tp3783
a(Vinsert
p3784
I42
VSimpleName: sha512
p3785
tp3786
a(Vinsert
p3787
I42
VSimpleName: inferDistinctElements
p3788
tp3789
a(Vinsert
p3790
I42
VSimpleName: testFlatteningToImmutableSetMultimap
p3791
tp3792
a(Vinsert
p3793
I42
VSimpleName: closedTableSize
p3794
tp3795
a(Vinsert
p3796
I42
VSimpleName: getMethods
p3797
tp3798
a(Vinsert
p3799
I42
VSimpleName: putInstance
p3800
tp3801
a(Vinsert
p3802
I42
VSimpleName: isExpired
p3803
tp3804
a(Vinsert
p3805
I42
VSimpleName: getSimpleName
p3806
tp3807
a(Vinsert
p3808
I42
VSimpleName: testGCDNegativePositiveThrows
p3809
tp3810
a(Vinsert
p3811
I42
VSimpleName: testGetNext_withDefault_two
p3812
tp3813
a(Vinsert
p3814
I42
VSimpleName: testForMapWithDefault
p3815
tp3816
a(Vinsert
p3817
I42
VSimpleName: createUnstarted
p3818
tp3819
a(Vinsert
p3820
I42
VSimpleName: getInnerNodeCode
p3821
tp3822
a(Vinsert
p3823
I42
VSimpleName: checkNonnegative
p3824
tp3825
a(Vinsert
p3826
I42
VSimpleName: getLiveEntry
p3827
tp3828
a(Vinsert
p3829
I42
VSimpleName: negate
p3830
tp3831
a(Vinsert
p3832
I42
VSimpleName: checkedCast
p3833
tp3834
a(Vinsert
p3835
I42
VSimpleName: newEncoder
p3836
tp3837
a(Vinsert
p3838
I42
VSimpleName: fromBytesNoCopy
p3839
tp3840
a(Vinsert
p3841
I42
VSimpleName: scheduleAtFixedRate
p3842
tp3843
a(Vinsert
p3844
I42
VSimpleName: loadExceptionRate
p3845
tp3846
a(Vinsert
p3847
I42
VSimpleName: anyOf
p3848
tp3849
a(Vinsert
p3850
I42
VSimpleName: incrementAndGet
p3851
tp3852
a(Vinsert
p3853
I42
VSimpleName: pollLast
p3854
tp3855
a(Vinsert
p3856
I42
VSimpleName: testCopyOf_nullArray
p3857
tp3858
a(Vinsert
p3859
I42
VSimpleName: testDoesntCheckForNull
p3860
tp3861
a(Vinsert
p3862
I42
VSimpleName: ordinal
p3863
tp3864
a(Vinsert
p3865
I42
VSimpleName: defaultThreadFactory
p3866
tp3867
a(Vinsert
p3868
I42
VSimpleName: undirected
p3869
tp3870
a(Vinsert
p3871
I42
VSimpleName: precomputed
p3872
tp3873
a(Vinsert
p3874
I42
VSimpleName: rethrow
p3875
tp3876
a(Vinsert
p3877
I42
VSimpleName: padToLong
p3878
tp3879
a(Vinsert
p3880
I42
VSimpleName: canMergeWith
p3881
tp3882
a(Vinsert
p3883
I42
VSimpleName: getLowestSetBit
p3884
tp3885
a(Vinsert
p3886
I42
VSimpleName: toImmutableSortedSet
p3887
tp3888
a(Vinsert
p3889
I42
VSimpleName: checkElementIndex
p3890
tp3891
a(Vinsert
p3892
I42
VSimpleName: collapseFrom
p3893
tp3894
a(Vinsert
p3895
I42
VSimpleName: getComponentType
p3896
tp3897
a(Vinsert
p3898
I42
VSimpleName: testAsList
p3899
tp3900
a(Vinsert
p3901
I42
VSimpleName: testRemoveEmptyOccurrences
p3902
tp3903
a(Vinsert
p3904
I42
VSimpleName: legacyAsync
p3905
tp3906
a(Vinsert
p3907
I42
VSimpleName: getLong
p3908
tp3909
a(Vinsert
p3910
I42
VSimpleName: checkedMultiply
p3911
tp3912
a(Vinsert
p3913
I42
VSimpleName: getGenericInterfaces
p3914
tp3915
a(Vinsert
p3916
I42
VSimpleName: using
p3917
tp3918
a(Vinsert
p3919
I42
VSimpleName: getValueReference
p3920
tp3921
a(Vinsert
p3922
I42
VSimpleName: testToTableMerging
p3923
tp3924
a(Vinsert
p3925
I42
VSimpleName: getElement
p3926
tp3927
a(Vinsert
p3928
I42
VSimpleName: setLength
p3929
tp3930
a(Vinsert
p3931
I42
VSimpleName: testBase32Offset
p3932
tp3933
a(Vinsert
p3934
I42
VSimpleName: newFixedThreadPool
p3935
tp3936
a(Vinsert
p3937
I42
VSimpleName: write
p3938
tp3939
a(Vinsert
p3940
I42
VSimpleName: interrupted
p3941
tp3942
a(Vinsert
p3943
I42
VSimpleName: createNode
p3944
tp3945
a(Vinsert
p3946
I42
VSimpleName: testLimitLarge
p3947
tp3948
a(Vinsert
p3949
I42
VSimpleName: removeLast
p3950
tp3951
a(Vinsert
p3952
I42
VSimpleName: edgeConnectingOrNull
p3953
tp3954
a(Vinsert
p3955
I42
VSimpleName: mean
p3956
tp3957
a(Vinsert
p3958
I42
VSimpleName: removeEntry
p3959
tp3960
a(Vinsert
p3961
I42
VSimpleName: checkPositionIndex
p3962
tp3963
a(Vinsert
p3964
I42
VSimpleName: checkNotNull
p3965
tp3966
a(Vinsert
p3967
I42
VSimpleName: testEqualsIgnoreCaseUnicodeEquivalence
p3968
tp3969
a(Vinsert
p3970
I42
VSimpleName: isLowerCase
p3971
tp3972
a(Vinsert
p3973
I42
VSimpleName: getSubSet
p3974
tp3975
a(Vinsert
p3976
I42
VSimpleName: asImmutable
p3977
tp3978
a(Vinsert
p3979
I42
VSimpleName: putObject
p3980
tp3981
a(Vinsert
p3982
I42
VSimpleName: containsEntry
p3983
tp3984
a(Vinsert
p3985
I42
VSimpleName: asCharSink
p3986
tp3987
a(Vinsert
p3988
I42
VSimpleName: isFile
p3989
tp3990
a(Vinsert
p3991
I42
VSimpleName: parseTrie
p3992
tp3993
a(Vinsert
p3994
I42
VSimpleName: addTest
p3995
tp3996
a(Vinsert
p3997
I42
VSimpleName: permutations
p3998
tp3999
a(Vinsert
p4000
I42
VSimpleName: testBase16InvalidDecodings
p4001
tp4002
a(Vinsert
p4003
I42
VSimpleName: setDefault
p4004
tp4005
a(Vinsert
p4006
I42
VSimpleName: orNull
p4007
tp4008
a(Vinsert
p4009
I42
VSimpleName: build
p4010
tp4011
a(Vinsert
p4012
I42
VSimpleName: testLessThanBranchFree
p4013
tp4014
a(Vinsert
p4015
I42
VSimpleName: sizeIfKnown
p4016
tp4017
a(Vinsert
p4018
I42
VSimpleName: getSubtype
p4019
tp4020
a(Vinsert
p4021
I42
VSimpleName: testMax_noArgs
p4022
tp4023
a(Vinsert
p4024
I42
VSimpleName: consumingIterator
p4025
tp4026
a(Vinsert
p4027
I42
VSimpleName: getDeclaredClasses
p4028
tp4029
a(Vinsert
p4030
I42
VSimpleName: cardinality
p4031
tp4032
a(Vinsert
p4033
I42
VSimpleName: has
p4034
tp4035
a(Vinsert
p4036
I42
VSimpleName: testUsing
p4037
tp4038
a(Vinsert
p4039
I42
VSimpleName: putUnencodedChars
p4040
tp4041
a(Vinsert
p4042
I42
VSimpleName: testBase32LenientPadding
p4043
tp4044
a(Vinsert
p4045
I42
VSimpleName: toStringFunction
p4046
tp4047
a(Vinsert
p4048
I42
VSimpleName: testGetForEmptyMap
p4049
tp4050
a(Vinsert
p4051
I42
VSimpleName: testSizeBasedEviction
p4052
tp4053
a(Vinsert
p4054
I42
VSimpleName: containsKeyImpl
p4055
tp4056
a(Vinsert
p4057
I42
VSimpleName: testAutoIncrementStep_resetToZero
p4058
tp4059
a(Vinsert
p4060
I42
VSimpleName: orderedPermutations
p4061
tp4062
a(Vinsert
p4063
I42
VSimpleName: testFailed
p4064
tp4065
a(Vinsert
p4066
I42
VSimpleName: isParallel
p4067
tp4068
a(Vinsert
p4069
I42
VSimpleName: ofInstance
p4070
tp4071
a(Vinsert
p4072
I42
VSimpleName: catching
p4073
tp4074
a(Vinsert
p4075
I42
VSimpleName: evictionCount
p4076
tp4077
a(Vinsert
p4078
I42
VSimpleName: customWeigher
p4079
tp4080
a(Vinsert
p4081
I42
VSimpleName: concat
p4082
tp4083
a(Vinsert
p4084
I42
VSimpleName: canDecode
p4085
tp4086
a(Vinsert
p4087
I42
VSimpleName: addEquivalenceGroup
p4088
tp4089
a(Vinsert
p4090
I42
VSimpleName: throwingError
p4091
tp4092
a(Vinsert
p4093
I42
VSimpleName: asMapEntryIterator
p4094
tp4095
a(Vinsert
p4096
I42
VSimpleName: testKeySetRemove
p4097
tp4098
a(Vinsert
p4099
I42
VSimpleName: asLong
p4100
tp4101
a(Vinsert
p4102
I42
VSimpleName: ensureNonNegative
p4103
tp4104
a(Vinsert
p4105
I42
VSimpleName: higherEntry
p4106
tp4107
a(Vinsert
p4108
I42
VSimpleName: testNewArray_fromArray_Nonempty
p4109
tp4110
a(Vinsert
p4111
I42
VSimpleName: testOnResultOf
p4112
tp4113
a(Vinsert
p4114
I42
VSimpleName: setValue
p4115
tp4116
a(Vinsert
p4117
I42
VSimpleName: nodes
p4118
tp4119
a(Vinsert
p4120
I42
VSimpleName: bits
p4121
tp4122
a(Vinsert
p4123
I42
VSimpleName: toLowerCase
p4124
tp4125
a(Vinsert
p4126
I42
VSimpleName: target
p4127
tp4128
a(Vinsert
p4129
I42
VSimpleName: sampleVariance
p4130
tp4131
a(Vinsert
p4132
I42
VSimpleName: frequency
p4133
tp4134
a(Vinsert
p4135
I42
VSimpleName: maximumSize
p4136
tp4137
a(Vinsert
p4138
I42
VSimpleName: elapsedNanos
p4139
tp4140
a(Vinsert
p4141
I42
VSimpleName: getChars
p4142
tp4143
a(Vinsert
p4144
I42
VSimpleName: isLoading
p4145
tp4146
a(Vinsert
p4147
I42
VSimpleName: propagate
p4148
tp4149
a(Vinsert
p4150
I42
VSimpleName: getSampleElements
p4151
tp4152
a(Vinsert
p4153
I42
VSimpleName: inOrder
p4154
tp4155
a(Vinsert
p4156
I42
VSimpleName: sort
p4157
tp4158
a(Vinsert
p4159
I42
VSimpleName: otherNode
p4160
tp4161
a(Vinsert
p4162
I42
VSimpleName: testParseLongWithRadixLimits
p4163
tp4164
a(Vinsert
p4165
I42
VSimpleName: fileTraverser
p4166
tp4167
a(Vinsert
p4168
I42
VSimpleName: assertEmpty
p4169
tp4170
a(Vinsert
p4171
I42
VSimpleName: comparator
p4172
tp4173
a(Vinsert
p4174
I42
VSimpleName: flush
p4175
tp4176
a(Vinsert
p4177
I42
VSimpleName: addAllImpl
p4178
tp4179
a(Vinsert
p4180
I42
VSimpleName: toImmutableRangeSet
p4181
tp4182
a(Vinsert
p4183
I42
VSimpleName: tryFind
p4184
tp4185
a(Vinsert
p4186
I42
VSimpleName: initialCapacity
p4187
tp4188
a(Vinsert
p4189
I42
VSimpleName: testGetRootCause_Loop
p4190
tp4191
a(Vinsert
p4192
I42
VSimpleName: put
p4193
tp4194
a(Vinsert
p4195
I42
VSimpleName: testOnlyElementSingleton
p4196
tp4197
a(Vinsert
p4198
I42
VSimpleName: testUtf8
p4199
tp4200
a(Vinsert
p4201
I42
VSimpleName: testValueOfFunction
p4202
tp4203
a(Vinsert
p4204
I42
VSimpleName: equalTo
p4205
tp4206
a(Vinsert
p4207
I42
VSimpleName: allOf
p4208
tp4209
a(Vinsert
p4210
I42
VSimpleName: getEntry
p4211
tp4212
a(Vinsert
p4213
I42
VSimpleName: rejectTypeVariables
p4214
tp4215
a(Vinsert
p4216
I42
VSimpleName: testStringConverter_serialization
p4217
tp4218
a(Vinsert
p4219
I42
VSimpleName: crc32c
p4220
tp4221
a(Vinsert
p4222
I42
VSimpleName: callUninterruptiblyWithTimeout
p4223
tp4224
a(Vinsert
p4225
I42
VSimpleName: subSet
p4226
tp4227
a(Vinsert
p4228
I42
VSimpleName: constrainToRange
p4229
tp4230
a(Vinsert
p4231
I42
VSimpleName: wasInterrupted
p4232
tp4233
a(Vinsert
p4234
I42
VSimpleName: getOrDefault
p4235
tp4236
a(Vinsert
p4237
I42
VSimpleName: asSet
p4238
tp4239
a(Vinsert
p4240
I42
VSimpleName: map
p4241
tp4242
a(Vinsert
p4243
I42
VSimpleName: unmodifiableMultimap
p4244
tp4245
a(Vinsert
p4246
I42
VSimpleName: listIteratorImpl
p4247
tp4248
a(Vinsert
p4249
I42
VSimpleName: presentInstances
p4250
tp4251
a(Vinsert
p4252
I42
VSimpleName: testEntrySetRemoveAllNullFromEmpty
p4253
tp4254
a(Vinsert
p4255
I42
VSimpleName: checkElement
p4256
tp4257
a(Vinsert
p4258
I42
VSimpleName: addFirst
p4259
tp4260
a(Vinsert
p4261
I42
VSimpleName: headMultiset
p4262
tp4263
a(Vinsert
p4264
I42
VSimpleName: descendingMultiset
p4265
tp4266
a(Vinsert
p4267
I42
VSimpleName: testPutNullValue
p4268
tp4269
a.