(dp0
(Vinsert
p1
I42
VSimpleName: setPoints
p2
Vinsert
p3
I42
VSimpleName: i
p4
tp5
I11
s(Vinsert
p6
I42
VSimpleName: read
p7
Vinsert
p8
I85
VDimension
p9
tp10
I5
s(Vinsert
p11
I42
VSimpleName: clear
p12
Vinsert
p13
I51
VSynchronizedStatement
p14
tp15
I2
s(Vinsert
p16
I42
VSimpleName: abs
p17
Vinsert
p18
I42
VSimpleName: delta
p19
tp20
I2
s(Vinsert
p21
I42
VSimpleName: sendToTarget
p22
Vinsert
p23
I34
VNumberLiteral: 0
p24
tp25
I11
s(Vinsert
p26
I42
VSimpleName: setAntiAlias
p27
Vinsert
p28
I21
VExpressionStatement
p29
tp30
I1
s(Vinsert
p31
I42
VSimpleName: set
p32
Vinsert
p33
I42
VSimpleName: mDensity
p34
tp35
I12
s(Vinsert
p36
I42
VSimpleName: setItems
p37
Vinsert
p38
I42
VSimpleName: startTime
p39
tp40
I3
s(Vinsert
p41
I42
VSimpleName: getInt
p42
Vinsert
p43
I42
VSimpleName: nativeBitmapField
p44
tp45
I6
s(Vinsert
p46
I42
VSimpleName: get
p47
Vinsert
p48
I43
VSimpleType: IDrawingCache
p49
tp50
I7
s(Vinsert
p51
I42
VSimpleName: currentTimeMillis
p52
Vinsert
p53
I42
VSimpleName: mTimeBase
p54
tp55
I5
s(Vinsert
p56
I42
VSimpleName: isPause
p57
Vinsert
p58
I42
VSimpleName: mCacheManager
p59
tp60
I14
s(g16
I42
g17
Vinsert
p61
I42
VSimpleName: curr
p62
tp63
I4
s(Vinsert
p64
I42
VSimpleName: onFramesFinished
p65
Vinsert
p66
I8
VBlock
p67
tp68
I1
s(Vinsert
p69
I42
VSimpleName: requestClear
p70
Vinsert
p71
I42
VSimpleName: drawTask
p72
tp73
I3
s(Vinsert
p74
I42
VSimpleName: subSet
p75
Vinsert
p76
I21
VExpressionStatement
p77
tp78
I5
s(Vinsert
p79
I42
VSimpleName: currentTimeMillis
p80
Vinsert
p81
I42
VSimpleName: isShown
p82
tp83
I5
s(Vinsert
p84
I42
VSimpleName: setDensity
p85
Vinsert
p86
I27
VInfixExpression: >
p87
tp88
I2
s(Vinsert
p89
I42
VSimpleName: clearDanmakusOnScreen
p90
Vinsert
p91
I49
VSwitchCase
p92
tp93
I4
s(Vinsert
p94
I42
VSimpleName: notifyAll
p95
Vinsert
p96
I51
VSynchronizedStatement
p97
tp98
I3
s(Vinsert
p99
I42
VSimpleName: clear
p100
Vinsert
p101
I33
VNullLiteral
p102
tp103
I8
s(Vinsert
p104
I42
VSimpleName: abs
p105
Vinsert
p106
I42
VSimpleName: BUILD_CACHES
p107
tp108
I8
s(Vinsert
p109
I42
VSimpleName: getUptimeMillis
p110
Vinsert
p111
I40
VQualifiedName: AbsDanmakuSync.SYNC_STATE_PLAYING
p112
tp113
I5
s(Vinsert
p114
I42
VSimpleName: start
p115
Vinsert
p116
I21
VExpressionStatement
p117
tp118
I6
s(Vinsert
p119
I42
VSimpleName: accept
p120
Vinsert
p121
I60
VVariableDeclarationStatement
p122
tp123
I17
s(Vinsert
p124
I42
VSimpleName: elapsedRealtime
p125
Vinsert
p126
I65
VTagElement
p127
tp128
I8
s(Vinsert
p129
I42
VSimpleName: getAverageRenderingTime
p130
Vinsert
p131
I59
VVariableDeclarationFragment
p132
tp133
I2
s(Vinsert
p134
I42
VSimpleName: clear
p135
Vinsert
p136
I34
VNumberLiteral: 9
p137
tp138
I209
s(Vinsert
p139
I42
VSimpleName: getRowBytes
p140
Vinsert
p141
I21
VExpressionStatement
p142
tp143
I4
s(Vinsert
p144
I42
VSimpleName: resume
p145
Vinsert
p146
I33
VNullLiteral
p147
tp148
I6
s(Vinsert
p149
I42
VSimpleName: printStackTrace
p150
Vinsert
p151
I42
VSimpleName: InterruptedException
p152
tp153
I24
s(g94
I42
g95
Vinsert
p154
I42
VSimpleName: mDrawingNotify
p155
tp156
I3
s(Vinsert
p157
I42
VSimpleName: onDanmakuConfigChanged
p158
Vinsert
p159
I33
VNullLiteral
p160
tp161
I1
s(Vinsert
p162
I42
VSimpleName: hasPassedFilter
p163
Vinsert
p164
I42
VSimpleName: item
p165
tp166
I6
s(Vinsert
p167
I42
VSimpleName: getYOff
p168
Vinsert
p169
I42
VSimpleName: mXOff
p170
tp171
I5
s(Vinsert
p172
I42
VSimpleName: ready
p173
Vinsert
p174
I42
VSimpleName: removeMessages
p175
tp176
I24
s(Vinsert
p177
I42
VSimpleName: onTouchEvent
p178
Vinsert
p179
I42
VSimpleName: MotionEvent
p180
tp181
I10
s(Vinsert
p182
I42
VSimpleName: seek
p183
Vinsert
p184
I7
VAssignment: =
p185
tp186
I34
s(Vinsert
p187
I42
VSimpleName: init
p188
Vinsert
p189
I42
VSimpleName: dispW
p190
tp191
I121
s(Vinsert
p192
I42
VSimpleName: compare
p193
Vinsert
p194
I42
VSimpleName: result
p195
tp196
I2
s(Vinsert
p197
I42
VSimpleName: isOffset
p198
Vinsert
p199
I38
VPrefixExpression: !
p200
tp201
I1
s(Vinsert
p202
I42
VSimpleName: quit
p203
Vinsert
p204
I32
VMethodInvocation
p205
tp206
I85
s(Vinsert
p207
I42
VSimpleName: iterator
p208
Vinsert
p209
I42
VSimpleName: it
p210
tp211
I4
s(Vinsert
p212
I42
VSimpleName: getResources
p213
Vinsert
p214
I34
VNumberLiteral: 0
p215
tp216
I63
s(g56
I42
g57
Vinsert
p217
I42
VSimpleName: mMaxCacheSize
p218
tp219
I4
s(Vinsert
p220
I42
VSimpleName: drawDanmakus
p221
Vinsert
p222
I42
VSimpleName: d
p223
tp224
I8
s(Vinsert
p225
I42
VSimpleName: getOnDanmakuClickListener
p226
Vinsert
p227
I44
VSingleVariableDeclaration
p228
tp229
I4
s(Vinsert
p230
I42
VSimpleName: create
p231
Vinsert
p232
I42
VSimpleName: DanmakuLoaderFactory
p233
tp234
I2
s(Vinsert
p235
I42
VSimpleName: d
p236
Vinsert
p237
I42
VSimpleName: Override
p238
tp239
I7
s(Vinsert
p240
I42
VSimpleName: setBitmap
p241
Vinsert
p242
I42
VSimpleName: checkSizeEquals
p243
tp244
I15
s(Vinsert
p245
I42
VSimpleName: iterator
p246
Vinsert
p247
I42
VSimpleName: iterator
p248
tp249
I5
s(Vinsert
p250
I42
VSimpleName: drawText
p251
Vinsert
p252
I83
VModifier: static
p253
tp254
I16
s(Vinsert
p255
I42
VSimpleName: erase
p256
Vinsert
p257
I21
VExpressionStatement
p258
tp259
I1
s(Vinsert
p260
I42
VSimpleName: dismiss
p261
Vinsert
p262
I25
VIfStatement
p263
tp264
I3
s(Vinsert
p265
I42
VSimpleName: length
p266
Vinsert
p267
I42
VSimpleName: String
p268
tp269
I10
s(Vinsert
p270
I42
VSimpleName: subnew
p271
Vinsert
p272
I40
VQualifiedName: mTimer.currMillisecond
p273
tp274
I4
s(Vinsert
p275
I42
VSimpleName: iterator
p276
Vinsert
p277
I42
VSimpleName: BaseDanmaku
p278
tp279
I9
s(Vinsert
p280
I42
VSimpleName: currentTimeMillis
p281
Vinsert
p282
I42
VSimpleName: lastTime
p283
tp284
I2
s(Vinsert
p285
I42
VSimpleName: update
p286
Vinsert
p287
I8
VBlock
p288
tp289
I137
s(Vinsert
p290
I42
VSimpleName: getInstance
p291
Vinsert
p292
I43
VSimpleType: Spannable
p293
tp294
I2
s(g144
I42
g145
Vinsert
p295
I42
VSimpleName: mPopupWindow
p296
tp297
I11
s(Vinsert
p298
I42
VSimpleName: release
p299
Vinsert
p300
I58
VVariableDeclarationExpression
p301
tp302
I5
s(Vinsert
p303
I42
VSimpleName: getString
p304
Vinsert
p305
I42
VSimpleName: JSONObject
p306
tp307
I13
s(Vinsert
p308
I42
VSimpleName: wait
p309
Vinsert
p310
I42
VSimpleName: INDEFINITE_TIME
p311
tp312
I2
s(Vinsert
p313
I42
VSimpleName: clearCanvas
p314
Vinsert
p315
I7
VAssignment: =
p316
tp317
I35
s(Vinsert
p318
I42
VSimpleName: release
p319
Vinsert
p320
I31
VMethodDeclaration
p321
tp322
I13
s(Vinsert
p323
I42
VSimpleName: contains
p324
Vinsert
p325
I42
VSimpleName: BaseDanmaku
p326
tp327
I5
s(Vinsert
p328
I42
VSimpleName: onDanmakuConfigChanged
p329
Vinsert
p330
I42
VSimpleName: config
p331
tp332
I7
s(g41
I42
g42
Vinsert
p333
I54
VTryStatement
p334
tp335
I7
s(g114
I42
g115
Vinsert
p336
I43
VSimpleType: Thread
p337
tp338
I262
s(g290
I42
g291
Vinsert
p339
I21
VExpressionStatement
p340
tp341
I1
s(Vinsert
p342
I42
VSimpleName: getScheme
p343
Vinsert
p344
I83
VModifier: public
p345
tp346
I8
s(Vinsert
p347
I42
VSimpleName: clear
p348
Vinsert
p349
I42
VSimpleName: frameCount
p350
tp351
I3
s(Vinsert
p352
I42
VSimpleName: quit
p353
Vinsert
p354
I40
VQualifiedName: DrawHandler.STOP
p355
tp356
I4
s(Vinsert
p357
I42
VSimpleName: toggleDrawing
p358
Vinsert
p359
I43
VSimpleType: DanmakuTimer
p360
tp361
I26
s(Vinsert
p362
I42
VSimpleName: setTimer
p363
Vinsert
p364
I43
VSimpleType: DanmakuTimer
p365
tp366
I64
s(Vinsert
p367
I42
VSimpleName: lastInterval
p368
Vinsert
p369
I42
VSimpleName: d
p370
tp371
I2
s(g114
I42
g115
Vinsert
p372
I33
VNullLiteral
p373
tp374
I39
s(Vinsert
p375
I42
VSimpleName: eraseColor
p376
Vinsert
p377
I27
VInfixExpression: !=
p378
tp379
I4
s(Vinsert
p380
I42
VSimpleName: addDanmaku
p381
Vinsert
p382
I25
VIfStatement
p383
tp384
I3
s(g177
I42
g178
Vinsert
p385
I42
VSimpleName: event
p386
tp387
I8
s(Vinsert
p388
I42
VSimpleName: getDesiredWidth
p389
Vinsert
p390
I32
VMethodInvocation
p391
tp392
I1
s(Vinsert
p393
I42
VSimpleName: update
p394
Vinsert
p395
I27
VInfixExpression: !=
p396
tp397
I2
s(Vinsert
p398
I42
VSimpleName: result
p399
Vinsert
p400
I42
VSimpleName: consumer
p401
tp402
I4
s(g323
I42
g324
Vinsert
p403
I42
VSimpleName: item
p404
tp405
I4
s(Vinsert
p406
I42
VSimpleName: getBeginPoint
p407
Vinsert
p408
I2
VArrayAccess
p409
tp410
I6
s(g56
I42
g57
Vinsert
p411
I27
VInfixExpression: ==
p412
tp413
I7
s(g167
I42
g168
Vinsert
p414
I42
VSimpleName: mYOff
p415
tp416
I2
s(g406
I42
g407
Vinsert
p417
I42
VSimpleName: linePaths
p418
tp419
I2
s(Vinsert
p420
I42
VSimpleName: i
p421
Vinsert
p422
I31
VMethodDeclaration
p423
tp424
I5
s(Vinsert
p425
I42
VSimpleName: requestClearAll
p426
Vinsert
p427
I39
VPrimitiveType: void
p428
tp429
I6
s(Vinsert
p430
I42
VSimpleName: begin
p431
Vinsert
p432
I42
VSimpleName: AndroidCounter
p433
tp434
I105
s(g265
I42
g266
Vinsert
p435
I40
VQualifiedName: danmaku.lines
p436
tp437
I2
s(Vinsert
p438
I42
VSimpleName: i
p439
Vinsert
p440
I21
VExpressionStatement
p441
tp442
I79
s(g109
I42
g110
Vinsert
p443
I32
VMethodInvocation
p444
tp445
I1
s(Vinsert
p446
I42
VSimpleName: length
p447
Vinsert
p448
I43
VSimpleType: Attributes
p449
tp450
I12
s(Vinsert
p451
I42
VSimpleName: update
p452
Vinsert
p453
I39
VPrimitiveType: void
p454
tp455
I16
s(Vinsert
p456
I42
VSimpleName: clearCanvas
p457
Vinsert
p458
I21
VExpressionStatement
p459
tp460
I23
s(Vinsert
p461
I42
VSimpleName: getWidth
p462
Vinsert
p463
I27
VInfixExpression: <=
p464
tp465
I7
s(Vinsert
p466
I42
VSimpleName: start
p467
Vinsert
p468
I42
VSimpleName: MediaPlayer
p469
tp470
I3
s(g177
I42
g178
Vinsert
p471
I42
VSimpleName: mTouchHelper
p472
tp473
I6
s(g230
I42
g231
Vinsert
p474
I7
VAssignment: =
p475
tp476
I5
s(Vinsert
p477
I42
VSimpleName: isEmpty
p478
Vinsert
p479
I43
VSimpleType: BaseDanmaku
p480
tp481
I4
s(Vinsert
p482
I42
VSimpleName: invalidateDanmaku
p483
Vinsert
p484
I43
VSimpleType: BaseDanmaku
p485
tp486
I21
s(g124
I42
g125
Vinsert
p487
I42
VSimpleName: SystemClock
p488
tp489
I7
s(Vinsert
p490
I42
VSimpleName: subSet
p491
Vinsert
p492
I59
VVariableDeclarationFragment
p493
tp494
I3
s(Vinsert
p495
I42
VSimpleName: onDanmakuAdd
p496
Vinsert
p497
I8
VBlock
p498
tp499
I4
s(Vinsert
p500
I42
VSimpleName: indexOf
p501
Vinsert
p502
I61
VWhileStatement
p503
tp504
I3
s(g255
I42
g256
Vinsert
p505
I41
VReturnStatement
p506
tp507
I2
s(g162
I42
g163
Vinsert
p508
I42
VSimpleName: hasNext
p509
tp510
I8
s(Vinsert
p511
I42
VSimpleName: toString
p512
Vinsert
p513
I45
VStringLiteral: "===== before create 50 DalvikBitmap"
p514
tp515
I6
s(Vinsert
p516
I42
VSimpleName: updateTimer
p517
Vinsert
p518
I27
VInfixExpression: !=
p519
tp520
I2
s(g124
I42
g125
Vinsert
p521
I31
VMethodDeclaration
p522
tp523
I6
s(g212
I42
g213
Vinsert
p524
I27
VInfixExpression: ==
p525
tp526
I7
s(Vinsert
p527
I42
VSimpleName: updateMaxDanmakuDuration
p528
Vinsert
p529
I27
VInfixExpression: !=
p530
tp531
I2
s(Vinsert
p532
I42
VSimpleName: createDanmaku
p533
Vinsert
p534
I59
VVariableDeclarationFragment
p535
tp536
I2
s(g167
I42
g168
Vinsert
p537
I33
VNullLiteral
p538
tp539
I5
s(g197
I42
g198
Vinsert
p540
I21
VExpressionStatement
p541
tp542
I6
s(Vinsert
p543
I42
VSimpleName: sendEmptyMessage
p544
Vinsert
p545
I33
VNullLiteral
p546
tp547
I20
s(g119
I42
g120
Vinsert
p548
I32
VMethodInvocation
p549
tp550
I10
s(Vinsert
p551
I42
VSimpleName: forEach
p552
Vinsert
p553
I42
VSimpleName: danmaku
p554
tp555
I50
s(g532
I42
g533
Vinsert
p556
I42
VSimpleName: v
p557
tp558
I5
s(g543
I42
g544
Vinsert
p559
I39
VPrimitiveType: void
p560
tp561
I3
s(g220
I42
g221
Vinsert
p562
I42
VSimpleName: UPDATE
p563
tp564
I4
s(g313
I42
g314
Vinsert
p565
I42
VSimpleName: currentTimeMillis
p566
tp567
I19
s(Vinsert
p568
I42
VSimpleName: alignBottom
p569
Vinsert
p570
I42
VSimpleName: mRenderer
p571
tp572
I3
s(Vinsert
p573
I42
VSimpleName: getExtraData
p574
Vinsert
p575
I11
VCastExpression
p576
tp577
I2
s(Vinsert
p578
I42
VSimpleName: lockCanvas
p579
Vinsert
p580
I32
VMethodInvocation
p581
tp582
I6
s(Vinsert
p583
I42
VSimpleName: put
p584
Vinsert
p585
I40
VQualifiedName: danmaku.paintHeight
p586
tp587
I2
s(Vinsert
p588
I42
VSimpleName: isPrepared
p589
Vinsert
p590
I33
VNullLiteral
p591
tp592
I1
s(g84
I42
g85
Vinsert
p593
I33
VNullLiteral
p594
tp595
I13
s(g192
I42
g193
Vinsert
p596
I42
VSimpleName: Float
p597
tp598
I1
s(g250
I42
g251
Vinsert
p599
I42
VSimpleName: String
p600
tp601
I6
s(Vinsert
p602
I42
VSimpleName: isRecycled
p603
Vinsert
p604
I42
VSimpleName: bufferBitmap
p605
tp606
I8
s(g352
I42
g353
Vinsert
p607
I42
VSimpleName: mDrawThread
p608
tp609
I3
s(Vinsert
p610
I42
VSimpleName: postDelayed
p611
Vinsert
p612
I32
VMethodInvocation
p613
tp614
I1
s(Vinsert
p615
I42
VSimpleName: add
p616
Vinsert
p617
I42
VSimpleName: ArrayList
p618
tp619
I6
s(g342
I42
g343
Vinsert
p620
I42
VSimpleName: fillStreamFromUri
p621
tp622
I6
s(Vinsert
p623
I42
VSimpleName: equalsIgnoreCase
p624
Vinsert
p625
I42
VSimpleName: tag
p626
tp627
I6
s(g551
I42
g552
Vinsert
p628
I42
VSimpleName: ACTION_REMOVE
p629
tp630
I30
s(g225
I42
g226
Vinsert
p631
I31
VMethodDeclaration
p632
tp633
I7
s(g172
I42
g173
Vinsert
p634
I8
VBlock
p635
tp636
I34
s(Vinsert
p637
I42
VSimpleName: close
p638
Vinsert
p639
I43
VSimpleType: OutputStream
p640
tp641
I6
s(g46
I42
g47
Vinsert
p642
I32
VMethodInvocation
p643
tp644
I7
s(Vinsert
p645
I42
VSimpleName: setScrollSpeedFactor
p646
Vinsert
p647
I42
VSimpleName: Override
p648
tp649
I69
s(g477
I42
g478
Vinsert
p650
I42
VSimpleName: subDanmakus
p651
tp652
I3
s(g109
I42
g110
Vinsert
p653
I8
VBlock
p654
tp655
I5
s(Vinsert
p656
I42
VSimpleName: add
p657
Vinsert
p658
I34
VNumberLiteral: 1000
p659
tp660
I7
s(Vinsert
p661
I42
VSimpleName: equals
p662
Vinsert
p663
I9
VBooleanLiteral: false
p664
tp665
I133
s(g26
I42
g27
Vinsert
p666
I27
VInfixExpression: <
p667
tp668
I3
s(g568
I42
g569
Vinsert
p669
I42
VSimpleName: values
p670
tp671
I6
s(Vinsert
p672
I42
VSimpleName: isTimeOut
p673
Vinsert
p674
I42
VSimpleName: BIND_CACHE
p675
tp676
I6
s(g367
I42
g368
Vinsert
p677
I27
VInfixExpression: &&
p678
tp679
I250
s(Vinsert
p680
I42
VSimpleName: inflate
p681
Vinsert
p682
I42
VSimpleName: menu
p683
tp684
I4
s(Vinsert
p685
I42
VSimpleName: update
p686
Vinsert
p687
I42
VSimpleName: what
p688
tp689
I10
s(Vinsert
p690
I42
VSimpleName: enableMultiThread
p691
Vinsert
p692
I42
VSimpleName: mDanmakuView
p693
tp694
I9
s(Vinsert
p695
I42
VSimpleName: requestRender
p696
Vinsert
p697
I27
VInfixExpression: !=
p698
tp699
I2
s(Vinsert
p700
I42
VSimpleName: currentTimeMillis
p701
Vinsert
p702
I42
VSimpleName: BaseDanmaku
p703
tp704
I4
s(Vinsert
p705
I42
VSimpleName: geCurrenttTime
p706
Vinsert
p707
I39
VPrimitiveType: long
p708
tp709
I6
s(g69
I42
g70
Vinsert
p710
I27
VInfixExpression: !=
p711
tp712
I2
s(Vinsert
p713
I42
VSimpleName: obtainMessage
p714
Vinsert
p715
I42
VSimpleName: mHandler
p716
tp717
I3
s(Vinsert
p718
I42
VSimpleName: clearTimeOutAndFilteredCaches
p719
Vinsert
p720
I40
VQualifiedName: mContext.cachingPolicy.bitsPerPixelOfCache
p721
tp722
I11
s(g466
I42
g467
Vinsert
p723
I83
VModifier: public
p724
tp725
I6
s(Vinsert
p726
I42
VSimpleName: onPlayStateChanged
p727
Vinsert
p728
I32
VMethodInvocation
p729
tp730
I51
s(g500
I42
g501
Vinsert
p731
I42
VSimpleName: String
p732
tp733
I7
s(Vinsert
p734
I42
VSimpleName: getDisplayer
p735
Vinsert
p736
I40
VQualifiedName: mContext.mGlobalFlagValues
p737
tp738
I424
s(g357
I42
g358
Vinsert
p739
I42
VSimpleName: timer
p740
tp741
I25
s(g212
I42
g213
Vinsert
p742
I42
VSimpleName: context
p743
tp744
I2
s(g456
I42
g457
Vinsert
p745
I25
VIfStatement
p746
tp747
I3
s(g568
I42
g569
Vinsert
p748
I8
VBlock
p749
tp750
I4
s(g46
I42
g47
Vinsert
p751
I42
VSimpleName: cache
p752
tp753
I9
s(Vinsert
p754
I42
VSimpleName: release
p755
Vinsert
p756
I33
VNullLiteral
p757
tp758
I4
s(g255
I42
g256
Vinsert
p759
I42
VSimpleName: DrawingCacheHolder
p760
tp761
I7
s(Vinsert
p762
I42
VSimpleName: iterator
p763
Vinsert
p764
I8
VBlock
p765
tp766
I9
s(Vinsert
p767
I42
VSimpleName: equals
p768
Vinsert
p769
I40
VQualifiedName: android.os.Build.VERSION.RELEASE
p770
tp771
I6
s(Vinsert
p772
I42
VSimpleName: pause
p773
Vinsert
p774
I42
VSimpleName: onPause
p775
tp776
I6
s(Vinsert
p777
I42
VSimpleName: next
p778
Vinsert
p779
I42
VSimpleName: iterator
p780
tp781
I7
s(Vinsert
p782
I42
VSimpleName: e
p783
Vinsert
p784
I42
VSimpleName: drawColor
p785
tp786
I5
s(Vinsert
p787
I42
VSimpleName: clear
p788
Vinsert
p789
I42
VSimpleName: DanmakusRetainer
p790
tp791
I12
s(Vinsert
p792
I42
VSimpleName: getDuration
p793
Vinsert
p794
I42
VSimpleName: Duration
p795
tp796
I2
s(g129
I42
g130
Vinsert
p797
I8
VBlock
p798
tp799
I5
s(g578
I42
g579
Vinsert
p800
I8
VBlock
p801
tp802
I10
s(Vinsert
p803
I42
VSimpleName: size
p804
Vinsert
p805
I42
VSimpleName: removeAllReferences
p806
tp807
I7
s(Vinsert
p808
I42
VSimpleName: add
p809
Vinsert
p810
I42
VSimpleName: clearCanvas
p811
tp812
I4
s(g290
I42
g291
Vinsert
p813
I42
VSimpleName: Spannable
p814
tp815
I2
s(g1
I42
g2
Vinsert
p816
I7
VAssignment: =
p817
tp818
I5
s(Vinsert
p819
I42
VSimpleName: update
p820
Vinsert
p821
I83
VModifier: private
p822
tp823
I66
s(g124
I42
g125
Vinsert
p824
I8
VBlock
p825
tp826
I1
s(Vinsert
p827
I42
VSimpleName: clearDanmakusOnScreen
p828
Vinsert
p829
I39
VPrimitiveType: void
p830
tp831
I10
s(Vinsert
p832
I42
VSimpleName: onClick
p833
Vinsert
p834
I27
VInfixExpression: !=
p835
tp836
I2
s(Vinsert
p837
I42
VSimpleName: getCurrentTime
p838
Vinsert
p839
I32
VMethodInvocation
p840
tp841
I1
s(Vinsert
p842
I42
VSimpleName: getContext
p843
Vinsert
p844
I11
VCastExpression
p845
tp846
I2
s(g425
I42
g426
Vinsert
p847
I83
VModifier: public
p848
tp849
I7
s(g367
I42
g368
Vinsert
p850
I38
VPrefixExpression: !
p851
tp852
I248
s(g26
I42
g27
Vinsert
p853
I42
VSimpleName: size
p854
tp855
I10
s(Vinsert
p856
I42
VSimpleName: getWidth
p857
Vinsert
p858
I27
VInfixExpression: +
p859
tp860
I2
s(g685
I42
g686
Vinsert
p861
I34
VNumberLiteral: 0
p862
tp863
I7
s(g21
I42
g22
Vinsert
p864
I8
VBlock
p865
tp866
I12
s(g285
I42
g286
Vinsert
p867
I21
VExpressionStatement
p868
tp869
I129
s(g393
I42
g394
Vinsert
p870
I40
VQualifiedName: msg.obj
p871
tp872
I3
s(g527
I42
g528
Vinsert
p873
I7
VAssignment: =
p874
tp875
I5
s(g398
I42
g399
Vinsert
p876
I32
VMethodInvocation
p877
tp878
I6
s(g367
I42
g368
Vinsert
p879
I25
VIfStatement
p880
tp881
I9
s(Vinsert
p882
I42
VSimpleName: getNextPoolable
p883
Vinsert
p884
I7
VAssignment: =
p885
tp886
I6
s(g782
I42
g783
Vinsert
p887
I40
VQualifiedName: PorterDuff.Mode.CLEAR
p888
tp889
I4
s(Vinsert
p890
I42
VSimpleName: getString
p891
Vinsert
p892
I83
VModifier: public
p893
tp894
I6
s(Vinsert
p895
I42
VSimpleName: getSystemService
p896
Vinsert
p897
I41
VReturnStatement
p898
tp899
I6
s(g792
I42
g793
Vinsert
p900
I42
VSimpleName: SpecialDanmaku
p901
tp902
I4
s(g367
I42
g368
Vinsert
p903
I21
VExpressionStatement
p904
tp905
I2
s(g36
I42
g37
Vinsert
p906
I40
VQualifiedName: endItem.time
p907
tp908
I2
s(g500
I42
g501
Vinsert
p909
I34
VNumberLiteral: 0
p910
tp911
I3
s(Vinsert
p912
I42
VSimpleName: acquire
p913
Vinsert
p914
I41
VReturnStatement
p915
tp916
I2
s(g230
I42
g231
Vinsert
p917
I21
VExpressionStatement
p918
tp919
I5
s(g837
I42
g838
Vinsert
p920
I42
VSimpleName: mDanmakuView
p921
tp922
I1
s(g832
I42
g833
Vinsert
p923
I21
VExpressionStatement
p924
tp925
I151
s(Vinsert
p926
I42
VSimpleName: seek
p927
Vinsert
p928
I27
VInfixExpression: !=
p929
tp930
I2
s(g690
I42
g691
Vinsert
p931
I42
VSimpleName: findViewById
p932
tp933
I4
s(Vinsert
p934
I42
VSimpleName: size
p935
Vinsert
p936
I42
VSimpleName: item
p937
tp938
I6
s(Vinsert
p939
I42
VSimpleName: setTimer
p940
Vinsert
p941
I42
VSimpleName: parser
p942
tp943
I4
s(Vinsert
p944
I42
VSimpleName: add
p945
Vinsert
p946
I58
VVariableDeclarationExpression
p947
tp948
I6
s(Vinsert
p949
I42
VSimpleName: hideDanmakus
p950
Vinsert
p951
I27
VInfixExpression: ==
p952
tp953
I5
s(Vinsert
p954
I42
VSimpleName: setTransparency
p955
Vinsert
p956
I32
VMethodInvocation
p957
tp958
I1
s(Vinsert
p959
I42
VSimpleName: getScheme
p960
Vinsert
p961
I60
VVariableDeclarationStatement
p962
tp963
I6
s(g477
I42
g478
Vinsert
p964
I42
VSimpleName: ArrayList
p965
tp966
I5
s(Vinsert
p967
I42
VSimpleName: setOnClickListener
p968
Vinsert
p969
I21
VExpressionStatement
p970
tp971
I35
s(Vinsert
p972
I42
VSimpleName: currentTimeMillis
p973
Vinsert
p974
I39
VPrimitiveType: boolean
p975
tp976
I18
s(Vinsert
p977
I42
VSimpleName: getWidth
p978
Vinsert
p979
I34
VNumberLiteral: 0
p980
tp981
I5
s(g645
I42
g646
Vinsert
p982
I83
VModifier: protected
p983
tp984
I68
s(g420
I42
g421
Vinsert
p985
I1
VAnonymousClassDeclaration
p986
tp987
I5
s(Vinsert
p988
I42
VSimpleName: getFirst
p989
Vinsert
p990
I21
VExpressionStatement
p991
tp992
I7
s(Vinsert
p993
I42
VSimpleName: update
p994
Vinsert
p995
I42
VSimpleName: getCurrentPosition
p996
tp997
I2
s(Vinsert
p998
I42
VSimpleName: start
p999
Vinsert
p1000
I43
VSimpleType: HandlerThread
p1001
tp1002
I2
s(Vinsert
p1003
I42
VSimpleName: hashCode
p1004
Vinsert
p1005
I38
VPrefixExpression: -
p1006
tp1007
I2
s(g89
I42
g90
Vinsert
p1008
I25
VIfStatement
p1009
tp1010
I9
s(Vinsert
p1011
I42
VSimpleName: danmakuShown
p1012
Vinsert
p1013
I32
VMethodInvocation
p1014
tp1015
I1
s(Vinsert
p1016
I42
VSimpleName: equals
p1017
Vinsert
p1018
I40
VQualifiedName: danmaku.paintWidth
p1019
tp1020
I0
s(g260
I42
g261
Vinsert
p1021
I39
VPrimitiveType: void
p1022
tp1023
I7
s(g56
I42
g57
Vinsert
p1024
I33
VNullLiteral
p1025
tp1026
I6
s(g230
I42
g231
Vinsert
p1027
I42
VSimpleName: e
p1028
tp1029
I8
s(Vinsert
p1030
I42
VSimpleName: isDuplicate
p1031
Vinsert
p1032
I25
VIfStatement
p1033
tp1034
I6
s(Vinsert
p1035
I42
VSimpleName: quit
p1036
Vinsert
p1037
I42
VSimpleName: end
p1038
tp1039
I4
s(Vinsert
p1040
I42
VSimpleName: getHeight
p1041
Vinsert
p1042
I42
VSimpleName: min
p1043
tp1044
I9
s(g41
I42
g42
Vinsert
p1045
I42
VSimpleName: nativeBitmap
p1046
tp1047
I2
s(Vinsert
p1048
I42
VSimpleName: draw
p1049
Vinsert
p1050
I21
VExpressionStatement
p1051
tp1052
I1
s(Vinsert
p1053
I42
VSimpleName: getVisibleDanmakusOnTime
p1054
Vinsert
p1055
I42
VSimpleName: List
p1056
tp1057
I7
s(Vinsert
p1058
I42
VSimpleName: prepared
p1059
Vinsert
p1060
I31
VMethodDeclaration
p1061
tp1062
I183
s(Vinsert
p1063
I42
VSimpleName: decrementAndGet
p1064
Vinsert
p1065
I42
VSimpleName: mSize
p1066
tp1067
I157
s(g109
I42
g110
Vinsert
p1068
I42
VSimpleName: danmakuSync
p1069
tp1070
I8
s(g36
I42
g37
Vinsert
p1071
I42
VSimpleName: subItems
p1072
tp1073
I1
s(Vinsert
p1074
I42
VSimpleName: getFirst
p1075
Vinsert
p1076
I11
VCastExpression
p1077
tp1078
I3
s(Vinsert
p1079
I42
VSimpleName: setParser
p1080
Vinsert
p1081
I42
VSimpleName: prepare
p1082
tp1083
I152
s(Vinsert
p1084
I42
VSimpleName: isTimeOut
p1085
Vinsert
p1086
I42
VSimpleName: firstCache
p1087
tp1088
I10
s(g718
I42
g719
Vinsert
p1089
I32
VMethodInvocation
p1090
tp1091
I1
s(g1074
I42
g1075
Vinsert
p1092
I8
VBlock
p1093
tp1094
I4
s(Vinsert
p1095
I42
VSimpleName: drawDanmakus
p1096
Vinsert
p1097
I42
VSimpleName: drawTask
p1098
tp1099
I3
s(g949
I42
g950
Vinsert
p1100
I60
VVariableDeclarationStatement
p1101
tp1102
I3
s(g972
I42
g973
Vinsert
p1103
I27
VInfixExpression: ==
p1104
tp1105
I15
s(Vinsert
p1106
I42
VSimpleName: getRefreshArea
p1107
Vinsert
p1108
I42
VSimpleName: clearFlag
p1109
tp1110
I12
s(Vinsert
p1111
I42
VSimpleName: ascent
p1112
Vinsert
p1113
I27
VInfixExpression: -
p1114
tp1115
I4
s(g255
I42
g256
Vinsert
p1116
I27
VInfixExpression: ==
p1117
tp1118
I3
s(Vinsert
p1119
I42
VSimpleName: currentTimeMillis
p1120
Vinsert
p1121
I39
VPrimitiveType: int
p1122
tp1123
I7
s(g477
I42
g478
Vinsert
p1124
I43
VSimpleType: ArrayList
p1125
tp1126
I5
s(g144
I42
g145
Vinsert
p1127
I42
VSimpleName: dismiss
p1128
tp1129
I4
s(Vinsert
p1130
I42
VSimpleName: finitePool
p1131
Vinsert
p1132
I42
VSimpleName: Pools
p1133
tp1134
I1
s(g690
I42
g691
Vinsert
p1135
I25
VIfStatement
p1136
tp1137
I3
s(Vinsert
p1138
I42
VSimpleName: end
p1139
Vinsert
p1140
I42
VSimpleName: begin
p1141
tp1142
I41
s(Vinsert
p1143
I42
VSimpleName: update
p1144
Vinsert
p1145
I42
VSimpleName: currentTimeMillis
p1146
tp1147
I3
s(g713
I42
g714
Vinsert
p1148
I42
VSimpleName: addDanmaku
p1149
tp1150
I6
s(g157
I42
g158
Vinsert
p1151
I42
VSimpleName: equals
p1152
tp1153
I20
s(g1111
I42
g1112
Vinsert
p1154
I42
VSimpleName: strokeTop
p1155
tp1156
I5
s(g1048
I42
g1049
Vinsert
p1157
I27
VInfixExpression: ==
p1158
tp1159
I3
s(Vinsert
p1160
I42
VSimpleName: last
p1161
Vinsert
p1162
I42
VSimpleName: BaseDanmaku
p1163
tp1164
I5
s(g1048
I42
g1049
Vinsert
p1165
I42
VSimpleName: Canvas
p1166
tp1167
I6
s(g347
I42
g348
Vinsert
p1168
I37
VPostfixExpression: ++
p1169
tp1170
I2
s(g187
I42
g188
Vinsert
p1171
I44
VSingleVariableDeclaration
p1172
tp1173
I130
s(Vinsert
p1174
I42
VSimpleName: removeAllLiveDanmakus
p1175
Vinsert
p1176
I25
VIfStatement
p1177
tp1178
I6
s(g230
I42
g231
Vinsert
p1179
I32
VMethodInvocation
p1180
tp1181
I2
s(g114
I42
g115
Vinsert
p1182
I42
VSimpleName: mTimerThread
p1183
tp1184
I340
s(g602
I42
g603
Vinsert
p1185
I42
VSimpleName: Bitmap
p1186
tp1187
I6
s(g446
I42
g447
Vinsert
p1188
I42
VSimpleName: SAXException
p1189
tp1190
I8
s(g375
I42
g376
Vinsert
p1191
I38
VPrefixExpression: !
p1192
tp1193
I3
s(g637
I42
g638
Vinsert
p1194
I8
VBlock
p1195
tp1196
I7
s(g842
I42
g843
Vinsert
p1197
I36
VParenthesizedExpression
p1198
tp1199
I2
s(g1030
I42
g1031
Vinsert
p1200
I42
VSimpleName: obj2
p1201
tp1202
I4
s(Vinsert
p1203
I42
VSimpleName: drawColor
p1204
Vinsert
p1205
I42
VSimpleName: canvas
p1206
tp1207
I1
s(g1003
I42
g1004
Vinsert
p1208
I42
VSimpleName: obj1
p1209
tp1210
I1
s(Vinsert
p1211
I42
VSimpleName: parse
p1212
Vinsert
p1213
I14
VClassInstanceCreation
p1214
tp1215
I2
s(g1058
I42
g1059
Vinsert
p1216
I8
VBlock
p1217
tp1218
I1
s(g84
I42
g85
Vinsert
p1219
I21
VExpressionStatement
p1220
tp1221
I14
s(g129
I42
g130
Vinsert
p1222
I41
VReturnStatement
p1223
tp1224
I5
s(g31
I42
g32
Vinsert
p1225
I42
VSimpleName: bmp
p1226
tp1227
I9
s(g167
I42
g168
Vinsert
p1228
I42
VSimpleName: getXOff
p1229
tp1230
I3
s(g959
I42
g960
Vinsert
p1231
I43
VSimpleType: Uri
p1232
tp1233
I12
s(g124
I42
g125
Vinsert
p1234
I41
VReturnStatement
p1235
tp1236
I1
s(Vinsert
p1237
I42
VSimpleName: updateMeasureFlag
p1238
Vinsert
p1239
I42
VSimpleName: Boolean
p1240
tp1241
I5
s(g36
I42
g37
Vinsert
p1242
I42
VSimpleName: endTime
p1243
tp1244
I2
s(g1011
I42
g1012
Vinsert
p1245
I8
VBlock
p1246
tp1247
I4
s(g202
I42
g203
Vinsert
p1248
I25
VIfStatement
p1249
tp1250
I11
s(g998
I42
g999
Vinsert
p1251
I42
VSimpleName: mDrawThread
p1252
tp1253
I4
s(g782
I42
g783
Vinsert
p1254
I42
VSimpleName: startTime
p1255
tp1256
I9
s(Vinsert
p1257
I42
VSimpleName: isEmpty
p1258
Vinsert
p1259
I42
VSimpleName: mContext
p1260
tp1261
I86
s(g645
I42
g646
Vinsert
p1262
I78
VMarkerAnnotation
p1263
tp1264
I69
s(g1106
I42
g1107
Vinsert
p1265
I60
VVariableDeclarationStatement
p1266
tp1267
I3
s(g124
I42
g125
Vinsert
p1268
I66
VTextElement: Created by ch on 15-12-9.
p1269
tp1270
I8
s(Vinsert
p1271
I42
VSimpleName: isEmpty
p1272
Vinsert
p1273
I39
VPrimitiveType: long
p1274
tp1275
I12
s(g89
I42
g90
Vinsert
p1276
I59
VVariableDeclarationFragment
p1277
tp1278
I357
s(g139
I42
g140
Vinsert
p1279
I42
VSimpleName: holder
p1280
tp1281
I2
s(g939
I42
g940
Vinsert
p1282
I83
VModifier: protected
p1283
tp1284
I7
s(g240
I42
g241
Vinsert
p1285
I42
VSimpleName: height
p1286
tp1287
I7
s(g285
I42
g286
Vinsert
p1288
I32
VMethodInvocation
p1289
tp1290
I300
s(g144
I42
g145
Vinsert
p1291
I27
VInfixExpression: !=
p1292
tp1293
I8
s(Vinsert
p1294
I42
VSimpleName: get
p1295
Vinsert
p1296
I43
VSimpleType: StaticLayout
p1297
tp1298
I7
s(g323
I42
g324
Vinsert
p1299
I33
VNullLiteral
p1300
tp1301
I1
s(g1138
I42
g1139
Vinsert
p1302
I59
VVariableDeclarationFragment
p1303
tp1304
I107
s(Vinsert
p1305
I42
VSimpleName: setTimer
p1306
Vinsert
p1307
I42
VSimpleName: item
p1308
tp1309
I8
s(g197
I42
g198
Vinsert
p1310
I42
VSimpleName: itr
p1311
tp1312
I8
s(g466
I42
g467
Vinsert
p1313
I43
VSimpleType: MediaPlayer
p1314
tp1315
I3
s(Vinsert
p1316
I42
VSimpleName: setVideoPath
p1317
Vinsert
p1318
I33
VNullLiteral
p1319
tp1320
I1
s(g695
I42
g696
Vinsert
p1321
I83
VModifier: final
p1322
tp1323
I384
s(g754
I42
g755
Vinsert
p1324
I21
VExpressionStatement
p1325
tp1326
I23
s(Vinsert
p1327
I42
VSimpleName: measureText
p1328
Vinsert
p1329
I27
VInfixExpression: +
p1330
tp1331
I1
s(g275
I42
g276
Vinsert
p1332
I43
VSimpleType: Danmakus
p1333
tp1334
I11
s(Vinsert
p1335
I42
VSimpleName: update
p1336
Vinsert
p1337
I42
VSimpleName: mRenderingState
p1338
tp1339
I68
s(Vinsert
p1340
I42
VSimpleName: getString
p1341
Vinsert
p1342
I7
VAssignment: =
p1343
tp1344
I5
s(g406
I42
g407
Vinsert
p1345
I27
VInfixExpression: <
p1346
tp1347
I7
s(g718
I42
g719
Vinsert
p1348
I34
VNumberLiteral: 2
p1349
tp1350
I9
s(g220
I42
g221
Vinsert
p1351
I42
VSimpleName: mDanmakuView
p1352
tp1353
I6
s(g26
I42
g27
Vinsert
p1354
I42
VSimpleName: ANTI_ALIAS_DISABLE_SIZE
p1355
tp1356
I2
s(g1011
I42
g1012
Vinsert
p1357
I42
VSimpleName: danmaku
p1358
tp1359
I4
s(g787
I42
g788
Vinsert
p1360
I42
VSimpleName: clearRetainer
p1361
tp1362
I2
s(g934
I42
g935
Vinsert
p1363
I42
VSimpleName: size
p1364
tp1365
I11
s(g967
I42
g968
Vinsert
p1366
I42
VSimpleName: Button
p1367
tp1368
I114
s(g230
I42
g231
Vinsert
p1369
I83
VModifier: private
p1370
tp1371
I7
s(g255
I42
g256
Vinsert
p1372
I32
VMethodInvocation
p1373
tp1374
I1
s(Vinsert
p1375
I42
VSimpleName: getDefault
p1376
Vinsert
p1377
I39
VPrimitiveType: int
p1378
tp1379
I6
s(g726
I42
g727
Vinsert
p1380
I21
VExpressionStatement
p1381
tp1382
I51
s(g328
I42
g329
Vinsert
p1383
I42
VSimpleName: Object
p1384
tp1385
I4
s(g787
I42
g788
Vinsert
p1386
I39
VPrimitiveType: void
p1387
tp1388
I7
s(Vinsert
p1389
I42
VSimpleName: currentTimeMillis
p1390
Vinsert
p1391
I43
VSimpleType: AndroidCounter
p1392
tp1393
I4
s(g527
I42
g528
Vinsert
p1394
I25
VIfStatement
p1395
tp1396
I3
s(g734
I42
g735
Vinsert
p1397
I44
VSingleVariableDeclaration
p1398
tp1399
I553
s(g157
I42
g158
Vinsert
p1400
I7
VAssignment: =
p1401
tp1402
I4
s(g207
I42
g208
Vinsert
p1403
I42
VSimpleName: System
p1404
tp1405
I5
s(Vinsert
p1406
I42
VSimpleName: size
p1407
Vinsert
p1408
I42
VSimpleName: items
p1409
tp1410
I105
s(g578
I42
g579
Vinsert
p1411
I25
VIfStatement
p1412
tp1413
I6
s(g803
I42
g804
Vinsert
p1414
I42
VSimpleName: cache
p1415
tp1416
I5
s(g934
I42
g935
Vinsert
p1417
I27
VInfixExpression: +
p1418
tp1419
I4
s(Vinsert
p1420
I42
VSimpleName: update
p1421
Vinsert
p1422
I40
VQualifiedName: mCacheTimer.currMillisecond
p1423
tp1424
I1
s(Vinsert
p1425
I42
VSimpleName: add
p1426
Vinsert
p1427
I27
VInfixExpression: >
p1428
tp1429
I16
s(g726
I42
g727
Vinsert
p1430
I42
VSimpleName: onPlayStateChanged
p1431
tp1432
I49
s(g357
I42
g358
Vinsert
p1433
I78
VMarkerAnnotation
p1434
tp1435
I30
s(g949
I42
g950
Vinsert
p1436
I42
VSimpleName: hideAndPauseDrawTask
p1437
tp1438
I7
s(g588
I42
g589
Vinsert
p1439
I32
VMethodInvocation
p1440
tp1441
I1
s(Vinsert
p1442
I42
VSimpleName: getWidth
p1443
Vinsert
p1444
I22
VFieldAccess
p1445
tp1446
I4
s(Vinsert
p1447
I42
VSimpleName: schedule
p1448
Vinsert
p1449
I43
VSimpleType: Timer
p1450
tp1451
I2
s(g79
I42
g80
Vinsert
p1452
I32
VMethodInvocation
p1453
tp1454
I237
s(Vinsert
p1455
I42
VSimpleName: createBitmap
p1456
Vinsert
p1457
I21
VExpressionStatement
p1458
tp1459
I12
s(g46
I42
g47
Vinsert
p1460
I42
VSimpleName: IDrawingCache
p1461
tp1462
I7
s(g438
I42
g439
Vinsert
p1463
I60
VVariableDeclarationStatement
p1464
tp1465
I85
s(g202
I42
g203
Vinsert
p1466
I22
VFieldAccess
p1467
tp1468
I1
s(g718
I42
g719
Vinsert
p1469
I27
VInfixExpression: *
p1470
tp1471
I10
s(g1425
I42
g1426
Vinsert
p1472
I8
VBlock
p1473
tp1474
I7
s(Vinsert
p1475
I42
VSimpleName: last
p1476
Vinsert
p1477
I74
VParameterizedType: SortedSet<BaseDanmaku>
p1478
tp1479
I3
s(g842
I42
g843
Vinsert
p1480
I32
VMethodInvocation
p1481
tp1482
I17
s(g645
I42
g646
Vinsert
p1483
I32
VMethodInvocation
p1484
tp1485
I1
s(g79
I42
g80
Vinsert
p1486
I42
VSimpleName: stime
p1487
tp1488
I2
s(Vinsert
p1489
I42
VSimpleName: sleep
p1490
Vinsert
p1491
I32
VMethodInvocation
p1492
tp1493
I1
s(g298
I42
g299
Vinsert
p1494
I37
VPostfixExpression: ++
p1495
tp1496
I2
s(g1340
I42
g1341
Vinsert
p1497
I43
VSimpleType: NullPointerException
p1498
tp1499
I6
s(g808
I42
g809
Vinsert
p1500
I42
VSimpleName: mTimer
p1501
tp1502
I3
s(Vinsert
p1503
I42
VSimpleName: release
p1504
Vinsert
p1505
I60
VVariableDeclarationStatement
p1506
tp1507
I8
s(g1160
I42
g1161
Vinsert
p1508
I27
VInfixExpression: -
p1509
tp1510
I60
s(g430
I42
g431
Vinsert
p1511
I32
VMethodInvocation
p1512
tp1513
I1
s(g680
I42
g681
Vinsert
p1514
I31
VMethodDeclaration
p1515
tp1516
I14
s(Vinsert
p1517
I42
VSimpleName: set
p1518
Vinsert
p1519
I21
VExpressionStatement
p1520
tp1521
I69
s(g856
I42
g857
Vinsert
p1522
I39
VPrimitiveType: float
p1523
tp1524
I6
s(Vinsert
p1525
I42
VSimpleName: getWidth
p1526
Vinsert
p1527
I42
VSimpleName: height
p1528
tp1529
I30
s(g511
I42
g512
Vinsert
p1530
I59
VVariableDeclarationFragment
p1531
tp1532
I2
s(g1048
I42
g1049
Vinsert
p1533
I32
VMethodInvocation
p1534
tp1535
I1
s(g451
I42
g452
Vinsert
p1536
I59
VVariableDeclarationFragment
p1537
tp1538
I75
s(g495
I42
g496
Vinsert
p1539
I32
VMethodInvocation
p1540
tp1541
I1
s(g1211
I42
g1212
Vinsert
p1542
I43
VSimpleType: JSONObjectSource
p1543
tp1544
I2
s(Vinsert
p1545
I42
VSimpleName: measureText
p1546
Vinsert
p1547
I60
VVariableDeclarationStatement
p1548
tp1549
I5
s(g270
I42
g271
Vinsert
p1550
I59
VVariableDeclarationFragment
p1551
tp1552
I5
s(g375
I42
g376
Vinsert
p1553
I42
VSimpleName: isRecycled
p1554
tp1555
I2
s(g1305
I42
g1306
Vinsert
p1556
I33
VNullLiteral
p1557
tp1558
I4
s(Vinsert
p1559
I42
VSimpleName: log
p1560
Vinsert
p1561
I32
VMethodInvocation
p1562
tp1563
I7
s(g1048
I42
g1049
Vinsert
p1564
I25
VIfStatement
p1565
tp1566
I4
s(g1545
I42
g1546
Vinsert
p1567
I42
VSimpleName: Paint
p1568
tp1569
I5
s(Vinsert
p1570
I42
VSimpleName: setOnClickListener
p1571
Vinsert
p1572
I42
VSimpleName: mBtnShowDanmaku
p1573
tp1574
I5
s(Vinsert
p1575
I42
VSimpleName: getConfig
p1576
Vinsert
p1577
I32
VMethodInvocation
p1578
tp1579
I2
s(g959
I42
g960
Vinsert
p1580
I43
VSimpleType: String
p1581
tp1582
I6
s(Vinsert
p1583
I42
VSimpleName: drawText
p1584
Vinsert
p1585
I42
VSimpleName: Paint
p1586
tp1587
I5
s(Vinsert
p1588
I42
VSimpleName: abs
p1589
Vinsert
p1590
I21
VExpressionStatement
p1591
tp1592
I23
s(g1030
I42
g1031
Vinsert
p1593
I32
VMethodInvocation
p1594
tp1595
I2
s(g11
I42
g12
Vinsert
p1596
I8
VBlock
p1597
tp1598
I220
s(g1048
I42
g1049
Vinsert
p1599
I43
VSimpleType: Canvas
p1600
tp1601
I6
s(g1294
I42
g1295
Vinsert
p1602
I42
VSimpleName: SoftReference
p1603
tp1604
I5
s(g1327
I42
g1328
Vinsert
p1605
I42
VSimpleName: clearCanvas
p1606
tp1607
I5
s(g461
I42
g462
Vinsert
p1608
I33
VNullLiteral
p1609
tp1610
I99
s(g207
I42
g208
Vinsert
p1611
I42
VSimpleName: danmakuList
p1612
tp1613
I13
s(g912
I42
g913
Vinsert
p1614
I42
VSimpleName: mLock
p1615
tp1616
I12
s(g290
I42
g291
Vinsert
p1617
I43
VSimpleType: SpannableStringBuilder
p1618
tp1619
I4
s(g939
I42
g940
Vinsert
p1620
I42
VSimpleName: BaseDanmakuParser
p1621
tp1622
I4
s(g235
I42
g236
Vinsert
p1623
I31
VMethodDeclaration
p1624
tp1625
I7
s(g1
I42
g2
Vinsert
p1626
I42
VSimpleName: linePaths
p1627
tp1628
I7
s(Vinsert
p1629
I42
VSimpleName: getOnDanmakuClickListener
p1630
Vinsert
p1631
I21
VExpressionStatement
p1632
tp1633
I1
s(g977
I42
g978
Vinsert
p1634
I32
VMethodInvocation
p1635
tp1636
I14
s(Vinsert
p1637
I42
VSimpleName: getResources
p1638
Vinsert
p1639
I7
VAssignment: =
p1640
tp1641
I6
s(g1058
I42
g1059
Vinsert
p1642
I42
VSimpleName: onClick
p1643
tp1644
I180
s(g1119
I42
g1120
Vinsert
p1645
I43
VSimpleType: Long
p1646
tp1647
I11
s(g934
I42
g935
Vinsert
p1648
I59
VVariableDeclarationFragment
p1649
tp1650
I8
s(g551
I42
g552
Vinsert
p1651
I42
VSimpleName: accept
p1652
tp1653
I52
s(Vinsert
p1654
I42
VSimpleName: isStop
p1655
Vinsert
p1656
I12
VCatchClause
p1657
tp1658
I6
s(g1294
I42
g1295
Vinsert
p1659
I42
VSimpleName: staticLayout
p1660
tp1661
I2
s(g1211
I42
g1212
Vinsert
p1662
I42
VSimpleName: String
p1663
tp1664
I7
s(g230
I42
g231
Vinsert
p1665
I42
VSimpleName: stream
p1666
tp1667
I7
s(g172
I42
g173
Vinsert
p1668
I27
VInfixExpression: ||
p1669
tp1670
I17
s(g792
I42
g793
Vinsert
p1671
I32
VMethodInvocation
p1672
tp1673
I1
s(Vinsert
p1674
I42
VSimpleName: currentTimeMillis
p1675
Vinsert
p1676
I8
VBlock
p1677
tp1678
I31
s(g255
I42
g256
Vinsert
p1679
I42
VSimpleName: holder
p1680
tp1681
I10
s(g225
I42
g226
Vinsert
p1682
I42
VSimpleName: danmakus
p1683
tp1684
I3
s(Vinsert
p1685
I42
VSimpleName: printStackTrace
p1686
Vinsert
p1687
I42
VSimpleName: UPDATE
p1688
tp1689
I8
s(Vinsert
p1690
I42
VSimpleName: printStackTrace
p1691
Vinsert
p1692
I34
VNumberLiteral: 5
p1693
tp1694
I3
s(g573
I42
g574
Vinsert
p1695
I59
VVariableDeclarationFragment
p1696
tp1697
I3
s(g430
I42
g431
Vinsert
p1698
I42
VSimpleName: count
p1699
tp1700
I9
s(g954
I42
g955
Vinsert
p1701
I31
VMethodDeclaration
p1702
tp1703
I38
s(g1425
I42
g1426
Vinsert
p1704
I42
VSimpleName: mDrawTimes
p1705
tp1706
I83
s(g477
I42
g478
Vinsert
p1707
I42
VSimpleName: BaseDanmaku
p1708
tp1709
I4
s(g323
I42
g324
Vinsert
p1710
I52
VThisExpression
p1711
tp1712
I3
s(g79
I42
g80
Vinsert
p1713
I60
VVariableDeclarationStatement
p1714
tp1715
I21
s(Vinsert
p1716
I42
VSimpleName: last
p1717
Vinsert
p1718
I25
VIfStatement
p1719
tp1720
I66
s(g157
I42
g158
Vinsert
p1721
I40
VQualifiedName: DanmakuConfigTag.DUPLICATE_MERGING_ENABLED
p1722
tp1723
I20
s(g1011
I42
g1012
Vinsert
p1724
I39
VPrimitiveType: void
p1725
tp1726
I7
s(g31
I42
g32
Vinsert
p1727
I42
VSimpleName: left
p1728
tp1729
I7
s(g754
I42
g755
Vinsert
p1730
I27
VInfixExpression: !=
p1731
tp1732
I8
s(g357
I42
g358
Vinsert
p1733
I42
VSimpleName: mDanmakuView
p1734
tp1735
I1
s(g972
I42
g973
Vinsert
p1736
I42
VSimpleName: mBaseTime
p1737
tp1738
I2
s(g1111
I42
g1112
Vinsert
p1739
I42
VSimpleName: top
p1740
tp1741
I2
s(g265
I42
g266
Vinsert
p1742
I42
VSimpleName: paint
p1743
tp1744
I6
s(g1335
I42
g1336
Vinsert
p1745
I42
VSimpleName: mStartTimer
p1746
tp1747
I1
s(g944
I42
g945
Vinsert
p1748
I34
VNumberLiteral: 0
p1749
tp1750
I4
s(g212
I42
g213
Vinsert
p1751
I8
VBlock
p1752
tp1753
I10
s(g250
I42
g251
Vinsert
p1754
I39
VPrimitiveType: void
p1755
tp1756
I14
s(g99
I42
g100
Vinsert
p1757
I27
VInfixExpression: !=
p1758
tp1759
I6
s(g1545
I42
g1546
Vinsert
p1760
I42
VSimpleName: paint
p1761
tp1762
I5
s(g1035
I42
g1036
Vinsert
p1763
I83
VModifier: public
p1764
tp1765
I6
s(g645
I42
g646
Vinsert
p1766
I14
VClassInstanceCreation
p1767
tp1768
I64
s(g832
I42
g833
Vinsert
p1769
I42
VSimpleName: l
p1770
tp1771
I300
s(g1040
I42
g1041
Vinsert
p1772
I42
VSimpleName: max
p1773
tp1774
I10
s(g31
I42
g32
Vinsert
p1775
I42
VSimpleName: setBitmap
p1776
tp1777
I10
s(Vinsert
p1778
I42
VSimpleName: equals
p1779
Vinsert
p1780
I42
VSimpleName: isPreventOverlappingEnabled
p1781
tp1782
I401
s(g944
I42
g945
Vinsert
p1783
I39
VPrimitiveType: int
p1784
tp1785
I6
s(g114
I42
g115
Vinsert
p1786
I27
VInfixExpression: !=
p1787
tp1788
I40
s(g777
I42
g778
Vinsert
p1789
I42
VSimpleName: hasNext
p1790
tp1791
I4
s(g367
I42
g368
Vinsert
p1792
I42
VSimpleName: mNonBlockModeEnable
p1793
tp1794
I465
s(g842
I42
g843
Vinsert
p1795
I43
VSimpleType: GestureDetector
p1796
tp1797
I3
s(g139
I42
g140
Vinsert
p1798
I27
VInfixExpression: *
p1799
tp1800
I0
s(g1084
I42
g1085
Vinsert
p1801
I42
VSimpleName: level
p1802
tp1803
I3
s(g446
I42
g447
Vinsert
p1804
I60
VVariableDeclarationStatement
p1805
tp1806
I6
s(Vinsert
p1807
I42
VSimpleName: set
p1808
Vinsert
p1809
I44
VSingleVariableDeclaration
p1810
tp1811
I49
s(Vinsert
p1812
I42
VSimpleName: isDuplicate
p1813
Vinsert
p1814
I42
VSimpleName: enable
p1815
tp1816
I26
s(g1030
I42
g1031
Vinsert
p1817
I42
VSimpleName: mDuplicateMergingEnable
p1818
tp1819
I17
s(Vinsert
p1820
I42
VSimpleName: fix
p1821
Vinsert
p1822
I32
VMethodInvocation
p1823
tp1824
I1
s(g1588
I42
g1589
Vinsert
p1825
I7
VAssignment: =
p1826
tp1827
I10
s(g1237
I42
g1238
Vinsert
p1828
I40
VQualifiedName: msg.obj
p1829
tp1830
I4
s(g1211
I42
g1212
Vinsert
p1831
I54
VTryStatement
p1832
tp1833
I4
s(g1074
I42
g1075
Vinsert
p1834
I41
VReturnStatement
p1835
tp1836
I4
s(g1
I42
g2
Vinsert
p1837
I14
VClassInstanceCreation
p1838
tp1839
I3
s(g56
I42
g57
Vinsert
p1840
I8
VBlock
p1841
tp1842
I6
s(g1654
I42
g1655
Vinsert
p1843
I8
VBlock
p1844
tp1845
I27
s(g926
I42
g927
Vinsert
p1846
I42
VSimpleName: toTimeMills
p1847
tp1848
I5
s(g430
I42
g431
Vinsert
p1849
I14
VClassInstanceCreation
p1850
tp1851
I105
s(Vinsert
p1852
I42
VSimpleName: clear
p1853
Vinsert
p1854
I42
VSimpleName: mLastEndMills
p1855
tp1856
I206
s(Vinsert
p1857
I42
VSimpleName: getWidth
p1858
Vinsert
p1859
I42
VSimpleName: handler
p1860
tp1861
I4
s(g1143
I42
g1144
Vinsert
p1862
I9
VBooleanLiteral: false
p1863
tp1864
I7
s(g380
I42
g381
Vinsert
p1865
I42
VSimpleName: BaseDanmaku
p1866
tp1867
I5
s(g700
I42
g701
Vinsert
p1868
I43
VSimpleType: BaseDanmaku
p1869
tp1870
I4
s(Vinsert
p1871
I42
VSimpleName: e
p1872
Vinsert
p1873
I42
VSimpleName: e
p1874
tp1875
I29
s(Vinsert
p1876
I42
VSimpleName: next
p1877
Vinsert
p1878
I42
VSimpleName: Override
p1879
tp1880
I7
s(g21
I42
g22
Vinsert
p1881
I39
VPrimitiveType: long
p1882
tp1883
I8
s(g610
I42
g611
Vinsert
p1884
I27
VInfixExpression: >
p1885
tp1886
I6
s(g11
I42
g12
Vinsert
p1887
I39
VPrimitiveType: boolean
p1888
tp1889
I59
s(g89
I42
g90
Vinsert
p1890
I8
VBlock
p1891
tp1892
I9
s(g1442
I42
g1443
Vinsert
p1893
I42
VSimpleName: paintWidth
p1894
tp1895
I6
s(g615
I42
g616
Vinsert
p1896
I43
VSimpleType: ArrayList
p1897
tp1898
I6
s(g177
I42
g178
Vinsert
p1899
I21
VExpressionStatement
p1900
tp1901
I2
s(g235
I42
g236
Vinsert
p1902
I42
VSimpleName: Log
p1903
tp1904
I1
s(Vinsert
p1905
I42
VSimpleName: currentTimeMillis
p1906
Vinsert
p1907
I44
VSingleVariableDeclaration
p1908
tp1909
I4
s(g51
I42
g52
Vinsert
p1910
I7
VAssignment: -=
p1911
tp1912
I5
s(g772
I42
g773
Vinsert
p1913
I33
VNullLiteral
p1914
tp1915
I3
s(g1517
I42
g1518
Vinsert
p1916
I42
VSimpleName: requestBuild
p1917
tp1918
I2
s(g656
I42
g657
Vinsert
p1919
I7
VAssignment: =
p1920
tp1921
I6
s(g944
I42
g945
Vinsert
p1922
I42
VSimpleName: i
p1923
tp1924
I11
s(g511
I42
g512
Vinsert
p1925
I42
VSimpleName: sb
p1926
tp1927
I6
s(g1475
I42
g1476
Vinsert
p1928
I41
VReturnStatement
p1929
tp1930
I4
s(g623
I42
g624
Vinsert
p1931
I83
VModifier: public
p1932
tp1933
I16
s(g1629
I42
g1630
Vinsert
p1934
I42
VSimpleName: danmaku
p1935
tp1936
I5
s(g1525
I42
g1526
Vinsert
p1937
I27
VInfixExpression: !=
p1938
tp1939
I5
s(g1575
I42
g1576
Vinsert
p1940
I27
VInfixExpression: ==
p1941
tp1942
I8
s(g1211
I42
g1212
Vinsert
p1943
I42
VSimpleName: dataSource
p1944
tp1945
I3
s(g993
I42
g994
Vinsert
p1946
I41
VReturnStatement
p1947
tp1948
I6
s(g1074
I42
g1075
Vinsert
p1949
I25
VIfStatement
p1950
tp1951
I7
s(g139
I42
g140
Vinsert
p1952
I42
VSimpleName: mHolder
p1953
tp1954
I3
s(Vinsert
p1955
I42
VSimpleName: drawingFinished
p1956
Vinsert
p1957
I21
VExpressionStatement
p1958
tp1959
I1
s(g578
I42
g579
Vinsert
p1960
I38
VPrefixExpression: !
p1961
tp1962
I5
s(g109
I42
g110
Vinsert
p1963
I59
VVariableDeclarationFragment
p1964
tp1965
I6
s(g225
I42
g226
Vinsert
p1966
I42
VSimpleName: IDanmakus
p1967
tp1968
I4
s(Vinsert
p1969
I42
VSimpleName: updateVisibleFlag
p1970
Vinsert
p1971
I39
VPrimitiveType: void
p1972
tp1973
I6
s(Vinsert
p1974
I42
VSimpleName: iterator
p1975
Vinsert
p1976
I74
VParameterizedType: Iterator<DanmakuBase>
p1977
tp1978
I3
s(Vinsert
p1979
I42
VSimpleName: isTimeOut
p1980
Vinsert
p1981
I32
VMethodInvocation
p1982
tp1983
I14
s(g500
I42
g501
Vinsert
p1984
I59
VVariableDeclarationFragment
p1985
tp1986
I10
s(g104
I42
g105
Vinsert
p1987
I42
VSimpleName: removeMessages
p1988
tp1989
I6
s(Vinsert
p1990
I42
VSimpleName: hasNext
p1991
Vinsert
p1992
I32
VMethodInvocation
p1993
tp1994
I16
s(g1979
I42
g1980
Vinsert
p1995
I25
VIfStatement
p1996
tp1997
I9
s(Vinsert
p1998
I42
VSimpleName: getType
p1999
Vinsert
p2000
I43
VSimpleType: Integer
p2001
tp2002
I10
s(g583
I42
g584
Vinsert
p2003
I42
VSimpleName: lineCount
p2004
tp2005
I2
s(Vinsert
p2006
I42
VSimpleName: getDeclaredField
p2007
Vinsert
p2008
I42
VSimpleName: String
p2009
tp2010
I6
s(g926
I42
g927
Vinsert
p2011
I42
VSimpleName: requestSync
p2012
tp2013
I7
s(Vinsert
p2014
I42
VSimpleName: hasNext
p2015
Vinsert
p2016
I42
VSimpleName: it
p2017
tp2018
I6
s(Vinsert
p2019
I42
VSimpleName: abs
p2020
Vinsert
p2021
I42
VSimpleName: maxCacheDuration
p2022
tp2023
I4
s(g1340
I42
g1341
Vinsert
p2024
I33
VNullLiteral
p2025
tp2026
I7
s(g1305
I42
g1306
Vinsert
p2027
I25
VIfStatement
p2028
tp2029
I6
s(g177
I42
g178
Vinsert
p2030
I39
VPrimitiveType: boolean
p2031
tp2032
I14
s(g1583
I42
g1584
Vinsert
p2033
I42
VSimpleName: paint
p2034
tp2035
I4
s(g36
I42
g37
Vinsert
p2036
I42
VSimpleName: endItem
p2037
tp2038
I5
s(g11
I42
g12
Vinsert
p2039
I42
VSimpleName: totalDanmakuCount
p2040
tp2041
I14
s(g104
I42
g105
Vinsert
p2042
I34
VNumberLiteral: 0.5f
p2043
tp2044
I6
s(g1876
I42
g1877
Vinsert
p2045
I31
VMethodDeclaration
p2046
tp2047
I7
s(g1778
I42
g1779
Vinsert
p2048
I40
VQualifiedName: DanmakuConfigTag.MAXIMUN_LINES
p2049
tp2050
I2
s(g583
I42
g584
Vinsert
p2051
I42
VSimpleName: slopPixel
p2052
tp2053
I6
s(g21
I42
g22
Vinsert
p2054
I83
VModifier: public
p2055
tp2056
I15
s(g1871
I42
g1872
Vinsert
p2057
I42
VSimpleName: removeCallbacksAndMessages
p2058
tp2059
I3
s(g438
I42
g439
Vinsert
p2060
I8
VBlock
p2061
tp2062
I4
s(g1629
I42
g1630
Vinsert
p2063
I42
VSimpleName: getOnDanmakuClickListener
p2064
tp2065
I2
s(g1294
I42
g1295
Vinsert
p2066
I40
VQualifiedName: danmaku.obj
p2067
tp2068
I3
s(g1517
I42
g1518
Vinsert
p2069
I40
VQualifiedName: result.totalDanmakuCount
p2070
tp2071
I5
s(g1106
I42
g1107
Vinsert
p2072
I59
VVariableDeclarationFragment
p2073
tp2074
I2
s(g988
I42
g989
Vinsert
p2075
I59
VVariableDeclarationFragment
p2076
tp2077
I3
s(g1990
I42
g1991
Vinsert
p2078
I42
VSimpleName: iterator
p2079
tp2080
I6
s(g1237
I42
g1238
Vinsert
p2081
I11
VCastExpression
p2082
tp2083
I5
s(g255
I42
g256
Vinsert
p2084
I59
VVariableDeclarationFragment
p2085
tp2086
I6
s(Vinsert
p2087
I42
VSimpleName: e
p2088
Vinsert
p2089
I27
VInfixExpression: +
p2090
tp2091
I24
s(g89
I42
g90
Vinsert
p2092
I39
VPrimitiveType: int
p2093
tp2094
I358
s(Vinsert
p2095
I42
VSimpleName: clear
p2096
Vinsert
p2097
I9
VBooleanLiteral: true
p2098
tp2099
I5
s(g245
I42
g246
Vinsert
p2100
I42
VSimpleName: items
p2101
tp2102
I4
s(g1237
I42
g1238
Vinsert
p2103
I33
VNullLiteral
p2104
tp2105
I2
s(g656
I42
g657
Vinsert
p2106
I42
VSimpleName: gapTime
p2107
tp2108
I13
s(g1011
I42
g1012
Vinsert
p2109
I44
VSingleVariableDeclaration
p2110
tp2111
I5
s(g192
I42
g193
Vinsert
p2112
I32
VMethodInvocation
p2113
tp2114
I1
s(g1820
I42
g1821
Vinsert
p2115
I43
VSimpleType: RLDanmakusRetainer
p2116
tp2117
I2
s(g1979
I42
g1980
Vinsert
p2118
I59
VVariableDeclarationFragment
p2119
tp2120
I10
s(g89
I42
g90
Vinsert
p2121
I42
VSimpleName: drawTask
p2122
tp2123
I3
s(Vinsert
p2124
I42
VSimpleName: equals
p2125
Vinsert
p2126
I33
VNullLiteral
p2127
tp2128
I1
s(g1969
I42
g1970
Vinsert
p2129
I8
VBlock
p2130
tp2131
I2
s(g2006
I42
g2007
Vinsert
p2132
I32
VMethodInvocation
p2133
tp2134
I1
s(g1820
I42
g1821
Vinsert
p2135
I7
VAssignment: =
p2136
tp2137
I3
s(g1559
I42
g1560
Vinsert
p2138
I42
VSimpleName: canvas
p2139
tp2140
I12
s(g588
I42
g589
Vinsert
p2141
I48
VSuperMethodInvocation
p2142
tp2143
I4
s(g157
I42
g158
Vinsert
p2144
I25
VIfStatement
p2145
tp2146
I3
s(g1316
I42
g1317
Vinsert
p2147
I21
VExpressionStatement
p2148
tp2149
I2
s(Vinsert
p2150
I42
VSimpleName: getType
p2151
Vinsert
p2152
I42
VSimpleName: skip
p2153
tp2154
I10
s(g308
I42
g309
Vinsert
p2155
I32
VMethodInvocation
p2156
tp2157
I452
s(g2124
I42
g2125
Vinsert
p2158
I42
VSimpleName: Object
p2159
tp2160
I5
s(g568
I42
g569
Vinsert
p2161
I32
VMethodInvocation
p2162
tp2163
I1
s(g6
I42
g7
Vinsert
p2164
I42
VSimpleName: len
p2165
tp2166
I6
s(g713
I42
g714
Vinsert
p2167
I44
VSingleVariableDeclaration
p2168
tp2169
I5
s(g375
I42
g376
Vinsert
p2170
I25
VIfStatement
p2171
tp2172
I5
s(g1106
I42
g1107
Vinsert
p2173
I5
VArrayType: int[]
p2174
tp2175
I3
s(Vinsert
p2176
I42
VSimpleName: isEmpty
p2177
Vinsert
p2178
I27
VInfixExpression: ||
p2179
tp2180
I2
s(g1455
I42
g1456
Vinsert
p2181
I32
VMethodInvocation
p2182
tp2183
I1
s(g949
I42
g950
Vinsert
p2184
I32
VMethodInvocation
p2185
tp2186
I1
s(g588
I42
g589
Vinsert
p2187
I21
VExpressionStatement
p2188
tp2189
I4
s(g124
I42
g125
Vinsert
p2190
I40
VQualifiedName: android.os.SystemClock
p2191
tp2192
I0
s(g551
I42
g552
Vinsert
p2193
I21
VExpressionStatement
p2194
tp2195
I1
s(g139
I42
g140
Vinsert
p2196
I40
VQualifiedName: mHolder.bitmap
p2197
tp2198
I0
s(g430
I42
g431
Vinsert
p2199
I43
VSimpleType: AndroidCounter
p2200
tp2201
I105
s(g695
I42
g696
Vinsert
p2202
I42
VSimpleName: drawTask
p2203
tp2204
I3
s(g36
I42
g37
Vinsert
p2205
I7
VAssignment: =
p2206
tp2207
I5
s(g1074
I42
g1075
Vinsert
p2208
I42
VSimpleName: ST_BY_LIST
p2209
tp2210
I85
s(g2176
I42
g2177
Vinsert
p2211
I42
VSimpleName: item
p2212
tp2213
I51
s(g772
I42
g773
Vinsert
p2214
I27
VInfixExpression: &&
p2215
tp2216
I4
s(g792
I42
g793
Vinsert
p2217
I42
VSimpleName: sdanmaku
p2218
tp2219
I1
s(g265
I42
g266
Vinsert
p2220
I25
VIfStatement
p2221
tp2222
I2
s(g375
I42
g376
Vinsert
p2223
I33
VNullLiteral
p2224
tp2225
I3
s(g661
I42
g662
Vinsert
p2226
I39
VPrimitiveType: void
p2227
tp2228
I60
s(Vinsert
p2229
I42
VSimpleName: add
p2230
Vinsert
p2231
I40
VQualifiedName: mRenderingState.consumingTime
p2232
tp2233
I2
s(g192
I42
g193
Vinsert
p2234
I42
VSimpleName: obj1
p2235
tp2236
I6
s(Vinsert
p2237
I42
VSimpleName: update
p2238
Vinsert
p2239
I42
VSimpleName: mTimer
p2240
tp2241
I2
s(g1871
I42
g1872
Vinsert
p2242
I32
VMethodInvocation
p2243
tp2244
I75
s(g1003
I42
g1004
Vinsert
p2245
I27
VInfixExpression: <
p2246
tp2247
I4
s(g842
I42
g843
Vinsert
p2248
I42
VSimpleName: mTouchDelegate
p2249
tp2250
I4
s(g954
I42
g955
Vinsert
p2251
I8
VBlock
p2252
tp2253
I35
s(g734
I42
g735
Vinsert
p2254
I42
VSimpleName: config
p2255
tp2256
I1102
s(g265
I42
g266
Vinsert
p2257
I44
VSingleVariableDeclaration
p2258
tp2259
I4
s(g1138
I42
g1139
Vinsert
p2260
I43
VSimpleType: AndroidCounter
p2261
tp2262
I116
s(g162
I42
g163
Vinsert
p2263
I59
VVariableDeclarationFragment
p2264
tp2265
I5
s(g1583
I42
g1584
Vinsert
p2266
I60
VVariableDeclarationStatement
p2267
tp2268
I5
s(g1048
I42
g1049
Vinsert
p2269
I44
VSingleVariableDeclaration
p2270
tp2271
I6
s(g406
I42
g407
Vinsert
p2272
I8
VBlock
p2273
tp2274
I4
s(g1053
I42
g1054
Vinsert
p2275
I41
VReturnStatement
p2276
tp2277
I2
s(g2006
I42
g2007
Vinsert
p2278
I42
VSimpleName: Field
p2279
tp2280
I3
s(Vinsert
p2281
I42
VSimpleName: booleanValue
p2282
Vinsert
p2283
I8
VBlock
p2284
tp2285
I7
s(g1716
I42
g1717
Vinsert
p2286
I8
VBlock
p2287
tp2288
I254
s(g2019
I42
g2020
Vinsert
p2289
I34
VNumberLiteral: 0
p2290
tp2291
I5
s(Vinsert
p2292
I42
VSimpleName: getWidth
p2293
Vinsert
p2294
I39
VPrimitiveType: long
p2295
tp2296
I11
s(g623
I42
g624
Vinsert
p2297
I44
VSingleVariableDeclaration
p2298
tp2299
I8
s(g1820
I42
g1821
Vinsert
p2300
I40
VQualifiedName: BaseDanmaku.TYPE_SCROLL_LR
p2301
tp2302
I5
s(g578
I42
g579
Vinsert
p2303
I43
VSimpleType: Canvas
p2304
tp2305
I3
s(g977
I42
g978
Vinsert
p2306
I42
VSimpleName: fromWorkerThread
p2307
tp2308
I6
s(g690
I42
g691
Vinsert
p2309
I27
VInfixExpression: !=
p2310
tp2311
I2
s(g695
I42
g696
Vinsert
p2312
I49
VSwitchCase
p2313
tp2314
I4
s(g182
I42
g183
Vinsert
p2315
I42
VSimpleName: pausedPostion
p2316
tp2317
I34
s(g162
I42
g163
Vinsert
p2318
I42
VSimpleName: itr
p2319
tp2320
I13
s(Vinsert
p2321
I42
VSimpleName: getWidth
p2322
Vinsert
p2323
I31
VMethodDeclaration
p2324
tp2325
I17
s(g645
I42
g646
Vinsert
p2326
I43
VSimpleType: Danmakus
p2327
tp2328
I131
s(g380
I42
g381
Vinsert
p2329
I42
VSimpleName: item
p2330
tp2331
I4
s(g1990
I42
g1991
Vinsert
p2332
I59
VVariableDeclarationFragment
p2333
tp2334
I11
s(g672
I42
g673
Vinsert
p2335
I60
VVariableDeclarationStatement
p2336
tp2337
I5
s(g74
I42
g75
Vinsert
p2338
I42
VSimpleName: BaseDanmaku
p2339
tp2340
I7
s(g988
I42
g989
Vinsert
p2341
I42
VSimpleName: lastTime
p2342
tp2343
I7
s(g1294
I42
g1295
Vinsert
p2344
I11
VCastExpression
p2345
tp2346
I5
s(g26
I42
g27
Vinsert
p2347
I42
VSimpleName: setAntiAlias
p2348
tp2349
I1
s(g1998
I42
g1999
Vinsert
p2350
I42
VSimpleName: obj1
p2351
tp2352
I5
s(g1517
I42
g1518
Vinsert
p2353
I42
VSimpleName: mCacheManager
p2354
tp2355
I8
s(g347
I42
g348
Vinsert
p2356
I24
VForStatement
p2357
tp2358
I7
s(g1030
I42
g1031
Vinsert
p2359
I27
VInfixExpression: &&
p2360
tp2361
I4
s(g959
I42
g960
Vinsert
p2362
I42
VSimpleName: scheme
p2363
tp2364
I4
s(g772
I42
g773
Vinsert
p2365
I42
VSimpleName: mDanmakuView
p2366
tp2367
I8
s(g1575
I42
g1576
Vinsert
p2368
I42
VSimpleName: handler
p2369
tp2370
I10
s(g69
I42
g70
Vinsert
p2371
I49
VSwitchCase
p2372
tp2373
I428
s(g56
I42
g57
Vinsert
p2374
I7
VAssignment: =
p2375
tp2376
I6
s(g220
I42
g221
Vinsert
p2377
I7
VAssignment: =
p2378
tp2379
I2
s(g172
I42
g173
Vinsert
p2380
I42
VSimpleName: prepareCaches
p2381
tp2382
I7
s(Vinsert
p2383
I42
VSimpleName: isStop
p2384
Vinsert
p2385
I83
VModifier: public
p2386
tp2387
I7
s(g380
I42
g381
Vinsert
p2388
I8
VBlock
p2389
tp2390
I4
s(g551
I42
g552
Vinsert
p2391
I44
VSingleVariableDeclaration
p2392
tp2393
I51
s(g328
I42
g329
Vinsert
p2394
I8
VBlock
p2395
tp2396
I3
s(g623
I42
g624
Vinsert
p2397
I45
VStringLiteral: "bili"
p2398
tp2399
I16
s(g192
I42
g193
Vinsert
p2400
I42
VSimpleName: BaseDanmaku
p2401
tp2402
I12
s(g74
I42
g75
Vinsert
p2403
I43
VSimpleType: SortedSet
p2404
tp2405
I5
s(g762
I42
g763
Vinsert
p2406
I27
VInfixExpression: ==
p2407
tp2408
I7
s(g1905
I42
g1906
Vinsert
p2409
I42
VSimpleName: Canvas
p2410
tp2411
I4
s(g1138
I42
g1139
Vinsert
p2412
I14
VClassInstanceCreation
p2413
tp2414
I116
s(g1447
I42
g1448
Vinsert
p2415
I42
VSimpleName: Timer
p2416
tp2417
I2
s(g139
I42
g140
Vinsert
p2418
I42
VSimpleName: mSize
p2419
tp2420
I1
s(g64
I42
g65
Vinsert
p2421
I42
VSimpleName: curr
p2422
tp2423
I11
s(g406
I42
g407
Vinsert
p2424
I32
VMethodInvocation
p2425
tp2426
I2
s(g1425
I42
g1426
Vinsert
p2427
I42
VSimpleName: mCordonTime2
p2428
tp2429
I2
s(g94
I42
g95
Vinsert
p2430
I7
VAssignment: =
p2431
tp2432
I61
s(g16
I42
g17
Vinsert
p2433
I39
VPrimitiveType: long
p2434
tp2435
I15
s(g2237
I42
g2238
Vinsert
p2436
I42
VSimpleName: reset
p2437
tp2438
I11
s(g1011
I42
g1012
Vinsert
p2439
I27
VInfixExpression: !=
p2440
tp2441
I2
s(g1955
I42
g1956
Vinsert
p2442
I42
VSimpleName: onDanmakusDrawingFinished
p2443
tp2444
I4
s(g1111
I42
g1112
Vinsert
p2445
I42
VSimpleName: left
p2446
tp2447
I7
s(g1588
I42
g1589
Vinsert
p2448
I40
VQualifiedName: mRenderingState.consumingTime
p2449
tp2450
I13
s(g313
I42
g314
Vinsert
p2451
I42
VSimpleName: startTime
p2452
tp2453
I21
s(g1406
I42
g1407
Vinsert
p2454
I27
VInfixExpression: -
p2455
tp2456
I1
s(g2124
I42
g2125
Vinsert
p2457
I44
VSingleVariableDeclaration
p2458
tp2459
I5
s(g119
I42
g120
Vinsert
p2460
I42
VSimpleName: consumer
p2461
tp2462
I2
s(g31
I42
g32
Vinsert
p2463
I42
VSimpleName: rectSrc
p2464
tp2465
I1
s(g656
I42
g657
Vinsert
p2466
I27
VInfixExpression: <
p2467
tp2468
I9
s(g64
I42
g65
Vinsert
p2469
I27
VInfixExpression: >
p2470
tp2471
I3
s(g754
I42
g755
Vinsert
p2472
I32
VMethodInvocation
p2473
tp2474
I25
s(g1969
I42
g1970
Vinsert
p2475
I42
VSimpleName: Override
p2476
tp2477
I8
s(g109
I42
g110
Vinsert
p2478
I42
VSimpleName: fromTime
p2479
tp2480
I4
s(g685
I42
g686
Vinsert
p2481
I50
VSwitchStatement
p2482
tp2483
I11
s(g2019
I42
g2020
Vinsert
p2484
I27
VInfixExpression: -
p2485
tp2486
I5
s(g134
I42
g135
Vinsert
p2487
I42
VSimpleName: SHOW_DANMAKUS
p2488
tp2489
I6
s(g1130
I42
g1131
Vinsert
p2490
I39
VPrimitiveType: int
p2491
tp2492
I6
s(g819
I42
g820
Vinsert
p2493
I23
VFieldDeclaration
p2494
tp2495
I66
s(g446
I42
g447
Vinsert
p2496
I43
VSimpleType: SAXException
p2497
tp2498
I8
s(g1575
I42
g1576
Vinsert
p2499
I8
VBlock
p2500
tp2501
I16
s(g690
I42
g691
Vinsert
p2502
I7
VAssignment: =
p2503
tp2504
I6
s(g1106
I42
g1107
Vinsert
p2505
I27
VInfixExpression: >
p2506
tp2507
I8
s(g1174
I42
g1175
Vinsert
p2508
I39
VPrimitiveType: void
p2509
tp2510
I10
s(g1305
I42
g1306
Vinsert
p2511
I21
VExpressionStatement
p2512
tp2513
I7
s(g260
I42
g261
Vinsert
p2514
I42
VSimpleName: View
p2515
tp2516
I5
s(Vinsert
p2517
I42
VSimpleName: quit
p2518
Vinsert
p2519
I27
VInfixExpression: !=
p2520
tp2521
I2
s(g1406
I42
g1407
Vinsert
p2522
I42
VSimpleName: subItems
p2523
tp2524
I202
s(g792
I42
g793
Vinsert
p2525
I43
VSimpleType: SpecialDanmaku
p2526
tp2527
I4
s(g1375
I42
g1376
Vinsert
p2528
I25
VIfStatement
p2529
tp2530
I2
s(g1674
I42
g1675
Vinsert
p2531
I39
VPrimitiveType: void
p2532
tp2533
I11
s(Vinsert
p2534
I42
VSimpleName: update
p2535
Vinsert
p2536
I78
VMarkerAnnotation
p2537
tp2538
I7
s(g84
I42
g85
Vinsert
p2539
I34
VNumberLiteral: 0
p2540
tp2541
I1
s(g285
I42
g286
Vinsert
p2542
I42
VSimpleName: mDanmakusVisible
p2543
tp2544
I3
s(g1079
I42
g1080
Vinsert
p2545
I21
VExpressionStatement
p2546
tp2547
I307
s(g36
I42
g37
Vinsert
p2548
I32
VMethodInvocation
p2549
tp2550
I5
s(g842
I42
g843
Vinsert
p2551
I42
VSimpleName: GestureDetector
p2552
tp2553
I3
s(g89
I42
g90
Vinsert
p2554
I21
VExpressionStatement
p2555
tp2556
I3
s(g680
I42
g681
Vinsert
p2557
I78
VMarkerAnnotation
p2558
tp2559
I14
s(g1035
I42
g1036
Vinsert
p2560
I39
VPrimitiveType: void
p2561
tp2562
I10
s(g456
I42
g457
Vinsert
p2563
I42
VSimpleName: lockCanvas
p2564
tp2565
I4
s(g290
I42
g291
Vinsert
p2566
I8
VBlock
p2567
tp2568
I1
s(g1035
I42
g1036
Vinsert
p2569
I42
VSimpleName: begin
p2570
tp2571
I7
s(g270
I42
g271
Vinsert
p2572
I42
VSimpleName: endMills
p2573
tp2574
I5
s(g680
I42
g681
Vinsert
p2575
I42
VSimpleName: Menu
p2576
tp2577
I6
s(g149
I42
g150
Vinsert
p2578
I34
VNumberLiteral: 50
p2579
tp2580
I3
s(g578
I42
g579
Vinsert
p2581
I41
VReturnStatement
p2582
tp2583
I4
s(g197
I42
g198
Vinsert
p2584
I42
VSimpleName: disp
p2585
tp2586
I6
s(g438
I42
g439
Vinsert
p2587
I27
VInfixExpression: *
p2588
tp2589
I10
s(g352
I42
g353
Vinsert
p2590
I7
VAssignment: =
p2591
tp2592
I4
s(g2014
I42
g2015
Vinsert
p2593
I74
VParameterizedType: Iterator<BaseDanmaku>
p2594
tp2595
I7
s(g543
I42
g544
Vinsert
p2596
I42
VSimpleName: mHandler
p2597
tp2598
I14
s(g623
I42
g624
Vinsert
p2599
I25
VIfStatement
p2600
tp2601
I4
s(g172
I42
g173
Vinsert
p2602
I21
VExpressionStatement
p2603
tp2604
I37
s(g713
I42
g714
Vinsert
p2605
I33
VNullLiteral
p2606
tp2607
I1
s(g240
I42
g241
Vinsert
p2608
I42
VSimpleName: width
p2609
tp2610
I9
s(g954
I42
g955
Vinsert
p2611
I83
VModifier: public
p2612
tp2613
I38
s(g1406
I42
g1407
Vinsert
p2614
I27
VInfixExpression: ==
p2615
tp2616
I99
s(g718
I42
g719
Vinsert
p2617
I27
VInfixExpression: &&
p2618
tp2619
I5
s(g1406
I42
g1407
Vinsert
p2620
I25
VIfStatement
p2621
tp2622
I105
s(g64
I42
g65
Vinsert
p2623
I42
VSimpleName: recycle
p2624
tp2625
I5
s(g772
I42
g773
Vinsert
p2626
I8
VBlock
p2627
tp2628
I1
s(g1053
I42
g1054
Vinsert
p2629
I42
VSimpleName: BaseDanmaku
p2630
tp2631
I6
s(g1489
I42
g1490
Vinsert
p2632
I34
VNumberLiteral: 15
p2633
tp2634
I4
s(g578
I42
g579
Vinsert
p2635
I60
VVariableDeclarationStatement
p2636
tp2637
I3
s(Vinsert
p2638
I42
VSimpleName: onDanmakuShown
p2639
Vinsert
p2640
I21
VExpressionStatement
p2641
tp2642
I1
s(g1138
I42
g1139
Vinsert
p2643
I42
VSimpleName: end
p2644
tp2645
I200
s(g1871
I42
g1872
Vinsert
p2646
I42
VSimpleName: Log
p2647
tp2648
I34
s(g212
I42
g213
Vinsert
p2649
I32
VMethodInvocation
p2650
tp2651
I6
s(g842
I42
g843
Vinsert
p2652
I42
VSimpleName: danmakuView
p2653
tp2654
I1
s(g230
I42
g231
Vinsert
p2655
I43
VSimpleType: InputStream
p2656
tp2657
I9
s(g1503
I42
g1504
Vinsert
p2658
I59
VVariableDeclarationFragment
p2659
tp2660
I11
s(g713
I42
g714
Vinsert
p2661
I32
VMethodInvocation
p2662
tp2663
I2
s(g89
I42
g90
Vinsert
p2664
I32
VMethodInvocation
p2665
tp2666
I3
s(g119
I42
g120
Vinsert
p2667
I39
VPrimitiveType: int
p2668
tp2669
I6
s(g1820
I42
g1821
Vinsert
p2670
I42
VSimpleName: RLDanmakusRetainer
p2671
tp2672
I2
s(g1406
I42
g1407
Vinsert
p2673
I42
VSimpleName: ST_BY_LIST
p2674
tp2675
I98
s(g926
I42
g927
Vinsert
p2676
I33
VNullLiteral
p2677
tp2678
I38
s(g1654
I42
g1655
Vinsert
p2679
I32
VMethodInvocation
p2680
tp2681
I2
s(g1807
I42
g1808
Vinsert
p2682
I39
VPrimitiveType: boolean
p2683
tp2684
I49
s(g661
I42
g662
Vinsert
p2685
I31
VMethodDeclaration
p2686
tp2687
I61
s(g11
I42
g12
Vinsert
p2688
I83
VModifier: private
p2689
tp2690
I60
s(g357
I42
g358
Vinsert
p2691
I44
VSingleVariableDeclaration
p2692
tp2693
I26
s(g777
I42
g778
Vinsert
p2694
I42
VSimpleName: BaseDanmaku
p2695
tp2696
I35
s(g1489
I42
g1490
Vinsert
p2697
I54
VTryStatement
p2698
tp2699
I2
s(Vinsert
p2700
I42
VSimpleName: accept
p2701
Vinsert
p2702
I42
VSimpleName: it
p2703
tp2704
I9
s(g2006
I42
g2007
Vinsert
p2705
I42
VSimpleName: get_CPU_ABI2
p2706
tp2707
I5
s(g1820
I42
g1821
Vinsert
p2708
I8
VBlock
p2709
tp2710
I3
s(g240
I42
g241
Vinsert
p2711
I32
VMethodInvocation
p2712
tp2713
I1
s(g1340
I42
g1341
Vinsert
p2714
I42
VSimpleName: mInput
p2715
tp2716
I5
s(g139
I42
g140
Vinsert
p2717
I43
VSimpleType: DrawingCacheHolder
p2718
tp2719
I7
s(g588
I42
g589
Vinsert
p2720
I27
VInfixExpression: !=
p2721
tp2722
I2
s(g623
I42
g624
Vinsert
p2723
I32
VMethodInvocation
p2724
tp2725
I2
s(g1375
I42
g1376
Vinsert
p2726
I42
VSimpleName: willHit
p2727
tp2728
I3
s(g1160
I42
g1161
Vinsert
p2729
I59
VVariableDeclarationFragment
p2730
tp2731
I2
s(g1955
I42
g1956
Vinsert
p2732
I31
VMethodDeclaration
p2733
tp2734
I7
s(g2638
I42
g2639
Vinsert
p2735
I33
VNullLiteral
p2736
tp2737
I1
s(g406
I42
g407
Vinsert
p2738
I7
VAssignment: =
p2739
tp2740
I4
s(g637
I42
g638
Vinsert
p2741
I54
VTryStatement
p2742
tp2743
I4
s(g1475
I42
g1476
Vinsert
p2744
I42
VSimpleName: items
p2745
tp2746
I6
s(g129
I42
g130
Vinsert
p2747
I22
VFieldAccess
p2748
tp2749
I7
s(g1852
I42
g1853
Vinsert
p2750
I42
VSimpleName: danmakus
p2751
tp2752
I1
s(g777
I42
g778
Vinsert
p2753
I60
VVariableDeclarationStatement
p2754
tp2755
I6
s(g260
I42
g261
Vinsert
p2756
I8
VBlock
p2757
tp2758
I4
s(g11
I42
g12
Vinsert
p2759
I42
VSimpleName: runningDanmakus
p2760
tp2761
I1
s(g388
I42
g389
Vinsert
p2762
I42
VSimpleName: StaticLayout
p2763
tp2764
I6
s(g602
I42
g603
Vinsert
p2765
I60
VVariableDeclarationStatement
p2766
tp2767
I6
s(g2321
I42
g2322
Vinsert
p2768
I42
VSimpleName: BaseDanmakuParser
p2769
tp2770
I5
s(g466
I42
g467
Vinsert
p2771
I39
VPrimitiveType: void
p2772
tp2773
I10
s(g495
I42
g496
Vinsert
p2774
I25
VIfStatement
p2775
tp2776
I3
s(g954
I42
g955
Vinsert
p2777
I42
VSimpleName: getDisplayer
p2778
tp2779
I36
s(g1375
I42
g1376
Vinsert
p2780
I39
VPrimitiveType: boolean
p2781
tp2782
I4
s(g456
I42
g457
Vinsert
p2783
I42
VSimpleName: surfaceHolder
p2784
tp2785
I5
s(g167
I42
g168
Vinsert
p2786
I21
VExpressionStatement
p2787
tp2788
I7
s(g2124
I42
g2125
Vinsert
p2789
I42
VSimpleName: values
p2790
tp2791
I4
s(g637
I42
g638
Vinsert
p2792
I44
VSingleVariableDeclaration
p2793
tp2794
I6
s(g398
I42
g399
Vinsert
p2795
I42
VSimpleName: ACTION_CONTINUE
p2796
tp2797
I33
s(g1489
I42
g1490
Vinsert
p2798
I25
VIfStatement
p2799
tp2800
I10
s(g1871
I42
g1872
Vinsert
p2801
I45
VStringLiteral: "CacheManaging"
p2802
tp2803
I3
s(g36
I42
g37
Vinsert
p2804
I42
VSimpleName: createItem
p2805
tp2806
I4
s(g1979
I42
g1980
Vinsert
p2807
I42
VSimpleName: BaseDanmaku
p2808
tp2809
I15
s(g1475
I42
g1476
Vinsert
p2810
I36
VParenthesizedExpression
p2811
tp2812
I3
s(g926
I42
g927
Vinsert
p2813
I32
VMethodInvocation
p2814
tp2815
I38
s(g661
I42
g662
Vinsert
p2816
I8
VBlock
p2817
tp2818
I61
s(g993
I42
g994
Vinsert
p2819
I42
VSimpleName: mVideoView
p2820
tp2821
I11
s(g967
I42
g968
Vinsert
p2822
I43
VSimpleType: Button
p2823
tp2824
I18
s(g1517
I42
g1518
Vinsert
p2825
I32
VMethodInvocation
p2826
tp2827
I22
s(g583
I42
g584
Vinsert
p2828
I42
VSimpleName: ceil
p2829
tp2830
I3
s(g837
I42
g838
Vinsert
p2831
I42
VSimpleName: islive
p2832
tp2833
I2
s(g124
I42
g125
Vinsert
p2834
I29
VJavadoc
p2835
tp2836
I8
s(Vinsert
p2837
I42
VSimpleName: getWidth
p2838
Vinsert
p2839
I42
VSimpleName: c
p2840
tp2841
I4
s(g2638
I42
g2639
Vinsert
p2842
I43
VSimpleType: BaseDanmaku
p2843
tp2844
I5
s(g79
I42
g80
Vinsert
p2845
I34
VNumberLiteral: 1
p2846
tp2847
I3
s(g1111
I42
g1112
Vinsert
p2848
I27
VInfixExpression: *
p2849
tp2850
I4
s(g551
I42
g552
Vinsert
p2851
I42
VSimpleName: ACTION_BREAK
p2852
tp2853
I67
s(g972
I42
g973
Vinsert
p2854
I9
VBooleanLiteral: true
p2855
tp2856
I44
s(g207
I42
g208
Vinsert
p2857
I42
VSimpleName: currentTimeMillis
p2858
tp2859
I4
s(g313
I42
g314
Vinsert
p2860
I39
VPrimitiveType: long
p2861
tp2862
I18
s(g438
I42
g439
Vinsert
p2863
I32
VMethodInvocation
p2864
tp2865
I2
s(g2014
I42
g2015
Vinsert
p2866
I42
VSimpleName: BaseDanmaku
p2867
tp2868
I6
s(g705
I42
g706
Vinsert
p2869
I31
VMethodDeclaration
p2870
tp2871
I8
s(g1084
I42
g1085
Vinsert
p2872
I34
VNumberLiteral: 0.3f
p2873
tp2874
I2
s(g2638
I42
g2639
Vinsert
p2875
I42
VSimpleName: onDanmakuShown
p2876
tp2877
I6
s(g772
I42
g773
Vinsert
p2878
I25
VIfStatement
p2879
tp2880
I5
s(g527
I42
g528
Vinsert
p2881
I33
VNullLiteral
p2882
tp2883
I8
s(g1807
I42
g1808
Vinsert
p2884
I42
VSimpleName: RECT
p2885
tp2886
I1
s(g398
I42
g399
Vinsert
p2887
I42
VSimpleName: danmaku
p2888
tp2889
I10
s(g1257
I42
g1258
Vinsert
p2890
I42
VSimpleName: setConfig
p2891
tp2892
I10
s(g568
I42
g569
Vinsert
p2893
I33
VNullLiteral
p2894
tp2895
I4
s(g637
I42
g638
Vinsert
p2896
I27
VInfixExpression: !=
p2897
tp2898
I2
s(g225
I42
g226
Vinsert
p2899
I83
VModifier: private
p2900
tp2901
I7
s(g79
I42
g80
Vinsert
p2902
I38
VPrefixExpression: -
p2903
tp2904
I3
s(g856
I42
g857
Vinsert
p2905
I27
VInfixExpression: /
p2906
tp2907
I10
s(g713
I42
g714
Vinsert
p2908
I43
VSimpleType: BaseDanmaku
p2909
tp2910
I5
s(g1716
I42
g1717
Vinsert
p2911
I21
VExpressionStatement
p2912
tp2913
I250
s(g661
I42
g662
Vinsert
p2914
I40
VQualifiedName: DanmakuConfigTag.SCALE_TEXTSIZE
p2915
tp2916
I0
s(g2176
I42
g2177
Vinsert
p2917
I42
VSimpleName: danmakus
p2918
tp2919
I111
s(g2321
I42
g2322
Vinsert
p2920
I42
VSimpleName: mDispDensity
p2921
tp2922
I7
s(g1257
I42
g1258
Vinsert
p2923
I40
VQualifiedName: mContext.mGlobalFlagValues
p2924
tp2925
I109
s(g290
I42
g291
Vinsert
p2926
I42
VSimpleName: SpannableStringBuilder
p2927
tp2928
I4
s(g438
I42
g439
Vinsert
p2929
I37
VPostfixExpression: ++
p2930
tp2931
I77
s(g939
I42
g940
Vinsert
p2932
I43
VSimpleType: BaseDanmakuParser
p2933
tp2934
I4
s(g988
I42
g989
Vinsert
p2935
I27
VInfixExpression: -
p2936
tp2937
I2
s(g149
I42
g150
Vinsert
p2938
I42
VSimpleName: e
p2939
tp2940
I24
s(g588
I42
g589
Vinsert
p2941
I8
VBlock
p2942
tp2943
I4
s(Vinsert
p2944
I42
VSimpleName: invalidateDanmaku
p2945
Vinsert
p2946
I42
VSimpleName: handler
p2947
tp2948
I6
s(g588
I42
g589
Vinsert
p2949
I42
VSimpleName: onResume
p2950
tp2951
I9
s(g912
I42
g913
Vinsert
p2952
I83
VModifier: public
p2953
tp2954
I7
s(g157
I42
g158
Vinsert
p2955
I42
VSimpleName: handled
p2956
tp2957
I4
s(g280
I42
g281
Vinsert
p2958
I42
VSimpleName: recordRenderingTime
p2959
tp2960
I7
s(g328
I42
g329
Vinsert
p2961
I43
VSimpleType: Object
p2962
tp2963
I4
s(g144
I42
g145
Vinsert
p2964
I8
VBlock
p2965
tp2966
I1
s(g967
I42
g968
Vinsert
p2967
I32
VMethodInvocation
p2968
tp2969
I33
s(g2150
I42
g2151
Vinsert
p2970
I45
VStringLiteral: ","
p2971
tp2972
I13
s(g187
I42
g188
Vinsert
p2973
I40
VQualifiedName: disp.width
p2974
tp2975
I89
s(g1074
I42
g1075
Vinsert
p2976
I42
VSimpleName: mSortType
p2977
tp2978
I87
s(g690
I42
g691
Vinsert
p2979
I21
VExpressionStatement
p2980
tp2981
I1
s(g388
I42
g389
Vinsert
p2982
I21
VExpressionStatement
p2983
tp2984
I6
s(g718
I42
g719
Vinsert
p2985
I34
VNumberLiteral: 8
p2986
tp2987
I11
s(g1778
I42
g1779
Vinsert
p2988
I42
VSimpleName: equals
p2989
tp2990
I8
s(g1812
I42
g1813
Vinsert
p2991
I42
VSimpleName: setDuplicateMergingEnabled
p2992
tp2993
I16
s(g543
I42
g544
Vinsert
p2994
I31
VMethodDeclaration
p2995
tp2996
I4
s(g661
I42
g662
Vinsert
p2997
I42
VSimpleName: requestClearRetainer
p2998
tp2999
I59
s(g939
I42
g940
Vinsert
p3000
I31
VMethodDeclaration
p3001
tp3002
I7
s(g695
I42
g696
Vinsert
p3003
I42
VSimpleName: FORCE_RENDER
p3004
tp3005
I386
s(g89
I42
g90
Vinsert
p3006
I42
VSimpleName: CLEAR_DANMAKUS_ON_SCREEN
p3007
tp3008
I361
s(g959
I42
g960
Vinsert
p3009
I42
VSimpleName: uri
p3010
tp3011
I12
s(g11
I42
g12
Vinsert
p3012
I21
VExpressionStatement
p3013
tp3014
I426
s(Vinsert
p3015
I42
VSimpleName: next
p3016
Vinsert
p3017
I39
VPrimitiveType: void
p3018
tp3019
I26
s(g1575
I42
g1576
Vinsert
p3020
I25
VIfStatement
p3021
tp3022
I10
s(g129
I42
g130
Vinsert
p3023
I42
VSimpleName: averageRenderingTime
p3024
tp3025
I2
s(g832
I42
g833
Vinsert
p3026
I8
VBlock
p3027
tp3028
I1
s(g808
I42
g809
Vinsert
p3029
I40
VQualifiedName: mTimer.currMillisecond
p3030
tp3031
I1
s(g6
I42
g7
Vinsert
p3032
I42
VSimpleName: in
p3033
tp3034
I1
s(g1160
I42
g1161
Vinsert
p3035
I39
VPrimitiveType: long
p3036
tp3037
I19
s(g623
I42
g624
Vinsert
p3038
I42
VSimpleName: create
p3039
tp3040
I10
s(g1820
I42
g1821
Vinsert
p3041
I21
VExpressionStatement
p3042
tp3043
I4
s(g543
I42
g544
Vinsert
p3044
I21
VExpressionStatement
p3045
tp3046
I1
s(g1637
I42
g1638
Vinsert
p3047
I40
VQualifiedName: disp.width
p3048
tp3049
I3
s(g705
I42
g706
Vinsert
p3050
I8
VBlock
p3051
tp3052
I6
s(g466
I42
g467
Vinsert
p3053
I1
VAnonymousClassDeclaration
p3054
tp3055
I7
s(g375
I42
g376
Vinsert
p3056
I27
VInfixExpression: &&
p3057
tp3058
I4
s(g1003
I42
g1004
Vinsert
p3059
I16
VConditionalExpression
p3060
tp3061
I4
s(g16
I42
g17
Vinsert
p3062
I60
VVariableDeclarationStatement
p3063
tp3064
I3
s(g2150
I42
g2151
Vinsert
p3065
I18
VContinueStatement
p3066
tp3067
I3
s(g1955
I42
g1956
Vinsert
p3068
I33
VNullLiteral
p3069
tp3070
I1
s(g1588
I42
g1589
Vinsert
p3071
I42
VSimpleName: Math
p3072
tp3073
I4
s(g912
I42
g913
Vinsert
p3074
I8
VBlock
p3075
tp3076
I6
s(g124
I42
g125
Vinsert
p3077
I83
VModifier: static
p3078
tp3079
I5
s(g1174
I42
g1175
Vinsert
p3080
I42
VSimpleName: drawTask
p3081
tp3082
I11
s(g837
I42
g838
Vinsert
p3083
I34
VNumberLiteral: 5
p3084
tp3085
I2
s(g240
I42
g241
Vinsert
p3086
I36
VParenthesizedExpression
p3087
tp3088
I24
s(g792
I42
g793
Vinsert
p3089
I40
VQualifiedName: danmaku.index
p3090
tp3091
I2
s(g2517
I42
g2518
Vinsert
p3092
I42
VSimpleName: callback
p3093
tp3094
I54
s(g129
I42
g130
Vinsert
p3095
I42
VSimpleName: displayer
p3096
tp3097
I1
s(g129
I42
g130
Vinsert
p3098
I52
VThisExpression
p3099
tp3100
I7
s(g172
I42
g173
Vinsert
p3101
I42
VSimpleName: BUILD_CACHES
p3102
tp3103
I23
s(g1559
I42
g1560
Vinsert
p3104
I31
VMethodDeclaration
p3105
tp3106
I13
s(g482
I42
g483
Vinsert
p3107
I32
VMethodInvocation
p3108
tp3109
I3
s(g298
I42
g299
Vinsert
p3110
I34
VNumberLiteral: 0
p3111
tp3112
I3
s(g446
I42
g447
Vinsert
p3113
I59
VVariableDeclarationFragment
p3114
tp3115
I4
s(g235
I42
g236
Vinsert
p3116
I44
VSingleVariableDeclaration
p3117
tp3118
I3
s(g207
I42
g208
Vinsert
p3119
I43
VSimpleType: IDanmakuIterator
p3120
tp3121
I6
s(g2087
I42
g2088
Vinsert
p3122
I42
VSimpleName: mCaches
p3123
tp3124
I24
s(g1447
I42
g1448
Vinsert
p3125
I42
VSimpleName: mBtnSendDanmakus
p3126
tp3127
I5
s(g438
I42
g439
Vinsert
p3128
I34
VNumberLiteral: 0
p3129
tp3130
I83
s(g328
I42
g329
Vinsert
p3131
I42
VSimpleName: DanmakuGlobalConfig
p3132
tp3133
I8
s(g235
I42
g236
Vinsert
p3134
I43
VSimpleType: BaseDanmaku
p3135
tp3136
I3
s(g275
I42
g276
Vinsert
p3137
I74
VParameterizedType: Iterator<BaseDanmaku>
p3138
tp3139
I11
s(g260
I42
g261
Vinsert
p3140
I44
VSingleVariableDeclaration
p3141
tp3142
I5
s(g1
I42
g2
Vinsert
p3143
I32
VMethodInvocation
p3144
tp3145
I2
s(g949
I42
g950
Vinsert
p3146
I25
VIfStatement
p3147
tp3148
I6
s(g1335
I42
g1336
Vinsert
p3149
I40
VQualifiedName: mRenderingState.consumingTime
p3150
tp3151
I1
s(g495
I42
g496
Vinsert
p3152
I43
VSimpleType: BaseDanmaku
p3153
tp3154
I5
s(g1327
I42
g1328
Vinsert
p3155
I34
VNumberLiteral: 50
p3156
tp3157
I2
s(g430
I42
g431
Vinsert
p3158
I42
VSimpleName: mCounter
p3159
tp3160
I224
s(g84
I42
g85
Vinsert
p3161
I25
VIfStatement
p3162
tp3163
I3
s(g718
I42
g719
Vinsert
p3164
I27
VInfixExpression: /
p3165
tp3166
I11
s(g1143
I42
g1144
Vinsert
p3167
I42
VSimpleName: pausedPostion
p3168
tp3169
I12
s(g260
I42
g261
Vinsert
p3170
I42
VSimpleName: view
p3171
tp3172
I4
s(g393
I42
g394
Vinsert
p3173
I42
VSimpleName: mCacheTimer
p3174
tp3175
I2
s(g1305
I42
g1306
Vinsert
p3176
I27
VInfixExpression: ==
p3177
tp3178
I5
s(Vinsert
p3179
I42
VSimpleName: wait
p3180
Vinsert
p3181
I37
VPostfixExpression: ++
p3182
tp3183
I22
s(g1106
I42
g1107
Vinsert
p3184
I22
VFieldAccess
p3185
tp3186
I1
s(g1160
I42
g1161
Vinsert
p3187
I42
VSimpleName: end
p3188
tp3189
I9
s(g46
I42
g47
Vinsert
p3190
I33
VNullLiteral
p3191
tp3192
I1
s(g275
I42
g276
Vinsert
p3193
I11
VCastExpression
p3194
tp3195
I11
s(g1876
I42
g1877
Vinsert
p3196
I78
VMarkerAnnotation
p3197
tp3198
I7
s(g2095
I42
g2096
Vinsert
p3199
I42
VSimpleName: hideDanmakus
p3200
tp3201
I3
s(g2638
I42
g2639
Vinsert
p3202
I44
VSingleVariableDeclaration
p3203
tp3204
I5
s(g1570
I42
g1571
Vinsert
p3205
I42
VSimpleName: mBtnResumeDanmaku
p3206
tp3207
I1
s(g602
I42
g603
Vinsert
p3208
I27
VInfixExpression: ==
p3209
tp3210
I2
s(g99
I42
g100
Vinsert
p3211
I42
VSimpleName: mDanmakuView
p3212
tp3213
I8
s(g1674
I42
g1675
Vinsert
p3214
I21
VExpressionStatement
p3215
tp3216
I21
s(g2229
I42
g2230
Vinsert
p3217
I34
VNumberLiteral: 60
p3218
tp3219
I2
s(g495
I42
g496
Vinsert
p3220
I39
VPrimitiveType: void
p3221
tp3222
I7
s(g1016
I42
g1017
Vinsert
p3223
I40
VQualifiedName: danmaku.paintHeight
p3224
tp3225
I0
s(g832
I42
g833
Vinsert
p3226
I42
VSimpleName: setOnClickListener
p3227
tp3228
I150
s(g430
I42
g431
Vinsert
p3229
I59
VVariableDeclarationFragment
p3230
tp3231
I9
s(g129
I42
g130
Vinsert
p3232
I38
VPrefixExpression: -
p3233
tp3234
I10
s(g718
I42
g719
Vinsert
p3235
I40
VQualifiedName: mContext.cachingPolicy.maxTimesOfReusableFinds
p3236
tp3237
I36
s(g1716
I42
g1717
Vinsert
p3238
I27
VInfixExpression: !=
p3239
tp3240
I8
s(g114
I42
g115
Vinsert
p3241
I25
VIfStatement
p3242
tp3243
I41
s(g949
I42
g950
Vinsert
p3244
I39
VPrimitiveType: long
p3245
tp3246
I3
s(g11
I42
g12
Vinsert
p3247
I42
VSimpleName: lastTotalDanmakuCount
p3248
tp3249
I15
s(g532
I42
g533
Vinsert
p3250
I32
VMethodInvocation
p3251
tp3252
I1
s(g532
I42
g533
Vinsert
p3253
I42
VSimpleName: BaseDanmaku
p3254
tp3255
I3
s(g430
I42
g431
Vinsert
p3256
I7
VAssignment: =
p3257
tp3258
I106
s(g388
I42
g389
Vinsert
p3259
I7
VAssignment: =
p3260
tp3261
I6
s(g615
I42
g616
Vinsert
p3262
I42
VSimpleName: viewHolders
p3263
tp3264
I13
s(g695
I42
g696
Vinsert
p3265
I39
VPrimitiveType: int
p3266
tp3267
I383
s(g1559
I42
g1560
Vinsert
p3268
I21
VExpressionStatement
p3269
tp3270
I7
s(g240
I42
g241
Vinsert
p3271
I27
VInfixExpression: <=
p3272
tp3273
I18
s(g270
I42
g271
Vinsert
p3274
I40
VQualifiedName: mContext.mDanmakuFactory.MAX_DANMAKU_DURATION
p3275
tp3276
I4
s(g6
I42
g7
Vinsert
p3277
I61
VWhileStatement
p3278
tp3279
I3
s(g1375
I42
g1376
Vinsert
p3280
I42
VSimpleName: lines
p3281
tp3282
I5
s(g6
I42
g7
Vinsert
p3283
I34
VNumberLiteral: 8192
p3284
tp3285
I5
s(g1525
I42
g1526
Vinsert
p3286
I39
VPrimitiveType: int
p3287
tp3288
I7
s(g225
I42
g226
Vinsert
p3289
I42
VSimpleName: newestDanmaku
p3290
tp3291
I21
s(g615
I42
g616
Vinsert
p3292
I42
VSimpleName: viewType
p3293
tp3294
I2
s(g260
I42
g261
Vinsert
p3295
I42
VSimpleName: onClick
p3296
tp3297
I6
s(Vinsert
p3298
I42
VSimpleName: release
p3299
Vinsert
p3300
I42
VSimpleName: mCachePool
p3301
tp3302
I3
s(g1257
I42
g1258
Vinsert
p3303
I32
VMethodInvocation
p3304
tp3305
I68
s(g1955
I42
g1956
Vinsert
p3306
I42
VSimpleName: Override
p3307
tp3308
I7
s(g680
I42
g681
Vinsert
p3309
I21
VExpressionStatement
p3310
tp3311
I2
s(g446
I42
g447
Vinsert
p3312
I42
VSimpleName: Attributes
p3313
tp3314
I12
s(g298
I42
g299
Vinsert
p3315
I27
VInfixExpression: <
p3316
tp3317
I3
s(g1095
I42
g1096
Vinsert
p3318
I42
VSimpleName: UPDATE_WHEN_PAUSED
p3319
tp3320
I7
s(g280
I42
g281
Vinsert
p3321
I42
VSimpleName: getAverageRenderingTime
p3322
tp3323
I4
s(g1455
I42
g1456
Vinsert
p3324
I42
VSimpleName: Bitmap
p3325
tp3326
I1
s(g79
I42
g80
Vinsert
p3327
I41
VReturnStatement
p3328
tp3329
I33
s(g1955
I42
g1956
Vinsert
p3330
I8
VBlock
p3331
tp3332
I4
s(g754
I42
g755
Vinsert
p3333
I42
VSimpleName: onBackPressed
p3334
tp3335
I9
s(g972
I42
g973
Vinsert
p3336
I42
VSimpleName: quitFlag
p3337
tp3338
I15
s(g1035
I42
g1036
Vinsert
p3339
I31
VMethodDeclaration
p3340
tp3341
I12
s(g939
I42
g940
Vinsert
p3342
I7
VAssignment: =
p3343
tp3344
I6
s(g934
I42
g935
Vinsert
p3345
I42
VSimpleName: mCaches
p3346
tp3347
I1
s(g69
I42
g70
Vinsert
p3348
I32
VMethodInvocation
p3349
tp3350
I428
s(g645
I42
g646
Vinsert
p3351
I8
VBlock
p3352
tp3353
I65
s(g1058
I42
g1059
Vinsert
p3354
I83
VModifier: public
p3355
tp3356
I182
s(g16
I42
g17
Vinsert
p3357
I42
VSimpleName: currMillisecond
p3358
tp3359
I9
s(g777
I42
g778
Vinsert
p3360
I42
VSimpleName: runningDanmakus
p3361
tp3362
I8
s(g192
I42
g193
Vinsert
p3363
I44
VSingleVariableDeclaration
p3364
tp3365
I12
s(g1905
I42
g1906
Vinsert
p3366
I42
VSimpleName: drawSomeThing
p3367
tp3368
I2
s(g1095
I42
g1096
Vinsert
p3369
I27
VInfixExpression: &&
p3370
tp3371
I5
s(g988
I42
g989
Vinsert
p3372
I60
VVariableDeclarationStatement
p3373
tp3374
I4
s(g926
I42
g927
Vinsert
p3375
I42
VSimpleName: fromTimeMills
p3376
tp3377
I6
s(g954
I42
g955
Vinsert
p3378
I43
VSimpleType: AbsDisplayer
p3379
tp3380
I37
s(g375
I42
g376
Vinsert
p3381
I32
VMethodInvocation
p3382
tp3383
I4
s(g3179
I42
g3180
Vinsert
p3384
I42
VSimpleName: init
p3385
tp3386
I5
s(g1979
I42
g1980
Vinsert
p3387
I38
VPrefixExpression: !
p3388
tp3389
I2
s(g890
I42
g891
Vinsert
p3390
I42
VSimpleName: stream
p3391
tp3392
I7
s(g656
I42
g657
Vinsert
p3393
I42
VSimpleName: averageTime
p3394
tp3395
I5
s(g446
I42
g447
Vinsert
p3396
I42
VSimpleName: localName
p3397
tp3398
I2
s(g285
I42
g286
Vinsert
p3399
I38
VPrefixExpression: !
p3400
tp3401
I19
s(g425
I42
g426
Vinsert
p3402
I32
VMethodInvocation
p3403
tp3404
I1
s(g1271
I42
g1272
Vinsert
p3405
I34
VNumberLiteral: 100
p3406
tp3407
I10
s(g1003
I42
g1004
Vinsert
p3408
I34
VNumberLiteral: 1
p3409
tp3410
I4
s(g1998
I42
g1999
Vinsert
p3411
I42
VSimpleName: Integer
p3412
tp3413
I10
s(g328
I42
g329
Vinsert
p3414
I44
VSingleVariableDeclaration
p3415
tp3416
I10
s(g1442
I42
g1443
Vinsert
p3417
I42
VSimpleName: elapsedTime
p3418
tp3419
I21
s(g977
I42
g978
Vinsert
p3420
I42
VSimpleName: mCurrentWidth
p3421
tp3422
I6
s(g1030
I42
g1031
Vinsert
p3423
I42
VSimpleName: DanmakuUtils
p3424
tp3425
I2
s(g2383
I42
g2384
Vinsert
p3426
I27
VInfixExpression: !=
p3427
tp3428
I3
s(g1174
I42
g1175
Vinsert
p3429
I8
VBlock
p3430
tp3431
I8
s(g516
I42
g517
Vinsert
p3432
I7
VAssignment: =
p3433
tp3434
I7
s(g1969
I42
g1970
Vinsert
p3435
I78
VMarkerAnnotation
p3436
tp3437
I8
s(g1138
I42
g1139
Vinsert
p3438
I42
VSimpleName: counter
p3439
tp3440
I43
s(g94
I42
g95
Vinsert
p3441
I42
VSimpleName: mEndFlag
p3442
tp3443
I125
s(g578
I42
g579
Vinsert
p3444
I42
VSimpleName: canvas
p3445
tp3446
I2
s(g41
I42
g42
Vinsert
p3447
I59
VVariableDeclarationFragment
p3448
tp3449
I2
s(g56
I42
g57
Vinsert
p3450
I21
VExpressionStatement
p3451
tp3452
I6
s(g754
I42
g755
Vinsert
p3453
I48
VSuperMethodInvocation
p3454
tp3455
I4
s(g787
I42
g788
Vinsert
p3456
I43
VSimpleType: DanmakusRetainer
p3457
tp3458
I12
s(g1316
I42
g1317
Vinsert
p3459
I42
VSimpleName: VideoView
p3460
tp3461
I13
s(g393
I42
g394
Vinsert
p3462
I42
VSimpleName: seekMills
p3463
tp3464
I7
s(Vinsert
p3465
I42
VSimpleName: setVideoPath
p3466
Vinsert
p3467
I42
VSimpleName: video
p3468
tp3469
I5
s(g1442
I42
g1443
Vinsert
p3470
I42
VSimpleName: x
p3471
tp3472
I4
s(g265
I42
g266
Vinsert
p3473
I32
VMethodInvocation
p3474
tp3475
I11
s(g477
I42
g478
Vinsert
p3476
I74
VParameterizedType: ArrayList<BaseDanmaku>
p3477
tp3478
I5
s(g167
I42
g168
Vinsert
p3479
I42
VSimpleName: danmakuView
p3480
tp3481
I5
s(g926
I42
g927
Vinsert
p3482
I25
VIfStatement
p3483
tp3484
I3
s(g74
I42
g75
Vinsert
p3485
I74
VParameterizedType: SortedSet<BaseDanmaku>
p3486
tp3487
I5
s(g1979
I42
g1980
Vinsert
p3488
I42
VSimpleName: danmakuList
p3489
tp3490
I5
s(g466
I42
g467
Vinsert
p3491
I42
VSimpleName: onPrepared
p3492
tp3493
I4
s(g2176
I42
g2177
Vinsert
p3494
I42
VSimpleName: addItem
p3495
tp3496
I52
s(g803
I42
g804
Vinsert
p3497
I7
VAssignment: -=
p3498
tp3499
I2
s(g2150
I42
g2151
Vinsert
p3500
I45
VStringLiteral: "skip:"
p3501
tp3502
I6
s(g762
I42
g763
Vinsert
p3503
I51
VSynchronizedStatement
p3504
tp3505
I5
s(g1455
I42
g1456
Vinsert
p3506
I42
VSimpleName: h
p3507
tp3508
I10
s(g1053
I42
g1054
Vinsert
p3509
I42
VSimpleName: drawTask
p3510
tp3511
I4
s(g511
I42
g512
Vinsert
p3512
I21
VExpressionStatement
p3513
tp3514
I6
s(g104
I42
g105
Vinsert
p3515
I40
VQualifiedName: mTimer.currMillisecond
p3516
tp3517
I11
s(g177
I42
g178
Vinsert
p3518
I8
VBlock
p3519
tp3520
I8
s(g1340
I42
g1341
Vinsert
p3521
I21
VExpressionStatement
p3522
tp3523
I5
s(g270
I42
g271
Vinsert
p3524
I32
VMethodInvocation
p3525
tp3526
I1
s(g1545
I42
g1546
Vinsert
p3527
I7
VAssignment: =
p3528
tp3529
I1
s(g1203
I42
g1204
Vinsert
p3530
I25
VIfStatement
p3531
tp3532
I5
s(g490
I42
g491
Vinsert
p3533
I43
VSimpleType: Set
p3534
tp3535
I5
s(g398
I42
g399
Vinsert
p3536
I42
VSimpleName: ACTION_BREAK
p3537
tp3538
I8
s(g1990
I42
g1991
Vinsert
p3539
I42
VSimpleName: Iterator
p3540
tp3541
I15
s(g1119
I42
g1120
Vinsert
p3542
I42
VSimpleName: valueOf
p3543
tp3544
I2
s(g323
I42
g324
Vinsert
p3545
I32
VMethodInvocation
p3546
tp3547
I1
s(g1998
I42
g1999
Vinsert
p3548
I42
VSimpleName: t1
p3549
tp3550
I6
s(g2006
I42
g2007
Vinsert
p3551
I43
VSimpleType: String
p3552
tp3553
I6
s(g543
I42
g544
Vinsert
p3554
I42
VSimpleName: mThread
p3555
tp3556
I9
s(g977
I42
g978
Vinsert
p3557
I21
VExpressionStatement
p3558
tp3559
I6
s(g1420
I42
g1421
Vinsert
p3560
I42
VSimpleName: removeMessages
p3561
tp3562
I22
s(g1690
I42
g1691
Vinsert
p3563
I42
VSimpleName: sleep
p3564
tp3565
I4
s(g705
I42
g706
Vinsert
p3566
I33
VNullLiteral
p3567
tp3568
I2
s(g787
I42
g788
Vinsert
p3569
I14
VClassInstanceCreation
p3570
tp3571
I12
s(g1570
I42
g1571
Vinsert
p3572
I52
VThisExpression
p3573
tp3574
I16
s(g977
I42
g978
Vinsert
p3575
I8
VBlock
p3576
tp3577
I122
s(g495
I42
g496
Vinsert
p3578
I42
VSimpleName: BaseDanmaku
p3579
tp3580
I5
s(g685
I42
g686
Vinsert
p3581
I34
VNumberLiteral: 3
p3582
tp3583
I33
s(g792
I42
g793
Vinsert
p3584
I14
VClassInstanceCreation
p3585
tp3586
I2
s(g2150
I42
g2151
Vinsert
p3587
I8
VBlock
p3588
tp3589
I3
s(g197
I42
g198
Vinsert
p3590
I32
VMethodInvocation
p3591
tp3592
I15
s(g451
I42
g452
Vinsert
p3593
I39
VPrimitiveType: long
p3594
tp3595
I6
s(g1327
I42
g1328
Vinsert
p3596
I39
VPrimitiveType: int
p3597
tp3598
I2
s(g1447
I42
g1448
Vinsert
p3599
I8
VBlock
p3600
tp3601
I5
s(g895
I42
g896
Vinsert
p3602
I42
VSimpleName: Context
p3603
tp3604
I10
s(g182
I42
g183
Vinsert
p3605
I42
VSimpleName: drawTask
p3606
tp3607
I1
s(g661
I42
g662
Vinsert
p3608
I42
VSimpleName: clearRetainerFlag
p3609
tp3610
I192
s(g767
I42
g768
Vinsert
p3611
I45
VStringLiteral: "4.4.1"
p3612
tp3613
I0
s(g602
I42
g603
Vinsert
p3614
I32
VMethodInvocation
p3615
tp3616
I1
s(g16
I42
g17
Vinsert
p3617
I42
VSimpleName: update
p3618
tp3619
I6
s(g275
I42
g276
Vinsert
p3620
I43
VSimpleType: Iterator
p3621
tp3622
I14
s(g466
I42
g467
Vinsert
p3623
I40
VQualifiedName: MediaPlayer.OnPreparedListener
p3624
tp3625
I7
s(g705
I42
g706
Vinsert
p3626
I42
VSimpleName: Override
p3627
tp3628
I8
s(g645
I42
g646
Vinsert
p3629
I1
VAnonymousClassDeclaration
p3630
tp3631
I69
s(g21
I42
g22
Vinsert
p3632
I39
VPrimitiveType: void
p3633
tp3634
I14
s(g926
I42
g927
Vinsert
p3635
I8
VBlock
p3636
tp3637
I79
s(g1389
I42
g1390
Vinsert
p3638
I83
VModifier: public
p3639
tp3640
I24
s(g1035
I42
g1036
Vinsert
p3641
I42
VSimpleName: mHandler
p3642
tp3643
I11
s(g298
I42
g299
Vinsert
p3644
I34
VNumberLiteral: 200
p3645
tp3646
I2
s(g406
I42
g407
Vinsert
p3647
I21
VExpressionStatement
p3648
tp3649
I4
s(g250
I42
g251
Vinsert
p3650
I32
VMethodInvocation
p3651
tp3652
I6
s(g1517
I42
g1518
Vinsert
p3653
I40
VQualifiedName: mLastRenderingState.totalDanmakuCount
p3654
tp3655
I5
s(g954
I42
g955
Vinsert
p3656
I41
VReturnStatement
p3657
tp3658
I35
s(g661
I42
g662
Vinsert
p3659
I7
VAssignment: =
p3660
tp3661
I58
s(g2087
I42
g2088
Vinsert
p3662
I45
VStringLiteral: "mCaches size"
p3663
tp3664
I24
s(g357
I42
g358
Vinsert
p3665
I8
VBlock
p3666
tp3667
I56
s(g1016
I42
g1017
Vinsert
p3668
I40
VQualifiedName: refDanmaku.paintWidth
p3669
tp3670
I0
s(g527
I42
g528
Vinsert
p3671
I21
VExpressionStatement
p3672
tp3673
I6
s(g583
I42
g584
Vinsert
p3674
I40
VQualifiedName: danmaku.lines.length
p3675
tp3676
I6
s(g290
I42
g291
Vinsert
p3677
I32
VMethodInvocation
p3678
tp3679
I0
s(g240
I42
g241
Vinsert
p3680
I42
VSimpleName: canvas
p3681
tp3682
I1
s(g578
I42
g579
Vinsert
p3683
I59
VVariableDeclarationFragment
p3684
tp3685
I2
s(g1998
I42
g1999
Vinsert
p3686
I60
VVariableDeclarationStatement
p3687
tp3688
I10
s(g56
I42
g57
Vinsert
p3689
I32
VMethodInvocation
p3690
tp3691
I1
s(g912
I42
g913
Vinsert
p3692
I51
VSynchronizedStatement
p3693
tp3694
I4
s(g1583
I42
g1584
Vinsert
p3695
I42
VSimpleName: danmaku
p3696
tp3697
I2
s(g1716
I42
g1717
Vinsert
p3698
I42
VSimpleName: danmakuList
p3699
tp3700
I4
s(g2087
I42
g2088
Vinsert
p3701
I10
VBreakStatement
p3702
tp3703
I1
s(g680
I42
g681
Vinsert
p3704
I8
VBlock
p3705
tp3706
I2
s(g1058
I42
g1059
Vinsert
p3707
I25
VIfStatement
p3708
tp3709
I3
s(Vinsert
p3710
I42
VSimpleName: clear
p3711
Vinsert
p3712
I11
VCastExpression
p3713
tp3714
I1
s(g270
I42
g271
Vinsert
p3715
I39
VPrimitiveType: long
p3716
tp3717
I6
s(g2383
I42
g2384
Vinsert
p3718
I42
VSimpleName: Override
p3719
tp3720
I8
s(g270
I42
g271
Vinsert
p3721
I8
VBlock
p3722
tp3723
I2
s(g466
I42
g467
Vinsert
p3724
I31
VMethodDeclaration
p3725
tp3726
I13
s(g482
I42
g483
Vinsert
p3727
I42
VSimpleName: BaseDanmaku
p3728
tp3729
I21
s(g954
I42
g955
Vinsert
p3730
I42
VSimpleName: AbsDisplayer
p3731
tp3732
I37
s(g1820
I42
g1821
Vinsert
p3733
I27
VInfixExpression: ==
p3734
tp3735
I4
s(g240
I42
g241
Vinsert
p3736
I42
VSimpleName: w
p3737
tp3738
I10
s(g1003
I42
g1004
Vinsert
p3739
I36
VParenthesizedExpression
p3740
tp3741
I1
s(g787
I42
g788
Vinsert
p3742
I83
VModifier: public
p3743
tp3744
I9
s(g1852
I42
g1853
Vinsert
p3745
I42
VSimpleName: mLastBeginMills
p3746
tp3747
I207
s(g842
I42
g843
Vinsert
p3748
I52
VThisExpression
p3749
tp3750
I4
s(g308
I42
g309
Vinsert
p3751
I42
VSimpleName: mDanmakusVisible
p3752
tp3753
I673
s(g270
I42
g271
Vinsert
p3754
I7
VAssignment: =
p3755
tp3756
I2
s(g842
I42
g843
Vinsert
p3757
I22
VFieldAccess
p3758
tp3759
I4
s(g954
I42
g955
Vinsert
p3760
I14
VClassInstanceCreation
p3761
tp3762
I39
s(g270
I42
g271
Vinsert
p3763
I27
VInfixExpression: +
p3764
tp3765
I4
s(g1040
I42
g1041
Vinsert
p3766
I32
VMethodInvocation
p3767
tp3768
I29
s(g1778
I42
g1779
Vinsert
p3769
I42
VSimpleName: tag
p3770
tp3771
I10
s(g285
I42
g286
Vinsert
p3772
I42
VSimpleName: time
p3773
tp3774
I102
s(g832
I42
g833
Vinsert
p3775
I25
VIfStatement
p3776
tp3777
I3
s(g1174
I42
g1175
Vinsert
p3778
I83
VModifier: public
p3779
tp3780
I12
s(g1905
I42
g1906
Vinsert
p3781
I43
VSimpleType: Canvas
p3782
tp3783
I4
s(g220
I42
g221
Vinsert
p3784
I34
VNumberLiteral: 0
p3785
tp3786
I5
s(g1990
I42
g1991
Vinsert
p3787
I43
VSimpleType: IDanmakuFilter
p3788
tp3789
I7
s(g912
I42
g913
Vinsert
p3790
I42
VSimpleName: T
p3791
tp3792
I6
s(g718
I42
g719
Vinsert
p3793
I25
VIfStatement
p3794
tp3795
I11
s(g912
I42
g913
Vinsert
p3796
I31
VMethodDeclaration
p3797
tp3798
I7
s(g290
I42
g291
Vinsert
p3799
I42
VSimpleName: text
p3800
tp3801
I1
s(g149
I42
g150
Vinsert
p3802
I42
VSimpleName: wait
p3803
tp3804
I8
s(g446
I42
g447
Vinsert
p3805
I42
VSimpleName: attributes
p3806
tp3807
I10
s(g1389
I42
g1390
Vinsert
p3808
I42
VSimpleName: end
p3809
tp3810
I3
s(g1203
I42
g1204
Vinsert
p3811
I7
VAssignment: =
p3812
tp3813
I49
s(g568
I42
g569
Vinsert
p3814
I25
VIfStatement
p3815
tp3816
I8
s(g959
I42
g960
Vinsert
p3817
I59
VVariableDeclarationFragment
p3818
tp3819
I4
s(g207
I42
g208
Vinsert
p3820
I41
VReturnStatement
p3821
tp3822
I16
s(g637
I42
g638
Vinsert
p3823
I42
VSimpleName: closeQuietly
p3824
tp3825
I7
s(g3710
I42
g3711
Vinsert
p3826
I76
VWildcardType: ?
p3827
tp3828
I1
s(g1442
I42
g1443
Vinsert
p3829
I40
VQualifiedName: duration.value
p3830
tp3831
I4
s(g2292
I42
g2293
Vinsert
p3832
I27
VInfixExpression: -
p3833
tp3834
I21
s(g456
I42
g457
Vinsert
p3835
I33
VNullLiteral
p3836
tp3837
I1
s(g1559
I42
g1560
Vinsert
p3838
I44
VSingleVariableDeclaration
p3839
tp3840
I9
s(g967
I42
g968
Vinsert
p3841
I42
VSimpleName: findViewById
p3842
tp3843
I17
s(g777
I42
g778
Vinsert
p3844
I42
VSimpleName: it
p3845
tp3846
I10
s(g94
I42
g95
Vinsert
p3847
I32
VMethodInvocation
p3848
tp3849
I1
s(g74
I42
g75
Vinsert
p3850
I36
VParenthesizedExpression
p3851
tp3852
I5
s(g1138
I42
g1139
Vinsert
p3853
I39
VPrimitiveType: long
p3854
tp3855
I108
s(g362
I42
g363
Vinsert
p3856
I42
VSimpleName: DanmakuTimer
p3857
tp3858
I64
s(g1053
I42
g1054
Vinsert
p3859
I32
VMethodInvocation
p3860
tp3861
I1
s(g1517
I42
g1518
Vinsert
p3862
I34
VNumberLiteral: 20
p3863
tp3864
I5
s(g1447
I42
g1448
Vinsert
p3865
I40
VQualifiedName: R.string.cancel_sending_danmakus
p3866
tp3867
I3
s(g1053
I42
g1054
Vinsert
p3868
I42
VSimpleName: getCurrentVisibleDanmakus
p3869
tp3870
I5
s(g2176
I42
g2177
Vinsert
p3871
I51
VSynchronizedStatement
p3872
tp3873
I55
s(g420
I42
g421
Vinsert
p3874
I39
VPrimitiveType: void
p3875
tp3876
I3
s(g1559
I42
g1560
Vinsert
p3877
I42
VSimpleName: mTaskListener
p3878
tp3879
I15
s(g532
I42
g533
Vinsert
p3880
I42
VSimpleName: mBtnSendDanmaku
p3881
tp3882
I129
s(g1053
I42
g1054
Vinsert
p3883
I43
VSimpleType: BaseDanmaku
p3884
tp3885
I6
s(g482
I42
g483
Vinsert
p3886
I8
VBlock
p3887
tp3888
I12
s(g890
I42
g891
Vinsert
p3889
I8
VBlock
p3890
tp3891
I3
s(g1583
I42
g1584
Vinsert
p3892
I27
VInfixExpression: !=
p3893
tp3894
I6
s(g1211
I42
g1212
Vinsert
p3895
I42
VSimpleName: Uri
p3896
tp3897
I1
s(g260
I42
g261
Vinsert
p3898
I33
VNullLiteral
p3899
tp3900
I1
s(g1637
I42
g1638
Vinsert
p3901
I42
VSimpleName: dispH
p3902
tp3903
I2
s(g124
I42
g125
Vinsert
p3904
I83
VModifier: final
p3905
tp3906
I4
s(g250
I42
g251
Vinsert
p3907
I21
VExpressionStatement
p3908
tp3909
I3
s(g1979
I42
g1980
Vinsert
p3910
I42
VSimpleName: last
p3911
tp3912
I13
s(g187
I42
g188
Vinsert
p3913
I32
VMethodInvocation
p3914
tp3915
I1
s(g672
I42
g673
Vinsert
p3916
I42
VSimpleName: danmaku
p3917
tp3918
I5
s(g1058
I42
g1059
Vinsert
p3919
I33
VNullLiteral
p3920
tp3921
I1
s(g934
I42
g935
Vinsert
p3922
I42
VSimpleName: sizeOf
p3923
tp3924
I7
s(g680
I42
g681
Vinsert
p3925
I43
VSimpleType: Menu
p3926
tp3927
I6
s(g808
I42
g809
Vinsert
p3928
I40
VQualifiedName: holder.extra
p3929
tp3930
I1
s(g718
I42
g719
Vinsert
p3931
I42
VSimpleName: cacheSize
p3932
tp3933
I10
s(g177
I42
g178
Vinsert
p3934
I44
VSingleVariableDeclaration
p3935
tp3936
I10
s(g959
I42
g960
Vinsert
p3937
I8
VBlock
p3938
tp3939
I6
s(g1575
I42
g1576
Vinsert
p3940
I33
VNullLiteral
p3941
tp3942
I10
s(g895
I42
g896
Vinsert
p3943
I43
VSimpleType: Context
p3944
tp3945
I10
s(g182
I42
g183
Vinsert
p3946
I34
VNumberLiteral: 0
p3947
tp3948
I33
s(g177
I42
g178
Vinsert
p3949
I43
VSimpleType: MotionEvent
p3950
tp3951
I10
s(g119
I42
g120
Vinsert
p3952
I42
VSimpleName: next
p3953
tp3954
I14
s(g680
I42
g681
Vinsert
p3955
I44
VSingleVariableDeclaration
p3956
tp3957
I6
s(g255
I42
g256
Vinsert
p3958
I42
VSimpleName: mHolder
p3959
tp3960
I5
s(g265
I42
g266
Vinsert
p3961
I42
VSimpleName: tempStr
p3962
tp3963
I4
s(g588
I42
g589
Vinsert
p3964
I27
VInfixExpression: &&
p3965
tp3966
I4
s(g827
I42
g828
Vinsert
p3967
I78
VMarkerAnnotation
p3968
tp3969
I14
s(g16
I42
g17
Vinsert
p3970
I31
VMethodDeclaration
p3971
tp3972
I8
s(g31
I42
g32
Vinsert
p3973
I42
VSimpleName: top
p3974
tp3975
I4
s(g637
I42
g638
Vinsert
p3976
I42
VSimpleName: OutputStream
p3977
tp3978
I6
s(g149
I42
g150
Vinsert
p3979
I8
VBlock
p3980
tp3981
I57
s(g1111
I42
g1112
Vinsert
p3982
I60
VVariableDeclarationStatement
p3983
tp3984
I6
s(g16
I42
g17
Vinsert
p3985
I83
VModifier: public
p3986
tp3987
I8
s(g511
I42
g512
Vinsert
p3988
I42
VSimpleName: String
p3989
tp3990
I3
s(g637
I42
g638
Vinsert
p3991
I32
VMethodInvocation
p3992
tp3993
I1
s(g388
I42
g389
Vinsert
p3994
I42
VSimpleName: requestRemeasure
p3995
tp3996
I7
s(Vinsert
p3997
I42
VSimpleName: quit
p3998
Vinsert
p3999
I42
VSimpleName: quitDrawThread
p4000
tp4001
I11
s(g230
I42
g231
Vinsert
p4002
I42
VSimpleName: loadAcDanmakus
p4003
tp4004
I5
s(g1969
I42
g1970
Vinsert
p4005
I42
VSimpleName: reset
p4006
tp4007
I2
s(g695
I42
g696
Vinsert
p4008
I34
VNumberLiteral: 14
p4009
tp4010
I381
s(g690
I42
g691
Vinsert
p4011
I40
VQualifiedName: R.id.sv_danmaku
p4012
tp4013
I3
s(g803
I42
g804
Vinsert
p4014
I33
VNullLiteral
p4015
tp4016
I2
s(g162
I42
g163
Vinsert
p4017
I60
VVariableDeclarationStatement
p4018
tp4019
I6
s(g275
I42
g276
Vinsert
p4020
I42
VSimpleName: danmakus
p4021
tp4022
I9
s(g1079
I42
g1080
Vinsert
p4023
I7
VAssignment: =
p4024
tp4025
I154
s(g212
I42
g213
Vinsert
p4026
I25
VIfStatement
p4027
tp4028
I8
s(g84
I42
g85
Vinsert
p4029
I32
VMethodInvocation
p4030
tp4031
I14
s(g895
I42
g896
Vinsert
p4032
I42
VSimpleName: getMemoryClass
p4033
tp4034
I14
s(g1063
I42
g1064
Vinsert
p4035
I34
VNumberLiteral: 0
p4036
tp4037
I231
s(g610
I42
g611
Vinsert
p4038
I8
VBlock
p4039
tp4040
I4
s(g1058
I42
g1059
Vinsert
p4041
I21
VExpressionStatement
p4042
tp4043
I1
s(g41
I42
g42
Vinsert
p4044
I32
VMethodInvocation
p4045
tp4046
I1
s(g79
I42
g80
Vinsert
p4047
I39
VPrimitiveType: long
p4048
tp4049
I14
s(g1340
I42
g1341
Vinsert
p4050
I14
VClassInstanceCreation
p4051
tp4052
I6
s(g1807
I42
g1808
Vinsert
p4053
I25
VIfStatement
p4054
tp4055
I5
s(g1111
I42
g1112
Vinsert
p4056
I42
VSimpleName: t
p4057
tp4058
I4
s(g41
I42
g42
Vinsert
p4059
I41
VReturnStatement
p4060
tp4061
I4
s(g225
I42
g226
Vinsert
p4062
I39
VPrimitiveType: void
p4063
tp4064
I6
s(g74
I42
g75
Vinsert
p4065
I42
VSimpleName: startTime
p4066
tp4067
I6
s(g993
I42
g994
Vinsert
p4068
I42
VSimpleName: ms
p4069
tp4070
I4
s(g500
I42
g501
Vinsert
p4071
I27
VInfixExpression: !=
p4072
tp4073
I2
s(g1111
I42
g1112
Vinsert
p4074
I42
VSimpleName: paint
p4075
tp4076
I1
s(g1106
I42
g1107
Vinsert
p4077
I39
VPrimitiveType: int
p4078
tp4079
I3
s(g119
I42
g120
Vinsert
p4080
I42
VSimpleName: action
p4081
tp4082
I4
s(g380
I42
g381
Vinsert
p4083
I33
VNullLiteral
p4084
tp4085
I1
s(g398
I42
g399
Vinsert
p4086
I7
VAssignment: =
p4087
tp4088
I11
s(g398
I42
g399
Vinsert
p4089
I21
VExpressionStatement
p4090
tp4091
I16
s(g172
I42
g173
Vinsert
p4092
I42
VSimpleName: what
p4093
tp4094
I47
s(g129
I42
g130
Vinsert
p4095
I42
VSimpleName: x
p4096
tp4097
I7
s(g792
I42
g793
Vinsert
p4098
I21
VExpressionStatement
p4099
tp4100
I4
s(g511
I42
g512
Vinsert
p4101
I42
VSimpleName: updateHeapValue
p4102
tp4103
I6
s(g726
I42
g727
Vinsert
p4104
I40
VQualifiedName: IDrawTask.PLAY_STATE_PLAYING
p4105
tp4106
I48
s(g1130
I42
g1131
Vinsert
p4107
I42
VSimpleName: capity
p4108
tp4109
I8
s(g56
I42
g57
Vinsert
p4110
I42
VSimpleName: CacheManager
p4111
tp4112
I5
s(g230
I42
g231
Vinsert
p4113
I42
VSimpleName: mLoader
p4114
tp4115
I2
s(g718
I42
g719
Vinsert
p4116
I21
VExpressionStatement
p4117
tp4118
I1
s(g260
I42
g261
Vinsert
p4119
I27
VInfixExpression: !=
p4120
tp4121
I2
s(g832
I42
g833
Vinsert
p4122
I32
VMethodInvocation
p4123
tp4124
I1
s(g420
I42
g421
Vinsert
p4125
I42
VSimpleName: getHeight
p4126
tp4127
I6
s(g1406
I42
g1407
Vinsert
p4128
I41
VReturnStatement
p4129
tp4130
I97
s(g551
I42
g552
Vinsert
p4131
I42
VSimpleName: subDanmakus
p4132
tp4133
I1
s(g21
I42
g22
Vinsert
p4134
I42
VSimpleName: postion
p4135
tp4136
I8
s(g41
I42
g42
Vinsert
p4137
I33
VNullLiteral
p4138
tp4139
I4
s(g1237
I42
g1238
Vinsert
p4140
I42
VSimpleName: GlobalFlagValues
p4141
tp4142
I1
s(g430
I42
g431
Vinsert
p4143
I23
VFieldDeclaration
p4144
tp4145
I10
s(g26
I42
g27
Vinsert
p4146
I25
VIfStatement
p4147
tp4148
I4
s(g207
I42
g208
Vinsert
p4149
I39
VPrimitiveType: long
p4150
tp4151
I7
s(g610
I42
g611
Vinsert
p4152
I37
VPostfixExpression: ++
p4153
tp4154
I8
s(g220
I42
g221
Vinsert
p4155
I32
VMethodInvocation
p4156
tp4157
I10
s(g56
I42
g57
Vinsert
p4158
I42
VSimpleName: MAX_CACHE_SCREEN_SIZE
p4159
tp4160
I3
s(g532
I42
g533
Vinsert
p4161
I52
VThisExpression
p4162
tp4163
I123
s(g500
I42
g501
Vinsert
p4164
I36
VParenthesizedExpression
p4165
tp4166
I2
s(g109
I42
g110
Vinsert
p4167
I60
VVariableDeclarationStatement
p4168
tp4169
I8
s(g734
I42
g735
Vinsert
p4170
I8
VBlock
p4171
tp4172
I551
s(g623
I42
g624
Vinsert
p4173
I83
VModifier: static
p4174
tp4175
I14
s(g84
I42
g85
Vinsert
p4176
I27
VInfixExpression: !=
p4177
tp4178
I14
s(g139
I42
g140
Vinsert
p4179
I32
VMethodInvocation
p4180
tp4181
I0
s(g1525
I42
g1526
Vinsert
p4182
I44
VSingleVariableDeclaration
p4183
tp4184
I11
s(g695
I42
g696
Vinsert
p4185
I33
VNullLiteral
p4186
tp4187
I1
s(g700
I42
g701
Vinsert
p4188
I40
VQualifiedName: mRenderingState.nothingRendered
p4189
tp4190
I1
s(g782
I42
g783
Vinsert
p4191
I40
VQualifiedName: Color.TRANSPARENT
p4192
tp4193
I4
s(g1327
I42
g1328
Vinsert
p4194
I27
VInfixExpression: -
p4195
tp4196
I3
s(g114
I42
g115
Vinsert
p4197
I8
VBlock
p4198
tp4199
I43
s(g623
I42
g624
Vinsert
p4200
I42
VSimpleName: String
p4201
tp4202
I8
s(g734
I42
g735
Vinsert
p4203
I43
VSimpleType: DanmakuContext
p4204
tp4205
I553
s(g808
I42
g809
Vinsert
p4206
I40
VQualifiedName: holder.canvas
p4207
tp4208
I5
s(g690
I42
g691
Vinsert
p4209
I33
VNullLiteral
p4210
tp4211
I1
s(g220
I42
g221
Vinsert
p4212
I42
VSimpleName: removeMessages
p4213
tp4214
I5
s(g202
I42
g203
Vinsert
p4215
I33
VNullLiteral
p4216
tp4217
I67
s(g16
I42
g17
Vinsert
p4218
I44
VSingleVariableDeclaration
p4219
tp4220
I5
s(g1003
I42
g1004
Vinsert
p4221
I42
VSimpleName: r
p4222
tp4223
I8
s(g772
I42
g773
Vinsert
p4224
I27
VInfixExpression: !=
p4225
tp4226
I4
s(g347
I42
g348
Vinsert
p4227
I27
VInfixExpression: <
p4228
tp4229
I4
s(g690
I42
g691
Vinsert
p4230
I43
VSimpleType: DanmakuSurfaceView
p4231
tp4232
I5
s(g803
I42
g804
Vinsert
p4233
I27
VInfixExpression: !=
p4234
tp4235
I4
s(g1871
I42
g1872
Vinsert
p4236
I45
VStringLiteral: "before removeCallbacksAndMessages"
p4237
tp4238
I3
s(g490
I42
g491
Vinsert
p4239
I40
VQualifiedName: subItems.items
p4240
tp4241
I0
s(g235
I42
g236
Vinsert
p4242
I8
VBlock
p4243
tp4244
I1
s(g41
I42
g42
Vinsert
p4245
I39
VPrimitiveType: int
p4246
tp4247
I3
s(g1455
I42
g1456
Vinsert
p4248
I42
VSimpleName: width
p4249
tp4250
I6
s(g235
I42
g236
Vinsert
p4251
I42
VSimpleName: onDanmakuClick
p4252
tp4253
I4
s(g1174
I42
g1175
Vinsert
p4254
I33
VNullLiteral
p4255
tp4256
I2
s(g500
I42
g501
Vinsert
p4257
I39
VPrimitiveType: int
p4258
tp4259
I5
s(g438
I42
g439
Vinsert
p4260
I39
VPrimitiveType: int
p4261
tp4262
I85
s(g718
I42
g719
Vinsert
p4263
I36
VParenthesizedExpression
p4264
tp4265
I4
s(g610
I42
g611
Vinsert
p4266
I25
VIfStatement
p4267
tp4268
I7
s(g543
I42
g544
Vinsert
p4269
I25
VIfStatement
p4270
tp4271
I10
s(g162
I42
g163
Vinsert
p4272
I42
VSimpleName: mPause
p4273
tp4274
I7
s(g406
I42
g407
Vinsert
p4275
I42
VSimpleName: length
p4276
tp4277
I6
s(g610
I42
g611
Vinsert
p4278
I21
VExpressionStatement
p4279
tp4280
I1
s(g1003
I42
g1004
Vinsert
p4281
I34
VNumberLiteral: 0
p4282
tp4283
I6
s(g1058
I42
g1059
Vinsert
p4284
I27
VInfixExpression: !=
p4285
tp4286
I2
s(g323
I42
g324
Vinsert
p4287
I41
VReturnStatement
p4288
tp4289
I3
s(g1852
I42
g1853
Vinsert
p4290
I27
VInfixExpression: &&
p4291
tp4292
I200
s(g672
I42
g673
Vinsert
p4293
I11
VCastExpression
p4294
tp4295
I3
s(g1203
I42
g1204
Vinsert
p4296
I42
VSimpleName: USE_DRAWCOLOR_MODE_CLEAR
p4297
tp4298
I53
s(g672
I42
g673
Vinsert
p4299
I40
VQualifiedName: msg.obj
p4300
tp4301
I2
s(g1111
I42
g1112
Vinsert
p4302
I39
VPrimitiveType: float
p4303
tp4304
I6
s(g1138
I42
g1139
Vinsert
p4305
I32
VMethodInvocation
p4306
tp4307
I43
s(g235
I42
g236
Vinsert
p4308
I42
VSimpleName: danmaku
p4309
tp4310
I2
s(g2534
I42
g2535
Vinsert
p4311
I44
VSingleVariableDeclaration
p4312
tp4313
I3
s(g230
I42
g231
Vinsert
p4314
I39
VPrimitiveType: void
p4315
tp4316
I13
s(g1489
I42
g1490
Vinsert
p4317
I27
VInfixExpression: <
p4318
tp4319
I8
s(g1389
I42
g1390
Vinsert
p4320
I52
VThisExpression
p4321
tp4322
I5
s(g578
I42
g579
Vinsert
p4323
I42
VSimpleName: mSurfaceHolder
p4324
tp4325
I1
s(g114
I42
g115
Vinsert
p4326
I59
VVariableDeclarationFragment
p4327
tp4328
I261
s(g1074
I42
g1075
Vinsert
p4329
I27
VInfixExpression: ==
p4330
tp4331
I6
s(g104
I42
g105
Vinsert
p4332
I42
VSimpleName: level
p4333
tp4334
I7
s(g882
I42
g883
Vinsert
p4335
I27
VInfixExpression: !=
p4336
tp4337
I5
s(g1030
I42
g1031
Vinsert
p4338
I42
VSimpleName: BaseDanmaku
p4339
tp4340
I5
s(g2176
I42
g2177
Vinsert
p4341
I27
VInfixExpression: ==
p4342
tp4343
I2
s(g1316
I42
g1317
Vinsert
p4344
I27
VInfixExpression: !=
p4345
tp4346
I2
s(g6
I42
g7
Vinsert
p4347
I39
VPrimitiveType: int
p4348
tp4349
I5
s(g393
I42
g394
Vinsert
p4350
I43
VSimpleType: Long
p4351
tp4352
I4
s(g328
I42
g329
Vinsert
p4353
I52
VThisExpression
p4354
tp4355
I1
s(g303
I42
g304
Vinsert
p4356
I42
VSimpleName: i
p4357
tp4358
I4
s(g661
I42
g662
Vinsert
p4359
I21
VExpressionStatement
p4360
tp4361
I58
s(g114
I42
g115
Vinsert
p4362
I41
VReturnStatement
p4363
tp4364
I39
s(g967
I42
g968
Vinsert
p4365
I40
VQualifiedName: R.id.rotate
p4366
tp4367
I16
s(g734
I42
g735
Vinsert
p4368
I40
VQualifiedName: mContext.mDanmakuFactory
p4369
tp4370
I432
s(g939
I42
g940
Vinsert
p4371
I44
VSingleVariableDeclaration
p4372
tp4373
I23
s(g705
I42
g706
Vinsert
p4374
I41
VReturnStatement
p4375
tp4376
I2
s(g2006
I42
g2007
Vinsert
p4377
I42
VSimpleName: Build
p4378
tp4379
I1
s(g1138
I42
g1139
Vinsert
p4380
I60
VVariableDeclarationStatement
p4381
tp4382
I108
s(g1820
I42
g1821
Vinsert
p4383
I42
VSimpleName: lrdrInstance
p4384
tp4385
I8
s(g1545
I42
g1546
Vinsert
p4386
I43
VSimpleType: Paint
p4387
tp4388
I5
s(g3710
I42
g3711
Vinsert
p4389
I42
VSimpleName: SoftReference
p4390
tp4391
I3
s(g1807
I42
g1808
Vinsert
p4392
I42
VSimpleName: use
p4393
tp4394
I94
s(g1955
I42
g1956
Vinsert
p4395
I42
VSimpleName: mCallback
p4396
tp4397
I3
s(g1575
I42
g1576
Vinsert
p4398
I43
VSimpleType: DanmakuContext
p4399
tp4400
I14
s(g230
I42
g231
Vinsert
p4401
I44
VSingleVariableDeclaration
p4402
tp4403
I9
s(g2638
I42
g2639
Vinsert
p4404
I32
VMethodInvocation
p4405
tp4406
I1
s(g398
I42
g399
Vinsert
p4407
I42
VSimpleName: mResult
p4408
tp4409
I11
s(g380
I42
g381
Vinsert
p4410
I44
VSingleVariableDeclaration
p4411
tp4412
I5
s(g734
I42
g735
Vinsert
p4413
I42
VSimpleName: DanmakuContext
p4414
tp4415
I553
s(g1905
I42
g1906
Vinsert
p4416
I27
VInfixExpression: +
p4417
tp4418
I1
s(g303
I42
g304
Vinsert
p4419
I60
VVariableDeclarationStatement
p4420
tp4421
I9
s(g129
I42
g130
Vinsert
p4422
I39
VPrimitiveType: long
p4423
tp4424
I3
s(g1517
I42
g1518
Vinsert
p4425
I42
VSimpleName: requestClearTimeout
p4426
tp4427
I4
s(g375
I42
g376
Vinsert
p4428
I21
VExpressionStatement
p4429
tp4430
I1
s(g1011
I42
g1012
Vinsert
p4431
I21
VExpressionStatement
p4432
tp4433
I1
s(g1990
I42
g1991
Vinsert
p4434
I43
VSimpleType: Iterator
p4435
tp4436
I15
s(g1063
I42
g1064
Vinsert
p4437
I42
VSimpleName: AtomicInteger
p4438
tp4439
I150
s(g882
I42
g883
Vinsert
p4440
I21
VExpressionStatement
p4441
tp4442
I6
s(g1447
I42
g1448
Vinsert
p4443
I7
VAssignment: =
p4444
tp4445
I3
s(g1389
I42
g1390
Vinsert
p4446
I42
VSimpleName: currentTimeMillis
p4447
tp4448
I7
s(g225
I42
g226
Vinsert
p4449
I42
VSimpleName: performClickWithlatest
p4450
tp4451
I22
s(g6
I42
g7
Vinsert
p4452
I39
VPrimitiveType: byte
p4453
tp4454
I6
s(g1257
I42
g1258
Vinsert
p4455
I42
VSimpleName: danmakuList
p4456
tp4457
I3
s(g6
I42
g7
Vinsert
p4458
I7
VAssignment: =
p4459
tp4460
I2
s(g1335
I42
g1336
Vinsert
p4461
I34
VNumberLiteral: 1
p4462
tp4463
I134
s(g637
I42
g638
Vinsert
p4464
I42
VSimpleName: out
p4465
tp4466
I8
s(g949
I42
g950
Vinsert
p4467
I42
VSimpleName: position
p4468
tp4469
I2
s(g265
I42
g266
Vinsert
p4470
I70
VEnhancedForStatement
p4471
tp4472
I5
s(g713
I42
g714
Vinsert
p4473
I42
VSimpleName: BaseDanmaku
p4474
tp4475
I5
s(g212
I42
g213
Vinsert
p4476
I21
VExpressionStatement
p4477
tp4478
I8
s(g1637
I42
g1638
Vinsert
p4479
I40
VQualifiedName: disp.density
p4480
tp4481
I1
s(g2150
I42
g2151
Vinsert
p4482
I25
VIfStatement
p4483
tp4484
I7
s(g290
I42
g291
Vinsert
p4485
I40
VQualifiedName: Spannable.Factory
p4486
tp4487
I0
s(g700
I42
g701
Vinsert
p4488
I40
VQualifiedName: danmaku.time
p4489
tp4490
I1
s(g827
I42
g828
Vinsert
p4491
I42
VSimpleName: clearDanmakusOnScreen
p4492
tp4493
I8
s(g1955
I42
g1956
Vinsert
p4494
I27
VInfixExpression: !=
p4495
tp4496
I2
s(g3465
I42
g3466
Vinsert
p4497
I60
VVariableDeclarationStatement
p4498
tp4499
I5
s(g527
I42
g528
Vinsert
p4500
I41
VReturnStatement
p4501
tp4502
I7
s(g934
I42
g935
Vinsert
p4503
I42
VSimpleName: mMaxSize
p4504
tp4505
I2
s(Vinsert
p4506
I42
VSimpleName: release
p4507
Vinsert
p4508
I42
VSimpleName: Override
p4509
tp4510
I7
s(g1316
I42
g1317
Vinsert
p4511
I11
VCastExpression
p4512
tp4513
I8
s(g1058
I42
g1059
Vinsert
p4514
I32
VMethodInvocation
p4515
tp4516
I1
s(g1040
I42
g1041
Vinsert
p4517
I42
VSimpleName: top
p4518
tp4519
I9
s(g1084
I42
g1085
Vinsert
p4520
I42
VSimpleName: mCaches
p4521
tp4522
I6
s(g1489
I42
g1490
Vinsert
p4523
I21
VExpressionStatement
p4524
tp4525
I1
s(g1340
I42
g1341
Vinsert
p4526
I45
VStringLiteral: "input stream cannot be null!"
p4527
tp4528
I5
s(g144
I42
g145
Vinsert
p4529
I21
VExpressionStatement
p4530
tp4531
I6
s(g1106
I42
g1107
Vinsert
p4532
I42
VSimpleName: mRenderer
p4533
tp4534
I1
s(g2638
I42
g2639
Vinsert
p4535
I8
VBlock
p4536
tp4537
I4
s(g1990
I42
g1991
Vinsert
p4538
I42
VSimpleName: filters
p4539
tp4540
I5
s(g1876
I42
g1877
Vinsert
p4541
I16
VConditionalExpression
p4542
tp4543
I2
s(g1420
I42
g1421
Vinsert
p4544
I42
VSimpleName: BUILD_CACHES
p4545
tp4546
I21
s(g308
I42
g309
Vinsert
p4547
I38
VPrefixExpression: !
p4548
tp4549
I678
s(g1442
I42
g1443
Vinsert
p4550
I38
VPrefixExpression: -
p4551
tp4552
I6
s(g482
I42
g483
Vinsert
p4553
I42
VSimpleName: drawTask
p4554
tp4555
I3
s(g895
I42
g896
Vinsert
p4556
I43
VSimpleType: ActivityManager
p4557
tp4558
I4
s(g74
I42
g75
Vinsert
p4559
I42
VSimpleName: SortedSet
p4560
tp4561
I5
s(g777
I42
g778
Vinsert
p4562
I42
VSimpleName: danmaku
p4563
tp4564
I27
s(g187
I42
g188
Vinsert
p4565
I21
VExpressionStatement
p4566
tp4567
I55
s(g1588
I42
g1589
Vinsert
p4568
I42
VSimpleName: mThresholdTime
p4569
tp4570
I33
s(g323
I42
g324
Vinsert
p4571
I27
VInfixExpression: !=
p4572
tp4573
I2
s(g430
I42
g431
Vinsert
p4574
I34
VNumberLiteral: 0
p4575
tp4576
I8
s(g225
I42
g226
Vinsert
p4577
I32
VMethodInvocation
p4578
tp4579
I6
s(g1058
I42
g1059
Vinsert
p4580
I41
VReturnStatement
p4581
tp4582
I229
s(g1455
I42
g1456
Vinsert
p4583
I42
VSimpleName: bitmap
p4584
tp4585
I2
s(g895
I42
g896
Vinsert
p4586
I36
VParenthesizedExpression
p4587
tp4588
I4
s(g235
I42
g236
Vinsert
p4589
I78
VMarkerAnnotation
p4590
tp4591
I7
s(g250
I42
g251
Vinsert
p4592
I43
VSimpleType: Canvas
p4593
tp4594
I10
s(g323
I42
g324
Vinsert
p4595
I8
VBlock
p4596
tp4597
I3
s(g313
I42
g314
Vinsert
p4598
I42
VSimpleName: System
p4599
tp4600
I20
s(g998
I42
g999
Vinsert
p4601
I42
VSimpleName: HandlerThread
p4602
tp4603
I2
s(g456
I42
g457
Vinsert
p4604
I27
VInfixExpression: !=
p4605
tp4606
I2
s(g734
I42
g735
Vinsert
p4607
I32
VMethodInvocation
p4608
tp4609
I1
s(g837
I42
g838
Vinsert
p4610
I40
VQualifiedName: danmaku.time
p4611
tp4612
I1
s(g2150
I42
g2151
Vinsert
p4613
I27
VInfixExpression: ==
p4614
tp4615
I1
s(g192
I42
g193
Vinsert
p4616
I60
VVariableDeclarationStatement
p4617
tp4618
I3
s(g1955
I42
g1956
Vinsert
p4619
I83
VModifier: public
p4620
tp4621
I6
s(g954
I42
g955
Vinsert
p4622
I42
VSimpleName: mDisplayer
p4623
tp4624
I35
s(g1475
I42
g1476
Vinsert
p4625
I42
VSimpleName: SortedSet
p4626
tp4627
I3
s(g124
I42
g125
Vinsert
p4628
I42
VSimpleName: uptimeMillis
p4629
tp4630
I2
s(g328
I42
g329
Vinsert
p4631
I42
VSimpleName: tag
p4632
tp4633
I5
s(g1305
I42
g1306
Vinsert
p4634
I43
VSimpleType: BaseDanmaku
p4635
tp4636
I8
s(g1095
I42
g1096
Vinsert
p4637
I42
VSimpleName: quitFlag
p4638
tp4639
I5
s(g1716
I42
g1717
Vinsert
p4640
I42
VSimpleName: mLastDanmaku
p4641
tp4642
I250
s(g713
I42
g714
Vinsert
p4643
I42
VSimpleName: danmaku
p4644
tp4645
I4
s(g2124
I42
g2125
Vinsert
p4646
I42
VSimpleName: DanmakuConfigTag
p4647
tp4648
I7
s(g645
I42
g646
Vinsert
p4649
I41
VReturnStatement
p4650
tp4651
I65
s(g172
I42
g173
Vinsert
p4652
I32
VMethodInvocation
p4653
tp4654
I32
s(g1030
I42
g1031
Vinsert
p4655
I42
VSimpleName: compare
p4656
tp4657
I8
s(g645
I42
g646
Vinsert
p4658
I42
VSimpleName: parse
p4659
tp4660
I66
s(g1654
I42
g1655
Vinsert
p4661
I42
VSimpleName: e
p4662
tp4663
I5
s(g792
I42
g793
Vinsert
p4664
I42
VSimpleName: danmaku
p4665
tp4666
I3
s(g109
I42
g110
Vinsert
p4667
I40
VQualifiedName: timer.currMillisecond
p4668
tp4669
I3
s(g527
I42
g528
Vinsert
p4670
I42
VSimpleName: parse
p4671
tp4672
I4
s(g532
I42
g533
Vinsert
p4673
I42
VSimpleName: danmaku
p4674
tp4675
I2
s(g192
I42
g193
Vinsert
p4676
I59
VVariableDeclarationFragment
p4677
tp4678
I2
s(g1130
I42
g1131
Vinsert
p4679
I8
VBlock
p4680
tp4681
I4
s(g1525
I42
g1526
Vinsert
p4682
I42
VSimpleName: mDisp
p4683
tp4684
I5
s(Vinsert
p4685
I42
VSimpleName: removeAllLiveDanmakus
p4686
Vinsert
p4687
I78
VMarkerAnnotation
p4688
tp4689
I7
s(g3298
I42
g3299
Vinsert
p4690
I41
VReturnStatement
p4691
tp4692
I201
s(g149
I42
g150
Vinsert
p4693
I43
VSimpleType: InterruptedException
p4694
tp4695
I24
s(g357
I42
g358
Vinsert
p4696
I32
VMethodInvocation
p4697
tp4698
I1
s(g74
I42
g75
Vinsert
p4699
I7
VAssignment: =
p4700
tp4701
I5
s(g705
I42
g706
Vinsert
p4702
I42
VSimpleName: handler
p4703
tp4704
I4
s(g895
I42
g896
Vinsert
p4705
I11
VCastExpression
p4706
tp4707
I4
s(g988
I42
g989
Vinsert
p4708
I42
VSimpleName: currentTimeMillis
p4709
tp4710
I8
s(g420
I42
g421
Vinsert
p4711
I40
VQualifiedName: IDrawTask.TaskListener
p4712
tp4713
I5
s(g954
I42
g955
Vinsert
p4714
I42
VSimpleName: DanmakuFactory
p4715
tp4716
I80
s(g1160
I42
g1161
Vinsert
p4717
I42
VSimpleName: last
p4718
tp4719
I2
s(g1629
I42
g1630
Vinsert
p4720
I42
VSimpleName: BaseDanmaku
p4721
tp4722
I6
s(g695
I42
g696
Vinsert
p4723
I59
VVariableDeclarationFragment
p4724
tp4725
I382
s(g342
I42
g343
Vinsert
p4726
I39
VPrimitiveType: void
p4727
tp4728
I7
s(g26
I42
g27
Vinsert
p4729
I9
VBooleanLiteral: true
p4730
tp4731
I0
s(g380
I42
g381
Vinsert
p4732
I43
VSimpleType: BaseDanmaku
p4733
tp4734
I5
s(g2837
I42
g2838
Vinsert
p4735
I42
VSimpleName: init
p4736
tp4737
I9
s(g573
I42
g574
Vinsert
p4738
I43
VSimpleType: AbsDisplayer
p4739
tp4740
I97
s(g1160
I42
g1161
Vinsert
p4741
I60
VVariableDeclarationStatement
p4742
tp4743
I3
s(g139
I42
g140
Vinsert
p4744
I42
VSimpleName: h
p4745
tp4746
I5
s(g1030
I42
g1031
Vinsert
p4747
I44
VSingleVariableDeclaration
p4748
tp4749
I27
s(g1654
I42
g1655
Vinsert
p4750
I44
VSingleVariableDeclaration
p4751
tp4752
I6
s(g602
I42
g603
Vinsert
p4753
I33
VNullLiteral
p4754
tp4755
I1
s(g1716
I42
g1717
Vinsert
p4756
I42
VSimpleName: item
p4757
tp4758
I247
s(g1583
I42
g1584
Vinsert
p4759
I33
VNullLiteral
p4760
tp4761
I5
s(g69
I42
g70
Vinsert
p4762
I42
VSimpleName: notifyRendering
p4763
tp4764
I427
s(g1969
I42
g1970
Vinsert
p4765
I32
VMethodInvocation
p4766
tp4767
I3
s(g827
I42
g828
Vinsert
p4768
I42
VSimpleName: handler
p4769
tp4770
I6
s(g240
I42
g241
Vinsert
p4771
I42
VSimpleName: h
p4772
tp4773
I8
s(g265
I42
g266
Vinsert
p4774
I43
VSimpleType: String
p4775
tp4776
I10
s(g1203
I42
g1204
Vinsert
p4777
I39
VPrimitiveType: boolean
p4778
tp4779
I53
s(g41
I42
g42
Vinsert
p4780
I8
VBlock
p4781
tp4782
I10
s(g104
I42
g105
Vinsert
p4783
I40
VQualifiedName: mCacheTimer.currMillisecond
p4784
tp4785
I7
s(g1969
I42
g1970
Vinsert
p4786
I42
VSimpleName: GlobalFlagValues
p4787
tp4788
I1
s(g420
I42
g421
Vinsert
p4789
I14
VClassInstanceCreation
p4790
tp4791
I5
s(g615
I42
g616
Vinsert
p4792
I74
VParameterizedType: ArrayList<>
p4793
tp4794
I6
s(g3465
I42
g3466
Vinsert
p4795
I59
VVariableDeclarationFragment
p4796
tp4797
I4
s(g1475
I42
g1476
Vinsert
p4798
I11
VCastExpression
p4799
tp4800
I3
s(g2229
I42
g2230
Vinsert
p4801
I34
VNumberLiteral: 90
p4802
tp4803
I3
s(g192
I42
g193
Vinsert
p4804
I8
VBlock
p4805
tp4806
I3
s(g456
I42
g457
Vinsert
p4807
I42
VSimpleName: canvas
p4808
tp4809
I8
s(g967
I42
g968
Vinsert
p4810
I42
VSimpleName: mBtnRotate
p4811
tp4812
I115
s(g1030
I42
g1031
Vinsert
p4813
I39
VPrimitiveType: int
p4814
tp4815
I9
s(g1063
I42
g1064
Vinsert
p4816
I42
VSimpleName: set
p4817
tp4818
I127
s(g99
I42
g100
Vinsert
p4819
I25
VIfStatement
p4820
tp4821
I9
s(g461
I42
g462
Vinsert
p4822
I41
VReturnStatement
p4823
tp4824
I103
s(g149
I42
g150
Vinsert
p4825
I32
VMethodInvocation
p4826
tp4827
I52
s(g1058
I42
g1059
Vinsert
p4828
I39
VPrimitiveType: void
p4829
tp4830
I181
s(g837
I42
g838
Vinsert
p4831
I34
VNumberLiteral: 1
p4832
tp4833
I2
s(g734
I42
g735
Vinsert
p4834
I42
VSimpleName: setConfig
p4835
tp4836
I554
s(g2383
I42
g2384
Vinsert
p4837
I41
VReturnStatement
p4838
tp4839
I2
s(g328
I42
g329
Vinsert
p4840
I42
VSimpleName: values
p4841
tp4842
I3
s(g2087
I42
g2088
Vinsert
p4843
I8
VBlock
p4844
tp4845
I1
s(g420
I42
g421
Vinsert
p4846
I43
VSimpleType: IDrawTask.TaskListener
p4847
tp4848
I5
s(g767
I42
g768
Vinsert
p4849
I45
VStringLiteral: "4.4.0"
p4850
tp4851
I1
s(g568
I42
g569
Vinsert
p4852
I27
VInfixExpression: !=
p4853
tp4854
I6
s(g2638
I42
g2639
Vinsert
p4855
I42
VSimpleName: danmaku
p4856
tp4857
I4
s(g573
I42
g574
Vinsert
p4858
I76
VWildcardType: ?
p4859
tp4860
I95
s(g792
I42
g793
Vinsert
p4861
I40
VQualifiedName: item.index
p4862
tp4863
I2
s(g912
I42
g913
Vinsert
p4864
I7
VAssignment: =
p4865
tp4866
I9
s(g308
I42
g309
Vinsert
p4867
I25
VIfStatement
p4868
tp4869
I19
s(g308
I42
g309
Vinsert
p4870
I21
VExpressionStatement
p4871
tp4872
I24
s(g1174
I42
g1175
Vinsert
p4873
I27
VInfixExpression: !=
p4874
tp4875
I4
s(g1294
I42
g1295
Vinsert
p4876
I74
VParameterizedType: SoftReference<StaticLayout>
p4877
tp4878
I5
s(g1316
I42
g1317
Vinsert
p4879
I40
VQualifiedName: R.id.videoview
p4880
tp4881
I3
s(g511
I42
g512
Vinsert
p4882
I32
VMethodInvocation
p4883
tp4884
I7
s(g303
I42
g304
Vinsert
p4885
I43
VSimpleType: JSONObject
p4886
tp4887
I13
s(g695
I42
g696
Vinsert
p4888
I8
VBlock
p4889
tp4890
I1
s(g482
I42
g483
Vinsert
p4891
I33
VNullLiteral
p4892
tp4893
I3
s(g527
I42
g528
Vinsert
p4894
I42
VSimpleName: DanmakuFactory
p4895
tp4896
I1
s(g1305
I42
g1306
Vinsert
p4897
I51
VSynchronizedStatement
p4898
tp4899
I3
s(g1375
I42
g1376
Vinsert
p4900
I44
VSingleVariableDeclaration
p4901
tp4902
I18
s(g602
I42
g603
Vinsert
p4903
I59
VVariableDeclarationFragment
p4904
tp4905
I5
s(g782
I42
g783
Vinsert
p4906
I7
VAssignment: =
p4907
tp4908
I9
s(g2321
I42
g2322
Vinsert
p4909
I42
VSimpleName: mDispWidth
p4910
tp4911
I2
s(g482
I42
g483
Vinsert
p4912
I39
VPrimitiveType: boolean
p4913
tp4914
I15
s(g388
I42
g389
Vinsert
p4915
I25
VIfStatement
p4916
tp4917
I8
s(g64
I42
g65
Vinsert
p4918
I42
VSimpleName: mEndTimeMills
p4919
tp4920
I2
s(g912
I42
g913
Vinsert
p4921
I43
VSimpleType: T
p4922
tp4923
I6
s(g998
I42
g999
Vinsert
p4924
I42
VSimpleName: startDraw
p4925
tp4926
I4
s(g718
I42
g719
Vinsert
p4927
I42
VSimpleName: mMaxCacheSize
p4928
tp4929
I9
s(g672
I42
g673
Vinsert
p4930
I49
VSwitchCase
p4931
tp4932
I6
s(g1327
I42
g1328
Vinsert
p4933
I42
VSimpleName: canvas
p4934
tp4935
I4
s(g2837
I42
g2838
Vinsert
p4936
I40
VQualifiedName: danmaku.textSize
p4937
tp4938
I15
s(g1203
I42
g1204
Vinsert
p4939
I21
VExpressionStatement
p4940
tp4941
I50
s(g270
I42
g271
Vinsert
p4942
I42
VSimpleName: danmakus
p4943
tp4944
I2
s(g162
I42
g163
Vinsert
p4945
I38
VPrefixExpression: !
p4946
tp4947
I8
s(g977
I42
g978
Vinsert
p4948
I42
VSimpleName: mCurrentHeight
p4949
tp4950
I3
s(g2638
I42
g2639
Vinsert
p4951
I25
VIfStatement
p4952
tp4953
I3
s(g926
I42
g927
Vinsert
p4954
I42
VSimpleName: offsetMills
p4955
tp4956
I4
s(g1876
I42
g1877
Vinsert
p4957
I33
VNullLiteral
p4958
tp4959
I1
s(g782
I42
g783
Vinsert
p4960
I42
VSimpleName: System
p4961
tp4962
I8
s(g623
I42
g624
Vinsert
p4963
I42
VSimpleName: ILoader
p4964
tp4965
I12
s(Vinsert
p4966
I42
VSimpleName: printStackTrace
p4967
Vinsert
p4968
I34
VNumberLiteral: 20
p4969
tp4970
I3
s(g1998
I42
g1999
Vinsert
p4971
I59
VVariableDeclarationFragment
p4972
tp4973
I8
s(g357
I42
g358
Vinsert
p4974
I39
VPrimitiveType: void
p4975
tp4976
I28
s(g235
I42
g236
Vinsert
p4977
I32
VMethodInvocation
p4978
tp4979
I1
s(g2837
I42
g2838
Vinsert
p4980
I39
VPrimitiveType: void
p4981
tp4982
I10
s(g602
I42
g603
Vinsert
p4983
I27
VInfixExpression: ||
p4984
tp4985
I2
s(g959
I42
g960
Vinsert
p4986
I43
VSimpleType: IOException
p4987
tp4988
I5
s(g578
I42
g579
Vinsert
p4989
I42
VSimpleName: isViewReady
p4990
tp4991
I5
s(g202
I42
g203
Vinsert
p4992
I42
VSimpleName: drawTask
p4993
tp4994
I1
s(g977
I42
g978
Vinsert
p4995
I7
VAssignment: =
p4996
tp4997
I6
s(g1778
I42
g1779
Vinsert
p4998
I40
VQualifiedName: DanmakuConfigTag.OVERLAPPING_ENABLE
p4999
tp5000
I0
s(g367
I42
g368
Vinsert
p5001
I7
VAssignment: =
p5002
tp5003
I2
s(g79
I42
g80
Vinsert
p5004
I38
VPrefixExpression: !
p5005
tp5006
I5
s(g1079
I42
g1080
Vinsert
p5007
I44
VSingleVariableDeclaration
p5008
tp5009
I156
s(Vinsert
p5010
I42
VSimpleName: printStackTrace
p5011
Vinsert
p5012
I42
VSimpleName: mThread
p5013
tp5014
I10
s(g695
I42
g696
Vinsert
p5015
I32
VMethodInvocation
p5016
tp5017
I1
s(g438
I42
g439
Vinsert
p5018
I42
VSimpleName: mScreenSize
p5019
tp5020
I10
s(g615
I42
g616
Vinsert
p5021
I32
VMethodInvocation
p5022
tp5023
I100
s(g64
I42
g65
Vinsert
p5024
I42
VSimpleName: onFrameAvailable
p5025
tp5026
I9
s(g551
I42
g552
Vinsert
p5027
I41
VReturnStatement
p5028
tp5029
I100
s(g602
I42
g603
Vinsert
p5030
I22
VFieldAccess
p5031
tp5032
I4
s(g197
I42
g198
Vinsert
p5033
I42
VSimpleName: recycle
p5034
tp5035
I5
s(g1119
I42
g1120
Vinsert
p5036
I42
VSimpleName: startTime
p5037
tp5038
I4
s(g1079
I42
g1080
Vinsert
p5039
I43
VSimpleType: BaseDanmakuParser
p5040
tp5041
I156
s(g438
I42
g439
Vinsert
p5042
I34
VNumberLiteral: 1000
p5043
tp5044
I136
s(g1716
I42
g1717
Vinsert
p5045
I7
VAssignment: =
p5046
tp5047
I250
s(g1271
I42
g1272
Vinsert
p5048
I40
VQualifiedName: DanmakuFactory.MAX_DANMAKU_DURATION
p5049
tp5050
I18
s(g713
I42
g714
Vinsert
p5051
I21
VExpressionStatement
p5052
tp5053
I1
s(g1979
I42
g1980
Vinsert
p5054
I27
VInfixExpression: &&
p5055
tp5056
I8
s(g1588
I42
g1589
Vinsert
p5057
I42
VSimpleName: d
p5058
tp5059
I10
s(g944
I42
g945
Vinsert
p5060
I24
VForStatement
p5061
tp5062
I7
s(g375
I42
g376
Vinsert
p5063
I42
VSimpleName: bmp
p5064
tp5065
I14
s(g89
I42
g90
Vinsert
p5066
I33
VNullLiteral
p5067
tp5068
I3
s(g1095
I42
g1096
Vinsert
p5069
I33
VNullLiteral
p5070
tp5071
I3
s(g610
I42
g611
Vinsert
p5072
I42
VSimpleName: isShown
p5073
tp5074
I4
s(g1053
I42
g1054
Vinsert
p5075
I33
VNullLiteral
p5076
tp5077
I2
s(g2087
I42
g2088
Vinsert
p5078
I45
VStringLiteral: " before/"
p5079
tp5080
I22
s(g1335
I42
g1336
Vinsert
p5081
I42
VSimpleName: drawItem
p5082
tp5083
I70
s(g357
I42
g358
Vinsert
p5084
I21
VExpressionStatement
p5085
tp5086
I1
s(g109
I42
g110
Vinsert
p5087
I42
VSimpleName: toTime
p5088
tp5089
I2
s(g856
I42
g857
Vinsert
p5090
I42
VSimpleName: currTime
p5091
tp5092
I10
s(g495
I42
g496
Vinsert
p5093
I21
VExpressionStatement
p5094
tp5095
I1
s(g602
I42
g603
Vinsert
p5096
I43
VSimpleType: Bitmap
p5097
tp5098
I6
s(g425
I42
g426
Vinsert
p5099
I48
VSuperMethodInvocation
p5100
tp5101
I4
s(g119
I42
g120
Vinsert
p5102
I59
VVariableDeclarationFragment
p5103
tp5104
I13
s(g1106
I42
g1107
Vinsert
p5105
I34
VNumberLiteral: 5
p5106
tp5107
I67
s(g1489
I42
g1490
Vinsert
p5108
I8
VBlock
p5109
tp5110
I7
s(g602
I42
g603
Vinsert
p5111
I25
VIfStatement
p5112
tp5113
I3
s(g149
I42
g150
Vinsert
p5114
I42
VSimpleName: mDrawingNotify
p5115
tp5116
I10
s(g1143
I42
g1144
Vinsert
p5117
I42
VSimpleName: System
p5118
tp5119
I4
s(g734
I42
g735
Vinsert
p5120
I39
VPrimitiveType: void
p5121
tp5122
I555
s(g4685
I42
g4686
Vinsert
p5123
I42
VSimpleName: Override
p5124
tp5125
I7
s(g303
I42
g304
Vinsert
p5126
I42
VSimpleName: getJSONObject
p5127
tp5128
I9
s(g1160
I42
g1161
Vinsert
p5129
I42
VSimpleName: danmakus
p5130
tp5131
I1
s(g318
I42
g319
Vinsert
p5132
I42
VSimpleName: releaseDataSource
p5133
tp5134
I17
s(g3015
I42
g3016
Vinsert
p5135
I42
VSimpleName: onDanmakuRemoved
p5136
tp5137
I25
s(g573
I42
g574
Vinsert
p5138
I60
VVariableDeclarationStatement
p5139
tp5140
I4
s(g1316
I42
g1317
Vinsert
p5141
I42
VSimpleName: findViewById
p5142
tp5143
I6
s(g51
I42
g52
Vinsert
p5144
I11
VCastExpression
p5145
tp5146
I6
s(g134
I42
g135
Vinsert
p5147
I42
VSimpleName: HIDE_DANMAKUS
p5148
tp5149
I215
s(g451
I42
g452
Vinsert
p5150
I83
VModifier: public
p5151
tp5152
I18
s(g4506
I42
g4507
Vinsert
p5153
I78
VMarkerAnnotation
p5154
tp5155
I7
s(g882
I42
g883
Vinsert
p5156
I32
VMethodInvocation
p5157
tp5158
I1
s(g1237
I42
g1238
Vinsert
p5159
I21
VExpressionStatement
p5160
tp5161
I1
s(g1778
I42
g1779
Vinsert
p5162
I42
VSimpleName: isMaxLinesLimited
p5163
tp5164
I400
s(g207
I42
g208
Vinsert
p5165
I60
VVariableDeclarationStatement
p5166
tp5167
I20
s(g705
I42
g706
Vinsert
p5168
I78
VMarkerAnnotation
p5169
tp5170
I8
s(g993
I42
g994
Vinsert
p5171
I39
VPrimitiveType: int
p5172
tp5173
I5
s(g1420
I42
g1421
Vinsert
p5174
I27
VInfixExpression: <
p5175
tp5176
I1
s(g380
I42
g381
Vinsert
p5177
I21
VExpressionStatement
p5178
tp5179
I1
s(g551
I42
g552
Vinsert
p5180
I39
VPrimitiveType: int
p5181
tp5182
I53
s(g275
I42
g276
Vinsert
p5183
I42
VSimpleName: Iterator
p5184
tp5185
I14
s(g308
I42
g309
Vinsert
p5186
I27
VInfixExpression: ==
p5187
tp5188
I3
s(g1876
I42
g1877
Vinsert
p5189
I83
VModifier: public
p5190
tp5191
I6
s(g977
I42
g978
Vinsert
p5192
I42
VSimpleName: displayer
p5193
tp5194
I5
s(g362
I42
g363
Vinsert
p5195
I42
VSimpleName: timer
p5196
tp5197
I129
s(g1690
I42
g1691
Vinsert
p5198
I42
VSimpleName: Thread
p5199
tp5200
I5
s(g2383
I42
g2384
Vinsert
p5201
I31
VMethodDeclaration
p5202
tp5203
I8
s(g250
I42
g251
Vinsert
p5204
I42
VSimpleName: drawDuration
p5205
tp5206
I12
s(g926
I42
g927
Vinsert
p5207
I48
VSuperMethodInvocation
p5208
tp5209
I7
s(g777
I42
g778
Vinsert
p5210
I61
VWhileStatement
p5211
tp5212
I6
s(g954
I42
g955
Vinsert
p5213
I43
VSimpleType: DanmakuFactory
p5214
tp5215
I39
s(g89
I42
g90
Vinsert
p5216
I83
VModifier: final
p5217
tp5218
I359
s(g3997
I42
g3998
Vinsert
p5219
I83
VModifier: private
p5220
tp5221
I6
s(g1955
I42
g1956
Vinsert
p5222
I78
VMarkerAnnotation
p5223
tp5224
I7
s(g1316
I42
g1317
Vinsert
p5225
I8
VBlock
p5226
tp5227
I1
s(g1327
I42
g1328
Vinsert
p5228
I42
VSimpleName: top
p5229
tp5230
I11
s(g202
I42
g203
Vinsert
p5231
I52
VThisExpression
p5232
tp5233
I1
s(g1174
I42
g1175
Vinsert
p5234
I42
VSimpleName: removeAllDanmakus
p5235
tp5236
I7
s(g926
I42
g927
Vinsert
p5237
I42
VSimpleName: mCacheManager
p5238
tp5239
I3
s(g2517
I42
g2518
Vinsert
p5240
I42
VSimpleName: handler
p5241
tp5242
I69
s(g1442
I42
g1443
Vinsert
p5243
I27
VInfixExpression: >=
p5244
tp5245
I11
s(g1130
I42
g1131
Vinsert
p5246
I44
VSingleVariableDeclaration
p5247
tp5248
I6
s(g406
I42
g407
Vinsert
p5249
I42
VSimpleName: j
p5250
tp5251
I16
s(g290
I42
g291
Vinsert
p5252
I40
VQualifiedName: danmaku.text
p5253
tp5254
I5
s(g41
I42
g42
Vinsert
p5255
I25
VIfStatement
p5256
tp5257
I6
s(g482
I42
g483
Vinsert
p5258
I44
VSingleVariableDeclaration
p5259
tp5260
I15
s(g425
I42
g426
Vinsert
p5261
I21
VExpressionStatement
p5262
tp5263
I5
s(g1588
I42
g1589
Vinsert
p5264
I42
VSimpleName: averageTime
p5265
tp5266
I12
s(g912
I42
g913
Vinsert
p5267
I42
VSimpleName: lock
p5268
tp5269
I8
s(g1074
I42
g1075
Vinsert
p5270
I36
VParenthesizedExpression
p5271
tp5272
I3
s(g477
I42
g478
Vinsert
p5273
I14
VClassInstanceCreation
p5274
tp5275
I5
s(g313
I42
g314
Vinsert
p5276
I60
VVariableDeclarationStatement
p5277
tp5278
I18
s(g2281
I42
g2282
Vinsert
p5279
I25
VIfStatement
p5280
tp5281
I2
s(g656
I42
g657
Vinsert
p5282
I38
VPrefixExpression: -
p5283
tp5284
I4
s(g1160
I42
g1161
Vinsert
p5285
I43
VSimpleType: BaseDanmaku
p5286
tp5287
I5
s(g890
I42
g891
Vinsert
p5288
I31
VMethodDeclaration
p5289
tp5290
I6
s(g2019
I42
g2020
Vinsert
p5291
I42
VSimpleName: waitTime
p5292
tp5293
I6
s(g425
I42
g426
Vinsert
p5294
I42
VSimpleName: removeAllDanmakus
p5295
tp5296
I9
s(g260
I42
g261
Vinsert
p5297
I21
VExpressionStatement
p5298
tp5299
I1
s(Vinsert
p5300
I42
VSimpleName: clear
p5301
Vinsert
p5302
I42
VSimpleName: clear
p5303
tp5304
I4
s(g406
I42
g407
Vinsert
p5305
I37
VPostfixExpression: ++
p5306
tp5307
I5
s(g1048
I42
g1049
Vinsert
p5308
I42
VSimpleName: draw
p5309
tp5310
I7
s(g803
I42
g804
Vinsert
p5311
I42
VSimpleName: hasReferences
p5312
tp5313
I6
s(g1237
I42
g1238
Vinsert
p5314
I32
VMethodInvocation
p5315
tp5316
I1
s(g568
I42
g569
Vinsert
p5317
I42
VSimpleName: enable
p5318
tp5319
I4
s(g1030
I42
g1031
Vinsert
p5320
I43
VSimpleType: BaseDanmaku
p5321
tp5322
I12
s(g162
I42
g163
Vinsert
p5323
I8
VBlock
p5324
tp5325
I6
s(g837
I42
g838
Vinsert
p5326
I40
VQualifiedName: danmaku.isLive
p5327
tp5328
I2
s(g129
I42
g130
Vinsert
p5329
I60
VVariableDeclarationStatement
p5330
tp5331
I3
s(g1998
I42
g1999
Vinsert
p5332
I42
VSimpleName: getType
p5333
tp5334
I4
s(g99
I42
g100
Vinsert
p5335
I42
VSimpleName: mCordonTime2
p5336
tp5337
I175
s(g393
I42
g394
Vinsert
p5338
I11
VCastExpression
p5339
tp5340
I4
s(g328
I42
g329
Vinsert
p5341
I41
VReturnStatement
p5342
tp5343
I2
s(g713
I42
g714
Vinsert
p5344
I25
VIfStatement
p5345
tp5346
I3
s(g290
I42
g291
Vinsert
p5347
I62
VInstanceofExpression
p5348
tp5349
I2
s(g46
I42
g47
Vinsert
p5350
I74
VParameterizedType: IDrawingCache<?>
p5351
tp5352
I7
s(g303
I42
g304
Vinsert
p5353
I43
VSimpleType: String
p5354
tp5355
I6
s(g495
I42
g496
Vinsert
p5356
I42
VSimpleName: danmaku
p5357
tp5358
I4
s(g551
I42
g552
Vinsert
p5359
I8
VBlock
p5360
tp5361
I40
s(g939
I42
g940
Vinsert
p5362
I39
VPrimitiveType: void
p5363
tp5364
I6
s(g602
I42
g603
Vinsert
p5365
I42
VSimpleName: mBufferBitmap
p5366
tp5367
I4
s(g583
I42
g584
Vinsert
p5368
I42
VSimpleName: sSlopPixelCache
p5369
tp5370
I1
s(g482
I42
g483
Vinsert
p5371
I21
VExpressionStatement
p5372
tp5373
I3
s(Vinsert
p5374
I42
VSimpleName: create
p5375
Vinsert
p5376
I11
VCastExpression
p5377
tp5378
I2
s(g532
I42
g533
Vinsert
p5379
I25
VIfStatement
p5380
tp5381
I16
s(g1979
I42
g1980
Vinsert
p5382
I43
VSimpleType: BaseDanmaku
p5383
tp5384
I15
s(g99
I42
g100
Vinsert
p5385
I42
VSimpleName: mCordonTime
p5386
tp5387
I174
s(g1237
I42
g1238
Vinsert
p5388
I27
VInfixExpression: !=
p5389
tp5390
I3
s(g1211
I42
g1212
Vinsert
p5391
I42
VSimpleName: IllegalDataException
p5392
tp5393
I5
s(g1079
I42
g1080
Vinsert
p5394
I8
VBlock
p5395
tp5396
I154
s(g777
I42
g778
Vinsert
p5397
I59
VVariableDeclarationFragment
p5398
tp5399
I4
s(g1857
I42
g1858
Vinsert
p5400
I60
VVariableDeclarationStatement
p5401
tp5402
I17
s(g461
I42
g462
Vinsert
p5403
I34
VNumberLiteral: 1
p5404
tp5405
I7
s(g856
I42
g857
Vinsert
p5406
I27
VInfixExpression: *
p5407
tp5408
I5
s(g1857
I42
g1858
Vinsert
p5409
I59
VVariableDeclarationFragment
p5410
tp5411
I46
s(g74
I42
g75
Vinsert
p5412
I43
VSimpleType: BaseDanmaku
p5413
tp5414
I7
s(g551
I42
g552
Vinsert
p5415
I83
VModifier: final
p5416
tp5417
I9
s(g167
I42
g168
Vinsert
p5418
I32
VMethodInvocation
p5419
tp5420
I5
s(g197
I42
g198
Vinsert
p5421
I40
VQualifiedName: renderingState.isRunningDanmakus
p5422
tp5423
I1
s(g578
I42
g579
Vinsert
p5424
I42
VSimpleName: Canvas
p5425
tp5426
I3
s(g328
I42
g329
Vinsert
p5427
I32
VMethodInvocation
p5428
tp5429
I2
s(g1969
I42
g1970
Vinsert
p5430
I83
VModifier: public
p5431
tp5432
I7
s(g934
I42
g935
Vinsert
p5433
I61
VWhileStatement
p5434
tp5435
I5
s(g1079
I42
g1080
Vinsert
p5436
I42
VSimpleName: mParser
p5437
tp5438
I154
s(g388
I42
g389
Vinsert
p5439
I43
VSimpleType: StaticLayout
p5440
tp5441
I5
s(g99
I42
g100
Vinsert
p5442
I27
VInfixExpression: *
p5443
tp5444
I174
s(g1079
I42
g1080
Vinsert
p5445
I42
VSimpleName: parser
p5446
tp5447
I308
s(g157
I42
g158
Vinsert
p5448
I42
VSimpleName: mTaskListener
p5449
tp5450
I3
s(g1211
I42
g1212
Vinsert
p5451
I8
VBlock
p5452
tp5453
I7
s(g74
I42
g75
Vinsert
p5454
I32
VMethodInvocation
p5455
tp5456
I5
s(g726
I42
g727
Vinsert
p5457
I8
VBlock
p5458
tp5459
I51
s(g2517
I42
g2518
Vinsert
p5460
I42
VSimpleName: setCallback
p5461
tp5462
I55
s(g1327
I42
g1328
Vinsert
p5463
I42
VSimpleName: PAINT_FPS
p5464
tp5465
I1
s(g1820
I42
g1821
Vinsert
p5466
I33
VNullLiteral
p5467
tp5468
I3
s(g1160
I42
g1161
Vinsert
p5469
I40
VQualifiedName: firstCache.time
p5470
tp5471
I60
s(g1130
I42
g1131
Vinsert
p5472
I7
VAssignment: =
p5473
tp5474
I6
s(g988
I42
g989
Vinsert
p5475
I39
VPrimitiveType: float
p5476
tp5477
I4
s(g832
I42
g833
Vinsert
p5478
I48
VSuperMethodInvocation
p5479
tp5480
I150
s(g446
I42
g447
Vinsert
p5481
I42
VSimpleName: tagName
p5482
tp5483
I4
s(g380
I42
g381
Vinsert
p5484
I32
VMethodInvocation
p5485
tp5486
I1
s(g1871
I42
g1872
Vinsert
p5487
I21
VExpressionStatement
p5488
tp5489
I28
s(g1447
I42
g1448
Vinsert
p5490
I14
VClassInstanceCreation
p5491
tp5492
I2
s(g388
I42
g389
Vinsert
p5493
I42
VSimpleName: staticLayout
p5494
tp5495
I6
s(g1685
I42
g1686
Vinsert
p5496
I42
VSimpleName: sendEmptyMessage
p5497
tp5498
I9
s(g934
I42
g935
Vinsert
p5499
I27
VInfixExpression: &&
p5500
tp5501
I4
s(g235
I42
g236
Vinsert
p5502
I21
VExpressionStatement
p5503
tp5504
I1
s(g347
I42
g348
Vinsert
p5505
I58
VVariableDeclarationExpression
p5506
tp5507
I6
s(g1
I42
g2
Vinsert
p5508
I2
VArrayAccess
p5509
tp5510
I7
s(g2087
I42
g2088
Vinsert
p5511
I42
VSimpleName: mRealSize
p5512
tp5513
I22
s(g89
I42
g90
Vinsert
p5514
I27
VInfixExpression: !=
p5515
tp5516
I6
s(g2383
I42
g2384
Vinsert
p5517
I78
VMarkerAnnotation
p5518
tp5519
I8
s(g1674
I42
g1675
Vinsert
p5520
I42
VSimpleName: syncTimerIfNeeded
p5521
tp5522
I213
s(g516
I42
g517
Vinsert
p5523
I21
VExpressionStatement
p5524
tp5525
I8
s(g680
I42
g681
Vinsert
p5526
I83
VModifier: public
p5527
tp5528
I12
s(g1257
I42
g1258
Vinsert
p5529
I27
VInfixExpression: !=
p5530
tp5531
I4
s(g1489
I42
g1490
Vinsert
p5532
I42
VSimpleName: Thread
p5533
tp5534
I1
s(g998
I42
g999
Vinsert
p5535
I45
VStringLiteral: "draw thread"
p5536
tp5537
I1
s(g51
I42
g52
Vinsert
p5538
I42
VSimpleName: seekPos
p5539
tp5540
I2
s(g1316
I42
g1317
Vinsert
p5541
I43
VSimpleType: VideoView
p5542
tp5543
I13
s(g837
I42
g838
Vinsert
p5544
I7
VAssignment: =
p5545
tp5546
I5
s(g2006
I42
g2007
Vinsert
p5547
I42
VSimpleName: field
p5548
tp5549
I2
s(g79
I42
g80
Vinsert
p5550
I25
VIfStatement
p5551
tp5552
I11
s(g1053
I42
g1054
Vinsert
p5553
I43
VSimpleType: List
p5554
tp5555
I7
s(g949
I42
g950
Vinsert
p5556
I41
VReturnStatement
p5557
tp5558
I4
s(g1654
I42
g1655
Vinsert
p5559
I43
VSimpleType: InterruptedException
p5560
tp5561
I6
s(g323
I42
g324
Vinsert
p5562
I22
VFieldAccess
p5563
tp5564
I3
s(g1545
I42
g1546
Vinsert
p5565
I59
VVariableDeclarationFragment
p5566
tp5567
I4
s(g1011
I42
g1012
Vinsert
p5568
I42
VSimpleName: mCallback
p5569
tp5570
I3
s(g298
I42
g299
Vinsert
p5571
I24
VForStatement
p5572
tp5573
I6
s(g2281
I42
g2282
Vinsert
p5574
I60
VVariableDeclarationStatement
p5575
tp5576
I5
s(g532
I42
g533
Vinsert
p5577
I43
VSimpleType: BaseDanmaku
p5578
tp5579
I3
s(g890
I42
g891
Vinsert
p5580
I46
VSuperConstructorInvocation
p5581
tp5582
I7
s(g583
I42
g584
Vinsert
p5583
I7
VAssignment: =
p5584
tp5585
I6
s(g2006
I42
g2007
Vinsert
p5586
I57
VTypeLiteral
p5587
tp5588
I1
s(g420
I42
g421
Vinsert
p5589
I42
VSimpleName: ready
p5590
tp5591
I2
s(g2281
I42
g2282
Vinsert
p5592
I42
VSimpleName: sendToTarget
p5593
tp5594
I12
s(g41
I42
g42
Vinsert
p5595
I27
VInfixExpression: ==
p5596
tp5597
I5
s(g495
I42
g496
Vinsert
p5598
I44
VSingleVariableDeclaration
p5599
tp5600
I5
s(g792
I42
g793
Vinsert
p5601
I43
VSimpleType: Duration
p5602
tp5603
I2
s(g21
I42
g22
Vinsert
p5604
I21
VExpressionStatement
p5605
tp5606
I12
s(g2281
I42
g2282
Vinsert
p5607
I40
VQualifiedName: msg.obj
p5608
tp5609
I2
s(g388
I42
g389
Vinsert
p5610
I11
VCastExpression
p5611
tp5612
I2
s(g482
I42
g483
Vinsert
p5613
I27
VInfixExpression: !=
p5614
tp5615
I6
s(g446
I42
g447
Vinsert
p5616
I27
VInfixExpression: !=
p5617
tp5618
I2
s(g84
I42
g85
Vinsert
p5619
I42
VSimpleName: mDensity
p5620
tp5621
I2
s(g425
I42
g426
Vinsert
p5622
I27
VInfixExpression: !=
p5623
tp5624
I2
s(g1305
I42
g1306
Vinsert
p5625
I42
VSimpleName: danmakuList
p5626
tp5627
I13
s(g114
I42
g115
Vinsert
p5628
I42
VSimpleName: Thread
p5629
tp5630
I262
s(g1316
I42
g1317
Vinsert
p5631
I25
VIfStatement
p5632
tp5633
I3
s(g1011
I42
g1012
Vinsert
p5634
I42
VSimpleName: onDanmakuShown
p5635
tp5636
I6
s(g119
I42
g120
Vinsert
p5637
I25
VIfStatement
p5638
tp5639
I6
s(g777
I42
g778
Vinsert
p5640
I8
VBlock
p5641
tp5642
I28
s(g270
I42
g271
Vinsert
p5643
I60
VVariableDeclarationStatement
p5644
tp5645
I6
s(g1503
I42
g1504
Vinsert
p5646
I9
VBooleanLiteral: false
p5647
tp5648
I199
s(g6
I42
g7
Vinsert
p5649
I32
VMethodInvocation
p5650
tp5651
I1
s(g380
I42
g381
Vinsert
p5652
I27
VInfixExpression: !=
p5653
tp5654
I2
s(g1629
I42
g1630
Vinsert
p5655
I43
VSimpleType: BaseDanmaku
p5656
tp5657
I6
s(g1011
I42
g1012
Vinsert
p5658
I25
VIfStatement
p5659
tp5660
I3
s(g46
I42
g47
Vinsert
p5661
I76
VWildcardType: ?
p5662
tp5663
I6
s(g1583
I42
g1584
Vinsert
p5664
I42
VSimpleName: getPaint
p5665
tp5666
I3
s(g260
I42
g261
Vinsert
p5667
I32
VMethodInvocation
p5668
tp5669
I1
s(g461
I42
g462
Vinsert
p5670
I42
VSimpleName: subnew
p5671
tp5672
I89
s(g856
I42
g857
Vinsert
p5673
I36
VParenthesizedExpression
p5674
tp5675
I17
s(g89
I42
g90
Vinsert
p5676
I34
VNumberLiteral: 13
p5677
tp5678
I356
s(g1174
I42
g1175
Vinsert
p5679
I21
VExpressionStatement
p5680
tp5681
I2
s(g1016
I42
g1017
Vinsert
p5682
I27
VInfixExpression: &&
p5683
tp5684
I0
s(g250
I42
g251
Vinsert
p5685
I8
VBlock
p5686
tp5687
I7
s(g144
I42
g145
Vinsert
p5688
I32
VMethodInvocation
p5689
tp5690
I6
s(g456
I42
g457
Vinsert
p5691
I32
VMethodInvocation
p5692
tp5693
I27
s(g1389
I42
g1390
Vinsert
p5694
I42
VSimpleName: AndroidCounter
p5695
tp5696
I4
s(g1375
I42
g1376
Vinsert
p5697
I42
VSimpleName: danmaku
p5698
tp5699
I9
s(g1974
I42
g1975
Vinsert
p5700
I40
VQualifiedName: drawItems.items
p5701
tp5702
I0
s(g438
I42
g439
Vinsert
p5703
I59
VVariableDeclarationFragment
p5704
tp5705
I84
s(g124
I42
g125
Vinsert
p5706
I39
VPrimitiveType: long
p5707
tp5708
I3
s(g84
I42
g85
Vinsert
p5709
I42
VSimpleName: recycle
p5710
tp5711
I13
s(g51
I42
g52
Vinsert
p5712
I40
VQualifiedName: msg.obj
p5713
tp5714
I5
s(g726
I42
g727
Vinsert
p5715
I27
VInfixExpression: !=
p5716
tp5717
I2
s(g1237
I42
g1238
Vinsert
p5718
I8
VBlock
p5719
tp5720
I1
s(g187
I42
g188
Vinsert
p5721
I7
VAssignment: =
p5722
tp5723
I55
s(g1079
I42
g1080
Vinsert
p5724
I42
VSimpleName: task
p5725
tp5726
I1
s(g2281
I42
g2282
Vinsert
p5727
I43
VSimpleType: Boolean
p5728
tp5729
I8
s(g157
I42
g158
Vinsert
p5730
I21
VExpressionStatement
p5731
tp5732
I5
s(g700
I42
g701
Vinsert
p5733
I7
VAssignment: +=
p5734
tp5735
I1
s(g959
I42
g960
Vinsert
p5736
I42
VSimpleName: JSONException
p5737
tp5738
I4
s(g1559
I42
g1560
Vinsert
p5739
I42
VSimpleName: drawDanmakus
p5740
tp5741
I5
s(g1130
I42
g1131
Vinsert
p5742
I42
VSimpleName: RectCache
p5743
tp5744
I7
s(g265
I42
g266
Vinsert
p5745
I42
VSimpleName: danmaku
p5746
tp5747
I7
s(g1048
I42
g1049
Vinsert
p5748
I33
VNullLiteral
p5749
tp5750
I2
s(g1575
I42
g1576
Vinsert
p5751
I42
VSimpleName: getConfig
p5752
tp5753
I12
s(g3710
I42
g3711
Vinsert
p5754
I74
VParameterizedType: SoftReference<?>
p5755
tp5756
I3
s(g645
I42
g646
Vinsert
p5757
I42
VSimpleName: Danmakus
p5758
tp5759
I131
s(g74
I42
g75
Vinsert
p5760
I42
VSimpleName: endTime
p5761
tp5762
I5
s(g543
I42
g544
Vinsert
p5763
I83
VModifier: public
p5764
tp5765
I4
s(g1812
I42
g1813
Vinsert
p5766
I39
VPrimitiveType: void
p5767
tp5768
I17
s(g700
I42
g701
Vinsert
p5769
I42
VSimpleName: danmaku
p5770
tp5771
I3
s(g220
I42
g221
Vinsert
p5772
I27
VInfixExpression: <
p5773
tp5774
I6
s(g772
I42
g773
Vinsert
p5775
I32
VMethodInvocation
p5776
tp5777
I4
s(g2321
I42
g2322
Vinsert
p5778
I83
VModifier: public
p5779
tp5780
I17
s(g1237
I42
g1238
Vinsert
p5781
I43
VSimpleType: Boolean
p5782
tp5783
I5
s(g388
I42
g389
Vinsert
p5784
I42
VSimpleName: paint
p5785
tp5786
I3
s(g225
I42
g226
Vinsert
p5787
I25
VIfStatement
p5788
tp5789
I6
s(g967
I42
g968
Vinsert
p5790
I11
VCastExpression
p5791
tp5792
I18
s(g1559
I42
g1560
Vinsert
p5793
I43
VSimpleType: Canvas
p5794
tp5795
I9
s(g2534
I42
g2535
Vinsert
p5796
I42
VSimpleName: seek
p5797
tp5798
I4
s(g511
I42
g512
Vinsert
p5799
I43
VSimpleType: String
p5800
tp5801
I3
s(g2006
I42
g2007
Vinsert
p5802
I54
VTryStatement
p5803
tp5804
I4
s(g1503
I42
g1504
Vinsert
p5805
I38
VPrefixExpression: !
p5806
tp5807
I2
s(g583
I42
g584
Vinsert
p5808
I21
VExpressionStatement
p5809
tp5810
I7
s(g461
I42
g462
Vinsert
p5811
I42
VSimpleName: mViewWidth
p5812
tp5813
I5
s(g64
I42
g65
Vinsert
p5814
I21
VExpressionStatement
p5815
tp5816
I7
s(g516
I42
g517
Vinsert
p5817
I33
VNullLiteral
p5818
tp5819
I1
s(g393
I42
g394
Vinsert
p5820
I42
VSimpleName: Long
p5821
tp5822
I10
s(g685
I42
g686
Vinsert
p5823
I49
VSwitchCase
p5824
tp5825
I7
s(g2281
I42
g2282
Vinsert
p5826
I59
VVariableDeclarationFragment
p5827
tp5828
I4
s(g182
I42
g183
Vinsert
p5829
I42
VSimpleName: UPDATE
p5830
tp5831
I12
s(g11
I42
g12
Vinsert
p5832
I42
VSimpleName: mIsObtaining
p5833
tp5834
I58
s(g1969
I42
g1970
Vinsert
p5835
I42
VSimpleName: clearDanmakusOnScreen
p5836
tp5837
I5
s(g782
I42
g783
Vinsert
p5838
I42
VSimpleName: currentTimeMillis
p5839
tp5840
I7
s(g162
I42
g163
Vinsert
p5841
I25
VIfStatement
p5842
tp5843
I2
s(g1084
I42
g1085
Vinsert
p5844
I42
VSimpleName: first
p5845
tp5846
I5
s(g245
I42
g246
Vinsert
p5847
I27
VInfixExpression: !=
p5848
tp5849
I3
s(g207
I42
g208
Vinsert
p5850
I42
VSimpleName: startTime
p5851
tp5852
I6
s(g1990
I42
g1991
Vinsert
p5853
I74
VParameterizedType: Iterator<IDanmakuFilter>
p5854
tp5855
I8
s(g220
I42
g221
Vinsert
p5856
I8
VBlock
p5857
tp5858
I8
s(g988
I42
g989
Vinsert
p5859
I42
VSimpleName: mDrawTimes
p5860
tp5861
I8
s(g1340
I42
g1341
Vinsert
p5862
I42
VSimpleName: IOUtils
p5863
tp5864
I2
s(g255
I42
g256
Vinsert
p5865
I25
VIfStatement
p5866
tp5867
I4
s(g64
I42
g65
Vinsert
p5868
I42
VSimpleName: bitmap
p5869
tp5870
I13
s(g2014
I42
g2015
Vinsert
p5871
I43
VSimpleType: BaseDanmaku
p5872
tp5873
I6
s(g1048
I42
g1049
Vinsert
p5874
I41
VReturnStatement
p5875
tp5876
I2
s(g308
I42
g309
Vinsert
p5877
I42
VSimpleName: notifyRendering
p5878
tp5879
I450
s(g187
I42
g188
Vinsert
p5880
I40
VQualifiedName: disp.height
p5881
tp5882
I55
s(g255
I42
g256
Vinsert
p5883
I83
VModifier: final
p5884
tp5885
I8
s(g1003
I42
g1004
Vinsert
p5886
I32
VMethodInvocation
p5887
tp5888
I1
s(g255
I42
g256
Vinsert
p5889
I8
VBlock
p5890
tp5891
I2
s(g109
I42
g110
Vinsert
p5892
I39
VPrimitiveType: long
p5893
tp5894
I8
s(g1517
I42
g1518
Vinsert
p5895
I8
VBlock
p5896
tp5897
I58
s(g1
I42
g2
Vinsert
p5898
I43
VSimpleType: LinePath
p5899
tp5900
I3
s(g393
I42
g394
Vinsert
p5901
I33
VNullLiteral
p5902
tp5903
I1
s(g308
I42
g309
Vinsert
p5904
I42
VSimpleName: dTime
p5905
tp5906
I3
s(g516
I42
g517
Vinsert
p5907
I8
VBlock
p5908
tp5909
I1
s(g500
I42
g501
Vinsert
p5910
I42
VSimpleName: endPos
p5911
tp5912
I2
s(g225
I42
g226
Vinsert
p5913
I43
VSimpleType: IDanmakus
p5914
tp5915
I4
s(g2534
I42
g2535
Vinsert
p5916
I42
VSimpleName: mills
p5917
tp5918
I2
s(g977
I42
g978
Vinsert
p5919
I25
VIfStatement
p5920
tp5921
I35
s(g2124
I42
g2125
Vinsert
p5922
I43
VSimpleType: DanmakuConfigTag
p5923
tp5924
I7
s(g1998
I42
g1999
Vinsert
p5925
I42
VSimpleName: t2
p5926
tp5927
I2
s(g2281
I42
g2282
Vinsert
p5928
I42
VSimpleName: Boolean
p5929
tp5930
I8
s(g451
I42
g452
Vinsert
p5931
I42
VSimpleName: run
p5932
tp5933
I10
s(g690
I42
g691
Vinsert
p5934
I11
VCastExpression
p5935
tp5936
I5
s(g680
I42
g681
Vinsert
p5937
I42
VSimpleName: getMenuInflater
p5938
tp5939
I2
s(g36
I42
g37
Vinsert
p5940
I21
VExpressionStatement
p5941
tp5942
I6
s(g456
I42
g457
Vinsert
p5943
I42
VSimpleName: Canvas
p5944
tp5945
I7
s(g532
I42
g533
Vinsert
p5946
I60
VVariableDeclarationStatement
p5947
tp5948
I3
s(g527
I42
g528
Vinsert
p5949
I42
VSimpleName: mDanmakus
p5950
tp5951
I13
s(g967
I42
g968
Vinsert
p5952
I7
VAssignment: =
p5953
tp5954
I19
s(g3179
I42
g3180
Vinsert
p5955
I42
VSimpleName: count
p5956
tp5957
I22
s(g895
I42
g896
Vinsert
p5958
I83
VModifier: final
p5959
tp5960
I12
s(g1271
I42
g1272
Vinsert
p5961
I27
VInfixExpression: -
p5962
tp5963
I10
s(g11
I42
g12
Vinsert
p5964
I7
VAssignment: =
p5965
tp5966
I829
s(g2638
I42
g2639
Vinsert
p5967
I42
VSimpleName: mTaskListener
p5968
tp5969
I3
s(g1517
I42
g1518
Vinsert
p5970
I42
VSimpleName: mLastRenderingState
p5971
tp5972
I1
s(g144
I42
g145
Vinsert
p5973
I25
VIfStatement
p5974
tp5975
I3
s(g1160
I42
g1161
Vinsert
p5976
I40
VQualifiedName: DanmakuFactory.MAX_DANMAKU_DURATION
p5977
tp5978
I54
s(g1857
I42
g1858
Vinsert
p5979
I43
VSimpleType: IDisplayer
p5980
tp5981
I10
s(g2006
I42
g2007
Vinsert
p5982
I43
VSimpleType: Build
p5983
tp5984
I1
s(g3179
I42
g3180
Vinsert
p5985
I54
VTryStatement
p5986
tp5987
I4
s(g1778
I42
g1779
Vinsert
p5988
I32
VMethodInvocation
p5989
tp5990
I810
s(g197
I42
g198
Vinsert
p5991
I18
VContinueStatement
p5992
tp5993
I3
s(g1305
I42
g1306
Vinsert
p5994
I32
VMethodInvocation
p5995
tp5996
I9
s(g954
I42
g955
Vinsert
p5997
I42
VSimpleName: mDanmakuFactory
p5998
tp5999
I40
s(g690
I42
g691
Vinsert
p6000
I42
VSimpleName: DanmakuSurfaceView
p6001
tp6002
I5
s(g380
I42
g381
Vinsert
p6003
I39
VPrimitiveType: void
p6004
tp6005
I7
s(g661
I42
g662
Vinsert
p6006
I83
VModifier: public
p6007
tp6008
I61
s(g832
I42
g833
Vinsert
p6009
I7
VAssignment: =
p6010
tp6011
I152
s(g240
I42
g241
Vinsert
p6012
I27
VInfixExpression: &&
p6013
tp6014
I10
s(g21
I42
g22
Vinsert
p6015
I31
VMethodDeclaration
p6016
tp6017
I15
s(g1160
I42
g1161
Vinsert
p6018
I40
VQualifiedName: mCacheTimer.currMillisecond
p6019
tp6020
I60
s(g1654
I42
g1655
Vinsert
p6021
I42
VSimpleName: mDrawFinished
p6022
tp6023
I10
s(g1271
I42
g1272
Vinsert
p6024
I42
VSimpleName: startMills
p6025
tp6026
I16
s(g972
I42
g973
Vinsert
p6027
I42
VSimpleName: isStop
p6028
tp6029
I17
s(g275
I42
g276
Vinsert
p6030
I42
VSimpleName: Danmakus
p6031
tp6032
I11
s(g2087
I42
g2088
Vinsert
p6033
I42
VSimpleName: size
p6034
tp6035
I23
s(g177
I42
g178
Vinsert
p6036
I27
VInfixExpression: !=
p6037
tp6038
I4
s(g1778
I42
g1779
Vinsert
p6039
I40
VQualifiedName: DanmakuGlobalConfig.DEFAULT
p6040
tp6041
I801
s(g177
I42
g178
Vinsert
p6042
I33
VNullLiteral
p6043
tp6044
I4
s(g2150
I42
g2151
Vinsert
p6045
I40
VQualifiedName: item.time
p6046
tp6047
I6
s(g94
I42
g95
Vinsert
p6048
I21
VExpressionStatement
p6049
tp6050
I62
s(g532
I42
g533
Vinsert
p6051
I27
VInfixExpression: ==
p6052
tp6053
I5
s(g451
I42
g452
Vinsert
p6054
I42
VSimpleName: quitFlag
p6055
tp6056
I28
s(g588
I42
g589
Vinsert
p6057
I39
VPrimitiveType: void
p6058
tp6059
I6
s(g124
I42
g125
Vinsert
p6060
I32
VMethodInvocation
p6061
tp6062
I0
s(g6
I42
g7
Vinsert
p6063
I36
VParenthesizedExpression
p6064
tp6065
I2
s(g1674
I42
g1675
Vinsert
p6066
I42
VSimpleName: syncTimer
p6067
tp6068
I2
s(g182
I42
g183
Vinsert
p6069
I42
VSimpleName: startTime
p6070
tp6071
I36
s(g1852
I42
g1853
Vinsert
p6072
I40
VQualifiedName: item.isLive
p6073
tp6074
I207
s(g2006
I42
g2007
Vinsert
p6075
I59
VVariableDeclarationFragment
p6076
tp6077
I2
s(g46
I42
g47
Vinsert
p6078
I25
VIfStatement
p6079
tp6080
I3
s(g31
I42
g32
Vinsert
p6081
I39
VPrimitiveType: int
p6082
tp6083
I8
s(g265
I42
g266
Vinsert
p6084
I8
VBlock
p6085
tp6086
I8
s(g1327
I42
g1328
Vinsert
p6087
I11
VCastExpression
p6088
tp6089
I2
s(g1174
I42
g1175
Vinsert
p6090
I42
VSimpleName: removeAllLiveDanmakus
p6091
tp6092
I8
s(g827
I42
g828
Vinsert
p6093
I31
VMethodDeclaration
p6094
tp6095
I14
s(g1203
I42
g1204
Vinsert
p6096
I42
VSimpleName: useClearMode
p6097
tp6098
I100
s(g661
I42
g662
Vinsert
p6099
I9
VBooleanLiteral: true
p6100
tp6101
I57
s(g944
I42
g945
Vinsert
p6102
I37
VPostfixExpression: ++
p6103
tp6104
I2
s(g260
I42
g261
Vinsert
p6105
I42
VSimpleName: mPopupWindow
p6106
tp6107
I3
s(g2237
I42
g2238
Vinsert
p6108
I42
VSimpleName: mCache
p6109
tp6110
I8
s(g1503
I42
g1504
Vinsert
p6111
I39
VPrimitiveType: boolean
p6112
tp6113
I8
s(g367
I42
g368
Vinsert
p6114
I8
VBlock
p6115
tp6116
I7
s(g1211
I42
g1212
Vinsert
p6117
I42
VSimpleName: JSONObjectSource
p6118
tp6119
I2
s(g129
I42
g130
Vinsert
p6120
I32
VMethodInvocation
p6121
tp6122
I1
s(g250
I42
g251
Vinsert
p6123
I42
VSimpleName: text
p6124
tp6125
I4
s(g265
I42
g266
Vinsert
p6126
I27
VInfixExpression: >
p6127
tp6128
I1
s(g197
I42
g198
Vinsert
p6129
I42
VSimpleName: remove
p6130
tp6131
I7
s(g69
I42
g70
Vinsert
p6132
I33
VNullLiteral
p6133
tp6134
I1
s(g275
I42
g276
Vinsert
p6135
I42
VSimpleName: itr
p6136
tp6137
I3
s(g430
I42
g431
Vinsert
p6138
I21
VExpressionStatement
p6139
tp6140
I107
s(g250
I42
g251
Vinsert
p6141
I42
VSimpleName: canvas
p6142
tp6143
I17
s(g808
I42
g809
Vinsert
p6144
I42
VSimpleName: DrawHelper
p6145
tp6146
I5
s(g1674
I42
g1675
Vinsert
p6147
I31
VMethodDeclaration
p6148
tp6149
I43
s(g1455
I42
g1456
Vinsert
p6150
I42
VSimpleName: height
p6151
tp6152
I4
s(g1503
I42
g1504
Vinsert
p6153
I9
VBooleanLiteral: true
p6154
tp6155
I193
s(g456
I42
g457
Vinsert
p6156
I8
VBlock
p6157
tp6158
I1
s(g1588
I42
g1589
Vinsert
p6159
I25
VIfStatement
p6160
tp6161
I4
s(g182
I42
g183
Vinsert
p6162
I42
VSimpleName: longValue
p6163
tp6164
I35
s(g1
I42
g2
Vinsert
p6165
I8
VBlock
p6166
tp6167
I5
s(g792
I42
g793
Vinsert
p6168
I40
VQualifiedName: item.duration
p6169
tp6170
I2
s(g303
I42
g304
Vinsert
p6171
I59
VVariableDeclarationFragment
p6172
tp6173
I13
s(g637
I42
g638
Vinsert
p6174
I33
VNullLiteral
p6175
tp6176
I1
s(g832
I42
g833
Vinsert
p6177
I33
VNullLiteral
p6178
tp6179
I1
s(g94
I42
g95
Vinsert
p6180
I9
VBooleanLiteral: true
p6181
tp6182
I3
s(g2534
I42
g2535
Vinsert
p6183
I42
VSimpleName: mRenderer
p6184
tp6185
I9
s(g754
I42
g755
Vinsert
p6186
I8
VBlock
p6187
tp6188
I40
s(g328
I42
g329
Vinsert
p6189
I42
VSimpleName: DanmakuConfigTag
p6190
tp6191
I6
s(g357
I42
g358
Vinsert
p6192
I42
VSimpleName: updateTimer
p6193
tp6194
I27
s(g713
I42
g714
Vinsert
p6195
I8
VBlock
p6196
tp6197
I4
s(g1111
I42
g1112
Vinsert
p6198
I27
VInfixExpression: +
p6199
tp6200
I4
s(g1016
I42
g1017
Vinsert
p6201
I40
VQualifiedName: refDanmaku.paintHeight
p6202
tp6203
I0
s(g782
I42
g783
Vinsert
p6204
I42
VSimpleName: canvas
p6205
tp6206
I6
s(g11
I42
g12
Vinsert
p6207
I32
VMethodInvocation
p6208
tp6209
I14
s(g250
I42
g251
Vinsert
p6210
I42
VSimpleName: Canvas
p6211
tp6212
I10
s(g543
I42
g544
Vinsert
p6213
I42
VSimpleName: resume
p6214
tp6215
I2
s(g1048
I42
g1049
Vinsert
p6216
I42
VSimpleName: drawTask
p6217
tp6218
I4
s(g734
I42
g735
Vinsert
p6219
I7
VAssignment: =
p6220
tp6221
I551
s(g388
I42
g389
Vinsert
p6222
I39
VPrimitiveType: int
p6223
tp6224
I2
s(g2281
I42
g2282
Vinsert
p6225
I11
VCastExpression
p6226
tp6227
I3
s(g1654
I42
g1655
Vinsert
p6228
I33
VNullLiteral
p6229
tp6230
I3
s(g2281
I42
g2282
Vinsert
p6231
I27
VInfixExpression: &&
p6232
tp6233
I1
s(g819
I42
g820
Vinsert
p6234
I42
VSimpleName: currMills
p6235
tp6236
I4
s(g944
I42
g945
Vinsert
p6237
I59
VVariableDeclarationFragment
p6238
tp6239
I5
s(g104
I42
g105
Vinsert
p6240
I42
VSimpleName: sendEmptyMessage
p6241
tp6242
I4
s(g1040
I42
g1041
Vinsert
p6243
I42
VSimpleName: canvas
p6244
tp6245
I7
s(g1588
I42
g1589
Vinsert
p6246
I27
VInfixExpression: <
p6247
tp6248
I19
s(g1588
I42
g1589
Vinsert
p6249
I27
VInfixExpression: >
p6250
tp6251
I20
s(g2014
I42
g2015
Vinsert
p6252
I60
VVariableDeclarationStatement
p6253
tp6254
I7
s(g202
I42
g203
Vinsert
p6255
I42
VSimpleName: QUIT
p6256
tp6257
I10
s(g551
I42
g552
Vinsert
p6258
I32
VMethodInvocation
p6259
tp6260
I1
s(g230
I42
g231
Vinsert
p6261
I31
VMethodDeclaration
p6262
tp6263
I7
s(g615
I42
g616
Vinsert
p6264
I21
VExpressionStatement
p6265
tp6266
I102
s(g177
I42
g178
Vinsert
p6267
I42
VSimpleName: onTouchEvent
p6268
tp6269
I12
s(g1807
I42
g1808
Vinsert
p6270
I42
VSimpleName: USE_DRAWCOLOR_TO_CLEAR_CANVAS
p6271
tp6272
I51
s(g1974
I42
g1975
Vinsert
p6273
I42
VSimpleName: DanmakuBase
p6274
tp6275
I2
s(g31
I42
g32
Vinsert
p6276
I42
VSimpleName: canvas
p6277
tp6278
I11
s(g511
I42
g512
Vinsert
p6279
I42
VSimpleName: message
p6280
tp6281
I2
s(g1130
I42
g1131
Vinsert
p6282
I21
VExpressionStatement
p6283
tp6284
I6
s(g347
I42
g348
Vinsert
p6285
I42
VSimpleName: i
p6286
tp6287
I11
s(g1716
I42
g1717
Vinsert
p6288
I32
VMethodInvocation
p6289
tp6290
I5
s(g944
I42
g945
Vinsert
p6291
I42
VSimpleName: capacity
p6292
tp6293
I3
s(g207
I42
g208
Vinsert
p6294
I32
VMethodInvocation
p6295
tp6296
I9
s(g388
I42
g389
Vinsert
p6297
I42
VSimpleName: text
p6298
tp6299
I4
s(g1111
I42
g1112
Vinsert
p6300
I42
VSimpleName: textHeight
p6301
tp6302
I3
s(g2638
I42
g2639
Vinsert
p6303
I27
VInfixExpression: !=
p6304
tp6305
I2
s(g837
I42
g838
Vinsert
p6306
I40
VQualifiedName: danmaku.priority
p6307
tp6308
I2
s(g2700
I42
g2701
Vinsert
p6309
I52
VThisExpression
p6310
tp6311
I14
s(g1447
I42
g1448
Vinsert
p6312
I32
VMethodInvocation
p6313
tp6314
I6
s(g1420
I42
g1421
Vinsert
p6315
I40
VQualifiedName: mTimer.currMillisecond
p6316
tp6317
I1
s(g882
I42
g883
Vinsert
p6318
I42
VSimpleName: element
p6319
tp6320
I12
s(g777
I42
g778
Vinsert
p6321
I43
VSimpleType: BaseDanmaku
p6322
tp6323
I35
s(g1106
I42
g1107
Vinsert
p6324
I32
VMethodInvocation
p6325
tp6326
I1
s(g705
I42
g706
Vinsert
p6327
I27
VInfixExpression: !=
p6328
tp6329
I3
s(g1389
I42
g1390
Vinsert
p6330
I7
VAssignment: =
p6331
tp6332
I4
s(g1305
I42
g1306
Vinsert
p6333
I41
VReturnStatement
p6334
tp6335
I4
s(g406
I42
g407
Vinsert
p6336
I42
VSimpleName: points
p6337
tp6338
I4
s(g139
I42
g140
Vinsert
p6339
I42
VSimpleName: DrawingCacheHolder
p6340
tp6341
I7
s(g1035
I42
g1036
Vinsert
p6342
I42
VSimpleName: pause
p6343
tp6344
I2
s(g2124
I42
g2125
Vinsert
p6345
I27
VInfixExpression: ==
p6346
tp6347
I2
s(g734
I42
g735
Vinsert
p6348
I42
VSimpleName: mContext
p6349
tp6350
I552
s(g172
I42
g173
Vinsert
p6351
I42
VSimpleName: mTaskListener
p6352
tp6353
I1
s(g466
I42
g467
Vinsert
p6354
I42
VSimpleName: mediaPlayer
p6355
tp6356
I3
s(g623
I42
g624
Vinsert
p6357
I42
VSimpleName: TAG_BILI
p6358
tp6359
I2
s(g1455
I42
g1456
Vinsert
p6360
I7
VAssignment: =
p6361
tp6362
I12
s(g149
I42
g150
Vinsert
p6363
I21
VExpressionStatement
p6364
tp6365
I47
s(g380
I42
g381
Vinsert
p6366
I42
VSimpleName: drawTask
p6367
tp6368
I3
s(g31
I42
g32
Vinsert
p6369
I60
VVariableDeclarationStatement
p6370
tp6371
I8
s(g119
I42
g120
Vinsert
p6372
I18
VContinueStatement
p6373
tp6374
I4
s(g615
I42
g616
Vinsert
p6375
I42
VSimpleName: add
p6376
tp6377
I89
s(g456
I42
g457
Vinsert
p6378
I43
VSimpleType: Canvas
p6379
tp6380
I7
s(g934
I42
g935
Vinsert
p6381
I27
VInfixExpression: >
p6382
tp6383
I5
s(g803
I42
g804
Vinsert
p6384
I21
VExpressionStatement
p6385
tp6386
I2
s(g367
I42
g368
Vinsert
p6387
I42
VSimpleName: timer
p6388
tp6389
I1
s(g895
I42
g896
Vinsert
p6390
I32
VMethodInvocation
p6391
tp6392
I6
s(g993
I42
g994
Vinsert
p6393
I42
VSimpleName: isPlaying
p6394
tp6395
I7
s(g1053
I42
g1054
Vinsert
p6396
I27
VInfixExpression: !=
p6397
tp6398
I3
s(g313
I42
g314
Vinsert
p6399
I42
VSimpleName: temp
p6400
tp6401
I31
s(g308
I42
g309
Vinsert
p6402
I42
VSimpleName: drawTask
p6403
tp6404
I1
s(g167
I42
g168
Vinsert
p6405
I7
VAssignment: =
p6406
tp6407
I7
s(g51
I42
g52
Vinsert
p6408
I42
VSimpleName: deltaMs
p6409
tp6410
I4
s(g129
I42
g130
Vinsert
p6411
I42
VSimpleName: paintWidth
p6412
tp6413
I10
s(g1406
I42
g1407
Vinsert
p6414
I8
VBlock
p6415
tp6416
I104
s(g94
I42
g95
Vinsert
p6417
I8
VBlock
p6418
tp6419
I1
s(g2281
I42
g2282
Vinsert
p6420
I32
VMethodInvocation
p6421
tp6422
I1
s(g610
I42
g611
Vinsert
p6423
I27
VInfixExpression: ||
p6424
tp6425
I6
s(g46
I42
g47
Vinsert
p6426
I27
VInfixExpression: ==
p6427
tp6428
I3
s(g438
I42
g439
Vinsert
p6429
I42
VSimpleName: count
p6430
tp6431
I161
s(g1016
I42
g1017
Vinsert
p6432
I40
VQualifiedName: danmaku.text
p6433
tp6434
I0
s(g56
I42
g57
Vinsert
p6435
I25
VIfStatement
p6436
tp6437
I2
s(g235
I42
g236
Vinsert
p6438
I1
VAnonymousClassDeclaration
p6439
tp6440
I7
s(g1327
I42
g1328
Vinsert
p6441
I36
VParenthesizedExpression
p6442
tp6443
I1
s(g680
I42
g681
Vinsert
p6444
I39
VPrimitiveType: boolean
p6445
tp6446
I10
s(g610
I42
g611
Vinsert
p6447
I42
VSimpleName: handler
p6448
tp6449
I1
s(g1820
I42
g1821
Vinsert
p6450
I14
VClassInstanceCreation
p6451
tp6452
I2
s(g939
I42
g940
Vinsert
p6453
I42
VSimpleName: loadDanmakus
p6454
tp6455
I5
s(g1237
I42
g1238
Vinsert
p6456
I25
VIfStatement
p6457
tp6458
I4
s(g573
I42
g574
Vinsert
p6459
I42
VSimpleName: canvas
p6460
tp6461
I3
s(g726
I42
g727
Vinsert
p6462
I25
VIfStatement
p6463
tp6464
I3
s(g495
I42
g496
Vinsert
p6465
I42
VSimpleName: onDanmakuAdd
p6466
tp6467
I6
s(g303
I42
g304
Vinsert
p6468
I32
VMethodInvocation
p6469
tp6470
I9
s(g280
I42
g281
Vinsert
p6471
I42
VSimpleName: canvas
p6472
tp6473
I14
s(g303
I42
g304
Vinsert
p6474
I42
VSimpleName: jsonArray
p6475
tp6476
I6
s(g5374
I42
g5375
Vinsert
p6477
I43
VSimpleType: BiliDanmakuLoader
p6478
tp6479
I2
s(g69
I42
g70
Vinsert
p6480
I10
VBreakStatement
p6481
tp6482
I426
s(g285
I42
g286
Vinsert
p6483
I25
VIfStatement
p6484
tp6485
I16
s(g1974
I42
g1975
Vinsert
p6486
I43
VSimpleType: DanmakuBase
p6487
tp6488
I2
s(g2383
I42
g2384
Vinsert
p6489
I25
VIfStatement
p6490
tp6491
I4
s(g3298
I42
g3299
Vinsert
p6492
I42
VSimpleName: pushed
p6493
tp6494
I29
s(g602
I42
g603
Vinsert
p6495
I52
VThisExpression
p6496
tp6497
I4
s(g202
I42
g203
Vinsert
p6498
I27
VInfixExpression: ==
p6499
tp6500
I5
s(g1063
I42
g1064
Vinsert
p6501
I42
VSimpleName: incrementAndGet
p6502
tp6503
I26
s(g1654
I42
g1655
Vinsert
p6504
I42
VSimpleName: handler
p6505
tp6506
I7
s(g1058
I42
g1059
Vinsert
p6507
I42
VSimpleName: mCallback
p6508
tp6509
I3
s(g298
I42
g299
Vinsert
p6510
I42
VSimpleName: i
p6511
tp6512
I9
s(g1475
I42
g1476
Vinsert
p6513
I43
VSimpleType: SortedSet
p6514
tp6515
I3
s(g139
I42
g140
Vinsert
p6516
I42
VSimpleName: density
p6517
tp6518
I4
s(g1211
I42
g1212
Vinsert
p6519
I7
VAssignment: =
p6520
tp6521
I3
s(g46
I42
g47
Vinsert
p6522
I59
VVariableDeclarationFragment
p6523
tp6524
I8
s(g819
I42
g820
Vinsert
p6525
I34
VNumberLiteral: 4000
p6526
tp6527
I90
s(g1211
I42
g1212
Vinsert
p6528
I21
VExpressionStatement
p6529
tp6530
I3
s(g192
I42
g193
Vinsert
p6531
I42
VSimpleName: obj2
p6532
tp6533
I4
s(g119
I42
g120
Vinsert
p6534
I43
VSimpleType: BaseDanmaku
p6535
tp6536
I10
s(g500
I42
g501
Vinsert
p6537
I32
VMethodInvocation
p6538
tp6539
I1
s(g1489
I42
g1490
Vinsert
p6540
I42
VSimpleName: d
p6541
tp6542
I8
s(g2150
I42
g2151
Vinsert
p6543
I42
VSimpleName: item
p6544
tp6545
I1
s(g685
I42
g686
Vinsert
p6546
I42
VSimpleName: RESUME
p6547
tp6548
I7
s(g352
I42
g353
Vinsert
p6549
I42
VSimpleName: sendEmptyMessage
p6550
tp6551
I5
s(g2237
I42
g2238
Vinsert
p6552
I42
VSimpleName: clear
p6553
tp6554
I10
s(g119
I42
g120
Vinsert
p6555
I42
VSimpleName: BaseDanmaku
p6556
tp6557
I10
s(g1030
I42
g1031
Vinsert
p6558
I42
VSimpleName: obj1
p6559
tp6560
I6
s(g69
I42
g70
Vinsert
p6561
I9
VBooleanLiteral: false
p6562
tp6563
I525
s(g2237
I42
g2238
Vinsert
p6564
I51
VSynchronizedStatement
p6565
tp6566
I6
s(g2006
I42
g2007
Vinsert
p6567
I43
VSimpleType: Field
p6568
tp6569
I3
s(g1048
I42
g1049
Vinsert
p6570
I8
VBlock
p6571
tp6572
I4
s(g1160
I42
g1161
Vinsert
p6573
I40
VQualifiedName: mTimer.currMillisecond
p6574
tp6575
I20
s(g1138
I42
g1139
Vinsert
p6576
I42
VSimpleName: AndroidCounter
p6577
tp6578
I116
s(g1447
I42
g1448
Vinsert
p6579
I42
VSimpleName: setText
p6580
tp6581
I4
s(g959
I42
g960
Vinsert
p6582
I43
VSimpleType: JSONException
p6583
tp6584
I4
s(g1637
I42
g1638
Vinsert
p6585
I22
VFieldAccess
p6586
tp6587
I1
s(g270
I42
g271
Vinsert
p6588
I42
VSimpleName: danmakuList
p6589
tp6590
I4
s(g1063
I42
g1064
Vinsert
p6591
I32
VMethodInvocation
p6592
tp6593
I157
s(g726
I42
g727
Vinsert
p6594
I42
VSimpleName: drawTask
p6595
tp6596
I53
s(g323
I42
g324
Vinsert
p6597
I43
VSimpleType: BaseDanmaku
p6598
tp6599
I5
s(g84
I42
g85
Vinsert
p6600
I42
VSimpleName: bitmap
p6601
tp6602
I15
s(g1979
I42
g1980
Vinsert
p6603
I27
VInfixExpression: !=
p6604
tp6605
I4
s(g1375
I42
g1376
Vinsert
p6606
I8
VBlock
p6607
tp6608
I2
s(g438
I42
g439
Vinsert
p6609
I42
VSimpleName: Log
p6610
tp6611
I2
s(g225
I42
g226
Vinsert
p6612
I42
VSimpleName: performClick
p6613
tp6614
I5
s(g388
I42
g389
Vinsert
p6615
I14
VClassInstanceCreation
p6616
tp6617
I5
s(g959
I42
g960
Vinsert
p6618
I32
VMethodInvocation
p6619
tp6620
I2
s(g895
I42
g896
Vinsert
p6621
I42
VSimpleName: ActivityManager
p6622
tp6623
I4
s(g2150
I42
g2151
Vinsert
p6624
I32
VMethodInvocation
p6625
tp6626
I7
s(g1048
I42
g1049
Vinsert
p6627
I39
VPrimitiveType: void
p6628
tp6629
I8
s(g6
I42
g7
Vinsert
p6630
I27
VInfixExpression: !=
p6631
tp6632
I2
s(g220
I42
g221
Vinsert
p6633
I25
VIfStatement
p6634
tp6635
I13
s(g5374
I42
g5375
Vinsert
p6636
I42
VSimpleName: BiliDanmakuLoader
p6637
tp6638
I2
s(g1876
I42
g1877
Vinsert
p6639
I27
VInfixExpression: !=
p6640
tp6641
I2
s(g202
I42
g203
Vinsert
p6642
I8
VBlock
p6643
tp6644
I65
s(g1011
I42
g1012
Vinsert
p6645
I33
VNullLiteral
p6646
tp6647
I1
s(g1257
I42
g1258
Vinsert
p6648
I25
VIfStatement
p6649
tp6650
I9
s(g837
I42
g838
Vinsert
p6651
I27
VInfixExpression: +
p6652
tp6653
I1
s(g583
I42
g584
Vinsert
p6654
I11
VCastExpression
p6655
tp6656
I5
s(g690
I42
g691
Vinsert
p6657
I32
VMethodInvocation
p6658
tp6659
I5
s(g1340
I42
g1341
Vinsert
p6660
I42
VSimpleName: in
p6661
tp6662
I4
s(g645
I42
g646
Vinsert
p6663
I42
VSimpleName: BaseDanmakuParser
p6664
tp6665
I70
s(g2534
I42
g2535
Vinsert
p6666
I31
VMethodDeclaration
p6667
tp6668
I7
s(g1130
I42
g1131
Vinsert
p6669
I42
VSimpleName: mRectsCachePool
p6670
tp6671
I2
s(g967
I42
g968
Vinsert
p6672
I59
VVariableDeclarationFragment
p6673
tp6674
I95
s(g1074
I42
g1075
Vinsert
p6675
I43
VSimpleType: LinkedList
p6676
tp6677
I3
s(g328
I42
g329
Vinsert
p6678
I42
VSimpleName: DrawTask
p6679
tp6680
I1
s(g1871
I42
g1872
Vinsert
p6681
I33
VNullLiteral
p6682
tp6683
I2
s(g583
I42
g584
Vinsert
p6684
I39
VPrimitiveType: int
p6685
tp6686
I5
s(g543
I42
g544
Vinsert
p6687
I8
VBlock
p6688
tp6689
I13
s(g285
I42
g286
Vinsert
p6690
I42
VSimpleName: d
p6691
tp6692
I109
s(g573
I42
g574
Vinsert
p6693
I42
VSimpleName: AbsDisplayer
p6694
tp6695
I97
s(g2006
I42
g2007
Vinsert
p6696
I8
VBlock
p6697
tp6698
I7
s(g1559
I42
g1560
Vinsert
p6699
I42
VSimpleName: taskListener
p6700
tp6701
I14
s(g6
I42
g7
Vinsert
p6702
I60
VVariableDeclarationStatement
p6703
tp6704
I5
s(g240
I42
g241
Vinsert
p6705
I8
VBlock
p6706
tp6707
I1
s(g2237
I42
g2238
Vinsert
p6708
I48
VSuperMethodInvocation
p6709
tp6710
I4
s(g912
I42
g913
Vinsert
p6711
I42
VSimpleName: acquire
p6712
tp6713
I5
s(g220
I42
g221
Vinsert
p6714
I41
VReturnStatement
p6715
tp6716
I3
s(g532
I42
g533
Vinsert
p6717
I42
VSimpleName: setOnClickListener
p6718
tp6719
I124
s(g623
I42
g624
Vinsert
p6720
I8
VBlock
p6721
tp6722
I4
s(g212
I42
g213
Vinsert
p6723
I42
VSimpleName: DEBUG_OPTION
p6724
tp6725
I65
s(g588
I42
g589
Vinsert
p6726
I83
VModifier: protected
p6727
tp6728
I7
s(g511
I42
g512
Vinsert
p6729
I83
VModifier: final
p6730
tp6731
I4
s(g21
I42
g22
Vinsert
p6732
I42
VSimpleName: start
p6733
tp6734
I25
s(g157
I42
g158
Vinsert
p6735
I27
VInfixExpression: !=
p6736
tp6737
I2
s(g425
I42
g426
Vinsert
p6738
I25
VIfStatement
p6739
tp6740
I3
s(g69
I42
g70
Vinsert
p6741
I42
VSimpleName: NOTIFY_RENDERING
p6742
tp6743
I428
s(g1316
I42
g1317
Vinsert
p6744
I42
VSimpleName: mVideoView
p6745
tp6746
I9
s(g1257
I42
g1258
Vinsert
p6747
I38
VPrefixExpression: !
p6748
tp6749
I3
s(g1016
I42
g1017
Vinsert
p6750
I40
VQualifiedName: danmaku.textColor
p6751
tp6752
I0
s(g1106
I42
g1107
Vinsert
p6753
I34
VNumberLiteral: 0
p6754
tp6755
I7
s(g318
I42
g319
Vinsert
p6756
I42
VSimpleName: mDataSource
p6757
tp6758
I3
s(g623
I42
g624
Vinsert
p6759
I43
VSimpleType: ILoader
p6760
tp6761
I12
s(g819
I42
g820
Vinsert
p6762
I40
VQualifiedName: BiliDanmakuFactory.REAL_DANMAKU_DURATION
p6763
tp6764
I4
s(g119
I42
g120
Vinsert
p6765
I27
VInfixExpression: ==
p6766
tp6767
I5
s(g207
I42
g208
Vinsert
p6768
I42
VSimpleName: IDanmakuIterator
p6769
tp6770
I6
s(g6
I42
g7
Vinsert
p6771
I59
VVariableDeclarationFragment
p6772
tp6773
I4
s(g726
I42
g727
Vinsert
p6774
I33
VNullLiteral
p6775
tp6776
I51
s(g1559
I42
g1560
Vinsert
p6777
I42
VSimpleName: mTimer
p6778
tp6779
I3
s(g482
I42
g483
Vinsert
p6780
I42
VSimpleName: remeasure
p6781
tp6782
I12
s(g285
I42
g286
Vinsert
p6783
I42
VSimpleName: update
p6784
tp6785
I103
s(g578
I42
g579
Vinsert
p6786
I42
VSimpleName: clear
p6787
tp6788
I7
s(g615
I42
g616
Vinsert
p6789
I14
VClassInstanceCreation
p6790
tp6791
I6
s(g754
I42
g755
Vinsert
p6792
I25
VIfStatement
p6793
tp6794
I30
s(g2150
I42
g2151
Vinsert
p6795
I42
VSimpleName: orderInScreen
p6796
tp6797
I7
s(g2281
I42
g2282
Vinsert
p6798
I42
VSimpleName: quitDrawTask
p6799
tp6800
I5
s(g573
I42
g574
Vinsert
p6801
I32
VMethodInvocation
p6802
tp6803
I1
s(g1545
I42
g1546
Vinsert
p6804
I8
VBlock
p6805
tp6806
I5
s(g583
I42
g584
Vinsert
p6807
I42
VSimpleName: Math
p6808
tp6809
I4
s(g4506
I42
g4507
Vinsert
p6810
I42
VSimpleName: onDestroy
p6811
tp6812
I4
s(g842
I42
g843
Vinsert
p6813
I42
VSimpleName: View
p6814
tp6815
I2
s(g5010
I42
g5011
Vinsert
p6816
I42
VSimpleName: join
p6817
tp6818
I16
s(g240
I42
g241
Vinsert
p6819
I42
VSimpleName: reuse
p6820
tp6821
I5
s(g212
I42
g213
Vinsert
p6822
I42
VSimpleName: mTimer
p6823
tp6824
I24
s(g187
I42
g188
Vinsert
p6825
I39
VPrimitiveType: int
p6826
tp6827
I130
s(g772
I42
g773
Vinsert
p6828
I48
VSuperMethodInvocation
p6829
tp6830
I6
s(g260
I42
g261
Vinsert
p6831
I43
VSimpleType: View
p6832
tp6833
I5
s(g1955
I42
g1956
Vinsert
p6834
I25
VIfStatement
p6835
tp6836
I3
s(g1
I42
g2
Vinsert
p6837
I21
VExpressionStatement
p6838
tp6839
I7
s(g1637
I42
g1638
Vinsert
p6840
I40
VQualifiedName: disp.height
p6841
tp6842
I2
s(g139
I42
g140
Vinsert
p6843
I7
VAssignment: =
p6844
tp6845
I4
s(g303
I42
g304
Vinsert
p6846
I42
VSimpleName: obj
p6847
tp6848
I8
s(g347
I42
g348
Vinsert
p6849
I39
VPrimitiveType: int
p6850
tp6851
I217
s(g680
I42
g681
Vinsert
p6852
I32
VMethodInvocation
p6853
tp6854
I4
s(g270
I42
g271
Vinsert
p6855
I21
VExpressionStatement
p6856
tp6857
I2
s(g1420
I42
g1421
Vinsert
p6858
I40
VQualifiedName: DanmakuFactory.MAX_DANMAKU_DURATION
p6859
tp6860
I1
s(g149
I42
g150
Vinsert
p6861
I12
VCatchClause
p6862
tp6863
I24
s(g500
I42
g501
Vinsert
p6864
I7
VAssignment: =
p6865
tp6866
I2
s(g500
I42
g501
Vinsert
p6867
I42
VSimpleName: text
p6868
tp6869
I1
s(g637
I42
g638
Vinsert
p6870
I21
VExpressionStatement
p6871
tp6872
I1
s(g2176
I42
g2177
Vinsert
p6873
I8
VBlock
p6874
tp6875
I56
s(g1857
I42
g1858
Vinsert
p6876
I42
VSimpleName: IDisplayer
p6877
tp6878
I10
s(g2700
I42
g2701
Vinsert
p6879
I61
VWhileStatement
p6880
tp6881
I6
s(g516
I42
g517
Vinsert
p6882
I25
VIfStatement
p6883
tp6884
I3
s(g298
I42
g299
Vinsert
p6885
I39
VPrimitiveType: int
p6886
tp6887
I5
s(g451
I42
g452
Vinsert
p6888
I61
VWhileStatement
p6889
tp6890
I9
s(g323
I42
g324
Vinsert
p6891
I27
VInfixExpression: &&
p6892
tp6893
I2
s(g290
I42
g291
Vinsert
p6894
I7
VAssignment: =
p6895
tp6896
I1
s(g895
I42
g896
Vinsert
p6897
I44
VSingleVariableDeclaration
p6898
tp6899
I12
s(g1583
I42
g1584
Vinsert
p6900
I43
VSimpleType: Paint
p6901
tp6902
I5
s(g842
I42
g843
Vinsert
p6903
I7
VAssignment: =
p6904
tp6905
I4
s(g69
I42
g70
Vinsert
p6906
I8
VBlock
p6907
tp6908
I1
s(g959
I42
g960
Vinsert
p6909
I42
VSimpleName: Uri
p6910
tp6911
I12
s(g318
I42
g319
Vinsert
p6912
I83
VModifier: protected
p6913
tp6914
I12
s(g26
I42
g27
Vinsert
p6915
I8
VBlock
p6916
tp6917
I1
s(g149
I42
g150
Vinsert
p6918
I44
VSingleVariableDeclaration
p6919
tp6920
I24
s(g482
I42
g483
Vinsert
p6921
I25
VIfStatement
p6922
tp6923
I9
s(g1003
I42
g1004
Vinsert
p6924
I27
VInfixExpression: -
p6925
tp6926
I1
s(g3710
I42
g3711
Vinsert
p6927
I36
VParenthesizedExpression
p6928
tp6929
I1
s(g114
I42
g115
Vinsert
p6930
I7
VAssignment: =
p6931
tp6932
I41
s(g1271
I42
g1272
Vinsert
p6933
I27
VInfixExpression: +
p6934
tp6935
I8
s(g202
I42
g203
Vinsert
p6936
I42
VSimpleName: removeCallbacksAndMessages
p6937
tp6938
I7
s(g1119
I42
g1120
Vinsert
p6939
I42
VSimpleName: Long
p6940
tp6941
I14
s(g380
I42
g381
Vinsert
p6942
I42
VSimpleName: addDanmaku
p6943
tp6944
I6
s(g787
I42
g788
Vinsert
p6945
I42
VSimpleName: mDanmakusRetainer
p6946
tp6947
I34
s(g162
I42
g163
Vinsert
p6948
I42
VSimpleName: next
p6949
tp6950
I3
s(g1447
I42
g1448
Vinsert
p6951
I21
VExpressionStatement
p6952
tp6953
I9
s(g367
I42
g368
Vinsert
p6954
I32
VMethodInvocation
p6955
tp6956
I1
s(g1955
I42
g1956
Vinsert
p6957
I32
VMethodInvocation
p6958
tp6959
I1
s(g803
I42
g804
Vinsert
p6960
I42
VSimpleName: get
p6961
tp6962
I3
s(g1375
I42
g1376
Vinsert
p6963
I39
VPrimitiveType: float
p6964
tp6965
I8
s(g623
I42
g624
Vinsert
p6966
I31
VMethodDeclaration
p6967
tp6968
I16
s(g1143
I42
g1144
Vinsert
p6969
I27
VInfixExpression: -
p6970
tp6971
I9
s(g588
I42
g589
Vinsert
p6972
I25
VIfStatement
p6973
tp6974
I3
s(g466
I42
g467
Vinsert
p6975
I43
VSimpleType: MediaPlayer.OnPreparedListener
p6976
tp6977
I7
s(g5300
I42
g5301
Vinsert
p6978
I42
VSimpleName: ftdrInstance
p6979
tp6980
I11
s(g680
I42
g681
Vinsert
p6981
I42
VSimpleName: onCreateOptionsMenu
p6982
tp6983
I8
s(g588
I42
g589
Vinsert
p6984
I42
VSimpleName: mDanmakuView
p6985
tp6986
I3
s(g1442
I42
g1443
Vinsert
p6987
I52
VThisExpression
p6988
tp6989
I4
s(g425
I42
g426
Vinsert
p6990
I8
VBlock
p6991
tp6992
I5
s(g610
I42
g611
Vinsert
p6993
I42
VSimpleName: mResumeTryCount
p6994
tp6995
I14
s(g1053
I42
g1054
Vinsert
p6996
I8
VBlock
p6997
tp6998
I6
s(g167
I42
g168
Vinsert
p6999
I27
VInfixExpression: ==
p7000
tp7001
I6
s(g220
I42
g221
Vinsert
p7002
I21
VExpressionStatement
p7003
tp7004
I11
s(g323
I42
g324
Vinsert
p7005
I42
VSimpleName: items
p7006
tp7007
I3
s(g74
I42
g75
Vinsert
p7008
I11
VCastExpression
p7009
tp7010
I5
s(g645
I42
g646
Vinsert
p7011
I31
VMethodDeclaration
p7012
tp7013
I69
s(g240
I42
g241
Vinsert
p7014
I21
VExpressionStatement
p7015
tp7016
I1
s(g516
I42
g517
Vinsert
p7017
I42
VSimpleName: mCallback
p7018
tp7019
I3
s(g1674
I42
g1675
Vinsert
p7020
I40
VQualifiedName: mRenderingState.inWaitingState
p7021
tp7022
I3
s(g197
I42
g198
Vinsert
p7023
I25
VIfStatement
p7024
tp7025
I2
s(g1053
I42
g1054
Vinsert
p7026
I25
VIfStatement
p7027
tp7028
I4
s(g895
I42
g896
Vinsert
p7029
I42
VSimpleName: context
p7030
tp7031
I10
s(g1327
I42
g1328
Vinsert
p7032
I34
VNumberLiteral: 10
p7033
tp7034
I3
s(g1969
I42
g1970
Vinsert
p7035
I42
VSimpleName: currMillis
p7036
tp7037
I3
s(g1588
I42
g1589
Vinsert
p7038
I32
VMethodInvocation
p7039
tp7040
I22
s(g94
I42
g95
Vinsert
p7041
I9
VBooleanLiteral: false
p7042
tp7043
I56
s(g1406
I42
g1407
Vinsert
p7044
I42
VSimpleName: mSortType
p7045
tp7046
I99
s(g99
I42
g100
Vinsert
p7047
I42
VSimpleName: d
p7048
tp7049
I235
s(g1316
I42
g1317
Vinsert
p7050
I32
VMethodInvocation
p7051
tp7052
I8
s(g1857
I42
g1858
Vinsert
p7053
I42
VSimpleName: getDisplayer
p7054
tp7055
I3
s(g568
I42
g569
Vinsert
p7056
I21
VExpressionStatement
p7057
tp7058
I1
s(g718
I42
g719
Vinsert
p7059
I42
VSimpleName: mCacheManager
p7060
tp7061
I1
s(g1955
I42
g1956
Vinsert
p7062
I39
VPrimitiveType: void
p7063
tp7064
I5
s(g1271
I42
g1272
Vinsert
p7065
I40
VQualifiedName: timer.currMillisecond
p7066
tp7067
I18
s(g787
I42
g788
Vinsert
p7068
I31
VMethodDeclaration
p7069
tp7070
I10
s(g1294
I42
g1295
Vinsert
p7071
I42
VSimpleName: reference
p7072
tp7073
I7
s(g495
I42
g496
Vinsert
p7074
I42
VSimpleName: mTaskListener
p7075
tp7076
I3
s(g1674
I42
g1675
Vinsert
p7077
I83
VModifier: private
p7078
tp7079
I19
s(g680
I42
g681
Vinsert
p7080
I42
VSimpleName: Override
p7081
tp7082
I14
s(g420
I42
g421
Vinsert
p7083
I78
VMarkerAnnotation
p7084
tp7085
I5
s(g1203
I42
g1204
Vinsert
p7086
I8
VBlock
p7087
tp7088
I6
s(g988
I42
g989
Vinsert
p7089
I42
VSimpleName: addLast
p7090
tp7091
I6
s(g212
I42
g213
Vinsert
p7092
I42
VSimpleName: loadBiliDanmakus
p7093
tp7094
I2
s(g1058
I42
g1059
Vinsert
p7095
I42
VSimpleName: isSurfaceCreated
p7096
tp7097
I230
s(g225
I42
g226
Vinsert
p7098
I8
VBlock
p7099
tp7100
I7
s(g21
I42
g22
Vinsert
p7101
I44
VSingleVariableDeclaration
p7102
tp7103
I8
s(g79
I42
g80
Vinsert
p7104
I34
VNumberLiteral: 0
p7105
tp7106
I11
s(g74
I42
g75
Vinsert
p7107
I42
VSimpleName: items
p7108
tp7109
I1
s(g1654
I42
g1655
Vinsert
p7110
I42
VSimpleName: InterruptedException
p7111
tp7112
I6
s(g99
I42
g100
Vinsert
p7113
I34
VNumberLiteral: 2
p7114
tp7115
I173
s(g2095
I42
g2096
Vinsert
p7116
I42
VSimpleName: mDanmakusVisible
p7117
tp7118
I8
s(g1143
I42
g1144
Vinsert
p7119
I42
VSimpleName: mReady
p7120
tp7121
I6
s(g1447
I42
g1448
Vinsert
p7122
I42
VSimpleName: timer
p7123
tp7124
I4
s(g1807
I42
g1808
Vinsert
p7125
I7
VAssignment: =
p7126
tp7127
I47
s(g2700
I42
g2701
Vinsert
p7128
I42
VSimpleName: mLockObject
p7129
tp7130
I14
s(g1271
I42
g1272
Vinsert
p7131
I59
VVariableDeclarationFragment
p7132
tp7133
I11
s(g202
I42
g203
Vinsert
p7134
I21
VExpressionStatement
p7135
tp7136
I74
s(g949
I42
g950
Vinsert
p7137
I34
VNumberLiteral: 0
p7138
tp7139
I3
s(g705
I42
g706
Vinsert
p7140
I42
VSimpleName: getCurrentTime
p7141
tp7142
I5
s(g792
I42
g793
Vinsert
p7143
I7
VAssignment: =
p7144
tp7145
I4
s(g842
I42
g843
Vinsert
p7146
I14
VClassInstanceCreation
p7147
tp7148
I3
s(g2150
I42
g2151
Vinsert
p7149
I42
VSimpleName: currScreenIndex
p7150
tp7151
I8
s(g5374
I42
g5375
Vinsert
p7152
I42
VSimpleName: loader
p7153
tp7154
I3
s(g11
I42
g12
Vinsert
p7155
I23
VFieldDeclaration
p7156
tp7157
I60
s(g700
I42
g701
Vinsert
p7158
I27
VInfixExpression: -
p7159
tp7160
I3
s(g856
I42
g857
Vinsert
p7161
I11
VCastExpression
p7162
tp7163
I6
s(g1425
I42
g1426
Vinsert
p7164
I42
VSimpleName: d
p7165
tp7166
I92
s(g64
I42
g65
Vinsert
p7167
I32
VMethodInvocation
p7168
tp7169
I7
s(g1095
I42
g1096
Vinsert
p7170
I42
VSimpleName: requestClear
p7171
tp7172
I2
s(g926
I42
g927
Vinsert
p7173
I21
VExpressionStatement
p7174
tp7175
I80
s(g949
I42
g950
Vinsert
p7176
I8
VBlock
p7177
tp7178
I10
s(g162
I42
g163
Vinsert
p7179
I32
VMethodInvocation
p7180
tp7181
I5
s(g482
I42
g483
Vinsert
p7182
I42
VSimpleName: item
p7183
tp7184
I18
s(g623
I42
g624
Vinsert
p7185
I43
VSimpleType: String
p7186
tp7187
I8
s(g167
I42
g168
Vinsert
p7188
I42
VSimpleName: onDanmakuClickListener
p7189
tp7190
I6
s(g516
I42
g517
Vinsert
p7191
I32
VMethodInvocation
p7192
tp7193
I7
s(g1375
I42
g1376
Vinsert
p7194
I42
VSimpleName: DanmakuFilters
p7195
tp7196
I1
s(g5374
I42
g5375
Vinsert
p7197
I42
VSimpleName: loadBiliDanmakus
p7198
tp7199
I6
s(g202
I42
g203
Vinsert
p7200
I42
VSimpleName: what
p7201
tp7202
I3
s(g1375
I42
g1376
Vinsert
p7203
I42
VSimpleName: fixedTop
p7204
tp7205
I7
s(g1406
I42
g1407
Vinsert
p7206
I32
VMethodInvocation
p7207
tp7208
I120
s(g270
I42
g271
Vinsert
p7209
I51
VSynchronizedStatement
p7210
tp7211
I4
s(g398
I42
g399
Vinsert
p7212
I41
VReturnStatement
p7213
tp7214
I44
s(g187
I42
g188
Vinsert
p7215
I42
VSimpleName: disp
p7216
tp7217
I1
s(g495
I42
g496
Vinsert
p7218
I33
VNullLiteral
p7219
tp7220
I1
s(g1211
I42
g1212
Vinsert
p7221
I32
VMethodInvocation
p7222
tp7223
I1
s(g882
I42
g883
Vinsert
p7224
I25
VIfStatement
p7225
tp7226
I6
s(g1990
I42
g1991
Vinsert
p7227
I42
VSimpleName: values
p7228
tp7229
I4
s(g230
I42
g231
Vinsert
p7230
I8
VBlock
p7231
tp7232
I5
s(g977
I42
g978
Vinsert
p7233
I27
VInfixExpression: ==
p7234
tp7235
I11
s(g275
I42
g276
Vinsert
p7236
I42
VSimpleName: drawItems
p7237
tp7238
I14
s(g1545
I42
g1546
Vinsert
p7239
I42
VSimpleName: getPaint
p7240
tp7241
I3
s(g772
I42
g773
Vinsert
p7242
I42
VSimpleName: isPrepared
p7243
tp7244
I2
s(g1575
I42
g1576
Vinsert
p7245
I42
VSimpleName: DanmakuContext
p7246
tp7247
I14
s(g988
I42
g989
Vinsert
p7248
I42
VSimpleName: System
p7249
tp7250
I9
s(g303
I42
g304
Vinsert
p7251
I42
VSimpleName: String
p7252
tp7253
I6
s(g477
I42
g478
Vinsert
p7254
I42
VSimpleName: visibleDanmakus
p7255
tp7256
I6
s(g516
I42
g517
Vinsert
p7257
I42
VSimpleName: timer
p7258
tp7259
I6
s(g713
I42
g714
Vinsert
p7260
I27
VInfixExpression: !=
p7261
tp7262
I2
s(g2095
I42
g2096
Vinsert
p7263
I9
VBooleanLiteral: false
p7264
tp7265
I1
s(g977
I42
g978
Vinsert
p7266
I27
VInfixExpression: ||
p7267
tp7268
I11
s(g197
I42
g198
Vinsert
p7269
I27
VInfixExpression: &&
p7270
tp7271
I1
s(g705
I42
g706
Vinsert
p7272
I25
VIfStatement
p7273
tp7274
I4
s(g1375
I42
g1376
Vinsert
p7275
I32
VMethodInvocation
p7276
tp7277
I2
s(g2292
I42
g2293
Vinsert
p7278
I42
VSimpleName: duration
p7279
tp7280
I9
s(g1340
I42
g1341
Vinsert
p7281
I42
VSimpleName: json
p7282
tp7283
I4
s(g69
I42
g70
Vinsert
p7284
I21
VExpressionStatement
p7285
tp7286
I428
s(g56
I42
g57
Vinsert
p7287
I43
VSimpleType: CacheManager
p7288
tp7289
I5
s(g532
I42
g533
Vinsert
p7290
I8
VBlock
p7291
tp7292
I3
s(g265
I42
g266
Vinsert
p7293
I42
VSimpleName: getCacheHeight
p7294
tp7295
I8
s(g451
I42
g452
Vinsert
p7296
I42
VSimpleName: Override
p7297
tp7298
I20
s(g1583
I42
g1584
Vinsert
p7299
I59
VVariableDeclarationFragment
p7300
tp7301
I4
s(g1778
I42
g1779
Vinsert
p7302
I25
VIfStatement
p7303
tp7304
I8
s(g114
I42
g115
Vinsert
p7305
I32
VMethodInvocation
p7306
tp7307
I3
s(g144
I42
g145
Vinsert
p7308
I42
VSimpleName: mDanmakuView
p7309
tp7310
I3
s(g1111
I42
g1112
Vinsert
p7311
I59
VVariableDeclarationFragment
p7312
tp7313
I13
s(g11
I42
g12
Vinsert
p7314
I59
VVariableDeclarationFragment
p7315
tp7316
I273
s(g2517
I42
g2518
Vinsert
p7317
I40
VQualifiedName: handler.drawTask
p7318
tp7319
I0
s(g1425
I42
g1426
Vinsert
p7320
I25
VIfStatement
p7321
tp7322
I4
s(g1425
I42
g1426
Vinsert
p7323
I42
VSimpleName: clear
p7324
tp7325
I82
s(g456
I42
g457
Vinsert
p7326
I42
VSimpleName: DrawHelper
p7327
tp7328
I2
s(g109
I42
g110
Vinsert
p7329
I42
VSimpleName: getSyncState
p7330
tp7331
I6
s(g1053
I42
g1054
Vinsert
p7332
I74
VParameterizedType: List<BaseDanmaku>
p7333
tp7334
I7
s(g11
I42
g12
Vinsert
p7335
I52
VThisExpression
p7336
tp7337
I1
s(g134
I42
g135
Vinsert
p7338
I49
VSwitchCase
p7339
tp7340
I11
s(g74
I42
g75
Vinsert
p7341
I40
VQualifiedName: endSubItem.time
p7342
tp7343
I5
s(g342
I42
g343
Vinsert
p7344
I44
VSingleVariableDeclaration
p7345
tp7346
I5
s(g511
I42
g512
Vinsert
p7347
I45
VStringLiteral: "\u005cn\u005cn"
p7348
tp7349
I12
s(g1211
I42
g1212
Vinsert
p7350
I43
VSimpleType: IllegalDataException
p7351
tp7352
I5
s(g425
I42
g426
Vinsert
p7353
I42
VSimpleName: mCacheManager
p7354
tp7355
I3
s(g36
I42
g37
Vinsert
p7356
I45
VStringLiteral: "end"
p7357
tp7358
I3
s(g16
I42
g17
Vinsert
p7359
I59
VVariableDeclarationFragment
p7360
tp7361
I2
s(g944
I42
g945
Vinsert
p7362
I42
VSimpleName: mScrapList
p7363
tp7364
I1
s(g1294
I42
g1295
Vinsert
p7365
I42
VSimpleName: StaticLayout
p7366
tp7367
I7
s(g1852
I42
g1853
Vinsert
p7368
I42
VSimpleName: added
p7369
tp7370
I405
s(g375
I42
g376
Vinsert
p7371
I8
VBlock
p7372
tp7373
I6
s(g1588
I42
g1589
Vinsert
p7374
I8
VBlock
p7375
tp7376
I13
s(g637
I42
g638
Vinsert
p7377
I25
VIfStatement
p7378
tp7379
I3
s(g250
I42
g251
Vinsert
p7380
I43
VSimpleType: String
p7381
tp7382
I6
s(g516
I42
g517
Vinsert
p7383
I42
VSimpleName: add
p7384
tp7385
I5
s(g250
I42
g251
Vinsert
p7386
I44
VSingleVariableDeclaration
p7387
tp7388
I16
s(g882
I42
g883
Vinsert
p7389
I8
VBlock
p7390
tp7391
I4
s(g3298
I42
g3299
Vinsert
p7392
I42
VSimpleName: cache
p7393
tp7394
I15
s(g754
I42
g755
Vinsert
p7395
I39
VPrimitiveType: void
p7396
tp7397
I16
s(g1969
I42
g1970
Vinsert
p7398
I21
VExpressionStatement
p7399
tp7400
I3
s(g303
I42
g304
Vinsert
p7401
I42
VSimpleName: c
p7402
tp7403
I2
s(g235
I42
g236
Vinsert
p7404
I39
VPrimitiveType: void
p7405
tp7406
I5
s(g734
I42
g735
Vinsert
p7407
I21
VExpressionStatement
p7408
tp7409
I551
s(g1778
I42
g1779
Vinsert
p7410
I27
VInfixExpression: ||
p7411
tp7412
I408
s(g1074
I42
g1075
Vinsert
p7413
I74
VParameterizedType: LinkedList<BaseDanmaku>
p7414
tp7415
I3
s(g1111
I42
g1112
Vinsert
p7416
I42
VSimpleName: strokeLeft
p7417
tp7418
I8
s(g461
I42
g462
Vinsert
p7419
I42
VSimpleName: danmakus
p7420
tp7421
I87
s(g988
I42
g989
Vinsert
p7422
I42
VSimpleName: dtime
p7423
tp7424
I3
s(g490
I42
g491
Vinsert
p7425
I42
VSimpleName: retItems
p7426
tp7427
I3
s(g3465
I42
g3466
Vinsert
p7428
I40
VQualifiedName: android.widget.VideoView
p7429
tp7430
I17
s(g192
I42
g193
Vinsert
p7431
I43
VSimpleType: BaseDanmaku
p7432
tp7433
I12
s(g777
I42
g778
Vinsert
p7434
I32
VMethodInvocation
p7435
tp7436
I16
s(g1716
I42
g1717
Vinsert
p7437
I33
VNullLiteral
p7438
tp7439
I6
s(g197
I42
g198
Vinsert
p7440
I42
VSimpleName: drawItem
p7441
tp7442
I5
s(g1575
I42
g1576
Vinsert
p7443
I41
VReturnStatement
p7444
tp7445
I10
s(g516
I42
g517
Vinsert
p7446
I42
VSimpleName: d
p7447
tp7448
I11
s(g1203
I42
g1204
Vinsert
p7449
I44
VSingleVariableDeclaration
p7450
tp7451
I53
s(g1969
I42
g1970
Vinsert
p7452
I39
VPrimitiveType: long
p7453
tp7454
I4
s(g275
I42
g276
Vinsert
p7455
I43
VSimpleType: BaseDanmaku
p7456
tp7457
I9
s(g225
I42
g226
Vinsert
p7458
I42
VSimpleName: danmakuView
p7459
tp7460
I5
s(g1559
I42
g1560
Vinsert
p7461
I42
VSimpleName: Canvas
p7462
tp7463
I9
s(g64
I42
g65
Vinsert
p7464
I25
VIfStatement
p7465
tp7466
I4
s(g46
I42
g47
Vinsert
p7467
I27
VInfixExpression: ||
p7468
tp7469
I2
s(g1871
I42
g1872
Vinsert
p7470
I42
VSimpleName: QUIT
p7471
tp7472
I6
s(g139
I42
g140
Vinsert
p7473
I42
VSimpleName: w
p7474
tp7475
I6
s(g1257
I42
g1258
Vinsert
p7476
I33
VNullLiteral
p7477
tp7478
I4
s(g177
I42
g178
Vinsert
p7479
I32
VMethodInvocation
p7480
tp7481
I2
s(g1305
I42
g1306
Vinsert
p7482
I42
VSimpleName: BaseDanmaku
p7483
tp7484
I8
s(g1294
I42
g1295
Vinsert
p7485
I60
VVariableDeclarationStatement
p7486
tp7487
I3
s(g1406
I42
g1407
Vinsert
p7488
I34
VNumberLiteral: 0
p7489
tp7490
I23
s(g3710
I42
g3711
Vinsert
p7491
I43
VSimpleType: SoftReference
p7492
tp7493
I3
s(g1559
I42
g1560
Vinsert
p7494
I8
VBlock
p7495
tp7496
I7
s(g583
I42
g584
Vinsert
p7497
I27
VInfixExpression: /
p7498
tp7499
I2
s(g177
I42
g178
Vinsert
p7500
I25
VIfStatement
p7501
tp7502
I6
s(g1998
I42
g1999
Vinsert
p7503
I42
VSimpleName: obj2
p7504
tp7505
I1
s(g1143
I42
g1144
Vinsert
p7506
I42
VSimpleName: mTimeBase
p7507
tp7508
I5
s(g762
I42
g763
Vinsert
p7509
I33
VNullLiteral
p7510
tp7511
I8
s(g1905
I42
g1906
Vinsert
p7512
I42
VSimpleName: drawTime
p7513
tp7514
I5
s(g2229
I42
g2230
Vinsert
p7515
I34
VNumberLiteral: 30
p7516
tp7517
I2
s(g157
I42
g158
Vinsert
p7518
I9
VBooleanLiteral: true
p7519
tp7520
I24
s(g695
I42
g696
Vinsert
p7521
I25
VIfStatement
p7522
tp7523
I3
s(g225
I42
g226
Vinsert
p7524
I27
VInfixExpression: !=
p7525
tp7526
I4
s(g2124
I42
g2125
Vinsert
p7527
I43
VSimpleType: Object
p7528
tp7529
I5
s(g2019
I42
g2020
Vinsert
p7530
I42
VSimpleName: getFirstCacheTime
p7531
tp7532
I5
s(g1455
I42
g1456
Vinsert
p7533
I8
VBlock
p7534
tp7535
I6
s(g1079
I42
g1080
Vinsert
p7536
I32
VMethodInvocation
p7537
tp7538
I153
s(g1211
I42
g1212
Vinsert
p7539
I42
VSimpleName: uri
p7540
tp7541
I6
s(g827
I42
g828
Vinsert
p7542
I83
VModifier: public
p7543
tp7544
I12
s(g1685
I42
g1686
Vinsert
p7545
I54
VTryStatement
p7546
tp7547
I31
s(g388
I42
g389
Vinsert
p7548
I8
VBlock
p7549
tp7550
I6
s(g1545
I42
g1546
Vinsert
p7551
I42
VSimpleName: danmaku
p7552
tp7553
I8
s(g1030
I42
g1031
Vinsert
p7554
I8
VBlock
p7555
tp7556
I16
s(g69
I42
g70
Vinsert
p7557
I25
VIfStatement
p7558
tp7559
I3
s(g466
I42
g467
Vinsert
p7560
I44
VSingleVariableDeclaration
p7561
tp7562
I3
s(g1106
I42
g1107
Vinsert
p7563
I85
VDimension
p7564
tp7565
I2
s(g425
I42
g426
Vinsert
p7566
I33
VNullLiteral
p7567
tp7568
I1
s(g1570
I42
g1571
Vinsert
p7569
I42
VSimpleName: setOnClickListener
p7570
tp7571
I12
s(g2014
I42
g2015
Vinsert
p7572
I42
VSimpleName: subItems
p7573
tp7574
I4
s(g456
I42
g457
Vinsert
p7575
I59
VVariableDeclarationFragment
p7576
tp7577
I23
s(g827
I42
g828
Vinsert
p7578
I42
VSimpleName: Override
p7579
tp7580
I14
s(g1130
I42
g1131
Vinsert
p7581
I42
VSimpleName: mCapity
p7582
tp7583
I4
s(g1305
I42
g1306
Vinsert
p7584
I8
VBlock
p7585
tp7586
I52
s(g1654
I42
g1655
Vinsert
p7587
I27
VInfixExpression: ||
p7588
tp7589
I3
s(g573
I42
g574
Vinsert
p7590
I42
VSimpleName: displayer
p7591
tp7592
I86
s(g285
I42
g286
Vinsert
p7593
I7
VAssignment: =
p7594
tp7595
I24
s(g1095
I42
g1096
Vinsert
p7596
I27
VInfixExpression: !=
p7597
tp7598
I4
s(g1812
I42
g1813
Vinsert
p7599
I7
VAssignment: =
p7600
tp7601
I13
s(g568
I42
g569
Vinsert
p7602
I34
VNumberLiteral: 0
p7603
tp7604
I5
s(g1545
I42
g1546
Vinsert
p7605
I40
VQualifiedName: danmaku.paintWidth
p7606
tp7607
I1
s(g1011
I42
g1012
Vinsert
p7608
I42
VSimpleName: BaseDanmaku
p7609
tp7610
I5
s(g959
I42
g960
Vinsert
p7611
I42
VSimpleName: String
p7612
tp7613
I6
s(g882
I42
g883
Vinsert
p7614
I33
VNullLiteral
p7615
tp7616
I4
s(g832
I42
g833
Vinsert
p7617
I42
VSimpleName: mOnClickListener
p7618
tp7619
I155
s(g543
I42
g544
Vinsert
p7620
I27
VInfixExpression: !=
p7621
tp7622
I9
s(g949
I42
g950
Vinsert
p7623
I42
VSimpleName: handler
p7624
tp7625
I6
s(g1812
I42
g1813
Vinsert
p7626
I21
VExpressionStatement
p7627
tp7628
I13
s(g328
I42
g329
Vinsert
p7629
I43
VSimpleType: DanmakuConfigTag
p7630
tp7631
I6
s(g3710
I42
g3711
Vinsert
p7632
I40
VQualifiedName: danmaku.obj
p7633
tp7634
I2
s(g1820
I42
g1821
Vinsert
p7635
I25
VIfStatement
p7636
tp7637
I5
s(g2638
I42
g2639
Vinsert
p7638
I42
VSimpleName: BaseDanmaku
p7639
tp7640
I5
s(g912
I42
g913
Vinsert
p7641
I42
VSimpleName: mPool
p7642
tp7643
I1
s(g803
I42
g804
Vinsert
p7644
I42
VSimpleName: mRealSize
p7645
tp7646
I6
s(g5300
I42
g5301
Vinsert
p7647
I42
VSimpleName: fbdrInstance
p7648
tp7649
I3
s(g762
I42
g763
Vinsert
p7650
I25
VIfStatement
p7651
tp7652
I12
s(g959
I42
g960
Vinsert
p7653
I42
VSimpleName: IOException
p7654
tp7655
I5
s(g1876
I42
g1877
Vinsert
p7656
I42
VSimpleName: next
p7657
tp7658
I4
s(g500
I42
g501
Vinsert
p7659
I42
VSimpleName: t
p7660
tp7661
I4
s(g285
I42
g286
Vinsert
p7662
I42
VSimpleName: timer
p7663
tp7664
I127
s(g451
I42
g452
Vinsert
p7665
I60
VVariableDeclarationStatement
p7666
tp7667
I8
s(g2638
I42
g2639
Vinsert
p7668
I39
VPrimitiveType: void
p7669
tp7670
I7
s(g1040
I42
g1041
Vinsert
p7671
I42
VSimpleName: Math
p7672
tp7673
I22
s(g31
I42
g32
Vinsert
p7674
I59
VVariableDeclarationFragment
p7675
tp7676
I11
s(g1575
I42
g1576
Vinsert
p7677
I83
VModifier: public
p7678
tp7679
I16
s(g532
I42
g533
Vinsert
p7680
I42
VSimpleName: DanmakuFactory
p7681
tp7682
I1
s(g1637
I42
g1638
Vinsert
p7683
I42
VSimpleName: dispW
p7684
tp7685
I3
s(g767
I42
g768
Vinsert
p7686
I45
VStringLiteral: "4.4"
p7687
tp7688
I2
s(g808
I42
g809
Vinsert
p7689
I42
VSimpleName: drawDanmakus
p7690
tp7691
I3
s(g357
I42
g358
Vinsert
p7692
I42
VSimpleName: Override
p7693
tp7694
I30
s(g255
I42
g256
Vinsert
p7695
I33
VNullLiteral
p7696
tp7697
I2
s(g1257
I42
g1258
Vinsert
p7698
I27
VInfixExpression: &&
p7699
tp7700
I6
s(g290
I42
g291
Vinsert
p7701
I25
VIfStatement
p7702
tp7703
I3
s(g3179
I42
g3180
Vinsert
p7704
I42
VSimpleName: mDrawingNotify
p7705
tp7706
I3
s(g1990
I42
g1991
Vinsert
p7707
I61
VWhileStatement
p7708
tp7709
I4
s(g235
I42
g236
Vinsert
p7710
I42
VSimpleName: BaseDanmaku
p7711
tp7712
I3
s(g718
I42
g719
Vinsert
p7713
I27
VInfixExpression: >
p7714
tp7715
I10
s(g1058
I42
g1059
Vinsert
p7716
I38
VPrefixExpression: !
p7717
tp7718
I230
s(g1011
I42
g1012
Vinsert
p7719
I43
VSimpleType: BaseDanmaku
p7720
tp7721
I5
s(g2383
I42
g2384
Vinsert
p7722
I39
VPrimitiveType: boolean
p7723
tp7724
I6
s(g119
I42
g120
Vinsert
p7725
I8
VBlock
p7726
tp7727
I20
s(g36
I42
g37
Vinsert
p7728
I40
VQualifiedName: startItem.time
p7729
tp7730
I3
s(g1979
I42
g1980
Vinsert
p7731
I33
VNullLiteral
p7732
tp7733
I2
s(g64
I42
g65
Vinsert
p7734
I42
VSimpleName: mOnFrameAvailableListener
p7735
tp7736
I1
s(g1489
I42
g1490
Vinsert
p7737
I34
VNumberLiteral: 10
p7738
tp7739
I2
s(g461
I42
g462
Vinsert
p7740
I42
VSimpleName: disp
p7741
tp7742
I11
s(g610
I42
g611
Vinsert
p7743
I42
VSimpleName: DanmakuView
p7744
tp7745
I5
s(g1106
I42
g1107
Vinsert
p7746
I42
VSimpleName: refreshRect
p7747
tp7748
I2
s(g754
I42
g755
Vinsert
p7749
I83
VModifier: public
p7750
tp7751
I7
s(g583
I42
g584
Vinsert
p7752
I32
VMethodInvocation
p7753
tp7754
I5
s(g207
I42
g208
Vinsert
p7755
I59
VVariableDeclarationFragment
p7756
tp7757
I13
s(g1
I42
g2
Vinsert
p7758
I42
VSimpleName: LinePath
p7759
tp7760
I3
s(g1990
I42
g1991
Vinsert
p7761
I42
VSimpleName: fit
p7762
tp7763
I7
s(g1074
I42
g1075
Vinsert
p7764
I42
VSimpleName: items
p7765
tp7766
I1
s(g1048
I42
g1049
Vinsert
p7767
I42
VSimpleName: canvas
p7768
tp7769
I5
s(g998
I42
g999
Vinsert
p7770
I14
VClassInstanceCreation
p7771
tp7772
I2
s(g495
I42
g496
Vinsert
p7773
I27
VInfixExpression: !=
p7774
tp7775
I2
s(g500
I42
g501
Vinsert
p7776
I60
VVariableDeclarationStatement
p7777
tp7778
I5
s(g856
I42
g857
Vinsert
p7779
I42
VSimpleName: time
p7780
tp7781
I8
s(g772
I42
g773
Vinsert
p7782
I21
VExpressionStatement
p7783
tp7784
I7
s(g1119
I42
g1120
Vinsert
p7785
I42
VSimpleName: orderInScreen
p7786
tp7787
I6
s(g1079
I42
g1080
Vinsert
p7788
I42
VSimpleName: BaseDanmakuParser
p7789
tp7790
I156
s(g430
I42
g431
Vinsert
p7791
I39
VPrimitiveType: int
p7792
tp7793
I10
s(g1327
I42
g1328
Vinsert
p7794
I32
VMethodInvocation
p7795
tp7796
I10
s(g1340
I42
g1341
Vinsert
p7797
I42
VSimpleName: NullPointerException
p7798
tp7799
I6
s(g1969
I42
g1970
Vinsert
p7800
I44
VSingleVariableDeclaration
p7801
tp7802
I4
s(g1812
I42
g1813
Vinsert
p7803
I39
VPrimitiveType: boolean
p7804
tp7805
I15
s(g420
I42
g421
Vinsert
p7806
I83
VModifier: public
p7807
tp7808
I4
s(g1876
I42
g1877
Vinsert
p7809
I42
VSimpleName: datas
p7810
tp7811
I8
s(g1130
I42
g1131
Vinsert
p7812
I32
VMethodInvocation
p7813
tp7814
I1
s(g41
I42
g42
Vinsert
p7815
I60
VVariableDeclarationStatement
p7816
tp7817
I3
s(g1237
I42
g1238
Vinsert
p7818
I27
VInfixExpression: &&
p7819
tp7820
I3
s(g1425
I42
g1426
Vinsert
p7821
I42
VSimpleName: timer
p7822
tp7823
I89
s(g695
I42
g696
Vinsert
p7824
I21
VExpressionStatement
p7825
tp7826
I1
s(g2014
I42
g2015
Vinsert
p7827
I8
VBlock
p7828
tp7829
I7
s(g1074
I42
g1075
Vinsert
p7830
I42
VSimpleName: LinkedList
p7831
tp7832
I3
s(g1570
I42
g1571
Vinsert
p7833
I42
VSimpleName: mBtnHideDanmaku
p7834
tp7835
I9
s(g1063
I42
g1064
Vinsert
p7836
I43
VSimpleType: AtomicInteger
p7837
tp7838
I150
s(g1130
I42
g1131
Vinsert
p7839
I83
VModifier: public
p7840
tp7841
I8
s(g705
I42
g706
Vinsert
p7842
I32
VMethodInvocation
p7843
tp7844
I1
s(g3465
I42
g3466
Vinsert
p7845
I40
VQualifiedName: R.id.video
p7846
tp7847
I1
s(g1138
I42
g1139
Vinsert
p7848
I21
VExpressionStatement
p7849
tp7850
I43
s(g754
I42
g755
Vinsert
p7851
I42
VSimpleName: mDanmakuView
p7852
tp7853
I6
s(g2006
I42
g2007
Vinsert
p7854
I60
VVariableDeclarationStatement
p7855
tp7856
I3
s(g187
I42
g188
Vinsert
p7857
I42
VSimpleName: dispH
p7858
tp7859
I118
s(g1340
I42
g1341
Vinsert
p7860
I53
VThrowStatement
p7861
tp7862
I7
s(g2019
I42
g2020
Vinsert
p7863
I42
VSimpleName: evictAllNotInScreen
p7864
tp7865
I3
s(g998
I42
g999
Vinsert
p7866
I83
VModifier: private
p7867
tp7868
I6
s(g610
I42
g611
Vinsert
p7869
I48
VSuperMethodInvocation
p7870
tp7871
I5
s(g1327
I42
g1328
Vinsert
p7872
I21
VExpressionStatement
p7873
tp7874
I6
s(g446
I42
g447
Vinsert
p7875
I16
VConditionalExpression
p7876
tp7877
I2
s(g490
I42
g491
Vinsert
p7878
I42
VSimpleName: Set
p7879
tp7880
I5
s(g1335
I42
g1336
Vinsert
p7881
I42
VSimpleName: add
p7882
tp7883
I138
s(g949
I42
g950
Vinsert
p7884
I33
VNullLiteral
p7885
tp7886
I4
s(g949
I42
g950
Vinsert
p7887
I59
VVariableDeclarationFragment
p7888
tp7889
I2
s(g527
I42
g528
Vinsert
p7890
I32
VMethodInvocation
p7891
tp7892
I5
s(g167
I42
g168
Vinsert
p7893
I8
VBlock
p7894
tp7895
I5
s(g1990
I42
g1991
Vinsert
p7896
I42
VSimpleName: IDanmakuFilter
p7897
tp7898
I7
s(g21
I42
g22
Vinsert
p7899
I32
VMethodInvocation
p7900
tp7901
I18
s(g84
I42
g85
Vinsert
p7902
I8
VBlock
p7903
tp7904
I14
s(g1174
I42
g1175
Vinsert
p7905
I32
VMethodInvocation
p7906
tp7907
I2
s(g56
I42
g57
Vinsert
p7908
I14
VClassInstanceCreation
p7909
tp7910
I5
s(g192
I42
g193
Vinsert
p7911
I39
VPrimitiveType: int
p7912
tp7913
I3
s(g1852
I42
g1853
Vinsert
p7914
I34
VNumberLiteral: 0
p7915
tp7916
I209
s(g511
I42
g512
Vinsert
p7917
I60
VVariableDeclarationStatement
p7918
tp7919
I4
s(g1084
I42
g1085
Vinsert
p7920
I27
VInfixExpression: >
p7921
tp7922
I3
s(g4685
I42
g4686
Vinsert
p7923
I42
VSimpleName: handler
p7924
tp7925
I3
s(g500
I42
g501
Vinsert
p7926
I42
VSimpleName: tempStr
p7927
tp7928
I6
s(g308
I42
g309
Vinsert
p7929
I8
VBlock
p7930
tp7931
I13
s(g119
I42
g120
Vinsert
p7932
I33
VNullLiteral
p7933
tp7934
I4
s(g74
I42
g75
Vinsert
p7935
I41
VReturnStatement
p7936
tp7937
I4
s(g1111
I42
g1112
Vinsert
p7938
I32
VMethodInvocation
p7939
tp7940
I1
s(g1406
I42
g1407
Vinsert
p7941
I42
VSimpleName: setItems
p7942
tp7943
I105
s(g1174
I42
g1175
Vinsert
p7944
I31
VMethodDeclaration
p7945
tp7946
I13
s(g1203
I42
g1204
Vinsert
p7947
I9
VBooleanLiteral: true
p7948
tp7949
I69
s(g1335
I42
g1336
Vinsert
p7950
I42
VSimpleName: getType
p7951
tp7952
I69
s(g1203
I42
g1204
Vinsert
p7953
I32
VMethodInvocation
p7954
tp7955
I1
s(g255
I42
g256
Vinsert
p7956
I43
VSimpleType: DrawingCacheHolder
p7957
tp7958
I7
s(g79
I42
g80
Vinsert
p7959
I59
VVariableDeclarationFragment
p7960
tp7961
I16
s(g1389
I42
g1390
Vinsert
p7962
I42
VSimpleName: counter
p7963
tp7964
I2
s(g124
I42
g125
Vinsert
p7965
I83
VModifier: public
p7966
tp7967
I14
s(g1654
I42
g1655
Vinsert
p7968
I54
VTryStatement
p7969
tp7970
I9
s(g1106
I42
g1107
Vinsert
p7971
I37
VPostfixExpression: --
p7972
tp7973
I4
s(g842
I42
g843
Vinsert
p7974
I21
VExpressionStatement
p7975
tp7976
I4
s(g700
I42
g701
Vinsert
p7977
I27
VInfixExpression: &&
p7978
tp7979
I1
s(g2383
I42
g2384
Vinsert
p7980
I42
VSimpleName: isPaused
p7981
tp7982
I5
s(g3015
I42
g3016
Vinsert
p7983
I83
VModifier: protected
p7984
tp7985
I27
s(g573
I42
g574
Vinsert
p7986
I42
VSimpleName: disp
p7987
tp7988
I10
s(Vinsert
p7989
I42
VSimpleName: printStackTrace
p7990
Vinsert
p7991
I42
VSimpleName: mDrawThread
p7992
tp7993
I10
s(g1040
I42
g1041
Vinsert
p7994
I42
VSimpleName: getWidth
p7995
tp7996
I5
s(g1035
I42
g1036
Vinsert
p7997
I42
VSimpleName: mThread
p7998
tp7999
I1
s(g573
I42
g574
Vinsert
p8000
I74
VParameterizedType: AbsDisplayer<?>
p8001
tp8002
I10
s(g357
I42
g358
Vinsert
p8003
I42
VSimpleName: DanmakuTimer
p8004
tp8005
I26
s(g26
I42
g27
Vinsert
p8006
I32
VMethodInvocation
p8007
tp8008
I1
s(g819
I42
g820
Vinsert
p8009
I42
VSimpleName: disp
p8010
tp8011
I1
s(g26
I42
g27
Vinsert
p8012
I40
VQualifiedName: AndroidDisplayer.PAINT
p8013
tp8014
I1
s(g6
I42
g7
Vinsert
p8015
I34
VNumberLiteral: 0
p8016
tp8017
I3
s(g1455
I42
g1456
Vinsert
p8018
I42
VSimpleName: w
p8019
tp8020
I5
s(g837
I42
g838
Vinsert
p8021
I21
VExpressionStatement
p8022
tp8023
I5
s(g230
I42
g231
Vinsert
p8024
I42
VSimpleName: InputStream
p8025
tp8026
I9
s(g819
I42
g820
Vinsert
p8027
I42
VSimpleName: danmakus
p8028
tp8029
I72
s(g543
I42
g544
Vinsert
p8030
I32
VMethodInvocation
p8031
tp8032
I1
s(g357
I42
g358
Vinsert
p8033
I31
VMethodDeclaration
p8034
tp8035
I30
s(g895
I42
g896
Vinsert
p8036
I8
VBlock
p8037
tp8038
I6
s(g3015
I42
g3016
Vinsert
p8039
I44
VSingleVariableDeclaration
p8040
tp8041
I24
s(g882
I42
g883
Vinsert
p8042
I42
VSimpleName: mRoot
p8043
tp8044
I10
s(g420
I42
g421
Vinsert
p8045
I42
VSimpleName: Override
p8046
tp8047
I5
s(g235
I42
g236
Vinsert
p8048
I83
VModifier: public
p8049
tp8050
I6
s(g79
I42
g80
Vinsert
p8051
I42
VSimpleName: System
p8052
tp8053
I9
s(g357
I42
g358
Vinsert
p8054
I83
VModifier: public
p8055
tp8056
I29
s(g912
I42
g913
Vinsert
p8057
I32
VMethodInvocation
p8058
tp8059
I1
s(g1237
I42
g1238
Vinsert
p8060
I42
VSimpleName: updateFlag
p8061
tp8062
I11
s(g1629
I42
g1630
Vinsert
p8063
I33
VNullLiteral
p8064
tp8065
I1
s(g842
I42
g843
Vinsert
p8066
I43
VSimpleType: View
p8067
tp8068
I2
s(g610
I42
g611
Vinsert
p8069
I34
VNumberLiteral: 4
p8070
tp8071
I5
s(g615
I42
g616
Vinsert
p8072
I42
VSimpleName: onCreateViewHolder
p8073
tp8074
I3
s(g1074
I42
g1075
Vinsert
p8075
I32
VMethodInvocation
p8076
tp8077
I11
s(g1294
I42
g1295
Vinsert
p8078
I43
VSimpleType: SoftReference
p8079
tp8080
I5
s(g705
I42
g706
Vinsert
p8081
I83
VModifier: public
p8082
tp8083
I7
s(g1420
I42
g1421
Vinsert
p8084
I36
VParenthesizedExpression
p8085
tp8086
I1
s(g41
I42
g42
Vinsert
p8087
I34
VNumberLiteral: 0
p8088
tp8089
I3
s.