(lp0
(Vinsert
p1
I42
VSimpleName: hideDanmakus
p2
tp3
a(Vinsert
p4
I42
VSimpleName: isFiltered
p5
tp6
a(Vinsert
p7
I42
VSimpleName: getActualTime
p8
tp9
a(Vinsert
p10
I42
VSimpleName: getContext
p11
tp12
a(Vinsert
p13
I42
VSimpleName: loadLibs
p14
tp15
a(Vinsert
p16
I42
VSimpleName: drawColor
p17
tp18
a(Vinsert
p19
I42
VSimpleName: hasDrawingCache
p20
tp21
a(Vinsert
p22
I42
VSimpleName: next
p23
tp24
a(Vinsert
p25
I42
VSimpleName: eraseColor
p26
tp27
a(Vinsert
p28
I42
VSimpleName: lockCanvas
p29
tp30
a(Vinsert
p31
I42
VSimpleName: min
p32
tp33
a(Vinsert
p34
I42
VSimpleName: isLate
p35
tp36
a(Vinsert
p37
I42
VSimpleName: isStop
p38
tp39
a(Vinsert
p40
I42
VSimpleName: quit
p41
tp42
a(Vinsert
p43
I42
VSimpleName: getLeft
p44
tp45
a(Vinsert
p46
I42
VSimpleName: setOnClickListener
p47
tp48
a(Vinsert
p49
I42
VSimpleName: getConfig
p50
tp51
a(Vinsert
p52
I42
VSimpleName: onPlayStateChanged
p53
tp54
a(Vinsert
p55
I42
VSimpleName: first
p56
tp57
a(Vinsert
p58
I42
VSimpleName: destroy
p59
tp60
a(Vinsert
p61
I42
VSimpleName: getResources
p62
tp63
a(Vinsert
p64
I42
VSimpleName: requestClearAll
p65
tp66
a(Vinsert
p67
I42
VSimpleName: getLast
p68
tp69
a(Vinsert
p70
I42
VSimpleName: addItem
p71
tp72
a(Vinsert
p73
I42
VSimpleName: createDanmaku
p74
tp75
a(Vinsert
p76
I42
VSimpleName: contains
p77
tp78
a(Vinsert
p79
I42
VSimpleName: removeCallbacks
p80
tp81
a(Vinsert
p82
I42
VSimpleName: reset
p83
tp84
a(Vinsert
p85
I42
VSimpleName: compare
p86
tp87
a(Vinsert
p88
I42
VSimpleName: updatePrepareFlag
p89
tp90
a(Vinsert
p91
I42
VSimpleName: buildDanmakuDrawingCache
p92
tp93
a(Vinsert
p94
I42
VSimpleName: height
p95
tp96
a(Vinsert
p97
I42
VSimpleName: setItems
p98
tp99
a(Vinsert
p100
I42
VSimpleName: removeCallbacksAndMessages
p101
tp102
a(Vinsert
p103
I42
VSimpleName: get
p104
tp105
a(Vinsert
p106
I42
VSimpleName: log
p107
tp108
a(Vinsert
p109
I42
VSimpleName: release
p110
tp111
a(Vinsert
p112
I42
VSimpleName: onFramesFinished
p113
tp114
a(Vinsert
p115
I42
VSimpleName: getNextPoolable
p116
tp117
a(Vinsert
p118
I42
VSimpleName: getOnDanmakuClickListener
p119
tp120
a(Vinsert
p121
I42
VSimpleName: dismiss
p122
tp123
a(Vinsert
p124
I42
VSimpleName: onDanmakuConfigChanged
p125
tp126
a(Vinsert
p127
I42
VSimpleName: setHardwareAccelerated
p128
tp129
a(Vinsert
p130
I42
VSimpleName: getRowBytes
p131
tp132
a(Vinsert
p133
I42
VSimpleName: sleep
p134
tp135
a(Vinsert
p136
I42
VSimpleName: start
p137
tp138
a(Vinsert
p139
I42
VSimpleName: getBeginPoint
p140
tp141
a(Vinsert
p142
I42
VSimpleName: getYOff
p143
tp144
a(Vinsert
p145
I42
VSimpleName: isEmpty
p146
tp147
a(Vinsert
p148
I42
VSimpleName: lastInterval
p149
tp150
a(Vinsert
p151
I42
VSimpleName: requestClearRetainer
p152
tp153
a(Vinsert
p154
I42
VSimpleName: update
p155
tp156
a(Vinsert
p157
I42
VSimpleName: setTextSize
p158
tp159
a(Vinsert
p160
I42
VSimpleName: currentThread
p161
tp162
a(Vinsert
p163
I42
VSimpleName: setDensity
p164
tp165
a(Vinsert
p166
I42
VSimpleName: drawingFinished
p167
tp168
a(Vinsert
p169
I42
VSimpleName: subSet
p170
tp171
a(Vinsert
p172
I42
VSimpleName: isOffset
p173
tp174
a(Vinsert
p175
I42
VSimpleName: i
p176
tp177
a(Vinsert
p178
I42
VSimpleName: getType
p179
tp180
a(Vinsert
p181
I42
VSimpleName: setScrollSpeedFactor
p182
tp183
a(Vinsert
p184
I42
VSimpleName: supportX86
p185
tp186
a(Vinsert
p187
I42
VSimpleName: clearCanvas
p188
tp189
a(Vinsert
p190
I42
VSimpleName: getWidth
p191
tp192
a(Vinsert
p193
I42
VSimpleName: getLastFrameRenderingTime
p194
tp195
a(Vinsert
p196
I42
VSimpleName: pause
p197
tp198
a(Vinsert
p199
I42
VSimpleName: getExtraData
p200
tp201
a(Vinsert
p202
I42
VSimpleName: clearTimeOutAndFilteredCaches
p203
tp204
a(Vinsert
p205
I42
VSimpleName: getString
p206
tp207
a(Vinsert
p208
I42
VSimpleName: sendEmptyMessage
p209
tp210
a(Vinsert
p211
I42
VSimpleName: onFailed
p212
tp213
a(Vinsert
p214
I42
VSimpleName: getScheme
p215
tp216
a(Vinsert
p217
I42
VSimpleName: evictAll
p218
tp219
a(Vinsert
p220
I42
VSimpleName: enableMultiThread
p221
tp222
a(Vinsert
p223
I42
VSimpleName: isPrepared
p224
tp225
a(Vinsert
p226
I42
VSimpleName: isMeasured
p227
tp228
a(Vinsert
p229
I42
VSimpleName: requestRender
p230
tp231
a(Vinsert
p232
I42
VSimpleName: put
p233
tp234
a(Vinsert
p235
I42
VSimpleName: updateMeasureFlag
p236
tp237
a(Vinsert
p238
I42
VSimpleName: clearDanmakusOnScreen
p239
tp240
a(Vinsert
p241
I42
VSimpleName: setCacheManager
p242
tp243
a(Vinsert
p244
I42
VSimpleName: onDanmakuShown
p245
tp246
a(Vinsert
p247
I42
VSimpleName: updateVisibleFlag
p248
tp249
a(Vinsert
p250
I42
VSimpleName: isProblemBoxDevice
p251
tp252
a(Vinsert
p253
I42
VSimpleName: prepare
p254
tp255
a(Vinsert
p256
I42
VSimpleName: currentTimeMillis
p257
tp258
a(Vinsert
p259
I42
VSimpleName: e
p260
tp261
a(Vinsert
p262
I42
VSimpleName: isAlive
p263
tp264
a(Vinsert
p265
I42
VSimpleName: ceil
p266
tp267
a(Vinsert
p268
I42
VSimpleName: clear
p269
tp270
a(Vinsert
p271
I42
VSimpleName: requestClear
p272
tp273
a(Vinsert
p274
I42
VSimpleName: setAntiAlias
p275
tp276
a(Vinsert
p277
I42
VSimpleName: fillText
p278
tp279
a(Vinsert
p280
I42
VSimpleName: wait
p281
tp282
a(Vinsert
p283
I42
VSimpleName: ascent
p284
tp285
a(Vinsert
p286
I42
VSimpleName: addDanmaku
p287
tp288
a(Vinsert
p289
I42
VSimpleName: isMaxLinesLimited
p290
tp291
a(Vinsert
p292
I42
VSimpleName: removeAllLiveDanmakus
p293
tp294
a(Vinsert
p295
I42
VSimpleName: getInt
p296
tp297
a(Vinsert
p298
I42
VSimpleName: isShown
p299
tp300
a(Vinsert
p301
I42
VSimpleName: useDrawColorToClearCanvas
p302
tp303
a(Vinsert
p304
I42
VSimpleName: append
p305
tp306
a(Vinsert
p307
I42
VSimpleName: updateTimer
p308
tp309
a(Vinsert
p310
I42
VSimpleName: seek
p311
tp312
a(Vinsert
p313
I42
VSimpleName: acquire
p314
tp315
a(Vinsert
p316
I42
VSimpleName: create
p317
tp318
a(Vinsert
p319
I42
VSimpleName: prepared
p320
tp321
a(Vinsert
p322
I42
VSimpleName: isPause
p323
tp324
a(Vinsert
p325
I42
VSimpleName: isTimeOut
p326
tp327
a(Vinsert
p328
I42
VSimpleName: getScaledDensity
p329
tp330
a(Vinsert
p331
I42
VSimpleName: getDeclaredField
p332
tp333
a(Vinsert
p334
I42
VSimpleName: decrementAndGet
p335
tp336
a(Vinsert
p337
I42
VSimpleName: onClick
p338
tp339
a(Vinsert
p340
I42
VSimpleName: getRuntime
p341
tp342
a(Vinsert
p343
I42
VSimpleName: forceRender
p344
tp345
a(Vinsert
p346
I42
VSimpleName: setDatas
p347
tp348
a(Vinsert
p349
I42
VSimpleName: set
p350
tp351
a(Vinsert
p352
I42
VSimpleName: getDisplayer
p353
tp354
a(Vinsert
p355
I42
VSimpleName: length
p356
tp357
a(Vinsert
p358
I42
VSimpleName: onPrepareDrawing
p359
tp360
a(Vinsert
p361
I42
VSimpleName: last
p362
tp363
a(Vinsert
p364
I42
VSimpleName: setParser
p365
tp366
a(Vinsert
p367
I42
VSimpleName: getDefault
p368
tp369
a(Vinsert
p370
I42
VSimpleName: getBaseComparator
p371
tp372
a(Vinsert
p373
I42
VSimpleName: accept
p374
tp375
a(Vinsert
p376
I42
VSimpleName: isRealX86Arch
p377
tp378
a(Vinsert
p379
I42
VSimpleName: data
p380
tp381
a(Vinsert
p382
I42
VSimpleName: getSystemService
p383
tp384
a(Vinsert
p385
I42
VSimpleName: hasPassedFilter
p386
tp387
a(Vinsert
p388
I42
VSimpleName: setVideoPath
p389
tp390
a(Vinsert
p391
I42
VSimpleName: maxSize
p392
tp393
a(Vinsert
p394
I42
VSimpleName: geCurrenttTime
p395
tp396
a(Vinsert
p397
I42
VSimpleName: setTransparency
p398
tp399
a(Vinsert
p400
I42
VSimpleName: equals
p401
tp402
a(Vinsert
p403
I42
VSimpleName: resetDurationsData
p404
tp405
a(Vinsert
p406
I42
VSimpleName: schedule
p407
tp408
a(Vinsert
p409
I42
VSimpleName: onTouchEvent
p410
tp411
a(Vinsert
p412
I42
VSimpleName: isFilteredBy
p413
tp414
a(Vinsert
p415
I42
VSimpleName: add
p416
tp417
a(Vinsert
p418
I42
VSimpleName: getDrawingCache
p419
tp420
a(Vinsert
p421
I42
VSimpleName: setPoints
p422
tp423
a(Vinsert
p424
I42
VSimpleName: indexOf
p425
tp426
a(Vinsert
p427
I42
VSimpleName: getRefreshArea
p428
tp429
a(Vinsert
p430
I42
VSimpleName: setVisibility
p431
tp432
a(Vinsert
p433
I42
VSimpleName: drawDanmakus
p434
tp435
a(Vinsert
p436
I42
VSimpleName: postDelayed
p437
tp438
a(Vinsert
p439
I42
VSimpleName: getHeight
p440
tp441
a(Vinsert
p442
I42
VSimpleName: drawText
p443
tp444
a(Vinsert
p445
I42
VSimpleName: iterator
p446
tp447
a(Vinsert
p448
I42
VSimpleName: danmakuShown
p449
tp450
a(Vinsert
p451
I42
VSimpleName: unregisterConfigChangedCallback
p452
tp453
a(Vinsert
p454
I42
VSimpleName: isDuplicate
p455
tp456
a(Vinsert
p457
I42
VSimpleName: updateMaxDanmakuDuration
p458
tp459
a(Vinsert
p460
I42
VSimpleName: inflate
p461
tp462
a(Vinsert
p463
I42
VSimpleName: ready
p464
tp465
a(Vinsert
p466
I42
VSimpleName: d
p467
tp468
a(Vinsert
p469
I42
VSimpleName: hasNext
p470
tp471
a(Vinsert
p472
I42
VSimpleName: notifyDispSizeChanged
p473
tp474
a(Vinsert
p475
I42
VSimpleName: getCurrentTime
p476
tp477
a(Vinsert
p478
I42
VSimpleName: isRecycled
p479
tp480
a(Vinsert
p481
I42
VSimpleName: notifyAll
p482
tp483
a(Vinsert
p484
I42
VSimpleName: getFirst
p485
tp486
a(Vinsert
p487
I42
VSimpleName: getVisibleDanmakusOnTime
p488
tp489
a(Vinsert
p490
I42
VSimpleName: layout
p491
tp492
a(Vinsert
p493
I42
VSimpleName: createCache
p494
tp495
a(Vinsert
p496
I42
VSimpleName: printStackTrace
p497
tp498
a(Vinsert
p499
I42
VSimpleName: end
p500
tp501
a(Vinsert
p502
I42
VSimpleName: getDesiredWidth
p503
tp504
a(Vinsert
p505
I42
VSimpleName: draw
p506
tp507
a(Vinsert
p508
I42
VSimpleName: booleanValue
p509
tp510
a(Vinsert
p511
I42
VSimpleName: measureText
p512
tp513
a(Vinsert
p514
I42
VSimpleName: init
p515
tp516
a(Vinsert
p517
I42
VSimpleName: alignBottom
p518
tp519
a(Vinsert
p520
I42
VSimpleName: updateFirstShownFlag
p521
tp522
a(Vinsert
p523
I42
VSimpleName: resume
p524
tp525
a(Vinsert
p526
I42
VSimpleName: isOutside
p527
tp528
a(Vinsert
p529
I42
VSimpleName: abs
p530
tp531
a(Vinsert
p532
I42
VSimpleName: getUptimeMillis
p533
tp534
a(Vinsert
p535
I42
VSimpleName: onDanmakuAdd
p536
tp537
a(Vinsert
p538
I42
VSimpleName: createBitmap
p539
tp540
a(Vinsert
p541
I42
VSimpleName: uptimeMillis
p542
tp543
a(Vinsert
p544
I42
VSimpleName: setTimer
p545
tp546
a(Vinsert
p547
I42
VSimpleName: isPlaying
p548
tp549
a(Vinsert
p550
I42
VSimpleName: parse
p551
tp552
a(Vinsert
p553
I42
VSimpleName: hashCode
p554
tp555
a(Vinsert
p556
I42
VSimpleName: finitePool
p557
tp558
a(Vinsert
p559
I42
VSimpleName: erase
p560
tp561
a(Vinsert
p562
I42
VSimpleName: setLastFrameRenderingTime
p563
tp564
a(Vinsert
p565
I42
VSimpleName: setProperty
p566
tp567
a(Vinsert
p568
I42
VSimpleName: getLooper
p569
tp570
a(Vinsert
p571
I42
VSimpleName: size
p572
tp573
a(Vinsert
p574
I42
VSimpleName: invalidateDanmaku
p575
tp576
a(Vinsert
p577
I42
VSimpleName: read
p578
tp579
a(Vinsert
p580
I42
VSimpleName: showFPS
p581
tp582
a(Vinsert
p583
I42
VSimpleName: sendToTarget
p584
tp585
a(Vinsert
p586
I42
VSimpleName: toString
p587
tp588
a(Vinsert
p589
I42
VSimpleName: obtainMessage
p590
tp591
a(Vinsert
p592
I42
VSimpleName: getInstance
p593
tp594
a(Vinsert
p595
I42
VSimpleName: toggleDrawing
p596
tp597
a(Vinsert
p598
I42
VSimpleName: fix
p599
tp600
a(Vinsert
p601
I42
VSimpleName: result
p602
tp603
a(Vinsert
p604
I42
VSimpleName: setBitmap
p605
tp606
a(Vinsert
p607
I42
VSimpleName: join
p608
tp609
a(Vinsert
p610
I42
VSimpleName: getAverageRenderingTime
p611
tp612
a(Vinsert
p613
I42
VSimpleName: interrupt
p614
tp615
a(Vinsert
p616
I42
VSimpleName: begin
p617
tp618
a(Vinsert
p619
I42
VSimpleName: close
p620
tp621
a(Vinsert
p622
I42
VSimpleName: getDuration
p623
tp624
a(Vinsert
p625
I42
VSimpleName: removeMessages
p626
tp627
a(Vinsert
p628
I42
VSimpleName: forEach
p629
tp630
a(Vinsert
p631
I42
VSimpleName: subnew
p632
tp633
a(Vinsert
p634
I42
VSimpleName: equalsIgnoreCase
p635
tp636
a(Vinsert
p637
I42
VSimpleName: setDuplicateMergingEnabled
p638
tp639
a(Vinsert
p640
I42
VSimpleName: elapsedRealtime
p641
tp642
a.