(dp0
(S'Token'
p1
I292
VcreateNewSpan
p2
tp3
I1
s(g1
I1199
Vdanmaku
p4
tp5
I1
s(g1
I1570
Vdanmaku
p6
tp7
I1
s(g1
I990
VImageSpan
p8
tp9
I1
s(g1
I580
Vsub
p10
tp11
I1
s(g1
I1009
VstartMS
p12
tp13
I1
s(g1
I359
VmDanmakuView
p14
tp15
I1
s(g1
I1209
VstartMS
p16
tp17
I1
s(g1
I180
Vit
p18
tp19
I1
s(g1
I340
VmTimer
p20
tp21
I1
s(g1
I156
VOverride
p22
tp23
I1
s(g1
I64
VSystem
p24
tp25
I1
s(g1
I40
VfindViewById
p26
tp27
I1
s(g1
I1335
VoldValue
p28
tp29
I1
s(g1
I402
VdanmakuList
p30
tp31
I1
s(g1
I1015
VremoveMessages
p32
tp33
I1
s(g1
I374
VmDanmakuView
p34
tp35
I1
s(g1
I689
VisMeasured
p36
tp37
I1
s(g1
I375
Vcanvas
p38
tp39
I1
s(g1
I296
VonFrameAvailableListener
p40
tp41
I1
s(g1
I52
Vh
p42
tp43
I1
s(g1
I237
VBaseDanmaku
p44
tp45
I1
s(g1
I1434
VBaseDanmaku
p46
tp47
I1
s(g1
I387
VcurrMills
p48
tp49
I1
s(g1
I298
Vitems
p50
tp51
I1
s(g1
I37
VMenu
p52
tp53
I1
s(g1
I756
VvisibleDanmakus
p54
tp55
I1
s(g1
I331
VLooper
p56
tp57
I1
s(g1
I134
Velement
p58
tp59
I1
s(g1
I140
Vcanvas
p60
tp61
I1
s(g1
I98
Vcanvas
p62
tp63
I1
s(g1
I536
VOverride
p64
tp65
I1
s(g1
I1764
VBaseDanmaku
p66
tp67
I1
s(g1
I185
Vupdate
p68
tp69
I1
s(g1
I1357
VstartTime
p70
tp71
I1
s(g1
I74
VDrawingCacheHolder
p72
tp73
I1
s(g1
I50
VJSONObjectSource
p74
tp75
I1
s(g1
I237
Vcontext
p76
tp77
I1
s(g1
I168
Vdanmaku
p78
tp79
I1
s(g1
I479
Vdisplayer
p80
tp81
I1
s(g1
I1207
VaverageTime
p82
tp83
I1
s(g1
I244
VmediaPlayer
p84
tp85
I1
s(g1
I134
VmRoot
p86
tp87
I1
s(g1
I348
VTAG
p88
tp89
I1
s(g1
I101
VsetAntiAlias
p90
tp91
I1
s(g1
I324
VlocalName
p92
tp93
I1
s(g1
I454
Vobj1
p94
tp95
I1
s(g1
I383
VsetDuplicateMergingEnabled
p96
tp97
I1
s(g1
I178
VOverride
p98
tp99
I1
s(g1
I87
Vdanmakus
p100
tp101
I1
s(g1
I882
VDanmakuUtils
p102
tp103
I1
s(g1
I501
Vbmp
p104
tp105
I1
s(g1
I436
Vprepare
p106
tp107
I1
s(g1
I506
Vd
p108
tp109
I1
s(g1
I245
VSoftReference
p110
tp111
I1
s(g1
I456
Vmills
p112
tp113
I1
s(g1
I140
VmRoot
p114
tp115
I1
s(g1
I159
VCanvas
p116
tp117
I1
s(g1
I68
Vdisp
p118
tp119
I1
s(g1
I1214
Vheight
p120
tp121
I1
s(g1
I369
VDanmakuSurfaceView
p122
tp123
I1
s(g1
I587
VOverride
p124
tp125
I1
s(g1
I231
Vdanmakus
p126
tp127
I1
s(g1
I1372
VevictAll
p128
tp129
I1
s(g1
I245
Vdraw
p130
tp131
I1
s(g1
I2481
Vitem
p132
tp133
I1
s(g1
I90
VlrdrInstance
p134
tp135
I1
s(g1
I180
Vupdate
p136
tp137
I1
s(g1
I683
VDrawTask
p138
tp139
I1
s(g1
I645
Vdanmaku
p140
tp141
I1
s(g1
I1446
Vcache
p142
tp143
I1
s(g1
I843
Vi
p144
tp145
I1
s(g1
I44
VIDisplayer
p146
tp147
I1
s(g1
I220
VlocalName
p148
tp149
I1
s(g1
I893
VBaseDanmaku
p150
tp151
I1
s(g1
I360
VmHandler
p152
tp153
I1
s(g1
I899
Vquit
p154
tp155
I1
s(g1
I228
VdrawItem
p156
tp157
I1
s(g1
I48
Vh
p158
tp159
I1
s(g1
I912
VUPDATE_WHEN_PAUSED
p160
tp161
I1
s(g1
I142
Vmin
p162
tp163
I1
s(g1
I387
VArrayList
p164
tp165
I1
s(g1
I198
VmTimer
p166
tp167
I1
s(g1
I811
Vitem
p168
tp169
I1
s(g1
I1245
VmCacheTimer
p170
tp171
I1
s(g1
I1423
VstartMS
p172
tp173
I1
s(g1
I270
VmRenderer
p174
tp175
I1
s(g1
I192
Vpaint
p176
tp177
I1
s(g1
I885
VunregisterFilter
p178
tp179
I1
s(g1
I48
Vfile
p180
tp181
I1
s(g1
I133
Vcanvas
p182
tp183
I1
s(g1
I62
VmDispHeight
p184
tp185
I1
s(g1
I165
VdanmakuView
p186
tp187
I1
s(g1
I569
VBaseDanmaku
p188
tp189
I1
s(g1
I257
VstaticLayout
p190
tp191
I1
s(g1
I551
VpausedPosition
p192
tp193
I1
s(g1
I338
VmMaxCacheSize
p194
tp195
I1
s(g1
I280
Vcompare
p196
tp197
I1
s(g1
I1048
VlastTime
p198
tp199
I1
s(g1
I548
VBaseDanmaku
p200
tp201
I1
s(g1
I336
Vquit
p202
tp203
I1
s(g1
I318
Vhandler
p204
tp205
I1
s(g1
I164
VgetLayoutInflater
p206
tp207
I1
s(g1
I248
VonTouchEvent
p208
tp209
I1
s(g1
I579
Vsb
p210
tp211
I1
s(g1
I207
VDanmakus
p212
tp213
I1
s(g1
I63
Vlock
p214
tp215
I1
s(g1
I117
VgetBytes
p216
tp217
I1
s(g1
I43
VIDanmakuIterator
p218
tp219
I1
s(g1
I709
VmRealSize
p220
tp221
I1
s(g1
I830
Vright
p222
tp223
I1
s(g1
I275
VSAXException
p224
tp225
I1
s(g1
I1423
VIDanmakuIterator
p226
tp227
I1
s(g1
I121
VFileNotFoundException
p228
tp229
I1
s(g1
I592
VsendToTarget
p230
tp231
I1
s(g1
I1058
VdrawTask
p232
tp233
I1
s(g1
I185
Vcontext
p234
tp235
I1
s(g1
I1619
Vtimer
p236
tp237
I1
s(g1
I444
Vparser
p238
tp239
I1
s(g1
I32
Vupdate
p240
tp241
I2
s(g1
I233
Vpaint
p242
tp243
I1
s(g1
I2476
Vnext
p244
tp245
I1
s(g1
I1357
VsizeInScreen
p246
tp247
I1
s(g1
I1489
VBaseDanmaku
p248
tp249
I1
s(g1
I544
VmCacheManager
p250
tp251
I1
s(g1
I1016
Vequals
p252
tp253
I2
s(g1
I1236
VstartTime
p254
tp255
I1
s(g1
I1119
VmDrawTimes
p256
tp257
I1
s(g1
I112
Vlimit
p258
tp259
I1
s(g1
I184
VdataSource
p260
tp261
I1
s(g1
I1845
VinvalidateDanmaku
p262
tp263
I1
s(g1
I1254
Vdestroy
p264
tp265
I1
s(g1
I265
VgetStableLeft
p266
tp267
I1
s(g1
I216
VmDanmakuView
p268
tp269
I1
s(g1
I921
Vit
p270
tp271
I1
s(g1
I505
Ve
p272
tp273
I1
s(g1
I387
Vsub
p274
tp275
I1
s(g1
I131
VmRoot
p276
tp277
I1
s(g1
I136
VmDanmakus
p278
tp279
I2
s(g1
I1060
VgetAverageRenderingTime
p280
tp281
I1
s(g1
I398
VbeginMills
p282
tp283
I1
s(g1
I71
VIOUtils
p284
tp285
I1
s(g1
I995
Viterator
p286
tp287
I1
s(g1
I821
VisViewReady
p288
tp289
I1
s(g1
I592
Vlength
p290
tp291
I1
s(g1
I1214
VSystem
p292
tp293
I1
s(g1
I239
Vinit
p294
tp295
I1
s(g1
I1045
VdrawTask
p296
tp297
I1
s(g1
I235
VmCacheManager
p298
tp299
I1
s(g1
I1696
Vend
p300
tp301
I1
s(g1
I47
Viterator
p302
tp303
I1
s(g1
I165
Vcanvas
p304
tp305
I1
s(g1
I559
Vupdate
p306
tp307
I1
s(g1
I1203
VDrawHelper
p308
tp309
I1
s(g1
I18
S''
p310
tp311
I10
s(g1
I494
VstartTime
p312
tp313
I1
s(g1
I1551
VBUILD_CACHES
p314
tp315
I1
s(g1
I1008
VmOnClickListener
p316
tp317
I1
s(g1
I409
Vcanvas
p318
tp319
I1
s(g1
I222
VgetExternalStorageDirectory
p320
tp321
I1
s(g1
I1566
VregisterFilter
p322
tp323
I1
s(g1
I50
VgetWidth
p324
tp325
I1
s(g1
I114
VnativeLibLoaded
p326
tp327
I2
s(g1
I16
Vcontext
p328
tp329
I1
s(g1
I917
VquitFlag
p330
tp331
I1
s(g1
I702
Vrunnable
p332
tp333
I1
s(g1
I343
VmVideoView
p334
tp335
I1
s(g1
I144
VgetHeight
p336
tp337
I1
s(g1
I1439
VmDanmakuView
p338
tp339
I1
s(g1
I570
Vd
p340
tp341
I1
s(g1
I992
VdrawTask
p342
tp343
I1
s(g1
I462
VmCounter
p344
tp345
I1
s(g1
I1555
Vitem
p346
tp347
I1
s(g1
I128
Vdisp
p348
tp349
I1
s(g1
I1424
VdrawTask
p350
tp351
I1
s(g1
I236
VshowAtLocation
p352
tp353
I1
s(g1
I47
VString
p354
tp355
I1
s(g1
I713
Vcontext
p356
tp357
I1
s(g1
I923
VNOTIFY_RENDERING
p358
tp359
I1
s(g1
I1065
VOverride
p360
tp361
I1
s(g1
I1432
Vit
p362
tp363
I2
s(g1
I269
VqName
p364
tp365
I1
s(g1
I454
VgetType
p366
tp367
I1
s(g1
I20
VsavedInstanceState
p368
tp369
I1
s(g1
I319
VmVideoView
p370
tp371
I2
s(g1
I441
VaverageWidth
p372
tp373
I1
s(g1
I1066
Vrun
p374
tp375
I1
s(g1
I1416
VSystemClock
p376
tp377
I1
s(g1
I136
VInputStream
p378
tp379
I1
s(g1
I645
Vitems
p380
tp381
I1
s(g1
I651
Vsub
p382
tp383
I1
s(g1
I255
VcurrX
p384
tp385
I1
s(g1
I22
Vtag
p386
tp387
I2
s(g1
I1048
VDanmakuView
p388
tp389
I1
s(g1
I142
VDanmakuFactory
p390
tp391
I1
s(g1
I214
VSAXException
p392
tp393
I1
s(g1
I78
VgetLeft
p394
tp395
I1
s(g1
I188
VmVideoView
p396
tp397
I1
s(g1
I579
Vdanmaku
p398
tp399
I1
s(g1
I304
VdrawItem
p400
tp401
I1
s(g1
I590
VtextHeight
p402
tp403
I1
s(g1
I230
VmDrawingNotify
p404
tp405
I1
s(g1
I463
VmTimer
p406
tp407
I1
s(g1
I277
VButton
p408
tp409
I1
s(g1
I1154
VmDrawingNotify
p410
tp411
I1
s(g1
I1112
Vmax
p412
tp413
I1
s(g1
I192
VupdateTimer
p414
tp415
I1
s(g1
I456
Vprepare
p416
tp417
I1
s(g1
I394
Vsb
p418
tp419
I1
s(g1
I569
VMath
p420
tp421
I1
s(g1
I310
VString
p422
tp423
I1
s(g1
I654
VBaseDanmaku
p424
tp425
I1
s(g1
I555
VCollection
p426
tp427
I1
s(g1
I291
VmTimer
p428
tp429
I1
s(g1
I1113
VsetAverageRenderingTime
p430
tp431
I1
s(g1
I745
VdanmakuList
p432
tp433
I1
s(g1
I1013
VspannableStringBuilder
p434
tp435
I1
s(g1
I207
VOverride
p436
tp437
I1
s(g1
I1700
VdrawTask
p438
tp439
I1
s(g1
I1008
Vview
p440
tp441
I1
s(g1
I1182
Vd
p442
tp443
I1
s(g1
I1009
VaverageTime
p444
tp445
I1
s(g1
I1035
VnotifyRendering
p446
tp447
I1
s(g1
I150
Vcanvas
p448
tp449
I2
s(g1
I39
VmDispDensity
p450
tp451
I1
s(g1
I499
VPREPARE
p452
tp453
I1
s(g1
I1209
VsyncTimer
p454
tp455
I1
s(g1
I31
VsetContentView
p456
tp457
I1
s(g1
I1412
Vreset
p458
tp459
I1
s(g1
I570
VmDanmakuView
p460
tp461
I1
s(g1
I359
Vcanvas
p462
tp463
I1
s(g1
I64
Vlines
p464
tp465
I1
s(g1
I683
VsubItems
p466
tp467
I1
s(g1
I1084
Vdanmaku
p468
tp469
I1
s(g1
I849
VentryRemoved
p470
tp471
I1
s(g1
I123
VloadLibrary
p472
tp473
I1
s(g1
I1735
VmDanmakuView
p474
tp475
I1
s(g1
I1064
VSystemClock
p476
tp477
I1
s(g1
I394
VmDanmakuView
p478
tp479
I1
s(g1
I241
Vnext
p480
tp481
I1
s(g1
I562
Vr
p482
tp483
I1
s(g1
I358
Vstart
p484
tp485
I1
s(g1
I355
Vquit
p486
tp487
I2
s(g1
I233
Vcanvas
p488
tp489
I1
s(g1
I212
VmTimer
p490
tp491
I1
s(g1
I152
VdanmakuView
p492
tp493
I1
s(g1
I456
VisPrepared
p494
tp495
I1
s(g1
I832
VlinePaths
p496
tp497
I1
s(g1
I305
VsetOnClickListener
p498
tp499
I2
s(g1
I224
VmPopupWindow
p500
tp501
I1
s(g1
I1038
VmaxCacheDuration
p502
tp503
I1
s(g1
I266
VBaseDanmakuParser
p504
tp505
I1
s(g1
I95
VUri
p506
tp507
I1
s(g1
I577
VmThread
p508
tp509
I1
s(g1
I774
VdanmakuList
p510
tp511
I1
s(g1
I370
Vcanvas
p512
tp513
I1
s(g1
I103
VOverride
p514
tp515
I2
s(g1
I1672
Vcanvas
p516
tp517
I1
s(g1
I1631
VdispatchAction
p518
tp519
I1
s(g1
I1292
VSystem
p520
tp521
I1
s(g1
I585
VDanmakuFactory
p522
tp523
I2
s(g1
I849
Ve
p524
tp525
I1
s(g1
I306
VisFiltered
p526
tp527
I1
s(g1
I231
VOverride
p528
tp529
I1
s(g1
I916
VmDanmakuView
p530
tp531
I1
s(g1
I1427
Vitem
p532
tp533
I1
s(g1
I677
VLong
p534
tp535
I1
s(g1
I62
Vequals
p536
tp537
I1
s(g1
I547
VDanmakuFactory
p538
tp539
I1
s(g1
I145
VfbdrInstance
p540
tp541
I1
s(g1
I326
VsetOnClickListener
p542
tp543
I1
s(g1
I206
VJSONObjectSource
p544
tp545
I1
s(g1
I285
VonFrameAvailable
p546
tp547
I1
s(g1
I713
Vitems
p548
tp549
I1
s(g1
I53
Vitr
p550
tp551
I1
s(g1
I116
Vobj
p552
tp553
I1
s(g1
I177
VlrdrInstance
p554
tp555
I1
s(g1
I167
VmConfigChangedCallback
p556
tp557
I1
s(g1
I476
VmHandler
p558
tp559
I1
s(g1
I178
VmLoader
p560
tp561
I1
s(g1
I627
Vdraw
p562
tp563
I1
s(g1
I102
VfbdrInstance
p564
tp565
I1
s(g1
I763
VsubDanmakus
p566
tp567
I1
s(g1
I341
Vparser
p568
tp569
I1
s(g1
I62
VFB_DANMAKU_VISIBILITY
p570
tp571
I1
s(g1
I171
Vcreate
p572
tp573
I1
s(g1
I827
Vit
p574
tp575
I1
s(g1
I1053
VprepareCaches
p576
tp577
I1
s(g1
I109
VXmlContentHandler
p578
tp579
I1
s(g1
I740
VIDanmakus
p580
tp581
I1
s(g1
I690
VCacheManagingDrawTask
p582
tp583
I1
s(g1
I197
VstartTime
p584
tp585
I1
s(g1
I173
Vstart
p586
tp587
I1
s(g1
I641
Vlast
p588
tp589
I1
s(g1
I1087
Vtimer
p590
tp591
I2
s(g1
I139
VIDisplayer
p592
tp593
I1
s(g1
I32
VOverride
p594
tp595
I1
s(g1
I150
VDanmakuFactory
p596
tp597
I1
s(g1
I147
VaddCallback
p598
tp599
I1
s(g1
I273
VupdateCxCy
p600
tp601
I1
s(g1
I1443
Ve
p602
tp603
I1
s(g1
I417
Vp
p604
tp605
I1
s(g1
I738
VdrawTask
p606
tp607
I1
s(g1
I1571
VevictAllNotInScreen
p608
tp609
I1
s(g1
I343
VmCacheManager
p610
tp611
I1
s(g1
I366
VBaseDanmaku
p612
tp613
I1
s(g1
I657
Vitems
p614
tp615
I1
s(g1
I84
Vin
p616
tp617
I1
s(g1
I63
VmDispWidth
p618
tp619
I1
s(g1
I164
VnativeBitmapField
p620
tp621
I1
s(g1
I2018
VremoveAllLiveDanmakus
p622
tp623
I1
s(g1
I128
Vw
p624
tp625
I2
s(g1
I228
Vdanmakus
p626
tp627
I1
s(g1
I212
Vattributes
p628
tp629
I1
s(g1
I1557
Venable
p630
tp631
I1
s(g1
I951
Vsize
p632
tp633
I1
s(g1
I579
Vobj1
p634
tp635
I1
s(g1
I577
VUPDATE
p636
tp637
I2
s(g1
I69
VonDanmakuClickListener
p638
tp639
I1
s(g1
I357
VVideoView
p640
tp641
I1
s(g1
I867
Vrun
p642
tp643
I1
s(g1
I54
VhasNext
p644
tp645
I1
s(g1
I296
Vhandler
p646
tp647
I1
s(g1
I326
VmBtnSendDanmaku
p648
tp649
I1
s(g1
I75
VrldrInstance
p650
tp651
I1
s(g1
I542
VdrawTask
p652
tp653
I1
s(g1
I1095
VMotionEvent
p654
tp655
I1
s(g1
I820
Vitr
p656
tp657
I1
s(g1
I489
VMessage
p658
tp659
I1
s(g1
I276
VOverride
p660
tp661
I1
s(g1
I1476
Venable
p662
tp663
I1
s(g1
I738
VstartTime
p664
tp665
I1
s(g1
I189
VloadAcDanmakus
p666
tp667
I1
s(g1
I114
Vwidth
p668
tp669
I1
s(g1
I1640
VmContext
p670
tp671
I1
s(g1
I480
VmHandler
p672
tp673
I1
s(g1
I60
VByteArrayOutputStream
p674
tp675
I1
s(g1
I835
VOverride
p676
tp677
I1
s(g1
I153
Vdisp
p678
tp679
I1
s(g1
I349
VlastTotalDanmakuCount
p680
tp681
I1
s(g1
I123
Vh
p682
tp683
I1
s(g1
I3169
VRESULT_FAILED
p684
tp685
I1
s(g1
I30
VonCreate
p686
tp687
I1
s(g1
I223
VmCacheManager
p688
tp689
I2
s(g1
I579
Vcanvas
p690
tp691
I1
s(g1
I332
VmHandler
p692
tp693
I1
s(g1
I1578
Vhandled
p694
tp695
I1
s(g1
I136
Vduration
p696
tp697
I1
s(g1
I1775
Vdanmaku
p698
tp699
I1
s(g1
I1114
Vtimer
p700
tp701
I1
s(g1
I285
VmOnFrameAvailableListener
p702
tp703
I1
s(g1
I322
Vstop
p704
tp705
I1
s(g1
I1093
VADD_DANMAKKU
p706
tp707
I1
s(g1
I115
VopenRawResource
p708
tp709
I1
s(g1
I665
VsendEmptyMessage
p710
tp711
I1
s(g1
I942
VunregisterFilter
p712
tp713
I1
s(g1
I187
Vdraw
p714
tp715
I1
s(g1
I950
VmThread
p716
tp717
I1
s(g1
I1590
Vtag
p718
tp719
I1
s(g1
I41
VmHolder
p720
tp721
I1
s(g1
I314
VAttributes
p722
tp723
I1
s(g1
I180
VdrawColor
p724
tp725
I1
s(g1
I509
VisSurfaceCreated
p726
tp727
I1
s(g1
I103
VInterruptedException
p728
tp729
I1
s(g1
I254
VStaticLayout
p730
tp731
I1
s(g1
I786
Vd
p732
tp733
I1
s(g1
I55
Vin
p734
tp735
I1
s(g1
I262
Vhandler
p736
tp737
I1
s(g1
I1632
VheightGap
p738
tp739
I1
s(g1
I1536
Vheight
p740
tp741
I1
s(g1
I323
Vbegin
p742
tp743
I1
s(g1
I468
Vdraw
p744
tp745
I1
s(g1
I161
VtextHeight
p746
tp747
I1
s(g1
I237
Vparser
p748
tp749
I1
s(g1
I1403
VclearFlag
p750
tp751
I1
s(g1
I144
Vcanvas
p752
tp753
I1
s(g1
I203
VSpecialDanmaku
p754
tp755
I1
s(g1
I193
Vclear
p756
tp757
I1
s(g1
I460
Vdisplayer
p758
tp759
I1
s(g1
I368
Vitems
p760
tp761
I1
s(g1
I477
Vd
p762
tp763
I1
s(g1
I315
VcreateItem
p764
tp765
I1
s(g1
I166
Vcontext
p766
tp767
I1
s(g1
I156
VdrawItem
p768
tp769
I1
s(g1
I959
VsendEmptyMessage
p770
tp771
I1
s(g1
I229
Vquit
p772
tp773
I1
s(g1
I173
VonDanmakuClick
p774
tp775
I1
s(g1
I580
Vdanmaku
p776
tp777
I1
s(g1
I1428
Vit
p778
tp779
I1
s(g1
I249
Vhandler
p780
tp781
I1
s(g1
I642
Vitems
p782
tp783
I1
s(g1
I723
Vmsec
p784
tp785
I1
s(g1
I222
VEnvironment
p786
tp787
I1
s(g1
I74
VNullPointerException
p788
tp789
I1
s(g1
I474
VmCurrentHeight
p790
tp791
I1
s(g1
I601
VmDrawingNotify
p792
tp793
I1
s(g1
I126
Ve
p794
tp795
I1
s(g1
I1536
VdeltaMs
p796
tp797
I1
s(g1
I699
VhasReferences
p798
tp799
I1
s(g1
I150
Vout
p800
tp801
I1
s(g1
I317
VfindViewById
p802
tp803
I2
s(g1
I132
Vtime
p804
tp805
I1
s(g1
I1052
Vpause
p806
tp807
I1
s(g1
I125
VT
p808
tp809
I1
s(g1
I201
Vdisplayer
p810
tp811
I1
s(g1
I11
VString
p812
tp813
I1
s(g1
I838
Vit
p814
tp815
I1
s(g1
I650
VCanvas
p816
tp817
I1
s(g1
I301
Vhandler
p818
tp819
I1
s(g1
I1137
Vitem
p820
tp821
I1
s(g1
I690
VdrawTask
p822
tp823
I1
s(g1
I92
VgetHeight
p824
tp825
I1
s(g1
I1648
VforceRender
p826
tp827
I1
s(g1
I789
VmLastEndMills
p828
tp829
I1
s(g1
I287
VCharSequence
p830
tp831
I2
s(g1
I396
VcreateParser
p832
tp833
I1
s(g1
I493
VOverride
p834
tp835
I1
s(g1
I672
VendItem
p836
tp837
I1
s(g1
I202
VfillNext
p838
tp839
I1
s(g1
I82
Vcanvas
p840
tp841
I1
s(g1
I42
Vvideo
p842
tp843
I1
s(g1
I28
VString
p844
tp845
I1
s(g1
I352
Vitem
p846
tp847
I1
s(g1
I133
VcurrTime
p848
tp849
I1
s(g1
I746
Vmills
p850
tp851
I1
s(g1
I395
Vcanvas
p852
tp853
I1
s(g1
I587
VmCallback
p854
tp855
I1
s(g1
I44
VnativeLibLoaded
p856
tp857
I1
s(g1
I1184
Vhandler
p858
tp859
I1
s(g1
I612
VGlobalFlagValues
p860
tp861
I1
s(g1
I159
Vitems
p862
tp863
I1
s(g1
I458
VInteger
p864
tp865
I1
s(g1
I539
Vwhat
p866
tp867
I1
s(g1
I1187
Vrun
p868
tp869
I1
s(g1
I1203
VuseDrawColorToClearCanvas
p870
tp871
I1
s(g1
I552
Vr
p872
tp873
I1
s(g1
I228
VmBtnResumeDanmaku
p874
tp875
I1
s(g1
I1233
VmCordonTime2
p876
tp877
I1
s(g1
I1006
VoldValue
p878
tp879
I1
s(g1
I1605
VSystem
p880
tp881
I1
s(g1
I272
Vhandler
p882
tp883
I1
s(g1
I493
Vitem
p884
tp885
I1
s(g1
I295
VendTime
p886
tp887
I1
s(g1
I198
Vupdate
p888
tp889
I1
s(g1
I827
Vnext
p890
tp891
I1
s(g1
I1444
Vdanmaku
p892
tp893
I1
s(g1
I235
VelapsedTime
p894
tp895
I1
s(g1
I910
VrecordRenderingTime
p896
tp897
I2
s(g1
I1041
VstartMS
p898
tp899
I1
s(g1
I893
VLooper
p900
tp901
I1
s(g1
I308
VisSurfaceCreated
p902
tp903
I1
s(g1
I328
VNativeBitmapFactory
p904
tp905
I1
s(g1
I216
VsizeInScreen
p906
tp907
I1
s(g1
I563
Vit
p908
tp909
I1
s(g1
I543
VOverride
p910
tp911
I1
s(g1
I397
VmParser
p912
tp913
I1
s(g1
I566
Vr
p914
tp915
I1
s(g1
I295
VisFiltered
p916
tp917
I1
s(g1
I217
Vsize
p918
tp919
I1
s(g1
I780
VshowDanmakus
p920
tp921
I1
s(g1
I344
VfindViewById
p922
tp923
I1
s(g1
I188
VcurrTime
p924
tp925
I1
s(g1
I1599
VsendToTarget
p926
tp927
I1
s(g1
I36
VPAINT
p928
tp929
I2
s(g1
I337
VstartTime
p930
tp931
I1
s(g1
I233
VmCacheManager
p932
tp933
I1
s(g1
I241
VStaticLayout
p934
tp935
I1
s(g1
I56
VmDisp
p936
tp937
I1
s(g1
I282
VSpannable
p938
tp939
I1
s(g1
I480
Vclear
p940
tp941
I1
s(g1
I299
VisLive
p942
tp943
I1
s(g1
I156
Vi
p944
tp945
I1
s(g1
I725
VSystem
p946
tp947
I1
s(g1
I550
VstartTime
p948
tp949
I1
s(g1
I163
VisOutside
p950
tp951
I1
s(g1
I84
VisMeasured
p952
tp953
I1
s(g1
I123
VmContext
p954
tp955
I2
s(g1
I579
VmSurfaceHolder
p956
tp957
I1
s(g1
I658
VdanmakuList
p958
tp959
I1
s(g1
I97
Vfix
p960
tp961
I1
s(g1
I705
VdrawTask
p962
tp963
I1
s(g1
I243
Vhandler
p964
tp965
I1
s(g1
I543
VstartTime
p966
tp967
I1
s(g1
I182
VisOutside
p968
tp969
I1
s(g1
I161
VelapsedTime
p970
tp971
I1
s(g1
I161
Vcanvas
p972
tp973
I1
s(g1
I10
Vcounter
p974
tp975
I1
s(g1
I720
Vtask
p976
tp977
I1
s(g1
I379
VmViewWidth
p978
tp979
I1
s(g1
I583
VMessage
p980
tp981
I1
s(g1
I1731
VisPrepared
p982
tp983
I1
s(g1
I763
VisEmpty
p984
tp985
I1
s(g1
I928
Vdanmaku
p986
tp987
I1
s(g1
I1250
Vrelease
p988
tp989
I1
s(g1
I1619
VdrawTask
p990
tp991
I1
s(g1
I376
VIDanmakuIterator
p992
tp993
I1
s(g1
I131
VDanmakuView
p994
tp995
I1
s(g1
I978
VremoveCallbacksAndMessages
p996
tp997
I1
s(g1
I332
Vrelease
p998
tp999
I1
s(g1
I320
VmMaxSize
p1000
tp1001
I1
s(g1
I537
VmBtnSendDanmaku
p1002
tp1003
I1
s(g1
I141
VgetPaint
p1004
tp1005
I1
s(g1
I850
Vclear
p1006
tp1007
I1
s(g1
I689
Vitem
p1008
tp1009
I1
s(g1
I179
VdanmakuView
p1010
tp1011
I1
s(g1
I1553
VmDisp
p1012
tp1013
I1
s(g1
I249
Vitem
p1014
tp1015
I1
s(g1
I391
Vit
p1016
tp1017
I1
s(g1
I1010
VmTimeBase
p1018
tp1019
I1
s(g1
I605
VYposDescComparator
p1020
tp1021
I1
s(g1
I341
Vbegin
p1022
tp1023
I1
s(g1
I141
VgetWidth
p1024
tp1025
I1
s(g1
I306
VString
p1026
tp1027
I1
s(g1
I653
VString
p1028
tp1029
I1
s(g1
I599
Vstart
p1030
tp1031
I1
s(g1
I1395
Vupdate
p1032
tp1033
I1
s(g1
I65
VOverride
p1034
tp1035
I2
s(g1
I512
VyIndex
p1036
tp1037
I1
s(g1
I246
Vhandler
p1038
tp1039
I1
s(g1
I507
VThread
p1040
tp1041
I1
s(g1
I56
VDrawingCacheHolder
p1042
tp1043
I1
s(g1
I1574
Vresume
p1044
tp1045
I1
s(g1
I57
VMotionEvent
p1046
tp1047
I1
s(g1
I460
Vbmp
p1048
tp1049
I1
s(g1
I190
VmDataSource
p1050
tp1051
I1
s(g1
I48
Vitr
p1052
tp1053
I1
s(g1
I214
VButton
p1054
tp1055
I1
s(g1
I591
VisEmpty
p1056
tp1057
I1
s(g1
I1049
VdrawTask
p1058
tp1059
I1
s(g1
I1459
VfirstCache
p1060
tp1061
I1
s(g1
I328
VOverride
p1062
tp1063
I1
s(g1
I388
VendPos
p1064
tp1065
I1
s(g1
I564
VmRenderingState
p1066
tp1067
I1
s(g1
I274
VSpannableStringBuilder
p1068
tp1069
I1
s(g1
I2462
Vdanmakus
p1070
tp1071
I1
s(g1
I153
VUri
p1072
tp1073
I1
s(g1
I1423
VsyncTimer
p1074
tp1075
I1
s(g1
I112
Verase
p1076
tp1077
I1
s(g1
I139
VOverride
p1078
tp1079
I1
s(g1
I927
Venable
p1080
tp1081
I1
s(g1
I99
VThread
p1082
tp1083
I1
s(g1
I802
VmTimerThread
p1084
tp1085
I1
s(g1
I250
VBuild
p1086
tp1087
I1
s(g1
I902
VmDisp
p1088
tp1089
I1
s(g1
I363
VdrawTask
p1090
tp1091
I1
s(g1
I24
Vcounter
p1092
tp1093
I1
s(g1
I568
Vsubset
p1094
tp1095
I1
s(g1
I46
VPAINT
p1096
tp1097
I1
s(g1
I363
VInterruptedException
p1098
tp1099
I2
s(g1
I1697
Vstart
p1100
tp1101
I1
s(g1
I204
VSAXException
p1102
tp1103
I1
s(g1
I347
Vgc
p1104
tp1105
I1
s(g1
I170
VdanmakuView
p1106
tp1107
I1
s(g1
I882
VDanmakuFilters
p1108
tp1109
I1
s(g1
I264
VmBtnShowDanmaku
p1110
tp1111
I1
s(g1
I248
VIDanmakuFilter
p1112
tp1113
I1
s(g1
I53
VBaseDanmaku
p1114
tp1115
I1
s(g1
I890
VgetAverageRenderingTime
p1116
tp1117
I1
s(g1
I1253
VLong
p1118
tp1119
I1
s(g1
I79
VPAINT_FPS
p1120
tp1121
I1
s(g1
I500
VInterruptedException
p1122
tp1123
I1
s(g1
I687
VdeltaMs
p1124
tp1125
I1
s(g1
I1004
VmFrameCallback
p1126
tp1127
I1
s(g1
I271
VfindViewById
p1128
tp1129
I1
s(g1
I1188
Vtimer
p1130
tp1131
I1
s(g1
I45
Vholder
p1132
tp1133
I1
s(g1
I955
Vupdate
p1134
tp1135
I1
s(g1
I1211
Vd
p1136
tp1137
I1
s(g1
I190
VmTimer
p1138
tp1139
I1
s(g1
I126
VAndroidDisplayer
p1140
tp1141
I1
s(g1
I874
VgetDefault
p1142
tp1143
I1
s(g1
I125
Vconfig
p1144
tp1145
I1
s(g1
I629
VaddLast
p1146
tp1147
I1
s(g1
I1003
Vd
p1148
tp1149
I1
s(g1
I180
VOverride
p1150
tp1151
I1
s(g1
I65
VisTimeOut
p1152
tp1153
I1
s(g1
I192
VDanmakus
p1154
tp1155
I1
s(g1
I162
VPAINT_FPS
p1156
tp1157
I1
s(g1
I765
VmDanmakuView
p1158
tp1159
I1
s(g1
I1234
VcurrentTimeMillis
p1160
tp1161
I1
s(g1
I48
Vw
p1162
tp1163
I1
s(g1
I1170
Vtype
p1164
tp1165
I1
s(g1
I639
VString
p1166
tp1167
I1
s(g1
I362
Vl2rDanmakuCount
p1168
tp1169
I1
s(g1
I376
VmSize
p1170
tp1171
I1
s(g1
I97
Vsize
p1172
tp1173
I1
s(g1
I316
VgetLooper
p1174
tp1175
I1
s(g1
I831
VmSurfaceHolder
p1176
tp1177
I1
s(g1
I258
Vreference
p1178
tp1179
I1
s(g1
I318
VquitDrawThread
p1180
tp1181
I1
s(g1
I1182
Vadd
p1182
tp1183
I1
s(g1
I902
VdrawTask
p1184
tp1185
I1
s(g1
I648
VmIsRelease
p1186
tp1187
I1
s(g1
I1081
Vready
p1188
tp1189
I1
s(g1
I210
Vitem
p1190
tp1191
I1
s(g1
I104
Vdismiss
p1192
tp1193
I1
s(g1
I311
VendItem
p1194
tp1195
I1
s(g1
I233
VmBtnHideDanmaku
p1196
tp1197
I1
s(g1
I133
Vtime
p1198
tp1199
I1
s(g1
I571
Vsubset
p1200
tp1201
I1
s(g1
I535
VoffsetMills
p1202
tp1203
I1
s(g1
I426
VnewTransparency
p1204
tp1205
I1
s(g1
I166
VOverride
p1206
tp1207
I1
s(g1
I661
VmDanmakuView
p1208
tp1209
I1
s(g1
I385
Vit
p1210
tp1211
I1
s(g1
I986
Vitems
p1212
tp1213
I1
s(g1
I362
VmDispWidth
p1214
tp1215
I1
s(g1
I92
Vcanvas
p1216
tp1217
I1
s(g1
I62
Vbaos
p1218
tp1219
I1
s(g1
I418
Viterator
p1220
tp1221
I1
s(g1
I106
Vduration
p1222
tp1223
I1
s(g1
I863
VonDanmakuConfigChanged
p1224
tp1225
I1
s(g1
I500
Vresume
p1226
tp1227
I1
s(g1
I310
VmBtnSendDanmaku
p1228
tp1229
I2
s(g1
I580
VstartMills
p1230
tp1231
I1
s(g1
I289
Vbitmap
p1232
tp1233
I1
s(g1
I692
Vquit
p1234
tp1235
I1
s(g1
I927
Vit
p1236
tp1237
I1
s(g1
I146
Vinit
p1238
tp1239
I1
s(g1
I941
VdrawDanmakus
p1240
tp1241
I1
s(g1
I690
Vcache
p1242
tp1243
I1
s(g1
I1431
VUPDATE
p1244
tp1245
I1
s(g1
I213
Vcontext
p1246
tp1247
I1
s(g1
I188
Vopen
p1248
tp1249
I1
s(g1
I87
VmVideoView
p1250
tp1251
I1
s(g1
I1330
VoldValue
p1252
tp1253
I1
s(g1
I268
VmWidth
p1254
tp1255
I1
s(g1
I1048
VisShown
p1256
tp1257
I1
s(g1
I492
Vhandler
p1258
tp1259
I1
s(g1
I227
Vmills
p1260
tp1261
I1
s(g1
I129
VsetWillNotCacheDrawing
p1262
tp1263
I1
s(g1
I116
VmInfinite
p1264
tp1265
I1
s(g1
I258
VupdateTimer
p1266
tp1267
I1
s(g1
I187
Vdisplayer
p1268
tp1269
I1
s(g1
I339
Vhandler
p1270
tp1271
I1
s(g1
I1624
VmXOff
p1272
tp1273
I1
s(g1
I1022
VBUILD_CACHES
p1274
tp1275
I1
s(g1
I217
VmMediaController
p1276
tp1277
I1
s(g1
I323
VisSurfaceCreated
p1278
tp1279
I1
s(g1
I705
VtaskListener
p1280
tp1281
I1
s(g1
I808
VmRenderingState
p1282
tp1283
I1
s(g1
I781
Vd
p1284
tp1285
I1
s(g1
I55
VBaseDanmakuParser
p1286
tp1287
I1
s(g1
I359
Vjoin
p1288
tp1289
I2
s(g1
I47
VdrawItems
p1290
tp1291
I1
s(g1
I344
VlockCanvas
p1292
tp1293
I1
s(g1
I440
Vparser
p1294
tp1295
I1
s(g1
I96
VisShown
p1296
tp1297
I1
s(g1
I1281
VconsumingTime
p1298
tp1299
I1
s(g1
I844
Vval
p1300
tp1301
I1
s(g1
I546
Vput
p1302
tp1303
I1
s(g1
I297
Vitems
p1304
tp1305
I1
s(g1
I983
VmTimeBase
p1306
tp1307
I1
s(g1
I24
VIDisplayer
p1308
tp1309
I1
s(g1
I1575
Venable
p1310
tp1311
I1
s(g1
I205
Vreset
p1312
tp1313
I1
s(g1
I754
VDanmakus
p1314
tp1315
I1
s(g1
I190
Vdisp
p1316
tp1317
I1
s(g1
I595
VSortedSet
p1318
tp1319
I1
s(g1
I1398
VmTaskListener
p1320
tp1321
I1
s(g1
I72
VJSONObjectSource
p1322
tp1323
I1
s(g1
I599
VRESUME
p1324
tp1325
I1
s(g1
I124
Vsource
p1326
tp1327
I1
s(g1
I51
VOverride
p1328
tp1329
I1
s(g1
I891
Vmax
p1330
tp1331
I1
s(g1
I746
Vstart
p1332
tp1333
I1
s(g1
I577
VisSurfaceCreated
p1334
tp1335
I1
s(g1
I384
VBaseDanmaku
p1336
tp1337
I1
s(g1
I172
VsizeInScreen
p1338
tp1339
I1
s(g1
I135
Vbitmap
p1340
tp1341
I1
s(g1
I39
VisARMSimulatedByX86
p1342
tp1343
I1
s(g1
I502
VpausedPostion
p1344
tp1345
I1
s(g1
I535
VpausedPostion
p1346
tp1347
I1
s(g1
I144
Vtime
p1348
tp1349
I1
s(g1
I1084
VisTimeOut
p1350
tp1351
I1
s(g1
I231
VelapsedTime
p1352
tp1353
I1
s(g1
I249
VrequestBuild
p1354
tp1355
I1
s(g1
I600
VupdateFlag
p1356
tp1357
I2
s(g1
I136
VftdrInstance
p1358
tp1359
I1
s(g1
I409
VDrawHelper
p1360
tp1361
I1
s(g1
I42
VCpuInfo
p1362
tp1363
I1
s(g1
I61
VObject
p1364
tp1365
I1
s(g1
I232
VaddDanmaku
p1366
tp1367
I1
s(g1
I579
VapplyPaintConfig
p1368
tp1369
I1
s(g1
I382
Vhandler
p1370
tp1371
I1
s(g1
I879
Vrunnable
p1372
tp1373
I1
s(g1
I121
VclickDanmaku
p1374
tp1375
I1
s(g1
I339
VmCacheManager
p1376
tp1377
I1
s(g1
I207
Vcanvas
p1378
tp1379
I1
s(g1
I308
VException
p1380
tp1381
I1
s(g1
I83
Vprivate
p1382
tp1383
I40
s(g1
I270
Vclear
p1384
tp1385
I1
s(g1
I1399
VmSeekedFlag
p1386
tp1387
I1
s(g1
I49
VDanmakusRetainer
p1388
tp1389
I1
s(g1
I184
VonDanmakuClickListener
p1390
tp1391
I1
s(g1
I293
VlockCanvas
p1392
tp1393
I1
s(g1
I1062
VmTaskListener
p1394
tp1395
I1
s(g1
I537
Vv
p1396
tp1397
I1
s(g1
I17
VOverride
p1398
tp1399
I1
s(g1
I166
VgetResources
p1400
tp1401
I1
s(g1
I722
Vnext
p1402
tp1403
I1
s(g1
I334
Vdanmaku
p1404
tp1405
I1
s(g1
I687
VmTimeBase
p1406
tp1407
I1
s(g1
I285
VmScale
p1408
tp1409
I1
s(g1
I1053
VmDuplicateMergingEnable
p1410
tp1411
I1
s(g1
I906
Vd
p1412
tp1413
I1
s(g1
I1190
Vready
p1414
tp1415
I1
s(g1
I342
Vquit
p1416
tp1417
I1
s(g1
I755
VSTART
p1418
tp1419
I1
s(g1
I24
VPAINT
p1420
tp1421
I2
s(g1
I1022
Vevent
p1422
tp1423
I1
s(g1
I383
Vsb
p1424
tp1425
I1
s(g1
I362
Vdanmaku
p1426
tp1427
I1
s(g1
I1063
VUPDATE
p1428
tp1429
I2
s(g1
I51
g310
tp1430
I24
s(g1
I1616
Vtime
p1431
tp1432
I1
s(g1
I240
Vhandler
p1433
tp1434
I1
s(g1
I78
VisTimeOut
p1435
tp1436
I1
s(g1
I677
Vhandler
p1437
tp1438
I1
s(g1
I610
VmTimeBase
p1439
tp1440
I1
s(g1
I1526
VLong
p1441
tp1442
I1
s(g1
I526
VmDanmakuView
p1443
tp1444
I1
s(g1
I455
Vt1
p1445
tp1446
I1
s(g1
I284
VquitDrawThread
p1447
tp1448
I1
s(g1
I394
Vsize
p1449
tp1450
I1
s(g1
I308
VmParser
p1451
tp1452
I1
s(g1
I1294
VstartTime
p1453
tp1454
I1
s(g1
I624
VobtainMessage
p1455
tp1456
I2
s(g1
I61
VDrawingCache
p1457
tp1458
I1
s(g1
I262
Vclear
p1459
tp1460
I1
s(g1
I128
Vh
p1461
tp1462
I1
s(g1
I462
Vend
p1463
tp1464
I1
s(g1
I173
VloadLibs
p1465
tp1466
I1
s(g1
I1106
Vitem
p1467
tp1468
I1
s(g1
I60
Vpaint
p1469
tp1470
I1
s(g1
I308
Vtimer
p1471
tp1472
I1
s(g1
I524
VmDanmakuView
p1473
tp1474
I1
s(g1
I1067
Vtime
p1475
tp1476
I1
s(g1
I748
Vreset
p1477
tp1478
I1
s(g1
I78
Vlayout
p1479
tp1480
I1
s(g1
I1748
VBaseDanmaku
p1481
tp1482
I1
s(g1
I700
VRunnable
p1483
tp1484
I1
s(g1
I1006
Vnext
p1485
tp1486
I1
s(g1
I162
Vi
p1487
tp1488
I1
s(g1
I1538
VsendToTarget
p1489
tp1490
I1
s(g1
I463
Vt2
p1491
tp1492
I1
s(g1
I989
VSystem
p1493
tp1494
I1
s(g1
I1081
VstrictMode
p1495
tp1496
I1
s(g1
I286
VisSurfaceCreated
p1497
tp1498
I1
s(g1
I2018
VdrawTask
p1499
tp1500
I1
s(g1
I878
Vlast
p1501
tp1502
I1
s(g1
I233
Vdanmaku
p1503
tp1504
I1
s(g1
I131
VmDanmakusRetainer
p1505
tp1506
I1
s(g1
I597
VBaseDanmaku
p1507
tp1508
I1
s(g1
I1441
VdrawTask
p1509
tp1510
I1
s(g1
I221
VOverride
p1511
tp1512
I1
s(g1
I509
VdrawTask
p1513
tp1514
I1
s(g1
I215
Vreset
p1515
tp1516
I1
s(g1
I764
Vmills
p1517
tp1518
I1
s(g1
I301
VstartTime
p1519
tp1520
I1
s(g1
I240
VOverride
p1521
tp1522
I2
s(g1
I571
VmHandler
p1523
tp1524
I1
s(g1
I381
VdanmakuList
p1525
tp1526
I1
s(g1
I458
VBitmap
p1527
tp1528
I1
s(g1
I799
VupdateFlag
p1529
tp1530
I1
s(g1
I465
Vprepared
p1531
tp1532
I1
s(g1
I663
VmShowFps
p1533
tp1534
I1
s(g1
I178
Vitem
p1535
tp1536
I1
s(g1
I1528
VAndroidDisplayer
p1537
tp1538
I1
s(g1
I210
Vdisplayer
p1539
tp1540
I1
s(g1
I321
VaddItem
p1541
tp1542
I1
s(g1
I139
Vclear
p1543
tp1544
I1
s(g1
I1829
Vremeasure
p1545
tp1546
I1
s(g1
I1238
Vpush
p1547
tp1548
I1
s(g1
I90
VskipLayout
p1549
tp1550
I1
s(g1
I72
VenableDanmakuDrawingCache
p1551
tp1552
I1
s(g1
I1573
VNOTIFY_RENDERING
p1553
tp1554
I1
s(g1
I1015
Vupdate
p1555
tp1556
I1
s(g1
I1752
VmReadyState
p1557
tp1558
I1
s(g1
I91
VJSONObjectSource
p1559
tp1560
I1
s(g1
I878
Vhandler
p1561
tp1562
I1
s(g1
I875
Vresult
p1563
tp1564
I1
s(g1
I845
VST_BY_LIST
p1565
tp1566
I1
s(g1
I39
Vbyte
p1567
tp1568
I2
s(g1
I172
VsetAntiAlias
p1569
tp1570
I1
s(g1
I87
Vy
p1571
tp1572
I1
s(g1
I302
VVH
p1573
tp1574
I1
s(g1
I169
VdisplayMetrics
p1575
tp1576
I1
s(g1
I156
Vout
p1577
tp1578
I1
s(g1
I515
Vcompare
p1579
tp1580
I1
s(g1
I106
Vi
p1581
tp1582
I1
s(g1
I72
VPaint
p1583
tp1584
I1
s(g1
I66
VstartTime
p1585
tp1586
I1
s(g1
I239
VMediaPlayer
p1587
tp1588
I1
s(g1
I29
Vbegin
p1589
tp1590
I1
s(g1
I1025
VmTouchHelper
p1591
tp1592
I1
s(g1
I1590
Vequals
p1593
tp1594
I1
s(g1
I294
VgetDataSource
p1595
tp1596
I1
s(g1
I328
VmHandler
p1597
tp1598
I1
s(g1
I585
Vdanmakus
p1599
tp1600
I1
s(g1
I234
VOverride
p1601
tp1602
I1
s(g1
I536
Vd
p1603
tp1604
I1
s(g1
I344
VendTime
p1605
tp1606
I1
s(g1
I829
Vtimer
p1607
tp1608
I1
s(g1
I197
VdataSource
p1609
tp1610
I1
s(g1
I216
VorderInScreen
p1611
tp1612
I1
s(g1
I102
VsetDisplayer
p1613
tp1614
I1
s(g1
I1015
Vtime
p1615
tp1616
I1
s(g1
I1238
Vitem
p1617
tp1618
I1
s(g1
I2476
Vitr
p1619
tp1620
I1
s(g1
I540
VoffsetMills
p1621
tp1622
I1
s(g1
I944
VnotifyRendering
p1623
tp1624
I1
s(g1
I289
VCanvas
p1625
tp1626
I1
s(g1
I300
VstartItem
p1627
tp1628
I1
s(g1
I388
VOverride
p1629
tp1630
I1
s(g1
I127
Velement
p1631
tp1632
I1
s(g1
I219
Vdraw
p1633
tp1634
I1
s(g1
I156
VgetDanmakus
p1635
tp1636
I1
s(g1
I36
Vcreate
p1637
tp1638
I2
s(g1
I213
VDanmakuLoaderFactory
p1639
tp1640
I1
s(g1
I897
VgetLooper
p1641
tp1642
I1
s(g1
I776
VcurrMillis
p1643
tp1644
I1
s(g1
I1036
VmReady
p1645
tp1646
I1
s(g1
I139
VdispW
p1647
tp1648
I2
s(g1
I181
VdrawItem
p1649
tp1650
I1
s(g1
I900
VupdateTimer
p1651
tp1652
I1
s(g1
I1237
Vtimer
p1653
tp1654
I1
s(g1
I1250
VLong
p1655
tp1656
I1
s(g1
I352
Vsize
p1657
tp1658
I1
s(g1
I206
VmSize
p1659
tp1660
I1
s(g1
I227
VaddItem
p1661
tp1662
I1
s(g1
I652
Vwait
p1663
tp1664
I1
s(g1
I119
Vtimer
p1665
tp1666
I2
s(g1
I480
VmRenderer
p1667
tp1668
I1
s(g1
I1443
Vnext
p1669
tp1670
I1
s(g1
I501
VsetBitmap
p1671
tp1672
I1
s(g1
I1371
VLog
p1673
tp1674
I1
s(g1
I734
VSortedSet
p1675
tp1676
I1
s(g1
I404
Vitems
p1677
tp1678
I1
s(g1
I776
VshowDanmakus
p1679
tp1680
I1
s(g1
I504
VGlobalFlagValues
p1681
tp1682
I1
s(g1
I49
Vtext
p1683
tp1684
I1
s(g1
I488
Vview
p1685
tp1686
I1
s(g1
I1330
Vitem
p1687
tp1688
I1
s(g1
I639
VmLastBeginMills
p1689
tp1690
I1
s(g1
I244
VpaintWidth
p1691
tp1692
I1
s(g1
I255
VBaseDanmaku
p1693
tp1694
I1
s(g1
I619
VquitDrawTask
p1695
tp1696
I1
s(g1
I1468
VBoolean
p1697
tp1698
I1
s(g1
I1203
VmDisp
p1699
tp1700
I1
s(g1
I70
VCanvas
p1701
tp1702
I1
s(g1
I71
VdrawItem
p1703
tp1704
I1
s(g1
I586
VmCaches
p1705
tp1706
I1
s(g1
I195
VcurrentTimeMillis
p1707
tp1708
I1
s(g1
I61
VdrawText
p1709
tp1710
I1
s(g1
I813
Vtag
p1711
tp1712
I1
s(g1
I141
VsetDensity
p1713
tp1714
I1
s(g1
I25
g310
tp1715
I456
s(g1
I1223
VconsumingTime
p1716
tp1717
I1
s(g1
I98
VXMLReader
p1718
tp1719
I1
s(g1
I565
VcreateDanmaku
p1720
tp1721
I1
s(g1
I79
VsetColor
p1722
tp1723
I1
s(g1
I657
Vcanvas
p1724
tp1725
I1
s(g1
I695
VhasReferences
p1726
tp1727
I1
s(g1
I385
VhasNext
p1728
tp1729
I1
s(g1
I385
Vquit
p1730
tp1731
I1
s(g1
I273
VmBtnPauseDanmaku
p1732
tp1733
I1
s(g1
I573
VhasStroke
p1734
tp1735
I1
s(g1
I638
Vdtime
p1736
tp1737
I1
s(g1
I255
VendX
p1738
tp1739
I1
s(g1
I1980
VevictAllNotInScreen
p1740
tp1741
I1
s(g1
I66
VL2R_DANMAKU_VISIBILITY
p1742
tp1743
I1
s(g1
I54
VIDisplayer
p1744
tp1745
I1
s(g1
I871
Vlast
p1746
tp1747
I1
s(g1
I206
VString
p1748
tp1749
I1
s(g1
I484
VOverride
p1750
tp1751
I1
s(g1
I1535
VgetPoolPercent
p1752
tp1753
I1
s(g1
I1600
VslopPixel
p1754
tp1755
I1
s(g1
I848
VmCallback
p1756
tp1757
I1
s(g1
I150
VRECT
p1758
tp1759
I1
s(g1
I1824
VBaseDanmaku
p1760
tp1761
I1
s(g1
I216
VdrawItem
p1762
tp1763
I1
s(g1
I122
VContext
p1764
tp1765
I1
s(g1
I1447
VIDrawingCache
p1766
tp1767
I1
s(g1
I66
Vrelease
p1768
tp1769
I1
s(g1
I239
VSoftReference
p1770
tp1771
I1
s(g1
I534
Vstart
p1772
tp1773
I1
s(g1
I52
VString
p1774
tp1775
I1
s(g1
I894
VUPDATE
p1776
tp1777
I1
s(g1
I381
Vit
p1778
tp1779
I1
s(g1
I509
Vmills
p1780
tp1781
I1
s(g1
I392
Vdanmaku
p1782
tp1783
I1
s(g1
I503
VSystemClock
p1784
tp1785
I1
s(g1
I1111
VgetAverageRenderingTime
p1786
tp1787
I1
s(g1
I346
VmHandler
p1788
tp1789
I1
s(g1
I203
Vx
p1790
tp1791
I1
s(g1
I399
VsubDanmakus
p1792
tp1793
I1
s(g1
I78
Vdisplayer
p1794
tp1795
I1
s(g1
I450
VOverride
p1796
tp1797
I1
s(g1
I235
VisFilteredBy
p1798
tp1799
I1
s(g1
I826
VloadDanmakus
p1800
tp1801
I1
s(g1
I931
VgetDefault
p1802
tp1803
I1
s(g1
I675
VbufferBitmap
p1804
tp1805
I1
s(g1
I223
VcurrMills
p1806
tp1807
I1
s(g1
I186
VBaseDanmaku
p1808
tp1809
I2
s(g1
I877
VregisterFilter
p1810
tp1811
I1
s(g1
I332
VBaseDanmaku
p1812
tp1813
I1
s(g1
I1028
VwaitTime
p1814
tp1815
I1
s(g1
I576
Vrelease
p1816
tp1817
I1
s(g1
I552
VBaseDanmaku
p1818
tp1819
I1
s(g1
I829
Vit
p1820
tp1821
I1
s(g1
I814
Vlength
p1822
tp1823
I1
s(g1
I312
VRESUME
p1824
tp1825
I1
s(g1
I126
VxmlReader
p1826
tp1827
I1
s(g1
I55
Vheight
p1828
tp1829
I1
s(g1
I559
Vtimer
p1830
tp1831
I1
s(g1
I142
VMath
p1832
tp1833
I1
s(g1
I129
VgetTimer
p1834
tp1835
I2
s(g1
I1216
VstartTime
p1836
tp1837
I1
s(g1
I154
VnativeBitmapField
p1838
tp1839
I1
s(g1
I178
Vstream
p1840
tp1841
I1
s(g1
I1546
VdisplayMetrics
p1842
tp1843
I1
s(g1
I553
VUPDATE
p1844
tp1845
I2
s(g1
I97
VJSONObjectSource
p1846
tp1847
I1
s(g1
I58
VdrawItems
p1848
tp1849
I1
s(g1
I350
Vdisp
p1850
tp1851
I1
s(g1
I1033
Vtag
p1852
tp1853
I1
s(g1
I651
VdanmakuList
p1854
tp1855
I1
s(g1
I185
VgetAssets
p1856
tp1857
I1
s(g1
I1575
VsendToTarget
p1858
tp1859
I1
s(g1
I1098
VLong
p1860
tp1861
I1
s(g1
I944
VdrawTask
p1862
tp1863
I1
s(g1
I734
Vready
p1864
tp1865
I1
s(g1
I690
VLooper
p1866
tp1867
I1
s(g1
I1027
VdrawTask
p1868
tp1869
I1
s(g1
I273
Vparser
p1870
tp1871
I1
s(g1
I274
VinvalidateDanmaku
p1872
tp1873
I1
s(g1
I178
VtempStr
p1874
tp1875
I1
s(g1
I573
Vdanmaku
p1876
tp1877
I1
s(g1
I106
VmCache
p1878
tp1879
I1
s(g1
I287
VstopDraw
p1880
tp1881
I1
s(g1
I95
VlrdrInstance
p1882
tp1883
I1
s(g1
I1260
VseekMills
p1884
tp1885
I1
s(g1
I545
Vrelease
p1886
tp1887
I1
s(g1
I1100
VMath
p1888
tp1889
I1
s(g1
I217
VdanmakuList
p1890
tp1891
I1
s(g1
I31
VnativeLibLoaded
p1892
tp1893
I1
s(g1
I920
VdrawTask
p1894
tp1895
I1
s(g1
I26
Vdisp
p1896
tp1897
I1
s(g1
I1285
VisHardwareAccelerated
p1898
tp1899
I1
s(g1
I297
VstartTime
p1900
tp1901
I1
s(g1
I1125
VgetLast
p1902
tp1903
I1
s(g1
I802
Vconfig
p1904
tp1905
I1
s(g1
I480
VquitFlag
p1906
tp1907
I1
s(g1
I34
VOverride
p1908
tp1909
I1
s(g1
I1615
VuseDrwaingCache
p1910
tp1911
I1
s(g1
I558
VDanmakuContext
p1912
tp1913
I1
s(g1
I1089
VSEEK_POS
p1914
tp1915
I1
s(g1
I1081
VaverageTime
p1916
tp1917
I1
s(g1
I105
Ve
p1918
tp1919
I1
s(g1
I179
Vitems
p1920
tp1921
I1
s(g1
I1639
VACTION_BREAK
p1922
tp1923
I1
s(g1
I76
VDrawHelper
p1924
tp1925
I2
s(g1
I931
Vseek
p1926
tp1927
I1
s(g1
I1075
VmTaskListener
p1928
tp1929
I1
s(g1
I289
VsubItems
p1930
tp1931
I1
s(g1
I1105
Vadd
p1932
tp1933
I1
s(g1
I142
Vparse
p1934
tp1935
I1
s(g1
I693
VhasReferences
p1936
tp1937
I1
s(g1
I1024
Vd
p1938
tp1939
I1
s(g1
I911
VBaseDanmaku
p1940
tp1941
I1
s(g1
I2462
Viterator
p1942
tp1943
I1
s(g1
I1615
VmTimeBase
p1944
tp1945
I1
s(g1
I423
Vit
p1946
tp1947
I1
s(g1
I1095
VLong
p1948
tp1949
I1
s(g1
I340
Vhandler
p1950
tp1951
I2
s(g1
I864
VdanmakuList
p1952
tp1953
I1
s(g1
I680
VLong
p1954
tp1955
I1
s(g1
I322
VstartTime
p1956
tp1957
I1
s(g1
I47
Vvideo
p1958
tp1959
I1
s(g1
I281
VcurrX
p1960
tp1961
I1
s(g1
I1679
Vdraw
p1962
tp1963
I1
s(g1
I549
Vhandler
p1964
tp1965
I1
s(g1
I53
VhasNext
p1966
tp1967
I2
s(g1
I342
VsubItems
p1968
tp1969
I1
s(g1
I121
VmMediaController
p1970
tp1971
I1
s(g1
I1075
Vdanmaku
p1972
tp1973
I1
s(g1
I217
VmVideoView
p1974
tp1975
I1
s(g1
I1099
VBaseDanmaku
p1976
tp1977
I1
s(g1
I844
VmRenderer
p1978
tp1979
I1
s(g1
I804
VupdateMeasureFlag
p1980
tp1981
I1
s(g1
I230
VdanmakuList
p1982
tp1983
I1
s(g1
I468
VOverride
p1984
tp1985
I1
s(g1
I121
VDrawingCacheHolder
p1986
tp1987
I1
s(g1
I387
VBaseDanmaku
p1988
tp1989
I1
s(g1
I308
VlocalName
p1990
tp1991
I1
s(g1
I501
Vseek
p1992
tp1993
I1
s(g1
I82
VdrawDanmakus
p1994
tp1995
I1
s(g1
I908
VquitFlag
p1996
tp1997
I1
s(g1
I266
Vcx
p1998
tp1999
I1
s(g1
I371
VendTime
p2000
tp2001
I1
s(g1
I186
VmVideoView
p2002
tp2003
I1
s(g1
I46
Vfile
p2004
tp2005
I1
s(g1
I567
Vit
p2006
tp2007
I1
s(g1
I1223
VaverageTime
p2008
tp2009
I1
s(g1
I287
VPools
p2010
tp2011
I1
s(g1
I252
VtranslationDuration
p2012
tp2013
I1
s(g1
I1586
Vequals
p2014
tp2015
I1
s(g1
I1626
VMath
p2016
tp2017
I1
s(g1
I70
VmLock
p2018
tp2019
I1
s(g1
I294
VmDrawThread
p2020
tp2021
I1
s(g1
I97
Vdisp
p2022
tp2023
I1
s(g1
I166
VpaintWidth
p2024
tp2025
I1
s(g1
I685
Vhandler
p2026
tp2027
I1
s(g1
I255
Vfield
p2028
tp2029
I1
s(g1
I75
Vitr
p2030
tp2031
I1
s(g1
I609
VSHOW_DANMAKUS
p2032
tp2033
I1
s(g1
I211
VDanmakuRenderer
p2034
tp2035
I1
s(g1
I2075
VmInWaitingState
p2036
tp2037
I1
s(g1
I545
Vd
p2038
tp2039
I2
s(g1
I308
Vload
p2040
tp2041
I1
s(g1
I1733
VBaseDanmaku
p2042
tp2043
I1
s(g1
I487
VstartTime
p2044
tp2045
I1
s(g1
I286
Vhandler
p2046
tp2047
I1
s(g1
I1597
VNOTIFY_RENDERING
p2048
tp2049
I1
s(g1
I840
VisEmpty
p2050
tp2051
I1
s(g1
I62
VfindViewById
p2052
tp2053
I1
s(g1
I803
VsubDanmakus
p2054
tp2055
I1
s(g1
I39
Vint
p2056
tp2057
I79
s(g1
I531
VregisterConfigChangedCallback
p2058
tp2059
I1
s(g1
I71
VisMeasured
p2060
tp2061
I1
s(g1
I756
VupdateFirstShownFlag
p2062
tp2063
I1
s(g1
I22
Vcontext
p2064
tp2065
I1
s(g1
I847
Vclear
p2066
tp2067
I1
s(g1
I57
VByteArrayOutputStream
p2068
tp2069
I1
s(g1
I983
VdeltaMs
p2070
tp2071
I1
s(g1
I104
VmPopupWindow
p2072
tp2073
I1
s(g1
I922
Vframes
p2074
tp2075
I1
s(g1
I244
VaddDanmaku
p2076
tp2077
I1
s(g1
I32
VonCreate
p2078
tp2079
I1
s(g1
I529
Vv
p2080
tp2081
I1
s(g1
I325
VviewType
p2082
tp2083
I1
s(g1
I69
VCanvas
p2084
tp2085
I1
s(g1
I28
VBundle
p2086
tp2087
I1
s(g1
I1082
VupdateTimer
p2088
tp2089
I2
s(g1
I652
VLinkedList
p2090
tp2091
I1
s(g1
I374
VBaseDanmaku
p2092
tp2093
I1
s(g1
I45
VDanmakus
p2094
tp2095
I1
s(g1
I1626
Vceil
p2096
tp2097
I1
s(g1
I126
VDrawingCacheHolder
p2098
tp2099
I1
s(g1
I1237
VCLEAR_CACHES
p2100
tp2101
I1
s(g1
I498
VquitFlag
p2102
tp2103
I1
s(g1
I1653
VforEach
p2104
tp2105
I1
s(g1
I973
VmLockObject
p2106
tp2107
I1
s(g1
I933
VmDanmakuView
p2108
tp2109
I1
s(g1
I694
VSet
p2110
tp2111
I1
s(g1
I373
VString
p2112
tp2113
I1
s(g1
I1001
Vview
p2114
tp2115
I1
s(g1
I1427
Viterator
p2116
tp2117
I1
s(g1
I242
VmDanmakuView
p2118
tp2119
I1
s(g1
I150
VView
p2120
tp2121
I1
s(g1
I222
VstartRenderTime
p2122
tp2123
I1
s(g1
I830
VonLayout
p2124
tp2125
I1
s(g1
I699
VremoveAllReferences
p2126
tp2127
I1
s(g1
I353
VborderWidth
p2128
tp2129
I1
s(g1
I279
VHandlerThread
p2130
tp2131
I1
s(g1
I624
VmHandler
p2132
tp2133
I2
s(g1
I816
VOverride
p2134
tp2135
I1
s(g1
I539
VsendEmptyMessage
p2136
tp2137
I2
s(g1
I1019
VrequestClearRetainer
p2138
tp2139
I2
s(g1
I483
Vpause
p2140
tp2141
I1
s(g1
I1325
VoldValue
p2142
tp2143
I1
s(g1
I324
VmDrawThread
p2144
tp2145
I1
s(g1
I193
VcurrTime
p2146
tp2147
I1
s(g1
I2033
VdrawTask
p2148
tp2149
I1
s(g1
I156
Vtime
p2150
tp2151
I1
s(g1
I849
VresetAll
p2152
tp2153
I1
s(g1
I184
VDanmakuUtils
p2154
tp2155
I1
s(g1
I141
Vdanmaku
p2156
tp2157
I1
s(g1
I34
VmDispDensity
p2158
tp2159
I1
s(g1
I169
VtextHeight
p2160
tp2161
I1
s(g1
I1256
VseekMills
p2162
tp2163
I1
s(g1
I225
VlocalName
p2164
tp2165
I1
s(g1
I463
VfromWorkerThread
p2166
tp2167
I1
s(g1
I187
Vreset
p2168
tp2169
I1
s(g1
I2085
VdanmakuSync
p2170
tp2171
I1
s(g1
I1733
VquitDrawTask
p2172
tp2173
I1
s(g1
I173
Vnewest
p2174
tp2175
I1
s(g1
I951
VdrawTask
p2176
tp2177
I1
s(g1
I327
VstartTime
p2178
tp2179
I1
s(g1
I483
Vreset
p2180
tp2181
I1
s(g1
I292
Vdtime
p2182
tp2183
I1
s(g1
I340
VstartSubItem
p2184
tp2185
I1
s(g1
I316
Vattributes
p2186
tp2187
I1
s(g1
I1837
VdrawTask
p2188
tp2189
I1
s(g1
I233
VdefStyle
p2190
tp2191
I1
s(g1
I830
Vchanged
p2192
tp2193
I1
s(g1
I55
Vclear
p2194
tp2195
I1
s(g1
I902
VsetExtraData
p2196
tp2197
I1
s(g1
I229
VMAX_CACHE_SCREEN_SIZE
p2198
tp2199
I2
s(g1
I651
VendMills
p2200
tp2201
I1
s(g1
I1593
VclearCachePool
p2202
tp2203
I1
s(g1
I135
Vcanvas
p2204
tp2205
I1
s(g1
I1415
VmRenderingState
p2206
tp2207
I1
s(g1
I659
VsubDanmakus
p2208
tp2209
I1
s(g1
I747
VseekBy
p2210
tp2211
I1
s(g1
I1561
Venable
p2212
tp2213
I1
s(g1
I787
VSystemClock
p2214
tp2215
I1
s(g1
I1020
Vcache
p2216
tp2217
I1
s(g1
I86
VPAINT
p2218
tp2219
I1
s(g1
I92
VmScrapList
p2220
tp2221
I1
s(g1
I1012
VIDanmakuIterator
p2222
tp2223
I1
s(g1
I1015
VOverride
p2224
tp2225
I1
s(g1
I70
VdeltaDuration
p2226
tp2227
I1
s(g1
I908
VnotifyRendering
p2228
tp2229
I1
s(g1
I174
VmScrapList
p2230
tp2231
I1
s(g1
I333
Vlooper
p2232
tp2233
I1
s(g1
I1597
VgetLooper
p2234
tp2235
I1
s(g1
I923
Vd
p2236
tp2237
I1
s(g1
I261
Vremeasure
p2238
tp2239
I1
s(g1
I549
VisPrepared
p2240
tp2241
I1
s(g1
I233
VcurrMills
p2242
tp2243
I1
s(g1
I449
Vhandler
p2244
tp2245
I2
s(g1
I305
Vi3
p2246
tp2247
I1
s(g1
I1483
VmRenderer
p2248
tp2249
I1
s(g1
I283
VsizeInScreen
p2250
tp2251
I1
s(g1
I160
VoldItems
p2252
tp2253
I1
s(g1
I665
Vstart
p2254
tp2255
I1
s(g1
I1114
Vupdate
p2256
tp2257
I1
s(g1
I881
VisPrepared
p2258
tp2259
I1
s(g1
I112
VTextPaint
p2260
tp2261
I1
s(g1
I202
VDanmakusRetainer
p2262
tp2263
I1
s(g1
I337
VmHandler
p2264
tp2265
I1
s(g1
I1496
Vitem
p2266
tp2267
I1
s(g1
I825
VBaseDanmaku
p2268
tp2269
I1
s(g1
I274
Vitems
p2270
tp2271
I1
s(g1
I518
VUPDATE
p2272
tp2273
I1
s(g1
I599
VmDanmakuView
p2274
tp2275
I1
s(g1
I820
Vseek
p2276
tp2277
I1
s(g1
I1739
Vpair
p2278
tp2279
I1
s(g1
I231
VmTaskListener
p2280
tp2281
I1
s(g1
I106
Vc
p2282
tp2283
I1
s(g1
I467
Vdisplayer
p2284
tp2285
I1
s(g1
I470
Vsub
p2286
tp2287
I1
s(g1
I24
VmTimer
p2288
tp2289
I1
s(g1
I970
Vpushed
p2290
tp2291
I1
s(g1
I592
VSystem
p2292
tp2293
I1
s(g1
I84
VloadLibrary
p2294
tp2295
I1
s(g1
I117
VmUiThreadId
p2296
tp2297
I1
s(g1
I559
VquitFlag
p2298
tp2299
I1
s(g1
I1111
VaddDanmaku
p2300
tp2301
I1
s(g1
I76
Vtext
p2302
tp2303
I1
s(g1
I256
VdrawTask
p2304
tp2305
I1
s(g1
I387
VdanmakuList
p2306
tp2307
I1
s(g1
I1179
VgapTime
p2308
tp2309
I1
s(g1
I37
VBiliDanmakuLoader
p2310
tp2311
I1
s(g1
I59
Vpool
p2312
tp2313
I1
s(g1
I1696
Vcurr
p2314
tp2315
I1
s(g1
I33
VsavedInstanceState
p2316
tp2317
I1
s(g1
I1170
VMath
p2318
tp2319
I1
s(g1
I975
VquitUpdateThread
p2320
tp2321
I1
s(g1
I245
VmDuplicateMergingEnable
p2322
tp2323
I1
s(g1
I371
VIDanmakus
p2324
tp2325
I1
s(g1
I359
Vitem
p2326
tp2327
I1
s(g1
I434
Vparser
p2328
tp2329
I1
s(g1
I92
VmPlayerTimer
p2330
tp2331
I1
s(g1
I243
Vready
p2332
tp2333
I1
s(g1
I1274
VcurrentTimeMillis
p2334
tp2335
I1
s(g1
I1779
VBaseDanmaku
p2336
tp2337
I1
s(g1
I1439
Vdanmaku
p2338
tp2339
I1
s(g1
I912
VUPDATE
p2340
tp2341
I1
s(g1
I1630
VdrawTask
p2342
tp2343
I1
s(g1
I466
Vbmp
p2344
tp2345
I1
s(g1
I795
VupdateFlag
p2346
tp2347
I1
s(g1
I19
VOverride
p2348
tp2349
I1
s(g1
I384
VmViewWidth
p2350
tp2351
I1
s(g1
I49
Viterator
p2352
tp2353
I2
s(g1
I23
Vdelta
p2354
tp2355
I2
s(g1
I126
VcreateBitmap
p2356
tp2357
I1
s(g1
I764
VmDisp
p2358
tp2359
I1
s(g1
I1523
VrequestClear
p2360
tp2361
I1
s(g1
I167
VOverride
p2362
tp2363
I1
s(g1
I900
Vtimer
p2364
tp2365
I1
s(g1
I158
VperformClick
p2366
tp2367
I1
s(g1
I243
Vdisp
p2368
tp2369
I1
s(g1
I943
VmThread
p2370
tp2371
I1
s(g1
I646
Vstart
p2372
tp2373
I1
s(g1
I227
VmPopupWindow
p2374
tp2375
I1
s(g1
I312
VsurfaceCreated
p2376
tp2377
I1
s(g1
I324
VdanmakuList
p2378
tp2379
I1
s(g1
I1759
VBIND_CACHE
p2380
tp2381
I1
s(g1
I943
Vquit
p2382
tp2383
I1
s(g1
I59
VDanmakuSurfaceView
p2384
tp2385
I1
s(g1
I1731
VPair
p2386
tp2387
I1
s(g1
I99
VsetVisibility
p2388
tp2389
I1
s(g1
I1436
VmaximumTimes
p2390
tp2391
I1
s(g1
I656
VInterruptedException
p2392
tp2393
I1
s(g1
I274
VcurrY
p2394
tp2395
I1
s(g1
I236
VcurrMills
p2396
tp2397
I1
s(g1
I383
VclearFlag
p2398
tp2399
I1
s(g1
I148
Vcontext
p2400
tp2401
I2
s(g1
I1015
Vtimer
p2402
tp2403
I1
s(g1
I329
Vtimer
p2404
tp2405
I1
s(g1
I51
VmDispDensity
p2406
tp2407
I1
s(g1
I92
Vfix
p2408
tp2409
I1
s(g1
I143
VmDanmakus
p2410
tp2411
I1
s(g1
I515
Vmills
p2412
tp2413
I1
s(g1
I387
VclearCanvas
p2414
tp2415
I1
s(g1
I162
VDisplayMetrics
p2416
tp2417
I1
s(g1
I341
VDanmakuSurfaceView
p2418
tp2419
I1
s(g1
I71
Vcanvas
p2420
tp2421
I1
s(g1
I1467
VmTaskListener
p2422
tp2423
I1
s(g1
I818
VdrawTask
p2424
tp2425
I1
s(g1
I562
Viterator
p2426
tp2427
I1
s(g1
I500
VUPDATE
p2428
tp2429
I1
s(g1
I225
VmVideoView
p2430
tp2431
I1
s(g1
I1586
VmCallback
p2432
tp2433
I1
s(g1
I547
VdrawTask
p2434
tp2435
I1
s(g1
I304
Vuri
p2436
tp2437
I1
s(g1
I2463
Vitr
p2438
tp2439
I1
s(g1
I62
VdanmakuView
p2440
tp2441
I1
s(g1
I516
VmOnClickListener
p2442
tp2443
I1
s(g1
I652
VsubDanmakus
p2444
tp2445
I1
s(g1
I41
Vdanmakus
p2446
tp2447
I1
s(g1
I701
VmParser
p2448
tp2449
I1
s(g1
I3178
VmMaxSize
p2450
tp2451
I1
s(g1
I62
VcurrentTimeMillis
p2452
tp2453
I1
s(g1
I139
Vholder
p2454
tp2455
I1
s(g1
I160
Vi
p2456
tp2457
I1
s(g1
I359
VmIdleSleep
p2458
tp2459
I1
s(g1
I479
VSTART
p2460
tp2461
I1
s(g1
I732
Vitems
p2462
tp2463
I1
s(g1
I603
Vfirst
p2464
tp2465
I1
s(g1
I285
VmHeight
p2466
tp2467
I1
s(g1
I197
Vload
p2468
tp2469
I1
s(g1
I341
Vdbottom
p2470
tp2471
I1
s(g1
I377
VbeginMills
p2472
tp2473
I1
s(g1
I604
Vj
p2474
tp2475
I1
s(g1
I725
VLong
p2476
tp2477
I1
s(g1
I144
VisRecycled
p2478
tp2479
I1
s(g1
I60
Vtext
p2480
tp2481
I2
s(g1
I496
VmThread
p2482
tp2483
I1
s(g1
I1111
VcurrentTimeMillis
p2484
tp2485
I1
s(g1
I569
Vhandler
p2486
tp2487
I1
s(g1
I127
VDanmakuRenderer
p2488
tp2489
I2
s(g1
I404
Vclear
p2490
tp2491
I1
s(g1
I1641
VmDisp
p2492
tp2493
I1
s(g1
I1173
VmDrawingThreadType
p2494
tp2495
I1
s(g1
I250
Vitr
p2496
tp2497
I1
s(g1
I548
Vdanmaku
p2498
tp2499
I1
s(g1
I681
Vit
p2500
tp2501
I1
s(g1
I837
Vi
p2502
tp2503
I1
s(g1
I695
Vmeasure
p2504
tp2505
I1
s(g1
I237
Vdanmakus
p2506
tp2507
I1
s(g1
I413
VDanmakuContext
p2508
tp2509
I1
s(g1
I881
Vquit
p2510
tp2511
I1
s(g1
I297
VmOnFrameAvailableListener
p2512
tp2513
I1
s(g1
I369
Vitems
p2514
tp2515
I1
s(g1
I324
VisSurfaceCreated
p2516
tp2517
I1
s(g1
I84
VPAINT_FPS
p2518
tp2519
I1
s(g1
I458
VIDisplayer
p2520
tp2521
I1
s(g1
I448
VCanvas
p2522
tp2523
I1
s(g1
I1531
VremoveMessages
p2524
tp2525
I1
s(g1
I532
VtoTimeMills
p2526
tp2527
I1
s(g1
I332
VmCacheManager
p2528
tp2529
I1
s(g1
I1321
VoldValue
p2530
tp2531
I1
s(g1
I681
VtaskListener
p2532
tp2533
I1
s(g1
I1653
VmCaches
p2534
tp2535
I1
s(g1
I126
Vw
p2536
tp2537
I1
s(g1
I713
Vtimer
p2538
tp2539
I1
s(g1
I569
VStringBuffer
p2540
tp2541
I1
s(g1
I294
Vitem
p2542
tp2543
I1
s(g1
I300
VList
p2544
tp2545
I1
s(g1
I757
VsendToTarget
p2546
tp2547
I1
s(g1
I369
VdanmakuList
p2548
tp2549
I1
s(g1
I843
Vhandler
p2550
tp2551
I1
s(g1
I1055
VMath
p2552
tp2553
I1
s(g1
I88
VnativeLibLoaded
p2554
tp2555
I1
s(g1
I1402
VmReadyState
p2556
tp2557
I1
s(g1
I1007
Vnext
p2558
tp2559
I1
s(g1
I700
VdanmakuList
p2560
tp2561
I1
s(g1
I698
Vstart
p2562
tp2563
I1
s(g1
I494
VsetDensity
p2564
tp2565
I1
s(g1
I1443
VgetPoolPercent
p2566
tp2567
I1
s(g1
I263
Vy
p2568
tp2569
I1
s(g1
I1070
VBaseDanmaku
p2570
tp2571
I1
s(g1
I353
VDrawHelper
p2572
tp2573
I1
s(g1
I1067
Vhandler
p2574
tp2575
I1
s(g1
I637
Vseek
p2576
tp2577
I1
s(g1
I66
Vitr
p2578
tp2579
I1
s(g1
I92
VdrawItem
p2580
tp2581
I1
s(g1
I1000
Vaction
p2582
tp2583
I1
s(g1
I286
VmDrawThread
p2584
tp2585
I1
s(g1
I126
Vcontext
p2586
tp2587
I1
s(g1
I150
VCanvas
p2588
tp2589
I1
s(g1
I511
VquitFlag
p2590
tp2591
I1
s(g1
I594
VupdateFlag
p2592
tp2593
I2
s(g1
I219
VmBtnPauseDanmaku
p2594
tp2595
I1
s(g1
I137
Vignore
p2596
tp2597
I1
s(g1
I608
VonBackPressed
p2598
tp2599
I1
s(g1
I112
VmLimit
p2600
tp2601
I1
s(g1
I767
VmTimer
p2602
tp2603
I1
s(g1
I94
Vy
p2604
tp2605
I1
s(g1
I659
VOverride
p2606
tp2607
I1
s(g1
I449
VsetCallback
p2608
tp2609
I1
s(g1
I214
VcurrMills
p2610
tp2611
I1
s(g1
I178
VsetTime
p2612
tp2613
I1
s(g1
I817
Vtop
p2614
tp2615
I1
s(g1
I345
Vcanvas
p2616
tp2617
I1
s(g1
I236
VmDanmakuView
p2618
tp2619
I1
s(g1
I577
VsendEmptyMessage
p2620
tp2621
I1
s(g1
I2073
VquitFlag
p2622
tp2623
I1
s(g1
I294
VhasNext
p2624
tp2625
I1
s(g1
I1225
Vd
p2626
tp2627
I1
s(g1
I1301
Vcount
p2628
tp2629
I1
s(g1
I598
VmDanmakusVisible
p2630
tp2631
I1
s(g1
I1194
VgetCurrentTime
p2632
tp2633
I1
s(g1
I207
VonClick
p2634
tp2635
I1
s(g1
I1741
VmDanmakuView
p2636
tp2637
I1
s(g1
I342
VmHandler
p2638
tp2639
I3
s(g1
I487
VmHandler
p2640
tp2641
I1
s(g1
I755
VobtainMessage
p2642
tp2643
I1
s(g1
I300
VmBtnPauseDanmaku
p2644
tp2645
I1
s(g1
I359
Vdanmaku
p2646
tp2647
I1
s(g1
I85
VFTDanmakusRetainer
p2648
tp2649
I1
s(g1
I1217
VonDanmakuAdd
p2650
tp2651
I1
s(g1
I3176
VcacheSize
p2652
tp2653
I1
s(g1
I1217
VmDisp
p2654
tp2655
I1
s(g1
I250
VButton
p2656
tp2657
I1
s(g1
I124
Vcontext
p2658
tp2659
I1
s(g1
I360
VVideoView
p2660
tp2661
I1
s(g1
I1131
VdanmakuList
p2662
tp2663
I1
s(g1
I974
VmCachePool
p2664
tp2665
I1
s(g1
I755
Vstart
p2666
tp2667
I1
s(g1
I269
VstopDraw
p2668
tp2669
I1
s(g1
I165
Vpaint
p2670
tp2671
I1
s(g1
I99
VgetType
p2672
tp2673
I1
s(g1
I1558
VresetSlopPixel
p2674
tp2675
I1
s(g1
I830
Vtop
p2676
tp2677
I1
s(g1
I946
VgetAverageRenderingTime
p2678
tp2679
I1
s(g1
I498
VsizeOf
p2680
tp2681
I1
s(g1
I505
VmMaxSize
p2682
tp2683
I1
s(g1
I488
VquitFlag
p2684
tp2685
I1
s(g1
I838
Vwait
p2686
tp2687
I1
s(g1
I158
Ve
p2688
tp2689
I1
s(g1
I645
VLocale
p2690
tp2691
I1
s(g1
I786
VmContext
p2692
tp2693
I1
s(g1
I77
Vremove
p2694
tp2695
I1
s(g1
I438
VtaskListener
p2696
tp2697
I1
s(g1
I146
Vcapacity
p2698
tp2699
I1
s(g1
I439
Vprepare
p2700
tp2701
I1
s(g1
I106
Vbitmap
p2702
tp2703
I1
s(g1
I352
VrequestRemeasure
p2704
tp2705
I2
s(g1
I226
VmCache
p2706
tp2707
I1
s(g1
I145
VelapsedTime
p2708
tp2709
I1
s(g1
I563
Vsubset
p2710
tp2711
I1
s(g1
I1632
VfinalSlopPixel
p2712
tp2713
I1
s(g1
I710
VBaseDanmaku
p2714
tp2715
I2
s(g1
I370
VisEmpty
p2716
tp2717
I1
s(g1
I682
VQUIT
p2718
tp2719
I1
s(g1
I650
Vhandler
p2720
tp2721
I1
s(g1
I83
Vcanvas
p2722
tp2723
I1
s(g1
I430
VnewTransparency
p2724
tp2725
I1
s(g1
I584
Vleft
p2726
tp2727
I1
s(g1
I1083
Vpostion
p2728
tp2729
I1
s(g1
I598
VhandleMessage
p2730
tp2731
I1
s(g1
I1075
VmRenderingState
p2732
tp2733
I1
s(g1
I789
VhideDanmakus
p2734
tp2735
I1
s(g1
I141
Vreuse
p2736
tp2737
I1
s(g1
I66
VString
p2738
tp2739
I1
s(g1
I393
VCanvas
p2740
tp2741
I1
s(g1
I168
VstartAntiIndex
p2742
tp2743
I1
s(g1
I783
VremoveUnusedLiveDanmakusIn
p2744
tp2745
I1
s(g1
I701
VgetMainLooper
p2746
tp2747
I1
s(g1
I150
VgetCacheHeight
p2748
tp2749
I1
s(g1
I97
VloadLibrary
p2750
tp2751
I1
s(g1
I569
Vcanvas
p2752
tp2753
I1
s(g1
I268
VButton
p2754
tp2755
I1
s(g1
I364
VborderWidth
p2756
tp2757
I1
s(g1
I1132
VisMeasured
p2758
tp2759
I1
s(g1
I289
VstartRenderTime
p2760
tp2761
I1
s(g1
I593
VmCacheTimer
p2762
tp2763
I1
s(g1
I14
VContext
p2764
tp2765
I1
s(g1
I235
Vmills
p2766
tp2767
I1
s(g1
I746
Vseek
p2768
tp2769
I1
s(g1
I668
VbufferBitmap
p2770
tp2771
I1
s(g1
I210
Vremeasure
p2772
tp2773
I1
s(g1
I474
VmRenderer
p2774
tp2775
I1
s(g1
I1643
VACTION_CONTINUE
p2776
tp2777
I1
s(g1
I54
g310
tp2778
I24
s(g1
I585
VonDestroy
p2779
tp2780
I1
s(g1
I1049
VdTime
p2781
tp2782
I1
s(g1
I201
VloadBiliDanmakus
p2783
tp2784
I1
s(g1
I1832
VdrawTask
p2785
tp2786
I1
s(g1
I86
Vput
p2787
tp2788
I1
s(g1
I1026
Vwait
p2789
tp2790
I1
s(g1
I898
Vitems
p2791
tp2792
I1
s(g1
I305
Vtimer
p2793
tp2794
I1
s(g1
I203
Vitems
p2795
tp2796
I1
s(g1
I525
VAndroidDisplayer
p2797
tp2798
I1
s(g1
I271
VAttributes
p2799
tp2800
I1
s(g1
I517
VmBaseTime
p2801
tp2802
I1
s(g1
I1645
Vhandler
p2803
tp2804
I1
s(g1
I181
Vitems
p2805
tp2806
I1
s(g1
I869
VupdateFirstShownFlag
p2807
tp2808
I1
s(g1
I397
Vprepared
p2809
tp2810
I1
s(g1
I324
VonFailed
p2811
tp2812
I1
s(g1
I105
VjsonArray
p2813
tp2814
I1
s(g1
I1722
Vposition
p2815
tp2816
I1
s(g1
I56
VBaseDanmaku
p2817
tp2818
I2
s(g1
I557
VBaseDanmaku
p2819
tp2820
I2
s(g1
I779
VmUpdateInNewThread
p2821
tp2822
I1
s(g1
I838
VmDrawingNotify
p2823
tp2824
I1
s(g1
I115
Vcanvas
p2825
tp2826
I1
s(g1
I880
Vlast
p2827
tp2828
I1
s(g1
I144
VprintStackTrace
p2829
tp2830
I1
s(g1
I1002
VlasTime
p2831
tp2832
I1
s(g1
I624
Vmills
p2833
tp2834
I2
s(g1
I81
VmInput
p2835
tp2836
I1
s(g1
I64
VdrawItem
p2837
tp2838
I2
s(g1
I606
Vj
p2839
tp2840
I1
s(g1
I1033
VmDanmakusVisible
p2841
tp2842
I1
s(g1
I695
Vdtime
p2843
tp2844
I1
s(g1
I572
VOverride
p2845
tp2846
I1
s(g1
I289
VmLoader
p2847
tp2848
I1
s(g1
I101
VdrawItem
p2849
tp2850
I1
s(g1
I112
VmDrawFinished
p2851
tp2852
I1
s(g1
I370
VmBaseParser
p2853
tp2854
I1
s(g1
I66
Vequals
p2855
tp2856
I1
s(g1
I87
VftdrInstance
p2857
tp2858
I1
s(g1
I254
VmVideoView
p2859
tp2860
I1
s(g1
I750
VdrawTask
p2861
tp2862
I1
s(g1
I268
VcurrX
p2863
tp2864
I1
s(g1
I370
VmHandler
p2865
tp2866
I1
s(g1
I172
VOverride
p2867
tp2868
I1
s(g1
I642
VmLastEndMills
p2869
tp2870
I1
s(g1
I78
Vdisp
p2871
tp2872
I1
s(g1
I107
Vwidth
p2873
tp2874
I1
s(g1
I349
Vcanvas
p2875
tp2876
I1
s(g1
I77
VBaseDanmakuParser
p2877
tp2878
I1
s(g1
I302
Vit
p2879
tp2880
I1
s(g1
I162
VmRenderer
p2881
tp2882
I1
s(g1
I161
VDanmakuTouchHelper
p2883
tp2884
I1
s(g1
I420
VgetLooper
p2885
tp2886
I1
s(g1
I874
VDanmakuFilters
p2887
tp2888
I1
s(g1
I210
VdanmakuList
p2889
tp2890
I1
s(g1
I1016
Viterator
p2891
tp2892
I1
s(g1
I749
Vlast
p2893
tp2894
I1
s(g1
I221
VcurrMills
p2895
tp2896
I1
s(g1
I1617
VDanmakuTimer
p2897
tp2898
I1
s(g1
I1597
VobtainMessage
p2899
tp2900
I1
s(g1
I313
VviewHolders
p2901
tp2902
I1
s(g1
I138
VmDanmakus
p2903
tp2904
I2
s(g1
I1000
Vit
p2905
tp2906
I1
s(g1
I374
VmDispHeight
p2907
tp2908
I1
s(g1
I101
Vduration
p2909
tp2910
I1
s(g1
I118
Vinit
p2911
tp2912
I1
s(g1
I875
Vlast
p2913
tp2914
I1
s(g1
I1104
Vmax
p2915
tp2916
I1
s(g1
I1474
Vready
p2917
tp2918
I1
s(g1
I1060
VsetTimer
p2919
tp2920
I1
s(g1
I166
VDanmakuFilters
p2921
tp2922
I1
s(g1
I376
VdrawTask
p2923
tp2924
I1
s(g1
I141
Vdisp
p2925
tp2926
I1
s(g1
I689
Vtimer
p2927
tp2928
I1
s(g1
I330
Vcurr
p2929
tp2930
I1
s(g1
I1030
VgetFirstCacheTime
p2931
tp2932
I1
s(g1
I313
VscreenSize
p2933
tp2934
I1
s(g1
I834
Vitem
p2935
tp2936
I1
s(g1
I1555
Vvalues
p2937
tp2938
I1
s(g1
I564
VmDanmakuView
p2939
tp2940
I1
s(g1
I581
VisSurfaceCreated
p2941
tp2942
I1
s(g1
I151
VmDisp
p2943
tp2944
I1
s(g1
I74
VSPECIAL_DANMAKU_VISIBILITY
p2945
tp2946
I1
s(g1
I139
Vuri
p2947
tp2948
I1
s(g1
I256
Vfit
p2949
tp2950
I1
s(g1
I1985
Vupdate
p2951
tp2952
I1
s(g1
I294
VmContext
p2953
tp2954
I1
s(g1
I651
Vcancel
p2955
tp2956
I1
s(g1
I97
VANTI_ALIAS_DISABLE_SIZE
p2957
tp2958
I1
s(g1
I609
VmReady
p2959
tp2960
I1
s(g1
I149
Vcanvas
p2961
tp2962
I1
s(g1
I53
VgetDefault
p2963
tp2964
I1
s(g1
I760
VsubDanmakus
p2965
tp2966
I1
s(g1
I383
Vdisp
p2967
tp2968
I1
s(g1
I303
VmSize
p2969
tp2970
I1
s(g1
I170
VoldItems
p2971
tp2972
I1
s(g1
I598
Vsubnew
p2973
tp2974
I1
s(g1
I1287
VevictAllNotInScreen
p2975
tp2976
I1
s(g1
I435
VBaseDanmakuParser
p2977
tp2978
I1
s(g1
I146
VisLate
p2979
tp2980
I1
s(g1
I1032
VInterruptedException
p2981
tp2982
I1
s(g1
I316
VmThread
p2983
tp2984
I1
s(g1
I1050
Vd
p2985
tp2986
I1
s(g1
I141
VmUiThreadId
p2987
tp2988
I1
s(g1
I786
VnotifyDispSizeChanged
p2989
tp2990
I1
s(g1
I737
Vtimer
p2991
tp2992
I1
s(g1
I917
Vit
p2993
tp2994
I1
s(g1
I89
Vy
p2995
tp2996
I1
s(g1
I121
Vdensity
p2997
tp2998
I1
s(g1
I74
VPAINT_FPS
p2999
tp3000
I1
s(g1
I1106
VbuildCache
p3001
tp3002
I1
s(g1
I761
VmContext
p3003
tp3004
I1
s(g1
I1381
Vquit
p3005
tp3006
I1
s(g1
I576
VmDanmakuView
p3007
tp3008
I1
s(g1
I214
VmLoader
p3009
tp3010
I1
s(g1
I214
VmRenderer
p3011
tp3012
I1
s(g1
I1204
VmThresholdTime
p3013
tp3014
I1
s(g1
I138
Vstream
p3015
tp3016
I1
s(g1
I365
VmRefreshArea
p3017
tp3018
I1
s(g1
I662
VaddDanmaku
p3019
tp3020
I1
s(g1
I441
VaverageHeight
p3021
tp3022
I1
s(g1
I563
VstartTime
p3023
tp3024
I1
s(g1
I339
VmHandler
p3025
tp3026
I2
s(g1
I355
Vitem
p3027
tp3028
I1
s(g1
I1040
VSystem
p3029
tp3030
I1
s(g1
I246
VNativeBitmapFactory
p3031
tp3032
I1
s(g1
I73
VString
p3033
tp3034
I1
s(g1
I251
VOverride
p3035
tp3036
I1
s(g1
I120
Vw
p3037
tp3038
I1
s(g1
I302
Vremove
p3039
tp3040
I1
s(g1
I239
VdrawSomeThing
p3041
tp3042
I1
s(g1
I296
VonFrameAvailable
p3043
tp3044
I1
s(g1
I259
VendY
p3045
tp3046
I1
s(g1
I59
VDeviceUtils
p3047
tp3048
I1
s(g1
I491
VBaseDanmaku
p3049
tp3050
I1
s(g1
I803
Vmills
p3051
tp3052
I1
s(g1
I789
Vupdate
p3053
tp3054
I1
s(g1
I293
Vcurr
p3055
tp3056
I1
s(g1
I798
Vclear
p3057
tp3058
I1
s(g1
I366
VSet
p3059
tp3060
I1
s(g1
I328
VmDanmakuView
p3061
tp3062
I3
s(g1
I1625
VmCallback
p3063
tp3064
I1
s(g1
I116
Vtimer
p3065
tp3066
I1
s(g1
I1041
VmResumeTryCount
p3067
tp3068
I1
s(g1
I258
Vtimer
p3069
tp3070
I1
s(g1
I52
VfindViewById
p3071
tp3072
I1
s(g1
I348
VavailableProcessors
p3073
tp3074
I1
s(g1
I894
Vcontext
p3075
tp3076
I1
s(g1
I1770
VaddDanmakuAndBuildCache
p3077
tp3078
I1
s(g1
I240
VpaintWidth
p3079
tp3080
I1
s(g1
I646
VSTART
p3081
tp3082
I1
s(g1
I702
Vcache
p3083
tp3084
I1
s(g1
I1438
VdrawTask
p3085
tp3086
I1
s(g1
I101
VdeltaDuration
p3087
tp3088
I1
s(g1
I41
VPAINT
p3089
tp3090
I2
s(g1
I217
VOverride
p3091
tp3092
I2
s(g1
I350
Vtext
p3093
tp3094
I1
s(g1
I1411
VBaseDanmaku
p3095
tp3096
I1
s(g1
I195
Vtime
p3097
tp3098
I1
s(g1
I829
Vnext
p3099
tp3100
I1
s(g1
I29
VsetContentView
p3101
tp3102
I1
s(g1
I553
VmReady
p3103
tp3104
I1
s(g1
I54
Vtext
p3105
tp3106
I1
s(g1
I508
VmCaches
p3107
tp3108
I1
s(g1
I1573
VobtainMessage
p3109
tp3110
I1
s(g1
I110
VJSONObject
p3111
tp3112
I1
s(g1
I314
VsendEmptyMessage
p3113
tp3114
I1
s(g1
I197
VgetResult
p3115
tp3116
I1
s(g1
I1061
VOverride
p3117
tp3118
I1
s(g1
I144
VHolderRingBuffer
p3119
tp3120
I1
s(g1
I1016
VgapTime
p3121
tp3122
I1
s(g1
I195
Ve
p3123
tp3124
I2
s(g1
I325
VcurrentTimeMillis
p3125
tp3126
I1
s(g1
I708
Vcache
p3127
tp3128
I1
s(g1
I111
VdispW
p3129
tp3130
I2
s(g1
I1213
Vi
p3131
tp3132
I1
s(g1
I133
VAndroidDisplayer
p3133
tp3134
I2
s(g1
I277
VString
p3135
tp3136
I1
s(g1
I1776
VBaseDanmaku
p3137
tp3138
I1
s(g1
I1636
VmResult
p3139
tp3140
I1
s(g1
I83
Vfix
p3141
tp3142
I1
s(g1
I418
VsubItems
p3143
tp3144
I1
s(g1
I574
VCacheHandler
p3145
tp3146
I1
s(g1
I86
Vuri
p3147
tp3148
I1
s(g1
I130
Vclear
p3149
tp3150
I1
s(g1
I264
VdrawItem
p3151
tp3152
I1
s(g1
I623
VcurrentTimeMillis
p3153
tp3154
I1
s(g1
I68
VmDanmakuView
p3155
tp3156
I1
s(g1
I529
VDanmakuUtils
p3157
tp3158
I1
s(g1
I24
VsavedInstanceState
p3159
tp3160
I1
s(g1
I390
Vsb
p3161
tp3162
I1
s(g1
I1731
VmDanmakuView
p3163
tp3164
I1
s(g1
I741
VIDanmakuIterator
p3165
tp3166
I1
s(g1
I269
Vhandler
p3167
tp3168
I1
s(g1
I82
VdrawItem
p3169
tp3170
I1
s(g1
I314
VdanmakuList
p3171
tp3172
I1
s(g1
I1025
Vislive
p3173
tp3174
I1
s(g1
I217
VdrawText
p3175
tp3176
I1
s(g1
I153
Vlayout
p3177
tp3178
I1
s(g1
I179
Viterator
p3179
tp3180
I1
s(g1
I124
VperformClick
p3181
tp3182
I1
s(g1
I315
VquitFlag
p3183
tp3184
I1
s(g1
I331
VCacheHandler
p3185
tp3186
I1
s(g1
I1724
VonPause
p3187
tp3188
I1
s(g1
I358
VtotalDanmakuCount
p3189
tp3190
I1
s(g1
I60
Vcanvas
p3191
tp3192
I2
s(g1
I1657
Vconsumer
p3193
tp3194
I1
s(g1
I895
Vitem
p3195
tp3196
I1
s(g1
I530
Vpause
p3197
tp3198
I1
s(g1
I866
VBaseDanmaku
p3199
tp3200
I1
s(g1
I576
Vd
p3201
tp3202
I1
s(g1
I524
Vpause
p3203
tp3204
I1
s(g1
I233
Vleft
p3205
tp3206
I1
s(g1
I289
VpaintHeight
p3207
tp3208
I1
s(g1
I143
VFileInputStream
p3209
tp3210
I1
s(g1
I342
Ve
p3211
tp3212
I1
s(g1
I846
Ve
p3213
tp3214
I1
s(g1
I110
VloadLibrary
p3215
tp3216
I2
s(g1
I156
VgetDefault
p3217
tp3218
I1
s(g1
I608
Vclear
p3219
tp3220
I1
s(g1
I232
Vparser
p3221
tp3222
I1
s(g1
I128
Vmax
p3223
tp3224
I1
s(g1
I159
VgetTop
p3225
tp3226
I1
s(g1
I573
VendMills
p3227
tp3228
I1
s(g1
I682
Vwhat
p3229
tp3230
I1
s(g1
I705
Vcontext
p3231
tp3232
I1
s(g1
I214
Vy
p3233
tp3234
I1
s(g1
I1633
VmYOff
p3235
tp3236
I1
s(g1
I290
Vhandler
p3237
tp3238
I1
s(g1
I854
VlinePaths
p3239
tp3240
I1
s(g1
I121
VInputSource
p3241
tp3242
I1
s(g1
I154
Vvalues
p3243
tp3244
I1
s(g1
I367
Vstop
p3245
tp3246
I1
s(g1
I335
VstartSubItem
p3247
tp3248
I1
s(g1
I1973
VmCacheTimer
p3249
tp3250
I1
s(g1
I351
VDrawHelper
p3251
tp3252
I1
s(g1
I1003
VstartMS
p3253
tp3254
I1
s(g1
I396
VsubDanmakus
p3255
tp3256
I1
s(g1
I280
VOverride
p3257
tp3258
I1
s(g1
I25
VsavedInstanceState
p3259
tp3260
I1
s(g1
I303
Vjoin
p3261
tp3262
I1
s(g1
I1143
Vitem
p3263
tp3264
I1
s(g1
I88
VIllegalDataException
p3265
tp3266
I1
s(g1
I350
VOverride
p3267
tp3268
I1
s(g1
I658
Vclear
p3269
tp3270
I1
s(g1
I219
Vitem
p3271
tp3272
I1
s(g1
I800
VDanmakuGlobalConfig
p3273
tp3274
I1
s(g1
I1696
VdanmakuList
p3275
tp3276
I1
s(g1
I1112
VMath
p3277
tp3278
I1
s(g1
I41
Vdisp
p3279
tp3280
I1
s(g1
I42
VDanmakus
p3281
tp3282
I1
s(g1
I165
Vuri
p3283
tp3284
I1
s(g1
I967
Vpushed
p3285
tp3286
I1
s(g1
I207
Vview
p3287
tp3288
I1
s(g1
I372
VgetHeight
p3289
tp3290
I1
s(g1
I494
VstartDraw
p3291
tp3292
I1
s(g1
I183
VIDisplayer
p3293
tp3294
I1
s(g1
I612
VOverride
p3295
tp3296
I1
s(g1
I40
VRectF
p3297
tp3298
I1
s(g1
I1415
VobtainRunningDanmakus
p3299
tp3300
I1
s(g1
I877
Vnext
p3301
tp3302
I1
s(g1
I291
VmBtnSendDanmaku
p3303
tp3304
I1
s(g1
I590
VobtainMessage
p3305
tp3306
I1
s(g1
I1735
VmDanmakusVisible
p3307
tp3308
I1
s(g1
I665
VOverride
p3309
tp3310
I1
s(g1
I549
VmDanmakuView
p3311
tp3312
I1
s(g1
I75
Vduration
p3313
tp3314
I1
s(g1
I747
VsubDanmakus
p3315
tp3316
I1
s(g1
I254
VLinkedList
p3317
tp3318
I1
s(g1
I603
VGlobalFlagValues
p3319
tp3320
I2
s(g1
I596
Vwhat
p3321
tp3322
I1
s(g1
I1409
VevictAllNotInScreen
p3323
tp3324
I1
s(g1
I890
VgetLooper
p3325
tp3326
I1
s(g1
I421
VmRenderer
p3327
tp3328
I1
s(g1
I1198
Vupdate
p3329
tp3330
I1
s(g1
I208
VqName
p3331
tp3332
I1
s(g1
I1548
Vitem
p3333
tp3334
I1
s(g1
I1001
VmUpdateInSeparateThread
p3335
tp3336
I1
s(g1
I151
Vdisp
p3337
tp3338
I1
s(g1
I311
VsetOnClickListener
p3339
tp3340
I1
s(g1
I971
VSEEK_POS
p3341
tp3342
I1
s(g1
I531
VquitFlag
p3343
tp3344
I1
s(g1
I183
VDanmakuTimer
p3345
tp3346
I1
s(g1
I168
Vindex
p3347
tp3348
I1
s(g1
I175
VupdateMaxDanmakuDuration
p3349
tp3350
I1
s(g1
I841
VUPDATE
p3351
tp3352
I1
s(g1
I560
Vdtime
p3353
tp3354
I1
s(g1
I229
VmMaxCacheSize
p3355
tp3356
I2
s(g1
I75
Vrelease
p3357
tp3358
I1
s(g1
I133
VsetDrawingCacheEnabled
p3359
tp3360
I1
s(g1
I1012
Vtag
p3361
tp3362
I2
s(g1
I84
VsetTextSize
p3363
tp3364
I1
s(g1
I83
VrldrInstance
p3365
tp3366
I1
s(g1
I168
Vpaint
p3367
tp3368
I1
s(g1
I135
Vright
p3369
tp3370
I1
s(g1
I84
VdrawItem
p3371
tp3372
I2
s(g1
I805
Vhandler
p3373
tp3374
I1
s(g1
I1375
VclearCachePool
p3375
tp3376
I1
s(g1
I39
Vdrawn
p3377
tp3378
I1
s(g1
I483
VmHandler
p3379
tp3380
I2
s(g1
I965
VRESUME
p3381
tp3382
I1
s(g1
I78
VVideoView
p3383
tp3384
I1
s(g1
I158
Vcanvas
p3385
tp3386
I2
s(g1
I59
Vevent
p3387
tp3388
I1
s(g1
I234
VmCacheManager
p3389
tp3390
I1
s(g1
I248
VsetOnClickListener
p3391
tp3392
I1
s(g1
I286
VButton
p3393
tp3394
I1
s(g1
I123
Vheight
p3395
tp3396
I1
s(g1
I1712
VmVideoView
p3397
tp3398
I1
s(g1
I806
VmDanmakusVisible
p3399
tp3400
I1
s(g1
I342
Vpause
p3401
tp3402
I2
s(g1
I577
Vd
p3403
tp3404
I1
s(g1
I29
VDanmakuParserBase
p3405
tp3406
I1
s(g1
I56
VgetHeight
p3407
tp3408
I1
s(g1
I506
VPREPARE
p3409
tp3410
I1
s(g1
I324
VmScreenSize
p3411
tp3412
I1
s(g1
I553
VisPrepared
p3413
tp3414
I1
s(g1
I1177
VgetHeight
p3415
tp3416
I1
s(g1
I1775
VcreateCache
p3417
tp3418
I1
s(g1
I74
VdrawItems
p3419
tp3420
I1
s(g1
I633
VSystem
p3421
tp3422
I1
s(g1
I209
Vmills
p3423
tp3424
I2
s(g1
I811
Vhandler
p3425
tp3426
I1
s(g1
I645
Vend
p3427
tp3428
I1
s(g1
I749
Vresume
p3429
tp3430
I1
s(g1
I477
Vquit
p3431
tp3432
I1
s(g1
I394
Vdanmakus
p3433
tp3434
I1
s(g1
I1176
VsetDrawingThreadType
p3435
tp3436
I1
s(g1
I569
VdrawFPS
p3437
tp3438
I1
s(g1
I250
VOverride
p3439
tp3440
I1
s(g1
I1438
Vit
p3441
tp3442
I1
s(g1
I939
VDanmakuFilters
p3443
tp3444
I1
s(g1
I1615
VstartMS
p3445
tp3446
I1
s(g1
I1543
Vcontext
p3447
tp3448
I1
s(g1
I81
VmTimer
p3449
tp3450
I1
s(g1
I1126
VmCacheTimer
p3451
tp3452
I1
s(g1
I1301
VclearDanmakusOnScreen
p3453
tp3454
I1
s(g1
I684
Vnext
p3455
tp3456
I1
s(g1
I412
VclearFlag
p3457
tp3458
I1
s(g1
I591
Vitems
p3459
tp3460
I1
s(g1
I29
VgetMemoryClass
p3461
tp3462
I1
s(g1
I152
VhasPassedFilter
p3463
tp3464
I1
s(g1
I800
Vmills
p3465
tp3466
I1
s(g1
I163
VorderInScreen
p3467
tp3468
I1
s(g1
I317
VIDrawingCache
p3469
tp3470
I1
s(g1
I279
VmWidth
p3471
tp3472
I1
s(g1
I60
VhasNext
p3473
tp3474
I1
s(g1
I245
Venable
p3475
tp3476
I1
s(g1
I553
VrequestSync
p3477
tp3478
I1
s(g1
I350
VgetStrokeWidth
p3479
tp3480
I1
s(g1
I127
VIDanmakuView
p3481
tp3482
I1
s(g1
I506
Vwhat
p3483
tp3484
I1
s(g1
I1586
Vtag
p3485
tp3486
I1
s(g1
I89
Vdisp
p3487
tp3488
I1
s(g1
I167
VfillNext
p3489
tp3490
I1
s(g1
I57
VmDispDensity
p3491
tp3492
I1
s(g1
I1357
Vfilter
p3493
tp3494
I1
s(g1
I1628
VslopPixel
p3495
tp3496
I1
s(g1
I244
VString
p3497
tp3498
I1
s(g1
I1697
VdrawTask
p3499
tp3500
I1
s(g1
I1414
VBaseDanmaku
p3501
tp3502
I1
s(g1
I43
VCanvas
p3503
tp3504
I1
s(g1
I959
VUPDATE
p3505
tp3506
I1
s(g1
I1624
VfinalSlopPixel
p3507
tp3508
I1
s(g1
I242
VdrawTime
p3509
tp3510
I1
s(g1
I86
VmBuffer
p3511
tp3512
I1
s(g1
I562
Vformat
p3513
tp3514
I1
s(g1
I954
VmMaxSize
p3515
tp3516
I1
s(g1
I347
VsubItems
p3517
tp3518
I1
s(g1
I244
Vitem
p3519
tp3520
I1
s(g1
I518
VOverride
p3521
tp3522
I1
s(g1
I898
VdrawTask
p3523
tp3524
I1
s(g1
I50
g310
tp3525
I5
s(g1
I93
VstartAntiIndex
p3526
tp3527
I1
s(g1
I117
VisEventConsumed
p3528
tp3529
I1
s(g1
I299
Vquit
p3530
tp3531
I1
s(g1
I1035
VOverride
p3532
tp3533
I1
s(g1
I1630
Vtimer
p3534
tp3535
I1
s(g1
I376
VDanmakuTimer
p3536
tp3537
I1
s(g1
I314
VisSurfaceCreated
p3538
tp3539
I1
s(g1
I790
VmLastBeginMills
p3540
tp3541
I1
s(g1
I230
Vtime
p3542
tp3543
I1
s(g1
I1590
VevictAll
p3544
tp3545
I1
s(g1
I266
VcurrStateValues
p3546
tp3547
I1
s(g1
I116
VsetContentHandler
p3548
tp3549
I1
s(g1
I157
Vdisplayer
p3550
tp3551
I1
s(g1
I336
VIDisplayer
p3552
tp3553
I1
s(g1
I166
VgetDefault
p3554
tp3555
I1
s(g1
I102
Vtop
p3556
tp3557
I1
s(g1
I3160
VgetCacheSize
p3558
tp3559
I1
s(g1
I45
Vcanvas
p3560
tp3561
I1
s(g1
I352
VmThread
p3562
tp3563
I1
s(g1
I294
Vcanvas
p3564
tp3565
I1
s(g1
I61
Vpaint
p3566
tp3567
I1
s(g1
I279
VmScale
p3568
tp3569
I1
s(g1
I516
Vi
p3570
tp3571
I1
s(g1
I209
VDanmakuFilters
p3572
tp3573
I1
s(g1
I78
Vequals
p3574
tp3575
I1
s(g1
I72
VdeltaDuration
p3576
tp3577
I1
s(g1
I837
VDanmakus
p3578
tp3579
I1
s(g1
I185
Vdanmakus
p3580
tp3581
I1
s(g1
I306
VException
p3582
tp3583
I1
s(g1
I729
VdanmakuList
p3584
tp3585
I1
s(g1
I833
Vval
p3586
tp3587
I1
s(g1
I357
Vtimer
p3588
tp3589
I1
s(g1
I173
VmMediaController
p3590
tp3591
I1
s(g1
I463
Vbmp
p3592
tp3593
I1
s(g1
I180
VlastFrameRenderingTime
p3594
tp3595
I1
s(g1
I641
VrequestClear
p3596
tp3597
I1
s(g1
I325
VSystem
p3598
tp3599
I1
s(g1
I1985
VmCacheTimer
p3600
tp3601
I1
s(g1
I700
VendTime
p3602
tp3603
I1
s(g1
I148
VOutputStream
p3604
tp3605
I1
s(g1
I1027
Venable
p3606
tp3607
I1
s(g1
I123
VSystem
p3608
tp3609
I1
s(g1
I569
Vstart
p3610
tp3611
I1
s(g1
I1466
Vequals
p3612
tp3613
I1
s(g1
I1007
VSystem
p3614
tp3615
I1
s(g1
I1808
VaddDanmaku
p3616
tp3617
I1
s(g1
I1722
VobtainMessage
p3618
tp3619
I1
s(g1
I152
VSet
p3620
tp3621
I1
s(g1
I1159
Vhandler
p3622
tp3623
I1
s(g1
I60
VdrawText
p3624
tp3625
I2
s(g1
I151
Vbitmap
p3626
tp3627
I1
s(g1
I131
Vh
p3628
tp3629
I1
s(g1
I511
VgetTop
p3630
tp3631
I1
s(g1
I639
VbeginMills
p3632
tp3633
I1
s(g1
I362
VCanvas
p3634
tp3635
I1
s(g1
I1335
VremoveItem
p3636
tp3637
I1
s(g1
I155
Vitr
p3638
tp3639
I1
s(g1
I17
VuptimeMillis
p3640
tp3641
I1
s(g1
I229
VonLongPress
p3642
tp3643
I1
s(g1
I309
VviewHolders
p3644
tp3645
I1
s(g1
I472
Vbmp
p3646
tp3647
I1
s(g1
I177
Vacquire
p3648
tp3649
I1
s(g1
I140
VRectF
p3650
tp3651
I1
s(g1
I343
Vbegin
p3652
tp3653
I1
s(g1
I123
Vequals
p3654
tp3655
I1
s(g1
I181
VOverride
p3656
tp3657
I1
s(g1
I319
VviewHolders
p3658
tp3659
I1
s(g1
I169
VfillTransparent
p3660
tp3661
I1
s(g1
I63
VmScaledDensity
p3662
tp3663
I1
s(g1
I665
VUPDATE
p3664
tp3665
I1
s(g1
I1486
VBaseDanmaku
p3666
tp3667
I1
s(g1
I1775
VDanmakuUtils
p3668
tp3669
I1
s(g1
I664
Vdanmakus
p3670
tp3671
I1
s(g1
I1292
VcurrentTimeMillis
p3672
tp3673
I1
s(g1
I153
Vclear
p3674
tp3675
I1
s(g1
I378
VcurrMills
p3676
tp3677
I1
s(g1
I1625
Vtimer
p3678
tp3679
I1
s(g1
I546
VSystemClock
p3680
tp3681
I2
s(g1
I48
Viterator
p3682
tp3683
I1
s(g1
I389
Vhandler
p3684
tp3685
I1
s(g1
I701
VLooper
p3686
tp3687
I1
s(g1
I1739
VnotifyRendering
p3688
tp3689
I1
s(g1
I463
Vmills
p3690
tp3691
I1
s(g1
I190
Vnext
p3692
tp3693
I1
s(g1
I719
VmTimerThread
p3694
tp3695
I1
s(g1
I363
Vend
p3696
tp3697
I1
s(g1
I854
Vreset
p3698
tp3699
I1
s(g1
I166
Vcanvas
p3700
tp3701
I1
s(g1
I108
Vmanager
p3702
tp3703
I1
s(g1
I89
Vmeasure
p3704
tp3705
I1
s(g1
I117
VDrawingCacheHolder
p3706
tp3707
I1
s(g1
I244
Vstart
p3708
tp3709
I1
s(g1
I1028
VdrawTask
p3710
tp3711
I1
s(g1
I350
VmReady
p3712
tp3713
I1
s(g1
I172
VmLayoutInflater
p3714
tp3715
I1
s(g1
I366
VstPos
p3716
tp3717
I1
s(g1
I205
Vclear
p3718
tp3719
I1
s(g1
I83
VdrawItem
p3720
tp3721
I1
s(g1
I879
Vrun
p3722
tp3723
I1
s(g1
I1621
VContext
p3724
tp3725
I1
s(g1
I168
VcloseQuietly
p3726
tp3727
I1
s(g1
I27
VsetContentView
p3728
tp3729
I1
s(g1
I22
VMath
p3730
tp3731
I2
s(g1
I382
VDEFAULT_MESSAGE_SIZE
p3732
tp3733
I1
s(g1
I847
VmRenderer
p3734
tp3735
I1
s(g1
I142
Vpaint
p3736
tp3737
I1
s(g1
I179
VoldItems
p3738
tp3739
I2
s(g1
I636
Vdtime
p3740
tp3741
I1
s(g1
I309
VStaticLayout
p3742
tp3743
I1
s(g1
I806
Vtag
p3744
tp3745
I1
s(g1
I277
VinvalidateDanmaku
p3746
tp3747
I1
s(g1
I566
Vresult
p3748
tp3749
I1
s(g1
I1988
VrequestClear
p3750
tp3751
I1
s(g1
I1427
VmCachePool
p3752
tp3753
I1
s(g1
I206
VstartTime
p3754
tp3755
I1
s(g1
I202
Vmeasure
p3756
tp3757
I1
s(g1
I186
VUSE_DRAWCOLOR_TO_CLEAR_CANVAS
p3758
tp3759
I1
s(g1
I116
VcontentHandler
p3760
tp3761
I1
s(g1
I114
Vw
p3762
tp3763
I1
s(g1
I261
Vitem
p3764
tp3765
I1
s(g1
I328
Vtemp
p3766
tp3767
I1
s(g1
I713
Vheight
p3768
tp3769
I1
s(g1
I846
Vi
p3770
tp3771
I1
s(g1
I419
Vdraw
p3772
tp3773
I1
s(g1
I138
VThread
p3774
tp3775
I1
s(g1
I310
Ve
p3776
tp3777
I1
s(g1
I361
VftDanmakuCount
p3778
tp3779
I1
s(g1
I301
VlongValue
p3780
tp3781
I1
s(g1
I3167
VmMaxCacheSize
p3782
tp3783
I1
s(g1
I190
Vitem
p3784
tp3785
I1
s(g1
I149
Vduration
p3786
tp3787
I1
s(g1
I317
Vmsec
p3788
tp3789
I1
s(g1
I24
g310
tp3790
I5
s(g1
I289
VfindViewById
p3791
tp3792
I1
s(g1
I573
Vit
p3793
tp3794
I1
s(g1
I995
VnotifyRendering
p3795
tp3796
I1
s(g1
I74
Viterator
p3797
tp3798
I1
s(g1
I1539
VDisplayMetrics
p3799
tp3800
I1
s(g1
I1137
Vmeasure
p3801
tp3802
I1
s(g1
I507
VquitFlag
p3803
tp3804
I1
s(g1
I263
VisStop
p3805
tp3806
I1
s(g1
I563
VONE_SECOND
p3807
tp3808
I1
s(g1
I1428
Vd
p3809
tp3810
I1
s(g1
I70
VDanmakuFilters
p3811
tp3812
I2
s(g1
I172
Vinflate
p3813
tp3814
I1
s(g1
I1028
VevictAllNotInScreen
p3815
tp3816
I1
s(g1
I145
VgetOnDanmakuClickListener
p3817
tp3818
I1
s(g1
I241
Vit
p3819
tp3820
I1
s(g1
I1379
VgetLooper
p3821
tp3822
I1
s(g1
I132
VcurrTime
p3823
tp3824
I1
s(g1
I1106
Vd
p3825
tp3826
I1
s(g1
I667
VmBufferBitmap
p3827
tp3828
I1
s(g1
I580
VmDanmakuView
p3829
tp3830
I1
s(g1
I1237
VremoveMessages
p3831
tp3832
I1
s(g1
I778
Vreset
p3833
tp3834
I1
s(g1
I504
Vobj2
p3835
tp3836
I1
s(g1
I18
VActivityManager
p3837
tp3838
I1
s(g1
I948
Vhandled
p3839
tp3840
I1
s(g1
I366
Vcanvas
p3841
tp3842
I1
s(g1
I604
Vcompare
p3843
tp3844
I1
s(g1
I334
VmThread
p3845
tp3846
I1
s(g1
I53
VInputStream
p3847
tp3848
I1
s(g1
I152
VdanmakuList
p3849
tp3850
I1
s(g1
I702
Vdatas
p3851
tp3852
I1
s(g1
I1680
VmRenderingState
p3853
tp3854
I1
s(g1
I1595
Vget
p3855
tp3856
I1
s(g1
I1625
VlineCount
p3857
tp3858
I1
s(g1
I2015
VdrawTask
p3859
tp3860
I1
s(g1
I324
VmTimeBase
p3861
tp3862
I1
s(g1
I34
VIDisplayer
p3863
tp3864
I1
s(g1
I73
Vbuffer
p3865
tp3866
I1
s(g1
I1075
VremoveCallbacksAndMessages
p3867
tp3868
I1
s(g1
I540
VBaseDanmaku
p3869
tp3870
I1
s(g1
I315
VonFrameAvailableListener
p3871
tp3872
I1
s(g1
I672
VbufferBitmap
p3873
tp3874
I1
s(g1
I365
Vset
p3875
tp3876
I1
s(g1
I1200
Vd
p3877
tp3878
I1
s(g1
I593
VSTART
p3879
tp3880
I1
s(g1
I553
VendTime
p3881
tp3882
I1
s(g1
I18
VBundle
p3883
tp3884
I1
s(g1
I1709
VgetExternalStorageDirectory
p3885
tp3886
I1
s(g1
I570
Vsleep
p3887
tp3888
I1
s(g1
I205
VSystem
p3889
tp3890
I1
s(g1
I141
Ve
p3891
tp3892
I1
s(g1
I373
VmStartTimer
p3893
tp3894
I1
s(g1
I297
Vnext
p3895
tp3896
I1
s(g1
I187
VIOException
p3897
tp3898
I1
s(g1
I239
Vget_CPU_ABI
p3899
tp3900
I1
s(g1
I336
Vtext
p3901
tp3902
I1
s(g1
I1767
Vdanmaku
p3903
tp3904
I1
s(g1
I288
VIDanmakus
p3905
tp3906
I1
s(g1
I728
VBaseDanmaku
p3907
tp3908
I1
s(g1
I168
Vclear
p3909
tp3910
I1
s(g1
I1010
VChoreographer
p3911
tp3912
I1
s(g1
I211
VclearCanvas
p3913
tp3914
I1
s(g1
I1623
VonDanmakuShown
p3915
tp3916
I1
s(g1
I157
VCanvas
p3917
tp3918
I1
s(g1
I584
Vbegin
p3919
tp3920
I1
s(g1
I1431
Vdestroy
p3921
tp3922
I1
s(g1
I1099
Vwidth
p3923
tp3924
I1
s(g1
I7
VcurrMillisecond
p3925
tp3926
I2
s(g1
I1037
VmRenderer
p3927
tp3928
I1
s(g1
I51
VIterator
p3929
tp3930
I1
s(g1
I184
VhasNext
p3931
tp3932
I1
s(g1
I124
VDanmakuTimer
p3933
tp3934
I1
s(g1
I294
VorderInScreen
p3935
tp3936
I1
s(g1
I984
VquitFlag
p3937
tp3938
I1
s(g1
I1341
VoldValue
p3939
tp3940
I1
s(g1
I363
Vr2lDanmakuCount
p3941
tp3942
I1
s(g1
I293
VmEndTimeMills
p3943
tp3944
I1
s(g1
I58
VmDanmakuView
p3945
tp3946
I1
s(g1
I1968
VevictAllNotInScreen
p3947
tp3948
I1
s(g1
I1082
Vtimer
p3949
tp3950
I2
s(g1
I14
Vcurr
p3951
tp3952
I2
s(g1
I1629
Vheight
p3953
tp3954
I1
s(g1
I55
VDanmakuBase
p3955
tp3956
I2
s(g1
I43
VTAG_ACFUN
p3957
tp3958
I1
s(g1
I64
Vbitmap
p3959
tp3960
I1
s(g1
I357
VBaseDanmaku
p3961
tp3962
I1
s(g1
I1812
VobtainMessage
p3963
tp3964
I1
s(g1
I141
Vbitmap
p3965
tp3966
I1
s(g1
I150
Vdanmaku
p3967
tp3968
I1
s(g1
I191
VmParser
p3969
tp3970
I1
s(g1
I707
Vquit
p3971
tp3972
I1
s(g1
I148
VGestureDetector
p3973
tp3974
I1
s(g1
I508
Vleft
p3975
tp3976
I1
s(g1
I82
VmTimer
p3977
tp3978
I1
s(g1
I1431
VremoveMessages
p3979
tp3980
I1
s(g1
I218
Vseek
p3981
tp3982
I1
s(g1
I118
Vheight
p3983
tp3984
I1
s(g1
I390
VappendValue
p3985
tp3986
I1
s(g1
I233
VsetOnClickListener
p3987
tp3988
I1
s(g1
I618
VobtainMessage
p3989
tp3990
I1
s(g1
I1171
VaverageTime
p3991
tp3992
I1
s(g1
I725
VOverride
p3993
tp3994
I1
s(g1
I1058
VBUILD_CACHES
p3995
tp3996
I1
s(g1
I1474
VmTaskListener
p3997
tp3998
I1
s(g1
I1026
VmDrawingNotify
p3999
tp4000
I1
s(g1
I458
Vreset
p4001
tp4002
I1
s(g1
I452
Vhandler
p4003
tp4004
I1
s(g1
I255
Viterator
p4005
tp4006
I1
s(g1
I566
VstartMills
p4007
tp4008
I1
s(g1
I51
Vwidth
p4009
tp4010
I1
s(g1
I95
VmVideoView
p4011
tp4012
I1
s(g1
I588
VBoolean
p4013
tp4014
I2
s(g1
I44
VFile
p4015
tp4016
I1
s(g1
I1023
VsendEmptyMessage
p4017
tp4018
I1
s(g1
I108
VfindViews
p4019
tp4020
I1
s(g1
I128
Vwidth
p4021
tp4022
I1
s(g1
I295
VdrawItem
p4023
tp4024
I1
s(g1
I34
VsetTextSize
p4025
tp4026
I1
s(g1
I524
VcurrMillis
p4027
tp4028
I1
s(g1
I60
Vdensity
p4029
tp4030
I1
s(g1
I319
VBaseDanmaku
p4031
tp4032
I1
s(g1
I274
VmHeight
p4033
tp4034
I1
s(g1
I352
Vitems
p4035
tp4036
I2
s(g1
I181
VDanmakuTimer
p4037
tp4038
I1
s(g1
I618
Vhandler
p4039
tp4040
I1
s(g1
I1023
Vtimer
p4041
tp4042
I1
s(g1
I579
VdisplayerConfig
p4043
tp4044
I1
s(g1
I1632
VisHardwareAccelerated
p4045
tp4046
I1
s(g1
I126
Vdisplayer
p4047
tp4048
I2
s(g1
I387
VmDanmakuView
p4049
tp4050
I1
s(g1
I289
Vrecycle
p4051
tp4052
I1
s(g1
I373
VsysTime
p4053
tp4054
I1
s(g1
I235
VhasNext
p4055
tp4056
I1
s(g1
I654
Vfps
p4057
tp4058
I1
s(g1
I171
Vend
p4059
tp4060
I1
s(g1
I138
VmDanmakuBounds
p4061
tp4062
I1
s(g1
I1234
VMath
p4063
tp4064
I1
s(g1
I358
Vw
p4065
tp4066
I1
s(g1
I590
Vt
p4067
tp4068
I1
s(g1
I296
Vcurr
p4069
tp4070
I1
s(g1
I111
VperformViewClick
p4071
tp4072
I1
s(g1
I111
VcontentHandler
p4073
tp4074
I1
s(g1
I1439
VBaseDanmaku
p4075
tp4076
I1
s(g1
I147
VmBuffer
p4077
tp4078
I1
s(g1
I178
VRECT
p4079
tp4080
I1
s(g1
I340
VgetDisplayer
p4081
tp4082
I1
s(g1
I735
Vtimer
p4083
tp4084
I1
s(g1
I567
VmDanmakuView
p4085
tp4086
I1
s(g1
I238
Vseek
p4087
tp4088
I1
s(g1
I298
VStaticLayout
p4089
tp4090
I1
s(g1
I934
VquitFlag
p4091
tp4092
I1
s(g1
I66
VBaseDanmakuParser
p4093
tp4094
I1
s(g1
I110
VSystem
p4095
tp4096
I2
s(g1
I832
Vit
p4097
tp4098
I1
s(g1
I1335
VmCaches
p4099
tp4100
I1
s(g1
I294
Vtext
p4101
tp4102
I1
s(g1
I1065
Vcompare
p4103
tp4104
I1
s(g1
I689
Vwhat
p4105
tp4106
I1
s(g1
I712
Vms
p4107
tp4108
I1
s(g1
I230
VopenRawResource
p4109
tp4110
I1
s(g1
I62
VmDanmakuView
p4111
tp4112
I1
s(g1
I717
Vit
p4113
tp4114
I1
s(g1
I1420
VrunningDanmakus
p4115
tp4116
I1
s(g1
I409
VsubItems
p4117
tp4118
I1
s(g1
I139
Velement
p4119
tp4120
I1
s(g1
I171
VDanmakuLoaderFactory
p4121
tp4122
I1
s(g1
I101
VnativeLibLoaded
p4123
tp4124
I1
s(g1
I950
VCLEAR_DANMAKUS_ON_SCREEN
p4125
tp4126
I1
s(g1
I824
Vitr
p4127
tp4128
I1
s(g1
I300
VstartRenderTime
p4129
tp4130
I1
s(g1
I195
VisOutside
p4131
tp4132
I1
s(g1
I565
VDanmakuFactory
p4133
tp4134
I1
s(g1
I230
VmCacheManager
p4135
tp4136
I2
s(g1
I937
VdrawTask
p4137
tp4138
I1
s(g1
I61
g310
tp4139
I23
s(g1
I180
VonDanmakuClickListener
p4140
tp4141
I1
s(g1
I205
VCanvas
p4142
tp4143
I1
s(g1
I367
Vtime
p4144
tp4145
I1
s(g1
I183
VgetDataSource
p4146
tp4147
I1
s(g1
I1041
VCLEAR_DANMAKUS_ON_SCREEN
p4148
tp4149
I1
s(g1
I591
VBoolean
p4150
tp4151
I2
s(g1
I1763
VBaseDanmaku
p4152
tp4153
I1
s(g1
I1786
Vpush
p4154
tp4155
I1
s(g1
I332
Vpause
p4156
tp4157
I1
s(g1
I521
Vend
p4158
tp4159
I1
s(g1
I656
Vstart
p4160
tp4161
I1
s(g1
I1452
VmContext
p4162
tp4163
I1
s(g1
I258
Vitem
p4164
tp4165
I1
s(g1
I539
VstartTime
p4166
tp4167
I1
s(g1
I3160
VDanmakuUtils
p4168
tp4169
I1
s(g1
I253
VmBtnResumeDanmaku
p4170
tp4171
I1
s(g1
I316
VstaticLayout
p4172
tp4173
I2
s(g1
I238
VhasNext
p4174
tp4175
I1
s(g1
I567
VhandleMessage
p4176
tp4177
I1
s(g1
I262
VfindViewById
p4178
tp4179
I1
s(g1
I705
Vheight
p4180
tp4181
I1
s(g1
I256
Vget
p4182
tp4183
I1
s(g1
I337
Vview
p4184
tp4185
I1
s(g1
I2156
VdispatchAction
p4186
tp4187
I1
s(g1
I238
Vdanmakus
p4188
tp4189
I1
s(g1
I328
VloadLibs
p4190
tp4191
I1
s(g1
I612
Vj
p4192
tp4193
I1
s(g1
I1812
VNOTIFY_RENDERING
p4194
tp4195
I1
s(g1
I716
Vfirst
p4196
tp4197
I1
s(g1
I302
Vget_CPU_ABI2
p4198
tp4199
I1
s(g1
I2028
VBaseDanmaku
p4200
tp4201
I1
s(g1
I837
Vitems
p4202
tp4203
I1
s(g1
I156
Vtype
p4204
tp4205
I1
s(g1
I43
VDanmakuBase
p4206
tp4207
I2
s(g1
I292
VBaseDanmaku
p4208
tp4209
I1
s(g1
I83
VPAINT
p4210
tp4211
I1
s(g1
I346
Vhandler
p4212
tp4213
I1
s(g1
I1628
VheightGap
p4214
tp4215
I1
s(g1
I259
Vdraw
p4216
tp4217
I1
s(g1
I1357
Vitem
p4218
tp4219
I1
s(g1
I952
VmRealSize
p4220
tp4221
I1
s(g1
I35
VDanmakus
p4222
tp4223
I2
s(g1
I490
VsendEmptyMessageDelayed
p4224
tp4225
I1
s(g1
I491
Vmills
p4226
tp4227
I1
s(g1
I66
Vnext
p4228
tp4229
I1
s(g1
I247
Vhandler
p4230
tp4231
I1
s(g1
I402
Vsb
p4232
tp4233
I1
s(g1
I638
VBaseDanmaku
p4234
tp4235
I1
s(g1
I1058
VsendEmptyMessageDelayed
p4236
tp4237
I1
s(g1
I1275
Vcounter
p4238
tp4239
I1
s(g1
I164
Vparse
p4240
tp4241
I1
s(g1
I332
VVideoView
p4242
tp4243
I1
s(g1
I808
VupdateVisibleFlag
p4244
tp4245
I1
s(g1
I120
VOverride
p4246
tp4247
I1
s(g1
I25
VonCreate
p4248
tp4249
I1
s(g1
I205
VpaintWidth
p4250
tp4251
I1
s(g1
I182
Vopen
p4252
tp4253
I1
s(g1
I739
Vitems
p4254
tp4255
I1
s(g1
I1417
Vitem
p4256
tp4257
I1
s(g1
I947
VdrawTask
p4258
tp4259
I1
s(g1
I1755
VaddDanmakuAndBuildCache
p4260
tp4261
I1
s(g1
I696
VBaseDanmaku
p4262
tp4263
I1
s(g1
I707
VOverride
p4264
tp4265
I1
s(g1
I1025
VmaxCacheDuration
p4266
tp4267
I1
s(g1
I833
Vtime
p4268
tp4269
I1
s(g1
I308
VdataSource
p4270
tp4271
I1
s(g1
I1683
VrecordRenderingTime
p4272
tp4273
I1
s(g1
I305
VmBtnResumeDanmaku
p4274
tp4275
I2
s(g1
I246
VIterator
p4276
tp4277
I1
s(g1
I1474
Vvalues
p4278
tp4279
I1
s(g1
I844
Vtime
p4280
tp4281
I1
s(g1
I308
VmTimer
p4282
tp4283
I1
s(g1
I130
Vclose
p4284
tp4285
I1
s(g1
I569
Vfps
p4286
tp4287
I1
s(g1
I177
Vit
p4288
tp4289
I1
s(g1
I87
Vsize
p4290
tp4291
I1
s(g1
I197
VmParser
p4292
tp4293
I1
s(g1
I346
VgetRuntime
p4294
tp4295
I1
s(g1
I150
VdanmakuView
p4296
tp4297
I1
s(g1
I1973
Vupdate
p4298
tp4299
I1
s(g1
I86
Vacquire
p4300
tp4301
I1
s(g1
I563
VmDanmakusVisible
p4302
tp4303
I1
s(g1
I40
Vdanmakus
p4304
tp4305
I1
s(g1
I93
VRLDanmakusRetainer
p4306
tp4307
I1
s(g1
I247
VField
p4308
tp4309
I1
s(g1
I128
Vtop
p4310
tp4311
I1
s(g1
I132
VdanmakuView
p4312
tp4313
I1
s(g1
I679
VIDrawingCache
p4314
tp4315
I1
s(g1
I83
Vfinal
p4316
tp4317
I13
s(g1
I546
Vhandler
p4318
tp4319
I1
s(g1
I754
VBaseDanmakuParser
p4320
tp4321
I1
s(g1
I377
VdrawTask
p4322
tp4323
I1
s(g1
I756
Vparser
p4324
tp4325
I1
s(g1
I563
VendTime
p4326
tp4327
I1
s(g1
I248
VmBtnPauseDanmaku
p4328
tp4329
I1
s(g1
I1293
Vhandler
p4330
tp4331
I1
s(g1
I609
VpausedPostion
p4332
tp4333
I1
s(g1
I579
VmHandler
p4334
tp4335
I1
s(g1
I270
VSpannableStringBuilder
p4336
tp4337
I1
s(g1
I146
VdrawItem
p4338
tp4339
I1
s(g1
I761
VsetConfig
p4340
tp4341
I1
s(g1
I1151
VmDrawingNotify
p4342
tp4343
I1
s(g1
I136
Vfile
p4344
tp4345
I1
s(g1
I107
Vdraw
p4346
tp4347
I1
s(g1
I453
Vbegin
p4348
tp4349
I1
s(g1
I171
VgetWidth
p4350
tp4351
I1
s(g1
I815
Vcanvas
p4352
tp4353
I1
s(g1
I81
Vholder
p4354
tp4355
I1
s(g1
I532
Vresume
p4356
tp4357
I1
s(g1
I18
VIDisplayer
p4358
tp4359
I2
s(g1
I331
VgetDisplayer
p4360
tp4361
I1
s(g1
I241
VmediaPlayer
p4362
tp4363
I1
s(g1
I1073
Vtimer
p4364
tp4365
I2
s(g1
I918
VBoolean
p4366
tp4367
I1
s(g1
I630
VisPrepared
p4368
tp4369
I1
s(g1
I498
Vitem
p4370
tp4371
I1
s(g1
I1543
VgetResources
p4372
tp4373
I1
s(g1
I480
VmCurrentWidth
p4374
tp4375
I1
s(g1
I419
Vit
p4376
tp4377
I1
s(g1
I197
Vitems
p4378
tp4379
I1
s(g1
I173
VBaseDanmaku
p4380
tp4381
I1
s(g1
I818
Viterator
p4382
tp4383
I1
s(g1
I647
Vb
p4384
tp4385
I1
s(g1
I608
VmDanmakuView
p4386
tp4387
I1
s(g1
I365
VmVideoView
p4388
tp4389
I1
s(g1
I1083
Vhandler
p4390
tp4391
I1
s(g1
I529
Vend
p4392
tp4393
I1
s(g1
I922
VlastTime
p4394
tp4395
I1
s(g1
I853
VdanmakuList
p4396
tp4397
I1
s(g1
I157
Vw
p4398
tp4399
I1
s(g1
I705
VsetDatas
p4400
tp4401
I1
s(g1
I163
VmStartTimer
p4402
tp4403
I1
s(g1
I407
VDrawHelper
p4404
tp4405
I1
s(g1
I764
VsetDisplayer
p4406
tp4407
I1
s(g1
I478
VsendEmptyMessageDelayed
p4408
tp4409
I1
s(g1
I92
VDanmakusRetainer
p4410
tp4411
I1
s(g1
I185
Vtimer
p4412
tp4413
I1
s(g1
I385
Vhandler
p4414
tp4415
I1
s(g1
I288
VmRectsCachePool
p4416
tp4417
I1
s(g1
I359
VspecialDanmakuCount
p4418
tp4419
I1
s(g1
I172
VIterator
p4420
tp4421
I1
s(g1
I1595
VsSlopPixelCache
p4422
tp4423
I1
s(g1
I555
VOverride
p4424
tp4425
I1
s(g1
I38
VIDanmakus
p4426
tp4427
I1
s(g1
I1701
Vdanmakus
p4428
tp4429
I1
s(g1
I691
Vdtime
p4430
tp4431
I1
s(g1
I69
VJSONException
p4432
tp4433
I1
s(g1
I463
Vupdate
p4434
tp4435
I1
s(g1
I1744
VmDanmakuView
p4436
tp4437
I1
s(g1
I998
VquitUpdateThread
p4438
tp4439
I1
s(g1
I1427
VrunningDanmakus
p4440
tp4441
I1
s(g1
I323
VdrawItem
p4442
tp4443
I1
s(g1
I385
VcurrMills
p4444
tp4445
I1
s(g1
I199
VloadBiliDanmakus
p4446
tp4447
I1
s(g1
I148
Vclear
p4448
tp4449
I1
s(g1
I907
VgetMemoryClass
p4450
tp4451
I1
s(g1
I727
VdeltaMs
p4452
tp4453
I1
s(g1
I1004
VsetSpan
p4454
tp4455
I1
s(g1
I1536
VobtainMessage
p4456
tp4457
I1
s(g1
I373
Vremove
p4458
tp4459
I1
s(g1
I2070
VmRenderingState
p4460
tp4461
I1
s(g1
I1105
Vtimer
p4462
tp4463
I1
s(g1
I282
VmDrawThread
p4464
tp4465
I1
s(g1
I548
Vr
p4466
tp4467
I1
s(g1
I1432
VhasNext
p4468
tp4469
I2
s(g1
I726
VdanmakuList
p4470
tp4471
I1
s(g1
I50
Vdisp
p4472
tp4473
I1
s(g1
I262
VloadAcDanmakus
p4474
tp4475
I1
s(g1
I23
VcurrentTimeMillis
p4476
tp4477
I1
s(g1
I34
Vtag
p4478
tp4479
I1
s(g1
I297
Vtext
p4480
tp4481
I1
s(g1
I1033
Vequals
p4482
tp4483
I1
s(g1
I704
VmParser
p4484
tp4485
I1
s(g1
I1042
Vcanvas
p4486
tp4487
I1
s(g1
I171
VmCounter
p4488
tp4489
I1
s(g1
I539
VQUIT
p4490
tp4491
I1
s(g1
I572
VdrawTask
p4492
tp4493
I1
s(g1
I220
Vlength
p4494
tp4495
I1
s(g1
I413
VBaseDanmaku
p4496
tp4497
I1
s(g1
I356
VmThread
p4498
tp4499
I1
s(g1
I765
VmDanmakusVisible
p4500
tp4501
I1
s(g1
I1269
VSuppressLint
p4502
tp4503
I1
s(g1
I497
Vd
p4504
tp4505
I1
s(g1
I210
VmPopupWindow
p4506
tp4507
I1
s(g1
I813
VCanvas
p4508
tp4509
I1
s(g1
I314
Ve
p4510
tp4511
I1
s(g1
I1176
VgapTime
p4512
tp4513
I1
s(g1
I1015
VpausedPostion
p4514
tp4515
I1
s(g1
I336
VSystem
p4516
tp4517
I1
s(g1
I115
VclearCanvas
p4518
tp4519
I1
s(g1
I533
VLong
p4520
tp4521
I1
s(g1
I301
Vdisp
p4522
tp4523
I1
s(g1
I255
Vdisp
p4524
tp4525
I1
s(g1
I75
VdeltaDuration
p4526
tp4527
I1
s(g1
I1183
Vhandler
p4528
tp4529
I1
s(g1
I212
VsetTimer
p4530
tp4531
I1
s(g1
I1002
Vlength
p4532
tp4533
I1
s(g1
I1505
Vitem
p4534
tp4535
I1
s(g1
I362
Vitem
p4536
tp4537
I1
s(g1
I266
Vx
p4538
tp4539
I1
s(g1
I399
Vtimer
p4540
tp4541
I1
s(g1
I124
VmHolder
p4542
tp4543
I1
s(g1
I145
Vcanvas
p4544
tp4545
I1
s(g1
I1745
VBaseDanmaku
p4546
tp4547
I1
s(g1
I702
VmData
p4548
tp4549
I1
s(g1
I494
VremoveCallbacksAndMessages
p4550
tp4551
I1
s(g1
I180
Vmills
p4552
tp4553
I1
s(g1
I1029
Vtag
p4554
tp4555
I2
s(g1
I830
Vleft
p4556
tp4557
I1
s(g1
I265
VlocalName
p4558
tp4559
I1
s(g1
I1009
VmTimeBase
p4560
tp4561
I1
s(g1
I840
Vitems
p4562
tp4563
I1
s(g1
I347
VcreateParser
p4564
tp4565
I1
s(g1
I309
Ve
p4566
tp4567
I1
s(g1
I1021
Vit
p4568
tp4569
I1
s(g1
I504
Vpause
p4570
tp4571
I1
s(g1
I1376
Vskip
p4572
tp4573
I1
s(g1
I367
VonDestroy
p4574
tp4575
I1
s(g1
I208
Vdanmaku
p4576
tp4577
I1
s(g1
I510
Vi
p4578
tp4579
I1
s(g1
I136
VmDensity
p4580
tp4581
I1
s(g1
I267
VmRenderer
p4582
tp4583
I1
s(g1
I165
VrldrInstance
p4584
tp4585
I1
s(g1
I976
Vconsumer
p4586
tp4587
I1
s(g1
I156
VcurrTime
p4588
tp4589
I1
s(g1
I359
Vsize
p4590
tp4591
I2
s(g1
I56
VgetDensity
p4592
tp4593
I1
s(g1
I1045
VmResumeTryCount
p4594
tp4595
I1
s(g1
I206
VInputStream
p4596
tp4597
I1
s(g1
I58
Vdanmaku
p4598
tp4599
I1
s(g1
I318
Vwidth
p4600
tp4601
I1
s(g1
I321
VsetOnClickListener
p4602
tp4603
I1
s(g1
I108
VBaseDanmaku
p4604
tp4605
I1
s(g1
I220
VOverride
p4606
tp4607
I1
s(g1
I174
Vlog
p4608
tp4609
I1
s(g1
I154
Vdraw
p4610
tp4611
I1
s(g1
I227
Vitem
p4612
tp4613
I1
s(g1
I526
Vreset
p4614
tp4615
I1
s(g1
I183
Vtimer
p4616
tp4617
I1
s(g1
I705
Vtimer
p4618
tp4619
I1
s(g1
I341
Vbottom
p4620
tp4621
I1
s(g1
I467
VfromWorkerThread
p4622
tp4623
I1
s(g1
I525
VrectSrc
p4624
tp4625
I1
s(g1
I312
VException
p4626
tp4627
I1
s(g1
I773
VmDanmakuView
p4628
tp4629
I1
s(g1
I903
VmTaskListener
p4630
tp4631
I1
s(g1
I699
Vdatas
p4632
tp4633
I1
s(g1
I72
Vin
p4634
tp4635
I1
s(g1
I512
VaverageHeight
p4636
tp4637
I1
s(g1
I560
VHIDE_DANMAKUS
p4638
tp4639
I1
s(g1
I65
VvalueOf
p4640
tp4641
I1
s(g1
I1266
VmCacheTimer
p4642
tp4643
I1
s(g1
I227
Vdismiss
p4644
tp4645
I1
s(g1
I585
Vmsg
p4646
tp4647
I1
s(g1
I313
VCacheHandler
p4648
tp4649
I1
s(g1
I604
Vlength
p4650
tp4651
I1
s(g1
I74
Vx
p4652
tp4653
I1
s(g1
I1452
VfirstCache
p4654
tp4655
I1
s(g1
I188
VgetXOff
p4656
tp4657
I1
s(g1
I93
VmVerifier
p4658
tp4659
I1
s(g1
I885
Vitem
p4660
tp4661
I1
s(g1
I1546
VBaseDanmaku
p4662
tp4663
I1
s(g1
I429
VstopDraw
p4664
tp4665
I1
s(g1
I812
VdrawTask
p4666
tp4667
I1
s(g1
I651
Vtimer
p4668
tp4669
I1
s(g1
I74
VString
p4670
tp4671
I1
s(g1
I3185
VmCacheManager
p4672
tp4673
I1
s(g1
I1044
VBaseDanmaku
p4674
tp4675
I1
s(g1
I450
VbmpArray
p4676
tp4677
I1
s(g1
I524
VOverride
p4678
tp4679
I1
s(g1
I29
VmDispWidth
p4680
tp4681
I1
s(g1
I413
VdanmakuList
p4682
tp4683
I1
s(g1
I357
VDeviceUtils
p4684
tp4685
I1
s(g1
I588
Vdanmakus
p4686
tp4687
I1
s(g1
I86
VdrawDuration
p4688
tp4689
I1
s(g1
I63
VBitmap
p4690
tp4691
I1
s(g1
I248
Vstart
p4692
tp4693
I1
s(g1
I1254
VnewCache
p4694
tp4695
I1
s(g1
I201
VperformClick
p4696
tp4697
I1
s(g1
I1004
VspannableStringBuilder
p4698
tp4699
I1
s(g1
I823
VhasNext
p4700
tp4701
I1
s(g1
I69
VdrawItem
p4702
tp4703
I1
s(g1
I1032
VmDanmakuView
p4704
tp4705
I1
s(g1
I144
VcurrTime
p4706
tp4707
I1
s(g1
I190
VcurrTime
p4708
tp4709
I1
s(g1
I1568
VmSeekedFlag
p4710
tp4711
I1
s(g1
I304
VcreateItem
p4712
tp4713
I1
s(g1
I645
VgetTag
p4714
tp4715
I1
s(g1
I1370
VorderInScreen
p4716
tp4717
I1
s(g1
I681
Vheight
p4718
tp4719
I1
s(g1
I436
Vval
p4720
tp4721
I1
s(g1
I584
VmHandler
p4722
tp4723
I1
s(g1
I60
Vitr
p4724
tp4725
I2
s(g1
I481
VLong
p4726
tp4727
I1
s(g1
I267
Vhandler
p4728
tp4729
I1
s(g1
I115
VmSize
p4730
tp4731
I1
s(g1
I1146
Vinit
p4732
tp4733
I1
s(g1
I1653
Vconsumer
p4734
tp4735
I1
s(g1
I1195
VmCallback
p4736
tp4737
I1
s(g1
I786
VmDanmakuView
p4738
tp4739
I1
s(g1
I350
VBaseDanmaku
p4740
tp4741
I1
s(g1
I668
VaddDanmaku
p4742
tp4743
I1
s(g1
I179
VfillStreamFromUri
p4744
tp4745
I1
s(g1
I737
VSystem
p4746
tp4747
I1
s(g1
I283
VsurfaceHolder
p4748
tp4749
I1
s(g1
I1054
VgetAverageRenderingTime
p4750
tp4751
I1
s(g1
I327
VmDrawThread
p4752
tp4753
I1
s(g1
I158
VDrawHelper
p4754
tp4755
I1
s(g1
I1536
Vlevel
p4756
tp4757
I1
s(g1
I13
Vtext
p4758
tp4759
I1
s(g1
I359
VmThread
p4760
tp4761
I1
s(g1
I1583
VremoveCallbacksAndMessages
p4762
tp4763
I1
s(g1
I156
VDrawTask
p4764
tp4765
I1
s(g1
I713
VgetWidth
p4766
tp4767
I1
s(g1
I126
Vparse
p4768
tp4769
I1
s(g1
I979
VdeltaMs
p4770
tp4771
I1
s(g1
I175
VdrawItem
p4772
tp4773
I1
s(g1
I63
VIDisplayer
p4774
tp4775
I1
s(g1
I1183
VaverageTime
p4776
tp4777
I1
s(g1
I1580
VQUIT
p4778
tp4779
I1
s(g1
I891
VPAUSE
p4780
tp4781
I1
s(g1
I1137
VmDisp
p4782
tp4783
I1
s(g1
I344
VmSurfaceHolder
p4784
tp4785
I1
s(g1
I1259
VLog
p4786
tp4787
I1
s(g1
I39
Vlong
p4788
tp4789
I94
s(g1
I537
VclearDanmakusOnScreen
p4790
tp4791
I1
s(g1
I117
VfromWorkerThread
p4792
tp4793
I1
s(g1
I388
Vdanmakus
p4794
tp4795
I1
s(g1
I811
VhideDanmakus
p4796
tp4797
I1
s(g1
I864
Vvalues
p4798
tp4799
I1
s(g1
I143
Vdisp
p4800
tp4801
I1
s(g1
I56
VisRealARMArch
p4802
tp4803
I1
s(g1
I92
Vdisp
p4804
tp4805
I1
s(g1
I165
VnativeBitmap
p4806
tp4807
I1
s(g1
I610
Vprepare
p4808
tp4809
I1
s(g1
I309
VMath
p4810
tp4811
I1
s(g1
I536
VLong
p4812
tp4813
I1
s(g1
I251
Vreference
p4814
tp4815
I1
s(g1
I705
VgetLooper
p4816
tp4817
I1
s(g1
I619
Vitems
p4818
tp4819
I1
s(g1
I1496
VisTimeOut
p4820
tp4821
I1
s(g1
I37
VVideoView
p4822
tp4823
I1
s(g1
I79
VOverride
p4824
tp4825
I1
s(g1
I364
Vbottom
p4826
tp4827
I1
s(g1
I351
VendSubItem
p4828
tp4829
I1
s(g1
I1771
VisTimeOut
p4830
tp4831
I1
s(g1
I54
VonCreate
p4832
tp4833
I1
s(g1
I854
VmRenderingState
p4834
tp4835
I1
s(g1
I236
VmPopupWindow
p4836
tp4837
I1
s(g1
I481
VdrawDanmakus
p4838
tp4839
I1
s(g1
I590
Vdtime
p4840
tp4841
I1
s(g1
I252
VdrawTask
p4842
tp4843
I1
s(g1
I1079
VmTaskListener
p4844
tp4845
I1
s(g1
I159
VdispH
p4846
tp4847
I1
s(g1
I90
VgetJSONObject
p4848
tp4849
I1
s(g1
I518
VsendEmptyMessage
p4850
tp4851
I1
s(g1
I198
VreleaseDataSource
p4852
tp4853
I1
s(g1
I531
VSTART
p4854
tp4855
I1
s(g1
I79
VisMeasured
p4856
tp4857
I1
s(g1
I450
VInteger
p4858
tp4859
I1
s(g1
I335
VCacheManager
p4860
tp4861
I1
s(g1
I209
VUSE_DRAWCOLOR_TO_CLEAR_CANVAS
p4862
tp4863
I1
s(g1
I1263
VOutOfMemoryError
p4864
tp4865
I1
s(g1
I38
VDrawingCacheHolder
p4866
tp4867
I1
s(g1
I1463
VfirstCache
p4868
tp4869
I1
s(g1
I352
VmDrawThread
p4870
tp4871
I1
s(g1
I56
Vdisp
p4872
tp4873
I1
s(g1
I527
VremoveCallbacksAndMessages
p4874
tp4875
I1
s(g1
I1029
Vequals
p4876
tp4877
I2
s(g1
I176
Vprepared
p4878
tp4879
I1
s(g1
I583
VmCallback
p4880
tp4881
I1
s(g1
I145
VSet
p4882
tp4883
I1
s(g1
I574
Vsb
p4884
tp4885
I1
s(g1
I1664
VwaitRendering
p4886
tp4887
I1
s(g1
I283
VorderInScreen
p4888
tp4889
I1
s(g1
I380
Viterator
p4890
tp4891
I1
s(g1
I336
VmHandler
p4892
tp4893
I1
s(g1
I233
VlineText
p4894
tp4895
I1
s(g1
I1450
VmCachePool
p4896
tp4897
I1
s(g1
I324
VonFrameAvailableListener
p4898
tp4899
I1
s(g1
I848
VLinePath
p4900
tp4901
I1
s(g1
I281
VprepareDrawing
p4902
tp4903
I1
s(g1
I83
VgetLeft
p4904
tp4905
I1
s(g1
I1250
VmCachePool
p4906
tp4907
I1
s(g1
I193
VmPopupWindow
p4908
tp4909
I1
s(g1
I580
VentryRemoved
p4910
tp4911
I1
s(g1
I1085
VsendToTarget
p4912
tp4913
I1
s(g1
I1782
Vdanmaku
p4914
tp4915
I1
s(g1
I713
VtaskListener
p4916
tp4917
I1
s(g1
I106
VXmlContentHandler
p4918
tp4919
I1
s(g1
I179
VgetOnDanmakuClickListener
p4920
tp4921
I1
s(g1
I941
VmDanmakuView
p4922
tp4923
I1
s(g1
I677
Vtimer
p4924
tp4925
I1
s(g1
I37
Vinstance
p4926
tp4927
I1
s(g1
I300
Vbitmap
p4928
tp4929
I1
s(g1
I1421
Vcache
p4930
tp4931
I1
s(g1
I589
Vwhat
p4932
tp4933
I1
s(g1
I650
VST_BY_LIST
p4934
tp4935
I1
s(g1
I189
VBaseDanmaku
p4936
tp4937
I1
s(g1
I95
VmDisp
p4938
tp4939
I1
s(g1
I174
VlrdrInstance
p4940
tp4941
I1
s(g1
I162
Vnewest
p4942
tp4943
I1
s(g1
I256
Vreference
p4944
tp4945
I1
s(g1
I1102
VdrawTask
p4946
tp4947
I1
s(g1
I422
VsendEmptyMessage
p4948
tp4949
I1
s(g1
I243
VdrawItem
p4950
tp4951
I1
s(g1
I220
VmDanmakuView
p4952
tp4953
I1
s(g1
I1826
Vitem
p4954
tp4955
I1
s(g1
I192
Vseek
p4956
tp4957
I1
s(g1
I62
Vdisp
p4958
tp4959
I2
s(g1
I595
Vpaint
p4960
tp4961
I1
s(g1
I243
VmBtnShowDanmaku
p4962
tp4963
I1
s(g1
I1017
Vit
p4964
tp4965
I1
s(g1
I134
VdanmakuView
p4966
tp4967
I1
s(g1
I1755
Vitem
p4968
tp4969
I1
s(g1
I496
VMessage
p4970
tp4971
I1
s(g1
I1000
VhasNext
p4972
tp4973
I1
s(g1
I642
VBoolean
p4974
tp4975
I1
s(g1
I22
VField
p4976
tp4977
I1
s(g1
I666
VTimer
p4978
tp4979
I1
s(g1
I695
VmDisp
p4980
tp4981
I1
s(g1
I882
VisTimeOut
p4982
tp4983
I1
s(g1
I1309
VmPause
p4984
tp4985
I1
s(g1
I259
VstaticLayout
p4986
tp4987
I1
s(g1
I1197
VnanoTime
p4988
tp4989
I1
s(g1
I113
Vload
p4990
tp4991
I1
s(g1
I653
VgetConfig
p4992
tp4993
I1
s(g1
I1037
VevictAllNotInScreen
p4994
tp4995
I1
s(g1
I83
Vsynchronized
p4996
tp4997
I1
s(g1
I911
VisPaused
p4998
tp4999
I1
s(g1
I951
VgetAverageRenderingTime
p5000
tp5001
I1
s(g1
I213
VDanmakuIterator
p5002
tp5003
I1
s(g1
I1048
VgetCurrentTime
p5004
tp5005
I1
s(g1
I235
Vit
p5006
tp5007
I1
s(g1
I95
Vdanmaku
p5008
tp5009
I1
s(g1
I430
VOverride
p5010
tp5011
I1
s(g1
I333
Vstop
p5012
tp5013
I2
s(g1
I238
VsetOnClickListener
p5014
tp5015
I1
s(g1
I152
VmSurfaceHolder
p5016
tp5017
I1
s(g1
I1082
VmCallback
p5018
tp5019
I2
s(g1
I906
VNOTIFY_RENDERING
p5020
tp5021
I1
s(g1
I782
VupdateVisibleFlag
p5022
tp5023
I1
s(g1
I62
VSystem
p5024
tp5025
I1
s(g1
I227
Vnotify
p5026
tp5027
I1
s(g1
I302
VmParser
p5028
tp5029
I1
s(g1
I484
VLong
p5030
tp5031
I1
s(g1
I310
Vhandler
p5032
tp5033
I1
s(g1
I25
VnativeIntField
p5034
tp5035
I1
s(g1
I253
Vfilters
p5036
tp5037
I1
s(g1
I761
Vparser
p5038
tp5039
I1
s(g1
I526
VisPrepared
p5040
tp5041
I1
s(g1
I77
Vdraw
p5042
tp5043
I1
s(g1
I72
Vjson
p5044
tp5045
I1
s(g1
I519
VonPause
p5046
tp5047
I1
s(g1
I72
VmDanmakuView
p5048
tp5049
I1
s(g1
I18
VDanmakuSurfaceView
p5050
tp5051
I1
s(g1
I312
VqName
p5052
tp5053
I1
s(g1
I595
Vpoints
p5054
tp5055
I1
s(g1
I1237
VconsumingTime
p5056
tp5057
I1
s(g1
I160
VstartRenderTime
p5058
tp5059
I1
s(g1
I346
VendSubItem
p5060
tp5061
I1
s(g1
I1618
VmCallback
p5062
tp5063
I1
s(g1
I423
Vp
p5064
tp5065
I1
s(g1
I123
Ve
p5066
tp5067
I1
s(g1
I368
Vdisp
p5068
tp5069
I1
s(g1
I283
Vcreate
p5070
tp5071
I1
s(g1
I986
Viterator
p5072
tp5073
I1
s(g1
I2467
VhasNext
p5074
tp5075
I1
s(g1
I607
VcurrentTimeMillis
p5076
tp5077
I1
s(g1
I542
VonResume
p5078
tp5079
I1
s(g1
I237
Vprepare
p5080
tp5081
I1
s(g1
I115
VgetY
p5082
tp5083
I1
s(g1
I1036
Vhandler
p5084
tp5085
I2
s(g1
I129
VdanmakuView
p5086
tp5087
I1
s(g1
I49
VDanmakuSurfaceView
p5088
tp5089
I1
s(g1
I83
VisShown
p5090
tp5091
I1
s(g1
I1434
Vcount
p5092
tp5093
I1
s(g1
I995
VDanmakuFilters
p5094
tp5095
I1
s(g1
I1636
Vdanmaku
p5096
tp5097
I1
s(g1
I359
VdrawText
p5098
tp5099
I1
s(g1
I372
VmCounter
p5100
tp5101
I1
s(g1
I188
VclearCanvas
p5102
tp5103
I1
s(g1
I1371
Ve
p5104
tp5105
I1
s(g1
I270
Vy
p5106
tp5107
I1
s(g1
I751
VIDanmakus
p5108
tp5109
I1
s(g1
I348
Ve
p5110
tp5111
I2
s(g1
I695
Vitem
p5112
tp5113
I1
s(g1
I283
VmStartTimer
p5114
tp5115
I1
s(g1
I632
Vstart
p5116
tp5117
I1
s(g1
I1325
VisTimeOut
p5118
tp5119
I1
s(g1
I1009
VspannableStringBuilder
p5120
tp5121
I1
s(g1
I217
VDuration
p5122
tp5123
I1
s(g1
I388
VdanmakuList
p5124
tp5125
I1
s(g1
I337
VDanmakuFilters
p5126
tp5127
I1
s(g1
I405
VendMills
p5128
tp5129
I1
s(g1
I1229
VCLEAR_CACHES
p5130
tp5131
I1
s(g1
I154
VBaseDanmaku
p5132
tp5133
I1
s(g1
I334
VsetDanmakuStyle
p5134
tp5135
I2
s(g1
I891
Vhandled
p5136
tp5137
I1
s(g1
I907
VdrawTask
p5138
tp5139
I1
s(g1
I950
Vquit
p5140
tp5141
I1
s(g1
I569
VonDestroy
p5142
tp5143
I1
s(g1
I201
Vdanmaku
p5144
tp5145
I1
s(g1
I340
VgetLooper
p5146
tp5147
I1
s(g1
I346
VmDanmakuView
p5148
tp5149
I1
s(g1
I458
VmTimer
p5150
tp5151
I1
s(g1
I467
Vbegin
p5152
tp5153
I1
s(g1
I235
Vseek
p5154
tp5155
I1
s(g1
I28
VIDanmakus
p5156
tp5157
I1
s(g1
I1016
Vtag
p5158
tp5159
I2
s(g1
I1072
VmSkipFrames
p5160
tp5161
I1
s(g1
I141
VgetHolder
p5162
tp5163
I1
s(g1
I186
Vitem
p5164
tp5165
I1
s(g1
I347
Vend
p5166
tp5167
I1
s(g1
I152
VObject
p5168
tp5169
I1
s(g1
I340
VEnvironment
p5170
tp5171
I1
s(g1
I2101
VdanmakuSync
p5172
tp5173
I1
s(g1
I1224
VmFrameUpdateRate
p5174
tp5175
I1
s(g1
I155
Vnext
p5176
tp5177
I1
s(g1
I785
Vmills
p5178
tp5179
I1
s(g1
I1814
VsendToTarget
p5180
tp5181
I1
s(g1
I1040
VmDanmakuVisibile
p5182
tp5183
I1
s(g1
I504
Vwhat
p5184
tp5185
I1
s(g1
I998
Vwhat
p5186
tp5187
I1
s(g1
I357
VstartTime
p5188
tp5189
I1
s(g1
I40
VfindViews
p5190
tp5191
I1
s(g1
I187
Vtimer
p5192
tp5193
I1
s(g1
I677
VendItem
p5194
tp5195
I1
s(g1
I83
Vdanmaku
p5196
tp5197
I1
s(g1
I76
VT
p5198
tp5199
I1
s(g1
I136
Vdensity
p5200
tp5201
I1
s(g1
I1611
Vdanmaku
p5202
tp5203
I1
s(g1
I503
VmRealSize
p5204
tp5205
I1
s(g1
I65
VdrawItem
p5206
tp5207
I1
s(g1
I349
VaddDanmaku
p5208
tp5209
I1
s(g1
I1220
VSystemClock
p5210
tp5211
I1
s(g1
I34
VequalsIgnoreCase
p5212
tp5213
I1
s(g1
I243
VsetOnDanmakuShownListener
p5214
tp5215
I1
s(g1
I320
VmaxSize
p5216
tp5217
I1
s(g1
I1080
Vpause
p5218
tp5219
I1
s(g1
I1020
VmSkipFrames
p5220
tp5221
I1
s(g1
I395
Vsize
p5222
tp5223
I1
s(g1
I921
VhasNext
p5224
tp5225
I1
s(g1
I847
VArrayList
p5226
tp5227
I1
s(g1
I498
Vmills
p5228
tp5229
I1
s(g1
I1071
VhideAndPauseDrawTask
p5230
tp5231
I1
s(g1
I2477
Vitem
p5232
tp5233
I1
s(g1
I263
VString
p5234
tp5235
I1
s(g1
I55
Vdisp
p5236
tp5237
I1
s(g1
I315
VdrawItem
p5238
tp5239
I1
s(g1
I278
Vitem
p5240
tp5241
I1
s(g1
I2003
VevictAllNotInScreen
p5242
tp5243
I1
s(g1
I230
Vmills
p5244
tp5245
I1
s(g1
I540
VfromTimeMills
p5246
tp5247
I1
s(g1
I260
Vfit
p5248
tp5249
I1
s(g1
I1553
VsetDensities
p5250
tp5251
I1
s(g1
I270
Vcy
p5252
tp5253
I1
s(g1
I438
VmTaskListener
p5254
tp5255
I1
s(g1
I870
Vlast
p5256
tp5257
I1
s(g1
I437
Vparser
p5258
tp5259
I1
s(g1
I1022
VsendEmptyMessageDelayed
p5260
tp5261
I1
s(g1
I684
Vitr
p5262
tp5263
I1
s(g1
I1710
VBaseDanmaku
p5264
tp5265
I1
s(g1
I61
VdrawItem
p5266
tp5267
I1
s(g1
I280
VfindViewById
p5268
tp5269
I1
s(g1
I166
Vitems
p5270
tp5271
I1
s(g1
I1001
VquitFlag
p5272
tp5273
I1
s(g1
I734
Vhandler
p5274
tp5275
I1
s(g1
I1047
VsetVerifierEnabled
p5276
tp5277
I1
s(g1
I39
VIDisplayer
p5278
tp5279
I1
s(g1
I353
Vdisp
p5280
tp5281
I1
s(g1
I572
VStringBuffer
p5282
tp5283
I1
s(g1
I181
VPaint
p5284
tp5285
I1
s(g1
I243
VsetOnClickListener
p5286
tp5287
I1
s(g1
I1231
VmPause
p5288
tp5289
I1
s(g1
I157
VelapsedTime
p5290
tp5291
I1
s(g1
I503
Vsize
p5292
tp5293
I1
s(g1
I54
VmDanmakuView
p5294
tp5295
I1
s(g1
I194
VdanmakuView
p5296
tp5297
I1
s(g1
I76
VdrawItem
p5298
tp5299
I1
s(g1
I302
VpausedPostion
p5300
tp5301
I1
s(g1
I321
Vitem
p5302
tp5303
I1
s(g1
I2088
VgetSyncState
p5304
tp5305
I1
s(g1
I1330
VentryRemoved
p5306
tp5307
I1
s(g1
I493
VmThread
p5308
tp5309
I1
s(g1
I1075
Vhandler
p5310
tp5311
I1
s(g1
I641
VmHandler
p5312
tp5313
I2
s(g1
I168
VreleaseDataSource
p5314
tp5315
I1
s(g1
I165
VmRenderer
p5316
tp5317
I1
s(g1
I444
Vhandler
p5318
tp5319
I1
s(g1
I376
Vtimer
p5320
tp5321
I1
s(g1
I224
VOverride
p5322
tp5323
I1
s(g1
I717
VseekBy
p5324
tp5325
I1
s(g1
I876
VquitDrawTask
p5326
tp5327
I1
s(g1
I320
VString
p5328
tp5329
I1
s(g1
I235
VmTaskListener
p5330
tp5331
I1
s(g1
I596
VmDanmakuView
p5332
tp5333
I1
s(g1
I873
VdrawTask
p5334
tp5335
I1
s(g1
I50
Vitr
p5336
tp5337
I2
s(g1
I348
VLog
p5338
tp5339
I1
s(g1
I636
VmDrawTimes
p5340
tp5341
I1
s(g1
I1042
Vstart
p5342
tp5343
I1
s(g1
I276
VgetStableLeft
p5344
tp5345
I1
s(g1
I268
VmDuplicateMergingEnable
p5346
tp5347
I1
s(g1
I250
Vremove
p5348
tp5349
I1
s(g1
I668
Vhandler
p5350
tp5351
I1
s(g1
I633
VcurrentTimeMillis
p5352
tp5353
I1
s(g1
I1011
VmaxCacheDuration
p5354
tp5355
I1
s(g1
I141
VString
p5356
tp5357
I1
s(g1
I194
VgetCurrentPosition
p5358
tp5359
I1
s(g1
I675
VSEEK_POS
p5360
tp5361
I1
s(g1
I76
Vmeasure
p5362
tp5363
I1
s(g1
I358
Vdtime
p5364
tp5365
I1
s(g1
I1045
VMath
p5366
tp5367
I1
s(g1
I77
VmSize
p5368
tp5369
I1
s(g1
I371
Vtimer
p5370
tp5371
I1
s(g1
I1280
Vupdate
p5372
tp5373
I1
s(g1
I103
VxmlReader
p5374
tp5375
I1
s(g1
I975
VQUIT
p5376
tp5377
I1
s(g1
I351
VclearCanvas
p5378
tp5379
I1
s(g1
I2026
VList
p5380
tp5381
I1
s(g1
I615
Vtimer
p5382
tp5383
I1
s(g1
I1049
VclearDanmakusOnScreen
p5384
tp5385
I1
s(g1
I991
VhasNext
p5386
tp5387
I1
s(g1
I1245
Vupdate
p5388
tp5389
I1
s(g1
I584
VstrokeLeft
p5390
tp5391
I1
s(g1
I585
VnotifyDispSizeChanged
p5392
tp5393
I2
s(g1
I234
VtagName
p5394
tp5395
I1
s(g1
I824
Vnext
p5396
tp5397
I1
s(g1
I664
Vhandler
p5398
tp5399
I1
s(g1
I83
Vstatic
p5400
tp5401
I31
s(g1
I955
VpausedPostion
p5402
tp5403
I1
s(g1
I41
VIterator
p5404
tp5405
I2
s(g1
I546
VmDanmakuView
p5406
tp5407
I1
s(g1
I119
VString
p5408
tp5409
I1
s(g1
I438
VaverageHeight
p5410
tp5411
I1
s(g1
I146
Vscheme
p5412
tp5413
I1
s(g1
I3173
VforceInsert
p5414
tp5415
I1
s(g1
I873
Vitr
p5416
tp5417
I1
s(g1
I712
VmParser
p5418
tp5419
I1
s(g1
I190
Vtimer
p5420
tp5421
I1
s(g1
I1724
VsendToTarget
p5422
tp5423
I1
s(g1
I702
Vget
p5424
tp5425
I1
s(g1
I900
Vcontext
p5426
tp5427
I1
s(g1
I164
VonDanmakuConfigChanged
p5428
tp5429
I1
s(g1
I395
VstopDraw
p5430
tp5431
I1
s(g1
I195
Vresult
p5432
tp5433
I1
s(g1
I1036
VhideDanmakus
p5434
tp5435
I1
s(g1
I2078
VAbsDanmakuSync
p5436
tp5437
I1
s(g1
I1605
VevictAll
p5438
tp5439
I1
s(g1
I187
VmDataSource
p5440
tp5441
I1
s(g1
I314
VVideoView
p5442
tp5443
I2
s(g1
I1083
VRESUME
p5444
tp5445
I1
s(g1
I266
VstartDraw
p5446
tp5447
I1
s(g1
I427
VsetOnDanmakuClickListener
p5448
tp5449
I1
s(g1
I1052
VmTaskListener
p5450
tp5451
I1
s(g1
I746
Vit
p5452
tp5453
I1
s(g1
I653
Vformat
p5454
tp5455
I1
s(g1
I558
VclearCanvas
p5456
tp5457
I1
s(g1
I548
VmCacheManager
p5458
tp5459
I1
s(g1
I532
VmDanmakuView
p5460
tp5461
I1
s(g1
I873
VupdateSyncOffsetTimeFlag
p5462
tp5463
I1
s(g1
I453
Vhandler
p5464
tp5465
I1
s(g1
I78
Vlen
p5466
tp5467
I1
s(g1
I41
VsetTextSize
p5468
tp5469
I1
s(g1
I66
Vpool
p5470
tp5471
I1
s(g1
I1740
VonPause
p5472
tp5473
I1
s(g1
I676
VcreateItem
p5474
tp5475
I1
s(g1
I70
VR2L_DANMAKU_VISIBILIY
p5476
tp5477
I1
s(g1
I345
Vdisp
p5478
tp5479
I1
s(g1
I1092
VUPDATE
p5480
tp5481
I1
s(g1
I263
Vhandler
p5482
tp5483
I1
s(g1
I56
VmDispWidth
p5484
tp5485
I1
s(g1
I1207
VmThresholdTime
p5486
tp5487
I1
s(g1
I72
Vcanvas
p5488
tp5489
I1
s(g1
I869
VconsumingTime
p5490
tp5491
I1
s(g1
I53
VorderInScreen
p5492
tp5493
I1
s(g1
I477
VeraseBitmap
p5494
tp5495
I1
s(g1
I1083
VobtainMessage
p5496
tp5497
I1
s(g1
I1635
VgetYOff
p5498
tp5499
I1
s(g1
I624
VlastTime
p5500
tp5501
I1
s(g1
I944
VnotifyAll
p5502
tp5503
I1
s(g1
I373
Vitem
p5504
tp5505
I1
s(g1
I1136
VsetLastFrameRenderingTime
p5506
tp5507
I1
s(g1
I1047
VmRenderer
p5508
tp5509
I1
s(g1
I95
Vdisp
p5510
tp5511
I1
s(g1
I301
VsendEmptyMessage
p5512
tp5513
I1
s(g1
I114
VOverride
p5514
tp5515
I1
s(g1
I189
VmCacheManager
p5516
tp5517
I1
s(g1
I225
VsetVideoPath
p5518
tp5519
I1
s(g1
I1421
VisTimeOut
p5520
tp5521
I1
s(g1
I110
VINVISIBLE
p5522
tp5523
I2
s(g1
I152
VdrawItem
p5524
tp5525
I1
s(g1
I216
Vfilter
p5526
tp5527
I1
s(g1
I99
Vsleep
p5528
tp5529
I1
s(g1
I259
VBaseDanmaku
p5530
tp5531
I2
s(g1
I1197
VBaseDanmaku
p5532
tp5533
I1
s(g1
I603
VupdateMeasureFlag
p5534
tp5535
I1
s(g1
I365
Vleft
p5536
tp5537
I1
s(g1
I1617
VlineCount
p5538
tp5539
I1
s(g1
I471
VmCurrentWidth
p5540
tp5541
I1
s(g1
I769
VmDanmakusVisible
p5542
tp5543
I1
s(g1
I56
VT
p5544
tp5545
I1
s(g1
I152
VsetFormat
p5546
tp5547
I1
s(g1
I958
VdrawTask
p5548
tp5549
I1
s(g1
I249
VremoveAllDanmakus
p5550
tp5551
I1
s(g1
I212
VdrawColor
p5552
tp5553
I1
s(g1
I559
VLong
p5554
tp5555
I1
s(g1
I696
VseekPos
p5556
tp5557
I1
s(g1
I1774
VBIND_CACHE
p5558
tp5559
I1
s(g1
I356
VmLastDanmaku
p5560
tp5561
I1
s(g1
I391
VclearFlag
p5562
tp5563
I1
s(g1
I123
Vleft
p5564
tp5565
I1
s(g1
I564
Vsubset
p5566
tp5567
I1
s(g1
I1781
VmNonBlockModeEnable
p5568
tp5569
I1
s(g1
I1446
VremoveAllLiveDanmakus
p5570
tp5571
I1
s(g1
I546
VIDanmakus
p5572
tp5573
I1
s(g1
I1727
VBoolean
p5574
tp5575
I1
s(g1
I370
VendPos
p5576
tp5577
I1
s(g1
I916
Viterator
p5578
tp5579
I1
s(g1
I125
VsetZOrderMediaOverlay
p5580
tp5581
I1
s(g1
I63
VdrawText
p5582
tp5583
I1
s(g1
I160
Vcapacity
p5584
tp5585
I1
s(g1
I227
VdanmakuList
p5586
tp5587
I1
s(g1
I161
VString
p5588
tp5589
I1
s(g1
I256
VRectPoolableCache
p5590
tp5591
I1
s(g1
I60
Vh
p5592
tp5593
I1
s(g1
I1245
VnotifyDispSizeChanged
p5594
tp5595
I1
s(g1
I292
Vdanmaku
p5596
tp5597
I1
s(g1
I126
Vh
p5598
tp5599
I1
s(g1
I1091
VhasReferences
p5600
tp5601
I1
s(g1
I1274
VSystem
p5602
tp5603
I1
s(g1
I562
VLong
p5604
tp5605
I1
s(g1
I53
g310
tp5606
I1
s(g1
I925
VnotifyRendering
p5607
tp5608
I1
s(g1
I127
Vequals
p5609
tp5610
I1
s(g1
I1571
VaddDanmaku
p5611
tp5612
I1
s(g1
I195
Vms
p5613
tp5614
I1
s(g1
I126
VBitmap
p5615
tp5616
I1
s(g1
I56
Vcanvas
p5617
tp5618
I2
s(g1
I1073
Vupdate
p5619
tp5620
I2
s(g1
I1424
Vd
p5621
tp5622
I1
s(g1
I1008
VonClick
p5623
tp5624
I1
s(g1
I318
VSurfaceHolder
p5625
tp5626
I1
s(g1
I1748
Vcacheitem
p5627
tp5628
I1
s(g1
I1626
Vwidth
p5629
tp5630
I1
s(g1
I562
VonResume
p5631
tp5632
I1
s(g1
I92
VisEmpty
p5633
tp5634
I1
s(g1
I661
VmDanmakuVisibile
p5635
tp5636
I1
s(g1
I137
VPaint
p5637
tp5638
I1
s(g1
I341
VmParser
p5639
tp5640
I1
s(g1
I151
VcurrTime
p5641
tp5642
I1
s(g1
I1008
VgetAverageRenderingTime
p5643
tp5644
I1
s(g1
I746
VendMills
p5645
tp5646
I1
s(g1
I313
Ve
p5647
tp5648
I1
s(g1
I689
VtaskListener
p5649
tp5650
I1
s(g1
I408
Vdanmakus
p5651
tp5652
I1
s(g1
I176
VOverride
p5653
tp5654
I1
s(g1
I324
VmediaPlayer
p5655
tp5656
I1
s(g1
I31
VPAINT
p5657
tp5658
I2
s(g1
I746
VdanmakuList
p5659
tp5660
I1
s(g1
I140
VJSONException
p5661
tp5662
I1
s(g1
I865
VBoolean
p5663
tp5664
I1
s(g1
I49
Vclear
p5665
tp5666
I1
s(g1
I155
Vuri
p5667
tp5668
I1
s(g1
I1786
Vdanmaku
p5669
tp5670
I2
s(g1
I301
VStaticLayout
p5671
tp5672
I1
s(g1
I304
Vstart
p5673
tp5674
I1
s(g1
I586
Vclear
p5675
tp5676
I1
s(g1
I350
VclearCaches
p5677
tp5678
I1
s(g1
I75
Vtext
p5679
tp5680
I1
s(g1
I217
VstartDocument
p5681
tp5682
I1
s(g1
I159
Vcanvas
p5683
tp5684
I1
s(g1
I247
Vitem
p5685
tp5686
I1
s(g1
I716
Vms
p5687
tp5688
I1
s(g1
I1004
Vspan
p5689
tp5690
I1
s(g1
I992
Vseek
p5691
tp5692
I1
s(g1
I1181
VOverride
p5693
tp5694
I1
s(g1
I366
Vitem
p5695
tp5696
I1
s(g1
I501
Vcanvas
p5697
tp5698
I1
s(g1
I281
VlocalName
p5699
tp5700
I1
s(g1
I646
VmHandler
p5701
tp5702
I1
s(g1
I987
Vit
p5703
tp5704
I1
s(g1
I1217
VframeCount
p5705
tp5706
I1
s(g1
I33
VonCreate
p5707
tp5708
I1
s(g1
I58
Vstream
p5709
tp5710
I1
s(g1
I228
VisFiltered
p5711
tp5712
I1
s(g1
I289
Vstream
p5713
tp5714
I1
s(g1
I136
Vdisplayer
p5715
tp5716
I1
s(g1
I648
VsendToTarget
p5717
tp5718
I1
s(g1
I1070
VSystem
p5719
tp5720
I2
s(g1
I231
Vcanvas
p5721
tp5722
I1
s(g1
I365
VCanvas
p5723
tp5724
I1
s(g1
I715
VOverride
p5725
tp5726
I1
s(g1
I380
Vdanmakus
p5727
tp5728
I1
s(g1
I1443
Vit
p5729
tp5730
I1
s(g1
I108
Vvisibility
p5731
tp5732
I2
s(g1
I882
Vobj2
p5733
tp5734
I1
s(g1
I102
VXMLReaderFactory
p5735
tp5736
I1
s(g1
I83
VsetColor
p5737
tp5738
I1
s(g1
I576
VdrawTask
p5739
tp5740
I1
s(g1
I1023
Vhandled
p5741
tp5742
I2
s(g1
I379
VOverride
p5743
tp5744
I1
s(g1
I1197
VmSkipFrames
p5745
tp5746
I1
s(g1
I1046
VSystem
p5747
tp5748
I1
s(g1
I580
VendMills
p5749
tp5750
I1
s(g1
I235
VdrawItem
p5751
tp5752
I1
s(g1
I966
Vitem
p5753
tp5754
I1
s(g1
I666
VCacheManagingDrawTask
p5755
tp5756
I1
s(g1
I736
VBaseDanmaku
p5757
tp5758
I1
s(g1
I657
Vb
p5759
tp5760
I1
s(g1
I513
VmStartRenderTime
p5761
tp5762
I1
s(g1
I853
Vit
p5763
tp5764
I1
s(g1
I387
Vcanvas
p5765
tp5766
I1
s(g1
I877
Vitr
p5767
tp5768
I1
s(g1
I389
Vremeasure
p5769
tp5770
I1
s(g1
I158
Vinit
p5771
tp5772
I1
s(g1
I615
VBaseDanmaku
p5773
tp5774
I1
s(g1
I755
VsendEmptyMessage
p5775
tp5776
I2
s(g1
I47
VDanmakuTimer
p5777
tp5778
I2
s(g1
I1370
VcurrScreenIndex
p5779
tp5780
I1
s(g1
I637
Vstart
p5781
tp5782
I1
s(g1
I223
VButton
p5783
tp5784
I1
s(g1
I188
VdanmakuView
p5785
tp5786
I2
s(g1
I951
VnewCache
p5787
tp5788
I1
s(g1
I1315
VLog
p5789
tp5790
I1
s(g1
I175
Vseek
p5791
tp5792
I1
s(g1
I315
Vpaint
p5793
tp5794
I2
s(g1
I277
Vtext
p5795
tp5796
I1
s(g1
I199
Vitems
p5797
tp5798
I1
s(g1
I1187
Vrunnable
p5799
tp5800
I1
s(g1
I83
Vdisplayer
p5801
tp5802
I1
s(g1
I361
VendTime
p5803
tp5804
I1
s(g1
I1012
Vequals
p5805
tp5806
I1
s(g1
I466
VisRecycled
p5807
tp5808
I1
s(g1
I1034
Ve
p5809
tp5810
I1
s(g1
I202
VmCache
p5811
tp5812
I1
s(g1
I653
VmBufferCanvas
p5813
tp5814
I1
s(g1
I225
VqName
p5815
tp5816
I1
s(g1
I1370
Vskip
p5817
tp5818
I1
s(g1
I1604
VOverride
p5819
tp5820
I1
s(g1
I488
VtestDalvikBitmaps
p5821
tp5822
I1
s(g1
I64
VstartTime
p5823
tp5824
I1
s(g1
I95
Vc
p5825
tp5826
I1
s(g1
I564
VgetWidth
p5827
tp5828
I1
s(g1
I165
VANTI_ALIAS_DISABLE_SIZE
p5829
tp5830
I1
s(g1
I498
VisStop
p5831
tp5832
I1
s(g1
I1019
VRESUME
p5833
tp5834
I1
s(g1
I1056
VmDisp
p5835
tp5836
I1
s(g1
I218
VmPopupWindow
p5837
tp5838
I1
s(g1
I879
VdrawTask
p5839
tp5840
I1
s(g1
I130
VrldrInstance
p5841
tp5842
I1
s(g1
I296
VmBtnRotate
p5843
tp5844
I1
s(g1
I1551
VsendEmptyMessage
p5845
tp5846
I1
s(g1
I405
VclearFlag
p5847
tp5848
I1
s(g1
I1054
VmContext
p5849
tp5850
I1
s(g1
I81
VmPool
p5851
tp5852
I1
s(g1
I394
Vstart
p5853
tp5854
I1
s(g1
I644
VNativeBitmapFactory
p5855
tp5856
I1
s(g1
I156
VDanmakuFilters
p5857
tp5858
I1
s(g1
I323
Vdanmakus
p5859
tp5860
I1
s(g1
I165
VdrawColor
p5861
tp5862
I1
s(g1
I242
Vdanmaku
p5863
tp5864
I1
s(g1
I629
VlastTime
p5865
tp5866
I1
s(g1
I177
Vdanmaku
p5867
tp5868
I1
s(g1
I122
VT
p5869
tp5870
I1
s(g1
I1478
VmReadyState
p5871
tp5872
I1
s(g1
I1456
Vlevel
p5873
tp5874
I1
s(g1
I22
VPaint
p5875
tp5876
I1
s(g1
I387
VDrawHelper
p5877
tp5878
I1
s(g1
I1427
Vrelease
p5879
tp5880
I1
s(g1
I845
VmCallback
p5881
tp5882
I1
s(g1
I1084
VonDanmakuAdd
p5883
tp5884
I1
s(g1
I680
VdanmakuList
p5885
tp5886
I1
s(g1
I810
Vvalues
p5887
tp5888
I1
s(g1
I1444
Vlevel
p5889
tp5890
I1
s(g1
I205
VhasPassedFilter
p5891
tp5892
I1
s(g1
I1102
Vitem
p5893
tp5894
I1
s(g1
I182
Vitem
p5895
tp5896
I1
s(g1
I1220
Vsleep
p5897
tp5898
I1
s(g1
I853
Vremove
p5899
tp5900
I1
s(g1
I132
VDanmakus
p5901
tp5902
I2
s(g1
I281
Vdanmaku
p5903
tp5904
I1
s(g1
I372
VgetWidth
p5905
tp5906
I1
s(g1
I22
VDanmakuTimer
p5907
tp5908
I1
s(g1
I223
VdanmakuList
p5909
tp5910
I1
s(g1
I394
VupdateHeapValue
p5911
tp5912
I1
s(g1
I1087
VsetListener
p5913
tp5914
I1
s(g1
I1301
VLog
p5915
tp5916
I1
s(g1
I562
Vdtime
p5917
tp5918
I1
s(g1
I2472
VBaseDanmaku
p5919
tp5920
I1
s(g1
I209
Vupdate
p5921
tp5922
I2
s(g1
I355
VmThread
p5923
tp5924
I1
s(g1
I623
VSystem
p5925
tp5926
I1
s(g1
I483
VsendEmptyMessage
p5927
tp5928
I1
s(g1
I430
Vtransparency
p5929
tp5930
I1
s(g1
I81
VdrawDanmakus
p5931
tp5932
I1
s(g1
I198
VelapsedTime
p5933
tp5934
I1
s(g1
I183
VmLoader
p5935
tp5936
I1
s(g1
I684
Vcache
p5937
tp5938
I1
s(g1
I298
Vcanvas
p5939
tp5940
I1
s(g1
I61
Vtext
p5941
tp5942
I1
s(g1
I500
Vreset
p5943
tp5944
I1
s(g1
I368
VBaseDanmaku
p5945
tp5946
I1
s(g1
I1276
VstartTime
p5947
tp5948
I1
s(g1
I308
Vget
p5949
tp5950
I1
s(g1
I23
VSystem
p5951
tp5952
I1
s(g1
I152
Vbitmap
p5953
tp5954
I1
s(g1
I254
VsetOnPreparedListener
p5955
tp5956
I1
s(g1
I1020
Vconsumer
p5957
tp5958
I1
s(g1
I150
Vtag
p5959
tp5960
I1
s(g1
I432
Vval
p5961
tp5962
I1
s(g1
I1085
VmTaskListener
p5963
tp5964
I1
s(g1
I720
VseekTo
p5965
tp5966
I1
s(g1
I66
VmPool
p5967
tp5968
I1
s(g1
I140
Vbitmap
p5969
tp5970
I1
s(g1
I864
Vitem
p5971
tp5972
I1
s(g1
I316
VmRealSize
p5973
tp5974
I1
s(g1
I719
VOverride
p5975
tp5976
I1
s(g1
I894
VremoveMessages
p5977
tp5978
I1
s(g1
I59
Vnext
p5979
tp5980
I2
s(g1
I1021
VwaitTime
p5981
tp5982
I1
s(g1
I409
VclearCanvas
p5983
tp5984
I1
s(g1
I444
VsetParser
p5985
tp5986
I1
s(g1
I1011
VwaitTime
p5987
tp5988
I1
s(g1
I321
VSystem
p5989
tp5990
I1
s(g1
I569
Vmax
p5991
tp5992
I1
s(g1
I622
Vitems
p5993
tp5994
I1
s(g1
I187
VIterator
p5995
tp5996
I1
s(g1
I98
Vc
p5997
tp5998
I1
s(g1
I892
VContext
p5999
tp6000
I1
s(g1
I267
VDanmakuUtils
p6001
tp6002
I1
s(g1
I335
VIDanmakuView
p6003
tp6004
I1
s(g1
I1049
Vtimer
p6005
tp6006
I1
s(g1
I1119
Vsize
p6007
tp6008
I1
s(g1
I363
VfindViewById
p6009
tp6010
I1
s(g1
I546
VstartTime
p6011
tp6012
I1
s(g1
I600
Vj
p6013
tp6014
I1
s(g1
I95
Vtop
p6015
tp6016
I1
s(g1
I1704
VisEmpty
p6017
tp6018
I1
s(g1
I513
Vtop
p6019
tp6020
I1
s(g1
I200
Ve
p6021
tp6022
I1
s(g1
I491
VstartTime
p6023
tp6024
I1
s(g1
I341
VmHandler
p6025
tp6026
I1
s(g1
I1427
Vcache
p6027
tp6028
I1
s(g1
I74
Vequals
p6029
tp6030
I1
s(g1
I361
Vright
p6031
tp6032
I1
s(g1
I521
Vv
p6033
tp6034
I1
s(g1
I167
VsetVisibility
p6035
tp6036
I1
s(g1
I1274
VseekMills
p6037
tp6038
I1
s(g1
I845
VmSortType
p6039
tp6040
I1
s(g1
I645
VIDanmakus
p6041
tp6042
I1
s(g1
I902
Vcanvas
p6043
tp6044
I1
s(g1
I694
VgetLooper
p6045
tp6046
I1
s(g1
I331
Ve
p6047
tp6048
I1
s(g1
I84
Vmeasure
p6049
tp6050
I1
s(g1
I151
VtextHeight
p6051
tp6052
I1
s(g1
I307
VInterruptedException
p6053
tp6054
I1
s(g1
I1021
VhasNext
p6055
tp6056
I1
s(g1
I903
Vitems
p6057
tp6058
I1
s(g1
I1105
VdeltaMs
p6059
tp6060
I1
s(g1
I363
VstartTime
p6061
tp6062
I1
s(g1
I227
VmDrawingNotify
p6063
tp6064
I1
s(g1
I479
Vpause
p6065
tp6066
I1
s(g1
I846
Vmills
p6067
tp6068
I1
s(g1
I1689
Vdanmakus
p6069
tp6070
I1
s(g1
I308
VviewType
p6071
tp6072
I1
s(g1
I1458
Vcache
p6073
tp6074
I1
s(g1
I771
VquitFlag
p6075
tp6076
I1
s(g1
I127
VrldrInstance
p6077
tp6078
I1
s(g1
I25
VILoader
p6079
tp6080
I1
s(g1
I95
Vfix
p6081
tp6082
I1
s(g1
I1088
Vd
p6083
tp6084
I2
s(g1
I1547
VBUILD_CACHES
p6085
tp6086
I1
s(g1
I133
Vdensity
p6087
tp6088
I1
s(g1
I140
Vdisplayer
p6089
tp6090
I1
s(g1
I36
Vdisp
p6091
tp6092
I1
s(g1
I331
VmLiveDanmakus
p6093
tp6094
I1
s(g1
I701
VgetMemoryClass
p6095
tp6096
I1
s(g1
I764
VsendEmptyMessage
p6097
tp6098
I2
s(g1
I137
Vcapacity
p6099
tp6100
I1
s(g1
I886
VquitDrawTask
p6101
tp6102
I1
s(g1
I129
VDanmakusRetainer
p6103
tp6104
I1
s(g1
I540
VtoTimeMills
p6105
tp6106
I1
s(g1
I562
Vhandler
p6107
tp6108
I1
s(g1
I1431
Vcache
p6109
tp6110
I1
s(g1
I371
VSoftReference
p6111
tp6112
I1
s(g1
I511
Vobj1
p6113
tp6114
I1
s(g1
I1040
VcurrentTimeMillis
p6115
tp6116
I1
s(g1
I39
VCpuInfo
p6117
tp6118
I1
s(g1
I1641
VmRequestRender
p6119
tp6120
I1
s(g1
I401
Vitems
p6121
tp6122
I1
s(g1
I1177
VOverride
p6123
tp6124
I1
s(g1
I232
Vdisp
p6125
tp6126
I1
s(g1
I1100
VmTouchHelper
p6127
tp6128
I1
s(g1
I513
Ve
p6129
tp6130
I1
s(g1
I178
Vload
p6131
tp6132
I1
s(g1
I253
Vvalues
p6133
tp6134
I1
s(g1
I34
Vpaint
p6135
tp6136
I1
s(g1
I1431
VrequestCanvasClear
p6137
tp6138
I1
s(g1
I873
VhasNext
p6139
tp6140
I1
s(g1
I173
VmVideoView
p6141
tp6142
I1
s(g1
I188
Vindex
p6143
tp6144
I1
s(g1
I994
Vspan
p6145
tp6146
I1
s(g1
I635
VOverride
p6147
tp6148
I1
s(g1
I55
VorderInScreen
p6149
tp6150
I1
s(g1
I1407
VCLEAR_ALL_OUTSIDE_CACHES
p6151
tp6152
I1
s(g1
I111
VBufferedInputStream
p6153
tp6154
I1
s(g1
I1452
VisMaxLinesLimited
p6155
tp6156
I1
s(g1
I1300
Vdanmakus
p6157
tp6158
I1
s(g1
I516
VSystem
p6159
tp6160
I1
s(g1
I372
VfindViewById
p6161
tp6162
I1
s(g1
I251
VonPrepared
p6163
tp6164
I1
s(g1
I1001
VcurrentTimeMillis
p6165
tp6166
I1
s(g1
I1625
VupdateTimer
p6167
tp6168
I1
s(g1
I1104
VmTouchHelper
p6169
tp6170
I1
s(g1
I1090
VOverride
p6171
tp6172
I1
s(g1
I167
Vitem
p6173
tp6174
I1
s(g1
I54
VInputStream
p6175
tp6176
I1
s(g1
I179
Vdisplayer
p6177
tp6178
I1
s(g1
I411
VIterator
p6179
tp6180
I1
s(g1
I63
VJSONObject
p6181
tp6182
I1
s(g1
I1040
VBaseDanmaku
p6183
tp6184
I1
s(g1
I107
VfbdrInstance
p6185
tp6186
I1
s(g1
I2008
VmCacheTimer
p6187
tp6188
I1
s(g1
I502
Vwhat
p6189
tp6190
I1
s(g1
I35
VSystem
p6191
tp6192
I1
s(g1
I639
VBoolean
p6193
tp6194
I1
s(g1
I341
Vdisp
p6195
tp6196
I1
s(g1
I1390
Vreset
p6197
tp6198
I1
s(g1
I83
VmVideoView
p6199
tp6200
I1
s(g1
I817
Vtag
p6201
tp6202
I1
s(g1
I113
VgetHeight
p6203
tp6204
I1
s(g1
I507
Vsleep
p6205
tp6206
I1
s(g1
I273
Vattributes
p6207
tp6208
I1
s(g1
I995
Vitems
p6209
tp6210
I1
s(g1
I84
VString
p6211
tp6212
I2
s(g1
I377
Vsub
p6213
tp6214
I1
s(g1
I114
Vpaint
p6215
tp6216
I1
s(g1
I93
VdrawCache
p6217
tp6218
I1
s(g1
I373
Vresume
p6219
tp6220
I1
s(g1
I254
VremoveAllDanmakus
p6221
tp6222
I1
s(g1
I868
VquitDrawTask
p6223
tp6224
I1
s(g1
I521
VmBtnPauseDanmaku
p6225
tp6226
I1
s(g1
I832
Vcanvas
p6227
tp6228
I1
s(g1
I1233
VclearTimeOutCaches
p6229
tp6230
I1
s(g1
I64
VmDanmakuView
p6231
tp6232
I1
s(g1
I29
VRuntime
p6233
tp6234
I1
s(g1
I185
VView
p6235
tp6236
I1
s(g1
I1046
VisStop
p6237
tp6238
I1
s(g1
I668
Vtimer
p6239
tp6240
I1
s(g1
I904
Vhandler
p6241
tp6242
I1
s(g1
I121
VsetOnClickListener
p6243
tp6244
I1
s(g1
I486
Vd
p6245
tp6246
I1
s(g1
I81
VfindViewById
p6247
tp6248
I1
s(g1
I921
Vsize
p6249
tp6250
I1
s(g1
I369
VgetContext
p6251
tp6252
I1
s(g1
I808
VObject
p6253
tp6254
I1
s(g1
I220
VdanmakuList
p6255
tp6256
I1
s(g1
I216
Viterator
p6257
tp6258
I1
s(g1
I585
VmDisp
p6259
tp6260
I2
s(g1
I504
VupdateVisibleFlag
p6261
tp6262
I1
s(g1
I234
VtoLowerCase
p6263
tp6264
I1
s(g1
I945
Venable
p6265
tp6266
I1
s(g1
I1208
VframeCount
p6267
tp6268
I1
s(g1
I495
Vwhat
p6269
tp6270
I1
s(g1
I1051
Vhandler
p6271
tp6272
I1
s(g1
I1031
VoldValue
p6273
tp6274
I1
s(g1
I166
Vscheme
p6275
tp6276
I1
s(g1
I703
Vsize
p6277
tp6278
I1
s(g1
I213
Vmills
p6279
tp6280
I1
s(g1
I827
Vdraw
p6281
tp6282
I1
s(g1
I124
Vholder
p6283
tp6284
I1
s(g1
I281
VSurfaceHolder
p6285
tp6286
I1
s(g1
I921
VSystem
p6287
tp6288
I1
s(g1
I1545
VgetDisplayMetrics
p6289
tp6290
I1
s(g1
I1394
VmReadyState
p6291
tp6292
I1
s(g1
I436
VaddDanmaku
p6293
tp6294
I1
s(g1
I639
VDanmakuContext
p6295
tp6296
I1
s(g1
I517
Vprepared
p6297
tp6298
I1
s(g1
I412
VBaseDanmaku
p6299
tp6300
I1
s(g1
I195
VSystem
p6301
tp6302
I1
s(g1
I931
VDanmakuFilters
p6303
tp6304
I1
s(g1
I39
VMenu
p6305
tp6306
I1
s(g1
I849
Vval
p6307
tp6308
I1
s(g1
I157
VIOException
p6309
tp6310
I1
s(g1
I145
Vset
p6311
tp6312
I1
s(g1
I292
VDanmakus
p6313
tp6314
I1
s(g1
I49
VisInNativeAlloc
p6315
tp6316
I1
s(g1
I84
Vdisp
p6317
tp6318
I1
s(g1
I110
VmDanmakuView
p6319
tp6320
I1
s(g1
I364
VstopDraw
p6321
tp6322
I1
s(g1
I450
Vcanvas
p6323
tp6324
I1
s(g1
I706
VmCacheManager
p6325
tp6326
I1
s(g1
I115
Vfix
p6327
tp6328
I1
s(g1
I149
VgetLeft
p6329
tp6330
I1
s(g1
I752
VupdateVisibleFlag
p6331
tp6332
I1
s(g1
I170
VgetOnDanmakuClickListener
p6333
tp6334
I1
s(g1
I163
VdrawItem
p6335
tp6336
I1
s(g1
I512
Vmills
p6337
tp6338
I1
s(g1
I252
Vdisplayer
p6339
tp6340
I1
s(g1
I558
Vcanvas
p6341
tp6342
I1
s(g1
I97
VSystem
p6343
tp6344
I1
s(g1
I123
Vcontext
p6345
tp6346
I2
s(g1
I330
VmEndTimeMills
p6347
tp6348
I1
s(g1
I1032
VdrawDanmakus
p6349
tp6350
I1
s(g1
I67
VdeltaDuration
p6351
tp6352
I1
s(g1
I829
Vitem
p6353
tp6354
I1
s(g1
I862
VmEnableDanmakuDrwaingCache
p6355
tp6356
I1
s(g1
I634
VisPrepared
p6357
tp6358
I1
s(g1
I59
Vitr
p6359
tp6360
I3
s(g1
I1030
VOverride
p6361
tp6362
I1
s(g1
I30
Vdanmakus
p6363
tp6364
I1
s(g1
I326
VviewHolders
p6365
tp6366
I1
s(g1
I547
VcompareTo
p6367
tp6368
I1
s(g1
I96
VView
p6369
tp6370
I1
s(g1
I327
VDanmakus
p6371
tp6372
I1
s(g1
I653
Vstop
p6373
tp6374
I1
s(g1
I1219
Vi
p6375
tp6376
I1
s(g1
I1296
VQUIT
p6377
tp6378
I1
s(g1
I1002
Vtext
p6379
tp6380
I1
s(g1
I1015
VBUILD_CACHES
p6381
tp6382
I1
s(g1
I267
VString
p6383
tp6384
I1
s(g1
I859
Vmills
p6385
tp6386
I1
s(g1
I1558
VmDisp
p6387
tp6388
I1
s(g1
I1113
VonTouchEvent
p6389
tp6390
I1
s(g1
I69
Vmeasure
p6391
tp6392
I1
s(g1
I45
Vw
p6393
tp6394
I1
s(g1
I554
Vquit
p6395
tp6396
I1
s(g1
I690
VgetMainLooper
p6397
tp6398
I1
s(g1
I1008
VBaseDanmaku
p6399
tp6400
I1
s(g1
I1704
Vdanmakus
p6401
tp6402
I1
s(g1
I844
VInterruptedException
p6403
tp6404
I1
s(g1
I1055
VdTime
p6405
tp6406
I1
s(g1
I365
Vtop
p6407
tp6408
I1
s(g1
I854
Vi
p6409
tp6410
I1
s(g1
I1594
VonDanmakusDrawingFinished
p6411
tp6412
I1
s(g1
I101
VmPopupWindow
p6413
tp6414
I1
s(g1
I130
VBaseDanmaku
p6415
tp6416
I1
s(g1
I186
Vpaint
p6417
tp6418
I1
s(g1
I577
VgetLooper
p6419
tp6420
I1
s(g1
I61
Vholder
p6421
tp6422
I1
s(g1
I61
VfixedTop
p6423
tp6424
I1
s(g1
I53
VDanmakuFilters
p6425
tp6426
I1
s(g1
I1766
VhideDanmakus
p6427
tp6428
I1
s(g1
I1178
VOverride
p6429
tp6430
I1
s(g1
I1042
VisPreventOverlappingEnabled
p6431
tp6432
I1
s(g1
I808
VBaseDanmaku
p6433
tp6434
I1
s(g1
I45
Vend
p6435
tp6436
I1
s(g1
I370
Vdanmakus
p6437
tp6438
I1
s(g1
I934
VregisterFilter
p6439
tp6440
I1
s(g1
I1680
Vset
p6441
tp6442
I1
s(g1
I1679
VmDisp
p6443
tp6444
I1
s(g1
I1471
VBoolean
p6445
tp6446
I1
s(g1
I618
VremoveMessages
p6447
tp6448
I1
s(g1
I841
VsendEmptyMessage
p6449
tp6450
I1
s(g1
I829
Vupdate
p6451
tp6452
I1
s(g1
I1453
Vdanmaku
p6453
tp6454
I1
s(g1
I1417
VmCacheTimer
p6455
tp6456
I1
s(g1
I306
VdrawItem
p6457
tp6458
I1
s(g1
I602
VHIDE_DANMAKUS
p6459
tp6460
I1
s(g1
I765
VmStartRenderTime
p6461
tp6462
I1
s(g1
I846
VlinePaths
p6463
tp6464
I1
s(g1
I172
VmDanmakus
p6465
tp6466
I1
s(g1
I278
Vitems
p6467
tp6468
I1
s(g1
I209
VgetDefault
p6469
tp6470
I1
s(g1
I365
Ve
p6471
tp6472
I2
s(g1
I1015
Vd
p6473
tp6474
I1
s(g1
I230
Vattrs
p6475
tp6476
I1
s(g1
I155
Ve
p6477
tp6478
I1
s(g1
I348
VmParser
p6479
tp6480
I1
s(g1
I383
VclearCache
p6481
tp6482
I1
s(g1
I37
VsetContentView
p6483
tp6484
I1
s(g1
I39
Vfloat
p6485
tp6486
I35
s(g1
I1096
VBaseDanmaku
p6487
tp6488
I1
s(g1
I1609
Vd
p6489
tp6490
I1
s(g1
I305
VstartItem
p6491
tp6492
I1
s(g1
I12
VTAG_BILI
p6493
tp6494
I2
s(g1
I289
VcurrY
p6495
tp6496
I1
s(g1
I195
Vcontext
p6497
tp6498
I1
s(g1
I668
Vstart
p6499
tp6500
I1
s(g1
I590
VSTART
p6501
tp6502
I1
s(g1
I626
VsendToTarget
p6503
tp6504
I2
s(g1
I1214
Vd
p6505
tp6506
I1
s(g1
I237
Vsub
p6507
tp6508
I1
s(g1
I234
VString
p6509
tp6510
I1
s(g1
I870
VdanmakuList
p6511
tp6512
I1
s(g1
I253
VfindViewById
p6513
tp6514
I1
s(g1
I1229
Vd
p6515
tp6516
I1
s(g1
I147
Vcanvas
p6517
tp6518
I1
s(g1
I209
Vsdanmaku
p6519
tp6520
I1
s(g1
I882
Vcompare
p6521
tp6522
I1
s(g1
I398
VString
p6523
tp6524
I1
s(g1
I1191
VmCallback
p6525
tp6526
I1
s(g1
I372
Vitem
p6527
tp6528
I1
s(g1
I81
Vindex
p6529
tp6530
I1
s(g1
I96
VdrawItem
p6531
tp6532
I1
s(g1
I194
VgetNativeBitmap
p6533
tp6534
I1
s(g1
I163
Vdraw
p6535
tp6536
I1
s(g1
I164
Vitems
p6537
tp6538
I1
s(g1
I331
Vhandler
p6539
tp6540
I1
s(g1
I490
VUPDATE
p6541
tp6542
I1
s(g1
I308
VmViewHolderArray
p6543
tp6544
I1
s(g1
I230
VcurrTime
p6545
tp6546
I1
s(g1
I58
Vjson
p6547
tp6548
I1
s(g1
I333
VviewHolders
p6549
tp6550
I1
s(g1
I627
Vhandler
p6551
tp6552
I2
s(g1
I259
VButton
p6553
tp6554
I1
s(g1
I698
VgetLooper
p6555
tp6556
I1
s(g1
I946
VquitLoop
p6557
tp6558
I1
s(g1
I366
VDrawTask
p6559
tp6560
I1
s(g1
I665
VmDanmakuView
p6561
tp6562
I1
s(g1
I164
Vx
p6563
tp6564
I1
s(g1
I352
Vdtime
p6565
tp6566
I1
s(g1
I227
VsurfaceHolder
p6567
tp6568
I1
s(g1
I225
VSurfaceHolder
p6569
tp6570
I1
s(g1
I557
VSHOW_DANMAKUS
p6571
tp6572
I2
s(g1
I907
Vdraw
p6573
tp6574
I1
s(g1
I320
VsurfaceHolder
p6575
tp6576
I1
s(g1
I283
VmContext
p6577
tp6578
I1
s(g1
I184
Vitem
p6579
tp6580
I1
s(g1
I587
VSystem
p6581
tp6582
I1
s(g1
I217
Vcx
p6583
tp6584
I1
s(g1
I592
Vtop
p6585
tp6586
I1
s(g1
I203
VupdateTimer
p6587
tp6588
I1
s(g1
I184
Vit
p6589
tp6590
I1
s(g1
I693
Vcache
p6591
tp6592
I1
s(g1
I927
VnotifyRendering
p6593
tp6594
I2
s(g1
I645
VmBtnSendDanmakus
p6595
tp6596
I1
s(g1
I1038
VonTouchEvent
p6597
tp6598
I1
s(g1
I995
VgetDefault
p6599
tp6600
I1
s(g1
I494
VmDensity
p6601
tp6602
I1
s(g1
I656
VmDanmakusVisible
p6603
tp6604
I1
s(g1
I212
Vreset
p6605
tp6606
I2
s(g1
I857
Viterator
p6607
tp6608
I1
s(g1
I283
Vhandler
p6609
tp6610
I1
s(g1
I63
VLong
p6611
tp6612
I1
s(g1
I496
Vjoin
p6613
tp6614
I1
s(g1
I300
VsetOnClickListener
p6615
tp6616
I1
s(g1
I247
VisTimeOut
p6617
tp6618
I1
s(g1
I188
Vcanvas
p6619
tp6620
I1
s(g1
I134
VConfigChangedCallback
p6621
tp6622
I1
s(g1
I948
VdrawTask
p6623
tp6624
I1
s(g1
I1572
VunregisterFilter
p6625
tp6626
I1
s(g1
I227
VIDanmakus
p6627
tp6628
I1
s(g1
I1296
Vhandler
p6629
tp6630
I1
s(g1
I134
VIDisplayer
p6631
tp6632
I1
s(g1
I324
VscreenSize
p6633
tp6634
I1
s(g1
I58
Vdisp
p6635
tp6636
I1
s(g1
I114
VdispH
p6637
tp6638
I2
s(g1
I58
VFT_DANMAKU_VISIBILITY
p6639
tp6640
I1
s(g1
I560
Vd
p6641
tp6642
I1
s(g1
I467
VmHandler
p6643
tp6644
I1
s(g1
I20
VString
p6645
tp6646
I2
s(g1
I1551
VdrawTask
p6647
tp6648
I1
s(g1
I360
VfbDanmakuCount
p6649
tp6650
I1
s(g1
I335
VfindViewById
p6651
tp6652
I1
s(g1
I148
Vtext
p6653
tp6654
I1
s(g1
I172
VorderInScreen
p6655
tp6656
I1
s(g1
I680
Vfirst
p6657
tp6658
I1
s(g1
I795
VupdateFirstShownFlag
p6659
tp6660
I1
s(g1
I689
VstartItem
p6661
tp6662
I1
s(g1
I1436
Vpushed
p6663
tp6664
I1
s(g1
I38
VdrawItems
p6665
tp6666
I1
s(g1
I636
VOverride
p6667
tp6668
I1
s(g1
I450
VbitmapArray
p6669
tp6670
I1
s(g1
I200
VLog
p6671
tp6672
I1
s(g1
I153
Vcanvas
p6673
tp6674
I1
s(g1
I147
VBaseDanmaku
p6675
tp6676
I1
s(g1
I1021
Vaction
p6677
tp6678
I1
s(g1
I1205
VgetDisplayer
p6679
tp6680
I1
s(g1
I720
VquitFlag
p6681
tp6682
I1
s(g1
I1387
VevictAll
p6683
tp6684
I1
s(g1
I230
VLog
p6685
tp6686
I1
s(g1
I292
VstartTime
p6687
tp6688
I1
s(g1
I579
Vlength
p6689
tp6690
I1
s(g1
I1279
VlongValue
p6691
tp6692
I1
s(g1
I22
VBundle
p6693
tp6694
I1
s(g1
I1016
VmCaches
p6695
tp6696
I1
s(g1
I1610
VmCacheTimer
p6697
tp6698
I1
s(g1
I861
VBaseDanmaku
p6699
tp6700
I1
s(g1
I347
Vcanvas
p6701
tp6702
I1
s(g1
I318
VSAXException
p6703
tp6704
I1
s(g1
I730
Vhandler
p6705
tp6706
I1
s(g1
I1596
VslopPixel
p6707
tp6708
I1
s(g1
I779
VOverride
p6709
tp6710
I1
s(g1
I569
Vd
p6711
tp6712
I1
s(g1
I782
Vrun
p6713
tp6714
I1
s(g1
I1029
VmDrawingNotify
p6715
tp6716
I1
s(g1
I316
VendItem
p6717
tp6718
I1
s(g1
I95
VftdrInstance
p6719
tp6720
I1
s(g1
I294
VmStartTimer
p6721
tp6722
I1
s(g1
I1217
Vi
p6723
tp6724
I1
s(g1
I125
VmContext
p6725
tp6726
I1
s(g1
I1038
VwaitTime
p6727
tp6728
I1
s(g1
I228
Vmeasure
p6729
tp6730
I1
s(g1
I382
VDrawHandler
p6731
tp6732
I1
s(g1
I1044
VdrawTask
p6733
tp6734
I1
s(g1
I221
Vcy
p6735
tp6736
I1
s(g1
I304
VisLate
p6737
tp6738
I1
s(g1
I567
VhasNext
p6739
tp6740
I1
s(g1
I1136
VmDisp
p6741
tp6742
I1
s(g1
I766
Vd
p6743
tp6744
I1
s(g1
I737
VcurrentTimeMillis
p6745
tp6746
I1
s(g1
I1046
VcurrentTimeMillis
p6747
tp6748
I1
s(g1
I470
VOverride
p6749
tp6750
I1
s(g1
I238
Vx
p6751
tp6752
I1
s(g1
I200
Vtimer
p6753
tp6754
I1
s(g1
I93
VCanvas
p6755
tp6756
I1
s(g1
I998
VunregisterFilter
p6757
tp6758
I1
s(g1
I703
VmCacheManager
p6759
tp6760
I1
s(g1
I593
VmEndFlag
p6761
tp6762
I1
s(g1
I375
VtempStr
p6763
tp6764
I1
s(g1
I23
VonCreate
p6765
tp6766
I1
s(g1
I3176
VmRealSize
p6767
tp6768
I1
s(g1
I103
VinitCache
p6769
tp6770
I1
s(g1
I323
Ve
p6771
tp6772
I1
s(g1
I849
VBaseDanmaku
p6773
tp6774
I1
s(g1
I554
Vr
p6775
tp6776
I1
s(g1
I247
VStaticLayout
p6777
tp6778
I1
s(g1
I516
Ve
p6779
tp6780
I1
s(g1
I900
VmTaskListener
p6781
tp6782
I1
s(g1
I590
Vstart
p6783
tp6784
I1
s(g1
I542
VmRenderer
p6785
tp6786
I1
s(g1
I808
VgetVisibility
p6787
tp6788
I1
s(g1
I582
VisShown
p6789
tp6790
I1
s(g1
I1072
VmTimeBase
p6791
tp6792
I2
s(g1
I1009
VpausedPostion
p6793
tp6794
I1
s(g1
I975
Vwhat
p6795
tp6796
I1
s(g1
I948
VnotifyAll
p6797
tp6798
I1
s(g1
I1427
VdrawTask
p6799
tp6800
I1
s(g1
I700
VgetContext
p6801
tp6802
I1
s(g1
I200
VelapsedTime
p6803
tp6804
I1
s(g1
I440
VmParser
p6805
tp6806
I1
s(g1
I271
Vcallback
p6807
tp6808
I1
s(g1
I255
Vrecycle
p6809
tp6810
I1
s(g1
I135
VMath
p6811
tp6812
I1
s(g1
I378
VsubDanmakus
p6813
tp6814
I1
s(g1
I208
Vstream
p6815
tp6816
I1
s(g1
I851
VmRenderingState
p6817
tp6818
I1
s(g1
I907
VrefDanmaku
p6819
tp6820
I1
s(g1
I172
Vfilter
p6821
tp6822
I1
s(g1
I636
VBaseDanmaku
p6823
tp6824
I2
s(g1
I804
VDanmakuConfigTag
p6825
tp6826
I1
s(g1
I438
VmDisplayer
p6827
tp6828
I1
s(g1
I227
VAndroidDisplayer
p6829
tp6830
I1
s(g1
I70
Vlock
p6831
tp6832
I1
s(g1
I226
VBaseDanmaku
p6833
tp6834
I1
s(g1
I358
VtextHeight
p6835
tp6836
I1
s(g1
I1055
VFORCE_RENDER
p6837
tp6838
I1
s(g1
I323
VmHandler
p6839
tp6840
I1
s(g1
I670
Vfps
p6841
tp6842
I1
s(g1
I351
VmThread
p6843
tp6844
I1
s(g1
I323
VpausedPostion
p6845
tp6846
I1
s(g1
I2023
VremoveAllLiveDanmakus
p6847
tp6848
I1
s(g1
I206
VSpecialDanmaku
p6849
tp6850
I1
s(g1
I596
VpausedPostion
p6851
tp6852
I1
s(g1
I275
VclearFlag
p6853
tp6854
I1
s(g1
I37
VSystem
p6855
tp6856
I1
s(g1
I150
Vitems
p6857
tp6858
I1
s(g1
I49
VIDisplayer
p6859
tp6860
I1
s(g1
I1408
VADD_DANMAKKU
p6861
tp6862
I1
s(g1
I793
VclearDanmakusOnScreen
p6863
tp6864
I1
s(g1
I648
VmDrawFinished
p6865
tp6866
I1
s(g1
I340
Vtext
p6867
tp6868
I1
s(g1
I627
Vcanvas
p6869
tp6870
I1
s(g1
I776
VSystemClock
p6871
tp6872
I1
s(g1
I51
Vw
p6873
tp6874
I1
s(g1
I833
VBaseDanmaku
p6875
tp6876
I1
s(g1
I62
VDanmakuBase
p6877
tp6878
I1
s(g1
I307
VmCacheManager
p6879
tp6880
I1
s(g1
I1316
Vsize
p6881
tp6882
I1
s(g1
I825
VLinePath
p6883
tp6884
I1
s(g1
I212
VmContext
p6885
tp6886
I1
s(g1
I171
Vdisplayer
p6887
tp6888
I1
s(g1
I1214
VcurrentTimeMillis
p6889
tp6890
I1
s(g1
I60
VBaseDanmakuParser
p6891
tp6892
I1
s(g1
I115
Vi
p6893
tp6894
I1
s(g1
I318
VmHandler
p6895
tp6896
I1
s(g1
I1078
VmCallback
p6897
tp6898
I2
s(g1
I45
VIDanmakuIterator
p6899
tp6900
I2
s(g1
I143
VdispH
p6901
tp6902
I2
s(g1
I708
VCachingDrawTask
p6903
tp6904
I1
s(g1
I1454
Vcache
p6905
tp6906
I1
s(g1
I108
Ve
p6907
tp6908
I1
s(g1
I1055
Vmax
p6909
tp6910
I1
s(g1
I261
Vuri
p6911
tp6912
I1
s(g1
I315
VisLate
p6913
tp6914
I1
s(g1
I1631
Vd
p6915
tp6916
I1
s(g1
I26
VTAG_BILI
p6917
tp6918
I2
s(g1
I133
VgetWidth
p6919
tp6920
I1
s(g1
I194
VmVideoView
p6921
tp6922
I1
s(g1
I115
Vdanmaku
p6923
tp6924
I1
s(g1
I685
VdrawTask
p6925
tp6926
I1
s(g1
I1052
Vresume
p6927
tp6928
I1
s(g1
I353
Vpause
p6929
tp6930
I1
s(g1
I1046
Vhandler
p6931
tp6932
I1
s(g1
I769
VgetDanmakus
p6933
tp6934
I1
s(g1
I245
VrequestClearTimeout
p6935
tp6936
I1
s(g1
I2038
VdrawTask
p6937
tp6938
I1
s(g1
I512
VmOnClickListener
p6939
tp6940
I1
s(g1
I537
VOverride
p6941
tp6942
I1
s(g1
I365
Vitems
p6943
tp6944
I1
s(g1
I829
VpausedPostion
p6945
tp6946
I1
s(g1
I767
Vpause
p6947
tp6948
I2
s(g1
I612
VlinePaths
p6949
tp6950
I1
s(g1
I1023
VUPDATE
p6951
tp6952
I1
s(g1
I52
VonCreateOptionsMenu
p6953
tp6954
I1
s(g1
I43
VgetMenuInflater
p6955
tp6956
I1
s(g1
I1712
VsetVideoPath
p6957
tp6958
I1
s(g1
I185
VIDisplayer
p6959
tp6960
I1
s(g1
I1420
VmRunningDanmakus
p6961
tp6962
I1
s(g1
I1132
Vitem
p6963
tp6964
I1
s(g1
I504
VmTimeBase
p6965
tp6966
I1
s(g1
I302
VString
p6967
tp6968
I1
s(g1
I824
VdrawTask
p6969
tp6970
I1
s(g1
I499
Vsize
p6971
tp6972
I1
s(g1
I1316
VmRealSize
p6973
tp6974
I1
s(g1
I856
VstartDrawingWhenReady
p6975
tp6976
I1
s(g1
I172
VmStartTimer
p6977
tp6978
I1
s(g1
I1224
VMath
p6979
tp6980
I1
s(g1
I1102
VwidthGap
p6981
tp6982
I1
s(g1
I281
VpaintWidth
p6983
tp6984
I1
s(g1
I462
Vobj2
p6985
tp6986
I1
s(g1
I460
VgetLooper
p6987
tp6988
I1
s(g1
I1280
VmCacheTimer
p6989
tp6990
I1
s(g1
I308
Ve
p6991
tp6992
I1
s(g1
I1052
Vhandler
p6993
tp6994
I1
s(g1
I623
VquitDrawTask
p6995
tp6996
I1
s(g1
I46
Vdisp
p6997
tp6998
I1
s(g1
I84
VmLock
p6999
tp7000
I1
s(g1
I18
VAndroidCounter
p7001
tp7002
I1
s(g1
I929
VThread
p7003
tp7004
I1
s(g1
I141
VBiliDanmakuLoader
p7005
tp7006
I1
s(g1
I616
VBoolean
p7007
tp7008
I1
s(g1
I72
VBiliDanmukuParse
p7009
tp7010
I1
s(g1
I185
Vdanmaku
p7011
tp7012
I1
s(g1
I148
VdrawText
p7013
tp7014
I1
s(g1
I820
VhasNext
p7015
tp7016
I1
s(g1
I237
Vattrs
p7017
tp7018
I1
s(g1
I924
VdrawDanmakus
p7019
tp7020
I2
s(g1
I259
VcurrY
p7021
tp7022
I1
s(g1
I1614
VmCallback
p7023
tp7024
I1
s(g1
I39
Vvoid
p7025
tp7026
I180
s(g1
I1977
VCLEAR_OUTSIDE_CACHES_AND_RESET
p7027
tp7028
I1
s(g1
I1007
VcurrentTimeMillis
p7029
tp7030
I1
s(g1
I366
VSoftReference
p7031
tp7032
I1
s(g1
I195
VLog
p7033
tp7034
I1
s(g1
I1228
VdrawDanmakus
p7035
tp7036
I1
s(g1
I145
Vfile
p7037
tp7038
I1
s(g1
I30
VAndroidUtils
p7039
tp7040
I1
s(g1
I142
VmOnGestureListener
p7041
tp7042
I1
s(g1
I399
Vend
p7043
tp7044
I1
s(g1
I39
Vboolean
p7045
tp7046
I36
s(g1
I174
VBaseDanmaku
p7047
tp7048
I1
s(g1
I885
Vhandler
p7049
tp7050
I1
s(g1
I1616
VdTime
p7051
tp7052
I1
s(g1
I355
VmDrawThread
p7053
tp7054
I1
s(g1
I1421
Vitem
p7055
tp7056
I1
s(g1
I279
VloadDanmakus
p7057
tp7058
I1
s(g1
I321
Vheight
p7059
tp7060
I1
s(g1
I134
VcheckSizeEquals
p7061
tp7062
I1
s(g1
I398
VstartElement
p7063
tp7064
I1
s(g1
I247
VaddDanmaku
p7065
tp7066
I1
s(g1
I485
VUPDATE
p7067
tp7068
I1
s(g1
I467
Vmeasure
p7069
tp7070
I1
s(g1
I290
Vtext
p7071
tp7072
I1
s(g1
I920
Vd
p7073
tp7074
I1
s(g1
I1074
Vd
p7075
tp7076
I2
s(g1
I668
Vrun
p7077
tp7078
I1
s(g1
I1432
VremoveAllDanmakus
p7079
tp7080
I1
s(g1
I761
Vmills
p7081
tp7082
I1
s(g1
I916
VmCaches
p7083
tp7084
I1
s(g1
I1040
VCanvas
p7085
tp7086
I1
s(g1
I177
VgetTime
p7087
tp7088
I1
s(g1
I67
Vin
p7089
tp7090
I1
s(g1
I202
Vitem
p7091
tp7092
I1
s(g1
I235
VSystem
p7093
tp7094
I1
s(g1
I1009
Vappend
p7095
tp7096
I1
s(g1
I1395
VmCacheTimer
p7097
tp7098
I1
s(g1
I89
VdrawItem
p7099
tp7100
I1
s(g1
I266
Vtext
p7101
tp7102
I1
s(g1
I73
VRLDanmakusRetainer
p7103
tp7104
I1
s(g1
I150
Vpaint
p7105
tp7106
I1
s(g1
I1679
VdrawTask
p7107
tp7108
I1
s(g1
I211
VDanmakuSurfaceView
p7109
tp7110
I1
s(g1
I765
VdrawDanmakus
p7111
tp7112
I1
s(g1
I97
VDanmakusRetainer
p7113
tp7114
I1
s(g1
I360
VgetWidth
p7115
tp7116
I1
s(g1
I171
Vit
p7117
tp7118
I1
s(g1
I180
Vcanvas
p7119
tp7120
I1
s(g1
I241
VremoveAllDanmakus
p7121
tp7122
I1
s(g1
I1187
Vhandler
p7123
tp7124
I1
s(g1
I287
VtagName
p7125
tp7126
I1
s(g1
I1175
VisHardwareAccelerated
p7127
tp7128
I1
s(g1
I861
Vreset
p7129
tp7130
I1
s(g1
I29
VsetColor
p7131
tp7132
I1
s(g1
I195
VcurrTime
p7133
tp7134
I1
s(g1
I358
VmBaseParser
p7135
tp7136
I1
s(g1
I546
VpausedPosition
p7137
tp7138
I1
s(g1
I39
Vmenu
p7139
tp7140
I1
s(g1
I242
Venable
p7141
tp7142
I1
s(g1
I637
VdrawTask
p7143
tp7144
I1
s(g1
I171
VCanvas
p7145
tp7146
I1
s(g1
I181
VDEBUG_OPTION
p7147
tp7148
I1
s(g1
I272
VcurrStateValues
p7149
tp7150
I1
s(g1
I145
VDanmakuLoaderFactory
p7151
tp7152
I1
s(g1
I1061
Vhandler
p7153
tp7154
I2
s(g1
I1301
Ve
p7155
tp7156
I1
s(g1
I1183
Vd
p7157
tp7158
I1
s(g1
I1015
VIDrawingCache
p7159
tp7160
I1
s(g1
I83
VonDown
p7161
tp7162
I1
s(g1
I106
VdeltaDuration
p7163
tp7164
I1
s(g1
I736
Vd
p7165
tp7166
I1
s(g1
I1071
Vhandler
p7167
tp7168
I1
s(g1
I1097
Vevent
p7169
tp7170
I1
s(g1
I331
VBaseDanmaku
p7171
tp7172
I1
s(g1
I1250
VnewCache
p7173
tp7174
I1
s(g1
I68
VdanmakuView
p7175
tp7176
I1
s(g1
I1111
VheightGap
p7177
tp7178
I1
s(g1
I165
VmDanmakus
p7179
tp7180
I1
s(g1
I70
VDrawingCacheHolder
p7181
tp7182
I2
s(g1
I953
VdrawTask
p7183
tp7184
I1
s(g1
I286
VcurrStateValues
p7185
tp7186
I1
s(g1
I825
Vitem
p7187
tp7188
I1
s(g1
I214
VfindViewById
p7189
tp7190
I1
s(g1
I386
VremoveUnusedDanmakusIn
p7191
tp7192
I1
s(g1
I129
VmHolder
p7193
tp7194
I1
s(g1
I186
Vcanvas
p7195
tp7196
I1
s(g1
I150
VclearCanvas
p7197
tp7198
I1
s(g1
I1004
Vhandled
p7199
tp7200
I1
s(g1
I184
VfillText
p7201
tp7202
I1
s(g1
I954
VmThread
p7203
tp7204
I2
s(g1
I65
VLong
p7205
tp7206
I1
s(g1
I247
VmDanmakuView
p7207
tp7208
I1
s(g1
I112
Vcontext
p7209
tp7210
I1
s(g1
I171
VloadLibs
p7211
tp7212
I1
s(g1
I424
VonDanmakuClick
p7213
tp7214
I1
s(g1
I356
VmDanmakuView
p7215
tp7216
I1
s(g1
I187
Vview
p7217
tp7218
I1
s(g1
I210
VmMediaController
p7219
tp7220
I1
s(g1
I773
VmDanmakusVisible
p7221
tp7222
I1
s(g1
I1563
VseekMills
p7223
tp7224
I1
s(g1
I460
VmThread
p7225
tp7226
I1
s(g1
I108
VdrawCache
p7227
tp7228
I1
s(g1
I857
Vitems
p7229
tp7230
I1
s(g1
I446
VstartElement
p7231
tp7232
I1
s(g1
I1223
VmDisp
p7233
tp7234
I1
s(g1
I230
Vseek
p7235
tp7236
I1
s(g1
I219
VinvalidateDanmaku
p7237
tp7238
I1
s(g1
I337
VmVideoView
p7239
tp7240
I1
s(g1
I244
Vhandler
p7241
tp7242
I1
s(g1
I100
Vi
p7243
tp7244
I1
s(g1
I1034
VmaxCacheDuration
p7245
tp7246
I1
s(g1
I142
Vdanmaku
p7247
tp7248
I1
s(g1
I96
VmCache
p7249
tp7250
I1
s(g1
I1070
VcurrentTimeMillis
p7251
tp7252
I2
s(g1
I310
VdrawItem
p7253
tp7254
I1
s(g1
I120
VmCallback
p7255
tp7256
I1
s(g1
I172
VdrawItem
p7257
tp7258
I1
s(g1
I240
VdrawItem
p7259
tp7260
I1
s(g1
I278
Vremove
p7261
tp7262
I1
s(g1
I286
Vmills
p7263
tp7264
I1
s(g1
I372
VSortedSet
p7265
tp7266
I1
s(g1
I630
Vhandler
p7267
tp7268
I1
s(g1
I1735
VBoolean
p7269
tp7270
I1
s(g1
I926
Vframes
p7271
tp7272
I1
s(g1
I313
VOverride
p7273
tp7274
I2
s(g1
I1023
VmRenderingState
p7275
tp7276
I1
s(g1
I767
VsetTimer
p7277
tp7278
I1
s(g1
I69
Vdisp
p7279
tp7280
I1
s(g1
I17
VILoader
p7281
tp7282
I2
s(g1
I339
VcreateItem
p7283
tp7284
I1
s(g1
I129
VcurrTime
p7285
tp7286
I2
s(g1
I565
Vstart
p7287
tp7288
I1
s(g1
I870
VLog
p7289
tp7290
I1
s(g1
I1765
VhasDrawingCache
p7291
tp7292
I1
s(g1
I681
Vcontext
p7293
tp7294
I1
s(g1
I772
Vd
p7295
tp7296
I1
s(g1
I90
VmTimer
p7297
tp7298
I1
s(g1
I1279
VseekMills
p7299
tp7300
I1
s(g1
I860
Vget
p7301
tp7302
I1
s(g1
I882
Vobj1
p7303
tp7304
I1
s(g1
I443
Vprepare
p7305
tp7306
I1
s(g1
I804
Viterator
p7307
tp7308
I1
s(g1
I888
Vrestart
p7309
tp7310
I1
s(g1
I30
Vtag
p7311
tp7312
I1
s(g1
I342
Vrelease
p7313
tp7314
I1
s(g1
I556
VRESUME
p7315
tp7316
I1
s(g1
I450
VsetDanmakuTransparency
p7317
tp7318
I1
s(g1
I905
VBaseDanmaku
p7319
tp7320
I1
s(g1
I976
Vbefore
p7321
tp7322
I1
s(g1
I659
Vdanmakus
p7323
tp7324
I1
s(g1
I844
VisTimeOut
p7325
tp7326
I1
s(g1
I148
VnativeLibLoaded
p7327
tp7328
I1
s(g1
I674
Vpostion
p7329
tp7330
I1
s(g1
I662
VsetText
p7331
tp7332
I1
s(g1
I506
VQUIT
p7333
tp7334
I1
s(g1
I499
VpausedPostion
p7335
tp7336
I1
s(g1
I102
Vc
p7337
tp7338
I1
s(g1
I145
Vuri
p7339
tp7340
I1
s(g1
I285
VOverride
p7341
tp7342
I1
s(g1
I553
VsendEmptyMessage
p7343
tp7344
I2
s(g1
I66
VfindViews
p7345
tp7346
I1
s(g1
I159
VJSONException
p7347
tp7348
I1
s(g1
I211
Vx
p7349
tp7350
I1
s(g1
I776
VupdateInCurrentThread
p7351
tp7352
I1
s(g1
I216
VmStartTimer
p7353
tp7354
I1
s(g1
I60
Vw
p7355
tp7356
I1
s(g1
I380
Vt
p7357
tp7358
I1
s(g1
I140
VBaseDanmaku
p7359
tp7360
I1
s(g1
I108
Vrecycle
p7361
tp7362
I1
s(g1
I334
VString
p7363
tp7364
I1
s(g1
I75
VdataSource
p7365
tp7366
I1
s(g1
I550
VmDanmakuView
p7367
tp7368
I1
s(g1
I70
Vduration
p7369
tp7370
I1
s(g1
I184
VSet
p7371
tp7372
I1
s(g1
I713
Vwidth
p7373
tp7374
I1
s(g1
I679
Vprepare
p7375
tp7376
I1
s(g1
I323
VDanmakuSurfaceView
p7377
tp7378
I2
s(g1
I153
VError
p7379
tp7380
I1
s(g1
I1034
VmContext
p7381
tp7382
I1
s(g1
I364
VSortedSet
p7383
tp7384
I1
s(g1
I152
VgetLeft
p7385
tp7386
I1
s(g1
I105
Vlength
p7387
tp7388
I1
s(g1
I715
VmParser
p7389
tp7390
I1
s(g1
I295
VmBtnShowDanmaku
p7391
tp7392
I1
s(g1
I270
VremoveAllLiveDanmakus
p7393
tp7394
I1
s(g1
I927
Vnext
p7395
tp7396
I1
s(g1
I841
VmDrawingNotify
p7397
tp7398
I1
s(g1
I349
VtotalDanmakuCount
p7399
tp7400
I1
s(g1
I163
VsizeInScreen
p7401
tp7402
I1
s(g1
I1198
Vtimer
p7403
tp7404
I1
s(g1
I774
VmDanmakuView
p7405
tp7406
I1
s(g1
I263
VCharSequence
p7407
tp7408
I1
s(g1
I1453
VgetDrawingCache
p7409
tp7410
I1
s(g1
I316
VArrayList
p7411
tp7412
I1
s(g1
I349
Vitems
p7413
tp7414
I2
s(g1
I67
VdrawItem
p7415
tp7416
I1
s(g1
I559
Vtime
p7417
tp7418
I1
s(g1
I828
Vval
p7419
tp7420
I1
s(g1
I299
VmDrawThread
p7421
tp7422
I1
s(g1
I350
VcreateItem
p7423
tp7424
I1
s(g1
I1068
VgapTime
p7425
tp7426
I1
s(g1
I882
VgetDefault
p7427
tp7428
I1
s(g1
I1616
VINDEFINITE_TIME
p7429
tp7430
I1
s(g1
I421
VLog
p7431
tp7432
I1
s(g1
I1480
Venable
p7433
tp7434
I1
s(g1
I156
VmDanmakusRetainer
p7435
tp7436
I1
s(g1
I1046
Vobj2
p7437
tp7438
I1
s(g1
I518
Vmills
p7439
tp7440
I1
s(g1
I293
Vhandler
p7441
tp7442
I1
s(g1
I539
VUPDATE
p7443
tp7444
I2
s(g1
I1078
VgapTime
p7445
tp7446
I1
s(g1
I888
VOverride
p7447
tp7448
I1
s(g1
I200
VBaseDanmaku
p7449
tp7450
I1
s(g1
I226
VfindViewById
p7451
tp7452
I1
s(g1
I370
VgetDisplayer
p7453
tp7454
I1
s(g1
I1587
VmPause
p7455
tp7456
I1
s(g1
I1026
VclearCache
p7457
tp7458
I1
s(g1
I569
VDrawHelper
p7459
tp7460
I1
s(g1
I161
Vinit
p7461
tp7462
I1
s(g1
I614
VmDrawTimes
p7463
tp7464
I1
s(g1
I359
VmDrawThread
p7465
tp7466
I1
s(g1
I79
VdrawItem
p7467
tp7468
I1
s(g1
I122
Vrenderer
p7469
tp7470
I1
s(g1
I1470
VmReadyState
p7471
tp7472
I1
s(g1
I111
VDanmaku
p7473
tp7474
I1
s(g1
I127
Vbitmap
p7475
tp7476
I1
s(g1
I90
Vjson
p7477
tp7478
I1
s(g1
I187
VdrawItem
p7479
tp7480
I1
s(g1
I833
VisTimeOut
p7481
tp7482
I1
s(g1
I280
VmCapity
p7483
tp7484
I1
s(g1
I1191
VclearDanmakusOnScreen
p7485
tp7486
I1
s(g1
I907
VmDisp
p7487
tp7488
I2
s(g1
I213
VPopupWindow
p7489
tp7490
I1
s(g1
I512
VmDrawTimes
p7491
tp7492
I1
s(g1
I60
VJSONObjectSource
p7493
tp7494
I1
s(g1
I261
VinitTimer
p7495
tp7496
I1
s(g1
I20
VBundle
p7497
tp7498
I1
s(g1
I1590
VInteger
p7499
tp7500
I1
s(g1
I1563
VmDisp
p7501
tp7502
I1
s(g1
I1159
VgetCurrentTime
p7503
tp7504
I1
s(g1
I92
Vy
p7505
tp7506
I1
s(g1
I217
Vcanvas
p7507
tp7508
I2
s(g1
I255
VdrawItem
p7509
tp7510
I1
s(g1
I1728
VmDanmakuView
p7511
tp7512
I1
s(g1
I1385
VCLEAR_ALL_CACHES
p7513
tp7514
I1
s(g1
I104
VdrawItem
p7515
tp7516
I1
s(g1
I1965
VCLEAR_OUTSIDE_CACHES
p7517
tp7518
I1
s(g1
I857
VdanmakuList
p7519
tp7520
I1
s(g1
I1000
VhandleMessage
p7521
tp7522
I1
s(g1
I485
VOverride
p7523
tp7524
I1
s(g1
I56
VLong
p7525
tp7526
I1
s(g1
I44
VmScaledDensity
p7527
tp7528
I2
s(g1
I789
VBoolean
p7529
tp7530
I1
s(g1
I2081
VdanmakuSync
p7531
tp7532
I1
s(g1
I103
VlrdrInstance
p7533
tp7534
I1
s(g1
I115
Vfile
p7535
tp7536
I1
s(g1
I321
VcurrentTimeMillis
p7537
tp7538
I1
s(g1
I47
Vdanmakus
p7539
tp7540
I1
s(g1
I1026
VoldValue
p7541
tp7542
I1
s(g1
I86
Vholder
p7543
tp7544
I1
s(g1
I190
Vit
p7545
tp7546
I1
s(g1
I79
Vx
p7547
tp7548
I1
s(g1
I1594
Vdanmaku
p7549
tp7550
I1
s(g1
I137
Vduration
p7551
tp7552
I1
s(g1
I185
Vdisplayer
p7553
tp7554
I1
s(g1
I504
VBiliDanmukuParse
p7555
tp7556
I1
s(g1
I581
Vdanmakus
p7557
tp7558
I1
s(g1
I293
Vtext
p7559
tp7560
I1
s(g1
I1758
VADD_DANMAKKU
p7561
tp7562
I1
s(g1
I172
VString
p7563
tp7564
I1
s(g1
I1101
VdeltaMs
p7565
tp7566
I1
s(g1
I1170
Vmax
p7567
tp7568
I1
s(g1
I637
VlastTime
p7569
tp7570
I1
s(g1
I307
VpausedPostion
p7571
tp7572
I1
s(g1
I179
VmDanmakus
p7573
tp7574
I1
s(g1
I454
VmHandler
p7575
tp7576
I1
s(g1
I358
VgetDisplayer
p7577
tp7578
I1
s(g1
I215
Vitems
p7579
tp7580
I1
s(g1
I1743
Vpair
p7581
tp7582
I1
s(g1
I195
Vitem
p7583
tp7584
I1
s(g1
I387
Vtext
p7585
tp7586
I1
s(g1
I153
Vdanmaku
p7587
tp7588
I1
s(g1
I127
Vin
p7589
tp7590
I1
s(g1
I330
VtagName
p7591
tp7592
I1
s(g1
I22
VsavedInstanceState
p7593
tp7594
I1
s(g1
I294
VsizeInScreen
p7595
tp7596
I1
s(g1
I823
VpausedPostion
p7597
tp7598
I1
s(g1
I550
Vobj1
p7599
tp7600
I1
s(g1
I374
VdanmakuList
p7601
tp7602
I1
s(g1
I631
VOverride
p7603
tp7604
I2
s(g1
I770
VdanmakuList
p7605
tp7606
I1
s(g1
I257
Vobj1
p7607
tp7608
I1
s(g1
I253
VDanmakuTimer
p7609
tp7610
I1
s(g1
I148
Vtop
p7611
tp7612
I1
s(g1
I1748
Vready
p7613
tp7614
I1
s(g1
I921
VmDrawTimes
p7615
tp7616
I1
s(g1
I573
VmDanmakuView
p7617
tp7618
I1
s(g1
I1060
VmTimer
p7619
tp7620
I1
s(g1
I746
VbeginMills
p7621
tp7622
I1
s(g1
I277
Vcapity
p7623
tp7624
I1
s(g1
I115
VfbdrInstance
p7625
tp7626
I1
s(g1
I704
Vrelease
p7627
tp7628
I1
s(g1
I297
Vit
p7629
tp7630
I1
s(g1
I220
Vsdanmaku
p7631
tp7632
I1
s(g1
I41
Vholder
p7633
tp7634
I1
s(g1
I689
Vheight
p7635
tp7636
I1
s(g1
I433
Vtransparency
p7637
tp7638
I1
s(g1
I598
VmDrawingNotify
p7639
tp7640
I1
s(g1
I162
Vascent
p7641
tp7642
I1
s(g1
I770
VOverride
p7643
tp7644
I1
s(g1
I34
VTAG_BILI
p7645
tp7646
I1
s(g1
I118
VonClick
p7647
tp7648
I1
s(g1
I116
Vinit
p7649
tp7650
I1
s(g1
I498
VMessage
p7651
tp7652
I1
s(g1
I145
Vclear
p7653
tp7654
I1
s(g1
I427
VmDanmakuView
p7655
tp7656
I1
s(g1
I1287
VOverride
p7657
tp7658
I1
s(g1
I131
Vheight
p7659
tp7660
I1
s(g1
I623
Vstart
p7661
tp7662
I1
s(g1
I522
Vresult
p7663
tp7664
I1
s(g1
I172
Vmills
p7665
tp7666
I1
s(g1
I966
VmCacheManager
p7667
tp7668
I1
s(g1
I458
Vcanvas
p7669
tp7670
I1
s(g1
I42
VdrawItems
p7671
tp7672
I1
s(g1
I449
VmCallback
p7673
tp7674
I1
s(g1
I491
VQUIT
p7675
tp7676
I1
s(g1
I2088
VdanmakuSync
p7677
tp7678
I1
s(g1
I623
Vhandler
p7679
tp7680
I1
s(g1
I3165
VcacheSize
p7681
tp7682
I1
s(g1
I83
Vpublic
p7683
tp7684
I222
s(g1
I200
Vclear
p7685
tp7686
I1
s(g1
I403
Vmessage
p7687
tp7688
I1
s(g1
I991
Vit
p7689
tp7690
I1
s(g1
I77
VgetDataSource
p7691
tp7692
I1
s(g1
I523
VmDanmakuView
p7693
tp7694
I1
s(g1
I302
VDrawHelper
p7695
tp7696
I1
s(g1
I115
VgetJSONObject
p7697
tp7698
I1
s(g1
I247
VBaseDanmaku
p7699
tp7700
I1
s(g1
I377
VdanmakuList
p7701
tp7702
I1
s(g1
I115
Vdisp
p7703
tp7704
I1
s(g1
I256
VmLastRenderingState
p7705
tp7706
I1
s(g1
I123
Vmax
p7707
tp7708
I1
s(g1
I325
Vrelease
p7709
tp7710
I1
s(g1
I554
Vobj2
p7711
tp7712
I1
s(g1
I289
Vload
p7713
tp7714
I1
s(g1
I896
VActivityManager
p7715
tp7716
I1
s(g1
I226
VCacheManager
p7717
tp7718
I2
s(g1
I128
VMath
p7719
tp7720
I1
s(g1
I52
VOverride
p7721
tp7722
I1
s(g1
I1031
VisTimeOut
p7723
tp7724
I1
s(g1
I362
VclearCache
p7725
tp7726
I1
s(g1
I378
Vtimer
p7727
tp7728
I1
s(g1
I1416
VrunningDanmakus
p7729
tp7730
I1
s(g1
I389
VBaseDanmaku
p7731
tp7732
I1
s(g1
I608
Vhandler
p7733
tp7734
I1
s(g1
I190
VhasDrawingCache
p7735
tp7736
I1
s(g1
I1484
VADD_DANMAKKU
p7737
tp7738
I1
s(g1
I1206
VSystem
p7739
tp7740
I1
s(g1
I1045
VmCacheTimer
p7741
tp7742
I1
s(g1
I1696
Vsub
p7743
tp7744
I1
s(g1
I827
VCanvas
p7745
tp7746
I1
s(g1
I414
Vdanmaku
p7747
tp7748
I1
s(g1
I56
Vstream
p7749
tp7750
I1
s(g1
I268
Vparser
p7751
tp7752
I1
s(g1
I1417
VstartMS
p7753
tp7754
I1
s(g1
I1029
VmTouchHelper
p7755
tp7756
I1
s(g1
I372
Vcanvas
p7757
tp7758
I1
s(g1
I139
VException
p7759
tp7760
I1
s(g1
I1211
VsyncTimer
p7761
tp7762
I1
s(g1
I1451
VmCaches
p7763
tp7764
I1
s(g1
I939
Vdtime
p7765
tp7766
I1
s(g1
I407
VclearCanvas
p7767
tp7768
I1
s(g1
I462
VmHandler
p7769
tp7770
I1
s(g1
I865
VupdateVisibleFlag
p7771
tp7772
I1
s(g1
I707
VDrawTask
p7773
tp7774
I1
s(g1
I1725
VBaseDanmaku
p7775
tp7776
I1
s(g1
I508
VSTART
p7777
tp7778
I1
s(g1
I979
VquitUpdateThread
p7779
tp7780
I1
s(g1
I1239
Vpushed
p7781
tp7782
I1
s(g1
I681
Vwidth
p7783
tp7784
I1
s(g1
I401
Vcanvas
p7785
tp7786
I1
s(g1
I21
VDanmaku
p7787
tp7788
I1
s(g1
I1037
Ve
p7789
tp7790
I1
s(g1
I132
Vdanmaku
p7791
tp7792
I1
s(g1
I217
VfindViewById
p7793
tp7794
I1
s(g1
I301
Vitems
p7795
tp7796
I2
s(g1
I1216
VsyncTimerIfNeeded
p7797
tp7798
I1
s(g1
I243
VdrawSomeThing
p7799
tp7800
I1
s(g1
I939
VgetDefault
p7801
tp7802
I1
s(g1
I145
VdanmakuView
p7803
tp7804
I1
s(g1
I386
Vitem
p7805
tp7806
I1
s(g1
I168
VgetDisplayMetrics
p7807
tp7808
I1
s(g1
I458
VdrawDanmakus
p7809
tp7810
I1
s(g1
I881
Vhandler
p7811
tp7812
I1
s(g1
I770
VmDanmakuView
p7813
tp7814
I1
s(g1
I432
VBaseDanmakuParser
p7815
tp7816
I1
s(g1
I1160
Vtime
p7817
tp7818
I1
s(g1
I362
VmLastDanmaku
p7819
tp7820
I1
s(g1
I635
Vstime
p7821
tp7822
I1
s(g1
I1398
Vready
p7823
tp7824
I1
s(g1
I1238
VmCacheManager
p7825
tp7826
I1
s(g1
I236
VmCacheManager
p7827
tp7828
I3
s(g1
I129
Vholder
p7829
tp7830
I1
s(g1
I924
VmDanmakuView
p7831
tp7832
I1
s(g1
I142
Verase
p7833
tp7834
I1
s(g1
I48
VIDanmakus
p7835
tp7836
I1
s(g1
I198
Vitem
p7837
tp7838
I1
s(g1
I805
Vitr
p7839
tp7840
I1
s(g1
I1686
VIDanmakus
p7841
tp7842
I1
s(g1
I40
Vcounter
p7843
tp7844
I1
s(g1
I291
Vtext
p7845
tp7846
I1
s(g1
I233
Vresult
p7847
tp7848
I1
s(g1
I1195
Vtimer
p7849
tp7850
I1
s(g1
I1634
VsSlopPixelCache
p7851
tp7852
I1
s(g1
I320
Vdanmakus
p7853
tp7854
I1
s(g1
I94
VsetVisibility
p7855
tp7856
I1
s(g1
I212
Vitem
p7857
tp7858
I2
s(g1
I294
VsubItems
p7859
tp7860
I1
s(g1
I1045
VOverride
p7861
tp7862
I1
s(g1
I299
VBiliDanmukuParse
p7863
tp7864
I1
s(g1
I199
VOverride
p7865
tp7866
I1
s(g1
I500
VsendEmptyMessage
p7867
tp7868
I1
s(g1
I579
VunlockCanvasAndPost
p7869
tp7870
I1
s(g1
I804
VmStartRenderTime
p7871
tp7872
I1
s(g1
I514
Vi
p7873
tp7874
I1
s(g1
I529
VmBtnResumeDanmaku
p7875
tp7876
I1
s(g1
I1547
VremoveMessages
p7877
tp7878
I1
s(g1
I715
VgetHeight
p7879
tp7880
I1
s(g1
I361
VborderWidth
p7881
tp7882
I1
s(g1
I224
VcurrMills
p7883
tp7884
I1
s(g1
I710
VLong
p7885
tp7886
I1
s(g1
I1061
VdrawTask
p7887
tp7888
I1
s(g1
I1552
VBoolean
p7889
tp7890
I1
s(g1
I171
VMotionEvent
p7891
tp7892
I1
s(g1
I56
VDeviceUtils
p7893
tp7894
I1
s(g1
I1536
VmDisp
p7895
tp7896
I1
s(g1
I574
Vdanmaku
p7897
tp7898
I1
s(g1
I228
Vdanmaku
p7899
tp7900
I1
s(g1
I85
Vlen
p7901
tp7902
I1
s(g1
I334
VgetLooper
p7903
tp7904
I1
s(g1
I921
Vvalues
p7905
tp7906
I1
s(g1
I193
Vtime
p7907
tp7908
I1
s(g1
I676
VgetContext
p7909
tp7910
I1
s(g1
I650
VmSortType
p7911
tp7912
I1
s(g1
I423
VremoveAllDanmakus
p7913
tp7914
I1
s(g1
I294
VmLoader
p7915
tp7916
I1
s(g1
I50
VmDanmakus
p7917
tp7918
I1
s(g1
I453
VmCounter
p7919
tp7920
I1
s(g1
I376
Vquit
p7921
tp7922
I1
s(g1
I109
VmHolder
p7923
tp7924
I1
s(g1
I190
VmCache
p7925
tp7926
I1
s(g1
I772
VupdateInNewThread
p7927
tp7928
I1
s(g1
I1770
Vitem
p7929
tp7930
I1
s(g1
I153
Vout
p7931
tp7932
I1
s(g1
I687
VgetLooper
p7933
tp7934
I1
s(g1
I489
VPAUSE
p7935
tp7936
I1
s(g1
I240
VdanmakuList
p7937
tp7938
I1
s(g1
I841
Vi
p7939
tp7940
I1
s(g1
I380
VStringBuilder
p7941
tp7942
I1
s(g1
I64
VisMeasured
p7943
tp7944
I1
s(g1
I41
g310
tp7945
I121
s(g1
I136
VOverride
p7946
tp7947
I1
s(g1
I125
VmCallback
p7948
tp7949
I1
s(g1
I324
Vcache
p7950
tp7951
I1
s(g1
I112
VgetResources
p7952
tp7953
I1
s(g1
I216
VString
p7954
tp7955
I1
s(g1
I705
Vwidth
p7956
tp7957
I1
s(g1
I645
VisEmpty
p7958
tp7959
I1
s(g1
I516
Vresult
p7960
tp7961
I1
s(g1
I566
Vdanmaku
p7962
tp7963
I1
s(g1
I217
Vtext
p7964
tp7965
I1
s(g1
I177
Vnext
p7966
tp7967
I1
s(g1
I443
VOverride
p7968
tp7969
I1
s(g1
I107
VPAINT_FPS
p7970
tp7971
I1
s(g1
I1411
VNOTIFY_DISP_SIZE_CHANGED
p7972
tp7973
I1
s(g1
I147
VmDanmakus
p7974
tp7975
I1
s(g1
I609
Vj
p7976
tp7977
I1
s(g1
I746
Vsubnew
p7978
tp7979
I1
s(g1
I1186
Vhandler
p7980
tp7981
I1
s(g1
I1416
VuptimeMillis
p7982
tp7983
I1
s(g1
I285
Vbitmap
p7984
tp7985
I1
s(g1
I530
VmDanmakuView
p7986
tp7987
I1
s(g1
I1057
VmDisp
p7988
tp7989
I1
s(g1
I520
Vresult
p7990
tp7991
I1
s(g1
I249
VmCacheManager
p7992
tp7993
I1
s(g1
I1010
Vtime
p7994
tp7995
I1
s(g1
I165
VgetOnDanmakuClickListener
p7996
tp7997
I1
s(g1
I699
VendItem
p7998
tp7999
I1
s(g1
I596
Vstart
p8000
tp8001
I1
s(g1
I698
VdanmakuList
p8002
tp8003
I1
s(g1
I133
Vholder
p8004
tp8005
I1
s(g1
I110
VgetRowBytes
p8006
tp8007
I1
s(g1
I957
VquitLoop
p8008
tp8009
I1
s(g1
I76
VclearCanvas
p8010
tp8011
I2
s(g1
I1448
VdanmakuList
p8012
tp8013
I1
s(g1
I1027
VreleasedSize
p8014
tp8015
I1
s(g1
I1605
VcurrentTimeMillis
p8016
tp8017
I1
s(g1
I372
Vclear
p8018
tp8019
I1
s(g1
I233
VLocale
p8020
tp8021
I1
s(g1
I1715
Vlast
p8022
tp8023
I1
s(g1
I135
Vmin
p8024
tp8025
I1
s(g1
I329
VVideoView
p8026
tp8027
I1
s(g1
I326
VfindViewById
p8028
tp8029
I2
s(g1
I853
VOverride
p8030
tp8031
I1
s(g1
I128
Vinit
p8032
tp8033
I1
s(g1
I256
VOverride
p8034
tp8035
I1
s(g1
I55
VgetWidth
p8036
tp8037
I1
s(g1
I414
Vdanmakus
p8038
tp8039
I1
s(g1
I1026
VgapTime
p8040
tp8041
I1
s(g1
I125
VOverride
p8042
tp8043
I1
s(g1
I205
VfindViewById
p8044
tp8045
I1
s(g1
I65
Vdisp
p8046
tp8047
I1
s(g1
I662
VquitFlag
p8048
tp8049
I1
s(g1
I491
Vmsg
p8050
tp8051
I1
s(g1
I227
VgetResources
p8052
tp8053
I1
s(g1
I37
Vdanmakus
p8054
tp8055
I2
s(g1
I1592
VBaseDanmaku
p8056
tp8057
I1
s(g1
I183
VIDanmakus
p8058
tp8059
I1
s(g1
I88
VisShown
p8060
tp8061
I1
s(g1
I999
Vconsumer
p8062
tp8063
I1
s(g1
I260
Vx
p8064
tp8065
I1
s(g1
I1111
VSystem
p8066
tp8067
I1
s(g1
I538
VComparator
p8068
tp8069
I1
s(g1
I102
VcreateXMLReader
p8070
tp8071
I1
s(g1
I830
Vbottom
p8072
tp8073
I1
s(g1
I888
Venable
p8074
tp8075
I1
s(g1
I433
VnewTransparency
p8076
tp8077
I1
s(g1
I120
Vwidth
p8078
tp8079
I1
s(g1
I987
VsyncTimerIfNeeded
p8080
tp8081
I1
s(g1
I1709
VEnvironment
p8082
tp8083
I1
s(g1
I67
VwillHit
p8084
tp8085
I1
s(g1
I1002
VBaseDanmaku
p8086
tp8087
I1
s(g1
I195
VOverride
p8088
tp8089
I1
s(g1
I147
Vloader
p8090
tp8091
I1
s(g1
I676
VIDanmakuIterator
p8092
tp8093
I1
s(g1
I191
Vitem
p8094
tp8095
I1
s(g1
I1765
Vcacheitem
p8096
tp8097
I1
s(g1
I912
VsendEmptyMessageDelayed
p8098
tp8099
I1
s(g1
I315
Vtext
p8100
tp8101
I2
s(g1
I98
Vview
p8102
tp8103
I1
s(g1
I330
VstopDraw
p8104
tp8105
I1
s(g1
I1169
VgetAverageRenderingTime
p8106
tp8107
I1
s(g1
I125
Vc
p8108
tp8109
I1
s(g1
I392
VmContext
p8110
tp8111
I1
s(g1
I370
VconsumingTime
p8112
tp8113
I1
s(g1
I165
Vsize
p8114
tp8115
I1
s(g1
I372
VbeginTime
p8116
tp8117
I1
s(g1
I58
Vclear
p8118
tp8119
I1
s(g1
I215
VCanvas
p8120
tp8121
I1
s(g1
I490
VmDensity
p8122
tp8123
I1
s(g1
I1242
VsendEmptyMessageDelayed
p8124
tp8125
I1
s(g1
I833
VRunnable
p8126
tp8127
I1
s(g1
I316
Vrelease
p8128
tp8129
I1
s(g1
I219
Vdisplayer
p8130
tp8131
I1
s(g1
I78
VCOLOR_VALUE_WHITE_LIST
p8132
tp8133
I1
s(g1
I934
VmDrawTimes
p8134
tp8135
I1
s(g1
I867
Vrunnable
p8136
tp8137
I1
s(g1
I203
Vsize
p8138
tp8139
I1
s(g1
I727
VLog
p8140
tp8141
I1
s(g1
I198
VhasDrawingCache
p8142
tp8143
I1
s(g1
I214
Vresult
p8144
tp8145
I1
s(g1
I27
VsavedInstanceState
p8146
tp8147
I1
s(g1
I2467
Vitr
p8148
tp8149
I1
s(g1
I58
Vequals
p8150
tp8151
I1
s(g1
I352
VOverride
p8152
tp8153
I1
s(g1
I726
VcurrTime
p8154
tp8155
I1
s(g1
I655
Vb
p8156
tp8157
I1
s(g1
I979
VIterator
p8158
tp8159
I1
s(g1
I776
Vsleep
p8160
tp8161
I1
s(g1
I937
VrequestClear
p8162
tp8163
I1
s(g1
I141
Vcanvas
p8164
tp8165
I1
s(g1
I203
VdanmakuList
p8166
tp8167
I1
s(g1
I355
VstartTime
p8168
tp8169
I1
s(g1
I1623
Vcontext
p8170
tp8171
I1
s(g1
I141
Vdensity
p8172
tp8173
I1
s(g1
I1603
VCLEAR_ALL_CACHES
p8174
tp8175
I1
s(g1
I324
Vstart
p8176
tp8177
I2
s(g1
I150
VOverride
p8178
tp8179
I1
s(g1
I349
VAbsDisplayer
p8180
tp8181
I1
s(g1
I187
Vdisp
p8182
tp8183
I1
s(g1
I54
Vitr
p8184
tp8185
I1
s(g1
I135
VprintStackTrace
p8186
tp8187
I1
s(g1
I540
VrequestSync
p8188
tp8189
I1
s(g1
I629
VmDrawTimes
p8190
tp8191
I1
s(g1
I374
Vcanvas
p8192
tp8193
I1
s(g1
I791
VupdateVisibleFlag
p8194
tp8195
I1
s(g1
I120
VDanmakuRenderer
p8196
tp8197
I1
s(g1
I185
Vmills
p8198
tp8199
I1
s(g1
I1057
VsetDisplayer
p8200
tp8201
I1
s(g1
I45
Vdisp
p8202
tp8203
I1
s(g1
I271
VmRect
p8204
tp8205
I1
s(g1
I695
Vtask
p8206
tp8207
I1
s(g1
I336
VcurrentTimeMillis
p8208
tp8209
I1
s(g1
I163
Vitem
p8210
tp8211
I1
s(g1
I1578
VonDanmakuAdd
p8212
tp8213
I1
s(g1
I221
Vy
p8214
tp8215
I1
s(g1
I2469
VmPause
p8216
tp8217
I1
s(g1
I67
VmHolder
p8218
tp8219
I1
s(g1
I30
VsavedInstanceState
p8220
tp8221
I1
s(g1
I237
VdefStyle
p8222
tp8223
I1
s(g1
I602
VquitFlag
p8224
tp8225
I1
s(g1
I195
VsetCallback
p8226
tp8227
I1
s(g1
I340
VdanmakuVisibile
p8228
tp8229
I1
s(g1
I306
Vrecycle
p8230
tp8231
I1
s(g1
I147
VmSurfaceHolder
p8232
tp8233
I1
s(g1
I413
VinvalidateDanmaku
p8234
tp8235
I1
s(g1
I618
Vpostion
p8236
tp8237
I1
s(g1
I546
Vsleep
p8238
tp8239
I2
s(g1
I261
VstaticLayout
p8240
tp8241
I1
s(g1
I205
VcurrentTimeMillis
p8242
tp8243
I1
s(g1
I48
VdrawItems
p8244
tp8245
I1
s(g1
I507
VaverageWidth
p8246
tp8247
I1
s(g1
I407
VOverride
p8248
tp8249
I1
s(g1
I99
VdrawItem
p8250
tp8251
I1
s(g1
I264
Vremeasure
p8252
tp8253
I1
s(g1
I1029
VaverageTime
p8254
tp8255
I1
s(g1
I321
VmBtnResumeDanmaku
p8256
tp8257
I1
s(g1
I343
VsetVideoPath
p8258
tp8259
I1
s(g1
I140
Vget
p8260
tp8261
I1
s(g1
I353
VmHandler
p8262
tp8263
I1
s(g1
I495
VmTimer
p8264
tp8265
I1
s(g1
I142
VmSurfaceHolder
p8266
tp8267
I1
s(g1
I67
Vholder
p8268
tp8269
I1
s(g1
I51
Vdisp
p8270
tp8271
I1
s(g1
I143
Vset
p8272
tp8273
I1
s(g1
I1248
VSEEK
p8274
tp8275
I1
s(g1
I895
VOverride
p8276
tp8277
I1
s(g1
I237
VmDanmakuView
p8278
tp8279
I1
s(g1
I194
VelapsedTime
p8280
tp8281
I1
s(g1
I689
Vcontext
p8282
tp8283
I1
s(g1
I1219
Vd
p8284
tp8285
I1
s(g1
I1719
VOverride
p8286
tp8287
I1
s(g1
I188
VBiliDanmukuParse
p8288
tp8289
I1
s(g1
I555
Vv
p8290
tp8291
I1
s(g1
I522
VmCachePool
p8292
tp8293
I1
s(g1
I683
VdeltaMs
p8294
tp8295
I1
s(g1
I143
Vdisplayer
p8296
tp8297
I1
s(g1
I212
Vcanvas
p8298
tp8299
I1
s(g1
I117
VmTimer
p8300
tp8301
I2
s(g1
I352
VmUpdateInNewThread
p8302
tp8303
I1
s(g1
I1541
VseekBy
p8304
tp8305
I1
s(g1
I146
Vconfig
p8306
tp8307
I1
s(g1
I853
Vrun
p8308
tp8309
I1
s(g1
I36
VsetColor
p8310
tp8311
I2
s(g1
I9
VString
p8312
tp8313
I2
s(g1
I148
VDanmakuConfigTag
p8314
tp8315
I1
s(g1
I1532
VdispatchAction
p8316
tp8317
I1
s(g1
I204
Viterator
p8318
tp8319
I1
s(g1
I573
Vnext
p8320
tp8321
I1
s(g1
I638
Vdanmaku
p8322
tp8323
I2
s(g1
I186
VsetVisibility
p8324
tp8325
I1
s(g1
I377
VendMills
p8326
tp8327
I1
s(g1
I1168
VOverride
p8328
tp8329
I1
s(g1
I746
VsendEmptyMessage
p8330
tp8331
I1
s(g1
I39
VDanmakus
p8332
tp8333
I1
s(g1
I507
VxIndex
p8334
tp8335
I1
s(g1
I81
VdrawCache
p8336
tp8337
I1
s(g1
I148
VfbdrInstance
p8338
tp8339
I1
s(g1
I113
VFileInputStream
p8340
tp8341
I1
s(g1
I651
VbeginMills
p8342
tp8343
I1
s(g1
I725
VcurrentTimeMillis
p8344
tp8345
I1
s(g1
I247
VdrawItem
p8346
tp8347
I1
s(g1
I514
Vobj2
p8348
tp8349
I1
s(g1
I32
VPROCESSOR_NUM
p8350
tp8351
I1
s(g1
I605
Vpostion
p8352
tp8353
I1
s(g1
I1318
VmMaxSize
p8354
tp8355
I1
s(g1
I383
VretItems
p8356
tp8357
I1
s(g1
I568
VgetAverageRenderingTime
p8358
tp8359
I1
s(g1
I1427
VremoveAllDanmakus
p8360
tp8361
I1
s(g1
I55
Vh
p8362
tp8363
I1
s(g1
I282
VmBtnResumeDanmaku
p8364
tp8365
I1
s(g1
I42
VmDanmakuBounds
p8366
tp8367
I1
s(g1
I175
VDanmakuFactory
p8368
tp8369
I1
s(g1
I500
Vmsg
p8370
tp8371
I1
s(g1
I58
VLong
p8372
tp8373
I1
s(g1
I338
VmDanmakuView
p8374
tp8375
I1
s(g1
I174
VtempStr
p8376
tp8377
I1
s(g1
I644
VpostInvalidateCompat
p8378
tp8379
I1
s(g1
I72
Vholder
p8380
tp8381
I2
s(g1
I689
Vwidth
p8382
tp8383
I1
s(g1
I830
Vitem
p8384
tp8385
I1
s(g1
I326
Vadd
p8386
tp8387
I1
s(g1
I159
VclearRetainer
p8388
tp8389
I1
s(g1
I1621
VmCallback
p8390
tp8391
I1
s(g1
I1602
VonDanmakuAdd
p8392
tp8393
I1
s(g1
I529
VfromTimeMills
p8394
tp8395
I1
s(g1
I127
VnativeLibLoaded
p8396
tp8397
I1
s(g1
I343
VclearCaches
p8398
tp8399
I1
s(g1
I722
VmTimerThread
p8400
tp8401
I1
s(g1
I315
VRectCache
p8402
tp8403
I1
s(g1
I839
Vval
p8404
tp8405
I1
s(g1
I7
VBaseDanmaku
p8406
tp8407
I1
s(g1
I787
Vreset
p8408
tp8409
I1
s(g1
I491
Vmeasure
p8410
tp8411
I1
s(g1
I296
Vbitmap
p8412
tp8413
I1
s(g1
I782
VmDanmakusVisible
p8414
tp8415
I1
s(g1
I809
Vupdate
p8416
tp8417
I1
s(g1
I597
VstrokeTop
p8418
tp8419
I1
s(g1
I801
VupdateFlag
p8420
tp8421
I1
s(g1
I478
VUPDATE
p8422
tp8423
I1
s(g1
I49
Vitr
p8424
tp8425
I2
s(g1
I358
Vcount
p8426
tp8427
I1
s(g1
I60
Vnext
p8428
tp8429
I1
s(g1
I815
Vpoints
p8430
tp8431
I1
s(g1
I91
VOverride
p8432
tp8433
I1
s(g1
I1461
Vcache
p8434
tp8435
I1
s(g1
I346
VRuntime
p8436
tp8437
I1
s(g1
I323
VgetMessage
p8438
tp8439
I1
s(g1
I34
VVideoView
p8440
tp8441
I1
s(g1
I870
Venable
p8442
tp8443
I1
s(g1
I189
Vitems
p8444
tp8445
I1
s(g1
I832
VhasNext
p8446
tp8447
I1
s(g1
I240
VonDanmakuShown
p8448
tp8449
I1
s(g1
I446
Vclear
p8450
tp8451
I1
s(g1
I708
VSortedSet
p8452
tp8453
I1
s(g1
I1084
Vdraw
p8454
tp8455
I1
s(g1
I792
VBoolean
p8456
tp8457
I1
s(g1
I388
VisEmpty
p8458
tp8459
I1
s(g1
I219
Vremeasure
p8460
tp8461
I1
s(g1
I36
VDanmakus
p8462
tp8463
I1
s(g1
I504
VRESUME
p8464
tp8465
I1
s(g1
I1636
VtaskListener
p8466
tp8467
I1
s(g1
I296
VmDrawThread
p8468
tp8469
I1
s(g1
I189
VUSE_DRAWCOLOR_MODE_CLEAR
p8470
tp8471
I1
s(g1
I29
VTextPaint
p8472
tp8473
I1
s(g1
I252
VStaticLayout
p8474
tp8475
I1
s(g1
I138
VFileNotFoundException
p8476
tp8477
I1
s(g1
I1052
VDanmakuUtils
p8478
tp8479
I1
s(g1
I219
VmCacheManager
p8480
tp8481
I1
s(g1
I580
VdanmakuList
p8482
tp8483
I1
s(g1
I312
Ve
p8484
tp8485
I1
s(g1
I278
VcurrStateValues
p8486
tp8487
I1
s(g1
I71
VsizeInScreen
p8488
tp8489
I1
s(g1
I1492
Vitem
p8490
tp8491
I1
s(g1
I148
VPAINT_FPS
p8492
tp8493
I1
s(g1
I549
Vquit
p8494
tp8495
I1
s(g1
I253
VaverageRenderingTime
p8496
tp8497
I1
s(g1
I196
VelapsedTime
p8498
tp8499
I1
s(g1
I472
Vd
p8500
tp8501
I1
s(g1
I1241
Vitem
p8502
tp8503
I1
s(g1
I88
Vsize
p8504
tp8505
I1
s(g1
I310
VsetOnClickListener
p8506
tp8507
I2
s(g1
I498
Vhandler
p8508
tp8509
I1
s(g1
I643
Vhandler
p8510
tp8511
I1
s(g1
I1234
VSystem
p8512
tp8513
I1
s(g1
I1119
VdrawTask
p8514
tp8515
I1
s(g1
I15
VAndroidCounter
p8516
tp8517
I1
s(g1
I63
VvalueOf
p8518
tp8519
I1
s(g1
I1030
VmDuplicateMergingEnable
p8520
tp8521
I1
s(g1
I336
VmThread
p8522
tp8523
I1
s(g1
I530
VGlobalFlagValues
p8524
tp8525
I1
s(g1
I696
Vquit
p8526
tp8527
I1
s(g1
I382
VrunningDanmakus
p8528
tp8529
I1
s(g1
I689
VgetActualTime
p8530
tp8531
I1
s(g1
I1563
VlongValue
p8532
tp8533
I1
s(g1
I383
VBaseDanmaku
p8534
tp8535
I1
s(g1
I729
VisEmpty
p8536
tp8537
I1
s(g1
I1029
Vhandler
p8538
tp8539
I1
s(g1
I242
Vitr
p8540
tp8541
I1
s(g1
I1210
VSystem
p8542
tp8543
I1
s(g1
I476
Vdanmakus
p8544
tp8545
I1
s(g1
I457
VCacheHandler
p8546
tp8547
I1
s(g1
I118
Vh
p8548
tp8549
I1
s(g1
I29
VPaint
p8550
tp8551
I1
s(g1
I607
VSystem
p8552
tp8553
I1
s(g1
I1048
Vresume
p8554
tp8555
I1
s(g1
I354
VmBtnSendDanmakus
p8556
tp8557
I1
s(g1
I1222
VmDanmakuView
p8558
tp8559
I1
s(g1
I562
VmCaches
p8560
tp8561
I1
s(g1
I662
VmBtnSendDanmakus
p8562
tp8563
I1
s(g1
I316
VsetOnClickListener
p8564
tp8565
I1
s(g1
I65
VInputStream
p8566
tp8567
I1
s(g1
I834
Vhandler
p8568
tp8569
I1
s(g1
I929
VUPDATE_WHEN_PAUSED
p8570
tp8571
I1
s(g1
I377
VnothingRendered
p8572
tp8573
I1
s(g1
I494
VpausedPostion
p8574
tp8575
I1
s(g1
I347
VSystem
p8576
tp8577
I1
s(g1
I53
Vcreate
p8578
tp8579
I1
s(g1
I316
VmBtnPauseDanmaku
p8580
tp8581
I1
s(g1
I23
VsavedInstanceState
p8582
tp8583
I1
s(g1
I302
Vseek
p8584
tp8585
I1
s(g1
I1113
VmDisp
p8586
tp8587
I1
s(g1
I502
Ve
p8588
tp8589
I1
s(g1
I565
Vdtime
p8590
tp8591
I1
s(g1
I893
VgetMainLooper
p8592
tp8593
I1
s(g1
I43
VnativeIntField
p8594
tp8595
I1
s(g1
I653
Vcanvas
p8596
tp8597
I1
s(g1
I758
Vprepare
p8598
tp8599
I2
s(g1
I1536
Vwidth
p8600
tp8601
I1
s(g1
I1011
Vnext
p8602
tp8603
I1
s(g1
I882
Vitem
p8604
tp8605
I1
s(g1
I255
Vtimer
p8606
tp8607
I2
s(g1
I1211
VmThresholdTime
p8608
tp8609
I1
s(g1
I392
VvisibleDanmakus
p8610
tp8611
I1
s(g1
I49
VdrawItems
p8612
tp8613
I2
s(g1
I328
Vstart
p8614
tp8615
I1
s(g1
I209
VmCacheTimer
p8616
tp8617
I1
s(g1
I685
Vitem
p8618
tp8619
I1
s(g1
I923
VBaseDanmaku
p8620
tp8621
I1
s(g1
I1056
VdiffTime
p8622
tp8623
I1
s(g1
I328
Vhandler
p8624
tp8625
I1
s(g1
I144
Vbitmap
p8626
tp8627
I1
s(g1
I258
VmTimer
p8628
tp8629
I1
s(g1
I641
VdrawTask
p8630
tp8631
I1
s(g1
I56
VIDisplayer
p8632
tp8633
I1
s(g1
I185
VgetPaint
p8634
tp8635
I1
s(g1
I68
VmDisp
p8636
tp8637
I1
s(g1
I37
VsetProperty
p8638
tp8639
I1
s(g1
I293
VsurfaceHolder
p8640
tp8641
I1
s(g1
I1143
VhasDrawingCache
p8642
tp8643
I1
s(g1
I1413
VsendToTarget
p8644
tp8645
I1
s(g1
I355
VDanmakuTimer
p8646
tp8647
I1
s(g1
I194
Vitems
p8648
tp8649
I2
s(g1
I126
VprintStackTrace
p8650
tp8651
I1
s(g1
I795
VOverride
p8652
tp8653
I1
s(g1
I991
VpausedPosition
p8654
tp8655
I1
s(g1
I494
Vbmp
p8656
tp8657
I1
s(g1
I569
Vr
p8658
tp8659
I1
s(g1
I1006
Vit
p8660
tp8661
I1
s(g1
I1760
VBaseDanmaku
p8662
tp8663
I1
s(g1
I223
Vsub
p8664
tp8665
I1
s(g1
I1030
Venable
p8666
tp8667
I1
s(g1
I163
Vfilter
p8668
tp8669
I1
s(g1
I301
Vitem
p8670
tp8671
I1
s(g1
I281
VfromWorkerThread
p8672
tp8673
I2
s(g1
I224
Vdanmakus
p8674
tp8675
I1
s(g1
I511
VInterruptedException
p8676
tp8677
I1
s(g1
I358
VmHandler
p8678
tp8679
I1
s(g1
I139
VcurrTime
p8680
tp8681
I1
s(g1
I303
VmDrawThread
p8682
tp8683
I1
s(g1
I1125
VmDrawTimes
p8684
tp8685
I1
s(g1
I33
VSystemClock
p8686
tp8687
I1
s(g1
I168
VrldrInstance
p8688
tp8689
I1
s(g1
I81
Vin
p8690
tp8691
I1
s(g1
I196
VOverride
p8692
tp8693
I1
s(g1
I186
VisPlaying
p8694
tp8695
I1
s(g1
I1357
VorderInScreen
p8696
tp8697
I1
s(g1
I372
VmLastDanmaku
p8698
tp8699
I1
s(g1
I909
VIterator
p8700
tp8701
I1
s(g1
I1092
VremoveMessages
p8702
tp8703
I1
s(g1
I222
Viterator
p8704
tp8705
I1
s(g1
I702
VremoveAllLiveDanmakus
p8706
tp8707
I1
s(g1
I1295
VconsumingTime
p8708
tp8709
I1
s(g1
I286
Vquit
p8710
tp8711
I1
s(g1
I160
VgetDanmakus
p8712
tp8713
I1
s(g1
I1543
Vlevel
p8714
tp8715
I1
s(g1
I210
Viterator
p8716
tp8717
I1
s(g1
I782
VNOTIFY_DISP_SIZE_CHANGED
p8718
tp8719
I1
s(g1
I340
VCanvas
p8720
tp8721
I1
s(g1
I89
VIOUtils
p8722
tp8723
I1
s(g1
I61
Vcanvas
p8724
tp8725
I1
s(g1
I190
VmPopupWindow
p8726
tp8727
I1
s(g1
I225
VcurrTime
p8728
tp8729
I1
s(g1
I375
VmDispScaleY
p8730
tp8731
I1
s(g1
I1441
VOutOfMemoryError
p8732
tp8733
I1
s(g1
I681
Vtimer
p8734
tp8735
I1
s(g1
I295
VsetOnClickListener
p8736
tp8737
I1
s(g1
I1766
Vitem
p8738
tp8739
I1
s(g1
I1771
Vdanmaku
p8740
tp8741
I1
s(g1
I310
VmHandler
p8742
tp8743
I1
s(g1
I920
VrequestClear
p8744
tp8745
I1
s(g1
I259
VmRects
p8746
tp8747
I1
s(g1
I294
VgetLooper
p8748
tp8749
I1
s(g1
I1040
Vhandler
p8750
tp8751
I1
s(g1
I1195
VupdateTimer
p8752
tp8753
I1
s(g1
I129
VmRenderer
p8754
tp8755
I2
s(g1
I226
VtagName
p8756
tp8757
I1
s(g1
I910
Vcontains
p8758
tp8759
I1
s(g1
I167
VmCache
p8760
tp8761
I1
s(g1
I804
Vdanmakus
p8762
tp8763
I1
s(g1
I351
Vquit
p8764
tp8765
I1
s(g1
I135
Vdisp
p8766
tp8767
I2
s(g1
I73
VDanmakuFactory
p8768
tp8769
I1
s(g1
I1113
VmTimeBase
p8770
tp8771
I1
s(g1
I1290
Vresume
p8772
tp8773
I1
s(g1
I185
VmCacheTimer
p8774
tp8775
I1
s(g1
I99
VtextHeight
p8776
tp8777
I1
s(g1
I70
Vdanmakus
p8778
tp8779
I1
s(g1
I222
VBaseDanmakuParser
p8780
tp8781
I1
s(g1
I195
VTAG
p8782
tp8783
I1
s(g1
I1626
VgetXOff
p8784
tp8785
I1
s(g1
I885
Vresume
p8786
tp8787
I1
s(g1
I137
VUri
p8788
tp8789
I1
s(g1
I238
Vevent
p8790
tp8791
I1
s(g1
I245
VmCacheManager
p8792
tp8793
I1
s(g1
I280
Vcapity
p8794
tp8795
I1
s(g1
I671
VdanmakuList
p8796
tp8797
I1
s(g1
I352
VsetDanmakuStyle
p8798
tp8799
I1
s(g1
I613
VBoolean
p8800
tp8801
I1
s(g1
I1599
Vquit
p8802
tp8803
I1
s(g1
I179
Vdanmaku
p8804
tp8805
I1
s(g1
I377
VStringBuilder
p8806
tp8807
I1
s(g1
I237
VdanmakuList
p8808
tp8809
I1
s(g1
I400
VDrawHelper
p8810
tp8811
I1
s(g1
I108
Vi
p8812
tp8813
I1
s(g1
I236
VMotionEvent
p8814
tp8815
I1
s(g1
I984
VsetBounds
p8816
tp8817
I1
s(g1
I326
VsurfaceDestroyed
p8818
tp8819
I1
s(g1
I123
VMath
p8820
tp8821
I1
s(g1
I1233
Vd
p8822
tp8823
I1
s(g1
I834
VBaseDanmaku
p8824
tp8825
I1
s(g1
I261
VaddDanmaku
p8826
tp8827
I1
s(g1
I340
VgetExternalStorageDirectory
p8828
tp8829
I1
s(g1
I1434
Vpushed
p8830
tp8831
I1
s(g1
I362
VisOutside
p8832
tp8833
I1
s(g1
I1055
VmFrameUpdateRate
p8834
tp8835
I1
s(g1
I1224
Vmax
p8836
tp8837
I1
s(g1
I144
VDanmakuGlobalConfig
p8838
tp8839
I1
s(g1
I524
VQUIT
p8840
tp8841
I1
s(g1
I45
VmDispWidth
p8842
tp8843
I1
s(g1
I1192
VOverride
p8844
tp8845
I1
s(g1
I61
Vdisp
p8846
tp8847
I1
s(g1
I1072
Vdanmaku
p8848
tp8849
I1
s(g1
I923
Venable
p8850
tp8851
I1
s(g1
I325
VonCreateViewHolder
p8852
tp8853
I1
s(g1
I565
VFloat
p8854
tp8855
I1
s(g1
I656
VsubDanmakus
p8856
tp8857
I1
s(g1
I581
VNOTIFY_DISP_SIZE_CHANGED
p8858
tp8859
I2
s(g1
I68
VDanmakuFilters
p8860
tp8861
I1
s(g1
I93
VlastInterval
p8862
tp8863
I1
s(g1
I593
Vstime
p8864
tp8865
I1
s(g1
I179
VgetAssets
p8866
tp8867
I1
s(g1
I274
VmScale
p8868
tp8869
I1
s(g1
I373
VdrawTask
p8870
tp8871
I1
s(g1
I442
Vval
p8872
tp8873
I1
s(g1
I233
Vtop
p8874
tp8875
I1
s(g1
I37
VDanmakuLoaderFactory
p8876
tp8877
I2
s(g1
I127
VmTimer
p8878
tp8879
I2
s(g1
I774
VdrawDanmakus
p8880
tp8881
I1
s(g1
I231
VcreateParser
p8882
tp8883
I1
s(g1
I600
Vitems
p8884
tp8885
I1
s(g1
I1056
VsetAverageRenderingTime
p8886
tp8887
I1
s(g1
I341
Vdtime
p8888
tp8889
I1
s(g1
I858
VmStartRenderTime
p8890
tp8891
I1
s(g1
I1010
VnewValue
p8892
tp8893
I1
s(g1
I1379
Vitem
p8894
tp8895
I1
s(g1
I144
Ve
p8896
tp8897
I1
s(g1
I693
VSystem
p8898
tp8899
I1
s(g1
I858
VmLastDanmaku
p8900
tp8901
I1
s(g1
I1004
VBaseDanmaku
p8902
tp8903
I1
s(g1
I712
VThread
p8904
tp8905
I1
s(g1
I86
VisVisibilityTag
p8906
tp8907
I1
s(g1
I1284
VmSeekedFlag
p8908
tp8909
I1
s(g1
I1030
VmDanmakuView
p8910
tp8911
I1
s(g1
I658
Ve
p8912
tp8913
I1
s(g1
I314
Vhandler
p8914
tp8915
I1
s(g1
I261
Vobj2
p8916
tp8917
I1
s(g1
I338
VDanmaku
p8918
tp8919
I1
s(g1
I381
VList
p8920
tp8921
I1
s(g1
I303
VstartDraw
p8922
tp8923
I1
s(g1
I777
VdanmakuList
p8924
tp8925
I1
s(g1
I124
Vobj
p8926
tp8927
I1
s(g1
I125
Vdanmaku
p8928
tp8929
I1
s(g1
I60
VdrawItem
p8930
tp8931
I2
s(g1
I168
VgetCacheHeight
p8932
tp8933
I1
s(g1
I1748
VmTaskListener
p8934
tp8935
I1
s(g1
I852
Vitems
p8936
tp8937
I1
s(g1
I466
Vseek
p8938
tp8939
I1
s(g1
I823
Vit
p8940
tp8941
I1
s(g1
I113
VmDanmakuView
p8942
tp8943
I1
s(g1
I229
VCanvas
p8944
tp8945
I1
s(g1
I555
VmBtnSendDanmaku
p8946
tp8947
I1
s(g1
I1161
VgapTime
p8948
tp8949
I1
s(g1
I380
VsetDanmakuStyle
p8950
tp8951
I1
s(g1
I1451
Vfirst
p8952
tp8953
I1
s(g1
I22
VTextPaint
p8954
tp8955
I1
s(g1
I32
VAndroidCounter
p8956
tp8957
I1
s(g1
I663
VBitmap
p8958
tp8959
I1
s(g1
I301
Vadd
p8960
tp8961
I1
s(g1
I105
VFBDanmakusRetainer
p8962
tp8963
I1
s(g1
I229
VremoveAllDanmakus
p8964
tp8965
I1
s(g1
I70
Vequals
p8966
tp8967
I1
s(g1
I162
Vtop
p8968
tp8969
I1
s(g1
I1111
VCacheManagingDrawTask
p8970
tp8971
I1
s(g1
I1001
VSystem
p8972
tp8973
I1
s(g1
I901
Vhandler
p8974
tp8975
I1
s(g1
I1020
VMotionEvent
p8976
tp8977
I1
s(g1
I27
VonCreate
p8978
tp8979
I1
s(g1
I18
VDanmakuFactory
p8980
tp8981
I1
s(g1
I1104
VMath
p8982
tp8983
I1
s(g1
I50
VonCreateOptionsMenu
p8984
tp8985
I1
s(g1
I811
VmRenderingState
p8986
tp8987
I1
s(g1
I336
VmTimer
p8988
tp8989
I1
s(g1
I285
Vcurr
p8990
tp8991
I1
s(g1
I360
VdanmakuList
p8992
tp8993
I1
s(g1
I614
VdrawDanmakus
p8994
tp8995
I1
s(g1
I987
VImageSpan
p8996
tp8997
I1
s(g1
I690
VmDrawMonitor
p8998
tp8999
I1
s(g1
I224
VisShowing
p9000
tp9001
I1
s(g1
I424
VrefreshRect
p9002
tp9003
I1
s(g1
I15
VActivity
p9004
tp9005
I2
s(g1
I579
Vpaint
p9006
tp9007
I1
s(g1
I110
Vdanmaku
p9008
tp9009
I1
s(g1
I385
VdanmakuList
p9010
tp9011
I1
s(g1
I41
VgetMenuInflater
p9012
tp9013
I1
s(g1
I175
Vmills
p9014
tp9015
I1
s(g1
I1060
VdiffTime
p9016
tp9017
I1
s(g1
I1536
VsetSize
p9018
tp9019
I1
s(g1
I1440
Vd
p9020
tp9021
I1
s(g1
I76
Vdisp
p9022
tp9023
I1
s(g1
I690
VstartTime
p9024
tp9025
I1
s(g1
I78
VdrawItem
p9026
tp9027
I2
s(g1
I46
VmDispWidth
p9028
tp9029
I1
s(g1
I1568
VBaseDanmaku
p9030
tp9031
I1
s(g1
I1028
VrequestClear
p9032
tp9033
I1
s(g1
I85
VdrawDuration
p9034
tp9035
I1
s(g1
I373
Vitems
p9036
tp9037
I1
s(g1
I193
VmCache
p9038
tp9039
I1
s(g1
I1133
VmDrawTimes
p9040
tp9041
I1
s(g1
I143
VCanvas
p9042
tp9043
I1
s(g1
I486
VView
p9044
tp9045
I1
s(g1
I485
VsendEmptyMessage
p9046
tp9047
I1
s(g1
I342
Vlooper
p9048
tp9049
I1
s(g1
I539
VBaseDanmaku
p9050
tp9051
I1
s(g1
I545
VmRenderer
p9052
tp9053
I1
s(g1
I97
VdrawItem
p9054
tp9055
I1
s(g1
I1018
VmDanmakusVisible
p9056
tp9057
I1
s(g1
I151
VpaintWidth
p9058
tp9059
I1
s(g1
I1019
VremoveMessages
p9060
tp9061
I1
s(g1
I787
Vsleep
p9062
tp9063
I1
s(g1
I823
Vbottom
p9064
tp9065
I1
s(g1
I210
VsetOnClickListener
p9066
tp9067
I1
s(g1
I195
VmYOff
p9068
tp9069
I1
s(g1
I97
VdataSource
p9070
tp9071
I1
s(g1
I1105
VmTimeBase
p9072
tp9073
I1
s(g1
I256
VBaseDanmaku
p9074
tp9075
I1
s(g1
I207
VtaskListener
p9076
tp9077
I1
s(g1
I652
VmDrawMonitor
p9078
tp9079
I1
s(g1
I131
Vequals
p9080
tp9081
I1
s(g1
I565
Vwhat
p9082
tp9083
I1
s(g1
I83
Vprotected
p9084
tp9085
I21
s(g1
I1173
Vtype
p9086
tp9087
I1
s(g1
I605
VmDanmakuView
p9088
tp9089
I1
s(g1
I1714
Vdanmakus
p9090
tp9091
I1
s(g1
I1305
VremoveCallbacksAndMessages
p9092
tp9093
I1
s(g1
I354
VsetOnClickListener
p9094
tp9095
I1
s(g1
I70
g310
tp9096
I1
s(g1
I141
VclearRetainer
p9097
tp9098
I1
s(g1
I135
VIOException
p9099
tp9100
I1
s(g1
I973
VLong
p9101
tp9102
I1
s(g1
I479
VmHandler
p9103
tp9104
I1
s(g1
I1265
Ve
p9105
tp9106
I1
s(g1
I146
VmTouchDelegate
p9107
tp9108
I1
s(g1
I514
VgetTop
p9109
tp9110
I1
s(g1
I180
VmTimer
p9111
tp9112
I1
s(g1
I1068
VmDisp
p9113
tp9114
I1
s(g1
I192
Vitems
p9115
tp9116
I1
s(g1
I515
VFloat
p9117
tp9118
I1
s(g1
I124
VIDisplayer
p9119
tp9120
I2
s(g1
I1277
VisHardwareAccelerated
p9121
tp9122
I1
s(g1
I115
VjsonArray
p9123
tp9124
I1
s(g1
I348
VmThread
p9125
tp9126
I1
s(g1
I1222
VmScreenSize
p9127
tp9128
I1
s(g1
I368
Ve
p9129
tp9130
I2
s(g1
I711
VgetContext
p9131
tp9132
I1
s(g1
I838
Vnext
p9133
tp9134
I1
s(g1
I576
Vtimer
p9135
tp9136
I1
s(g1
I238
VmMediaController
p9137
tp9138
I1
s(g1
I598
VupdateFlag
p9139
tp9140
I2
s(g1
I1042
Vobj1
p9141
tp9142
I1
s(g1
I1447
VBaseDanmaku
p9143
tp9144
I1
s(g1
I2458
VIDanmakuIterator
p9145
tp9146
I1
s(g1
I1466
Vtag
p9147
tp9148
I1
s(g1
I965
VsendEmptyMessageDelayed
p9149
tp9150
I1
s(g1
I116
VxmlReader
p9151
tp9152
I1
s(g1
I1460
Vhandled
p9153
tp9154
I1
s(g1
I976
VLong
p9155
tp9156
I1
s(g1
I476
Vclear
p9157
tp9158
I1
s(g1
I1004
VmOnClickListener
p9159
tp9160
I1
s(g1
I592
VonBackPressed
p9161
tp9162
I1
s(g1
I1580
VOverride
p9163
tp9164
I1
s(g1
I1062
Vposition
p9165
tp9166
I1
s(g1
I149
VBitmap
p9167
tp9168
I1
s(g1
I364
VCanvas
p9169
tp9170
I1
s(g1
I820
Vright
p9171
tp9172
I1
s(g1
I66
VDanmakusRetainer
p9173
tp9174
I1
s(g1
I259
VString
p9175
tp9176
I1
s(g1
I981
VBaseDanmaku
p9177
tp9178
I1
s(g1
I205
VdanmakuList
p9179
tp9180
I1
s(g1
I264
Vhandler
p9181
tp9182
I1
s(g1
I2045
VgetCurrentVisibleDanmakus
p9183
tp9184
I1
s(g1
I137
VsetWillNotDraw
p9185
tp9186
I1
s(g1
I1559
VMath
p9187
tp9188
I1
s(g1
I993
Vdrawable
p9189
tp9190
I1
s(g1
I966
Vpush
p9191
tp9192
I1
s(g1
I1242
Vpushed
p9193
tp9194
I1
s(g1
I217
Vx
p9195
tp9196
I1
s(g1
I397
VDanmakuTimer
p9197
tp9198
I1
s(g1
I137
VConfigChangedCallback
p9199
tp9200
I1
s(g1
I51
VmDispWidth
p9201
tp9202
I1
s(g1
I1221
VgapTime
p9203
tp9204
I1
s(g1
I498
Vmsg
p9205
tp9206
I1
s(g1
I338
VMAX_CACHE_SCREEN_SIZE
p9207
tp9208
I1
s(g1
I1601
VdTime
p9209
tp9210
I1
s(g1
I39
VmScaledDensity
p9211
tp9212
I1
s(g1
I351
Vcanvas
p9213
tp9214
I1
s(g1
I550
Vresume
p9215
tp9216
I1
s(g1
I1045
Vupdate
p9217
tp9218
I1
s(g1
I1270
Vinit
p9219
tp9220
I1
s(g1
I750
VrequestClear
p9221
tp9222
I1
s(g1
I32
VDanmakus
p9223
tp9224
I1
s(g1
I243
VmRenderer
p9225
tp9226
I1
s(g1
I242
Vnext
p9227
tp9228
I1
s(g1
I173
Vreset
p9229
tp9230
I1
s(g1
I131
VmDensity
p9231
tp9232
I1
s(g1
I265
Vhandler
p9233
tp9234
I1
s(g1
I1808
Vitem
p9235
tp9236
I1
s(g1
I1761
VBaseDanmaku
p9237
tp9238
I1
s(g1
I173
Vevent
p9239
tp9240
I1
s(g1
I366
VsetVisibility
p9241
tp9242
I1
s(g1
I213
VST_BY_TIME
p9243
tp9244
I1
s(g1
I940
VmThread
p9245
tp9246
I2
s(g1
I200
VSpecialDanmaku
p9247
tp9248
I1
s(g1
I1228
VmDanmakuView
p9249
tp9250
I1
s(g1
I1211
Vwidth
p9251
tp9252
I1
s(g1
I326
VendTime
p9253
tp9254
I1
s(g1
I189
VmXOff
p9255
tp9256
I1
s(g1
I149
VelapsedTime
p9257
tp9258
I1
s(g1
I139
VftdrInstance
p9259
tp9260
I1
s(g1
I343
VcreateItem
p9261
tp9262
I1
s(g1
I41
Vmenu
p9263
tp9264
I1
s(g1
I816
VconsumingTime
p9265
tp9266
I1
s(g1
I300
Vrecycle
p9267
tp9268
I1
s(g1
I348
VmRenderer
p9269
tp9270
I1
s(g1
I177
VDanmakuBase
p9271
tp9272
I1
s(g1
I271
Vstart
p9273
tp9274
I1
s(g1
I576
Vadd
p9275
tp9276
I1
s(g1
I169
VstartRenderTime
p9277
tp9278
I1
s(g1
I609
Vpoints
p9279
tp9280
I1
s(g1
I350
VmHandler
p9281
tp9282
I1
s(g1
I60
VOverride
p9283
tp9284
I1
s(g1
I173
Vcanvas
p9285
tp9286
I1
s(g1
I1277
VconsumingTime
p9287
tp9288
I1
s(g1
I714
Vit
p9289
tp9290
I1
s(g1
I240
VupdateTimer
p9291
tp9292
I1
s(g1
I268
VmScale
p9293
tp9294
I1
s(g1
I990
VregisterFilter
p9295
tp9296
I1
s(g1
I572
VgetConfig
p9297
tp9298
I1
s(g1
I1242
VCLEAR_CACHES
p9299
tp9300
I1
s(g1
I210
VAttributes
p9301
tp9302
I1
s(g1
I1528
VdeltaMs
p9303
tp9304
I1
s(g1
I1170
VmFrameUpdateRate
p9305
tp9306
I1
s(g1
I276
VdanmakuList
p9307
tp9308
I1
s(g1
I780
VmDrawTimes
p9309
tp9310
I1
s(g1
I1589
VmCallback
p9311
tp9312
I1
s(g1
I124
VclickDanmaku
p9313
tp9314
I1
s(g1
I558
VDrawHelper
p9315
tp9316
I1
s(g1
I1662
VmUpdateInNewThread
p9317
tp9318
I1
s(g1
I162
Vpaint
p9319
tp9320
I1
s(g1
I2095
VfromTime
p9321
tp9322
I1
s(g1
I646
VobtainMessage
p9323
tp9324
I1
s(g1
I1628
VOverride
p9325
tp9326
I1
s(g1
I522
VPAUSE
p9327
tp9328
I1
s(g1
I254
VOverride
p9329
tp9330
I1
s(g1
I70
VrldrInstance
p9331
tp9332
I1
s(g1
I120
VMainActivity
p9333
tp9334
I1
s(g1
I83
Vdisp
p9335
tp9336
I1
s(g1
I178
VsetAntiAlias
p9337
tp9338
I1
s(g1
I2102
VtoTime
p9339
tp9340
I1
s(g1
I677
VgetMemoryClass
p9341
tp9342
I1
s(g1
I1065
VmTaskListener
p9343
tp9344
I1
s(g1
I1609
VBaseDanmaku
p9345
tp9346
I1
s(g1
I189
Ve
p9347
tp9348
I1
s(g1
I1722
VSHOW_DANMAKUS
p9349
tp9350
I1
s(g1
I336
VquitDrawThread
p9351
tp9352
I1
s(g1
I1340
VmCaches
p9353
tp9354
I1
s(g1
I1697
Vdanmakus
p9355
tp9356
I1
s(g1
I1111
Vitem
p9357
tp9358
I1
s(g1
I407
Vcanvas
p9359
tp9360
I1
s(g1
I109
Verase
p9361
tp9362
I1
s(g1
I661
VdanmakuList
p9363
tp9364
I1
s(g1
I171
VhasNext
p9365
tp9366
I1
s(g1
I20
VmDanmakuView
p9367
tp9368
I1
s(g1
I878
Vitem
p9369
tp9370
I1
s(g1
I237
VtagName
p9371
tp9372
I1
s(g1
I130
Vin
p9373
tp9374
I1
s(g1
I1487
VmRenderer
p9375
tp9376
I1
s(g1
I149
Vdraw
p9377
tp9378
I1
s(g1
I1197
VSystem
p9379
tp9380
I1
s(g1
I421
VdanmakuList
p9381
tp9382
I1
s(g1
I295
VdataSource
p9383
tp9384
I1
s(g1
I1035
VwaitTime
p9385
tp9386
I1
s.