(lp0
(Vinsert
p1
I42
VSimpleName: sqrt
p2
tp3
a(Vinsert
p4
I42
VSimpleName: addPoint
p5
tp6
a(Vinsert
p7
I42
VSimpleName: columnDefaults
p8
tp9
a(Vinsert
p10
I42
VSimpleName: new_btHashInt__SWIG_0
p11
tp12
a(Vinsert
p13
I42
VSimpleName: getProxyCount
p14
tp15
a(Vinsert
p16
I42
VSimpleName: extractFile
p17
tp18
a(Vinsert
p19
I42
VSimpleName: btMatrix3x3_getRotation
p20
tp21
a(Vinsert
p22
I42
VSimpleName: addAction
p23
tp24
a(Vinsert
p25
I42
VSimpleName: disconnected
p26
tp27
a(Vinsert
p28
I42
VSimpleName: btTypedConstraint_setOverrideNumSolverIterations
p29
tp30
a(Vinsert
p31
I42
VSimpleName: btSequentialImpulseConstraintSolver_SWIGUpcast
p32
tp33
a(Vinsert
p34
I42
VSimpleName: btPoint2PointConstraint_operatorNewArray__SWIG_0
p35
tp36
a(Vinsert
p37
I42
VSimpleName: btCollisionObjectArray_expandNonInitializing
p38
tp39
a(Vinsert
p40
I42
VSimpleName: btClock_getTimeNanoseconds
p41
tp42
a(Vinsert
p43
I42
VSimpleName: btDispatcher_clearManifold
p44
tp45
a(Vinsert
p46
I42
VSimpleName: isStatic
p47
tp48
a(Vinsert
p49
I42
VSimpleName: hitPlatform
p50
tp51
a(Vinsert
p52
I42
VSimpleName: onInternalTick
p53
tp54
a(Vinsert
p55
I42
VSimpleName: uniform1f
p56
tp57
a(Vinsert
p58
I42
VSimpleName: unregisterListener
p59
tp60
a(Vinsert
p61
I42
VSimpleName: removeFirst
p62
tp63
a(Vinsert
p64
I42
VSimpleName: glBlendFunc
p65
tp66
a(Vinsert
p67
I42
VSimpleName: getObject
p68
tp69
a(Vinsert
p70
I42
VSimpleName: btConcaveShape_operatorNewArray__SWIG_0
p71
tp72
a(Vinsert
p73
I42
VSimpleName: delete_btDantzigSolver
p74
tp75
a(Vinsert
p76
I42
VSimpleName: btCollisionConfiguration_getClosestPointsAlgorithmCreateFunc
p77
tp78
a(Vinsert
p79
I42
VSimpleName: RayResultCallback_m_collisionObject_get
p80
tp81
a(Vinsert
p82
I42
VSimpleName: delete_btAxisSweep3
p83
tp84
a(Vinsert
p85
I42
VSimpleName: path
p86
tp87
a(Vinsert
p88
I42
VSimpleName: setBlending
p89
tp90
a(Vinsert
p91
I42
VSimpleName: ICollide_Process__SWIG_0
p92
tp93
a(Vinsert
p94
I42
VSimpleName: delete_btGjkEpaSolver3_sResults
p95
tp96
a(Vinsert
p97
I42
VSimpleName: setScale
p98
tp99
a(Vinsert
p100
I42
VSimpleName: getManager
p101
tp102
a(Vinsert
p103
I42
VSimpleName: createCullFace
p104
tp105
a(Vinsert
p106
I42
VSimpleName: getViewportNames
p107
tp108
a(Vinsert
p109
I42
VSimpleName: btConvexHullShapeData_m_unscaledPointsFloatPtr_set
p110
tp111
a(Vinsert
p112
I42
VSimpleName: btConvex2dConvex2dAlgorithm_SWIGUpcast
p113
tp114
a(Vinsert
p115
I42
VSimpleName: isLooped
p116
tp117
a(Vinsert
p118
I42
VSimpleName: isAnnotationPresent
p119
tp120
a(Vinsert
p121
I42
VSimpleName: randomUUID
p122
tp123
a(Vinsert
p124
I42
VSimpleName: getParentFile
p125
tp126
a(Vinsert
p127
I42
VSimpleName: btCompoundShapeChildData_transform_set
p128
tp129
a(Vinsert
p130
I42
VSimpleName: setListener
p131
tp132
a(Vinsert
p133
I42
VSimpleName: println
p134
tp135
a(Vinsert
p136
I42
VSimpleName: getRow
p137
tp138
a(Vinsert
p139
I42
VSimpleName: register
p140
tp141
a(Vinsert
p142
I42
VSimpleName: pause
p143
tp144
a(Vinsert
p145
I42
VSimpleName: testQuantizedAabbAgainstQuantizedAabb
p146
tp147
a(Vinsert
p148
I42
VSimpleName: btOptimizedBvhNodeDoubleData_aabbMinOrg_get
p149
tp150
a(Vinsert
p151
I42
VSimpleName: LocalConvexResult_hitCollisionObject_set
p152
tp153
a(Vinsert
p154
I42
VSimpleName: btContactSolverInfoDoubleData_m_globalCfm_set
p155
tp156
a(Vinsert
p157
I42
VSimpleName: ContactResultCallback_closestDistanceThreshold_get
p158
tp159
a(Vinsert
p160
I42
VSimpleName: btPersistentManifold_setContactProcessingThreshold
p161
tp162
a(Vinsert
p163
I42
VSimpleName: delete_btBroadphaseAabbCallback
p164
tp165
a(Vinsert
p166
I42
VSimpleName: btGetVersion
p167
tp168
a(Vinsert
p169
I42
VSimpleName: focus
p170
tp171
a(Vinsert
p172
I42
VSimpleName: getStageY
p173
tp174
a(Vinsert
p175
I42
VSimpleName: flip
p176
tp177
a(Vinsert
p178
I42
VSimpleName: findByUsage
p179
tp180
a(Vinsert
p181
I42
VSimpleName: btGeneric6DofSpring2ConstraintDoubleData2_angularSpringStiffnessLimited_set
p182
tp183
a(Vinsert
p184
I42
VSimpleName: btCollisionWorld_getCollisionObjectArrayConst
p185
tp186
a(Vinsert
p187
I42
VSimpleName: isDigit
p188
tp189
a(Vinsert
p190
I42
VSimpleName: calcMeasures
p191
tp192
a(Vinsert
p193
I42
VSimpleName: btUnionFind_getElementConst
p194
tp195
a(Vinsert
p196
I42
VSimpleName: getDeclaredMethods
p197
tp198
a(Vinsert
p199
I42
VSimpleName: btHingeConstraint_updateRHS
p200
tp201
a(Vinsert
p202
I42
VSimpleName: deactivateBody
p203
tp204
a(Vinsert
p205
I42
VSimpleName: delete_btSpinMutex
p206
tp207
a(Vinsert
p208
I42
VSimpleName: Link_m_rl_get
p209
tp210
a(Vinsert
p211
I42
VSimpleName: delete_btGjkEpaPenetrationDepthSolver
p212
tp213
a(Vinsert
p214
I42
VSimpleName: delete_btConvexSeparatingDistanceUtil
p215
tp216
a(Vinsert
p217
I42
VSimpleName: getRelatedActor
p218
tp219
a(Vinsert
p220
I42
VSimpleName: isMemberClass
p221
tp222
a(Vinsert
p223
I42
VSimpleName: matches
p224
tp225
a(Vinsert
p226
I42
VSimpleName: btHashedSimplePairCache_getOverlappingPairArrayConst
p227
tp228
a(Vinsert
p229
I42
VSimpleName: SoftBodyPoseData_com_set
p230
tp231
a(Vinsert
p232
I42
VSimpleName: getPoints
p233
tp234
a(Vinsert
p235
I42
VSimpleName: getCanvas
p236
tp237
a(Vinsert
p238
I42
VSimpleName: btRaycastVehicle_getNumWheels
p239
tp240
a(Vinsert
p241
I42
VSimpleName: btOverlappingPairCache_SWIGUpcast
p242
tp243
a(Vinsert
p244
I42
VSimpleName: btHinge2Constraint_SWIGUpcast
p245
tp246
a(Vinsert
p247
I42
VSimpleName: pop
p248
tp249
a(Vinsert
p250
I42
VSimpleName: setPaint
p251
tp252
a(Vinsert
p253
I42
VSimpleName: print
p254
tp255
a(Vinsert
p256
I42
VSimpleName: mul
p257
tp258
a(Vinsert
p259
I42
VSimpleName: gen
p260
tp261
a(Vinsert
p262
I42
VSimpleName: lerp
p263
tp264
a(Vinsert
p265
I42
VSimpleName: setSingleLine
p266
tp267
a(Vinsert
p268
I42
VSimpleName: getProperties
p269
tp270
a(Vinsert
p271
I42
VSimpleName: getAudioInputStream
p272
tp273
a(Vinsert
p274
I42
VSimpleName: btDefaultMotionState_SWIGUpcast
p275
tp276
a(Vinsert
p277
I42
VSimpleName: markToRemove
p278
tp279
a(Vinsert
p280
I42
VSimpleName: new_btSoftRigidDynamicsWorld__SWIG_1
p281
tp282
a(Vinsert
p283
I42
VSimpleName: delete_btDefaultVehicleRaycaster
p284
tp285
a(Vinsert
p286
I42
VSimpleName: btGeneric6DofConstraint_operatorDeleteArray__SWIG_0
p287
tp288
a(Vinsert
p289
I42
VSimpleName: getLayout
p290
tp291
a(Vinsert
p292
I42
VSimpleName: addComponent
p293
tp294
a(Vinsert
p295
I42
VSimpleName: getVerticesBuffer
p296
tp297
a(Vinsert
p298
I42
VSimpleName: set
p299
tp300
a(Vinsert
p301
I42
VSimpleName: clearLines
p302
tp303
a(Vinsert
p304
I42
VSimpleName: PHullResult_mVcount_set
p305
tp306
a(Vinsert
p307
I42
VSimpleName: isFlipped
p308
tp309
a(Vinsert
p310
I42
VSimpleName: btGeneric6DofConstraint_SWIGUpcast
p311
tp312
a(Vinsert
p313
I42
VSimpleName: remove
p314
tp315
a(Vinsert
p316
I42
VSimpleName: updated
p317
tp318
a(Vinsert
p319
I42
VSimpleName: key
p320
tp321
a(Vinsert
p322
I42
VSimpleName: uploadImageData
p323
tp324
a(Vinsert
p325
I42
VSimpleName: shot
p326
tp327
a(Vinsert
p328
I42
VSimpleName: getTextures
p329
tp330
a(Vinsert
p331
I42
VSimpleName: btPersistentManifoldArray_resize__SWIG_0
p332
tp333
a(Vinsert
p334
I42
VSimpleName: setAlignment
p335
tp336
a(Vinsert
p337
I42
VSimpleName: millisToNanos
p338
tp339
a(Vinsert
p340
I42
VSimpleName: isRemoving
p341
tp342
a(Vinsert
p343
I42
VSimpleName: getListeners
p344
tp345
a(Vinsert
p346
I42
VSimpleName: addView
p347
tp348
a(Vinsert
p349
I42
VSimpleName: delete_btConvexPlaneCollisionAlgorithm_CreateFunc
p350
tp351
a(Vinsert
p352
I42
VSimpleName: glDrawArrays
p353
tp354
a(Vinsert
p355
I42
VSimpleName: btSolverBody_externalTorqueImpulse_set
p356
tp357
a(Vinsert
p358
I42
VSimpleName: distanceSquared
p359
tp360
a(Vinsert
p361
I42
VSimpleName: newObject
p362
tp363
a(Vinsert
p364
I42
VSimpleName: floatValue
p365
tp366
a(Vinsert
p367
I42
VSimpleName: isGlobal
p368
tp369
a(Vinsert
p370
I42
VSimpleName: addActor
p371
tp372
a(Vinsert
p373
I42
VSimpleName: getAssetManager
p374
tp375
a(Vinsert
p376
I42
VSimpleName: split
p377
tp378
a(Vinsert
p379
I42
VSimpleName: touchUp
p380
tp381
a(Vinsert
p382
I42
VSimpleName: eglChooseConfig
p383
tp384
a(Vinsert
p385
I42
VSimpleName: delete_btTriangleInfoData
p386
tp387
a(Vinsert
p388
I42
VSimpleName: swfLoaded
p389
tp390
a(Vinsert
p391
I42
VSimpleName: created
p392
tp393
a(Vinsert
p394
I42
VSimpleName: btConeTwistConstraintDoubleData_rbAFrame_get
p395
tp396
a(Vinsert
p397
I42
VSimpleName: btWheelInfo_m_wheelsDampingRelaxation_set
p398
tp399
a(Vinsert
p400
I42
VSimpleName: getMaxHeight
p401
tp402
a(Vinsert
p403
I42
VSimpleName: getNumIndices
p404
tp405
a(Vinsert
p406
I42
VSimpleName: panStop
p407
tp408
a(Vinsert
p409
I42
VSimpleName: glDepthMask
p410
tp411
a(Vinsert
p412
I42
VSimpleName: dst2
p413
tp414
a(Vinsert
p415
I42
VSimpleName: getSpeedScore
p416
tp417
a(Vinsert
p418
I42
VSimpleName: btGeneric6DofSpringConstraint_getDamping
p419
tp420
a(Vinsert
p421
I42
VSimpleName: value
p422
tp423
a(Vinsert
p424
I42
VSimpleName: btGeneric6DofConstraintDoubleData2_rbBFrame_get
p425
tp426
a(Vinsert
p427
I42
VSimpleName: new_btMultiBodyJointMotor__SWIG_0
p428
tp429
a(Vinsert
p430
I42
VSimpleName: btConvexHullShape_SWIGUpcast
p431
tp432
a(Vinsert
p433
I42
VSimpleName: btCompoundShapeChild_operatorNewArray__SWIG_0
p434
tp435
a(Vinsert
p436
I42
VSimpleName: getColorModel
p437
tp438
a(Vinsert
p439
I42
VSimpleName: addRef
p440
tp441
a(Vinsert
p442
I42
VSimpleName: btPolyhedralContactClipping_clipHullAgainstHull
p443
tp444
a(Vinsert
p445
I42
VSimpleName: uptimeMillis
p446
tp447
a(Vinsert
p448
I42
VSimpleName: createSpecular
p449
tp450
a(Vinsert
p451
I42
VSimpleName: btPolyhedralConvexShape_initializePolyhedralFeatures__SWIG_1
p452
tp453
a(Vinsert
p454
I42
VSimpleName: btTypedConstraint_SWIGUpcast
p455
tp456
a(Vinsert
p457
I42
VSimpleName: delete_btQuantizedBvhNode
p458
tp459
a(Vinsert
p460
I42
VSimpleName: setItemNameProvider
p461
tp462
a(Vinsert
p463
I42
VSimpleName: containsKey
p464
tp465
a(Vinsert
p466
I42
VSimpleName: btTypedConstraintData_m_breakingImpulseThreshold_set
p467
tp468
a(Vinsert
p469
I42
VSimpleName: createParallelGroup
p470
tp471
a(Vinsert
p472
I42
VSimpleName: glFlush
p473
tp474
a(Vinsert
p475
I42
VSimpleName: getMinHeight
p476
tp477
a(Vinsert
p478
I42
VSimpleName: btDbvt_remove
p479
tp480
a(Vinsert
p481
I42
VSimpleName: btRaycastVehicle_addWheel
p482
tp483
a(Vinsert
p484
I42
VSimpleName: createIntBuffer
p485
tp486
a(Vinsert
p487
I42
VSimpleName: keySet
p488
tp489
a(Vinsert
p490
I42
VSimpleName: usesIntegerPositions
p491
tp492
a(Vinsert
p493
I42
VSimpleName: nextBoolean
p494
tp495
a(Vinsert
p496
I42
VSimpleName: delete_btHashedOverlappingPairCache
p497
tp498
a(Vinsert
p499
I42
VSimpleName: getDefaultKeyboard
p500
tp501
a(Vinsert
p502
I42
VSimpleName: getCapabilities
p503
tp504
a(Vinsert
p505
I42
VSimpleName: setPreferredSize
p506
tp507
a(Vinsert
p508
I42
VSimpleName: btGhostObject_convexSweepTest__SWIG_1
p509
tp510
a(Vinsert
p511
I42
VSimpleName: btBlock_previous_set
p512
tp513
a(Vinsert
p514
I42
VSimpleName: new_LocalRayResult
p515
tp516
a(Vinsert
p517
I42
VSimpleName: btCollisionObject_getInterpolationWorldTransform__SWIG_2
p518
tp519
a(Vinsert
p520
I42
VSimpleName: sphere
p521
tp522
a(Vinsert
p523
I42
VSimpleName: accum
p524
tp525
a(Vinsert
p526
I42
VSimpleName: isTouched
p527
tp528
a(Vinsert
p529
I42
VSimpleName: lastIndexOf
p530
tp531
a(Vinsert
p532
I42
VSimpleName: compareTo
p533
tp534
a(Vinsert
p535
I42
VSimpleName: ColorUnpacked
p536
tp537
a(Vinsert
p538
I42
VSimpleName: isAnonymousClass
p539
tp540
a(Vinsert
p541
I42
VSimpleName: window
p542
tp543
a(Vinsert
p544
I42
VSimpleName: setNativeCode
p545
tp546
a(Vinsert
p547
I42
VSimpleName: delete_btBroadphasePairSortPredicate
p548
tp549
a(Vinsert
p550
I42
VSimpleName: CreatePatch
p551
tp552
a(Vinsert
p553
I42
VSimpleName: glNormalPointer
p554
tp555
a(Vinsert
p556
I42
VSimpleName: getWindowAncestor
p557
tp558
a(Vinsert
p559
I42
VSimpleName: getManagedStatus
p560
tp561
a(Vinsert
p562
I42
VSimpleName: cos
p563
tp564
a(Vinsert
p565
I42
VSimpleName: windowHandleChanged
p566
tp567
a(Vinsert
p568
I42
VSimpleName: new_btHashedOverlappingPairCache
p569
tp570
a(Vinsert
p571
I42
VSimpleName: delete_SoftBodyMaterialData
p572
tp573
a(Vinsert
p574
I42
VSimpleName: btContactSolverInfoFloatData_erp2_set
p575
tp576
a(Vinsert
p577
I42
VSimpleName: setDebuggingEnabled
p578
tp579
a(Vinsert
p580
I42
VSimpleName: isComplete
p581
tp582
a(Vinsert
p583
I42
VSimpleName: delete_btDefaultCollisionConfiguration
p584
tp585
a(Vinsert
p586
I42
VSimpleName: glGenBuffer
p587
tp588
a(Vinsert
p589
I42
VSimpleName: new_btMultiBodyFixedConstraint__SWIG_0
p590
tp591
a(Vinsert
p592
I42
VSimpleName: compare
p593
tp594
a(Vinsert
p595
I42
VSimpleName: addElement
p596
tp597
a(Vinsert
p598
I42
VSimpleName: btShapeHull_operatorNewArray__SWIG_0
p599
tp600
a(Vinsert
p601
I42
VSimpleName: SoftBodyClusterData_framerefs_set
p602
tp603
a(Vinsert
p604
I42
VSimpleName: skip
p605
tp606
a(Vinsert
p607
I42
VSimpleName: btCollisionObjectDoubleData_m_anisotropicFriction_set
p608
tp609
a(Vinsert
p610
I42
VSimpleName: createSprite
p611
tp612
a(Vinsert
p613
I42
VSimpleName: getLocalAnchorA
p614
tp615
a(Vinsert
p616
I42
VSimpleName: foo
p617
tp618
a(Vinsert
p619
I42
VSimpleName: getBoundingBox
p620
tp621
a(Vinsert
p622
I42
VSimpleName: btSoftRigidCollisionAlgorithm_CreateFunc_SWIGUpcast
p623
tp624
a(Vinsert
p625
I42
VSimpleName: delete_btLemkeAlgorithm
p626
tp627
a(Vinsert
p628
I42
VSimpleName: new_btSortedOverlappingPairCache
p629
tp630
a(Vinsert
p631
I42
VSimpleName: btConstraintSolver_getSolverType
p632
tp633
a(Vinsert
p634
I42
VSimpleName: btManifoldArray_resize__SWIG_1
p635
tp636
a(Vinsert
p637
I42
VSimpleName: getClass
p638
tp639
a(Vinsert
p640
I42
VSimpleName: writePNG
p641
tp642
a(Vinsert
p643
I42
VSimpleName: btBvhSubtreeInfo_m_quantizedAabbMax_set
p644
tp645
a(Vinsert
p646
I42
VSimpleName: updateAction
p647
tp648
a(Vinsert
p649
I42
VSimpleName: asShortBuffer
p650
tp651
a(Vinsert
p652
I42
VSimpleName: createPlaneModel
p653
tp654
a(Vinsert
p655
I42
VSimpleName: delete_btConvexInternalAabbCachingShape
p656
tp657
a(Vinsert
p658
I42
VSimpleName: setWindowListener
p659
tp660
a(Vinsert
p661
I42
VSimpleName: btGeneric6DofConstraint_setUseLinearReferenceFrameA
p662
tp663
a(Vinsert
p664
I42
VSimpleName: btConeShapeZ_SWIGUpcast
p665
tp666
a(Vinsert
p667
I42
VSimpleName: setCompletionListener
p668
tp669
a(Vinsert
p670
I42
VSimpleName: btQuantizedBvh_quantizeWithClamp
p671
tp672
a(Vinsert
p673
I42
VSimpleName: getChildrenByName
p674
tp675
a(Vinsert
p676
I42
VSimpleName: btIDebugDraw_drawArc__SWIG_1
p677
tp678
a(Vinsert
p679
I42
VSimpleName: getNumObjects
p680
tp681
a(Vinsert
p682
I42
VSimpleName: info
p683
tp684
a(Vinsert
p685
I42
VSimpleName: getKeyCodeReverse
p686
tp687
a(Vinsert
p688
I42
VSimpleName: setProcessor
p689
tp690
a(Vinsert
p691
I42
VSimpleName: openURI
p692
tp693
a(Vinsert
p694
I42
VSimpleName: loadModel
p695
tp696
a(Vinsert
p697
I42
VSimpleName: rot
p698
tp699
a(Vinsert
p700
I42
VSimpleName: addScore
p701
tp702
a(Vinsert
p703
I42
VSimpleName: glIsBuffer
p704
tp705
a(Vinsert
p706
I42
VSimpleName: delete_btSoftRigidCollisionAlgorithm
p707
tp708
a(Vinsert
p709
I42
VSimpleName: btTriangleMesh_weldingThreshold_set
p710
tp711
a(Vinsert
p712
I42
VSimpleName: btCompoundCollisionAlgorithm_SWIGUpcast
p713
tp714
a(Vinsert
p715
I42
VSimpleName: btBvhTriangleMeshShape_performConvexcast
p716
tp717
a(Vinsert
p718
I42
VSimpleName: disableVertexAttribute
p719
tp720
a(Vinsert
p721
I42
VSimpleName: setTitle
p722
tp723
a(Vinsert
p724
I42
VSimpleName: btManifoldPoint_setUserValue
p725
tp726
a(Vinsert
p727
I42
VSimpleName: resetCursor
p728
tp729
a(Vinsert
p730
I42
VSimpleName: isRetracted
p731
tp732
a(Vinsert
p733
I42
VSimpleName: btSolveProjectedGaussSeidel_leastSquaresResidualThreshold_set
p734
tp735
a(Vinsert
p736
I42
VSimpleName: btTriangleConvexcastCallback_convexShapeFrom_get
p737
tp738
a(Vinsert
p739
I42
VSimpleName: delete_btContinuousConvexCollision
p740
tp741
a(Vinsert
p742
I42
VSimpleName: getTreeHeight
p743
tp744
a(Vinsert
p745
I42
VSimpleName: getJoysticks
p746
tp747
a(Vinsert
p748
I42
VSimpleName: getJointTranslation
p749
tp750
a(Vinsert
p751
I42
VSimpleName: delete_btConvexConcaveCollisionAlgorithm_SwappedCreateFunc
p752
tp753
a(Vinsert
p754
I42
VSimpleName: btConvexTriangleMeshShape_SWIGUpcast
p755
tp756
a(Vinsert
p757
I42
VSimpleName: glTexParameteri
p758
tp759
a(Vinsert
p760
I42
VSimpleName: btSoftBodyWorldInfo_maxDisplacement_get
p761
tp762
a(Vinsert
p763
I42
VSimpleName: btDiscreteDynamicsWorld_interpolation_get
p764
tp765
a(Vinsert
p766
I42
VSimpleName: getFile
p767
tp768
a(Vinsert
p769
I42
VSimpleName: order
p770
tp771
a(Vinsert
p772
I42
VSimpleName: drawLine
p773
tp774
a(Vinsert
p775
I42
VSimpleName: slerp
p776
tp777
a(Vinsert
p778
I42
VSimpleName: stageToLocalCoordinates
p779
tp780
a(Vinsert
p781
I42
VSimpleName: btGeneric6DofSpringConstraintDoubleData2_6dofData_set
p782
tp783
a(Vinsert
p784
I42
VSimpleName: toBytePtrAsciiZ
p785
tp786
a(Vinsert
p787
I42
VSimpleName: spawn
p788
tp789
a(Vinsert
p790
I42
VSimpleName: getNumFrames
p791
tp792
a(Vinsert
p793
I42
VSimpleName: setId
p794
tp795
a(Vinsert
p796
I42
VSimpleName: process
p797
tp798
a(Vinsert
p799
I42
VSimpleName: getActions
p800
tp801
a(Vinsert
p802
I42
VSimpleName: createSphere
p803
tp804
a(Vinsert
p805
I42
VSimpleName: delete_btSoftColliders_CollideCL_SS
p806
tp807
a(Vinsert
p808
I42
VSimpleName: btQuantizedBvhDoubleData_m_useQuantization_set
p809
tp810
a(Vinsert
p811
I42
VSimpleName: btGeneric6DofSpringConstraint_SWIGUpcast
p812
tp813
a(Vinsert
p814
I42
VSimpleName: setMotorSpeed
p815
tp816
a(Vinsert
p817
I42
VSimpleName: glUseProgram
p818
tp819
a(Vinsert
p820
I42
VSimpleName: getValueIsAdjusting
p821
tp822
a(Vinsert
p823
I42
VSimpleName: setIndeterminate
p824
tp825
a(Vinsert
p826
I42
VSimpleName: setFromAxisRad
p827
tp828
a(Vinsert
p829
I42
VSimpleName: isEnabled
p830
tp831
a(Vinsert
p832
I42
VSimpleName: delete_btBox2dShape
p833
tp834
a(Vinsert
p835
I42
VSimpleName: updateTime
p836
tp837
a(Vinsert
p838
I42
VSimpleName: getLog
p839
tp840
a(Vinsert
p841
I42
VSimpleName: Node_m_f_set
p842
tp843
a(Vinsert
p844
I42
VSimpleName: btCollisionObjectConstArray_operatorSubscript
p845
tp846
a(Vinsert
p847
I42
VSimpleName: getUniqueId
p848
tp849
a(Vinsert
p850
I42
VSimpleName: supportsExtension
p851
tp852
a(Vinsert
p853
I42
VSimpleName: getMultiple
p854
tp855
a(Vinsert
p856
I42
VSimpleName: removeValue
p857
tp858
a(Vinsert
p859
I42
VSimpleName: setWorldSize
p860
tp861
a(Vinsert
p862
I42
VSimpleName: getButtonCount
p863
tp864
a(Vinsert
p865
I42
VSimpleName: setLeftWidth
p866
tp867
a(Vinsert
p868
I42
VSimpleName: getCodepointKernAdvance
p869
tp870
a(Vinsert
p871
I42
VSimpleName: btConeShapeX_SWIGUpcast
p872
tp873
a(Vinsert
p874
I42
VSimpleName: setTouchEventsEnabled
p875
tp876
a(Vinsert
p877
I42
VSimpleName: glLoadMatrixf
p878
tp879
a(Vinsert
p880
I42
VSimpleName: new_ClosestPointInput
p881
tp882
a(Vinsert
p883
I42
VSimpleName: btSoftBodyTriangleCallback_SWIGUpcast
p884
tp885
a(Vinsert
p886
I42
VSimpleName: delete_btSimpleDynamicsWorld
p887
tp888
a(Vinsert
p889
I42
VSimpleName: btManifoldResult_setBody0Wrap
p890
tp891
a(Vinsert
p892
I42
VSimpleName: SoftBodyTetraData_material_set
p893
tp894
a(Vinsert
p895
I42
VSimpleName: getAnimation
p896
tp897
a(Vinsert
p898
I42
VSimpleName: fillX
p899
tp900
a(Vinsert
p901
I42
VSimpleName: btTypedConstraintData_m_name_get
p902
tp903
a(Vinsert
p904
I42
VSimpleName: moveTo
p905
tp906
a(Vinsert
p907
I42
VSimpleName: delete_btBvhSubtreeInfoData
p908
tp909
a(Vinsert
p910
I42
VSimpleName: new_gim_contact_array
p911
tp912
a(Vinsert
p913
I42
VSimpleName: addConstructor
p914
tp915
a(Vinsert
p916
I42
VSimpleName: btSolverConstraint_contactNormal2_get
p917
tp918
a(Vinsert
p919
I42
VSimpleName: HullLibrary_m_vertexIndexMapping_set
p920
tp921
a(Vinsert
p922
I42
VSimpleName: glUniform2
p923
tp924
a(Vinsert
p925
I42
VSimpleName: intValue
p926
tp927
a(Vinsert
p928
I42
VSimpleName: getPool
p929
tp930
a(Vinsert
p931
I42
VSimpleName: setConnectionTimeout
p932
tp933
a(Vinsert
p934
I42
VSimpleName: btContactSolverInfoData_leastSquaresResidualThreshold_get
p935
tp936
a(Vinsert
p937
I42
VSimpleName: entrySet
p938
tp939
a(Vinsert
p940
I42
VSimpleName: setToOrtho
p941
tp942
a(Vinsert
p943
I42
VSimpleName: handleHttpResponse
p944
tp945
a(Vinsert
p946
I42
VSimpleName: HullDesc_ClearHullFlag
p947
tp948
a(Vinsert
p949
I42
VSimpleName: btIndexedMesh_setVertexBase
p950
tp951
a(Vinsert
p952
I42
VSimpleName: btRayAabb
p953
tp954
a(Vinsert
p955
I42
VSimpleName: delete_btGenericPoolAllocator
p956
tp957
a(Vinsert
p958
I42
VSimpleName: conjugate
p959
tp960
a(Vinsert
p961
I42
VSimpleName: delete_btHashInt
p962
tp963
a(Vinsert
p964
I42
VSimpleName: isAssignableFrom
p965
tp966
a(Vinsert
p967
I42
VSimpleName: isGL30Available
p968
tp969
a(Vinsert
p970
I42
VSimpleName: getDesktop
p971
tp972
a(Vinsert
p973
I42
VSimpleName: btConvexCast_CastResult_hitTransformB_set
p974
tp975
a(Vinsert
p976
I42
VSimpleName: getAssetNames
p977
tp978
a(Vinsert
p979
I42
VSimpleName: delete_bt32BitAxisSweep3
p980
tp981
a(Vinsert
p982
I42
VSimpleName: getViewport
p983
tp984
a(Vinsert
p985
I42
VSimpleName: btSoftBodyWorldInfo_water_normal_set
p986
tp987
a(Vinsert
p988
I42
VSimpleName: btCollisionObject_setCustomDebugColor
p989
tp990
a(Vinsert
p991
I42
VSimpleName: setLocationRelativeTo
p992
tp993
a(Vinsert
p994
I42
VSimpleName: getMotionValues
p995
tp996
a(Vinsert
p997
I42
VSimpleName: getPadBottom
p998
tp999
a(Vinsert
p1000
I42
VSimpleName: btCapsuleShapeX_SWIGUpcast
p1001
tp1002
a(Vinsert
p1003
I42
VSimpleName: btContactSolverInfoFloatData_erp_get
p1004
tp1005
a(Vinsert
p1006
I42
VSimpleName: index
p1007
tp1008
a(Vinsert
p1009
I42
VSimpleName: setAlign
p1010
tp1011
a(Vinsert
p1012
I42
VSimpleName: pushScissors
p1013
tp1014
a(Vinsert
p1015
I42
VSimpleName: getRotatedPackedWidth
p1016
tp1017
a(Vinsert
p1018
I42
VSimpleName: glGetVertexAttribIiv
p1019
tp1020
a(Vinsert
p1021
I42
VSimpleName: GIM_BVH_TREE_NODE_ARRAY_SWIGUpcast
p1022
tp1023
a(Vinsert
p1024
I42
VSimpleName: btManifoldResult_closestPointDistanceThreshold_get
p1025
tp1026
a(Vinsert
p1027
I42
VSimpleName: getSizeInBytes
p1028
tp1029
a(Vinsert
p1030
I42
VSimpleName: btConvexInternalShape_SWIGUpcast
p1031
tp1032
a(Vinsert
p1033
I42
VSimpleName: btCylinderShape_operatorNewArray__SWIG_0
p1034
tp1035
a(Vinsert
p1036
I42
VSimpleName: resume
p1037
tp1038
a(Vinsert
p1039
I42
VSimpleName: setIncludeCredentials
p1040
tp1041
a(Vinsert
p1042
I42
VSimpleName: floatToIntBits
p1043
tp1044
a(Vinsert
p1045
I42
VSimpleName: generate
p1046
tp1047
a(Vinsert
p1048
I42
VSimpleName: setLocation
p1049
tp1050
a(Vinsert
p1051
I42
VSimpleName: new_btBroadphasePair__SWIG_1
p1052
tp1053
a(Vinsert
p1054
I42
VSimpleName: submit
p1055
tp1056
a(Vinsert
p1057
I42
VSimpleName: getNumChannels
p1058
tp1059
a(Vinsert
p1060
I42
VSimpleName: btVoronoiSimplexSolver_operatorNewArray__SWIG_0
p1061
tp1062
a(Vinsert
p1063
I42
VSimpleName: sendHttpRequest
p1064
tp1065
a(Vinsert
p1066
I42
VSimpleName: incrementFrameId
p1067
tp1068
a(Vinsert
p1069
I42
VSimpleName: newInstance
p1070
tp1071
a(Vinsert
p1072
I42
VSimpleName: isPreview
p1073
tp1074
a(Vinsert
p1075
I42
VSimpleName: replace
p1076
tp1077
a(Vinsert
p1078
I42
VSimpleName: $
p1079
tp1080
a(Vinsert
p1081
I42
VSimpleName: btGeneric6DofSpring2ConstraintData_angularSpringStiffnessLimited_set
p1082
tp1083
a(Vinsert
p1084
I42
VSimpleName: setLookAndFeel
p1085
tp1086
a(Vinsert
p1087
I42
VSimpleName: setRegion
p1088
tp1089
a(Vinsert
p1090
I42
VSimpleName: glDeleteVertexArrays
p1091
tp1092
a(Vinsert
p1093
I42
VSimpleName: btConeShape_SWIGUpcast
p1094
tp1095
a(Vinsert
p1096
I42
VSimpleName: preSolve
p1097
tp1098
a(Vinsert
p1099
I42
VSimpleName: invalidateAllShaderPrograms
p1100
tp1101
a(Vinsert
p1102
I42
VSimpleName: glEnable
p1103
tp1104
a(Vinsert
p1105
I42
VSimpleName: disposeRenderListener
p1106
tp1107
a(Vinsert
p1108
I42
VSimpleName: btSoftBodyJointData_m_cfm_get
p1109
tp1110
a(Vinsert
p1111
I42
VSimpleName: btMprDistanceInfo_pointOnA_set
p1112
tp1113
a(Vinsert
p1114
I42
VSimpleName: delete_btConvexCast
p1115
tp1116
a(Vinsert
p1117
I42
VSimpleName: setOutputType
p1118
tp1119
a(Vinsert
p1120
I42
VSimpleName: btTriangleIndexVertexMaterialArray_SWIGUpcast
p1121
tp1122
a(Vinsert
p1123
I42
VSimpleName: btSoftBodyCollisionShape_SWIGUpcast
p1124
tp1125
a(Vinsert
p1126
I42
VSimpleName: setBound
p1127
tp1128
a(Vinsert
p1129
I42
VSimpleName: charAt
p1130
tp1131
a(Vinsert
p1132
I42
VSimpleName: btDefaultSerializer_skipPointers_get
p1133
tp1134
a(Vinsert
p1135
I42
VSimpleName: sub
p1136
tp1137
a(Vinsert
p1138
I42
VSimpleName: needsGL20
p1139
tp1140
a(Vinsert
p1141
I42
VSimpleName: btJacobianEntry_getNonDiagonal__SWIG_1
p1142
tp1143
a(Vinsert
p1144
I42
VSimpleName: btCylinderShapeX_SWIGUpcast
p1145
tp1146
a(Vinsert
p1147
I42
VSimpleName: removeAllChildren
p1148
tp1149
a(Vinsert
p1150
I42
VSimpleName: btHeightfieldTerrainShape_setUseZigzagSubdivision__SWIG_0
p1151
tp1152
a(Vinsert
p1153
I42
VSimpleName: getBoolean
p1154
tp1155
a(Vinsert
p1156
I42
VSimpleName: createImageOutputStream
p1157
tp1158
a(Vinsert
p1159
I42
VSimpleName: gluProject
p1160
tp1161
a(Vinsert
p1162
I42
VSimpleName: getHashCode
p1163
tp1164
a(Vinsert
p1165
I42
VSimpleName: btGeneric6DofConstraintData_m_linearUpperLimit_set
p1166
tp1167
a(Vinsert
p1168
I42
VSimpleName: btBoxShape_SWIGUpcast
p1169
tp1170
a(Vinsert
p1171
I42
VSimpleName: next
p1172
tp1173
a(Vinsert
p1174
I42
VSimpleName: delete_btGImpactCompoundShape_CompoundPrimitiveManager
p1175
tp1176
a(Vinsert
p1177
I42
VSimpleName: setEnabled
p1178
tp1179
a(Vinsert
p1180
I42
VSimpleName: setWidth
p1181
tp1182
a(Vinsert
p1183
I42
VSimpleName: getArrayLength
p1184
tp1185
a(Vinsert
p1186
I42
VSimpleName: getAttributeLocation
p1187
tp1188
a(Vinsert
p1189
I42
VSimpleName: btTriangleIndexVertexMaterialArray_operatorNewArray__SWIG_0
p1190
tp1191
a(Vinsert
p1192
I42
VSimpleName: btConstraintSolver_solveGroup
p1193
tp1194
a(Vinsert
p1195
I42
VSimpleName: OpenUrl
p1196
tp1197
a(Vinsert
p1198
I42
VSimpleName: add
p1199
tp1200
a(Vinsert
p1201
I42
VSimpleName: btPolyhedralConvexShape_SWIGUpcast
p1202
tp1203
a(Vinsert
p1204
I42
VSimpleName: btSoftBody_SWIGUpcast
p1205
tp1206
a(Vinsert
p1207
I42
VSimpleName: glUniform3iv
p1208
tp1209
a(Vinsert
p1210
I42
VSimpleName: btConeTwistConstraint_getAFrame
p1211
tp1212
a(Vinsert
p1213
I42
VSimpleName: addInputListener
p1214
tp1215
a(Vinsert
p1216
I42
VSimpleName: btMultiSapBroadphase_SWIGUpcast
p1217
tp1218
a(Vinsert
p1219
I42
VSimpleName: getSharedApplication
p1220
tp1221
a(Vinsert
p1222
I42
VSimpleName: read
p1223
tp1224
a(Vinsert
p1225
I42
VSimpleName: inf
p1226
tp1227
a(Vinsert
p1228
I42
VSimpleName: isCreated
p1229
tp1230
a(Vinsert
p1231
I42
VSimpleName: delete_btCompoundCompoundCollisionAlgorithm
p1232
tp1233
a(Vinsert
p1234
I42
VSimpleName: btRigidBodyDoubleData_gravity_acceleration_set
p1235
tp1236
a(Vinsert
p1237
I42
VSimpleName: btMaterialProperties_m_materialStride_set
p1238
tp1239
a(Vinsert
p1240
I42
VSimpleName: toHexString
p1241
tp1242
a(Vinsert
p1243
I42
VSimpleName: subarray
p1244
tp1245
a(Vinsert
p1246
I42
VSimpleName: getAnnotationType
p1247
tp1248
a(Vinsert
p1249
I42
VSimpleName: btOptimizedBvh_SWIGUpcast
p1250
tp1251
a(Vinsert
p1252
I42
VSimpleName: setLinearOffset
p1253
tp1254
a(Vinsert
p1255
I42
VSimpleName: cancel
p1256
tp1257
a(Vinsert
p1258
I42
VSimpleName: delete_FilterableVehicleRaycaster
p1259
tp1260
a(Vinsert
p1261
I42
VSimpleName: setBreakChars
p1262
tp1263
a(Vinsert
p1264
I42
VSimpleName: getTileSets
p1265
tp1266
a(Vinsert
p1267
I42
VSimpleName: btGhostObject_rayTest
p1268
tp1269
a(Vinsert
p1270
I42
VSimpleName: closeQuietly
p1271
tp1272
a(Vinsert
p1273
I42
VSimpleName: setElsa
p1274
tp1275
a(Vinsert
p1276
I42
VSimpleName: delete_btCollisionConfiguration
p1277
tp1278
a(Vinsert
p1279
I42
VSimpleName: configChanged
p1280
tp1281
a(Vinsert
p1282
I42
VSimpleName: btDispatcher_releaseManifold
p1283
tp1284
a(Vinsert
p1285
I42
VSimpleName: getPosition
p1286
tp1287
a(Vinsert
p1288
I42
VSimpleName: delete_btMultiBodyJointLimitConstraint
p1289
tp1290
a(Vinsert
p1291
I42
VSimpleName: btDiscreteDynamicsWorldMt_operatorNew__SWIG_0
p1292
tp1293
a(Vinsert
p1294
I42
VSimpleName: setToLookAt
p1295
tp1296
a(Vinsert
p1297
I42
VSimpleName: getWidth
p1298
tp1299
a(Vinsert
p1300
I42
VSimpleName: showSoftInput
p1301
tp1302
a(Vinsert
p1303
I42
VSimpleName: sync
p1304
tp1305
a(Vinsert
p1306
I42
VSimpleName: setVScrollBarAtRight
p1307
tp1308
a(Vinsert
p1309
I42
VSimpleName: setToRotationRad
p1310
tp1311
a(Vinsert
p1312
I42
VSimpleName: setUserValue
p1313
tp1314
a(Vinsert
p1315
I42
VSimpleName: cast
p1316
tp1317
a(Vinsert
p1318
I42
VSimpleName: btDefaultVehicleRaycaster_SWIGUpcast
p1319
tp1320
a(Vinsert
p1321
I42
VSimpleName: delete_btTriangleShapeEx
p1322
tp1323
a(Vinsert
p1324
I42
VSimpleName: purchase
p1325
tp1326
a(Vinsert
p1327
I42
VSimpleName: getTranslation
p1328
tp1329
a(Vinsert
p1330
I42
VSimpleName: setEulerAnglesRad
p1331
tp1332
a(Vinsert
p1333
I42
VSimpleName: SphereTriangleDetector_getClosestPoints__SWIG_0
p1334
tp1335
a(Vinsert
p1336
I42
VSimpleName: readChar
p1337
tp1338
a(Vinsert
p1339
I42
VSimpleName: requestRendering
p1340
tp1341
a(Vinsert
p1342
I42
VSimpleName: btCollisionObject_setUserValue
p1343
tp1344
a(Vinsert
p1345
I42
VSimpleName: position
p1346
tp1347
a(Vinsert
p1348
I42
VSimpleName: btWheelInfo_RaycastInfo_suspensionLength_set
p1349
tp1350
a(Vinsert
p1351
I42
VSimpleName: btSimpleBroadphase_SWIGUpcast
p1352
tp1353
a(Vinsert
p1354
I42
VSimpleName: createArray
p1355
tp1356
a(Vinsert
p1357
I42
VSimpleName: setDaemon
p1358
tp1359
a(Vinsert
p1360
I42
VSimpleName: isAlive
p1361
tp1362
a(Vinsert
p1363
I42
VSimpleName: btPolyhedralConvexAabbCachingShape_SWIGUpcast
p1364
tp1365
a(Vinsert
p1366
I42
VSimpleName: btPersistentManifold_getBody1__SWIG_0
p1367
tp1368
a(Vinsert
p1369
I42
VSimpleName: removeActor
p1370
tp1371
a(Vinsert
p1372
I42
VSimpleName: parseInt
p1373
tp1374
a(Vinsert
p1375
I42
VSimpleName: setWidgetX
p1376
tp1377
a(Vinsert
p1378
I42
VSimpleName: getDirection
p1379
tp1380
a(Vinsert
p1381
I42
VSimpleName: btDbvtNode_getChild0
p1382
tp1383
a(Vinsert
p1384
I42
VSimpleName: consumePixmap
p1385
tp1386
a(Vinsert
p1387
I42
VSimpleName: propertyChange
p1388
tp1389
a(Vinsert
p1390
I42
VSimpleName: btBroadphaseInterface_setAabb
p1391
tp1392
a(Vinsert
p1393
I42
VSimpleName: findGlyphIndex
p1394
tp1395
a(Vinsert
p1396
I42
VSimpleName: btPoint2PointConstraintDoubleData_typeConstraintData_set
p1397
tp1398
a(Vinsert
p1399
I42
VSimpleName: freeAll
p1400
tp1401
a(Vinsert
p1402
I42
VSimpleName: SoftBodyTetraData_c0_get
p1403
tp1404
a(Vinsert
p1405
I42
VSimpleName: setReferenceCount
p1406
tp1407
a(Vinsert
p1408
I42
VSimpleName: getMembers
p1409
tp1410
a(Vinsert
p1411
I42
VSimpleName: setContinuousRendering
p1412
tp1413
a(Vinsert
p1414
I42
VSimpleName: btCharacterControllerInterface_setVelocityForTimeInterval
p1415
tp1416
a(Vinsert
p1417
I42
VSimpleName: showContent
p1418
tp1419
a(Vinsert
p1420
I42
VSimpleName: new_btVector4__SWIG_0
p1421
tp1422
a(Vinsert
p1423
I42
VSimpleName: setAsBox
p1424
tp1425
a(Vinsert
p1426
I42
VSimpleName: delete_btVertexBufferDescriptor
p1427
tp1428
a(Vinsert
p1429
I42
VSimpleName: setVertices
p1430
tp1431
a(Vinsert
p1432
I42
VSimpleName: setSrc
p1433
tp1434
a(Vinsert
p1435
I42
VSimpleName: skipBytes
p1436
tp1437
a(Vinsert
p1438
I42
VSimpleName: btQuantizedBvhFloatData_m_useQuantization_set
p1439
tp1440
a(Vinsert
p1441
I42
VSimpleName: setLayoutEnabled
p1442
tp1443
a(Vinsert
p1444
I42
VSimpleName: new_GIM_AABB__SWIG_4
p1445
tp1446
a(Vinsert
p1447
I42
VSimpleName: link
p1448
tp1449
a(Vinsert
p1450
I42
VSimpleName: setModelMatrix
p1451
tp1452
a(Vinsert
p1453
I42
VSimpleName: btIDebugDraw_clearLines
p1454
tp1455
a(Vinsert
p1456
I42
VSimpleName: new_btDefaultCollisionConfiguration__SWIG_1
p1457
tp1458
a(Vinsert
p1459
I42
VSimpleName: createCapabilities
p1460
tp1461
a(Vinsert
p1462
I42
VSimpleName: setFocusTraversalKeysEnabled
p1463
tp1464
a(Vinsert
p1465
I42
VSimpleName: ReadByte
p1466
tp1467
a(Vinsert
p1468
I42
VSimpleName: delete_btScaledBvhTriangleMeshShape
p1469
tp1470
a(Vinsert
p1471
I42
VSimpleName: getDimensions
p1472
tp1473
a(Vinsert
p1474
I42
VSimpleName: btCompoundShapeData_m_collisionShapeData_get
p1475
tp1476
a(Vinsert
p1477
I42
VSimpleName: getExternalStorageState
p1478
tp1479
a(Vinsert
p1480
I42
VSimpleName: glEnableClientState
p1481
tp1482
a(Vinsert
p1483
I42
VSimpleName: getVertexShaderCode
p1484
tp1485
a(Vinsert
p1486
I42
VSimpleName: getCachedBounds
p1487
tp1488
a(Vinsert
p1489
I42
VSimpleName: getDrawCalls
p1490
tp1491
a(Vinsert
p1492
I42
VSimpleName: onResume
p1493
tp1494
a(Vinsert
p1495
I42
VSimpleName: setM_restitution
p1496
tp1497
a(Vinsert
p1498
I42
VSimpleName: btSoftBodyWorldInfo_m_broadphase_set
p1499
tp1500
a(Vinsert
p1501
I42
VSimpleName: mkdirs
p1502
tp1503
a(Vinsert
p1504
I42
VSimpleName: delete_btConstraintInfo1
p1505
tp1506
a(Vinsert
p1507
I42
VSimpleName: getHandler
p1508
tp1509
a(Vinsert
p1510
I42
VSimpleName: setDataSource
p1511
tp1512
a(Vinsert
p1513
I42
VSimpleName: getRightWidth
p1514
tp1515
a(Vinsert
p1516
I42
VSimpleName: calculateAspectRatio
p1517
tp1518
a(Vinsert
p1519
I42
VSimpleName: setCameraParameters
p1520
tp1521
a(Vinsert
p1522
I42
VSimpleName: getSecurityManager
p1523
tp1524
a(Vinsert
p1525
I42
VSimpleName: set_Opaque
p1526
tp1527
a(Vinsert
p1528
I42
VSimpleName: delete_btCharIndexTripletData
p1529
tp1530
a(Vinsert
p1531
I42
VSimpleName: getResponseArrayBuffer
p1532
tp1533
a(Vinsert
p1534
I42
VSimpleName: ClosestConvexResultCallback_director_connect
p1535
tp1536
a(Vinsert
p1537
I42
VSimpleName: btBulletWorldImporter_loadFile__SWIG_1
p1538
tp1539
a(Vinsert
p1540
I42
VSimpleName: btVector3_lerp
p1541
tp1542
a(Vinsert
p1543
I42
VSimpleName: loadTexture
p1544
tp1545
a(Vinsert
p1546
I42
VSimpleName: getClickCount
p1547
tp1548
a(Vinsert
p1549
I42
VSimpleName: d
p1550
tp1551
a(Vinsert
p1552
I42
VSimpleName: btStridingMeshInterface_operatorNewArray__SWIG_0
p1553
tp1554
a(Vinsert
p1555
I42
VSimpleName: get
p1556
tp1557
a(Vinsert
p1558
I42
VSimpleName: btPairSet_SWIGUpcast
p1559
tp1560
a(Vinsert
p1561
I42
VSimpleName: delete_btGhostPairCallback
p1562
tp1563
a(Vinsert
p1564
I42
VSimpleName: setCullFace
p1565
tp1566
a(Vinsert
p1567
I42
VSimpleName: setLayout
p1568
tp1569
a(Vinsert
p1570
I42
VSimpleName: getSortCenter
p1571
tp1572
a(Vinsert
p1573
I42
VSimpleName: delete_btGjkConvexCast
p1574
tp1575
a(Vinsert
p1576
I42
VSimpleName: delete_btCompoundCompoundCollisionAlgorithm_SwappedCreateFunc
p1577
tp1578
a(Vinsert
p1579
I42
VSimpleName: getBillboardBatch
p1580
tp1581
a(Vinsert
p1582
I42
VSimpleName: storeName
p1583
tp1584
a(Vinsert
p1585
I42
VSimpleName: reuse
p1586
tp1587
a(Vinsert
p1588
I42
VSimpleName: isOver
p1589
tp1590
a(Vinsert
p1591
I42
VSimpleName: getType
p1592
tp1593
a(Vinsert
p1594
I42
VSimpleName: AllHitsRayResultCallback_director_connect
p1595
tp1596
a(Vinsert
p1597
I42
VSimpleName: setToOrtho2D
p1598
tp1599
a(Vinsert
p1600
I42
VSimpleName: startMagnetometerUpdatesToQueueWithHandler
p1601
tp1602
a(Vinsert
p1603
I42
VSimpleName: new_btPairCachingGhostObject
p1604
tp1605
a(Vinsert
p1606
I42
VSimpleName: delete_btOverlapFilterCallback
p1607
tp1608
a(Vinsert
p1609
I42
VSimpleName: getMessage
p1610
tp1611
a(Vinsert
p1612
I42
VSimpleName: asBoolean
p1613
tp1614
a(Vinsert
p1615
I42
VSimpleName: fadeIn
p1616
tp1617
a(Vinsert
p1618
I42
VSimpleName: addAll
p1619
tp1620
a(Vinsert
p1621
I42
VSimpleName: putAll
p1622
tp1623
a(Vinsert
p1624
I42
VSimpleName: getNearestOfType
p1625
tp1626
a(Vinsert
p1627
I42
VSimpleName: supportsMultitouch
p1628
tp1629
a(Vinsert
p1630
I42
VSimpleName: btBox2dShape_SWIGUpcast
p1631
tp1632
a(Vinsert
p1633
I42
VSimpleName: delete_btMaterial
p1634
tp1635
a(Vinsert
p1636
I42
VSimpleName: arraycopy
p1637
tp1638
a(Vinsert
p1639
I42
VSimpleName: abs
p1640
tp1641
a(Vinsert
p1642
I42
VSimpleName: delete_btIParallelForBody
p1643
tp1644
a(Vinsert
p1645
I42
VSimpleName: delete_Material
p1646
tp1647
a(Vinsert
p1648
I42
VSimpleName: getTileWidth
p1649
tp1650
a(Vinsert
p1651
I42
VSimpleName: btBvhSubtreeInfo_quantizedAabbMin_set
p1652
tp1653
a(Vinsert
p1654
I42
VSimpleName: btOptimizedBvh_refit
p1655
tp1656
a(Vinsert
p1657
I42
VSimpleName: debugCell
p1658
tp1659
a(Vinsert
p1660
I42
VSimpleName: getEventDWheel
p1661
tp1662
a(Vinsert
p1663
I42
VSimpleName: delete_btAngleCompareFunc
p1664
tp1665
a(Vinsert
p1666
I42
VSimpleName: Play
p1667
tp1668
a(Vinsert
p1669
I42
VSimpleName: surfaceChanged
p1670
tp1671
a(Vinsert
p1672
I42
VSimpleName: btTriangleIndexVertexMaterialArray_getLockedMaterialBase__SWIG_0
p1673
tp1674
a(Vinsert
p1675
I42
VSimpleName: ClosestRayResultCallback_m_rayToWorld_set
p1676
tp1677
a(Vinsert
p1678
I42
VSimpleName: glGetMaterial
p1679
tp1680
a(Vinsert
p1681
I42
VSimpleName: btCompoundShape_operatorDeleteArray__SWIG_0
p1682
tp1683
a(Vinsert
p1684
I42
VSimpleName: delete_btGImpactMeshShape
p1685
tp1686
a(Vinsert
p1687
I42
VSimpleName: getEngine
p1688
tp1689
a(Vinsert
p1690
I42
VSimpleName: nextInt
p1691
tp1692
a(Vinsert
p1693
I42
VSimpleName: btConvexInternalAabbCachingShape_SWIGUpcast
p1694
tp1695
a(Vinsert
p1696
I42
VSimpleName: btQuaternion_safeNormalize
p1697
tp1698
a(Vinsert
p1699
I42
VSimpleName: readValue
p1700
tp1701
a(Vinsert
p1702
I42
VSimpleName: btTriangleInfoMapData_m_convexEpsilon_set
p1703
tp1704
a(Vinsert
p1705
I42
VSimpleName: guessContentTypeFromName
p1706
tp1707
a(Vinsert
p1708
I42
VSimpleName: startActivity
p1709
tp1710
a(Vinsert
p1711
I42
VSimpleName: setCullingArea
p1712
tp1713
a(Vinsert
p1714
I42
VSimpleName: isDirty
p1715
tp1716
a(Vinsert
p1717
I42
VSimpleName: setMaterial
p1718
tp1719
a(Vinsert
p1720
I42
VSimpleName: getSurfaceHolder
p1721
tp1722
a(Vinsert
p1723
I42
VSimpleName: get_Volume
p1724
tp1725
a(Vinsert
p1726
I42
VSimpleName: setItems
p1727
tp1728
a(Vinsert
p1729
I42
VSimpleName: btWorldImporter_createGeneric6DofSpring2Constraint
p1730
tp1731
a(Vinsert
p1732
I42
VSimpleName: getParameters
p1733
tp1734
a(Vinsert
p1735
I42
VSimpleName: testPoint
p1736
tp1737
a(Vinsert
p1738
I42
VSimpleName: getCapHeight
p1739
tp1740
a(Vinsert
p1741
I42
VSimpleName: addWheel
p1742
tp1743
a(Vinsert
p1744
I42
VSimpleName: setFlipHorizontally
p1745
tp1746
a(Vinsert
p1747
I42
VSimpleName: intBitsToFloat
p1748
tp1749
a(Vinsert
p1750
I42
VSimpleName: btIndexedMesh_m_triangleIndexStride_set
p1751
tp1752
a(Vinsert
p1753
I42
VSimpleName: dismiss
p1754
tp1755
a(Vinsert
p1756
I42
VSimpleName: btAxisSweep3InternalShort_updateHandle
p1757
tp1758
a(Vinsert
p1759
I42
VSimpleName: glTexCoord2f
p1760
tp1761
a(Vinsert
p1762
I42
VSimpleName: btOptimizedBvhNodeFloatData_aabbMinOrg_get
p1763
tp1764
a(Vinsert
p1765
I42
VSimpleName: randomInertiaMatrix
p1766
tp1767
a(Vinsert
p1768
I42
VSimpleName: CProfileManager_CleanupMemory
p1769
tp1770
a(Vinsert
p1771
I42
VSimpleName: viewport
p1772
tp1773
a(Vinsert
p1774
I42
VSimpleName: setVisible
p1775
tp1776
a(Vinsert
p1777
I42
VSimpleName: btQuantizedBvhDoubleData_curNodeIndex_set
p1778
tp1779
a(Vinsert
p1780
I42
VSimpleName: object
p1781
tp1782
a(Vinsert
p1783
I42
VSimpleName: isDisplayable
p1784
tp1785
a(Vinsert
p1786
I42
VSimpleName: btUniformScalingShape_SWIGUpcast
p1787
tp1788
a(Vinsert
p1789
I42
VSimpleName: new_btMultimaterialTriangleMeshShape__SWIG_1
p1790
tp1791
a(Vinsert
p1792
I42
VSimpleName: getVersion
p1793
tp1794
a(Vinsert
p1795
I42
VSimpleName: btDefaultCollisionConfiguration_SWIGUpcast
p1796
tp1797
a(Vinsert
p1798
I42
VSimpleName: digit
p1799
tp1800
a(Vinsert
p1801
I42
VSimpleName: glBindBuffer
p1802
tp1803
a(Vinsert
p1804
I42
VSimpleName: btGImpactShapeInterface_getNumChildShapes
p1805
tp1806
a(Vinsert
p1807
I42
VSimpleName: setMesh
p1808
tp1809
a(Vinsert
p1810
I42
VSimpleName: new_btShapeHull
p1811
tp1812
a(Vinsert
p1813
I42
VSimpleName: getHistorySize
p1814
tp1815
a(Vinsert
p1816
I42
VSimpleName: drag
p1817
tp1818
a(Vinsert
p1819
I42
VSimpleName: glMatrixMode
p1820
tp1821
a(Vinsert
p1822
I42
VSimpleName: glDepthRangef
p1823
tp1824
a(Vinsert
p1825
I42
VSimpleName: btCompoundShape_getChildShape__SWIG_0
p1826
tp1827
a(Vinsert
p1828
I42
VSimpleName: btTypedConstraintFloatData_name_get
p1829
tp1830
a(Vinsert
p1831
I42
VSimpleName: get_Phase
p1832
tp1833
a(Vinsert
p1834
I42
VSimpleName: loaded
p1835
tp1836
a(Vinsert
p1837
I42
VSimpleName: loadOct
p1838
tp1839
a(Vinsert
p1840
I42
VSimpleName: setConstraints
p1841
tp1842
a(Vinsert
p1843
I42
VSimpleName: name
p1844
tp1845
a(Vinsert
p1846
I42
VSimpleName: getGyroscopeX
p1847
tp1848
a(Vinsert
p1849
I42
VSimpleName: btUniversalConstraint_SWIGUpcast
p1850
tp1851
a(Vinsert
p1852
I42
VSimpleName: btSparseSdf3_nqueries_set
p1853
tp1854
a(Vinsert
p1855
I42
VSimpleName: Process
p1856
tp1857
a(Vinsert
p1858
I42
VSimpleName: setPlaceholder
p1859
tp1860
a(Vinsert
p1861
I42
VSimpleName: btJointFeedback_operatorNewArray__SWIG_0
p1862
tp1863
a(Vinsert
p1864
I42
VSimpleName: setKeyboardFocus
p1865
tp1866
a(Vinsert
p1867
I42
VSimpleName: valueOf
p1868
tp1869
a(Vinsert
p1870
I42
VSimpleName: btGeneric6DofSpring2Constraint_matrixToEulerYXZ
p1871
tp1872
a(Vinsert
p1873
I42
VSimpleName: filesDropped
p1874
tp1875
a(Vinsert
p1876
I42
VSimpleName: playSound
p1877
tp1878
a(Vinsert
p1879
I42
VSimpleName: loadLibraries
p1880
tp1881
a(Vinsert
p1882
I42
VSimpleName: btConvexShape_operatorNewArray__SWIG_0
p1883
tp1884
a(Vinsert
p1885
I42
VSimpleName: ClosestNotMeConvexResultCallback_SWIGUpcast
p1886
tp1887
a(Vinsert
p1888
I42
VSimpleName: delete_btBulletXmlWorldImporter
p1889
tp1890
a(Vinsert
p1891
I42
VSimpleName: CProfileIterator_Enter_Child
p1892
tp1893
a(Vinsert
p1894
I42
VSimpleName: glStencilFunc
p1895
tp1896
a(Vinsert
p1897
I42
VSimpleName: btIndexedMesh_operatorNewArray__SWIG_0
p1898
tp1899
a(Vinsert
p1900
I42
VSimpleName: btAxisSweep3InternalShort_Handle_SWIGUpcast
p1901
tp1902
a(Vinsert
p1903
I42
VSimpleName: btCompoundShapeChildData_m_transform_get
p1904
tp1905
a(Vinsert
p1906
I42
VSimpleName: new_btGeneric6DofSpringConstraint__SWIG_1
p1907
tp1908
a(Vinsert
p1909
I42
VSimpleName: delete_btCPUVertexBufferDescriptor
p1910
tp1911
a(Vinsert
p1912
I42
VSimpleName: toIntBits
p1913
tp1914
a(Vinsert
p1915
I42
VSimpleName: createFromMesh
p1916
tp1917
a(Vinsert
p1918
I42
VSimpleName: glIsProgram
p1919
tp1920
a(Vinsert
p1921
I42
VSimpleName: btCollisionObjectDoubleData_m_rollingFriction_get
p1922
tp1923
a(Vinsert
p1924
I42
VSimpleName: btBvhSubtreeInfo_operatorNewArray__SWIG_0
p1925
tp1926
a(Vinsert
p1927
I42
VSimpleName: touchDown
p1928
tp1929
a(Vinsert
p1930
I42
VSimpleName: setTypeName
p1931
tp1932
a(Vinsert
p1933
I42
VSimpleName: acceptChar
p1934
tp1935
a(Vinsert
p1936
I42
VSimpleName: atan2
p1937
tp1938
a(Vinsert
p1939
I42
VSimpleName: writeInt
p1940
tp1941
a(Vinsert
p1942
I42
VSimpleName: btConvexConcaveCollisionAlgorithm_operatorDeleteArray__SWIG_0
p1943
tp1944
a(Vinsert
p1945
I42
VSimpleName: HullDesc_SetHullFlag
p1946
tp1947
a(Vinsert
p1948
I42
VSimpleName: getNumTriangles
p1949
tp1950
a(Vinsert
p1951
I42
VSimpleName: getButton
p1952
tp1953
a(Vinsert
p1954
I42
VSimpleName: didFinishPlaying
p1955
tp1956
a(Vinsert
p1957
I42
VSimpleName: getDeclaredAnnotations
p1958
tp1959
a(Vinsert
p1960
I42
VSimpleName: btSimulationIslandManagerMt_Island_id_get
p1961
tp1962
a(Vinsert
p1963
I42
VSimpleName: btManifoldPoint_combinedFriction_set
p1964
tp1965
a(Vinsert
p1966
I42
VSimpleName: btIDebugDraw_DefaultColors_disabledDeactivationObject_set
p1967
tp1968
a(Vinsert
p1969
I42
VSimpleName: btSolverConstraint_unusedPadding4_get
p1970
tp1971
a(Vinsert
p1972
I42
VSimpleName: createChain
p1973
tp1974
a(Vinsert
p1975
I42
VSimpleName: delete_btConvexInternalShape
p1976
tp1977
a(Vinsert
p1978
I42
VSimpleName: newDocumentBuilder
p1979
tp1980
a(Vinsert
p1981
I42
VSimpleName: getCurrentTarget
p1982
tp1983
a(Vinsert
p1984
I42
VSimpleName: btHashedSimplePairCache_removeAllPairs
p1985
tp1986
a(Vinsert
p1987
I42
VSimpleName: new_btBU_Simplex1to4__SWIG_1
p1988
tp1989
a(Vinsert
p1990
I42
VSimpleName: setIcon
p1991
tp1992
a(Vinsert
p1993
I42
VSimpleName: btFixedConstraint_SWIGUpcast
p1994
tp1995
a(Vinsert
p1996
I42
VSimpleName: glGetVertexAttrib
p1997
tp1998
a(Vinsert
p1999
I42
VSimpleName: flushLines
p2000
tp2001
a(Vinsert
p2002
I42
VSimpleName: interpolate
p2003
tp2004
a(Vinsert
p2005
I42
VSimpleName: btTriangleInfoMap_m_equalVertexThreshold_set
p2006
tp2007
a(Vinsert
p2008
I42
VSimpleName: btCylinderShapeX_operatorNewArray__SWIG_0
p2009
tp2010
a(Vinsert
p2011
I42
VSimpleName: test
p2012
tp2013
a(Vinsert
p2014
I42
VSimpleName: getColor
p2015
tp2016
a(Vinsert
p2017
I42
VSimpleName: isFullscreen
p2018
tp2019
a(Vinsert
p2020
I42
VSimpleName: genCube
p2021
tp2022
a(Vinsert
p2023
I42
VSimpleName: pack
p2024
tp2025
a(Vinsert
p2026
I42
VSimpleName: createTextureData
p2027
tp2028
a(Vinsert
p2029
I42
VSimpleName: obtainCell
p2030
tp2031
a(Vinsert
p2032
I42
VSimpleName: ContactAddedListenerByWrapper_change_ownership
p2033
tp2034
a(Vinsert
p2035
I42
VSimpleName: btRotationalLimitMotor_limitSoftness_get
p2036
tp2037
a(Vinsert
p2038
I42
VSimpleName: getPointCount
p2039
tp2040
a(Vinsert
p2041
I42
VSimpleName: btCollisionObjectFloatData_m_padding_set
p2042
tp2043
a(Vinsert
p2044
I42
VSimpleName: seekTo
p2045
tp2046
a(Vinsert
p2047
I42
VSimpleName: getMesh
p2048
tp2049
a(Vinsert
p2050
I42
VSimpleName: intersects
p2051
tp2052
a(Vinsert
p2053
I42
VSimpleName: open
p2054
tp2055
a(Vinsert
p2056
I42
VSimpleName: delete_Element
p2057
tp2058
a(Vinsert
p2059
I42
VSimpleName: onDisconnected
p2060
tp2061
a(Vinsert
p2062
I42
VSimpleName: isZero
p2063
tp2064
a(Vinsert
p2065
I42
VSimpleName: getAccelerometerY
p2066
tp2067
a(Vinsert
p2068
I42
VSimpleName: isScheduled
p2069
tp2070
a(Vinsert
p2071
I42
VSimpleName: splitTriangle
p2072
tp2073
a(Vinsert
p2074
I42
VSimpleName: btStaticPlaneShapeData_collisionShapeData_get
p2075
tp2076
a(Vinsert
p2077
I42
VSimpleName: getInput
p2078
tp2079
a(Vinsert
p2080
I42
VSimpleName: getDeclaredMethod
p2081
tp2082
a(Vinsert
p2083
I42
VSimpleName: MultiBodyTree_getBodyTransform
p2084
tp2085
a(Vinsert
p2086
I42
VSimpleName: destroyBody
p2087
tp2088
a(Vinsert
p2089
I42
VSimpleName: addTrace
p2090
tp2091
a(Vinsert
p2092
I42
VSimpleName: copyStream
p2093
tp2094
a(Vinsert
p2095
I42
VSimpleName: isCancelled
p2096
tp2097
a(Vinsert
p2098
I42
VSimpleName: getTotalWidth
p2099
tp2100
a(Vinsert
p2101
I42
VSimpleName: getWindowHandle
p2102
tp2103
a(Vinsert
p2104
I42
VSimpleName: getCharIndex
p2105
tp2106
a(Vinsert
p2107
I42
VSimpleName: getWorldPointToOut
p2108
tp2109
a(Vinsert
p2110
I42
VSimpleName: parseBoolean
p2111
tp2112
a(Vinsert
p2113
I42
VSimpleName: GdxCollisionObjectBridge_contactCallbackFilter_set
p2114
tp2115
a(Vinsert
p2116
I42
VSimpleName: btDbvtAabbMm_FromCE
p2117
tp2118
a(Vinsert
p2119
I42
VSimpleName: lastModified
p2120
tp2121
a(Vinsert
p2122
I42
VSimpleName: init
p2123
tp2124
a(Vinsert
p2125
I42
VSimpleName: btRigidBody_btRigidBodyConstructionInfo_spinningFriction_get
p2126
tp2127
a(Vinsert
p2128
I42
VSimpleName: delete_btScaledTriangleMeshShapeData
p2129
tp2130
a(Vinsert
p2131
I42
VSimpleName: addListener
p2132
tp2133
a(Vinsert
p2134
I42
VSimpleName: invalidateAllMeshes
p2135
tp2136
a(Vinsert
p2137
I42
VSimpleName: longValue
p2138
tp2139
a(Vinsert
p2140
I42
VSimpleName: isWhitespace
p2141
tp2142
a(Vinsert
p2143
I42
VSimpleName: uncaughtException
p2144
tp2145
a(Vinsert
p2146
I42
VSimpleName: getGestureDetector
p2147
tp2148
a(Vinsert
p2149
I42
VSimpleName: matcher
p2150
tp2151
a(Vinsert
p2152
I42
VSimpleName: getByType
p2153
tp2154
a(Vinsert
p2155
I42
VSimpleName: delete_btFace
p2156
tp2157
a(Vinsert
p2158
I42
VSimpleName: btOverlappingPairCallback_change_ownership
p2159
tp2160
a(Vinsert
p2161
I42
VSimpleName: asInt
p2162
tp2163
a(Vinsert
p2164
I42
VSimpleName: size
p2165
tp2166
a(Vinsert
p2167
I42
VSimpleName: btTriangleRaycastCallback_m_to_set
p2168
tp2169
a(Vinsert
p2170
I42
VSimpleName: getSkeletonSubMesh
p2171
tp2172
a(Vinsert
p2173
I42
VSimpleName: isAscendant
p2174
tp2175
a(Vinsert
p2176
I42
VSimpleName: btHashString_m_string_set
p2177
tp2178
a(Vinsert
p2179
I42
VSimpleName: touchDragged
p2180
tp2181
a(Vinsert
p2182
I42
VSimpleName: getClassOfType
p2183
tp2184
a(Vinsert
p2185
I42
VSimpleName: btContactSolverInfoData_m_maxGyroscopicForce_get
p2186
tp2187
a(Vinsert
p2188
I42
VSimpleName: delete_btChunk
p2189
tp2190
a(Vinsert
p2191
I42
VSimpleName: btKinematicCharacterController_operatorNewArray__SWIG_0
p2192
tp2193
a(Vinsert
p2194
I42
VSimpleName: popScissors
p2195
tp2196
a(Vinsert
p2197
I42
VSimpleName: play
p2198
tp2199
a(Vinsert
p2200
I42
VSimpleName: delete_btConeShapeZ
p2201
tp2202
a(Vinsert
p2203
I42
VSimpleName: toGlType
p2204
tp2205
a(Vinsert
p2206
I42
VSimpleName: shaderEquals
p2207
tp2208
a(Vinsert
p2209
I42
VSimpleName: hasRemaining
p2210
tp2211
a(Vinsert
p2212
I42
VSimpleName: getFiles
p2213
tp2214
a(Vinsert
p2215
I42
VSimpleName: getSelectedValue
p2216
tp2217
a(Vinsert
p2218
I42
VSimpleName: delete_btConvexHullComputer_Edge
p2219
tp2220
a(Vinsert
p2221
I42
VSimpleName: btCollisionObject_setWorldTransform
p2222
tp2223
a(Vinsert
p2224
I42
VSimpleName: delete_btVector4
p2225
tp2226
a(Vinsert
p2227
I42
VSimpleName: GIM_TRIANGLE_CONTACT_DATA_point_count_set
p2228
tp2229
a(Vinsert
p2230
I42
VSimpleName: overlaps
p2231
tp2232
a(Vinsert
p2233
I42
VSimpleName: btBroadphaseRayCallback_SWIGUpcast
p2234
tp2235
a(Vinsert
p2236
I42
VSimpleName: getModel
p2237
tp2238
a(Vinsert
p2239
I42
VSimpleName: delete_btCollisionDispatcherMt
p2240
tp2241
a(Vinsert
p2242
I42
VSimpleName: btRigidBody_getMotionStateConst
p2243
tp2244
a(Vinsert
p2245
I42
VSimpleName: getGyroscopeY
p2246
tp2247
a(Vinsert
p2248
I42
VSimpleName: readCIM
p2249
tp2250
a(Vinsert
p2251
I42
VSimpleName: decode
p2252
tp2253
a(Vinsert
p2254
I42
VSimpleName: setFollowRedirects
p2255
tp2256
a(Vinsert
p2257
I42
VSimpleName: btCollisionConfiguration_getPersistentManifoldPool
p2258
tp2259
a(Vinsert
p2260
I42
VSimpleName: onSuccess
p2261
tp2262
a(Vinsert
p2263
I42
VSimpleName: btGhostObject_SWIGUpcast
p2264
tp2265
a(Vinsert
p2266
I42
VSimpleName: numberOfTrailingZeros
p2267
tp2268
a(Vinsert
p2269
I42
VSimpleName: newSound
p2270
tp2271
a(Vinsert
p2272
I42
VSimpleName: reset
p2273
tp2274
a(Vinsert
p2275
I42
VSimpleName: delete_btCollisionAlgorithmConstructionInfo
p2276
tp2277
a(Vinsert
p2278
I42
VSimpleName: listIterator
p2279
tp2280
a(Vinsert
p2281
I42
VSimpleName: schedule
p2282
tp2283
a(Vinsert
p2284
I42
VSimpleName: delete_GIM_BVH_DATA
p2285
tp2286
a(Vinsert
p2287
I42
VSimpleName: delete_btIntIndexData
p2288
tp2289
a(Vinsert
p2290
I42
VSimpleName: isPanning
p2291
tp2292
a(Vinsert
p2293
I42
VSimpleName: release
p2294
tp2295
a(Vinsert
p2296
I42
VSimpleName: setVSync
p2297
tp2298
a(Vinsert
p2299
I42
VSimpleName: getNumEarlyOutTriangles
p2300
tp2301
a(Vinsert
p2302
I42
VSimpleName: btSliderConstraint_getFlags
p2303
tp2304
a(Vinsert
p2305
I42
VSimpleName: cancelTouchFocus
p2306
tp2307
a(Vinsert
p2308
I42
VSimpleName: sleep
p2309
tp2310
a(Vinsert
p2311
I42
VSimpleName: btKinematicCharacterController_setAngularDamping
p2312
tp2313
a(Vinsert
p2314
I42
VSimpleName: btConcaveShape_SWIGUpcast
p2315
tp2316
a(Vinsert
p2317
I42
VSimpleName: isEmpty
p2318
tp2319
a(Vinsert
p2320
I42
VSimpleName: delete_btContactArray
p2321
tp2322
a(Vinsert
p2323
I42
VSimpleName: getMapLayers
p2324
tp2325
a(Vinsert
p2326
I42
VSimpleName: getTarget
p2327
tp2328
a(Vinsert
p2329
I42
VSimpleName: btSphereShape_operatorNewArray__SWIG_0
p2330
tp2331
a(Vinsert
p2332
I42
VSimpleName: getPreloader
p2333
tp2334
a(Vinsert
p2335
I42
VSimpleName: getScaleY
p2336
tp2337
a(Vinsert
p2338
I42
VSimpleName: setFocusable
p2339
tp2340
a(Vinsert
p2341
I42
VSimpleName: HullResult_mNumOutputVertices_get
p2342
tp2343
a(Vinsert
p2344
I42
VSimpleName: btRotationalLimitMotor2_enableMotor_get
p2345
tp2346
a(Vinsert
p2347
I42
VSimpleName: GetParent
p2348
tp2349
a(Vinsert
p2350
I42
VSimpleName: btGenericMemoryPool_allocated_sizes_set
p2351
tp2352
a(Vinsert
p2353
I42
VSimpleName: maximized
p2354
tp2355
a(Vinsert
p2356
I42
VSimpleName: isCloseRequested
p2357
tp2358
a(Vinsert
p2359
I42
VSimpleName: isNaN
p2360
tp2361
a(Vinsert
p2362
I42
VSimpleName: getRegionY
p2363
tp2364
a(Vinsert
p2365
I42
VSimpleName: btQuaternion_getAngleShortestPath
p2366
tp2367
a(Vinsert
p2368
I42
VSimpleName: getBodyA
p2369
tp2370
a(Vinsert
p2371
I42
VSimpleName: btCapsuleShapeData_m_convexInternalShapeData_set
p2372
tp2373
a(Vinsert
p2374
I42
VSimpleName: btSoftClusterCollisionShape_SWIGUpcast
p2375
tp2376
a(Vinsert
p2377
I42
VSimpleName: glfwSetWindowSizeLimits
p2378
tp2379
a(Vinsert
p2380
I42
VSimpleName: setAccessible
p2381
tp2382
a(Vinsert
p2383
I42
VSimpleName: mulVec
p2384
tp2385
a(Vinsert
p2386
I42
VSimpleName: delete_btSubsimplexConvexCast
p2387
tp2388
a(Vinsert
p2389
I42
VSimpleName: newFontCache
p2390
tp2391
a(Vinsert
p2392
I42
VSimpleName: btPolyhedralConvexShape_initializePolyhedralFeatures__SWIG_0
p2393
tp2394
a(Vinsert
p2395
I42
VSimpleName: trn
p2396
tp2397
a(Vinsert
p2398
I42
VSimpleName: buttonDown
p2399
tp2400
a(Vinsert
p2401
I42
VSimpleName: getMainThread
p2402
tp2403
a(Vinsert
p2404
I42
VSimpleName: Stop
p2405
tp2406
a(Vinsert
p2407
I42
VSimpleName: btCompoundShapeChild_m_childShape_set
p2408
tp2409
a(Vinsert
p2410
I42
VSimpleName: ClosestConvexResultCallback_SWIGUpcast
p2411
tp2412
a(Vinsert
p2413
I42
VSimpleName: parent
p2414
tp2415
a(Vinsert
p2416
I42
VSimpleName: compact
p2417
tp2418
a(Vinsert
p2419
I42
VSimpleName: invoke
p2420
tp2421
a(Vinsert
p2422
I42
VSimpleName: new_btSphereBoxCollisionAlgorithm
p2423
tp2424
a(Vinsert
p2425
I42
VSimpleName: drawDebug
p2426
tp2427
a(Vinsert
p2428
I42
VSimpleName: btUniformScalingShape_operatorDeleteArray__SWIG_0
p2429
tp2430
a(Vinsert
p2431
I42
VSimpleName: btUniversalConstraint_operatorNewArray__SWIG_0
p2432
tp2433
a(Vinsert
p2434
I42
VSimpleName: getInt
p2435
tp2436
a(Vinsert
p2437
I42
VSimpleName: btSphereBoxCollisionAlgorithm_SWIGUpcast
p2438
tp2439
a(Vinsert
p2440
I42
VSimpleName: setPosition
p2441
tp2442
a(Vinsert
p2443
I42
VSimpleName: canRender
p2444
tp2445
a(Vinsert
p2446
I42
VSimpleName: crossToOutUnsafe
p2447
tp2448
a(Vinsert
p2449
I42
VSimpleName: popRot
p2450
tp2451
a(Vinsert
p2452
I42
VSimpleName: getLocalStorageIfSupported
p2453
tp2454
a(Vinsert
p2455
I42
VSimpleName: btSphereSphereCollisionAlgorithm_SWIGUpcast
p2456
tp2457
a(Vinsert
p2458
I42
VSimpleName: delete_integer_comparator
p2459
tp2460
a(Vinsert
p2461
I42
VSimpleName: btStringArray_resize__SWIG_1
p2462
tp2463
a(Vinsert
p2464
I42
VSimpleName: lookAt
p2465
tp2466
a(Vinsert
p2467
I42
VSimpleName: newUnmanagedTexture
p2468
tp2469
a(Vinsert
p2470
I42
VSimpleName: getBottomHeight
p2471
tp2472
a(Vinsert
p2473
I42
VSimpleName: setTransform
p2474
tp2475
a(Vinsert
p2476
I42
VSimpleName: getRenderables
p2477
tp2478
a(Vinsert
p2479
I42
VSimpleName: ClosestNotMeConvexResultCallback_m_me_set
p2480
tp2481
a(Vinsert
p2482
I42
VSimpleName: SwigConstructbtConvexHullShape
p2483
tp2484
a(Vinsert
p2485
I42
VSimpleName: btGhostObject_upcast
p2486
tp2487
a(Vinsert
p2488
I42
VSimpleName: TexParameter
p2489
tp2490
a(Vinsert
p2491
I42
VSimpleName: glTranslatef
p2492
tp2493
a(Vinsert
p2494
I42
VSimpleName: gluErrorString
p2495
tp2496
a(Vinsert
p2497
I42
VSimpleName: getListAdapter
p2498
tp2499
a(Vinsert
p2500
I42
VSimpleName: startsWith
p2501
tp2502
a(Vinsert
p2503
I42
VSimpleName: btConvexTriangleMeshShape_operatorDeleteArray__SWIG_0
p2504
tp2505
a(Vinsert
p2506
I42
VSimpleName: getPlanes
p2507
tp2508
a(Vinsert
p2509
I42
VSimpleName: btCapsuleShape_operatorNewArray__SWIG_0
p2510
tp2511
a(Vinsert
p2512
I42
VSimpleName: btGeneric6DofSpring2Constraint_getLinearUpperLimit
p2513
tp2514
a(Vinsert
p2515
I42
VSimpleName: btAngularLimit_set__SWIG_2
p2516
tp2517
a(Vinsert
p2518
I42
VSimpleName: isCurrent
p2519
tp2520
a(Vinsert
p2521
I42
VSimpleName: delete_btDbvt_sStkCLN
p2522
tp2523
a(Vinsert
p2524
I42
VSimpleName: btManifoldArray_resize__SWIG_0
p2525
tp2526
a(Vinsert
p2527
I42
VSimpleName: fill
p2528
tp2529
a(Vinsert
p2530
I42
VSimpleName: floor
p2531
tp2532
a(Vinsert
p2533
I42
VSimpleName: getPointer
p2534
tp2535
a(Vinsert
p2536
I42
VSimpleName: getGLType
p2537
tp2538
a(Vinsert
p2539
I42
VSimpleName: btMinkowskiSumShape_SWIGUpcast
p2540
tp2541
a(Vinsert
p2542
I42
VSimpleName: doubleToRawLongBits
p2543
tp2544
a(Vinsert
p2545
I42
VSimpleName: delete_btMinkowskiPenetrationDepthSolver
p2546
tp2547
a(Vinsert
p2548
I42
VSimpleName: loadLibrary
p2549
tp2550
a(Vinsert
p2551
I42
VSimpleName: btHingeAccumulatedAngleConstraint_operatorNewArray__SWIG_0
p2552
tp2553
a(Vinsert
p2554
I42
VSimpleName: btManifoldResult_calculateCombinedContactDamping
p2555
tp2556
a(Vinsert
p2557
I42
VSimpleName: setLeadAnchorNotificationEnabled
p2558
tp2559
a(Vinsert
p2560
I42
VSimpleName: getChild
p2561
tp2562
a(Vinsert
p2563
I42
VSimpleName: delete_btSoftBodyCollisionShape
p2564
tp2565
a(Vinsert
p2566
I42
VSimpleName: getAnnotation
p2567
tp2568
a(Vinsert
p2569
I42
VSimpleName: isLetter
p2570
tp2571
a(Vinsert
p2572
I42
VSimpleName: delete_btShortIntIndexTripletData
p2573
tp2574
a(Vinsert
p2575
I42
VSimpleName: shrink
p2576
tp2577
a(Vinsert
p2578
I42
VSimpleName: recycle
p2579
tp2580
a(Vinsert
p2581
I42
VSimpleName: btOverlappingPairCache_cleanOverlappingPair
p2582
tp2583
a(Vinsert
p2584
I42
VSimpleName: setPerformancePreferences
p2585
tp2586
a(Vinsert
p2587
I42
VSimpleName: getInternalFormat
p2588
tp2589
a(Vinsert
p2590
I42
VSimpleName: btVector4_SWIGUpcast
p2591
tp2592
a(Vinsert
p2593
I42
VSimpleName: get_Count
p2594
tp2595
a(Vinsert
p2596
I42
VSimpleName: getArrayElement
p2597
tp2598
a(Vinsert
p2599
I42
VSimpleName: getCurrent
p2600
tp2601
a(Vinsert
p2602
I42
VSimpleName: btSphereTriangleCollisionAlgorithm_CreateFunc_SWIGUpcast
p2603
tp2604
a(Vinsert
p2605
I42
VSimpleName: readInt
p2606
tp2607
a(Vinsert
p2608
I42
VSimpleName: delete_btHashString
p2609
tp2610
a(Vinsert
p2611
I42
VSimpleName: commit
p2612
tp2613
a(Vinsert
p2614
I42
VSimpleName: btSoftBodySolver_solveConstraints
p2615
tp2616
a(Vinsert
p2617
I42
VSimpleName: nextPowerOfTwo
p2618
tp2619
a(Vinsert
p2620
I42
VSimpleName: btTriangleBuffer_SWIGUpcast
p2621
tp2622
a(Vinsert
p2623
I42
VSimpleName: stopSound
p2624
tp2625
a(Vinsert
p2626
I42
VSimpleName: setText
p2627
tp2628
a(Vinsert
p2629
I42
VSimpleName: getRegion
p2630
tp2631
a(Vinsert
p2632
I42
VSimpleName: setVolume
p2633
tp2634
a(Vinsert
p2635
I42
VSimpleName: btCollisionObject_getContactStiffness
p2636
tp2637
a(Vinsert
p2638
I42
VSimpleName: btHingeConstraintDoubleData_rbBFrame_get
p2639
tp2640
a(Vinsert
p2641
I42
VSimpleName: newAudioDevice
p2642
tp2643
a(Vinsert
p2644
I42
VSimpleName: delete_btMultiBodyGearConstraint
p2645
tp2646
a(Vinsert
p2647
I42
VSimpleName: onScreen
p2648
tp2649
a(Vinsert
p2650
I42
VSimpleName: btSoftBodyTriangleCallback_m_triangleCount_get
p2651
tp2652
a(Vinsert
p2653
I42
VSimpleName: getPathIterator
p2654
tp2655
a(Vinsert
p2656
I42
VSimpleName: parse
p2657
tp2658
a(Vinsert
p2659
I42
VSimpleName: subSequence
p2660
tp2661
a(Vinsert
p2662
I42
VSimpleName: getY
p2663
tp2664
a(Vinsert
p2665
I42
VSimpleName: Face_n_set
p2666
tp2667
a(Vinsert
p2668
I42
VSimpleName: addBasicColorTextureAttachment
p2669
tp2670
a(Vinsert
p2671
I42
VSimpleName: setZIndex
p2672
tp2673
a(Vinsert
p2674
I42
VSimpleName: setLow
p2675
tp2676
a(Vinsert
p2677
I42
VSimpleName: getCurrentLight
p2678
tp2679
a(Vinsert
p2680
I42
VSimpleName: new_btHingeAccumulatedAngleConstraint__SWIG_1
p2681
tp2682
a(Vinsert
p2683
I42
VSimpleName: set_NoDelay
p2684
tp2685
a(Vinsert
p2686
I42
VSimpleName: delete_SoftBodyLinkData
p2687
tp2688
a(Vinsert
p2689
I42
VSimpleName: getParts
p2690
tp2691
a(Vinsert
p2692
I42
VSimpleName: btConvexPlaneCollisionAlgorithm_CreateFunc_SWIGUpcast
p2693
tp2694
a(Vinsert
p2695
I42
VSimpleName: getInstance
p2696
tp2697
a(Vinsert
p2698
I42
VSimpleName: runOnUiThread
p2699
tp2700
a(Vinsert
p2701
I42
VSimpleName: CloneTreeCreator_SWIGUpcast
p2702
tp2703
a(Vinsert
p2704
I42
VSimpleName: isAsset
p2705
tp2706
a(Vinsert
p2707
I42
VSimpleName: readString
p2708
tp2709
a(Vinsert
p2710
I42
VSimpleName: nanoTime
p2711
tp2712
a(Vinsert
p2713
I42
VSimpleName: newAndroidInput
p2714
tp2715
a(Vinsert
p2716
I42
VSimpleName: isISOControl
p2717
tp2718
a(Vinsert
p2719
I42
VSimpleName: btCollisionObject_setUserIndex
p2720
tp2721
a(Vinsert
p2722
I42
VSimpleName: btHeightfieldTerrainShape_operatorNewArray__SWIG_0
p2723
tp2724
a(Vinsert
p2725
I42
VSimpleName: onNegative
p2726
tp2727
a(Vinsert
p2728
I42
VSimpleName: getUniformLocation
p2729
tp2730
a(Vinsert
p2731
I42
VSimpleName: btBox2dBox2dCollisionAlgorithm_SWIGUpcast
p2732
tp2733
a(Vinsert
p2734
I42
VSimpleName: getSystemEventQueue
p2735
tp2736
a(Vinsert
p2737
I42
VSimpleName: isTouchable
p2738
tp2739
a(Vinsert
p2740
I42
VSimpleName: error
p2741
tp2742
a(Vinsert
p2743
I42
VSimpleName: addChangeListener
p2744
tp2745
a(Vinsert
p2746
I42
VSimpleName: popVec2
p2747
tp2748
a(Vinsert
p2749
I42
VSimpleName: btGeneric6DofSpringConstraintData_m_springEnabled_set
p2750
tp2751
a(Vinsert
p2752
I42
VSimpleName: toDegrees
p2753
tp2754
a(Vinsert
p2755
I42
VSimpleName: glfwGetVideoModes
p2756
tp2757
a(Vinsert
p2758
I42
VSimpleName: selectedKeys
p2759
tp2760
a(Vinsert
p2761
I42
VSimpleName: setCell
p2762
tp2763
a(Vinsert
p2764
I42
VSimpleName: parseModel
p2765
tp2766
a(Vinsert
p2767
I42
VSimpleName: onGenericMotion
p2768
tp2769
a(Vinsert
p2770
I42
VSimpleName: getIdleStreamID
p2771
tp2772
a(Vinsert
p2773
I42
VSimpleName: getText
p2774
tp2775
a(Vinsert
p2776
I42
VSimpleName: Add
p2777
tp2778
a(Vinsert
p2779
I42
VSimpleName: delete_GIM_BVH_TREE_NODE
p2780
tp2781
a(Vinsert
p2782
I42
VSimpleName: onTap
p2783
tp2784
a(Vinsert
p2785
I42
VSimpleName: delete_btPhysicsSystem
p2786
tp2787
a(Vinsert
p2788
I42
VSimpleName: btCollisionShape_getUserIndex
p2789
tp2790
a(Vinsert
p2791
I42
VSimpleName: delete_btPositionAndRadius
p2792
tp2793
a(Vinsert
p2794
I42
VSimpleName: addPad
p2795
tp2796
a(Vinsert
p2797
I42
VSimpleName: delete_btConvexConvexAlgorithm
p2798
tp2799
a(Vinsert
p2800
I42
VSimpleName: success
p2801
tp2802
a(Vinsert
p2803
I42
VSimpleName: toFloat
p2804
tp2805
a(Vinsert
p2806
I42
VSimpleName: btMultiBodyConstraint_getIslandIdA
p2807
tp2808
a(Vinsert
p2809
I42
VSimpleName: newCache
p2810
tp2811
a(Vinsert
p2812
I42
VSimpleName: btGeneric6DofSpring2ConstraintDoubleData2_linearEnableMotor_set
p2813
tp2814
a(Vinsert
p2815
I42
VSimpleName: setContinuous
p2816
tp2817
a(Vinsert
p2818
I42
VSimpleName: cross
p2819
tp2820
a(Vinsert
p2821
I42
VSimpleName: hit
p2822
tp2823
a(Vinsert
p2824
I42
VSimpleName: unload
p2825
tp2826
a(Vinsert
p2827
I42
VSimpleName: btDbvtBroadphase_m_updates_ratio_set
p2828
tp2829
a(Vinsert
p2830
I42
VSimpleName: ctrl
p2831
tp2832
a(Vinsert
p2833
I42
VSimpleName: getDisplayMode
p2834
tp2835
a(Vinsert
p2836
I42
VSimpleName: btBvhTriangleMeshShape_operatorNewArray__SWIG_0
p2837
tp2838
a(Vinsert
p2839
I42
VSimpleName: submitScore
p2840
tp2841
a(Vinsert
p2842
I42
VSimpleName: delete_btBU_Simplex1to4
p2843
tp2844
a(Vinsert
p2845
I42
VSimpleName: setUniformf
p2846
tp2847
a(Vinsert
p2848
I42
VSimpleName: btCollisionShape_getBoundingSphere
p2849
tp2850
a(Vinsert
p2851
I42
VSimpleName: btContactConstraint_SWIGUpcast
p2852
tp2853
a(Vinsert
p2854
I42
VSimpleName: file
p2855
tp2856
a(Vinsert
p2857
I42
VSimpleName: getRawType
p2858
tp2859
a(Vinsert
p2860
I42
VSimpleName: doubleValue
p2861
tp2862
a(Vinsert
p2863
I42
VSimpleName: delete_btSoftSoftCollisionAlgorithm
p2864
tp2865
a(Vinsert
p2866
I42
VSimpleName: isLoadingPage
p2867
tp2868
a(Vinsert
p2869
I42
VSimpleName: GIM_BOX_BOX_TRANSFORM_CACHE_R1to0_set
p2870
tp2871
a(Vinsert
p2872
I42
VSimpleName: getRotationMatrix
p2873
tp2874
a(Vinsert
p2875
I42
VSimpleName: Node_SWIGUpcast
p2876
tp2877
a(Vinsert
p2878
I42
VSimpleName: bind
p2879
tp2880
a(Vinsert
p2881
I42
VSimpleName: toChars
p2882
tp2883
a(Vinsert
p2884
I42
VSimpleName: getFieldElements
p2885
tp2886
a(Vinsert
p2887
I42
VSimpleName: getScreenResolution
p2888
tp2889
a(Vinsert
p2890
I42
VSimpleName: removeListener
p2891
tp2892
a(Vinsert
p2893
I42
VSimpleName: toFloatBits
p2894
tp2895
a(Vinsert
p2896
I42
VSimpleName: btConvexShape_localGetSupportVertexWithoutMarginNonVirtual
p2897
tp2898
a(Vinsert
p2899
I42
VSimpleName: delete_btInternalTriangleIndexCallback
p2900
tp2901
a(Vinsert
p2902
I42
VSimpleName: prepare
p2903
tp2904
a(Vinsert
p2905
I42
VSimpleName: getPrefHeight
p2906
tp2907
a(Vinsert
p2908
I42
VSimpleName: btHashedOverlappingPairCache_SWIGUpcast
p2909
tp2910
a(Vinsert
p2911
I42
VSimpleName: btCollisionObject_forceActivationState
p2912
tp2913
a(Vinsert
p2914
I42
VSimpleName: instance
p2915
tp2916
a(Vinsert
p2917
I42
VSimpleName: setTile
p2918
tp2919
a(Vinsert
p2920
I42
VSimpleName: btSliderConstraint_getDampingOrthoAng
p2921
tp2922
a(Vinsert
p2923
I42
VSimpleName: btMultiSphereShape_SWIGUpcast
p2924
tp2925
a(Vinsert
p2926
I42
VSimpleName: getSubMeshes
p2927
tp2928
a(Vinsert
p2929
I42
VSimpleName: quote
p2930
tp2931
a(Vinsert
p2932
I42
VSimpleName: btCollisionObjectDoubleData_anisotropicFriction_get
p2933
tp2934
a(Vinsert
p2935
I42
VSimpleName: invalidate
p2936
tp2937
a(Vinsert
p2938
I42
VSimpleName: newTexture
p2939
tp2940
a(Vinsert
p2941
I42
VSimpleName: toArray
p2942
tp2943
a(Vinsert
p2944
I42
VSimpleName: parseLong
p2945
tp2946
a(Vinsert
p2947
I42
VSimpleName: BT_BOX_BOX_TRANSFORM_CACHE_T1to0_set
p2948
tp2949
a(Vinsert
p2950
I42
VSimpleName: uniform2fv
p2951
tp2952
a(Vinsert
p2953
I42
VSimpleName: incRefCount
p2954
tp2955
a(Vinsert
p2956
I42
VSimpleName: shortValue
p2957
tp2958
a(Vinsert
p2959
I42
VSimpleName: openFd
p2960
tp2961
a(Vinsert
p2962
I42
VSimpleName: handleMouse
p2963
tp2964
a(Vinsert
p2965
I42
VSimpleName: getJBox2DJoint
p2966
tp2967
a(Vinsert
p2968
I42
VSimpleName: btConvexShape_getMarginNonVirtual
p2969
tp2970
a(Vinsert
p2971
I42
VSimpleName: createBody
p2972
tp2973
a(Vinsert
p2974
I42
VSimpleName: collapseAll
p2975
tp2976
a(Vinsert
p2977
I42
VSimpleName: activeCount
p2978
tp2979
a(Vinsert
p2980
I42
VSimpleName: asLong
p2981
tp2982
a(Vinsert
p2983
I42
VSimpleName: rotate90
p2984
tp2985
a(Vinsert
p2986
I42
VSimpleName: btJacobianEntry_getNonDiagonal__SWIG_0
p2987
tp2988
a(Vinsert
p2989
I42
VSimpleName: cancelHttpRequest
p2990
tp2991
a(Vinsert
p2992
I42
VSimpleName: btHeightfieldTerrainShape_setUseZigzagSubdivision__SWIG_1
p2993
tp2994
a(Vinsert
p2995
I42
VSimpleName: getParameterTypes
p2996
tp2997
a(Vinsert
p2998
I42
VSimpleName: new_btCompoundShape__SWIG_2
p2999
tp3000
a(Vinsert
p3001
I42
VSimpleName: isDone
p3002
tp3003
a(Vinsert
p3004
I42
VSimpleName: triangleCentroid
p3005
tp3006
a(Vinsert
p3007
I42
VSimpleName: isNeedBlending
p3008
tp3009
a(Vinsert
p3010
I42
VSimpleName: playState
p3011
tp3012
a(Vinsert
p3013
I42
VSimpleName: btCompoundShapeData_collisionShapeData_set
p3014
tp3015
a(Vinsert
p3016
I42
VSimpleName: scale
p3017
tp3018
a(Vinsert
p3019
I42
VSimpleName: getRemoteSocketAddress
p3020
tp3021
a(Vinsert
p3022
I42
VSimpleName: getActivity
p3023
tp3024
a(Vinsert
p3025
I42
VSimpleName: setNumSamples
p3026
tp3027
a(Vinsert
p3028
I42
VSimpleName: getCPtr
p3029
tp3030
a(Vinsert
p3031
I42
VSimpleName: btQuaternion_deSerializeFloat
p3032
tp3033
a(Vinsert
p3034
I42
VSimpleName: btContactSolverInfoData_m_sor_set
p3035
tp3036
a(Vinsert
p3037
I42
VSimpleName: glRotatef
p3038
tp3039
a(Vinsert
p3040
I42
VSimpleName: btDefaultMotionState_m_centerOfMassOffset_get
p3041
tp3042
a(Vinsert
p3043
I42
VSimpleName: createDiffuse
p3044
tp3045
a(Vinsert
p3046
I42
VSimpleName: glBufferData
p3047
tp3048
a(Vinsert
p3049
I42
VSimpleName: createShininess
p3050
tp3051
a(Vinsert
p3052
I42
VSimpleName: delete_btQuaternionDoubleData
p3053
tp3054
a(Vinsert
p3055
I42
VSimpleName: delete_btVehicleRaycaster
p3056
tp3057
a(Vinsert
p3058
I42
VSimpleName: setStereoVolume
p3059
tp3060
a(Vinsert
p3061
I42
VSimpleName: getPixel
p3062
tp3063
a(Vinsert
p3064
I42
VSimpleName: btGhostPairCallback_removeOverlappingPair
p3065
tp3066
a(Vinsert
p3067
I42
VSimpleName: calculateVertices
p3068
tp3069
a(Vinsert
p3070
I42
VSimpleName: addLast
p3071
tp3072
a(Vinsert
p3073
I42
VSimpleName: getSimpleName
p3074
tp3075
a(Vinsert
p3076
I42
VSimpleName: newLowValue
p3077
tp3078
a(Vinsert
p3079
I42
VSimpleName: append
p3080
tp3081
a(Vinsert
p3082
I42
VSimpleName: fillTriangle
p3083
tp3084
a(Vinsert
p3085
I42
VSimpleName: addImage
p3086
tp3087
a(Vinsert
p3088
I42
VSimpleName: toUpperCase
p3089
tp3090
a(Vinsert
p3091
I42
VSimpleName: delete_BaseContactAddedListener
p3092
tp3093
a(Vinsert
p3094
I42
VSimpleName: TexCoords
p3095
tp3096
a(Vinsert
p3097
I42
VSimpleName: glPolygonMode
p3098
tp3099
a(Vinsert
p3100
I42
VSimpleName: btTranslationalLimitMotor_stopERP_get
p3101
tp3102
a(Vinsert
p3103
I42
VSimpleName: btGeneric6DofSpringConstraintData_6dofData_set
p3104
tp3105
a(Vinsert
p3106
I42
VSimpleName: getGL
p3107
tp3108
a(Vinsert
p3109
I42
VSimpleName: getStateChange
p3110
tp3111
a(Vinsert
p3112
I42
VSimpleName: computeDistanceToOut
p3113
tp3114
a(Vinsert
p3115
I42
VSimpleName: getSubmeshnames
p3116
tp3117
a(Vinsert
p3118
I42
VSimpleName: getLooping
p3119
tp3120
a(Vinsert
p3121
I42
VSimpleName: click
p3122
tp3123
a(Vinsert
p3124
I42
VSimpleName: action
p3125
tp3126
a(Vinsert
p3127
I42
VSimpleName: delete_btCompoundShapeChildData
p3128
tp3129
a(Vinsert
p3130
I42
VSimpleName: getInputStream
p3131
tp3132
a(Vinsert
p3133
I42
VSimpleName: shift
p3134
tp3135
a(Vinsert
p3136
I42
VSimpleName: execute
p3137
tp3138
a(Vinsert
p3139
I42
VSimpleName: glFramebufferTexture2D
p3140
tp3141
a(Vinsert
p3142
I42
VSimpleName: btDefaultMotionState_getCenterOfMassOffset
p3143
tp3144
a(Vinsert
p3145
I42
VSimpleName: onScoreChanged
p3146
tp3147
a(Vinsert
p3148
I42
VSimpleName: getSensorList
p3149
tp3150
a(Vinsert
p3151
I42
VSimpleName: getExtras
p3152
tp3153
a(Vinsert
p3154
I42
VSimpleName: getShader
p3155
tp3156
a(Vinsert
p3157
I42
VSimpleName: btDbvtBroadphase_updates_done_set
p3158
tp3159
a(Vinsert
p3160
I42
VSimpleName: glMaterialfv
p3161
tp3162
a(Vinsert
p3163
I42
VSimpleName: isSupported
p3164
tp3165
a(Vinsert
p3166
I42
VSimpleName: getInterpolation
p3167
tp3168
a(Vinsert
p3169
I42
VSimpleName: new_btConvexPointCloudShape__SWIG_1
p3170
tp3171
a(Vinsert
p3172
I42
VSimpleName: getSelectionIndex
p3173
tp3174
a(Vinsert
p3175
I42
VSimpleName: getNumberOfAttributes
p3176
tp3177
a(Vinsert
p3178
I42
VSimpleName: setDisplayMode
p3179
tp3180
a(Vinsert
p3181
I42
VSimpleName: length
p3182
tp3183
a(Vinsert
p3184
I42
VSimpleName: setRenderable
p3185
tp3186
a(Vinsert
p3187
I42
VSimpleName: btSoftSoftCollisionAlgorithm_SWIGUpcast
p3188
tp3189
a(Vinsert
p3190
I42
VSimpleName: glClientActiveTexture
p3191
tp3192
a(Vinsert
p3193
I42
VSimpleName: setScreen
p3194
tp3195
a(Vinsert
p3196
I42
VSimpleName: setIndices
p3197
tp3198
a(Vinsert
p3199
I42
VSimpleName: createInt32Array
p3200
tp3201
a(Vinsert
p3202
I42
VSimpleName: ensureCapacity
p3203
tp3204
a(Vinsert
p3205
I42
VSimpleName: delete_btCylinderShapeX
p3206
tp3207
a(Vinsert
p3208
I42
VSimpleName: delete_btSoftBodyRigidBodyCollisionConfiguration
p3209
tp3210
a(Vinsert
p3211
I42
VSimpleName: isTouchFocusCancel
p3212
tp3213
a(Vinsert
p3214
I42
VSimpleName: btConvexHullShape_optimizeConvexHull
p3215
tp3216
a(Vinsert
p3217
I42
VSimpleName: btSimulationIslandManager_getUnionFind
p3218
tp3219
a(Vinsert
p3220
I42
VSimpleName: getPaddingAdvanceX
p3221
tp3222
a(Vinsert
p3223
I42
VSimpleName: step
p3224
tp3225
a(Vinsert
p3226
I42
VSimpleName: btSoftBody_setConfig_kDF
p3227
tp3228
a(Vinsert
p3229
I42
VSimpleName: loadStillModel
p3230
tp3231
a(Vinsert
p3232
I42
VSimpleName: glClearColor
p3233
tp3234
a(Vinsert
p3235
I42
VSimpleName: getMethod
p3236
tp3237
a(Vinsert
p3238
I42
VSimpleName: compile
p3239
tp3240
a(Vinsert
p3241
I42
VSimpleName: delete_btPersistentManifoldArray_less
p3242
tp3243
a(Vinsert
p3244
I42
VSimpleName: nextFloat
p3245
tp3246
a(Vinsert
p3247
I42
VSimpleName: isFragment
p3248
tp3249
a(Vinsert
p3250
I42
VSimpleName: new_btSimpleBroadphase__SWIG_2
p3251
tp3252
a(Vinsert
p3253
I42
VSimpleName: eglCreateContext
p3254
tp3255
a(Vinsert
p3256
I42
VSimpleName: getTypedArray
p3257
tp3258
a(Vinsert
p3259
I42
VSimpleName: addChild
p3260
tp3261
a(Vinsert
p3262
I42
VSimpleName: begin
p3263
tp3264
a(Vinsert
p3265
I42
VSimpleName: setApplicationListener
p3266
tp3267
a(Vinsert
p3268
I42
VSimpleName: getCell
p3269
tp3270
a(Vinsert
p3271
I42
VSimpleName: delete_btPolyhedralConvexAabbCachingShape
p3272
tp3273
a(Vinsert
p3274
I42
VSimpleName: eglGetConfigAttrib
p3275
tp3276
a(Vinsert
p3277
I42
VSimpleName: getParameteri
p3278
tp3279
a(Vinsert
p3280
I42
VSimpleName: format
p3281
tp3282
a(Vinsert
p3283
I42
VSimpleName: setMaxForce
p3284
tp3285
a(Vinsert
p3286
I42
VSimpleName: getExternalStoragePath
p3287
tp3288
a(Vinsert
p3289
I42
VSimpleName: getContext
p3290
tp3291
a(Vinsert
p3292
I42
VSimpleName: delete_btCollisionAlgorithmCreateFunc
p3293
tp3294
a(Vinsert
p3295
I42
VSimpleName: createJoint
p3296
tp3297
a(Vinsert
p3298
I42
VSimpleName: delete_btSparseSdf3_Cell
p3299
tp3300
a(Vinsert
p3301
I42
VSimpleName: fireKeyDown
p3302
tp3303
a(Vinsert
p3304
I42
VSimpleName: glGetBooleanv
p3305
tp3306
a(Vinsert
p3307
I42
VSimpleName: delete_btTriangleBuffer
p3308
tp3309
a(Vinsert
p3310
I42
VSimpleName: btScaledBvhTriangleMeshShape_operatorDeleteArray__SWIG_0
p3311
tp3312
a(Vinsert
p3313
I42
VSimpleName: minWidth
p3314
tp3315
a(Vinsert
p3316
I42
VSimpleName: onContactAdded
p3317
tp3318
a(Vinsert
p3319
I42
VSimpleName: btGjkConvexCast_SWIGUpcast
p3320
tp3321
a(Vinsert
p3322
I42
VSimpleName: nativeOrder
p3323
tp3324
a(Vinsert
p3325
I42
VSimpleName: btCharacterControllerInterface_SWIGUpcast
p3326
tp3327
a(Vinsert
p3328
I42
VSimpleName: btQuantizedBvhFloatData_curNodeIndex_set
p3329
tp3330
a(Vinsert
p3331
I42
VSimpleName: getNormal
p3332
tp3333
a(Vinsert
p3334
I42
VSimpleName: delete_btMLCPSolver
p3335
tp3336
a(Vinsert
p3337
I42
VSimpleName: btOptimizedBvhNode_aabbMinOrg_get
p3338
tp3339
a(Vinsert
p3340
I42
VSimpleName: getWorldTransform
p3341
tp3342
a(Vinsert
p3343
I42
VSimpleName: btDynamicsWorldFloatData_m_solverInfo_set
p3344
tp3345
a(Vinsert
p3346
I42
VSimpleName: getTextureRegion
p3347
tp3348
a(Vinsert
p3349
I42
VSimpleName: defaults
p3350
tp3351
a(Vinsert
p3352
I42
VSimpleName: btScaledTriangleMeshShapeData_m_trimeshShapeData_set
p3353
tp3354
a(Vinsert
p3355
I42
VSimpleName: handlePurchaseCanceled
p3356
tp3357
a(Vinsert
p3358
I42
VSimpleName: fire
p3359
tp3360
a(Vinsert
p3361
I42
VSimpleName: start
p3362
tp3363
a(Vinsert
p3364
I42
VSimpleName: btCollisionObjectFloatData_anisotropicFriction_get
p3365
tp3366
a(Vinsert
p3367
I42
VSimpleName: isDataFlavorSupported
p3368
tp3369
a(Vinsert
p3370
I42
VSimpleName: glCheckFramebufferStatus
p3371
tp3372
a(Vinsert
p3373
I42
VSimpleName: compress
p3374
tp3375
a(Vinsert
p3376
I42
VSimpleName: btCollisionDispatcher_findAlgorithm__SWIG_0
p3377
tp3378
a(Vinsert
p3379
I42
VSimpleName: sin
p3380
tp3381
a(Vinsert
p3382
I42
VSimpleName: btWheelInfo_suspensionStiffness_get
p3383
tp3384
a(Vinsert
p3385
I42
VSimpleName: btBox2dShape_getHalfExtentsWithoutMargin
p3386
tp3387
a(Vinsert
p3388
I42
VSimpleName: internal
p3389
tp3390
a(Vinsert
p3391
I42
VSimpleName: trim
p3392
tp3393
a(Vinsert
p3394
I42
VSimpleName: btDbvtNode_volume_set
p3395
tp3396
a(Vinsert
p3397
I42
VSimpleName: btTriangleInfoData_m_flags_set
p3398
tp3399
a(Vinsert
p3400
I42
VSimpleName: btSoftBodyRigidBodyCollisionConfiguration_SWIGUpcast
p3401
tp3402
a(Vinsert
p3403
I42
VSimpleName: toFront
p3404
tp3405
a(Vinsert
p3406
I42
VSimpleName: glGetTexParameterfv
p3407
tp3408
a(Vinsert
p3409
I42
VSimpleName: btSparseSdf3_nprobes_set
p3410
tp3411
a(Vinsert
p3412
I42
VSimpleName: delete_btQuaternionFloatData
p3413
tp3414
a(Vinsert
p3415
I42
VSimpleName: CProfileNode_Get_Sibling
p3416
tp3417
a(Vinsert
p3418
I42
VSimpleName: setDepthMask
p3419
tp3420
a(Vinsert
p3421
I42
VSimpleName: btCollisionShape_getAnisotropicRollingFrictionDirection
p3422
tp3423
a(Vinsert
p3424
I42
VSimpleName: removeCaptureListener
p3425
tp3426
a(Vinsert
p3427
I42
VSimpleName: ContactAddedListenerByObject_change_ownership
p3428
tp3429
a(Vinsert
p3430
I42
VSimpleName: getApplicationWindow
p3431
tp3432
a(Vinsert
p3433
I42
VSimpleName: findActor
p3434
tp3435
a(Vinsert
p3436
I42
VSimpleName: delete_btSphereBoxCollisionAlgorithm
p3437
tp3438
a(Vinsert
p3439
I42
VSimpleName: glClear
p3440
tp3441
a(Vinsert
p3442
I42
VSimpleName: delete_btConstraintSolverPoolMt
p3443
tp3444
a(Vinsert
p3445
I42
VSimpleName: createIndexArray
p3446
tp3447
a(Vinsert
p3448
I42
VSimpleName: setMargin
p3449
tp3450
a(Vinsert
p3451
I42
VSimpleName: btTriangleMesh_SWIGUpcast
p3452
tp3453
a(Vinsert
p3454
I42
VSimpleName: cacheMultiLineText
p3455
tp3456
a(Vinsert
p3457
I42
VSimpleName: btCompoundCollisionAlgorithm_getChildAlgorithm
p3458
tp3459
a(Vinsert
p3460
I42
VSimpleName: updateMatrices
p3461
tp3462
a(Vinsert
p3463
I42
VSimpleName: getMaxLength
p3464
tp3465
a(Vinsert
p3466
I42
VSimpleName: delete_btBoxBoxCollisionAlgorithm_CreateFunc
p3467
tp3468
a(Vinsert
p3469
I42
VSimpleName: getAscent
p3470
tp3471
a(Vinsert
p3472
I42
VSimpleName: getPov
p3473
tp3474
a(Vinsert
p3475
I42
VSimpleName: glfwGetJoystickButtons
p3476
tp3477
a(Vinsert
p3478
I42
VSimpleName: delete_btSoftBodyConcaveCollisionAlgorithm
p3479
tp3480
a(Vinsert
p3481
I42
VSimpleName: delete_btPairSet
p3482
tp3483
a(Vinsert
p3484
I42
VSimpleName: toCharArray
p3485
tp3486
a(Vinsert
p3487
I42
VSimpleName: getMonitor
p3488
tp3489
a(Vinsert
p3490
I42
VSimpleName: setFullscreen
p3491
tp3492
a(Vinsert
p3493
I42
VSimpleName: updateTextureRegions
p3494
tp3495
a(Vinsert
p3496
I42
VSimpleName: idt
p3497
tp3498
a(Vinsert
p3499
I42
VSimpleName: calculateAndApplyLightsToModel
p3500
tp3501
a(Vinsert
p3502
I42
VSimpleName: delete_btCollisionObjectConstArray_less
p3503
tp3504
a(Vinsert
p3505
I42
VSimpleName: delete_GIM_BVH_TREE_NODE_ARRAY
p3506
tp3507
a(Vinsert
p3508
I42
VSimpleName: btCollisionObjectDoubleData_contactStiffness_set
p3509
tp3510
a(Vinsert
p3511
I42
VSimpleName: loadSync
p3512
tp3513
a(Vinsert
p3514
I42
VSimpleName: newTest
p3515
tp3516
a(Vinsert
p3517
I42
VSimpleName: delete_btCapsuleShapeX
p3518
tp3519
a(Vinsert
p3520
I42
VSimpleName: btConvexPlaneCollisionAlgorithm_SWIGUpcast
p3521
tp3522
a(Vinsert
p3523
I42
VSimpleName: getActor
p3524
tp3525
a(Vinsert
p3526
I42
VSimpleName: create
p3527
tp3528
a(Vinsert
p3529
I42
VSimpleName: getNameForSystemCursor
p3530
tp3531
a(Vinsert
p3532
I42
VSimpleName: getAbsoluteFile
p3533
tp3534
a(Vinsert
p3535
I42
VSimpleName: new_btConvexHullShape__SWIG_1
p3536
tp3537
a(Vinsert
p3538
I42
VSimpleName: setAwake
p3539
tp3540
a(Vinsert
p3541
I42
VSimpleName: floatToRawIntBits
p3542
tp3543
a(Vinsert
p3544
I42
VSimpleName: ContactProcessedListener_CB
p3545
tp3546
a(Vinsert
p3547
I42
VSimpleName: setMarkupEnabled
p3548
tp3549
a(Vinsert
p3550
I42
VSimpleName: Feature_SWIGUpcast
p3551
tp3552
a(Vinsert
p3553
I42
VSimpleName: SoftRigidAnchorData_c1_set
p3554
tp3555
a(Vinsert
p3556
I42
VSimpleName: isResizable
p3557
tp3558
a(Vinsert
p3559
I42
VSimpleName: btPoint2PointConstraintFloatData_typeConstraintData_set
p3560
tp3561
a(Vinsert
p3562
I42
VSimpleName: btHashedOverlappingPairCache_operatorNewArray__SWIG_0
p3563
tp3564
a(Vinsert
p3565
I42
VSimpleName: getVecMatFromDH
p3566
tp3567
a(Vinsert
p3568
I42
VSimpleName: btClock_operatorAssignment
p3569
tp3570
a(Vinsert
p3571
I42
VSimpleName: delete_btHinge2Constraint
p3572
tp3573
a(Vinsert
p3574
I42
VSimpleName: isAlwaysActive
p3575
tp3576
a(Vinsert
p3577
I42
VSimpleName: isClockWise
p3578
tp3579
a(Vinsert
p3580
I42
VSimpleName: delete_ConvexH_HalfEdge
p3581
tp3582
a(Vinsert
p3583
I42
VSimpleName: delete_RandomTreeCreator
p3584
tp3585
a(Vinsert
p3586
I42
VSimpleName: new_btMultiBodySliderConstraint__SWIG_0
p3587
tp3588
a(Vinsert
p3589
I42
VSimpleName: SwigConstructbtMultiSphereShape
p3590
tp3591
a(Vinsert
p3592
I42
VSimpleName: getView
p3593
tp3594
a(Vinsert
p3595
I42
VSimpleName: associateObjCObject
p3596
tp3597
a(Vinsert
p3598
I42
VSimpleName: capacity
p3599
tp3600
a(Vinsert
p3601
I42
VSimpleName: accept
p3602
tp3603
a(Vinsert
p3604
I42
VSimpleName: collide
p3605
tp3606
a(Vinsert
p3607
I42
VSimpleName: setTargetActor
p3608
tp3609
a(Vinsert
p3610
I42
VSimpleName: newIntPtr
p3611
tp3612
a(Vinsert
p3613
I42
VSimpleName: ClosestNotMeRayResultCallback_SWIGUpcast
p3614
tp3615
a(Vinsert
p3616
I42
VSimpleName: btNNCGConstraintSolver_operatorNew__SWIG_0
p3617
tp3618
a(Vinsert
p3619
I42
VSimpleName: btGImpactShapeInterface_getChildShapeConst
p3620
tp3621
a(Vinsert
p3622
I42
VSimpleName: stopSourcesWithBuffer
p3623
tp3624
a(Vinsert
p3625
I42
VSimpleName: setRefCount
p3626
tp3627
a(Vinsert
p3628
I42
VSimpleName: btManifoldPoint_m_index0_get
p3629
tp3630
a(Vinsert
p3631
I42
VSimpleName: getMajorVersion
p3632
tp3633
a(Vinsert
p3634
I42
VSimpleName: btSubsimplexConvexCast_SWIGUpcast
p3635
tp3636
a(Vinsert
p3637
I42
VSimpleName: signum
p3638
tp3639
a(Vinsert
p3640
I42
VSimpleName: of
p3641
tp3642
a(Vinsert
p3643
I42
VSimpleName: initializeListener
p3644
tp3645
a(Vinsert
p3646
I42
VSimpleName: getContent
p3647
tp3648
a(Vinsert
p3649
I42
VSimpleName: setOnClickListener
p3650
tp3651
a(Vinsert
p3652
I42
VSimpleName: getRate
p3653
tp3654
a(Vinsert
p3655
I42
VSimpleName: btBroadphaseInterface_getAabb
p3656
tp3657
a(Vinsert
p3658
I42
VSimpleName: padTop
p3659
tp3660
a(Vinsert
p3661
I42
VSimpleName: setToolTipText
p3662
tp3663
a(Vinsert
p3664
I42
VSimpleName: btPairCachingGhostObject_SWIGUpcast
p3665
tp3666
a(Vinsert
p3667
I42
VSimpleName: getRegions
p3668
tp3669
a(Vinsert
p3670
I42
VSimpleName: getScrollFocus
p3671
tp3672
a(Vinsert
p3673
I42
VSimpleName: glfwGetMonitors
p3674
tp3675
a(Vinsert
p3676
I42
VSimpleName: getVendor
p3677
tp3678
a(Vinsert
p3679
I42
VSimpleName: generateFont
p3680
tp3681
a(Vinsert
p3682
I42
VSimpleName: calculateVerticesJni
p3683
tp3684
a(Vinsert
p3685
I42
VSimpleName: new_ConvexH__SWIG_0
p3686
tp3687
a(Vinsert
p3688
I42
VSimpleName: btCollisionDispatcher_SWIGUpcast
p3689
tp3690
a(Vinsert
p3691
I42
VSimpleName: btScaledBvhTriangleMeshShape_SWIGUpcast
p3692
tp3693
a(Vinsert
p3694
I42
VSimpleName: mixFriction
p3695
tp3696
a(Vinsert
p3697
I42
VSimpleName: getLeftWidth
p3698
tp3699
a(Vinsert
p3700
I42
VSimpleName: btPoint2PointConstraint_getFlags
p3701
tp3702
a(Vinsert
p3703
I42
VSimpleName: getKey
p3704
tp3705
a(Vinsert
p3706
I42
VSimpleName: delete_GdxCollisionObjectBridge
p3707
tp3708
a(Vinsert
p3709
I42
VSimpleName: stopPropagation
p3710
tp3711
a(Vinsert
p3712
I42
VSimpleName: getStageX
p3713
tp3714
a(Vinsert
p3715
I42
VSimpleName: SoftBodyNodeData_previousPosition_get
p3716
tp3717
a(Vinsert
p3718
I42
VSimpleName: getImageElement
p3719
tp3720
a(Vinsert
p3721
I42
VSimpleName: setFromMatrix
p3722
tp3723
a(Vinsert
p3724
I42
VSimpleName: get_Keys
p3725
tp3726
a(Vinsert
p3727
I42
VSimpleName: join
p3728
tp3729
a(Vinsert
p3730
I42
VSimpleName: btBroadphaseRayCallback_change_ownership
p3731
tp3732
a(Vinsert
p3733
I42
VSimpleName: eglQueryContext
p3734
tp3735
a(Vinsert
p3736
I42
VSimpleName: btBoxBoxCollisionAlgorithm_SWIGUpcast
p3737
tp3738
a(Vinsert
p3739
I42
VSimpleName: getLocalVector
p3740
tp3741
a(Vinsert
p3742
I42
VSimpleName: getLocation
p3743
tp3744
a(Vinsert
p3745
I42
VSimpleName: LocalConvexResult_m_localShapeInfo_set
p3746
tp3747
a(Vinsert
p3748
I42
VSimpleName: btCompoundCompoundCollisionAlgorithm_calculateTimeOfImpact
p3749
tp3750
a(Vinsert
p3751
I42
VSimpleName: btBox2dBox2dCollisionAlgorithm_CreateFunc_SWIGUpcast
p3752
tp3753
a(Vinsert
p3754
I42
VSimpleName: initializeGlfw
p3755
tp3756
a(Vinsert
p3757
I42
VSimpleName: findRegion
p3758
tp3759
a(Vinsert
p3760
I42
VSimpleName: dispose
p3761
tp3762
a(Vinsert
p3763
I42
VSimpleName: main
p3764
tp3765
a(Vinsert
p3766
I42
VSimpleName: padLeft
p3767
tp3768
a(Vinsert
p3769
I42
VSimpleName: unloadEffect
p3770
tp3771
a(Vinsert
p3772
I42
VSimpleName: colspan
p3773
tp3774
a(Vinsert
p3775
I42
VSimpleName: setUniformMatrix
p3776
tp3777
a(Vinsert
p3778
I42
VSimpleName: btConvexTriangleCallback_processTriangle
p3779
tp3780
a(Vinsert
p3781
I42
VSimpleName: getU
p3782
tp3783
a(Vinsert
p3784
I42
VSimpleName: delete_btClock
p3785
tp3786
a(Vinsert
p3787
I42
VSimpleName: btVector3_norm
p3788
tp3789
a(Vinsert
p3790
I42
VSimpleName: extension
p3791
tp3792
a(Vinsert
p3793
I42
VSimpleName: new_btGeneric6DofSpringConstraint__SWIG_0
p3794
tp3795
a(Vinsert
p3796
I42
VSimpleName: toURI
p3797
tp3798
a(Vinsert
p3799
I42
VSimpleName: getCurrentServiceSelectors
p3800
tp3801
a(Vinsert
p3802
I42
VSimpleName: isPublic
p3803
tp3804
a(Vinsert
p3805
I42
VSimpleName: ClosestRayResultCallback_director_connect
p3806
tp3807
a(Vinsert
p3808
I42
VSimpleName: setParent
p3809
tp3810
a(Vinsert
p3811
I42
VSimpleName: exists
p3812
tp3813
a(Vinsert
p3814
I42
VSimpleName: getPrefWidth
p3815
tp3816
a(Vinsert
p3817
I42
VSimpleName: newPermissionCollection
p3818
tp3819
a(Vinsert
p3820
I42
VSimpleName: btSoftRigidDynamicsWorld_getSoftBodyArrayConst
p3821
tp3822
a(Vinsert
p3823
I42
VSimpleName: substring
p3824
tp3825
a(Vinsert
p3826
I42
VSimpleName: setExecutable
p3827
tp3828
a(Vinsert
p3829
I42
VSimpleName: btManifoldPoint_combinedContactDamping1_set
p3830
tp3831
a(Vinsert
p3832
I42
VSimpleName: btContactArray_SWIGUpcast
p3833
tp3834
a(Vinsert
p3835
I42
VSimpleName: glViewport
p3836
tp3837
a(Vinsert
p3838
I42
VSimpleName: getClazz
p3839
tp3840
a(Vinsert
p3841
I42
VSimpleName: btHingeConstraint_hasLimit
p3842
tp3843
a(Vinsert
p3844
I42
VSimpleName: getPaused
p3845
tp3846
a(Vinsert
p3847
I42
VSimpleName: glUniform3fv
p3848
tp3849
a(Vinsert
p3850
I42
VSimpleName: AllHitsRayResultCallback_SWIGUpcast
p3851
tp3852
a(Vinsert
p3853
I42
VSimpleName: setInputProcessor
p3854
tp3855
a(Vinsert
p3856
I42
VSimpleName: setFilterData
p3857
tp3858
a(Vinsert
p3859
I42
VSimpleName: btTypedConstraintData_name_get
p3860
tp3861
a(Vinsert
p3862
I42
VSimpleName: glTexEnviv
p3863
tp3864
a(Vinsert
p3865
I42
VSimpleName: Start
p3866
tp3867
a(Vinsert
p3868
I42
VSimpleName: delete_btHashPtr
p3869
tp3870
a(Vinsert
p3871
I42
VSimpleName: setEulerAngles
p3872
tp3873
a(Vinsert
p3874
I42
VSimpleName: btLemkeSolver_debugLevel_set
p3875
tp3876
a(Vinsert
p3877
I42
VSimpleName: btCylinderShape_SWIGUpcast
p3878
tp3879
a(Vinsert
p3880
I42
VSimpleName: listFiles
p3881
tp3882
a(Vinsert
p3883
I42
VSimpleName: values
p3884
tp3885
a(Vinsert
p3886
I42
VSimpleName: getCanonicalPath
p3887
tp3888
a(Vinsert
p3889
I42
VSimpleName: delete_btEmptyAlgorithm
p3890
tp3891
a(Vinsert
p3892
I42
VSimpleName: btUnionFind_reset
p3893
tp3894
a(Vinsert
p3895
I42
VSimpleName: btScalarArray_resizeNoInitialize
p3896
tp3897
a(Vinsert
p3898
I42
VSimpleName: btSoftBody_appendAnchor__SWIG_5
p3899
tp3900
a(Vinsert
p3901
I42
VSimpleName: new_btConvex2dConvex2dAlgorithm
p3902
tp3903
a(Vinsert
p3904
I42
VSimpleName: getBufferFormat
p3905
tp3906
a(Vinsert
p3907
I42
VSimpleName: getPackedColor
p3908
tp3909
a(Vinsert
p3910
I42
VSimpleName: btTranslationalLimitMotor2_servoMotor_get
p3911
tp3912
a(Vinsert
p3913
I42
VSimpleName: delete_btActivatingCollisionAlgorithm
p3914
tp3915
a(Vinsert
p3916
I42
VSimpleName: getPixelScaleFactor
p3917
tp3918
a(Vinsert
p3919
I42
VSimpleName: find
p3920
tp3921
a(Vinsert
p3922
I42
VSimpleName: getValues
p3923
tp3924
a(Vinsert
p3925
I42
VSimpleName: btCollisionObjectWrapper_index_set
p3926
tp3927
a(Vinsert
p3928
I42
VSimpleName: setColors
p3929
tp3930
a(Vinsert
p3931
I42
VSimpleName: hasRotationOrScaling
p3932
tp3933
a(Vinsert
p3934
I42
VSimpleName: delete_GIM_BVH_DATA_ARRAY
p3935
tp3936
a(Vinsert
p3937
I42
VSimpleName: getVertexSize
p3938
tp3939
a(Vinsert
p3940
I42
VSimpleName: parseFloat
p3941
tp3942
a(Vinsert
p3943
I42
VSimpleName: btConvexPolyhedron_operatorNewArray__SWIG_0
p3944
tp3945
a(Vinsert
p3946
I42
VSimpleName: getTransparency
p3947
tp3948
a(Vinsert
p3949
I42
VSimpleName: setEllipsis
p3950
tp3951
a(Vinsert
p3952
I42
VSimpleName: glDisable
p3953
tp3954
a(Vinsert
p3955
I42
VSimpleName: delete_btPolarDecomposition
p3956
tp3957
a(Vinsert
p3958
I42
VSimpleName: btSliderConstraintData_rbAFrame_get
p3959
tp3960
a(Vinsert
p3961
I42
VSimpleName: getVertexAttributes
p3962
tp3963
a(Vinsert
p3964
I42
VSimpleName: setRatio
p3965
tp3966
a(Vinsert
p3967
I42
VSimpleName: btMultiBodyLinkCollider_multiBody_set
p3968
tp3969
a(Vinsert
p3970
I42
VSimpleName: btTriangleRaycastCallback_from_get
p3971
tp3972
a(Vinsert
p3973
I42
VSimpleName: endsWith
p3974
tp3975
a(Vinsert
p3976
I42
VSimpleName: btContactSolverInfo_SWIGUpcast
p3977
tp3978
a(Vinsert
p3979
I42
VSimpleName: getWorldCenter
p3980
tp3981
a(Vinsert
p3982
I42
VSimpleName: btSortedOverlappingPairCache_SWIGUpcast
p3983
tp3984
a(Vinsert
p3985
I42
VSimpleName: btAxisSweep3_SWIGUpcast
p3986
tp3987
a(Vinsert
p3988
I42
VSimpleName: btAxisSweep3InternalInt_Handle_SWIGUpcast
p3989
tp3990
a(Vinsert
p3991
I42
VSimpleName: exit
p3992
tp3993
a(Vinsert
p3994
I42
VSimpleName: delete_btFixedConstraint
p3995
tp3996
a(Vinsert
p3997
I42
VSimpleName: getFormat
p3998
tp3999
a(Vinsert
p4000
I42
VSimpleName: getNativePixmap
p4001
tp4002
a(Vinsert
p4003
I42
VSimpleName: findRegions
p4004
tp4005
a(Vinsert
p4006
I42
VSimpleName: onBeginNavigation
p4007
tp4008
a(Vinsert
p4009
I42
VSimpleName: setDoOutput
p4010
tp4011
a(Vinsert
p4012
I42
VSimpleName: calculateScissors
p4013
tp4014
a(Vinsert
p4015
I42
VSimpleName: getStreamVolume
p4016
tp4017
a(Vinsert
p4018
I42
VSimpleName: glGetIntegerv
p4019
tp4020
a(Vinsert
p4021
I42
VSimpleName: btPersistentManifoldArray_removeAtIndex
p4022
tp4023
a(Vinsert
p4024
I42
VSimpleName: getDouble
p4025
tp4026
a(Vinsert
p4027
I42
VSimpleName: getNumVertices
p4028
tp4029
a(Vinsert
p4030
I42
VSimpleName: axisMoved
p4031
tp4032
a(Vinsert
p4033
I42
VSimpleName: btBoxBoxCollisionAlgorithm_CreateFunc_SWIGUpcast
p4034
tp4035
a(Vinsert
p4036
I42
VSimpleName: setPos
p4037
tp4038
a(Vinsert
p4039
I42
VSimpleName: newMusic
p4040
tp4041
a(Vinsert
p4042
I42
VSimpleName: getDeclaringClass
p4043
tp4044
a(Vinsert
p4045
I42
VSimpleName: delete_btQuantizedBvhNodeData
p4046
tp4047
a(Vinsert
p4048
I42
VSimpleName: getName
p4049
tp4050
a(Vinsert
p4051
I42
VSimpleName: delete_btShapeHull
p4052
tp4053
a(Vinsert
p4054
I42
VSimpleName: identityHashCode
p4055
tp4056
a(Vinsert
p4057
I42
VSimpleName: getItem
p4058
tp4059
a(Vinsert
p4060
I42
VSimpleName: setPan
p4061
tp4062
a(Vinsert
p4063
I42
VSimpleName: setPremultipliedAlpha
p4064
tp4065
a(Vinsert
p4066
I42
VSimpleName: btDbvtAabbMm_tMaxs
p4067
tp4068
a(Vinsert
p4069
I42
VSimpleName: setUrl
p4070
tp4071
a(Vinsert
p4072
I42
VSimpleName: btSoftBodyJointData_refs_get
p4073
tp4074
a(Vinsert
p4075
I42
VSimpleName: btRotationalLimitMotor_m_stopERP_set
p4076
tp4077
a(Vinsert
p4078
I42
VSimpleName: new_btAxisSweep3__SWIG_0
p4079
tp4080
a(Vinsert
p4081
I42
VSimpleName: addText
p4082
tp4083
a(Vinsert
p4084
I42
VSimpleName: allObjects
p4085
tp4086
a(Vinsert
p4087
I42
VSimpleName: SoftBodyPoseData_m_positions_set
p4088
tp4089
a(Vinsert
p4090
I42
VSimpleName: btDefaultMotionState_centerOfMassOffset_set
p4091
tp4092
a(Vinsert
p4093
I42
VSimpleName: glTexCoordPointer
p4094
tp4095
a(Vinsert
p4096
I42
VSimpleName: setRenderer
p4097
tp4098
a(Vinsert
p4099
I42
VSimpleName: btBoxBoxDetector_m_box2_set
p4100
tp4101
a(Vinsert
p4102
I42
VSimpleName: getKeyCode
p4103
tp4104
a(Vinsert
p4105
I42
VSimpleName: btTranslationalLimitMotor_m_stopCFM_set
p4106
tp4107
a(Vinsert
p4108
I42
VSimpleName: hasPKMHeader
p4109
tp4110
a(Vinsert
p4111
I42
VSimpleName: SoftBodyLinkData_m_material_get
p4112
tp4113
a(Vinsert
p4114
I42
VSimpleName: getCurrentEventTime
p4115
tp4116
a(Vinsert
p4117
I42
VSimpleName: newDerivedObject
p4118
tp4119
a(Vinsert
p4120
I42
VSimpleName: btCompoundShapeChild_transform_get
p4121
tp4122
a(Vinsert
p4123
I42
VSimpleName: setTouchable
p4124
tp4125
a(Vinsert
p4126
I42
VSimpleName: list
p4127
tp4128
a(Vinsert
p4129
I42
VSimpleName: getPickRay
p4130
tp4131
a(Vinsert
p4132
I42
VSimpleName: toByteArray
p4133
tp4134
a(Vinsert
p4135
I42
VSimpleName: det
p4136
tp4137
a(Vinsert
p4138
I42
VSimpleName: btConvexHullShapeData_convexInternalShapeData_get
p4139
tp4140
a(Vinsert
p4141
I42
VSimpleName: getLevel
p4142
tp4143
a(Vinsert
p4144
I42
VSimpleName: BufferSubData
p4145
tp4146
a(Vinsert
p4147
I42
VSimpleName: btQuantizedBvh_operatorNewArray__SWIG_0
p4148
tp4149
a(Vinsert
p4150
I42
VSimpleName: btDynamicsWorldDoubleData_m_solverInfo_set
p4151
tp4152
a(Vinsert
p4153
I42
VSimpleName: btDispatcherInfo_useContinuous_get
p4154
tp4155
a(Vinsert
p4156
I42
VSimpleName: btBroadphaseProxy_m_aabbMax_set
p4157
tp4158
a(Vinsert
p4159
I42
VSimpleName: setPaused
p4160
tp4161
a(Vinsert
p4162
I42
VSimpleName: btMultiBodyLinkDoubleData_parentIndex_set
p4163
tp4164
a(Vinsert
p4165
I42
VSimpleName: call
p4166
tp4167
a(Vinsert
p4168
I42
VSimpleName: get_X
p4169
tp4170
a(Vinsert
p4171
I42
VSimpleName: prj
p4172
tp4173
a(Vinsert
p4174
I42
VSimpleName: getLifecycleListeners
p4175
tp4176
a(Vinsert
p4177
I42
VSimpleName: getErasedType
p4178
tp4179
a(Vinsert
p4180
I42
VSimpleName: autoResume
p4181
tp4182
a(Vinsert
p4183
I42
VSimpleName: delete_btTriangleInfo
p4184
tp4185
a(Vinsert
p4186
I42
VSimpleName: btAxisSweep3InternalInt_SWIGUpcast
p4187
tp4188
a(Vinsert
p4189
I42
VSimpleName: unsafeSetFilter
p4190
tp4191
a(Vinsert
p4192
I42
VSimpleName: getPropertyName
p4193
tp4194
a(Vinsert
p4195
I42
VSimpleName: getScissorBounds
p4196
tp4197
a(Vinsert
p4198
I42
VSimpleName: writeValue
p4199
tp4200
a(Vinsert
p4201
I42
VSimpleName: delete_btConeShape
p4202
tp4203
a(Vinsert
p4204
I42
VSimpleName: getCurrentWrapMode
p4205
tp4206
a(Vinsert
p4207
I42
VSimpleName: installed
p4208
tp4209
a(Vinsert
p4210
I42
VSimpleName: unbind
p4211
tp4212
a(Vinsert
p4213
I42
VSimpleName: delete_btConvex2dConvex2dAlgorithm
p4214
tp4215
a(Vinsert
p4216
I42
VSimpleName: layout
p4217
tp4218
a(Vinsert
p4219
I42
VSimpleName: isObject
p4220
tp4221
a(Vinsert
p4222
I42
VSimpleName: updateAnimationBaseTime
p4223
tp4224
a(Vinsert
p4225
I42
VSimpleName: bFile_getLibPointers
p4226
tp4227
a(Vinsert
p4228
I42
VSimpleName: btSolverBody_operatorNewArray__SWIG_0
p4229
tp4230
a(Vinsert
p4231
I42
VSimpleName: clearListeners
p4232
tp4233
a(Vinsert
p4234
I42
VSimpleName: btTransformUtil_calculateVelocityQuaternion
p4235
tp4236
a(Vinsert
p4237
I42
VSimpleName: isPressed
p4238
tp4239
a(Vinsert
p4240
I42
VSimpleName: setPatch
p4241
tp4242
a(Vinsert
p4243
I42
VSimpleName: btCollisionWorldImporter_createCapsuleShapeY
p4244
tp4245
a(Vinsert
p4246
I42
VSimpleName: setCellProperty
p4247
tp4248
a(Vinsert
p4249
I42
VSimpleName: killProcess
p4250
tp4251
a(Vinsert
p4252
I42
VSimpleName: delete_btBoxShape
p4253
tp4254
a(Vinsert
p4255
I42
VSimpleName: btPoint2PointConstraintDoubleData2_typeConstraintData_set
p4256
tp4257
a(Vinsert
p4258
I42
VSimpleName: btCylinderShapeZ_operatorNewArray__SWIG_0
p4259
tp4260
a(Vinsert
p4261
I42
VSimpleName: autoreleasepool
p4262
tp4263
a(Vinsert
p4264
I42
VSimpleName: btStaticPlaneShape_SWIGUpcast
p4265
tp4266
a(Vinsert
p4267
I42
VSimpleName: btPoint2PointConstraint_SWIGUpcast
p4268
tp4269
a(Vinsert
p4270
I42
VSimpleName: getService
p4271
tp4272
a(Vinsert
p4273
I42
VSimpleName: SoftRigidAnchorData_m_localFrame_set
p4274
tp4275
a(Vinsert
p4276
I42
VSimpleName: btTriangleMesh_addTriangleIndices
p4277
tp4278
a(Vinsert
p4279
I42
VSimpleName: getWidget
p4280
tp4281
a(Vinsert
p4282
I42
VSimpleName: btDynamicsWorld_removeRigidBody
p4283
tp4284
a(Vinsert
p4285
I42
VSimpleName: btEmptyAlgorithm_SWIGUpcast
p4286
tp4287
a(Vinsert
p4288
I42
VSimpleName: btTriangleIndexVertexArray_SWIGUpcast
p4289
tp4290
a(Vinsert
p4291
I42
VSimpleName: isActive
p4292
tp4293
a(Vinsert
p4294
I42
VSimpleName: SoftBodyMaterialData_m_linearStiffness_set
p4295
tp4296
a(Vinsert
p4297
I42
VSimpleName: glActiveTexture
p4298
tp4299
a(Vinsert
p4300
I42
VSimpleName: requestFocusInWindow
p4301
tp4302
a(Vinsert
p4303
I42
VSimpleName: getAssetFileDescriptor
p4304
tp4305
a(Vinsert
p4306
I42
VSimpleName: btDbvt_collideTVNoStackAlloc
p4307
tp4308
a(Vinsert
p4309
I42
VSimpleName: btTypedConstraint_btConstraintInfo2_J1angularAxis_set
p4310
tp4311
a(Vinsert
p4312
I42
VSimpleName: setFlickScroll
p4313
tp4314
a(Vinsert
p4315
I42
VSimpleName: doClick
p4316
tp4317
a(Vinsert
p4318
I42
VSimpleName: btSequentialImpulseConstraintSolver_operatorNewArray__SWIG_0
p4319
tp4320
a(Vinsert
p4321
I42
VSimpleName: findType
p4322
tp4323
a(Vinsert
p4324
I42
VSimpleName: resetStates
p4325
tp4326
a(Vinsert
p4327
I42
VSimpleName: ContactListener_onContactAdded__SWIG_10
p4328
tp4329
a(Vinsert
p4330
I42
VSimpleName: setComposite
p4331
tp4332
a(Vinsert
p4333
I42
VSimpleName: btCollisionObjectWrapper_m_shape_get
p4334
tp4335
a(Vinsert
p4336
I42
VSimpleName: delete_bChunkPtr4
p4337
tp4338
a(Vinsert
p4339
I42
VSimpleName: gDeactivationTime_set
p4340
tp4341
a(Vinsert
p4342
I42
VSimpleName: btMultiBody_worldDirToLocal
p4343
tp4344
a(Vinsert
p4345
I42
VSimpleName: glIsVertexArray
p4346
tp4347
a(Vinsert
p4348
I42
VSimpleName: debugAll
p4349
tp4350
a(Vinsert
p4351
I42
VSimpleName: calculateBoneTransforms
p4352
tp4353
a(Vinsert
p4354
I42
VSimpleName: delete_GIM_HASH_NODE_CMP_MACRO
p4355
tp4356
a(Vinsert
p4357
I42
VSimpleName: delete_btMLCPSolverInterface
p4358
tp4359
a(Vinsert
p4360
I42
VSimpleName: btSoftRigidCollisionAlgorithm_SWIGUpcast
p4361
tp4362
a(Vinsert
p4363
I42
VSimpleName: btInternalTriangleIndexCallback_change_ownership
p4364
tp4365
a(Vinsert
p4366
I42
VSimpleName: setSelected
p4367
tp4368
a(Vinsert
p4369
I42
VSimpleName: longBitsToDouble
p4370
tp4371
a(Vinsert
p4372
I42
VSimpleName: btMaterial_m_friction_set
p4373
tp4374
a(Vinsert
p4375
I42
VSimpleName: isAltPressed
p4376
tp4377
a(Vinsert
p4378
I42
VSimpleName: awe_WebCore_setCustomResponsePage
p4379
tp4380
a(Vinsert
p4381
I42
VSimpleName: delete_BaseContactProcessedListener
p4382
tp4383
a(Vinsert
p4384
I42
VSimpleName: getData
p4385
tp4386
a(Vinsert
p4387
I42
VSimpleName: GrahamVector3_SWIGUpcast
p4388
tp4389
a(Vinsert
p4390
I42
VSimpleName: glUniform1fv
p4391
tp4392
a(Vinsert
p4393
I42
VSimpleName: getWind
p4394
tp4395
a(Vinsert
p4396
I42
VSimpleName: expandX
p4397
tp4398
a(Vinsert
p4399
I42
VSimpleName: set_ContentLength
p4400
tp4401
a(Vinsert
p4402
I42
VSimpleName: isOpen
p4403
tp4404
a(Vinsert
p4405
I42
VSimpleName: btSphereShape_SWIGUpcast
p4406
tp4407
a(Vinsert
p4408
I42
VSimpleName: getVertexAttribute
p4409
tp4410
a(Vinsert
p4411
I42
VSimpleName: getField
p4412
tp4413
a(Vinsert
p4414
I42
VSimpleName: ContactResultCallback_change_ownership
p4415
tp4416
a(Vinsert
p4417
I42
VSimpleName: disableBlending
p4418
tp4419
a(Vinsert
p4420
I42
VSimpleName: btCapsuleShape_SWIGUpcast
p4421
tp4422
a(Vinsert
p4423
I42
VSimpleName: getAssets
p4424
tp4425
a(Vinsert
p4426
I42
VSimpleName: RayResultCallback_change_ownership
p4427
tp4428
a(Vinsert
p4429
I42
VSimpleName: baz
p4430
tp4431
a(Vinsert
p4432
I42
VSimpleName: sibling
p4433
tp4434
a(Vinsert
p4435
I42
VSimpleName: makeCurrent
p4436
tp4437
a(Vinsert
p4438
I42
VSimpleName: cpy
p4439
tp4440
a(Vinsert
p4441
I42
VSimpleName: awe_RenderBuffer_copyArea
p4442
tp4443
a(Vinsert
p4444
I42
VSimpleName: glMultMatrixf
p4445
tp4446
a(Vinsert
p4447
I42
VSimpleName: available
p4448
tp4449
a(Vinsert
p4450
I42
VSimpleName: delete_btTetrahedronShapeEx
p4451
tp4452
a(Vinsert
p4453
I42
VSimpleName: deleteAllData
p4454
tp4455
a(Vinsert
p4456
I42
VSimpleName: btGeneric6DofConstraint_setLinearLowerLimit
p4457
tp4458
a(Vinsert
p4459
I42
VSimpleName: setCursorPosition
p4460
tp4461
a(Vinsert
p4462
I42
VSimpleName: btManifoldResult_SWIGUpcast
p4463
tp4464
a(Vinsert
p4465
I42
VSimpleName: hasVibrator
p4466
tp4467
a(Vinsert
p4468
I42
VSimpleName: btSoftBodyFloatData_tetrahedra_set
p4469
tp4470
a(Vinsert
p4471
I42
VSimpleName: peek
p4472
tp4473
a(Vinsert
p4474
I42
VSimpleName: btTriangleShape_SWIGUpcast
p4475
tp4476
a(Vinsert
p4477
I42
VSimpleName: getParent
p4478
tp4479
a(Vinsert
p4480
I42
VSimpleName: FromObject
p4481
tp4482
a(Vinsert
p4483
I42
VSimpleName: alloc
p4484
tp4485
a(Vinsert
p4486
I42
VSimpleName: new_bt32BitAxisSweep3__SWIG_0
p4487
tp4488
a(Vinsert
p4489
I42
VSimpleName: getContentString
p4490
tp4491
a(Vinsert
p4492
I42
VSimpleName: CHUNK_HEADER_LEN_get
p4493
tp4494
a(Vinsert
p4495
I42
VSimpleName: btConvexPointCloudShape_SWIGUpcast
p4496
tp4497
a(Vinsert
p4498
I42
VSimpleName: getSampleRate
p4499
tp4500
a(Vinsert
p4501
I42
VSimpleName: setToRotation
p4502
tp4503
a(Vinsert
p4504
I42
VSimpleName: getSelectedRow
p4505
tp4506
a(Vinsert
p4507
I42
VSimpleName: setUniform3fv
p4508
tp4509
a(Vinsert
p4510
I42
VSimpleName: getHeaderFields
p4511
tp4512
a(Vinsert
p4513
I42
VSimpleName: newDefaultTarget
p4514
tp4515
a(Vinsert
p4516
I42
VSimpleName: btMeshPartData_indices32_set
p4517
tp4518
a(Vinsert
p4519
I42
VSimpleName: btSolverConstraint_operatorNewArray__SWIG_0
p4520
tp4521
a(Vinsert
p4522
I42
VSimpleName: newUnsafeByteBuffer
p4523
tp4524
a(Vinsert
p4525
I42
VSimpleName: btConvexTriangleCallback_SWIGUpcast
p4526
tp4527
a(Vinsert
p4528
I42
VSimpleName: getViewportY
p4529
tp4530
a(Vinsert
p4531
I42
VSimpleName: getCenter
p4532
tp4533
a(Vinsert
p4534
I42
VSimpleName: delete_Result
p4535
tp4536
a(Vinsert
p4537
I42
VSimpleName: getX
p4538
tp4539
a(Vinsert
p4540
I42
VSimpleName: gRemoveSimplePairs_get
p4541
tp4542
a(Vinsert
p4543
I42
VSimpleName: setInitialVisible
p4544
tp4545
a(Vinsert
p4546
I42
VSimpleName: getFontRenderContext
p4547
tp4548
a(Vinsert
p4549
I42
VSimpleName: equalsIgnoreCase
p4550
tp4551
a(Vinsert
p4552
I42
VSimpleName: btVector3_safeNorm
p4553
tp4554
a(Vinsert
p4555
I42
VSimpleName: setPriority
p4556
tp4557
a(Vinsert
p4558
I42
VSimpleName: isSelected
p4559
tp4560
a(Vinsert
p4561
I42
VSimpleName: getFloat
p4562
tp4563
a(Vinsert
p4564
I42
VSimpleName: delete
p4565
tp4566
a(Vinsert
p4567
I42
VSimpleName: delete_btConvexTriangleMeshShape
p4568
tp4569
a(Vinsert
p4570
I42
VSimpleName: delete_btMinkowskiSumShape
p4571
tp4572
a(Vinsert
p4573
I42
VSimpleName: polygonArea
p4574
tp4575
a(Vinsert
p4576
I42
VSimpleName: ClosestPointInput_m_transformA_get
p4577
tp4578
a(Vinsert
p4579
I42
VSimpleName: handleException
p4580
tp4581
a(Vinsert
p4582
I42
VSimpleName: delete_btTransformFloatData
p4583
tp4584
a(Vinsert
p4585
I42
VSimpleName: btTypedConstraintDoubleData_objectType_set
p4586
tp4587
a(Vinsert
p4588
I42
VSimpleName: btDbvtBroadphase_rayTestStacks_get
p4589
tp4590
a(Vinsert
p4591
I42
VSimpleName: delete_btMultiBodyJointFeedback
p4592
tp4593
a(Vinsert
p4594
I42
VSimpleName: getUrl
p4595
tp4596
a(Vinsert
p4597
I42
VSimpleName: getPropertyOracle
p4598
tp4599
a(Vinsert
p4600
I42
VSimpleName: getDefaultToolkit
p4601
tp4602
a(Vinsert
p4603
I42
VSimpleName: ClosestRayResultCallback_SWIGUpcast
p4604
tp4605
a(Vinsert
p4606
I42
VSimpleName: mArray
p4607
tp4608
a(Vinsert
p4609
I42
VSimpleName: setRenderMode
p4610
tp4611
a(Vinsert
p4612
I42
VSimpleName: alSourcef
p4613
tp4614
a(Vinsert
p4615
I42
VSimpleName: setHeight
p4616
tp4617
a(Vinsert
p4618
I42
VSimpleName: clearCells
p4619
tp4620
a(Vinsert
p4621
I42
VSimpleName: synthesis_init
p4622
tp4623
a(Vinsert
p4624
I42
VSimpleName: glGetUniformLocation
p4625
tp4626
a(Vinsert
p4627
I42
VSimpleName: registerSensorListeners
p4628
tp4629
a(Vinsert
p4630
I42
VSimpleName: getCollideConnected
p4631
tp4632
a(Vinsert
p4633
I42
VSimpleName: setDimensions
p4634
tp4635
a(Vinsert
p4636
I42
VSimpleName: btConvexConcaveCollisionAlgorithm_SWIGUpcast
p4637
tp4638
a(Vinsert
p4639
I42
VSimpleName: btCapsuleShape_deSerializeFloat
p4640
tp4641
a(Vinsert
p4642
I42
VSimpleName: btConvexHullComputer_edges_set
p4643
tp4644
a(Vinsert
p4645
I42
VSimpleName: RayResultCallback_closestHitFraction_get
p4646
tp4647
a(Vinsert
p4648
I42
VSimpleName: toJson
p4649
tp4650
a(Vinsert
p4651
I42
VSimpleName: setScore
p4652
tp4653
a(Vinsert
p4654
I42
VSimpleName: getCache
p4655
tp4656
a(Vinsert
p4657
I42
VSimpleName: round
p4658
tp4659
a(Vinsert
p4660
I42
VSimpleName: computeGlyphAdvancesAndPositions
p4661
tp4662
a(Vinsert
p4663
I42
VSimpleName: getOffsetY
p4664
tp4665
a(Vinsert
p4666
I42
VSimpleName: setSimpleFormatter
p4667
tp4668
a(Vinsert
p4669
I42
VSimpleName: GIM_QUANTIZED_BVH_NODE_ARRAY_SWIGUpcast
p4670
tp4671
a(Vinsert
p4672
I42
VSimpleName: btSphereSphereCollisionAlgorithm_CreateFunc_SWIGUpcast
p4673
tp4674
a(Vinsert
p4675
I42
VSimpleName: delete_btNodeOverlapCallback
p4676
tp4677
a(Vinsert
p4678
I42
VSimpleName: btRigidBodyDoubleData_m_gravity_acceleration_get
p4679
tp4680
a(Vinsert
p4681
I42
VSimpleName: setScrollbarsOnTop
p4682
tp4683
a(Vinsert
p4684
I42
VSimpleName: ContactProcessedListenerByValue_change_ownership
p4685
tp4686
a(Vinsert
p4687
I42
VSimpleName: toInt
p4688
tp4689
a(Vinsert
p4690
I42
VSimpleName: delete_btConvex2dShape
p4691
tp4692
a(Vinsert
p4693
I42
VSimpleName: isSpace
p4694
tp4695
a(Vinsert
p4696
I42
VSimpleName: delete_uint_key_func
p4697
tp4698
a(Vinsert
p4699
I42
VSimpleName: btWorldImporter_createConvexTriangleMeshShape
p4700
tp4701
a(Vinsert
p4702
I42
VSimpleName: removeRange
p4703
tp4704
a(Vinsert
p4705
I42
VSimpleName: delete_btCharacterControllerInterface
p4706
tp4707
a(Vinsert
p4708
I42
VSimpleName: btCharacterControllerInterface_jump__SWIG_1
p4709
tp4710
a(Vinsert
p4711
I42
VSimpleName: getLayers
p4712
tp4713
a(Vinsert
p4714
I42
VSimpleName: delete_btPlane
p4715
tp4716
a(Vinsert
p4717
I42
VSimpleName: SoftBodyConfigData_rigidContactHardness_get
p4718
tp4719
a(Vinsert
p4720
I42
VSimpleName: getInterpolatedKeyframe
p4721
tp4722
a(Vinsert
p4723
I42
VSimpleName: getCollisionFlags
p4724
tp4725
a(Vinsert
p4726
I42
VSimpleName: btGeneric6DofConstraintData_rbBFrame_get
p4727
tp4728
a(Vinsert
p4729
I42
VSimpleName: downloadAsync
p4730
tp4731
a(Vinsert
p4732
I42
VSimpleName: glfwCreateStandardCursor
p4733
tp4734
a(Vinsert
p4735
I42
VSimpleName: applyLinearImpulse
p4736
tp4737
a(Vinsert
p4738
I42
VSimpleName: btTriangleMeshShape_operatorDeleteArray__SWIG_0
p4739
tp4740
a(Vinsert
p4741
I42
VSimpleName: LocalRayResult_m_collisionObject_get
p4742
tp4743
a(Vinsert
p4744
I42
VSimpleName: getNet
p4745
tp4746
a(Vinsert
p4747
I42
VSimpleName: createFloatFrameBuffer
p4748
tp4749
a(Vinsert
p4750
I42
VSimpleName: btOverlapFilterCallback_change_ownership
p4751
tp4752
a(Vinsert
p4753
I42
VSimpleName: DrawElements
p4754
tp4755
a(Vinsert
p4756
I42
VSimpleName: indexOf
p4757
tp4758
a(Vinsert
p4759
I42
VSimpleName: getBallNumber
p4760
tp4761
a(Vinsert
p4762
I42
VSimpleName: justTouched
p4763
tp4764
a(Vinsert
p4765
I42
VSimpleName: btHingeConstraint_operatorNewArray__SWIG_1
p4766
tp4767
a(Vinsert
p4768
I42
VSimpleName: setGlyphRegion
p4769
tp4770
a(Vinsert
p4771
I42
VSimpleName: getWindowManager
p4772
tp4773
a(Vinsert
p4774
I42
VSimpleName: btSolverConstraint_m_overrideNumSolverIterations_get
p4775
tp4776
a(Vinsert
p4777
I42
VSimpleName: getScreenToWorld
p4778
tp4779
a(Vinsert
p4780
I42
VSimpleName: btSolverConstraint_m_solverBodyIdA_get
p4781
tp4782
a(Vinsert
p4783
I42
VSimpleName: hasAttribute
p4784
tp4785
a(Vinsert
p4786
I42
VSimpleName: btGeneric6DofSpring2ConstraintDoubleData2_linearEnableMotor_get
p4787
tp4788
a(Vinsert
p4789
I42
VSimpleName: random
p4790
tp4791
a(Vinsert
p4792
I42
VSimpleName: glTexParameteriv
p4793
tp4794
a(Vinsert
p4795
I42
VSimpleName: _btMprSupport_t_v_set
p4796
tp4797
a(Vinsert
p4798
I42
VSimpleName: btSphereBoxCollisionAlgorithm_CreateFunc_SWIGUpcast
p4799
tp4800
a(Vinsert
p4801
I42
VSimpleName: int4_operatorSubscript
p4802
tp4803
a(Vinsert
p4804
I42
VSimpleName: getAPKExpansionZipFile
p4805
tp4806
a(Vinsert
p4807
I42
VSimpleName: rotateZ
p4808
tp4809
a(Vinsert
p4810
I42
VSimpleName: getJavaHeap
p4811
tp4812
a(Vinsert
p4813
I42
VSimpleName: getColors
p4814
tp4815
a(Vinsert
p4816
I42
VSimpleName: createMap
p4817
tp4818
a(Vinsert
p4819
I42
VSimpleName: newChunk
p4820
tp4821
a(Vinsert
p4822
I42
VSimpleName: btConeTwistConstraintData_m_swingSpan1_set
p4823
tp4824
a(Vinsert
p4825
I42
VSimpleName: getFont2File
p4826
tp4827
a(Vinsert
p4828
I42
VSimpleName: btTranslationalLimitMotor2_springDampingLimited_set
p4829
tp4830
a(Vinsert
p4831
I42
VSimpleName: drawSphere
p4832
tp4833
a(Vinsert
p4834
I42
VSimpleName: width
p4835
tp4836
a(Vinsert
p4837
I42
VSimpleName: hasMoreTokens
p4838
tp4839
a(Vinsert
p4840
I42
VSimpleName: btHashMapInternalShortBtHashIntBtTriangleInfo_getAtIndex
p4841
tp4842
a(Vinsert
p4843
I42
VSimpleName: isAccessible
p4844
tp4845
a(Vinsert
p4846
I42
VSimpleName: getLoadState
p4847
tp4848
a(Vinsert
p4849
I42
VSimpleName: dst
p4850
tp4851
a(Vinsert
p4852
I42
VSimpleName: getViewportWidth
p4853
tp4854
a(Vinsert
p4855
I42
VSimpleName: getGwtInherits
p4856
tp4857
a(Vinsert
p4858
I42
VSimpleName: glReadPixels
p4859
tp4860
a(Vinsert
p4861
I42
VSimpleName: copyOf
p4862
tp4863
a(Vinsert
p4864
I42
VSimpleName: putOnce
p4865
tp4866
a(Vinsert
p4867
I42
VSimpleName: setInput
p4868
tp4869
a(Vinsert
p4870
I42
VSimpleName: encodeImage
p4871
tp4872
a(Vinsert
p4873
I42
VSimpleName: getRefCount
p4874
tp4875
a(Vinsert
p4876
I42
VSimpleName: setFadeScrollBars
p4877
tp4878
a(Vinsert
p4879
I42
VSimpleName: addRigidBody
p4880
tp4881
a(Vinsert
p4882
I42
VSimpleName: clamp
p4883
tp4884
a(Vinsert
p4885
I42
VSimpleName: reverse
p4886
tp4887
a(Vinsert
p4888
I42
VSimpleName: new_btPoint2PointConstraint__SWIG_0
p4889
tp4890
a(Vinsert
p4891
I42
VSimpleName: btWorldImporter_getNameForPointer
p4892
tp4893
a(Vinsert
p4894
I42
VSimpleName: clearManagedCaches
p4895
tp4896
a(Vinsert
p4897
I42
VSimpleName: btStaticPlaneShape_operatorNewArray__SWIG_0
p4898
tp4899
a(Vinsert
p4900
I42
VSimpleName: isPaused
p4901
tp4902
a(Vinsert
p4903
I42
VSimpleName: delete_PointerArray
p4904
tp4905
a(Vinsert
p4906
I42
VSimpleName: readSamples
p4907
tp4908
a(Vinsert
p4909
I42
VSimpleName: getClassName
p4910
tp4911
a(Vinsert
p4912
I42
VSimpleName: bt_plane_clip_triangle
p4913
tp4914
a(Vinsert
p4915
I42
VSimpleName: Node_v_set
p4916
tp4917
a(Vinsert
p4918
I42
VSimpleName: delete_btCompoundShapeData
p4919
tp4920
a(Vinsert
p4921
I42
VSimpleName: setEGLConfigChooser
p4922
tp4923
a(Vinsert
p4924
I42
VSimpleName: getBuffer
p4925
tp4926
a(Vinsert
p4927
I42
VSimpleName: DecodeBit
p4928
tp4929
a(Vinsert
p4930
I42
VSimpleName: isPowerOfTwo
p4931
tp4932
a(Vinsert
p4933
I42
VSimpleName: btContactSolverInfoDoubleData_erp2_set
p4934
tp4935
a(Vinsert
p4936
I42
VSimpleName: btPersistentManifold_SWIGUpcast
p4937
tp4938
a(Vinsert
p4939
I42
VSimpleName: btPolyhedralConvexShape_operatorNewArray__SWIG_0
p4940
tp4941
a(Vinsert
p4942
I42
VSimpleName: showConfirmDialog
p4943
tp4944
a(Vinsert
p4945
I42
VSimpleName: forward
p4946
tp4947
a(Vinsert
p4948
I42
VSimpleName: setType
p4949
tp4950
a(Vinsert
p4951
I42
VSimpleName: glBindRenderbuffer
p4952
tp4953
a(Vinsert
p4954
I42
VSimpleName: btBroadphasePair_operatorNewArray__SWIG_0
p4955
tp4956
a(Vinsert
p4957
I42
VSimpleName: ClosestConvexResultCallback_getHitNormalWorld
p4958
tp4959
a(Vinsert
p4960
I42
VSimpleName: setMaxLength
p4961
tp4962
a(Vinsert
p4963
I42
VSimpleName: setPropertyString
p4964
tp4965
a(Vinsert
p4966
I42
VSimpleName: glGetTexEnviv
p4967
tp4968
a(Vinsert
p4969
I42
VSimpleName: getMenu
p4970
tp4971
a(Vinsert
p4972
I42
VSimpleName: btSoftRigidDynamicsWorld_addSoftBody__SWIG_0
p4973
tp4974
a(Vinsert
p4975
I42
VSimpleName: getTargetActor
p4976
tp4977
a(Vinsert
p4978
I42
VSimpleName: getResourceAsStream
p4979
tp4980
a(Vinsert
p4981
I42
VSimpleName: getManifold
p4982
tp4983
a(Vinsert
p4984
I42
VSimpleName: delete_btBroadphaseRayCallback
p4985
tp4986
a(Vinsert
p4987
I42
VSimpleName: color
p4988
tp4989
a(Vinsert
p4990
I42
VSimpleName: btSoftSoftCollisionAlgorithm_CreateFunc_SWIGUpcast
p4991
tp4992
a(Vinsert
p4993
I42
VSimpleName: getEntities
p4994
tp4995
a(Vinsert
p4996
I42
VSimpleName: calculateLights
p4997
tp4998
a(Vinsert
p4999
I42
VSimpleName: generateMipmap
p5000
tp5001
a(Vinsert
p5002
I42
VSimpleName: setToProjection
p5003
tp5004
a(Vinsert
p5005
I42
VSimpleName: finishedLoading
p5006
tp5007
a(Vinsert
p5008
I42
VSimpleName: btBulletSerializedArrays_rigidBodyDataDouble_set
p5009
tp5010
a(Vinsert
p5011
I42
VSimpleName: ConvexResultCallback_change_ownership
p5012
tp5013
a(Vinsert
p5014
I42
VSimpleName: sizeChanged
p5015
tp5016
a(Vinsert
p5017
I42
VSimpleName: writeString
p5018
tp5019
a(Vinsert
p5020
I42
VSimpleName: modeChanged
p5021
tp5022
a(Vinsert
p5023
I42
VSimpleName: btCollisionObjectArray_resize__SWIG_0
p5024
tp5025
a(Vinsert
p5026
I42
VSimpleName: delete_btDynamicsWorldDoubleData
p5027
tp5028
a(Vinsert
p5029
I42
VSimpleName: glGetShader
p5030
tp5031
a(Vinsert
p5032
I42
VSimpleName: drawSpherePatch
p5033
tp5034
a(Vinsert
p5035
I42
VSimpleName: setWrap
p5036
tp5037
a(Vinsert
p5038
I42
VSimpleName: btOptimizedBvhNode_operatorNewArray__SWIG_0
p5039
tp5040
a(Vinsert
p5041
I42
VSimpleName: btSoftBodyConcaveCollisionAlgorithm_SwappedCreateFunc_SWIGUpcast
p5042
tp5043
a(Vinsert
p5044
I42
VSimpleName: tint
p5045
tp5046
a(Vinsert
p5047
I42
VSimpleName: setUVRange
p5048
tp5049
a(Vinsert
p5050
I42
VSimpleName: new_btConvexPointCloudShape__SWIG_2
p5051
tp5052
a(Vinsert
p5053
I42
VSimpleName: getTouchable
p5054
tp5055
a(Vinsert
p5056
I42
VSimpleName: newComboBox
p5057
tp5058
a(Vinsert
p5059
I42
VSimpleName: glfwGetPrimaryMonitor
p5060
tp5061
a(Vinsert
p5062
I42
VSimpleName: top
p5063
tp5064
a(Vinsert
p5065
I42
VSimpleName: btHingeConstraintFloatData_m_useReferenceFrameA_get
p5066
tp5067
a(Vinsert
p5068
I42
VSimpleName: unlock
p5069
tp5070
a(Vinsert
p5071
I42
VSimpleName: isAbstract
p5072
tp5073
a(Vinsert
p5074
I42
VSimpleName: setDebug
p5075
tp5076
a(Vinsert
p5077
I42
VSimpleName: btVertexBufferDescriptor_hasVertexPositions
p5078
tp5079
a(Vinsert
p5080
I42
VSimpleName: select
p5081
tp5082
a(Vinsert
p5083
I42
VSimpleName: remaining
p5084
tp5085
a(Vinsert
p5086
I42
VSimpleName: btQuantizedBvhNode_m_quantizedAabbMin_get
p5087
tp5088
a(Vinsert
p5089
I42
VSimpleName: limit
p5090
tp5091
a(Vinsert
p5092
I42
VSimpleName: addLifecycleListener
p5093
tp5094
a(Vinsert
p5095
I42
VSimpleName: getKeyboardFocus
p5096
tp5097
a(Vinsert
p5098
I42
VSimpleName: setInterpolator
p5099
tp5100
a(Vinsert
p5101
I42
VSimpleName: writeByte
p5102
tp5103
a(Vinsert
p5104
I42
VSimpleName: btHingeConstraint_getLimitRelaxationFactor
p5105
tp5106
a(Vinsert
p5107
I42
VSimpleName: new_btHeightfieldTerrainShape__SWIG_0
p5108
tp5109
a(Vinsert
p5110
I42
VSimpleName: btRigidBody_applyForce
p5111
tp5112
a(Vinsert
p5113
I42
VSimpleName: load
p5114
tp5115
a(Vinsert
p5116
I42
VSimpleName: getEmitter
p5117
tp5118
a(Vinsert
p5119
I42
VSimpleName: group
p5120
tp5121
a(Vinsert
p5122
I42
VSimpleName: setTheme
p5123
tp5124
a(Vinsert
p5125
I42
VSimpleName: btCollisionObject_checkCollideWithOverride
p5126
tp5127
a(Vinsert
p5128
I42
VSimpleName: destroyParticlesInShape
p5129
tp5130
a(Vinsert
p5131
I42
VSimpleName: clear
p5132
tp5133
a(Vinsert
p5134
I42
VSimpleName: validate
p5135
tp5136
a(Vinsert
p5137
I42
VSimpleName: setScrollFocus
p5138
tp5139
a(Vinsert
p5140
I42
VSimpleName: delete_sMedium
p5141
tp5142
a(Vinsert
p5143
I42
VSimpleName: btTriangleCallback_change_ownership
p5144
tp5145
a(Vinsert
p5146
I42
VSimpleName: btTriangleInfoMap_SWIGUpcast
p5147
tp5148
a(Vinsert
p5149
I42
VSimpleName: getImagePaths
p5150
tp5151
a(Vinsert
p5152
I42
VSimpleName: uniform1fv
p5153
tp5154
a(Vinsert
p5155
I42
VSimpleName: setRightWidth
p5156
tp5157
a(Vinsert
p5158
I42
VSimpleName: getMagFilter
p5159
tp5160
a(Vinsert
p5161
I42
VSimpleName: createBundle
p5162
tp5163
a(Vinsert
p5164
I42
VSimpleName: myLooper
p5165
tp5166
a(Vinsert
p5167
I42
VSimpleName: setCollisionShape
p5168
tp5169
a(Vinsert
p5170
I42
VSimpleName: setSmoothScrolling
p5171
tp5172
a(Vinsert
p5173
I42
VSimpleName: addLocal
p5174
tp5175
a(Vinsert
p5176
I42
VSimpleName: setSoundPan
p5177
tp5178
a(Vinsert
p5179
I42
VSimpleName: drawImage
p5180
tp5181
a(Vinsert
p5182
I42
VSimpleName: seek
p5183
tp5184
a(Vinsert
p5185
I42
VSimpleName: configureLibraries
p5186
tp5187
a(Vinsert
p5188
I42
VSimpleName: btSolverBody_m_linearVelocity_set
p5189
tp5190
a(Vinsert
p5191
I42
VSimpleName: newByteBuffer
p5192
tp5193
a(Vinsert
p5194
I42
VSimpleName: getDecorView
p5195
tp5196
a(Vinsert
p5197
I42
VSimpleName: getMotionRanges
p5198
tp5199
a(Vinsert
p5200
I42
VSimpleName: exitValue
p5201
tp5202
a(Vinsert
p5203
I42
VSimpleName: glfwInitHint
p5204
tp5205
a(Vinsert
p5206
I42
VSimpleName: btCollisionWorld_objectQuerySingleInternal
p5207
tp5208
a(Vinsert
p5209
I42
VSimpleName: glUniform2iv
p5210
tp5211
a(Vinsert
p5212
I42
VSimpleName: pick
p5213
tp5214
a(Vinsert
p5215
I42
VSimpleName: setUseJni
p5216
tp5217
a(Vinsert
p5218
I42
VSimpleName: annotationType
p5219
tp5220
a(Vinsert
p5221
I42
VSimpleName: loadFromFile
p5222
tp5223
a(Vinsert
p5224
I42
VSimpleName: calculateBoundingBox
p5225
tp5226
a(Vinsert
p5227
I42
VSimpleName: injectMouseMove
p5228
tp5229
a(Vinsert
p5230
I42
VSimpleName: btDiscreteDynamicsWorld_SWIGUpcast
p5231
tp5232
a(Vinsert
p5233
I42
VSimpleName: delete_btDynamicsWorldFloatData
p5234
tp5235
a(Vinsert
p5236
I42
VSimpleName: delete_GIM_HASH_NODE_GET_KEY
p5237
tp5238
a(Vinsert
p5239
I42
VSimpleName: alpha
p5240
tp5241
a(Vinsert
p5242
I42
VSimpleName: btPointCollector_m_pointInWorld_set
p5243
tp5244
a(Vinsert
p5245
I42
VSimpleName: getActors
p5246
tp5247
a(Vinsert
p5248
I42
VSimpleName: match
p5249
tp5250
a(Vinsert
p5251
I42
VSimpleName: isKeyJustPressed
p5252
tp5253
a(Vinsert
p5254
I42
VSimpleName: isInterface
p5255
tp5256
a(Vinsert
p5257
I42
VSimpleName: setRunAsFastAsPossible
p5258
tp5259
a(Vinsert
p5260
I42
VSimpleName: clearAllTextureArrays
p5261
tp5262
a(Vinsert
p5263
I42
VSimpleName: getBodies
p5264
tp5265
a(Vinsert
p5266
I42
VSimpleName: btConvexInternalShape_operatorNewArray__SWIG_0
p5267
tp5268
a(Vinsert
p5269
I42
VSimpleName: delete_sCti
p5270
tp5271
a(Vinsert
p5272
I42
VSimpleName: btStringArray_resizeNoInitialize
p5273
tp5274
a(Vinsert
p5275
I42
VSimpleName: calculateRenderOffsets
p5276
tp5277
a(Vinsert
p5278
I42
VSimpleName: setName
p5279
tp5280
a(Vinsert
p5281
I42
VSimpleName: btVector3Array_operatorSubscript
p5282
tp5283
a(Vinsert
p5284
I42
VSimpleName: getConstructors
p5285
tp5286
a(Vinsert
p5287
I42
VSimpleName: setAnimation
p5288
tp5289
a(Vinsert
p5290
I42
VSimpleName: floatToIntColor
p5291
tp5292
a(Vinsert
p5293
I42
VSimpleName: getStage
p5294
tp5295
a(Vinsert
p5296
I42
VSimpleName: getTextInput
p5297
tp5298
a(Vinsert
p5299
I42
VSimpleName: getScratchImage
p5300
tp5301
a(Vinsert
p5302
I42
VSimpleName: AllHitsRayResultCallback_m_rayToWorld_set
p5303
tp5304
a(Vinsert
p5305
I42
VSimpleName: NotEqual
p5306
tp5307
a(Vinsert
p5308
I42
VSimpleName: FromArray
p5309
tp5310
a(Vinsert
p5311
I42
VSimpleName: btBulletWorldImporter_SWIGUpcast
p5312
tp5313
a(Vinsert
p5314
I42
VSimpleName: texImage2D
p5315
tp5316
a(Vinsert
p5317
I42
VSimpleName: absolute
p5318
tp5319
a(Vinsert
p5320
I42
VSimpleName: resolve
p5321
tp5322
a(Vinsert
p5323
I42
VSimpleName: InternalTickCallback_change_ownership
p5324
tp5325
a(Vinsert
p5326
I42
VSimpleName: glfwSetWindowAttrib
p5327
tp5328
a(Vinsert
p5329
I42
VSimpleName: vibrate
p5330
tp5331
a(Vinsert
p5332
I42
VSimpleName: addRow
p5333
tp5334
a(Vinsert
p5335
I42
VSimpleName: btTriangle_vertex0_get
p5336
tp5337
a(Vinsert
p5338
I42
VSimpleName: btConvexTriangleCallback_operatorNewArray__SWIG_0
p5339
tp5340
a(Vinsert
p5341
I42
VSimpleName: getFilesDir
p5342
tp5343
a(Vinsert
p5344
I42
VSimpleName: btMinkowskiPenetrationDepthSolver_SWIGUpcast
p5345
tp5346
a(Vinsert
p5347
I42
VSimpleName: executeAnt
p5348
tp5349
a(Vinsert
p5350
I42
VSimpleName: createGraphics
p5351
tp5352
a(Vinsert
p5353
I42
VSimpleName: insert
p5354
tp5355
a(Vinsert
p5356
I42
VSimpleName: btConvexInternalShapeData_m_localScaling_set
p5357
tp5358
a(Vinsert
p5359
I42
VSimpleName: stopStreamsWithBuffer
p5360
tp5361
a(Vinsert
p5362
I42
VSimpleName: setLowMax
p5363
tp5364
a(Vinsert
p5365
I42
VSimpleName: array
p5366
tp5367
a(Vinsert
p5368
I42
VSimpleName: getRotation
p5369
tp5370
a(Vinsert
p5371
I42
VSimpleName: get_Item
p5372
tp5373
a(Vinsert
p5374
I42
VSimpleName: processRunnables
p5375
tp5376
a(Vinsert
p5377
I42
VSimpleName: getDesktopDisplayMode
p5378
tp5379
a(Vinsert
p5380
I42
VSimpleName: setToTranslation
p5381
tp5382
a(Vinsert
p5383
I42
VSimpleName: atEnd
p5384
tp5385
a(Vinsert
p5386
I42
VSimpleName: isArray
p5387
tp5388
a(Vinsert
p5389
I42
VSimpleName: obtainSource
p5390
tp5391
a(Vinsert
p5392
I42
VSimpleName: toString
p5393
tp5394
a(Vinsert
p5395
I42
VSimpleName: inv
p5396
tp5397
a(Vinsert
p5398
I42
VSimpleName: delete_btMotionState
p5399
tp5400
a(Vinsert
p5401
I42
VSimpleName: showInputDialog
p5402
tp5403
a(Vinsert
p5404
I42
VSimpleName: crs
p5405
tp5406
a(Vinsert
p5407
I42
VSimpleName: canExecute
p5408
tp5409
a(Vinsert
p5410
I42
VSimpleName: delete_btNullPairCache
p5411
tp5412
a(Vinsert
p5413
I42
VSimpleName: btCollisionAlgorithm_processCollision
p5414
tp5415
a(Vinsert
p5416
I42
VSimpleName: close
p5417
tp5418
a(Vinsert
p5419
I42
VSimpleName: btBox2dShape_operatorNewArray__SWIG_0
p5420
tp5421
a(Vinsert
p5422
I42
VSimpleName: isInstance
p5423
tp5424
a(Vinsert
p5425
I42
VSimpleName: btConeTwistConstraintData_rbBFrame_set
p5426
tp5427
a(Vinsert
p5428
I42
VSimpleName: getAssetFileName
p5429
tp5430
a(Vinsert
p5431
I42
VSimpleName: getProgress
p5432
tp5433
a(Vinsert
p5434
I42
VSimpleName: btVector3_operatorAdditionAssignment
p5435
tp5436
a(Vinsert
p5437
I42
VSimpleName: getCallbacks
p5438
tp5439
a(Vinsert
p5440
I42
VSimpleName: contains
p5441
tp5442
a(Vinsert
p5443
I42
VSimpleName: btStridingMeshInterfaceData_meshPartsPtr_set
p5444
tp5445
a(Vinsert
p5446
I42
VSimpleName: ClosestRayResultCallback_rayFromWorld_set
p5447
tp5448
a(Vinsert
p5449
I42
VSimpleName: postRunnable
p5450
tp5451
a(Vinsert
p5452
I42
VSimpleName: newIntBuffer
p5453
tp5454
a(Vinsert
p5455
I42
VSimpleName: delete_btMatrix3x3FloatData
p5456
tp5457
a(Vinsert
p5458
I42
VSimpleName: rgba8888
p5459
tp5460
a(Vinsert
p5461
I42
VSimpleName: setTrafficClass
p5462
tp5463
a(Vinsert
p5464
I42
VSimpleName: btSolverConstraint_m_angularComponentB_set
p5465
tp5466
a(Vinsert
p5467
I42
VSimpleName: first
p5468
tp5469
a(Vinsert
p5470
I42
VSimpleName: destroy
p5471
tp5472
a(Vinsert
p5473
I42
VSimpleName: btGeneric6DofSpring2Constraint_operatorDeleteArray__SWIG_0
p5474
tp5475
a(Vinsert
p5476
I42
VSimpleName: addChannel
p5477
tp5478
a(Vinsert
p5479
I42
VSimpleName: getStoreParam
p5480
tp5481
a(Vinsert
p5482
I42
VSimpleName: forCanonicalName
p5483
tp5484
a(Vinsert
p5485
I42
VSimpleName: copyTo
p5486
tp5487
a(Vinsert
p5488
I42
VSimpleName: createFixture
p5489
tp5490
a(Vinsert
p5491
I42
VSimpleName: btRaycastVehicle_SWIGUpcast
p5492
tp5493
a(Vinsert
p5494
I42
VSimpleName: delete_MyCallback
p5495
tp5496
a(Vinsert
p5497
I42
VSimpleName: addActionListener
p5498
tp5499
a(Vinsert
p5500
I42
VSimpleName: delete_btOverlapCallback
p5501
tp5502
a(Vinsert
p5503
I42
VSimpleName: extendBoundingBox
p5504
tp5505
a(Vinsert
p5506
I42
VSimpleName: btRotationalLimitMotor2_springDampingLimited_set
p5507
tp5508
a(Vinsert
p5509
I42
VSimpleName: delete_GIM_PAIR
p5510
tp5511
a(Vinsert
p5512
I42
VSimpleName: onWorldReset
p5513
tp5514
a(Vinsert
p5515
I42
VSimpleName: handleMessage
p5516
tp5517
a(Vinsert
p5518
I42
VSimpleName: ceilPositive
p5519
tp5520
a(Vinsert
p5521
I42
VSimpleName: setSerializer
p5522
tp5523
a(Vinsert
p5524
I42
VSimpleName: sphereInFrustum
p5525
tp5526
a(Vinsert
p5527
I42
VSimpleName: bDNA_getArraySizeNew
p5528
tp5529
a(Vinsert
p5530
I42
VSimpleName: asFloatBuffer
p5531
tp5532
a(Vinsert
p5533
I42
VSimpleName: setBlendFunction
p5534
tp5535
a(Vinsert
p5536
I42
VSimpleName: tick
p5537
tp5538
a(Vinsert
p5539
I42
VSimpleName: entries
p5540
tp5541
a(Vinsert
p5542
I42
VSimpleName: update
p5543
tp5544
a(Vinsert
p5545
I42
VSimpleName: btConvexTriangleCallback_triangleCount_get
p5546
tp5547
a(Vinsert
p5548
I42
VSimpleName: btDefaultCollisionConstructionInfo_persistentManifoldPool_set
p5549
tp5550
a(Vinsert
p5551
I42
VSimpleName: btVehicleTuning_m_suspensionCompression_set
p5552
tp5553
a(Vinsert
p5554
I42
VSimpleName: newByteReference
p5555
tp5556
a(Vinsert
p5557
I42
VSimpleName: setLogLevel
p5558
tp5559
a(Vinsert
p5560
I42
VSimpleName: btRigidBody_btRigidBodyConstructionInfo_i_collisionShape_set
p5561
tp5562
a(Vinsert
p5563
I42
VSimpleName: findKey
p5564
tp5565
a(Vinsert
p5566
I42
VSimpleName: getListener
p5567
tp5568
a(Vinsert
p5569
I42
VSimpleName: setFrequency
p5570
tp5571
a(Vinsert
p5572
I42
VSimpleName: btCollisionObjectConstArray_removeAtIndex
p5573
tp5574
a(Vinsert
p5575
I42
VSimpleName: jniGetType
p5576
tp5577
a(Vinsert
p5578
I42
VSimpleName: nextDouble
p5579
tp5580
a(Vinsert
p5581
I42
VSimpleName: btHingeConstraintDoubleData_m_useReferenceFrameA_get
p5582
tp5583
a(Vinsert
p5584
I42
VSimpleName: StateUpdateRep
p5585
tp5586
a(Vinsert
p5587
I42
VSimpleName: btSliderConstraint_setRestitutionDirLin
p5588
tp5589
a(Vinsert
p5590
I42
VSimpleName: allocateDirect
p5591
tp5592
a(Vinsert
p5593
I42
VSimpleName: isPrepared
p5594
tp5595
a(Vinsert
p5596
I42
VSimpleName: lookUpPointerIndex
p5597
tp5598
a(Vinsert
p5599
I42
VSimpleName: setProperty
p5600
tp5601
a(Vinsert
p5602
I42
VSimpleName: shouldRender
p5603
tp5604
a(Vinsert
p5605
I42
VSimpleName: freeStream
p5606
tp5607
a(Vinsert
p5608
I42
VSimpleName: delete_HullLibrary
p5609
tp5610
a(Vinsert
p5611
I42
VSimpleName: millis
p5612
tp5613
a(Vinsert
p5614
I42
VSimpleName: getPhase
p5615
tp5616
a(Vinsert
p5617
I42
VSimpleName: getTextureRegionWidth
p5618
tp5619
a(Vinsert
p5620
I42
VSimpleName: setMatrices
p5621
tp5622
a(Vinsert
p5623
I42
VSimpleName: new_btMultimaterialTriangleMeshShape__SWIG_0
p5624
tp5625
a(Vinsert
p5626
I42
VSimpleName: setLoop
p5627
tp5628
a(Vinsert
p5629
I42
VSimpleName: sharedInstance
p5630
tp5631
a(Vinsert
p5632
I42
VSimpleName: set_Volume
p5633
tp5634
a(Vinsert
p5635
I42
VSimpleName: delete_btSortedOverlappingPairCache
p5636
tp5637
a(Vinsert
p5638
I42
VSimpleName: getZ
p5639
tp5640
a(Vinsert
p5641
I42
VSimpleName: setPasswordMode
p5642
tp5643
a(Vinsert
p5644
I42
VSimpleName: btSolverBodyObsolete_m_invMass_get
p5645
tp5646
a(Vinsert
p5647
I42
VSimpleName: getAudioElement
p5648
tp5649
a(Vinsert
p5650
I42
VSimpleName: setCursorPos
p5651
tp5652
a(Vinsert
p5653
I42
VSimpleName: onPlayerHit
p5654
tp5655
a(Vinsert
p5656
I42
VSimpleName: getExecutedRunnables
p5657
tp5658
a(Vinsert
p5659
I42
VSimpleName: addGap
p5660
tp5661
a(Vinsert
p5662
I42
VSimpleName: delete_btCylinderShapeData
p5663
tp5664
a(Vinsert
p5665
I42
VSimpleName: btActivatingCollisionAlgorithm_SWIGUpcast
p5666
tp5667
a(Vinsert
p5668
I42
VSimpleName: btPoolAllocator_getUsedCount
p5669
tp5670
a(Vinsert
p5671
I42
VSimpleName: btDantzigScratchMemory_delta_x_set
p5672
tp5673
a(Vinsert
p5674
I42
VSimpleName: multiply
p5675
tp5676
a(Vinsert
p5677
I42
VSimpleName: btPersistentManifold_operatorNewArray__SWIG_0
p5678
tp5679
a(Vinsert
p5680
I42
VSimpleName: getHostPageBaseURL
p5681
tp5682
a(Vinsert
p5683
I42
VSimpleName: getGraphics
p5684
tp5685
a(Vinsert
p5686
I42
VSimpleName: isDefined
p5687
tp5688
a(Vinsert
p5689
I42
VSimpleName: drawText
p5690
tp5691
a(Vinsert
p5692
I42
VSimpleName: NSLog
p5693
tp5694
a(Vinsert
p5695
I42
VSimpleName: povMoved
p5696
tp5697
a(Vinsert
p5698
I42
VSimpleName: ldRegVal
p5699
tp5700
a(Vinsert
p5701
I42
VSimpleName: readShort
p5702
tp5703
a(Vinsert
p5704
I42
VSimpleName: setLoader
p5705
tp5706
a(Vinsert
p5707
I42
VSimpleName: BT_QUANTIZED_BVH_NODE_quantizedAabbMin_get
p5708
tp5709
a(Vinsert
p5710
I42
VSimpleName: getClipRect
p5711
tp5712
a(Vinsert
p5713
I42
VSimpleName: btTriangleInfoMapData_keyArrayPtr_set
p5714
tp5715
a(Vinsert
p5716
I42
VSimpleName: getGL10
p5717
tp5718
a(Vinsert
p5719
I42
VSimpleName: putString
p5720
tp5721
a(Vinsert
p5722
I42
VSimpleName: getDescent
p5723
tp5724
a(Vinsert
p5725
I42
VSimpleName: setOverscroll
p5726
tp5727
a(Vinsert
p5728
I42
VSimpleName: isChecked
p5729
tp5730
a(Vinsert
p5731
I42
VSimpleName: Write
p5732
tp5733
a(Vinsert
p5734
I42
VSimpleName: newMesh
p5735
tp5736
a(Vinsert
p5737
I42
VSimpleName: setCheckBoxRight
p5738
tp5739
a(Vinsert
p5740
I42
VSimpleName: btBvhSubtreeInfoData_m_rootNodeIndex_set
p5741
tp5742
a(Vinsert
p5743
I42
VSimpleName: getNearestDistance
p5744
tp5745
a(Vinsert
p5746
I42
VSimpleName: getWindow
p5747
tp5748
a(Vinsert
p5749
I42
VSimpleName: btGImpactMeshShapeData_collisionShapeData_get
p5750
tp5751
a(Vinsert
p5752
I42
VSimpleName: setFocusableInTouchMode
p5753
tp5754
a(Vinsert
p5755
I42
VSimpleName: delete_btCompoundCollisionAlgorithm
p5756
tp5757
a(Vinsert
p5758
I42
VSimpleName: setView
p5759
tp5760
a(Vinsert
p5761
I42
VSimpleName: getDeclaredConstructor
p5762
tp5763
a(Vinsert
p5764
I42
VSimpleName: cosDeg
p5765
tp5766
a(Vinsert
p5767
I42
VSimpleName: setPixel
p5768
tp5769
a(Vinsert
p5770
I42
VSimpleName: getTableLayout
p5771
tp5772
a(Vinsert
p5773
I42
VSimpleName: ceilImpl
p5774
tp5775
a(Vinsert
p5776
I42
VSimpleName: enableVertexAttribute
p5777
tp5778
a(Vinsert
p5779
I42
VSimpleName: btSimulationIslandManager_updateActivationState
p5780
tp5781
a(Vinsert
p5782
I42
VSimpleName: btRigidBody_getOrientation
p5783
tp5784
a(Vinsert
p5785
I42
VSimpleName: handleResult
p5786
tp5787
a(Vinsert
p5788
I42
VSimpleName: getSharedLibraryNameLinux
p5789
tp5790
a(Vinsert
p5791
I42
VSimpleName: GetPrice
p5792
tp5793
a(Vinsert
p5794
I42
VSimpleName: iterator
p5795
tp5796
a(Vinsert
p5797
I42
VSimpleName: btConvexShape_SWIGUpcast
p5798
tp5799
a(Vinsert
p5800
I42
VSimpleName: invalidateAllFrameBuffers
p5801
tp5802
a(Vinsert
p5803
I42
VSimpleName: removeIndex
p5804
tp5805
a(Vinsert
p5806
I42
VSimpleName: getRuntime
p5807
tp5808
a(Vinsert
p5809
I42
VSimpleName: readByte
p5810
tp5811
a(Vinsert
p5812
I42
VSimpleName: btSolverBody_turnVelocity_set
p5813
tp5814
a(Vinsert
p5815
I42
VSimpleName: fromJson
p5816
tp5817
a(Vinsert
p5818
I42
VSimpleName: setDepthTest
p5819
tp5820
a(Vinsert
p5821
I42
VSimpleName: delete_memcopy_elements_func
p5822
tp5823
a(Vinsert
p5824
I42
VSimpleName: delete_GIM_RSORT_TOKEN
p5825
tp5826
a(Vinsert
p5827
I42
VSimpleName: getMouseX
p5828
tp5829
a(Vinsert
p5830
I42
VSimpleName: ConvexResultCallback_m_closestHitFraction_get
p5831
tp5832
a(Vinsert
p5833
I42
VSimpleName: btMultiBodyConstraintSolver_operatorDelete__SWIG_1
p5834
tp5835
a(Vinsert
p5836
I42
VSimpleName: glRenderbufferStorage
p5837
tp5838
a(Vinsert
p5839
I42
VSimpleName: btKinematicCharacterController_SWIGUpcast
p5840
tp5841
a(Vinsert
p5842
I42
VSimpleName: delete_btPointerUid
p5843
tp5844
a(Vinsert
p5845
I42
VSimpleName: closestPointToSegment
p5846
tp5847
a(Vinsert
p5848
I42
VSimpleName: getState
p5849
tp5850
a(Vinsert
p5851
I42
VSimpleName: new_btHinge2Constraint
p5852
tp5853
a(Vinsert
p5854
I42
VSimpleName: delete_GrahamVector3
p5855
tp5856
a(Vinsert
p5857
I42
VSimpleName: btMeshPartData_m_indices32_get
p5858
tp5859
a(Vinsert
p5860
I42
VSimpleName: setCursor
p5861
tp5862
a(Vinsert
p5863
I42
VSimpleName: pad
p5864
tp5865
a(Vinsert
p5866
I42
VSimpleName: btBoxBoxDetector_box1_get
p5867
tp5868
a(Vinsert
p5869
I42
VSimpleName: getErrorStream
p5870
tp5871
a(Vinsert
p5872
I42
VSimpleName: glVertexAttrib4f
p5873
tp5874
a(Vinsert
p5875
I42
VSimpleName: internalTemp
p5876
tp5877
a(Vinsert
p5878
I42
VSimpleName: btMultiSphereShapeData_m_convexInternalShapeData_get
p5879
tp5880
a(Vinsert
p5881
I42
VSimpleName: delete_btITaskScheduler
p5882
tp5883
a(Vinsert
p5884
I42
VSimpleName: get_NetworkInterfaceType
p5885
tp5886
a(Vinsert
p5887
I42
VSimpleName: btSoftBody_getLink
p5888
tp5889
a(Vinsert
p5890
I42
VSimpleName: delete_btSoftBodySolverOutput
p5891
tp5892
a(Vinsert
p5893
I42
VSimpleName: setTransformMatrix
p5894
tp5895
a(Vinsert
p5896
I42
VSimpleName: SoftBodyFaceData_normal_set
p5897
tp5898
a(Vinsert
p5899
I42
VSimpleName: delete__btMprSimplex_t
p5900
tp5901
a(Vinsert
p5902
I42
VSimpleName: getLocalPointToOut
p5903
tp5904
a(Vinsert
p5905
I42
VSimpleName: pow
p5906
tp5907
a(Vinsert
p5908
I42
VSimpleName: btPointCollector_SWIGUpcast
p5909
tp5910
a(Vinsert
p5911
I42
VSimpleName: setSystemCursor
p5912
tp5913
a(Vinsert
p5914
I42
VSimpleName: hasResource
p5915
tp5916
a(Vinsert
p5917
I42
VSimpleName: isForeground
p5918
tp5919
a(Vinsert
p5920
I42
VSimpleName: capsule
p5921
tp5922
a(Vinsert
p5923
I42
VSimpleName: new_btVehicleTuning
p5924
tp5925
a(Vinsert
p5926
I42
VSimpleName: btTypedConstraint_getRigidBodyA__SWIG_0
p5927
tp5928
a(Vinsert
p5929
I42
VSimpleName: btAxisSweep3InternalInt_Handle_operatorNew__SWIG_0
p5930
tp5931
a(Vinsert
p5932
I42
VSimpleName: xor
p5933
tp5934
a(Vinsert
p5935
I42
VSimpleName: setIsAlwayShown
p5936
tp5937
a(Vinsert
p5938
I42
VSimpleName: btCross
p5939
tp5940
a(Vinsert
p5941
I42
VSimpleName: setClipMouseCoordinatesToWindow
p5942
tp5943
a(Vinsert
p5944
I42
VSimpleName: getLanguage
p5945
tp5946
a(Vinsert
p5947
I42
VSimpleName: btDbvtProxy_leaf_get
p5948
tp5949
a(Vinsert
p5950
I42
VSimpleName: forget
p5951
tp5952
a(Vinsert
p5953
I42
VSimpleName: delete_btTriIndex
p5954
tp5955
a(Vinsert
p5956
I42
VSimpleName: keys
p5957
tp5958
a(Vinsert
p5959
I42
VSimpleName: btConeTwistConstraint_SWIGUpcast
p5960
tp5961
a(Vinsert
p5962
I42
VSimpleName: apply
p5963
tp5964
a(Vinsert
p5965
I42
VSimpleName: delete_btSoftClusterCollisionShape
p5966
tp5967
a(Vinsert
p5968
I42
VSimpleName: forName
p5969
tp5970
a(Vinsert
p5971
I42
VSimpleName: disposePixmap
p5972
tp5973
a(Vinsert
p5974
I42
VSimpleName: btQuantizedBvhNode_operatorNewArray__SWIG_0
p5975
tp5976
a(Vinsert
p5977
I42
VSimpleName: dot
p5978
tp5979
a(Vinsert
p5980
I42
VSimpleName: setZero
p5981
tp5982
a(Vinsert
p5983
I42
VSimpleName: getTransformMatrix
p5984
tp5985
a(Vinsert
p5986
I42
VSimpleName: getPerimeter
p5987
tp5988
a(Vinsert
p5989
I42
VSimpleName: yield
p5990
tp5991
a(Vinsert
p5992
I42
VSimpleName: getBoneassignments
p5993
tp5994
a(Vinsert
p5995
I42
VSimpleName: delete_btBlock
p5996
tp5997
a(Vinsert
p5998
I42
VSimpleName: getGlyphKernAdvance
p5999
tp6000
a(Vinsert
p6001
I42
VSimpleName: getValue
p6002
tp6003
a(Vinsert
p6004
I42
VSimpleName: getOutputStream
p6005
tp6006
a(Vinsert
p6007
I42
VSimpleName: btIDebugDraw_drawArcSwigExplicitbtIDebugDraw__SWIG_0
p6008
tp6009
a(Vinsert
p6010
I42
VSimpleName: btHingeConstraintFloatData_rbBFrame_get
p6011
tp6012
a(Vinsert
p6013
I42
VSimpleName: asString
p6014
tp6015
a(Vinsert
p6016
I42
VSimpleName: setHigh
p6017
tp6018
a(Vinsert
p6019
I42
VSimpleName: addFloatAttachment
p6020
tp6021
a(Vinsert
p6022
I42
VSimpleName: createShaderProgram
p6023
tp6024
a(Vinsert
p6025
I42
VSimpleName: btDbvtProxy_SWIGUpcast
p6026
tp6027
a(Vinsert
p6028
I42
VSimpleName: delete_btBoxBoxCollisionAlgorithm
p6029
tp6030
a(Vinsert
p6031
I42
VSimpleName: getUWrap
p6032
tp6033
a(Vinsert
p6034
I42
VSimpleName: delete_btEmptyShape
p6035
tp6036
a(Vinsert
p6037
I42
VSimpleName: setHint
p6038
tp6039
a(Vinsert
p6040
I42
VSimpleName: set_NumberOfLoops
p6041
tp6042
a(Vinsert
p6043
I42
VSimpleName: getDefaults
p6044
tp6045
a(Vinsert
p6046
I42
VSimpleName: ContactCache_change_ownership
p6047
tp6048
a(Vinsert
p6049
I42
VSimpleName: glEnableVertexAttribArray
p6050
tp6051
a(Vinsert
p6052
I42
VSimpleName: new_btVehicleRaycaster_btVehicleRaycasterResult
p6053
tp6054
a(Vinsert
p6055
I42
VSimpleName: setRenderingHint
p6056
tp6057
a(Vinsert
p6058
I42
VSimpleName: external
p6059
tp6060
a(Vinsert
p6061
I42
VSimpleName: removeMouseListener
p6062
tp6063
a(Vinsert
p6064
I42
VSimpleName: setSkeleton
p6065
tp6066
a(Vinsert
p6067
I42
VSimpleName: setPixelSizes
p6068
tp6069
a(Vinsert
p6070
I42
VSimpleName: btCharacterControllerInterface_setUpInterpolate
p6071
tp6072
a(Vinsert
p6073
I42
VSimpleName: btSubSimplexClosestResult_m_barycentricCoords_set
p6074
tp6075
a(Vinsert
p6076
I42
VSimpleName: setToShearing
p6077
tp6078
a(Vinsert
p6079
I42
VSimpleName: setBounds
p6080
tp6081
a(Vinsert
p6082
I42
VSimpleName: Face_m_normal_set
p6083
tp6084
a(Vinsert
p6085
I42
VSimpleName: hasNormals
p6086
tp6087
a(Vinsert
p6088
I42
VSimpleName: failed
p6089
tp6090
a(Vinsert
p6091
I42
VSimpleName: setEnforcePotImages
p6092
tp6093
a(Vinsert
p6094
I42
VSimpleName: btSliderConstraint_SWIGUpcast
p6095
tp6096
a(Vinsert
p6097
I42
VSimpleName: btCollisionShape_operatorNewArray__SWIG_0
p6098
tp6099
a(Vinsert
p6100
I42
VSimpleName: btRigidBodyConstructionInfo_rollingFriction_get
p6101
tp6102
a(Vinsert
p6103
I42
VSimpleName: getElementById
p6104
tp6105
a(Vinsert
p6106
I42
VSimpleName: getWidgets
p6107
tp6108
a(Vinsert
p6109
I42
VSimpleName: setStageX
p6110
tp6111
a(Vinsert
p6112
I42
VSimpleName: getLineHeight
p6113
tp6114
a(Vinsert
p6115
I42
VSimpleName: getString
p6116
tp6117
a(Vinsert
p6118
I42
VSimpleName: save
p6119
tp6120
a(Vinsert
p6121
I42
VSimpleName: gim_bitset_container_set
p6122
tp6123
a(Vinsert
p6124
I42
VSimpleName: btConvexPointCloudShape_operatorDeleteArray__SWIG_0
p6125
tp6126
a(Vinsert
p6127
I42
VSimpleName: computeVertices
p6128
tp6129
a(Vinsert
p6130
I42
VSimpleName: btConvexPolyhedron_localCenter_set
p6131
tp6132
a(Vinsert
p6133
I42
VSimpleName: getItems
p6134
tp6135
a(Vinsert
p6136
I42
VSimpleName: btCylinderShapeData_m_convexInternalShapeData_set
p6137
tp6138
a(Vinsert
p6139
I42
VSimpleName: glBindTexture
p6140
tp6141
a(Vinsert
p6142
I42
VSimpleName: exec
p6143
tp6144
a(Vinsert
p6145
I42
VSimpleName: getApplicationType
p6146
tp6147
a(Vinsert
p6148
I42
VSimpleName: btTriangle_m_vertex1_set
p6149
tp6150
a(Vinsert
p6151
I42
VSimpleName: getFD
p6152
tp6153
a(Vinsert
p6154
I42
VSimpleName: isDesktopSupported
p6155
tp6156
a(Vinsert
p6157
I42
VSimpleName: completed
p6158
tp6159
a(Vinsert
p6160
I42
VSimpleName: btHingeConstraint_getRigidBodyA__SWIG_0
p6161
tp6162
a(Vinsert
p6163
I42
VSimpleName: enqueueSound
p6164
tp6165
a(Vinsert
p6166
I42
VSimpleName: getProjectionMatrix
p6167
tp6168
a(Vinsert
p6169
I42
VSimpleName: btBroadphaseProxy_operatorNewArray__SWIG_0
p6170
tp6171
a(Vinsert
p6172
I42
VSimpleName: btPoint2PointConstraintDoubleData_m_typeConstraintData_get
p6173
tp6174
a(Vinsert
p6175
I42
VSimpleName: btMultiBodyPoint2Point_operatorNew__SWIG_1
p6176
tp6177
a(Vinsert
p6178
I42
VSimpleName: glGetProgramiv
p6179
tp6180
a(Vinsert
p6181
I42
VSimpleName: setChannels
p6182
tp6183
a(Vinsert
p6184
I42
VSimpleName: getModuleBaseURL
p6185
tp6186
a(Vinsert
p6187
I42
VSimpleName: btScalarArray_removeAtIndex
p6188
tp6189
a(Vinsert
p6190
I42
VSimpleName: delete_btVector3DoubleData
p6191
tp6192
a(Vinsert
p6193
I42
VSimpleName: btRigidBody_SWIGUpcast
p6194
tp6195
a(Vinsert
p6196
I42
VSimpleName: delete_CustomActionInterface
p6197
tp6198
a(Vinsert
p6199
I42
VSimpleName: toRadians
p6200
tp6201
a(Vinsert
p6202
I42
VSimpleName: readBoolean
p6203
tp6204
a(Vinsert
p6205
I42
VSimpleName: run
p6206
tp6207
a(Vinsert
p6208
I42
VSimpleName: delete_Feature
p6209
tp6210
a(Vinsert
p6211
I42
VSimpleName: btSphereTriangleCollisionAlgorithm_SWIGUpcast
p6212
tp6213
a(Vinsert
p6214
I42
VSimpleName: setTextureRegion
p6215
tp6216
a(Vinsert
p6217
I42
VSimpleName: SoftBodyNodeData_m_velocity_set
p6218
tp6219
a(Vinsert
p6220
I42
VSimpleName: setDrawable
p6221
tp6222
a(Vinsert
p6223
I42
VSimpleName: btManifoldResult_setShapeIdentifiersA
p6224
tp6225
a(Vinsert
p6226
I42
VSimpleName: draw
p6227
tp6228
a(Vinsert
p6229
I42
VSimpleName: btTriangleMeshShapeData_meshInterface_get
p6230
tp6231
a(Vinsert
p6232
I42
VSimpleName: ContactCache_cacheTime_set
p6233
tp6234
a(Vinsert
p6235
I42
VSimpleName: handleKey
p6236
tp6237
a(Vinsert
p6238
I42
VSimpleName: setUnitsPerPixel
p6239
tp6240
a(Vinsert
p6241
I42
VSimpleName: delete_btStringArray_less
p6242
tp6243
a(Vinsert
p6244
I42
VSimpleName: getTotalHeight
p6245
tp6246
a(Vinsert
p6247
I42
VSimpleName: drawCircle
p6248
tp6249
a(Vinsert
p6250
I42
VSimpleName: HullResult_mPolygons_get
p6251
tp6252
a(Vinsert
p6253
I42
VSimpleName: setupDisplay
p6254
tp6255
a(Vinsert
p6256
I42
VSimpleName: getDataElements
p6257
tp6258
a(Vinsert
p6259
I42
VSimpleName: vertex
p6260
tp6261
a(Vinsert
p6262
I42
VSimpleName: isVisible
p6263
tp6264
a(Vinsert
p6265
I42
VSimpleName: iter
p6266
tp6267
a(Vinsert
p6268
I42
VSimpleName: getLocalAnchorB
p6269
tp6270
a(Vinsert
p6271
I42
VSimpleName: getDefault
p6272
tp6273
a(Vinsert
p6274
I42
VSimpleName: btMultiSapBroadphase_btMultiSapProxy_aabbMin_set
p6275
tp6276
a(Vinsert
p6277
I42
VSimpleName: setUI
p6278
tp6279
a(Vinsert
p6280
I42
VSimpleName: getOffer
p6281
tp6282
a(Vinsert
p6283
I42
VSimpleName: delete_bStructHandle
p6284
tp6285
a(Vinsert
p6286
I42
VSimpleName: eglGetError
p6287
tp6288
a(Vinsert
p6289
I42
VSimpleName: btAxisSweep3InternalShort_Handle_operatorNew__SWIG_0
p6290
tp6291
a(Vinsert
p6292
I42
VSimpleName: rewind
p6293
tp6294
a(Vinsert
p6295
I42
VSimpleName: deleteRenderbuffer
p6296
tp6297
a(Vinsert
p6298
I42
VSimpleName: btDiscreteDynamicsWorld_getSimulationIslandManager__SWIG_0
p6299
tp6300
a(Vinsert
p6301
I42
VSimpleName: btOptimizedBvhNode_m_aabbMaxOrg_set
p6302
tp6303
a(Vinsert
p6304
I42
VSimpleName: equals
p6305
tp6306
a(Vinsert
p6307
I42
VSimpleName: btSoftBody_appendFace__SWIG_3
p6308
tp6309
a(Vinsert
p6310
I42
VSimpleName: btSoftBody_Cluster_imass_set
p6311
tp6312
a(Vinsert
p6313
I42
VSimpleName: btCollisionObjectArray_resizeNoInitialize
p6314
tp6315
a(Vinsert
p6316
I42
VSimpleName: btDiscreteDynamicsWorld_getApplySpeculativeContactRestitution
p6317
tp6318
a(Vinsert
p6319
I42
VSimpleName: btSoftBodySolver_copyBackToSoftBodies__SWIG_0
p6320
tp6321
a(Vinsert
p6322
I42
VSimpleName: copy
p6323
tp6324
a(Vinsert
p6325
I42
VSimpleName: obtainForArgument
p6326
tp6327
a(Vinsert
p6328
I42
VSimpleName: getChannels
p6329
tp6330
a(Vinsert
p6331
I42
VSimpleName: delete_fDrawFlags
p6332
tp6333
a(Vinsert
p6334
I42
VSimpleName: getSource
p6335
tp6336
a(Vinsert
p6337
I42
VSimpleName: btSetCustomEnterProfileZoneFunc
p6338
tp6339
a(Vinsert
p6340
I42
VSimpleName: btDbvtNode_data_set
p6341
tp6342
a(Vinsert
p6343
I42
VSimpleName: readLine
p6344
tp6345
a(Vinsert
p6346
I42
VSimpleName: getLocalStoragePath
p6347
tp6348
a(Vinsert
p6349
I42
VSimpleName: readPixels
p6350
tp6351
a(Vinsert
p6352
I42
VSimpleName: checkPermission
p6353
tp6354
a(Vinsert
p6355
I42
VSimpleName: pixelStorei
p6356
tp6357
a(Vinsert
p6358
I42
VSimpleName: openURL
p6359
tp6360
a(Vinsert
p6361
I42
VSimpleName: setProjectionMatrix
p6362
tp6363
a(Vinsert
p6364
I42
VSimpleName: btGjkEpaSolver2_sResults_witnesses_set
p6365
tp6366
a(Vinsert
p6367
I42
VSimpleName: row
p6368
tp6369
a(Vinsert
p6370
I42
VSimpleName: addMethodRef
p6371
tp6372
a(Vinsert
p6373
I42
VSimpleName: isAnnotation
p6374
tp6375
a(Vinsert
p6376
I42
VSimpleName: btVector3Array_resizeNoInitialize
p6377
tp6378
a(Vinsert
p6379
I42
VSimpleName: btSimplePair_userValue_set
p6380
tp6381
a(Vinsert
p6382
I42
VSimpleName: drawPixel
p6383
tp6384
a(Vinsert
p6385
I42
VSimpleName: onCompletion
p6386
tp6387
a(Vinsert
p6388
I42
VSimpleName: get_InterfaceOrientation
p6389
tp6390
a(Vinsert
p6391
I42
VSimpleName: new_btTriangleRaycastCallback__SWIG_1
p6392
tp6393
a(Vinsert
p6394
I42
VSimpleName: max
p6395
tp6396
a(Vinsert
p6397
I42
VSimpleName: delete_btTriangleShape
p6398
tp6399
a(Vinsert
p6400
I42
VSimpleName: setTarget
p6401
tp6402
a(Vinsert
p6403
I42
VSimpleName: glUniform2i
p6404
tp6405
a(Vinsert
p6406
I42
VSimpleName: getVertices
p6407
tp6408
a(Vinsert
p6409
I42
VSimpleName: allocateShortBuffer
p6410
tp6411
a(Vinsert
p6412
I42
VSimpleName: delete_btConstraintSetting
p6413
tp6414
a(Vinsert
p6415
I42
VSimpleName: btDefaultCollisionConstructionInfo_m_collisionAlgorithmPool_set
p6416
tp6417
a(Vinsert
p6418
I42
VSimpleName: setDebugMode
p6419
tp6420
a(Vinsert
p6421
I42
VSimpleName: btGeneric6DofSpringConstraint_operatorNewArray__SWIG_0
p6422
tp6423
a(Vinsert
p6424
I42
VSimpleName: delete_btStackAlloc
p6425
tp6426
a(Vinsert
p6427
I42
VSimpleName: btOptimizedBvhNodeDoubleData_m_aabbMaxOrg_set
p6428
tp6429
a(Vinsert
p6430
I42
VSimpleName: setTextAlignment
p6431
tp6432
a(Vinsert
p6433
I42
VSimpleName: isVersionEqualToOrHigher
p6434
tp6435
a(Vinsert
p6436
I42
VSimpleName: setTransparentColor
p6437
tp6438
a(Vinsert
p6439
I42
VSimpleName: getPositionX
p6440
tp6441
a(Vinsert
p6442
I42
VSimpleName: delete_GIM_HASH_NODE_CMP_KEY_MACRO
p6443
tp6444
a(Vinsert
p6445
I42
VSimpleName: getMainScreen
p6446
tp6447
a(Vinsert
p6448
I42
VSimpleName: readFloat
p6449
tp6450
a(Vinsert
p6451
I42
VSimpleName: btIDebugDraw_flushLinesSwigExplicitbtIDebugDraw
p6452
tp6453
a(Vinsert
p6454
I42
VSimpleName: clone
p6455
tp6456
a(Vinsert
p6457
I42
VSimpleName: getConstructor
p6458
tp6459
a(Vinsert
p6460
I42
VSimpleName: onDestroy
p6461
tp6462
a(Vinsert
p6463
I42
VSimpleName: beginCache
p6464
tp6465
a(Vinsert
p6466
I42
VSimpleName: delete_bNameInfo
p6467
tp6468
a(Vinsert
p6469
I42
VSimpleName: delete_bChunkInd
p6470
tp6471
a(Vinsert
p6472
I42
VSimpleName: createFrameBuffer
p6473
tp6474
a(Vinsert
p6475
I42
VSimpleName: glfwDestroyCursor
p6476
tp6477
a(Vinsert
p6478
I42
VSimpleName: getStringWidth
p6479
tp6480
a(Vinsert
p6481
I42
VSimpleName: delete_btMprCollisionDescription
p6482
tp6483
a(Vinsert
p6484
I42
VSimpleName: glGetString
p6485
tp6486
a(Vinsert
p6487
I42
VSimpleName: btSubSimplexClosestResult_usedVertices_set
p6488
tp6489
a(Vinsert
p6490
I42
VSimpleName: mode
p6491
tp6492
a(Vinsert
p6493
I42
VSimpleName: btDynamicsWorld_getSolverInfoConst
p6494
tp6495
a(Vinsert
p6496
I42
VSimpleName: asFloat
p6497
tp6498
a(Vinsert
p6499
I42
VSimpleName: getDuration
p6500
tp6501
a(Vinsert
p6502
I42
VSimpleName: ensureRectangles
p6503
tp6504
a(Vinsert
p6505
I42
VSimpleName: btConvex2dShape_SWIGUpcast
p6506
tp6507
a(Vinsert
p6508
I42
VSimpleName: getModifiers
p6509
tp6510
a(Vinsert
p6511
I42
VSimpleName: new_btUniversalConstraint
p6512
tp6513
a(Vinsert
p6514
I42
VSimpleName: setRelatedActor
p6515
tp6516
a(Vinsert
p6517
I42
VSimpleName: addValue
p6518
tp6519
a(Vinsert
p6520
I42
VSimpleName: delete_btVector3Array_less
p6521
tp6522
a(Vinsert
p6523
I42
VSimpleName: ContactDestroyedListener_change_ownership
p6524
tp6525
a(Vinsert
p6526
I42
VSimpleName: getViewportHeight
p6527
tp6528
a(Vinsert
p6529
I42
VSimpleName: delete_copy_elements_func
p6530
tp6531
a(Vinsert
p6532
I42
VSimpleName: isDirectory
p6533
tp6534
a(Vinsert
p6535
I42
VSimpleName: btOverlappingPairCallback_addOverlappingPair
p6536
tp6537
a(Vinsert
p6538
I42
VSimpleName: getCopy
p6539
tp6540
a(Vinsert
p6541
I42
VSimpleName: allocate
p6542
tp6543
a(Vinsert
p6544
I42
VSimpleName: nameWithoutExtension
p6545
tp6546
a(Vinsert
p6547
I42
VSimpleName: addShutdownHook
p6548
tp6549
a(Vinsert
p6550
I42
VSimpleName: getConfig
p6551
tp6552
a(Vinsert
p6553
I42
VSimpleName: isLetterOrDigit
p6554
tp6555
a(Vinsert
p6556
I42
VSimpleName: btOverlappingPairCache_getNumOverlappingPairs
p6557
tp6558
a(Vinsert
p6559
I42
VSimpleName: SoftBodyFaceData_m_normal_get
p6560
tp6561
a(Vinsert
p6562
I42
VSimpleName: btPolyhedralConvexShape_getNumVertices
p6563
tp6564
a(Vinsert
p6565
I42
VSimpleName: btStridingMeshInterfaceData_m_meshPartsPtr_get
p6566
tp6567
a(Vinsert
p6568
I42
VSimpleName: getElementPropertyInt
p6569
tp6570
a(Vinsert
p6571
I42
VSimpleName: keyDown
p6572
tp6573
a(Vinsert
p6574
I42
VSimpleName: delete_btElement
p6575
tp6576
a(Vinsert
p6577
I42
VSimpleName: scl
p6578
tp6579
a(Vinsert
p6580
I42
VSimpleName: height
p6581
tp6582
a(Vinsert
p6583
I42
VSimpleName: btCollisionObjectArray_operatorSubscript
p6584
tp6585
a(Vinsert
p6586
I42
VSimpleName: mainLoop
p6587
tp6588
a(Vinsert
p6589
I42
VSimpleName: btPairCachingGhostObject_addOverlappingObjectInternal__SWIG_0
p6590
tp6591
a(Vinsert
p6592
I42
VSimpleName: applyTheme
p6593
tp6594
a(Vinsert
p6595
I42
VSimpleName: btCollisionShape_getAabb
p6596
tp6597
a(Vinsert
p6598
I42
VSimpleName: setMotionState
p6599
tp6600
a(Vinsert
p6601
I42
VSimpleName: btCollisionWorld_computeOverlappingPairs
p6602
tp6603
a(Vinsert
p6604
I42
VSimpleName: readField
p6605
tp6606
a(Vinsert
p6607
I42
VSimpleName: addLayer
p6608
tp6609
a(Vinsert
p6610
I42
VSimpleName: getInterfaces
p6611
tp6612
a(Vinsert
p6613
I42
VSimpleName: btBulletWorldImporter_change_ownership
p6614
tp6615
a(Vinsert
p6616
I42
VSimpleName: setLooping
p6617
tp6618
a(Vinsert
p6619
I42
VSimpleName: btMultimaterialTriangleMeshShape_operatorNewArray__SWIG_0
p6620
tp6621
a(Vinsert
p6622
I42
VSimpleName: getContextActor
p6623
tp6624
a(Vinsert
p6625
I42
VSimpleName: getCause
p6626
tp6627
a(Vinsert
p6628
I42
VSimpleName: unregisterSensorListeners
p6629
tp6630
a(Vinsert
p6631
I42
VSimpleName: SetLcLpPb
p6632
tp6633
a(Vinsert
p6634
I42
VSimpleName: delete_btStorageResult
p6635
tp6636
a(Vinsert
p6637
I42
VSimpleName: canceled
p6638
tp6639
a(Vinsert
p6640
I42
VSimpleName: CustomCollisionDispatcher_change_ownership
p6641
tp6642
a(Vinsert
p6643
I42
VSimpleName: setFlags
p6644
tp6645
a(Vinsert
p6646
I42
VSimpleName: acos
p6647
tp6648
a(Vinsert
p6649
I42
VSimpleName: define
p6650
tp6651
a(Vinsert
p6652
I42
VSimpleName: isY
p6653
tp6654
a(Vinsert
p6655
I42
VSimpleName: btRigidBodyFloatData_gravity_get
p6656
tp6657
a(Vinsert
p6658
I42
VSimpleName: btQuadWord_x
p6659
tp6660
a(Vinsert
p6661
I42
VSimpleName: new_btConvexConvexAlgorithm
p6662
tp6663
a(Vinsert
p6664
I42
VSimpleName: getChars
p6665
tp6666
a(Vinsert
p6667
I42
VSimpleName: btVector3Array_removeAtIndex
p6668
tp6669
a(Vinsert
p6670
I42
VSimpleName: getMaterial
p6671
tp6672
a(Vinsert
p6673
I42
VSimpleName: SoftBodyTetraData_m_material_get
p6674
tp6675
a(Vinsert
p6676
I42
VSimpleName: newText
p6677
tp6678
a(Vinsert
p6679
I42
VSimpleName: setPreserveDrawingBuffer
p6680
tp6681
a(Vinsert
p6682
I42
VSimpleName: btDbvtBroadphase_getSet0
p6683
tp6684
a(Vinsert
p6685
I42
VSimpleName: testMeshSegment
p6686
tp6687
a(Vinsert
p6688
I42
VSimpleName: setX
p6689
tp6690
a(Vinsert
p6691
I42
VSimpleName: BoneWeight
p6692
tp6693
a(Vinsert
p6694
I42
VSimpleName: glVertexAttribPointer
p6695
tp6696
a(Vinsert
p6697
I42
VSimpleName: delete_btSphereTriangleCollisionAlgorithm
p6698
tp6699
a(Vinsert
p6700
I42
VSimpleName: delete_btSphereSphereCollisionAlgorithm
p6701
tp6702
a(Vinsert
p6703
I42
VSimpleName: getVertex
p6704
tp6705
a(Vinsert
p6706
I42
VSimpleName: getScale
p6707
tp6708
a(Vinsert
p6709
I42
VSimpleName: getRegionWidth
p6710
tp6711
a(Vinsert
p6712
I42
VSimpleName: btSerializer_finalizeChunk
p6713
tp6714
a(Vinsert
p6715
I42
VSimpleName: ConvexH_vertices_get
p6716
tp6717
a(Vinsert
p6718
I42
VSimpleName: getFileHandle
p6719
tp6720
a(Vinsert
p6721
I42
VSimpleName: delete_btTransformDoubleData
p6722
tp6723
a(Vinsert
p6724
I42
VSimpleName: glTexEnvi
p6725
tp6726
a(Vinsert
p6727
I42
VSimpleName: getShort
p6728
tp6729
a(Vinsert
p6730
I42
VSimpleName: new_btPoint2PointConstraint__SWIG_1
p6731
tp6732
a(Vinsert
p6733
I42
VSimpleName: getActionsRequestRendering
p6734
tp6735
a(Vinsert
p6736
I42
VSimpleName: bt32BitAxisSweep3_SWIGUpcast
p6737
tp6738
a(Vinsert
p6739
I42
VSimpleName: getLocalGraphicsEnvironment
p6740
tp6741
a(Vinsert
p6742
I42
VSimpleName: child
p6743
tp6744
a(Vinsert
p6745
I42
VSimpleName: setGwtVoicesSwfLocation
p6746
tp6747
a(Vinsert
p6748
I42
VSimpleName: getConstraints
p6749
tp6750
a(Vinsert
p6751
I42
VSimpleName: isDescendantOf
p6752
tp6753
a(Vinsert
p6754
I42
VSimpleName: isSensor
p6755
tp6756
a(Vinsert
p6757
I42
VSimpleName: unproject
p6758
tp6759
a(Vinsert
p6760
I42
VSimpleName: btWheelInfoConstructionInfo_m_suspensionRestLength_set
p6761
tp6762
a(Vinsert
p6763
I42
VSimpleName: downloadConfigFile
p6764
tp6765
a(Vinsert
p6766
I42
VSimpleName: getV
p6767
tp6768
a(Vinsert
p6769
I42
VSimpleName: setFillParent
p6770
tp6771
a(Vinsert
p6772
I42
VSimpleName: setElem__SWIG_1
p6773
tp6774
a(Vinsert
p6775
I42
VSimpleName: getAtlas
p6776
tp6777
a(Vinsert
p6778
I42
VSimpleName: maxWidth
p6779
tp6780
a(Vinsert
p6781
I42
VSimpleName: asIntBuffer
p6782
tp6783
a(Vinsert
p6784
I42
VSimpleName: isDirect
p6785
tp6786
a(Vinsert
p6787
I42
VSimpleName: btGjkPairDetector_fixContactNormalDirection_get
p6788
tp6789
a(Vinsert
p6790
I42
VSimpleName: nextSetBit
p6791
tp6792
a(Vinsert
p6793
I42
VSimpleName: MakeCurrent
p6794
tp6795
a(Vinsert
p6796
I42
VSimpleName: setForeground
p6797
tp6798
a(Vinsert
p6799
I42
VSimpleName: btConvexInternalShapeData_collisionShapeData_get
p6800
tp6801
a(Vinsert
p6802
I42
VSimpleName: delete_btContactConstraint
p6803
tp6804
a(Vinsert
p6805
I42
VSimpleName: btCollisionObject_operatorNewArray__SWIG_0
p6806
tp6807
a(Vinsert
p6808
I42
VSimpleName: unsafeSetWrap
p6809
tp6810
a(Vinsert
p6811
I42
VSimpleName: setLerp
p6812
tp6813
a(Vinsert
p6814
I42
VSimpleName: delete_btConvexPenetrationDepthSolver
p6815
tp6816
a(Vinsert
p6817
I42
VSimpleName: addUtf8
p6818
tp6819
a(Vinsert
p6820
I42
VSimpleName: getFloatAttribute
p6821
tp6822
a(Vinsert
p6823
I42
VSimpleName: btConvexHullShape_operatorDeleteArray__SWIG_0
p6824
tp6825
a(Vinsert
p6826
I42
VSimpleName: initialize
p6827
tp6828
a(Vinsert
p6829
I42
VSimpleName: isLeaf
p6830
tp6831
a(Vinsert
p6832
I42
VSimpleName: btSliderConstraintDoubleData_rbAFrame_get
p6833
tp6834
a(Vinsert
p6835
I42
VSimpleName: btQuaternion_setRotation
p6836
tp6837
a(Vinsert
p6838
I42
VSimpleName: isFinishing
p6839
tp6840
a(Vinsert
p6841
I42
VSimpleName: btPersistentManifoldArray_operatorSubscript
p6842
tp6843
a(Vinsert
p6844
I42
VSimpleName: delete_btPoint2PointConstraintDoubleData2
p6845
tp6846
a(Vinsert
p6847
I42
VSimpleName: enableBlending
p6848
tp6849
a(Vinsert
p6850
I42
VSimpleName: tmp
p6851
tp6852
a(Vinsert
p6853
I42
VSimpleName: isCompiled
p6854
tp6855
a(Vinsert
p6856
I42
VSimpleName: delete_btActionInterface
p6857
tp6858
a(Vinsert
p6859
I42
VSimpleName: glGetActiveAttrib
p6860
tp6861
a(Vinsert
p6862
I42
VSimpleName: fireOnPlaybackComplete
p6863
tp6864
a(Vinsert
p6865
I42
VSimpleName: getContentPane
p6866
tp6867
a(Vinsert
p6868
I42
VSimpleName: glGetShaderiv
p6869
tp6870
a(Vinsert
p6871
I42
VSimpleName: delete_btEigen
p6872
tp6873
a(Vinsert
p6874
I42
VSimpleName: setUseBrowserCache
p6875
tp6876
a(Vinsert
p6877
I42
VSimpleName: btMultiSphereShapeData_convexInternalShapeData_set
p6878
tp6879
a(Vinsert
p6880
I42
VSimpleName: scheduleTask
p6881
tp6882
a(Vinsert
p6883
I42
VSimpleName: isEqual
p6884
tp6885
a(Vinsert
p6886
I42
VSimpleName: setViewport
p6887
tp6888
a(Vinsert
p6889
I42
VSimpleName: FromFile
p6890
tp6891
a(Vinsert
p6892
I42
VSimpleName: delete_btVector3FloatData
p6893
tp6894
a(Vinsert
p6895
I42
VSimpleName: restart
p6896
tp6897
a(Vinsert
p6898
I42
VSimpleName: getPatch
p6899
tp6900
a(Vinsert
p6901
I42
VSimpleName: socketFD
p6902
tp6903
a(Vinsert
p6904
I42
VSimpleName: setupPeripherals
p6905
tp6906
a(Vinsert
p6907
I42
VSimpleName: btConstraintRow_m_rhs_set
p6908
tp6909
a(Vinsert
p6910
I42
VSimpleName: btSoftBodyHelpers_ReoptimizeLinkOrder
p6911
tp6912
a(Vinsert
p6913
I42
VSimpleName: removeCollisionObject
p6914
tp6915
a(Vinsert
p6916
I42
VSimpleName: btContinuousConvexCollision_SWIGUpcast
p6917
tp6918
a(Vinsert
p6919
I42
VSimpleName: delete_btSoftBodyTriangleCallback
p6920
tp6921
a(Vinsert
p6922
I42
VSimpleName: isMipMap
p6923
tp6924
a(Vinsert
p6925
I42
VSimpleName: input
p6926
tp6927
a(Vinsert
p6928
I42
VSimpleName: InternalTickCallback_director_connect
p6929
tp6930
a(Vinsert
p6931
I42
VSimpleName: setWidget
p6932
tp6933
a(Vinsert
p6934
I42
VSimpleName: getDeltaX
p6935
tp6936
a(Vinsert
p6937
I42
VSimpleName: btDiscreteDynamicsWorld_operatorNewArray__SWIG_0
p6938
tp6939
a(Vinsert
p6940
I42
VSimpleName: getV2
p6941
tp6942
a(Vinsert
p6943
I42
VSimpleName: CoilCreator_SWIGUpcast
p6944
tp6945
a(Vinsert
p6946
I42
VSimpleName: glLoadIdentity
p6947
tp6948
a(Vinsert
p6949
I42
VSimpleName: glVertexPointer
p6950
tp6951
a(Vinsert
p6952
I42
VSimpleName: delete_btUniformScalingShape
p6953
tp6954
a(Vinsert
p6955
I42
VSimpleName: push
p6956
tp6957
a(Vinsert
p6958
I42
VSimpleName: setOwnsTexture
p6959
tp6960
a(Vinsert
p6961
I42
VSimpleName: btConvex2dConvex2dAlgorithm_CreateFunc_pdSolver_set
p6962
tp6963
a(Vinsert
p6964
I42
VSimpleName: ContactAddedListenerByValue_change_ownership
p6965
tp6966
a(Vinsert
p6967
I42
VSimpleName: notifyAll
p6968
tp6969
a(Vinsert
p6970
I42
VSimpleName: btBoxShape_operatorNewArray__SWIG_0
p6971
tp6972
a(Vinsert
p6973
I42
VSimpleName: newLabel
p6974
tp6975
a(Vinsert
p6976
I42
VSimpleName: btHingeConstraint_SWIGUpcast
p6977
tp6978
a(Vinsert
p6979
I42
VSimpleName: MyInternalTriangleIndexCallback_gimpactShape_set
p6980
tp6981
a(Vinsert
p6982
I42
VSimpleName: glGetActiveUniform
p6983
tp6984
a(Vinsert
p6985
I42
VSimpleName: end
p6986
tp6987
a(Vinsert
p6988
I42
VSimpleName: minHeight
p6989
tp6990
a(Vinsert
p6991
I42
VSimpleName: polygonCentroid
p6992
tp6993
a(Vinsert
p6994
I42
VSimpleName: setRotation
p6995
tp6996
a(Vinsert
p6997
I42
VSimpleName: hashCode
p6998
tp6999
a(Vinsert
p7000
I42
VSimpleName: orderedKeys
p7001
tp7002
a(Vinsert
p7003
I42
VSimpleName: btAxisSweep3InternalShort_SWIGUpcast
p7004
tp7005
a(Vinsert
p7006
I42
VSimpleName: setOnGenericMotionListener
p7007
tp7008
a(Vinsert
p7009
I42
VSimpleName: getDependencies
p7010
tp7011
a(Vinsert
p7012
I42
VSimpleName: wrap
p7013
tp7014
a(Vinsert
p7015
I42
VSimpleName: setColor
p7016
tp7017
a(Vinsert
p7018
I42
VSimpleName: delete_btCapsuleShapeZ
p7019
tp7020
a(Vinsert
p7021
I42
VSimpleName: setProgressListener
p7022
tp7023
a(Vinsert
p7024
I42
VSimpleName: lock
p7025
tp7026
a(Vinsert
p7027
I42
VSimpleName: Link_SWIGUpcast
p7028
tp7029
a(Vinsert
p7030
I42
VSimpleName: replaceAll
p7031
tp7032
a(Vinsert
p7033
I42
VSimpleName: btDiscreteCollisionDetectorInterface_Result_addContactPoint
p7034
tp7035
a(Vinsert
p7036
I42
VSimpleName: getSystemService
p7037
tp7038
a(Vinsert
p7039
I42
VSimpleName: btAngularLimit_set__SWIG_1
p7040
tp7041
a(Vinsert
p7042
I42
VSimpleName: stack
p7043
tp7044
a(Vinsert
p7045
I42
VSimpleName: btConvexConvexAlgorithm_CreateFunc_pdSolver_set
p7046
tp7047
a(Vinsert
p7048
I42
VSimpleName: GIM_TRIANGLE_get_edge_plane
p7049
tp7050
a(Vinsert
p7051
I42
VSimpleName: delete_btPoint2PointConstraintFloatData
p7052
tp7053
a(Vinsert
p7054
I42
VSimpleName: invokeLater
p7055
tp7056
a(Vinsert
p7057
I42
VSimpleName: btConstraintSolver_prepareSolve
p7058
tp7059
a(Vinsert
p7060
I42
VSimpleName: setFromCross
p7061
tp7062
a(Vinsert
p7063
I42
VSimpleName: getScrollY
p7064
tp7065
a(Vinsert
p7066
I42
VSimpleName: isCatchBackKey
p7067
tp7068
a(Vinsert
p7069
I42
VSimpleName: delete_btSimpleBroadphaseProxy
p7070
tp7071
a(Vinsert
p7072
I42
VSimpleName: getEnumConstants
p7073
tp7074
a(Vinsert
p7075
I42
VSimpleName: area
p7076
tp7077
a(Vinsert
p7078
I42
VSimpleName: delete_ClosestNotMeRayResultCallback
p7079
tp7080
a(Vinsert
p7081
I42
VSimpleName: btOverlapCallback_change_ownership
p7082
tp7083
a(Vinsert
p7084
I42
VSimpleName: delete_btConeShapeX
p7085
tp7086
a(Vinsert
p7087
I42
VSimpleName: btVector3_setInterpolate3
p7088
tp7089
a(Vinsert
p7090
I42
VSimpleName: GetActiveUniform
p7091
tp7092
a(Vinsert
p7093
I42
VSimpleName: showMessageDialog
p7094
tp7095
a(Vinsert
p7096
I42
VSimpleName: getGroundAnchorA
p7097
tp7098
a(Vinsert
p7099
I42
VSimpleName: exp
p7100
tp7101
a(Vinsert
p7102
I42
VSimpleName: getCalls
p7103
tp7104
a(Vinsert
p7105
I42
VSimpleName: asLongBuffer
p7106
tp7107
a(Vinsert
p7108
I42
VSimpleName: delete_btGImpactCollisionAlgorithm_CreateFunc
p7109
tp7110
a(Vinsert
p7111
I42
VSimpleName: createBox
p7112
tp7113
a(Vinsert
p7114
I42
VSimpleName: getPixels
p7115
tp7116
a(Vinsert
p7117
I42
VSimpleName: parseBlockAsList
p7118
tp7119
a(Vinsert
p7120
I42
VSimpleName: getEmitters
p7121
tp7122
a(Vinsert
p7123
I42
VSimpleName: new_btTriangleInfo
p7124
tp7125
a(Vinsert
p7126
I42
VSimpleName: btSolve2LinearConstraint_resolveUnilateralPairConstraint
p7127
tp7128
a(Vinsert
p7129
I42
VSimpleName: generateMipMap
p7130
tp7131
a(Vinsert
p7132
I42
VSimpleName: getAttributes
p7133
tp7134
a(Vinsert
p7135
I42
VSimpleName: get_NumberOfLoops
p7136
tp7137
a(Vinsert
p7138
I42
VSimpleName: getTransformedVertices
p7139
tp7140
a(Vinsert
p7141
I42
VSimpleName: delete_btPoolAllocator
p7142
tp7143
a(Vinsert
p7144
I42
VSimpleName: newArray
p7145
tp7146
a(Vinsert
p7147
I42
VSimpleName: new_btGEN_List
p7148
tp7149
a(Vinsert
p7150
I42
VSimpleName: purchaseRestore
p7151
tp7152
a(Vinsert
p7153
I42
VSimpleName: getDeltaTime
p7154
tp7155
a(Vinsert
p7156
I42
VSimpleName: set_CurrentTime
p7157
tp7158
a(Vinsert
p7159
I42
VSimpleName: getFatAABB
p7160
tp7161
a(Vinsert
p7162
I42
VSimpleName: getPath
p7163
tp7164
a(Vinsert
p7165
I42
VSimpleName: btConeShape_setHeight
p7166
tp7167
a(Vinsert
p7168
I42
VSimpleName: getCamera
p7169
tp7170
a(Vinsert
p7171
I42
VSimpleName: btUsageBitfield_usedVertexB_get
p7172
tp7173
a(Vinsert
p7174
I42
VSimpleName: btScalarArray_operatorSubscriptConst
p7175
tp7176
a(Vinsert
p7177
I42
VSimpleName: getTile
p7178
tp7179
a(Vinsert
p7180
I42
VSimpleName: SimpleTreeCreator_SWIGUpcast
p7181
tp7182
a(Vinsert
p7183
I42
VSimpleName: show
p7184
tp7185
a(Vinsert
p7186
I42
VSimpleName: getChildCount
p7187
tp7188
a(Vinsert
p7189
I42
VSimpleName: node
p7190
tp7191
a(Vinsert
p7192
I42
VSimpleName: delete_ChunkUtils
p7193
tp7194
a(Vinsert
p7195
I42
VSimpleName: readUnsignedByte
p7196
tp7197
a(Vinsert
p7198
I42
VSimpleName: btGjkEpaSolver2_Penetration__SWIG_0
p7199
tp7200
a(Vinsert
p7201
I42
VSimpleName: btHingeConstraintDoubleData2_useReferenceFrameA_set
p7202
tp7203
a(Vinsert
p7204
I42
VSimpleName: SoftBodyConfigData_m_softContactHardness_set
p7205
tp7206
a(Vinsert
p7207
I42
VSimpleName: delete_btTriangleMeshShape
p7208
tp7209
a(Vinsert
p7210
I42
VSimpleName: getPadTop
p7211
tp7212
a(Vinsert
p7213
I42
VSimpleName: createProgram
p7214
tp7215
a(Vinsert
p7216
I42
VSimpleName: currentThread
p7217
tp7218
a(Vinsert
p7219
I42
VSimpleName: ImpulseMatrix__SWIG_1
p7220
tp7221
a(Vinsert
p7222
I42
VSimpleName: getGL20
p7223
tp7224
a(Vinsert
p7225
I42
VSimpleName: btConvex2dShape_operatorDeleteArray__SWIG_0
p7226
tp7227
a(Vinsert
p7228
I42
VSimpleName: i
p7229
tp7230
a(Vinsert
p7231
I42
VSimpleName: isCatchMenuKey
p7232
tp7233
a(Vinsert
p7234
I42
VSimpleName: registerInputDeviceListener
p7235
tp7236
a(Vinsert
p7237
I42
VSimpleName: delete_btEmptyAlgorithm_CreateFunc
p7238
tp7239
a(Vinsert
p7240
I42
VSimpleName: getAnchorA
p7241
tp7242
a(Vinsert
p7243
I42
VSimpleName: btStridingMeshInterface_getLockedReadOnlyVertexIndexBase__SWIG_0
p7244
tp7245
a(Vinsert
p7246
I42
VSimpleName: getKerning
p7247
tp7248
a(Vinsert
p7249
I42
VSimpleName: btBvhTriangleMeshShape_SWIGUpcast
p7250
tp7251
a(Vinsert
p7252
I42
VSimpleName: btNodeOverlapCallback_change_ownership
p7253
tp7254
a(Vinsert
p7255
I42
VSimpleName: btBroadphaseAabbCallback_change_ownership
p7256
tp7257
a(Vinsert
p7258
I42
VSimpleName: btConvexHullShape_addPoint__SWIG_1
p7259
tp7260
a(Vinsert
p7261
I42
VSimpleName: delete_btDbvtNode
p7262
tp7263
a(Vinsert
p7264
I42
VSimpleName: delete_btMultiSphereShape
p7265
tp7266
a(Vinsert
p7267
I42
VSimpleName: glGetProgramInfoLog
p7268
tp7269
a(Vinsert
p7270
I42
VSimpleName: delete_btScalarArray_less
p7271
tp7272
a(Vinsert
p7273
I42
VSimpleName: resumeSourcesWithBuffer
p7274
tp7275
a(Vinsert
p7276
I42
VSimpleName: getGLEnum
p7277
tp7278
a(Vinsert
p7279
I42
VSimpleName: setGravity
p7280
tp7281
a(Vinsert
p7282
I42
VSimpleName: getAngle
p7283
tp7284
a(Vinsert
p7285
I42
VSimpleName: json
p7286
tp7287
a(Vinsert
p7288
I42
VSimpleName: btDbvtBroadphase_SWIGUpcast
p7289
tp7290
a(Vinsert
p7291
I42
VSimpleName: btRigidBodyConstructionInfo_m_linearDamping_get
p7292
tp7293
a(Vinsert
p7294
I42
VSimpleName: glBindBufferBase
p7295
tp7296
a(Vinsert
p7297
I42
VSimpleName: get_Width
p7298
tp7299
a(Vinsert
p7300
I42
VSimpleName: isUseBrowserCache
p7301
tp7302
a(Vinsert
p7303
I42
VSimpleName: getStringBounds
p7304
tp7305
a(Vinsert
p7306
I42
VSimpleName: btSparseSdf3_clampCells_get
p7307
tp7308
a(Vinsert
p7309
I42
VSimpleName: btTriangleRaycastCallback_SWIGUpcast
p7310
tp7311
a(Vinsert
p7312
I42
VSimpleName: getMainLooper
p7313
tp7314
a(Vinsert
p7315
I42
VSimpleName: currentTimeMillis
p7316
tp7317
a(Vinsert
p7318
I42
VSimpleName: btCollisionObjectDoubleData_interpolationAngularVelocity_get
p7319
tp7320
a(Vinsert
p7321
I42
VSimpleName: stop
p7322
tp7323
a(Vinsert
p7324
I42
VSimpleName: new_btDefaultSoftBodySolver
p7325
tp7326
a(Vinsert
p7327
I42
VSimpleName: btDefaultSoftBodySolver_optimize__SWIG_1
p7328
tp7329
a(Vinsert
p7330
I42
VSimpleName: getDrawable
p7331
tp7332
a(Vinsert
p7333
I42
VSimpleName: btMultiBodyLinkFloatData_linkMass_set
p7334
tp7335
a(Vinsert
p7336
I42
VSimpleName: btTriIndex_m_PartIdTriangleIndex_get
p7337
tp7338
a(Vinsert
p7339
I42
VSimpleName: btOptimizedBvh_operatorNewArray__SWIG_0
p7340
tp7341
a(Vinsert
p7342
I42
VSimpleName: getMaxParticleCount
p7343
tp7344
a(Vinsert
p7345
I42
VSimpleName: btCollisionObjectFloatData_m_interpolationAngularVelocity_get
p7346
tp7347
a(Vinsert
p7348
I42
VSimpleName: delete_ListBase
p7349
tp7350
a(Vinsert
p7351
I42
VSimpleName: invalidateHierarchy
p7352
tp7353
a(Vinsert
p7354
I42
VSimpleName: setAttribute
p7355
tp7356
a(Vinsert
p7357
I42
VSimpleName: ordinal
p7358
tp7359
a(Vinsert
p7360
I42
VSimpleName: getRotateInstance
p7361
tp7362
a(Vinsert
p7363
I42
VSimpleName: setEditable
p7364
tp7365
a(Vinsert
p7366
I42
VSimpleName: intToFloatColor
p7367
tp7368
a(Vinsert
p7369
I42
VSimpleName: onPlaybackComplete
p7370
tp7371
a(Vinsert
p7372
I42
VSimpleName: btRigidBodyFloatData_gravity_acceleration_set
p7373
tp7374
a(Vinsert
p7375
I42
VSimpleName: getScreenToWorldX
p7376
tp7377
a(Vinsert
p7378
I42
VSimpleName: getUpperLimit
p7379
tp7380
a(Vinsert
p7381
I42
VSimpleName: nor
p7382
tp7383
a(Vinsert
p7384
I42
VSimpleName: mulTransToOut
p7385
tp7386
a(Vinsert
p7387
I42
VSimpleName: wasPressed
p7388
tp7389
a(Vinsert
p7390
I42
VSimpleName: delete_btOverlappingPairCallback
p7391
tp7392
a(Vinsert
p7393
I42
VSimpleName: getLastColor
p7394
tp7395
a(Vinsert
p7396
I42
VSimpleName: InternalTickCallback_CB
p7397
tp7398
a(Vinsert
p7399
I42
VSimpleName: btSoftBodyHelpers_CreatePatch
p7400
tp7401
a(Vinsert
p7402
I42
VSimpleName: addGroup
p7403
tp7404
a(Vinsert
p7405
I42
VSimpleName: getAudio
p7406
tp7407
a(Vinsert
p7408
I42
VSimpleName: unfocusAll
p7409
tp7410
a(Vinsert
p7411
I42
VSimpleName: getProperty
p7412
tp7413
a(Vinsert
p7414
I42
VSimpleName: new_MultiBodyNameMap
p7415
tp7416
a(Vinsert
p7417
I42
VSimpleName: getNextSibling
p7418
tp7419
a(Vinsert
p7420
I42
VSimpleName: getRawDeltaTime
p7421
tp7422
a(Vinsert
p7423
I42
VSimpleName: getAll
p7424
tp7425
a(Vinsert
p7426
I42
VSimpleName: getDepth
p7427
tp7428
a(Vinsert
p7429
I42
VSimpleName: delete_btPrimitiveManagerBase
p7430
tp7431
a(Vinsert
p7432
I42
VSimpleName: glGenRenderbuffers
p7433
tp7434
a(Vinsert
p7435
I42
VSimpleName: getPreferredSize
p7436
tp7437
a(Vinsert
p7438
I42
VSimpleName: removed
p7439
tp7440
a(Vinsert
p7441
I42
VSimpleName: getSize
p7442
tp7443
a(Vinsert
p7444
I42
VSimpleName: getClientX
p7445
tp7446
a(Vinsert
p7447
I42
VSimpleName: scrolled
p7448
tp7449
a(Vinsert
p7450
I42
VSimpleName: loadAsync
p7451
tp7452
a(Vinsert
p7453
I42
VSimpleName: setSelectionMode
p7454
tp7455
a(Vinsert
p7456
I42
VSimpleName: setBorder
p7457
tp7458
a(Vinsert
p7459
I42
VSimpleName: newShortBuffer
p7460
tp7461
a(Vinsert
p7462
I42
VSimpleName: btCollisionObject_internalSetGdxBridge
p7463
tp7464
a(Vinsert
p7465
I42
VSimpleName: btDynamicsWorld_SWIGUpcast
p7466
tp7467
a(Vinsert
p7468
I42
VSimpleName: render
p7469
tp7470
a(Vinsert
p7471
I42
VSimpleName: freeMemory
p7472
tp7473
a(Vinsert
p7474
I42
VSimpleName: GetWorldManifold
p7475
tp7476
a(Vinsert
p7477
I42
VSimpleName: AllHitsRayResultCallback_rayFromWorld_set
p7478
tp7479
a(Vinsert
p7480
I42
VSimpleName: assertEquals
p7481
tp7482
a(Vinsert
p7483
I42
VSimpleName: edit
p7484
tp7485
a(Vinsert
p7486
I42
VSimpleName: btBroadphasePairSortPredicate_operatorFunctionCall
p7487
tp7488
a(Vinsert
p7489
I42
VSimpleName: setPadding
p7490
tp7491
a(Vinsert
p7492
I42
VSimpleName: set_Pan
p7493
tp7494
a(Vinsert
p7495
I42
VSimpleName: btGeneric6DofSpring2ConstraintData_linearEnableMotor_get
p7496
tp7497
a(Vinsert
p7498
I42
VSimpleName: btGeneric6DofSpring2Constraint_setDamping__SWIG_1
p7499
tp7500
a(Vinsert
p7501
I42
VSimpleName: awe_WebView_isDirty
p7502
tp7503
a(Vinsert
p7504
I42
VSimpleName: setCursorCatched
p7505
tp7506
a(Vinsert
p7507
I42
VSimpleName: newPixmap
p7508
tp7509
a(Vinsert
p7510
I42
VSimpleName: getGlyph
p7511
tp7512
a(Vinsert
p7513
I42
VSimpleName: btCollisionObject_setRollingFriction
p7514
tp7515
a(Vinsert
p7516
I42
VSimpleName: interrupt
p7517
tp7518
a(Vinsert
p7519
I42
VSimpleName: int4_x_get
p7520
tp7521
a(Vinsert
p7522
I42
VSimpleName: delete_btPoint2PointConstraintDoubleData
p7523
tp7524
a(Vinsert
p7525
I42
VSimpleName: fillRect
p7526
tp7527
a(Vinsert
p7528
I42
VSimpleName: isDisabled
p7529
tp7530
a(Vinsert
p7531
I42
VSimpleName: getBytes
p7532
tp7533
a(Vinsert
p7534
I42
VSimpleName: btConstraintInfo2_J2angularAxis_set
p7535
tp7536
a(Vinsert
p7537
I42
VSimpleName: getRaster
p7538
tp7539
a(Vinsert
p7540
I42
VSimpleName: setVerticalGroup
p7541
tp7542
a(Vinsert
p7543
I42
VSimpleName: setMultipleTouchEnabled
p7544
tp7545
a(Vinsert
p7546
I42
VSimpleName: getAnnotations
p7547
tp7548
a(Vinsert
p7549
I42
VSimpleName: btCylinderShapeZ_SWIGUpcast
p7550
tp7551
a(Vinsert
p7552
I42
VSimpleName: vetoableChange
p7553
tp7554
a(Vinsert
p7555
I42
VSimpleName: getSafeUri
p7556
tp7557
a(Vinsert
p7558
I42
VSimpleName: isCapture
p7559
tp7560
a(Vinsert
p7561
I42
VSimpleName: delete_bInvalidHandle
p7562
tp7563
a(Vinsert
p7564
I42
VSimpleName: new_btGEN_Link__SWIG_0
p7565
tp7566
a(Vinsert
p7567
I42
VSimpleName: getLength
p7568
tp7569
a(Vinsert
p7570
I42
VSimpleName: btCapsuleShapeZ_SWIGUpcast
p7571
tp7572
a(Vinsert
p7573
I42
VSimpleName: getTransform
p7574
tp7575
a(Vinsert
p7576
I42
VSimpleName: new_btTriangleConvexcastCallback
p7577
tp7578
a(Vinsert
p7579
I42
VSimpleName: reader
p7580
tp7581
a(Vinsert
p7582
I42
VSimpleName: beginPath
p7583
tp7584
a(Vinsert
p7585
I42
VSimpleName: GIM_BVH_DATA_ARRAY_SWIGUpcast
p7586
tp7587
a(Vinsert
p7588
I42
VSimpleName: setCatchBackKey
p7589
tp7590
a(Vinsert
p7591
I42
VSimpleName: toLwjgl3Monitor
p7592
tp7593
a(Vinsert
p7594
I42
VSimpleName: dispatchEvent
p7595
tp7596
a(Vinsert
p7597
I42
VSimpleName: getGLVersion
p7598
tp7599
a(Vinsert
p7600
I42
VSimpleName: getVolume
p7601
tp7602
a(Vinsert
p7603
I42
VSimpleName: Material_SWIGUpcast
p7604
tp7605
a(Vinsert
p7606
I42
VSimpleName: btConeShape_operatorNewArray__SWIG_0
p7607
tp7608
a(Vinsert
p7609
I42
VSimpleName: screenToStageCoordinates
p7610
tp7611
a(Vinsert
p7612
I42
VSimpleName: getToolkit
p7613
tp7614
a(Vinsert
p7615
I42
VSimpleName: btSolverConstraint_appliedPushImpulse_set
p7616
tp7617
a(Vinsert
p7618
I42
VSimpleName: getCurrentPosition
p7619
tp7620
a(Vinsert
p7621
I42
VSimpleName: glTexImage2D
p7622
tp7623
a(Vinsert
p7624
I42
VSimpleName: getDebug
p7625
tp7626
a(Vinsert
p7627
I42
VSimpleName: onPause
p7628
tp7629
a(Vinsert
p7630
I42
VSimpleName: booleanValue
p7631
tp7632
a(Vinsert
p7633
I42
VSimpleName: btEmptyShape_operatorNewArray__SWIG_0
p7634
tp7635
a(Vinsert
p7636
I42
VSimpleName: GIM_CONTACT_normal_get
p7637
tp7638
a(Vinsert
p7639
I42
VSimpleName: invertToOut
p7640
tp7641
a(Vinsert
p7642
I42
VSimpleName: resize
p7643
tp7644
a(Vinsert
p7645
I42
VSimpleName: canOpenURL
p7646
tp7647
a(Vinsert
p7648
I42
VSimpleName: padBottom
p7649
tp7650
a(Vinsert
p7651
I42
VSimpleName: setEntity
p7652
tp7653
a(Vinsert
p7654
I42
VSimpleName: btVoronoiSimplexSolver_m_cachedValidClosest_set
p7655
tp7656
a(Vinsert
p7657
I42
VSimpleName: min
p7658
tp7659
a(Vinsert
p7660
I42
VSimpleName: endChunk
p7661
tp7662
a(Vinsert
p7663
I42
VSimpleName: btConeTwistConstraint_setLimit__SWIG_3
p7664
tp7665
a(Vinsert
p7666
I42
VSimpleName: Material_m_kLST_set
p7667
tp7668
a(Vinsert
p7669
I42
VSimpleName: btContactSolverInfoDoubleData_erp_get
p7670
tp7671
a(Vinsert
p7672
I42
VSimpleName: getIndicesBuffer
p7673
tp7674
a(Vinsert
p7675
I42
VSimpleName: btJointFeedback_m_appliedTorqueBodyA_set
p7676
tp7677
a(Vinsert
p7678
I42
VSimpleName: glfwGetMonitorPhysicalSize
p7679
tp7680
a(Vinsert
p7681
I42
VSimpleName: ySliderMoved
p7682
tp7683
a(Vinsert
p7684
I42
VSimpleName: startRecording
p7685
tp7686
a(Vinsert
p7687
I42
VSimpleName: setRadius
p7688
tp7689
a(Vinsert
p7690
I42
VSimpleName: keyboardFocus
p7691
tp7692
a(Vinsert
p7693
I42
VSimpleName: get_CurrentDevice
p7694
tp7695
a(Vinsert
p7696
I42
VSimpleName: delete_GIM_QUANTIZED_BVH_NODE_ARRAY
p7697
tp7698
a(Vinsert
p7699
I42
VSimpleName: post
p7700
tp7701
a(Vinsert
p7702
I42
VSimpleName: log
p7703
tp7704
a(Vinsert
p7705
I42
VSimpleName: btSpatialForceVector_setVector
p7706
tp7707
a(Vinsert
p7708
I42
VSimpleName: getDefaultScreenDevice
p7709
tp7710
a(Vinsert
p7711
I42
VSimpleName: removeActorRecursive
p7712
tp7713
a(Vinsert
p7714
I42
VSimpleName: scaleSize
p7715
tp7716
a(Vinsert
p7717
I42
VSimpleName: delete_btGjkCollisionDescription
p7718
tp7719
a(Vinsert
p7720
I42
VSimpleName: getTopHeight
p7721
tp7722
a(Vinsert
p7723
I42
VSimpleName: getFramesPerSecond
p7724
tp7725
a(Vinsert
p7726
I42
VSimpleName: debug
p7727
tp7728
a(Vinsert
p7729
I42
VSimpleName: getIntAttribute
p7730
tp7731
a(Vinsert
p7732
I42
VSimpleName: btGeneric6DofSpring2ConstraintData_linearEnableMotor_set
p7733
tp7734
a(Vinsert
p7735
I42
VSimpleName: delete_btSphereSphereCollisionAlgorithm_CreateFunc
p7736
tp7737
a(Vinsert
p7738
I42
VSimpleName: newFloatBuffer
p7739
tp7740
a(Vinsert
p7741
I42
VSimpleName: getMethods
p7742
tp7743
a(Vinsert
p7744
I42
VSimpleName: btTriangleMeshShape_SWIGUpcast
p7745
tp7746
a(Vinsert
p7747
I42
VSimpleName: delete_btConvexPlaneCollisionAlgorithm
p7748
tp7749
a(Vinsert
p7750
I42
VSimpleName: btMotionState_change_ownership
p7751
tp7752
a(Vinsert
p7753
I42
VSimpleName: setResizable
p7754
tp7755
a(Vinsert
p7756
I42
VSimpleName: ContactResultCallback_m_collisionFilterGroup_get
p7757
tp7758
a(Vinsert
p7759
I42
VSimpleName: delete_btTypedObject
p7760
tp7761
a(Vinsert
p7762
I42
VSimpleName: getPixmap
p7763
tp7764
a(Vinsert
p7765
I42
VSimpleName: enableClipping
p7766
tp7767
a(Vinsert
p7768
I42
VSimpleName: line
p7769
tp7770
a(Vinsert
p7771
I42
VSimpleName: processEvents
p7772
tp7773
a(Vinsert
p7774
I42
VSimpleName: cancled
p7775
tp7776
a(Vinsert
p7777
I42
VSimpleName: btMultimaterialTriangleMeshShape_SWIGUpcast
p7778
tp7779
a(Vinsert
p7780
I42
VSimpleName: openConnection
p7781
tp7782
a(Vinsert
p7783
I42
VSimpleName: sMedium_m_velocity_set
p7784
tp7785
a(Vinsert
p7786
I42
VSimpleName: delete_btTriangleCallback
p7787
tp7788
a(Vinsert
p7789
I42
VSimpleName: getMaxIndices
p7790
tp7791
a(Vinsert
p7792
I42
VSimpleName: btBU_Simplex1to4_operatorNewArray__SWIG_0
p7793
tp7794
a(Vinsert
p7795
I42
VSimpleName: delete_btCapsuleShape
p7796
tp7797
a(Vinsert
p7798
I42
VSimpleName: toChildCoordinates
p7799
tp7800
a(Vinsert
p7801
I42
VSimpleName: resetShader
p7802
tp7803
a(Vinsert
p7804
I42
VSimpleName: setScaling
p7805
tp7806
a(Vinsert
p7807
I42
VSimpleName: calculateTransforms
p7808
tp7809
a(Vinsert
p7810
I42
VSimpleName: delete_btSimulationIslandManager_IslandCallback
p7811
tp7812
a(Vinsert
p7813
I42
VSimpleName: btAngleCompareFunc_operatorFunctionCall
p7814
tp7815
a(Vinsert
p7816
I42
VSimpleName: btConvexInternalShape_getImplicitShapeDimensions
p7817
tp7818
a(Vinsert
p7819
I42
VSimpleName: isKeyPressed
p7820
tp7821
a(Vinsert
p7822
I42
VSimpleName: getGL11
p7823
tp7824
a(Vinsert
p7825
I42
VSimpleName: drawPixmap
p7826
tp7827
a(Vinsert
p7828
I42
VSimpleName: getLocalAxisA
p7829
tp7830
a(Vinsert
p7831
I42
VSimpleName: getCurrentDevice
p7832
tp7833
a(Vinsert
p7834
I42
VSimpleName: IsBuffer
p7835
tp7836
a(Vinsert
p7837
I42
VSimpleName: getDisplayModes
p7838
tp7839
a(Vinsert
p7840
I42
VSimpleName: drawRect
p7841
tp7842
a(Vinsert
p7843
I42
VSimpleName: new_bChunkPtr8
p7844
tp7845
a(Vinsert
p7846
I42
VSimpleName: btSoftRigidDynamicsWorld_SWIGUpcast
p7847
tp7848
a(Vinsert
p7849
I42
VSimpleName: btGearConstraintFloatData_typeConstraintData_get
p7850
tp7851
a(Vinsert
p7852
I42
VSimpleName: clr
p7853
tp7854
a(Vinsert
p7855
I42
VSimpleName: wait
p7856
tp7857
a(Vinsert
p7858
I42
VSimpleName: isFree
p7859
tp7860
a(Vinsert
p7861
I42
VSimpleName: delete_btCapsuleShapeData
p7862
tp7863
a(Vinsert
p7864
I42
VSimpleName: getActualTypeArguments
p7865
tp7866
a(Vinsert
p7867
I42
VSimpleName: createFloatBuffer
p7868
tp7869
a(Vinsert
p7870
I42
VSimpleName: getGenericComponentType
p7871
tp7872
a(Vinsert
p7873
I42
VSimpleName: getBounds
p7874
tp7875
a(Vinsert
p7876
I42
VSimpleName: box
p7877
tp7878
a(Vinsert
p7879
I42
VSimpleName: gc
p7880
tp7881
a(Vinsert
p7882
I42
VSimpleName: loadChar
p7883
tp7884
a(Vinsert
p7885
I42
VSimpleName: getLocalPoint
p7886
tp7887
a(Vinsert
p7888
I42
VSimpleName: w
p7889
tp7890
a(Vinsert
p7891
I42
VSimpleName: btUsageBitfield_usedVertexA_get
p7892
tp7893
a(Vinsert
p7894
I42
VSimpleName: isProdMode
p7895
tp7896
a(Vinsert
p7897
I42
VSimpleName: doSort
p7898
tp7899
a(Vinsert
p7900
I42
VSimpleName: delete_btCompoundFromGimpactShape
p7901
tp7902
a(Vinsert
p7903
I42
VSimpleName: onActivityResult
p7904
tp7905
a(Vinsert
p7906
I42
VSimpleName: delete_User2InternalIndex
p7907
tp7908
a(Vinsert
p7909
I42
VSimpleName: getMinWidth
p7910
tp7911
a(Vinsert
p7912
I42
VSimpleName: compareAndSwapObject
p7913
tp7914
a(Vinsert
p7915
I42
VSimpleName: asList
p7916
tp7917
a(Vinsert
p7918
I42
VSimpleName: btSimpleBroadphaseProxy_SWIGUpcast
p7919
tp7920
a(Vinsert
p7921
I42
VSimpleName: disposeSystemCursors
p7922
tp7923
a(Vinsert
p7924
I42
VSimpleName: setCamera
p7925
tp7926
a(Vinsert
p7927
I42
VSimpleName: delete_btMultiBodyTreeCreator
p7928
tp7929
a(Vinsert
p7930
I42
VSimpleName: setContentView
p7931
tp7932
a(Vinsert
p7933
I42
VSimpleName: btCollisionObjectConstArray_resize__SWIG_0
p7934
tp7935
a(Vinsert
p7936
I42
VSimpleName: getComponentType
p7937
tp7938
a(Vinsert
p7939
I42
VSimpleName: delete_btCollisionObjectArray_less
p7940
tp7941
a(Vinsert
p7942
I42
VSimpleName: btTransform_getBasis__SWIG_0
p7943
tp7944
a(Vinsert
p7945
I42
VSimpleName: btSoftBodyJointData_cfm_set
p7946
tp7947
a(Vinsert
p7948
I42
VSimpleName: delete_btStaticPlaneShape
p7949
tp7950
a(Vinsert
p7951
I42
VSimpleName: getLong
p7952
tp7953
a(Vinsert
p7954
I42
VSimpleName: getRegionHeight
p7955
tp7956
a(Vinsert
p7957
I42
VSimpleName: delete_btConvexConcaveCollisionAlgorithm
p7958
tp7959
a(Vinsert
p7960
I42
VSimpleName: finished
p7961
tp7962
a(Vinsert
p7963
I42
VSimpleName: delete_btBox2dBox2dCollisionAlgorithm
p7964
tp7965
a(Vinsert
p7966
I42
VSimpleName: SoftBodyConfigData_kineticContactHardness_set
p7967
tp7968
a(Vinsert
p7969
I42
VSimpleName: Link_n_get
p7970
tp7971
a(Vinsert
p7972
I42
VSimpleName: getPaddingRight
p7973
tp7974
a(Vinsert
p7975
I42
VSimpleName: printStackTrace
p7976
tp7977
a(Vinsert
p7978
I42
VSimpleName: btBroadphasePair_internalTmpValue_set
p7979
tp7980
a(Vinsert
p7981
I42
VSimpleName: setOpaque
p7982
tp7983
a(Vinsert
p7984
I42
VSimpleName: btSimpleBroadphaseProxy_m_nextFree_set
p7985
tp7986
a(Vinsert
p7987
I42
VSimpleName: setLength
p7988
tp7989
a(Vinsert
p7990
I42
VSimpleName: act
p7991
tp7992
a(Vinsert
p7993
I42
VSimpleName: btTriangleIndexVertexArray_operatorNewArray__SWIG_0
p7994
tp7995
a(Vinsert
p7996
I42
VSimpleName: write
p7997
tp7998
a(Vinsert
p7999
I42
VSimpleName: setFontScale
p8000
tp8001
a(Vinsert
p8002
I42
VSimpleName: btBU_Simplex1to4_SWIGUpcast
p8003
tp8004
a(Vinsert
p8005
I42
VSimpleName: getTexture
p8006
tp8007
a(Vinsert
p8008
I42
VSimpleName: btSliderConstraintData_m_rbBFrame_set
p8009
tp8010
a(Vinsert
p8011
I42
VSimpleName: glLightfv
p8012
tp8013
a(Vinsert
p8014
I42
VSimpleName: new_CollisionObjectWrapper__SWIG_2
p8015
tp8016
a(Vinsert
p8017
I42
VSimpleName: glTexParameterf
p8018
tp8019
a(Vinsert
p8020
I42
VSimpleName: getenv
p8021
tp8022
a(Vinsert
p8023
I42
VSimpleName: delete_btGEN_List
p8024
tp8025
a(Vinsert
p8026
I42
VSimpleName: btDefaultSoftBodySolver_SWIGUpcast
p8027
tp8028
a(Vinsert
p8029
I42
VSimpleName: delete_DISTANCE_PLANE_3D_FUNC
p8030
tp8031
a(Vinsert
p8032
I42
VSimpleName: btContactSolverInfoFloatData_m_globalCfm_set
p8033
tp8034
a(Vinsert
p8035
I42
VSimpleName: getFilterData
p8036
tp8037
a(Vinsert
p8038
I42
VSimpleName: getRoot
p8039
tp8040
a(Vinsert
p8041
I42
VSimpleName: keyTyped
p8042
tp8043
a(Vinsert
p8044
I42
VSimpleName: DillCreator_SWIGUpcast
p8045
tp8046
a(Vinsert
p8047
I42
VSimpleName: dealloc
p8048
tp8049
a(Vinsert
p8050
I42
VSimpleName: drawWrappedText
p8051
tp8052
a(Vinsert
p8053
I42
VSimpleName: getTextureObject
p8054
tp8055
a(Vinsert
p8056
I42
VSimpleName: createSequentialGroup
p8057
tp8058
a(Vinsert
p8059
I42
VSimpleName: btCollisionObjectFloatData_interpolationAngularVelocity_get
p8060
tp8061
a(Vinsert
p8062
I42
VSimpleName: btAxisSweep3InternalInt_updateHandle
p8063
tp8064
a(Vinsert
p8065
I42
VSimpleName: btStringArray_operatorSubscriptConst
p8066
tp8067
a(Vinsert
p8068
I42
VSimpleName: delete_btCollisionShapeData
p8069
tp8070
a(Vinsert
p8071
I42
VSimpleName: setRenderListener
p8072
tp8073
a(Vinsert
p8074
I42
VSimpleName: get_Playing
p8075
tp8076
a(Vinsert
p8077
I42
VSimpleName: getChar
p8078
tp8079
a(Vinsert
p8080
I42
VSimpleName: btDbvtProxy_leaf_set
p8081
tp8082
a(Vinsert
p8083
I42
VSimpleName: getChildByName
p8084
tp8085
a(Vinsert
p8086
I42
VSimpleName: items
p8087
tp8088
a(Vinsert
p8089
I42
VSimpleName: btNullPairCache_SWIGUpcast
p8090
tp8091
a(Vinsert
p8092
I42
VSimpleName: btContactSolverInfoData_sor_get
p8093
tp8094
a(Vinsert
p8095
I42
VSimpleName: getSpriteBatch
p8096
tp8097
a(Vinsert
p8098
I42
VSimpleName: getAbsolutePath
p8099
tp8100
a(Vinsert
p8101
I42
VSimpleName: delete_btCollisionAlgorithm
p8102
tp8103
a(Vinsert
p8104
I42
VSimpleName: setFullscreenMode
p8105
tp8106
a(Vinsert
p8107
I42
VSimpleName: btTypedConstraint_getJointFeedback__SWIG_0
p8108
tp8109
a(Vinsert
p8110
I42
VSimpleName: classpath
p8111
tp8112
a(Vinsert
p8113
I42
VSimpleName: btConeTwistConstraintDoubleData_rbBFrame_set
p8114
tp8115
a(Vinsert
p8116
I42
VSimpleName: btSimpleDynamicsWorld_SWIGUpcast
p8117
tp8118
a(Vinsert
p8119
I42
VSimpleName: skew
p8120
tp8121
a(Vinsert
p8122
I42
VSimpleName: delete_btCylinderShapeZ
p8123
tp8124
a(Vinsert
p8125
I42
VSimpleName: btTransform_getBasisConst
p8126
tp8127
a(Vinsert
p8128
I42
VSimpleName: btTypedConstraint_operatorNewArray__SWIG_1
p8129
tp8130
a(Vinsert
p8131
I42
VSimpleName: MultiBodyTree_operatorNewArray__SWIG_0
p8132
tp8133
a(Vinsert
p8134
I42
VSimpleName: isFile
p8135
tp8136
a(Vinsert
p8137
I42
VSimpleName: setUserData
p8138
tp8139
a(Vinsert
p8140
I42
VSimpleName: getXScale
p8141
tp8142
a(Vinsert
p8143
I42
VSimpleName: getTable
p8144
tp8145
a(Vinsert
p8146
I42
VSimpleName: getLoggerName
p8147
tp8148
a(Vinsert
p8149
I42
VSimpleName: btQuaternion_setEulerZYX
p8150
tp8151
a(Vinsert
p8152
I42
VSimpleName: btStackAlloc_create
p8153
tp8154
a(Vinsert
p8155
I42
VSimpleName: GIM_TRIANGLE_CONTACT_point_count_set
p8156
tp8157
a(Vinsert
p8158
I42
VSimpleName: delete_less_comparator
p8159
tp8160
a(Vinsert
p8161
I42
VSimpleName: glPushMatrix
p8162
tp8163
a(Vinsert
p8164
I42
VSimpleName: delete_btShortIntIndexData
p8165
tp8166
a(Vinsert
p8167
I42
VSimpleName: btManifoldResult_calculateCombinedFriction
p8168
tp8169
a(Vinsert
p8170
I42
VSimpleName: readFrame
p8171
tp8172
a(Vinsert
p8173
I42
VSimpleName: getTransferData
p8174
tp8175
a(Vinsert
p8176
I42
VSimpleName: removeFromTree
p8177
tp8178
a(Vinsert
p8179
I42
VSimpleName: getCorners
p8180
tp8181
a(Vinsert
p8182
I42
VSimpleName: expand
p8183
tp8184
a(Vinsert
p8185
I42
VSimpleName: build
p8186
tp8187
a(Vinsert
p8188
I42
VSimpleName: btVoronoiSimplexSolver_lastW_get
p8189
tp8190
a(Vinsert
p8191
I42
VSimpleName: reportRayFixture
p8192
tp8193
a(Vinsert
p8194
I42
VSimpleName: delete_btSoftColliders
p8195
tp8196
a(Vinsert
p8197
I42
VSimpleName: btStaticPlaneShapeData_m_localScaling_set
p8198
tp8199
a(Vinsert
p8200
I42
VSimpleName: btSoftBodyFloatData_m_anchors_set
p8201
tp8202
a(Vinsert
p8203
I42
VSimpleName: new_btTriangleMesh__SWIG_1
p8204
tp8205
a(Vinsert
p8206
I42
VSimpleName: len
p8207
tp8208
a(Vinsert
p8209
I42
VSimpleName: btStringArray_removeAtIndex
p8210
tp8211
a(Vinsert
p8212
I42
VSimpleName: newScrollPane
p8213
tp8214
a(Vinsert
p8215
I42
VSimpleName: delete_btMatrix3x3DoubleData
p8216
tp8217
a(Vinsert
p8218
I42
VSimpleName: btCompoundCollisionAlgorithm_SwappedCreateFunc_SWIGUpcast
p8219
tp8220
a(Vinsert
p8221
I42
VSimpleName: delete_btConeShapeData
p8222
tp8223
a(Vinsert
p8224
I42
VSimpleName: local
p8225
tp8226
a(Vinsert
p8227
I42
VSimpleName: ext
p8228
tp8229
a(Vinsert
p8230
I42
VSimpleName: has
p8231
tp8232
a(Vinsert
p8233
I42
VSimpleName: new_btGjkPairDetector__SWIG_1
p8234
tp8235
a(Vinsert
p8236
I42
VSimpleName: exception
p8237
tp8238
a(Vinsert
p8239
I42
VSimpleName: getMapWidthUnits
p8240
tp8241
a(Vinsert
p8242
I42
VSimpleName: btTriangleConvexcastCallback_m_convexShapeTo_set
p8243
tp8244
a(Vinsert
p8245
I42
VSimpleName: getRGB
p8246
tp8247
a(Vinsert
p8248
I42
VSimpleName: btPoint2PointConstraintFloatData_m_typeConstraintData_get
p8249
tp8250
a(Vinsert
p8251
I42
VSimpleName: delete_ClosestNotMeConvexResultCallback
p8252
tp8253
a(Vinsert
p8254
I42
VSimpleName: btRigidBody_getLocalInertia
p8255
tp8256
a(Vinsert
p8257
I42
VSimpleName: btRigidBodyFloatData_m_gravity_acceleration_get
p8258
tp8259
a(Vinsert
p8260
I42
VSimpleName: btPointCollector_normalOnBInWorld_get
p8261
tp8262
a(Vinsert
p8263
I42
VSimpleName: getNumMaxIndices
p8264
tp8265
a(Vinsert
p8266
I42
VSimpleName: getPadLeft
p8267
tp8268
a(Vinsert
p8269
I42
VSimpleName: btMultiBodyFloatData_links_get
p8270
tp8271
a(Vinsert
p8272
I42
VSimpleName: getUV
p8273
tp8274
a(Vinsert
p8275
I42
VSimpleName: btOptimizedBvhNodeFloatData_m_aabbMaxOrg_set
p8276
tp8277
a(Vinsert
p8278
I42
VSimpleName: btTriangleInfoMap_planarEpsilon_set
p8279
tp8280
a(Vinsert
p8281
I42
VSimpleName: getAttribute
p8282
tp8283
a(Vinsert
p8284
I42
VSimpleName: delete_btContactSolverInfo
p8285
tp8286
a(Vinsert
p8287
I42
VSimpleName: mulToOutUnsafe
p8288
tp8289
a(Vinsert
p8290
I42
VSimpleName: btAABB_increment_margin
p8291
tp8292
a(Vinsert
p8293
I42
VSimpleName: btContactSolverInfoData_frictionCFM_get
p8294
tp8295
a(Vinsert
p8296
I42
VSimpleName: delete_btGeometryUtil
p8297
tp8298
a(Vinsert
p8299
I42
VSimpleName: delete_CProfileSample
p8300
tp8301
a(Vinsert
p8302
I42
VSimpleName: setFilter
p8303
tp8304
a(Vinsert
p8305
I42
VSimpleName: getId
p8306
tp8307
a(Vinsert
p8308
I42
VSimpleName: getAction
p8309
tp8310
a(Vinsert
p8311
I42
VSimpleName: setSpread
p8312
tp8313
a(Vinsert
p8314
I42
VSimpleName: setAutoBind
p8315
tp8316
a(Vinsert
p8317
I42
VSimpleName: btGhostPairCallback_SWIGUpcast
p8318
tp8319
a(Vinsert
p8320
I42
VSimpleName: glPixelStorei
p8321
tp8322
a(Vinsert
p8323
I42
VSimpleName: setChecked
p8324
tp8325
a(Vinsert
p8326
I42
VSimpleName: btSoftBody_resetLinkRestLengths
p8327
tp8328
a(Vinsert
p8329
I42
VSimpleName: btHinge2Constraint_operatorNewArray__SWIG_0
p8330
tp8331
a(Vinsert
p8332
I42
VSimpleName: setString
p8333
tp8334
a(Vinsert
p8335
I42
VSimpleName: btMultiSapBroadphase_rayTest__SWIG_1
p8336
tp8337
a(Vinsert
p8338
I42
VSimpleName: btGjkEpaPenetrationDepthSolver_SWIGUpcast
p8339
tp8340
a(Vinsert
p8341
I42
VSimpleName: setContactCallbackFlag
p8342
tp8343
a(Vinsert
p8344
I42
VSimpleName: e
p8345
tp8346
a(Vinsert
p8347
I42
VSimpleName: Face_SWIGUpcast
p8348
tp8349
a(Vinsert
p8350
I42
VSimpleName: btMultiBodyJacobianData_deltaVelocities_set
p8351
tp8352
a(Vinsert
p8353
I42
VSimpleName: setTangentSpeed
p8354
tp8355
a(Vinsert
p8356
I42
VSimpleName: needsCollision
p8357
tp8358
a(Vinsert
p8359
I42
VSimpleName: viewDidAppear
p8360
tp8361
a(Vinsert
p8362
I42
VSimpleName: btOptimizedBvh_build
p8363
tp8364
a(Vinsert
p8365
I42
VSimpleName: setValue
p8366
tp8367
a(Vinsert
p8368
I42
VSimpleName: convertAllObjects
p8369
tp8370
a(Vinsert
p8371
I42
VSimpleName: new_btUnionFind
p8372
tp8373
a(Vinsert
p8374
I42
VSimpleName: btSequentialImpulseConstraintSolver_setConstraintRowSolverLowerLimit
p8375
tp8376
a(Vinsert
p8377
I42
VSimpleName: toLowerCase
p8378
tp8379
a(Vinsert
p8380
I42
VSimpleName: setPackToTexture
p8381
tp8382
a(Vinsert
p8383
I42
VSimpleName: setSize
p8384
tp8385
a(Vinsert
p8386
I42
VSimpleName: getUIWindow
p8387
tp8388
a(Vinsert
p8389
I42
VSimpleName: onTouch
p8390
tp8391
a(Vinsert
p8392
I42
VSimpleName: loadObj
p8393
tp8394
a(Vinsert
p8395
I42
VSimpleName: btConvexConvexAlgorithm_SWIGUpcast
p8396
tp8397
a(Vinsert
p8398
I42
VSimpleName: rotate
p8399
tp8400
a(Vinsert
p8401
I42
VSimpleName: getNames
p8402
tp8403
a(Vinsert
p8404
I42
VSimpleName: ceil
p8405
tp8406
a(Vinsert
p8407
I42
VSimpleName: btConvexHullShape_project
p8408
tp8409
a(Vinsert
p8410
I42
VSimpleName: setDrawableDepthFormat
p8411
tp8412
a(Vinsert
p8413
I42
VSimpleName: btTriangleShape_operatorNewArray__SWIG_0
p8414
tp8415
a(Vinsert
p8416
I42
VSimpleName: countDown
p8417
tp8418
a(Vinsert
p8419
I42
VSimpleName: btMultiBodyDoubleData_baseMass_set
p8420
tp8421
a(Vinsert
p8422
I42
VSimpleName: interfaceMethod
p8423
tp8424
a(Vinsert
p8425
I42
VSimpleName: getPointerCount
p8426
tp8427
a(Vinsert
p8428
I42
VSimpleName: getFont
p8429
tp8430
a(Vinsert
p8431
I42
VSimpleName: toGdx2DPixmapFormat
p8432
tp8433
a(Vinsert
p8434
I42
VSimpleName: sort
p8435
tp8436
a(Vinsert
p8437
I42
VSimpleName: delete_btSequentialImpulseConstraintSolver
p8438
tp8439
a(Vinsert
p8440
I42
VSimpleName: getGamepad
p8441
tp8442
a(Vinsert
p8443
I42
VSimpleName: btCPUVertexBufferDescriptor_SWIGUpcast
p8444
tp8445
a(Vinsert
p8446
I42
VSimpleName: setStyle
p8447
tp8448
a(Vinsert
p8449
I42
VSimpleName: hasIndices
p8450
tp8451
a(Vinsert
p8452
I42
VSimpleName: addDepthTextureAttachment
p8453
tp8454
a(Vinsert
p8455
I42
VSimpleName: setUniformi
p8456
tp8457
a(Vinsert
p8458
I42
VSimpleName: btRaycastVehicle_btVehicleTuning_suspensionStiffness_set
p8459
tp8460
a(Vinsert
p8461
I42
VSimpleName: glfwSetClipboardString
p8462
tp8463
a(Vinsert
p8464
I42
VSimpleName: btCompoundShape_SWIGUpcast
p8465
tp8466
a(Vinsert
p8467
I42
VSimpleName: btCompoundCompoundCollisionAlgorithm_SwappedCreateFunc_SWIGUpcast
p8468
tp8469
a(Vinsert
p8470
I42
VSimpleName: btDefaultMotionState_operatorNewArray__SWIG_0
p8471
tp8472
a(Vinsert
p8473
I42
VSimpleName: btGearConstraintDoubleData_typeConstraintData_set
p8474
tp8475
a(Vinsert
p8476
I42
VSimpleName: Color
p8477
tp8478
a(Vinsert
p8479
I42
VSimpleName: btSoftBodyConcaveCollisionAlgorithm_SWIGUpcast
p8480
tp8481
a(Vinsert
p8482
I42
VSimpleName: flush
p8483
tp8484
a(Vinsert
p8485
I42
VSimpleName: free
p8486
tp8487
a(Vinsert
p8488
I42
VSimpleName: getMask
p8489
tp8490
a(Vinsert
p8491
I42
VSimpleName: btTriangleConvexcastCallback_SWIGUpcast
p8492
tp8493
a(Vinsert
p8494
I42
VSimpleName: getResource
p8495
tp8496
a(Vinsert
p8497
I42
VSimpleName: translate
p8498
tp8499
a(Vinsert
p8500
I42
VSimpleName: getChildren
p8501
tp8502
a(Vinsert
p8503
I42
VSimpleName: writeStatement
p8504
tp8505
a(Vinsert
p8506
I42
VSimpleName: btVector3_minDot
p8507
tp8508
a(Vinsert
p8509
I42
VSimpleName: getArguments
p8510
tp8511
a(Vinsert
p8512
I42
VSimpleName: with
p8513
tp8514
a(Vinsert
p8515
I42
VSimpleName: ContactProcessedListenerByObject_change_ownership
p8516
tp8517
a(Vinsert
p8518
I42
VSimpleName: touchMoved
p8519
tp8520
a(Vinsert
p8521
I42
VSimpleName: setHeader
p8522
tp8523
a(Vinsert
p8524
I42
VSimpleName: delete_btConcaveShape
p8525
tp8526
a(Vinsert
p8527
I42
VSimpleName: getTouchFocus
p8528
tp8529
a(Vinsert
p8530
I42
VSimpleName: delete_int4
p8531
tp8532
a(Vinsert
p8533
I42
VSimpleName: obtain
p8534
tp8535
a(Vinsert
p8536
I42
VSimpleName: PHullResult_mIndexCount_set
p8537
tp8538
a(Vinsert
p8539
I42
VSimpleName: btConstraintInfo2_rowskip_set
p8540
tp8541
a(Vinsert
p8542
I42
VSimpleName: put
p8543
tp8544
a(Vinsert
p8545
I42
VSimpleName: toLocalCoordinates
p8546
tp8547
a(Vinsert
p8548
I42
VSimpleName: btHeightfieldTerrainShape_SWIGUpcast
p8549
tp8550
a(Vinsert
p8551
I42
VSimpleName: getComponents
p8552
tp8553
a(Vinsert
p8554
I42
VSimpleName: btPoolAllocator_getPoolAddressConst
p8555
tp8556
a(Vinsert
p8557
I42
VSimpleName: doubleToLongBits
p8558
tp8559
a(Vinsert
p8560
I42
VSimpleName: btTriangleMeshShapeData_m_quantizedFloatBvh_set
p8561
tp8562
a(Vinsert
p8563
I42
VSimpleName: btDbvtAabbMm_FromCR
p8564
tp8565
a(Vinsert
p8566
I42
VSimpleName: getTextureBindings
p8567
tp8568
a(Vinsert
p8569
I42
VSimpleName: setMessageText
p8570
tp8571
a(Vinsert
p8572
I42
VSimpleName: getHeight
p8573
tp8574
a(Vinsert
p8575
I42
VSimpleName: moveDirectory
p8576
tp8577
a(Vinsert
p8578
I42
VSimpleName: btMultiSphereShape_operatorNewArray__SWIG_0
p8579
tp8580
a(Vinsert
p8581
I42
VSimpleName: delete_btIntSortPredicate
p8582
tp8583
a(Vinsert
p8584
I42
VSimpleName: toJsArray
p8585
tp8586
a(Vinsert
p8587
I42
VSimpleName: finish
p8588
tp8589
a(Vinsert
p8590
I42
VSimpleName: isHandled
p8591
tp8592
a(Vinsert
p8593
I42
VSimpleName: btConvexTriangleCallback_m_manifoldPtr_set
p8594
tp8595
a(Vinsert
p8596
I42
VSimpleName: lerpAngleDeg
p8597
tp8598
a(Vinsert
p8599
I42
VSimpleName: getObjects
p8600
tp8601
a(Vinsert
p8602
I42
VSimpleName: setDuration
p8603
tp8604
a(Vinsert
p8605
I42
VSimpleName: btEmptyAlgorithm_CreateFunc_SWIGUpcast
p8606
tp8607
a(Vinsert
p8608
I42
VSimpleName: btSpatialMotionVector_addVector
p8609
tp8610
a(Vinsert
p8611
I42
VSimpleName: btConstraintRow_normal_set
p8612
tp8613
a(Vinsert
p8614
I42
VSimpleName: btTransformUtil_integrateTransform
p8615
tp8616
a(Vinsert
p8617
I42
VSimpleName: mulUnsafe
p8618
tp8619
a(Vinsert
p8620
I42
VSimpleName: gim_contact_array_internal_pointer_const
p8621
tp8622
a(Vinsert
p8623
I42
VSimpleName: setY
p8624
tp8625
a(Vinsert
p8626
I42
VSimpleName: btEmptyShape_SWIGUpcast
p8627
tp8628
a(Vinsert
p8629
I42
VSimpleName: btMinkowskiSumShape_operatorNewArray__SWIG_0
p8630
tp8631
a(Vinsert
p8632
I42
VSimpleName: getCanvasElement
p8633
tp8634
a(Vinsert
p8635
I42
VSimpleName: getImage
p8636
tp8637
a(Vinsert
p8638
I42
VSimpleName: getSprite
p8639
tp8640
a(Vinsert
p8641
I42
VSimpleName: getStyle
p8642
tp8643
a(Vinsert
p8644
I42
VSimpleName: handle
p8645
tp8646
a(Vinsert
p8647
I42
VSimpleName: delete_btSphereShape
p8648
tp8649
a(Vinsert
p8650
I42
VSimpleName: new_btConvexPlaneCollisionAlgorithm
p8651
tp8652
a(Vinsert
p8653
I42
VSimpleName: getManagerCount
p8654
tp8655
a(Vinsert
p8656
I42
VSimpleName: isPlaying
p8657
tp8658
a(Vinsert
p8659
I42
VSimpleName: delete_GIM_RSORT_TOKEN_COMPARATOR
p8660
tp8661
a(Vinsert
p8662
I42
VSimpleName: btBvhTree_clearNodes
p8663
tp8664
a(Vinsert
p8665
I42
VSimpleName: btGImpactMeshShapePart_TrimeshPrimitiveManager_vertexbase_set
p8666
tp8667
a(Vinsert
p8668
I42
VSimpleName: btCollisionObjectFloatData_contactStiffness_set
p8669
tp8670
a(Vinsert
p8671
I42
VSimpleName: new_btSimpleDynamicsWorld
p8672
tp8673
a(Vinsert
p8674
I42
VSimpleName: glColor4f
p8675
tp8676
a(Vinsert
p8677
I42
VSimpleName: normalize
p8678
tp8679
a(Vinsert
p8680
I42
VSimpleName: delete_btCylinderShape
p8681
tp8682
a(Vinsert
p8683
I42
VSimpleName: btCollisionObjectArray_removeAtIndex
p8684
tp8685
a(Vinsert
p8686
I42
VSimpleName: btSliderConstraint_operatorDeleteArray__SWIG_0
p8687
tp8688
a(Vinsert
p8689
I42
VSimpleName: setSoTimeout
p8690
tp8691
a(Vinsert
p8692
I42
VSimpleName: delete_btSimplePair
p8693
tp8694
a(Vinsert
p8695
I42
VSimpleName: delete_LocalShapeInfo
p8696
tp8697
a(Vinsert
p8698
I42
VSimpleName: isContinuousRendering
p8699
tp8700
a(Vinsert
p8701
I42
VSimpleName: setBackground
p8702
tp8703
a(Vinsert
p8704
I42
VSimpleName: setQuoteLongValues
p8705
tp8706
a(Vinsert
p8707
I42
VSimpleName: cbrt
p8708
tp8709
a(Vinsert
p8710
I42
VSimpleName: getTextureObjectHandle
p8711
tp8712
a(Vinsert
p8713
I42
VSimpleName: setOrigin
p8714
tp8715
a(Vinsert
p8716
I42
VSimpleName: setSampleRate
p8717
tp8718
a(Vinsert
p8719
I42
VSimpleName: btConeTwistConstraint_operatorNewArray__SWIG_0
p8720
tp8721
a(Vinsert
p8722
I42
VSimpleName: new_btCollisionAlgorithmConstructionInfo__SWIG_1
p8723
tp8724
a(Vinsert
p8725
I42
VSimpleName: btConeTwistConstraint_getDamping
p8726
tp8727
a(Vinsert
p8728
I42
VSimpleName: isGL20Available
p8729
tp8730
a.