(dp0
(Vinsert
p1
I42
VSimpleName: FieldMap
p2
tp3
I3
s(Vinsert
p4
I42
VSimpleName: parseHttpMethodAndPath
p5
tp6
I2
s(Vinsert
p7
I42
VSimpleName: adapt
p8
tp9
I4
s(Vinsert
p10
I42
VSimpleName: createFormData
p11
tp12
I2
s(Vinsert
p13
I42
VSimpleName: webUrl
p14
tp15
I1
s(Vinsert
p16
I40
VQualifiedName: methodInfo.requestType
p17
tp18
I1
s(Vinsert
p19
I40
VQualifiedName: error.message
p20
tp21
I1
s(Vinsert
p22
I45
VStringLiteral: "+"
p23
tp24
I1
s(Vinsert
p25
I42
VSimpleName: RequestBuilder
p26
tp27
I2
s(Vinsert
p28
I42
VSimpleName: Test
p29
tp30
I40
s(Vinsert
p31
I45
VStringLiteral: "Unsupported HTTP error code: "
p32
tp33
I1
s(Vinsert
p34
I42
VSimpleName: TestingUtils
p35
tp36
I10
s(Vinsert
p37
I45
VStringLiteral: " "
p38
tp39
I4
s(Vinsert
p40
I27
VInfixExpression: +
p41
tp42
I30
s(Vinsert
p43
I42
VSimpleName: accelerating
p44
tp45
I2
s(Vinsert
p46
I42
VSimpleName: path
p47
tp48
I2
s(Vinsert
p49
I43
VSimpleType: Json
p50
tp51
I1
s(Vinsert
p52
I42
VSimpleName: extendingGenericCallbackType
p53
tp54
I1
s(Vinsert
p55
I43
VSimpleType: Throwable
p56
tp57
I22
s(Vinsert
p58
I42
VSimpleName: RetrofitError
p59
tp60
I8
s(Vinsert
p61
I42
VSimpleName: completable
p62
tp63
I3
s(Vinsert
p64
I42
VSimpleName: isAnnotationPresent
p65
tp66
I1
s(Vinsert
p67
I43
VSimpleType: PostService
p68
tp69
I2
s(Vinsert
p70
I45
VStringLiteral: "Hello, World!"
p71
tp72
I1
s(Vinsert
p73
I42
VSimpleName: println
p74
tp75
I2
s(Vinsert
p76
I43
VSimpleType: Properties
p77
tp78
I1
s(Vinsert
p79
I83
VModifier: protected
p80
tp81
I2
s(Vinsert
p82
I42
VSimpleName: URIUtils
p83
tp84
I1
s(Vinsert
p85
I43
VSimpleType: Sample
p86
tp87
I2
s(Vinsert
p88
I43
VSimpleType: RuntimeException
p89
tp90
I6
s(Vinsert
p91
I43
VSimpleType: Matcher
p92
tp93
I2
s(Vinsert
p94
I43
VSimpleType: ServerError
p95
tp96
I1
s(Vinsert
p97
I45
VStringLiteral: " response."
p98
tp99
I1
s(Vinsert
p100
I43
VSimpleType: MediaType
p101
tp102
I4
s(Vinsert
p103
I42
VSimpleName: promise
p104
tp105
I2
s(Vinsert
p106
I43
VSimpleType: AnImplementation
p107
tp108
I4
s(Vinsert
p109
I42
VSimpleName: IllegalArgumentException
p110
tp111
I12
s(Vinsert
p112
I42
VSimpleName: Native
p113
tp114
I2
s(Vinsert
p115
I45
VStringLiteral: "Failure percentage must be between 0 and 100."
p116
tp117
I1
s(Vinsert
p118
I42
VSimpleName: CompletableSubscriber
p119
tp120
I1
s(Vinsert
p121
I43
VSimpleType: HttpPut
p122
tp123
I2
s(Vinsert
p124
I42
VSimpleName: param
p125
tp126
I3
s(Vinsert
p127
I42
VSimpleName: a2
p128
tp129
I2
s(Vinsert
p130
I45
VStringLiteral: "value"
p131
tp132
I1
s(Vinsert
p133
I42
VSimpleName: RequestInterceptorTape
p134
tp135
I2
s(Vinsert
p136
I45
VStringLiteral: "\u005cn * "
p137
tp138
I1
s(Vinsert
p139
I43
VSimpleType: JsonAdapter
p140
tp141
I2
s(Vinsert
p142
I42
VSimpleName: newJsonWriter
p143
tp144
I1
s(Vinsert
p145
I42
VSimpleName: pop
p146
tp147
I1
s(Vinsert
p148
I42
VSimpleName: getRequestProperty
p149
tp150
I4
s(Vinsert
p151
I42
VSimpleName: thing
p152
tp153
I1
s(Vinsert
p154
I42
VSimpleName: throwIfFatal
p155
tp156
I4
s(Vinsert
p157
I42
VSimpleName: Header
p158
tp159
I12
s(Vinsert
p160
I42
VSimpleName: setFixedLengthStreamingMode
p161
tp162
I1
s(Vinsert
p163
I42
VSimpleName: runnable
p164
tp165
I7
s(Vinsert
p166
I42
VSimpleName: decodeBase64
p167
tp168
I3
s(Vinsert
p169
I42
VSimpleName: s
p170
tp171
I1
s(Vinsert
p172
I45
VStringLiteral: "text/plain; charset=UTF-8"
p173
tp174
I1
s(Vinsert
p175
I42
VSimpleName: MyCallback
p176
tp177
I1
s(Vinsert
p178
I42
VSimpleName: set
p179
tp180
I10
s(Vinsert
p181
I42
VSimpleName: offset
p182
tp183
I1
s(Vinsert
p184
I42
VSimpleName: RestMethodInfo
p185
tp186
I8
s(Vinsert
p187
I46
VSuperConstructorInvocation
p188
tp189
I5
s(Vinsert
p190
I40
VQualifiedName: java.io.UnsupportedEncodingException
p191
tp192
I2
s(Vinsert
p193
I42
VSimpleName: defaultConverter
p194
tp195
I1
s(Vinsert
p196
I42
VSimpleName: prepareRequest
p197
tp198
I1
s(Vinsert
p199
I42
VSimpleName: OnSubscribe
p200
tp201
I1
s(Vinsert
p202
I42
VSimpleName: args
p203
tp204
I14
s(Vinsert
p205
I43
VSimpleType: Result
p206
tp207
I2
s(Vinsert
p208
I42
VSimpleName: assertComplete
p209
tp210
I1
s(Vinsert
p211
I42
VSimpleName: ClientMessage
p212
tp213
I1
s(Vinsert
p214
I42
VSimpleName: addPathParam
p215
tp216
I2
s(Vinsert
p217
I45
VStringLiteral: "    for method Service.wrongType"
p218
tp219
I2
s(Vinsert
p220
I42
VSimpleName: uiCallback
p221
tp222
I2
s(Vinsert
p223
I42
VSimpleName: TypedOutput
p224
tp225
I6
s(Vinsert
p226
I43
VSimpleType: Pattern
p227
tp228
I2
s(Vinsert
p229
I42
VSimpleName: endpoint
p230
tp231
I9
s(Vinsert
p232
I43
VSimpleType: com.squareup.okhttp.Request
p233
tp234
I1
s(Vinsert
p235
I42
VSimpleName: value
p236
tp237
I73
s(Vinsert
p238
I40
VQualifiedName: RetrofitError.Kind.HTTP
p239
tp240
I1
s(Vinsert
p241
I45
VStringLiteral: "Response!"
p242
tp243
I1
s(Vinsert
p244
I43
VSimpleType: TypeAdapter
p245
tp246
I3
s(Vinsert
p247
I42
VSimpleName: statusLine
p248
tp249
I2
s(Vinsert
p250
I42
VSimpleName: ErrorHandler
p251
tp252
I3
s(Vinsert
p253
I43
VSimpleType: InvocationTargetException
p254
tp255
I1
s(Vinsert
p256
I42
VSimpleName: isEqualTo
p257
tp258
I45
s(Vinsert
p259
I43
VSimpleType: Class
p260
tp261
I11
s(Vinsert
p262
I45
VStringLiteral: "ping"
p263
tp264
I4
s(Vinsert
p265
I42
VSimpleName: JsonWriter
p266
tp267
I3
s(Vinsert
p268
I40
VQualifiedName: RequestAction.JavaUriUrl
p269
tp270
I1
s(Vinsert
p271
I42
VSimpleName: getThread
p272
tp273
I1
s(Vinsert
p274
I42
VSimpleName: Headers
p275
tp276
I2
s(Vinsert
p277
I79
VSingleMemberAnnotation
p278
tp279
I1
s(Vinsert
p280
I11
VCastExpression
p281
tp282
I43
s(Vinsert
p283
I42
VSimpleName: URI
p284
tp285
I5
s(Vinsert
p286
I42
VSimpleName: PartMap
p287
tp288
I1
s(Vinsert
p289
I42
VSimpleName: delay
p290
tp291
I2
s(Vinsert
p292
I43
VSimpleType: OkHttpResponseBodyConverter
p293
tp294
I1
s(Vinsert
p295
I74
VParameterizedType: Call<? extends ResponseBody>
p296
tp297
I1
s(Vinsert
p298
I42
VSimpleName: msElapsed
p299
tp300
I1
s(Vinsert
p301
I45
VStringLiteral: "exampleName"
p302
tp303
I1
s(Vinsert
p304
I42
VSimpleName: thenReturn
p305
tp306
I2
s(Vinsert
p307
I42
VSimpleName: contentType
p308
tp309
I4
s(Vinsert
p310
I42
VSimpleName: Boolean
p311
tp312
I2
s(Vinsert
p313
I42
VSimpleName: Json
p314
tp315
I1
s(Vinsert
p316
I42
VSimpleName: rawProtoAdapter
p317
tp318
I1
s(Vinsert
p319
I42
VSimpleName: expect
p320
tp321
I1
s(Vinsert
p322
I42
VSimpleName: enqueue
p323
tp324
I31
s(Vinsert
p325
I42
VSimpleName: pair
p326
tp327
I2
s(Vinsert
p328
I42
VSimpleName: Collections
p329
tp330
I7
s(Vinsert
p331
I42
VSimpleName: header
p332
tp333
I4
s(Vinsert
p334
I42
VSimpleName: fromBody
p335
tp336
I9
s(Vinsert
p337
I42
VSimpleName: reason
p338
tp339
I6
s(Vinsert
p340
I34
VNumberLiteral: 504
p341
tp342
I1
s(Vinsert
p343
I43
VSimpleType: Call
p344
tp345
I13
s(Vinsert
p346
I74
VParameterizedType: List<Converter.Factory>
p347
tp348
I4
s(Vinsert
p349
I61
VWhileStatement
p350
tp351
I3
s(Vinsert
p352
I42
VSimpleName: foo
p353
tp354
I1
s(Vinsert
p355
I42
VSimpleName: getClass
p356
tp357
I13
s(Vinsert
p358
I42
VSimpleName: logRequest
p359
tp360
I1
s(Vinsert
p361
I42
VSimpleName: assertValue
p362
tp363
I5
s(Vinsert
p364
I42
VSimpleName: none
p365
tp366
I1
s(Vinsert
p367
I42
VSimpleName: bg
p368
tp369
I1
s(Vinsert
p370
I42
VSimpleName: backgroundExecutor
p371
tp372
I1
s(Vinsert
p373
I45
VStringLiteral: "QueryParam and QueryParams annotations are mutually exclusive."
p374
tp375
I1
s(Vinsert
p376
I43
VSimpleType: Request
p377
tp378
I14
s(Vinsert
p379
I45
VStringLiteral: "Cannot delete a null file."
p380
tp381
I1
s(Vinsert
p382
I42
VSimpleName: DownloadHandler
p383
tp384
I1
s(Vinsert
p385
I43
VSimpleType: Action1
p386
tp387
I2
s(Vinsert
p388
I43
VSimpleType: Reader
p389
tp390
I2
s(Vinsert
p391
I40
VQualifiedName: MimeType.PNG
p392
tp393
I1
s(Vinsert
p394
I43
VSimpleType: RequestBuilderAction.FieldMap
p395
tp396
I1
s(Vinsert
p397
I74
VParameterizedType: Call<String>
p398
tp399
I3
s(Vinsert
p400
I42
VSimpleName: a
p401
tp402
I17
s(Vinsert
p403
I45
VStringLiteral: "Raw response must have body."
p404
tp405
I1
s(Vinsert
p406
I43
VSimpleType: ArrayList
p407
tp408
I3
s(Vinsert
p409
I42
VSimpleName: MultipartTypedOutput
p410
tp411
I8
s(Vinsert
p412
I45
VStringLiteral: "DELETE"
p413
tp414
I1
s(Vinsert
p415
I42
VSimpleName: PARSER
p416
tp417
I1
s(Vinsert
p418
I43
VSimpleType: CallMethod
p419
tp420
I2
s(Vinsert
p421
I45
VStringLiteral: "PATCH"
p422
tp423
I1
s(Vinsert
p424
I42
VSimpleName: containsExactly
p425
tp426
I3
s(Vinsert
p427
I74
VParameterizedType: Observable<?>
p428
tp429
I3
s(Vinsert
p430
I42
VSimpleName: hasBody
p431
tp432
I2
s(Vinsert
p433
I45
VStringLiteral: "OK"
p434
tp435
I2
s(Vinsert
p436
I42
VSimpleName: headersToParse
p437
tp438
I1
s(Vinsert
p439
I39
VPrimitiveType: long
p440
tp441
I5
s(Vinsert
p442
I42
VSimpleName: After
p443
tp444
I1
s(Vinsert
p445
I34
VNumberLiteral: 8
p446
tp447
I1
s(Vinsert
p448
I45
VStringLiteral: "Header map was null."
p449
tp450
I1
s(Vinsert
p451
I43
VSimpleType: okhttp3.Response
p452
tp453
I1
s(Vinsert
p454
I42
VSimpleName: getReturnType
p455
tp456
I1
s(Vinsert
p457
I74
VParameterizedType: TypeToken<Single<Response>>
p458
tp459
I1
s(Vinsert
p460
I42
VSimpleName: Endpoint
p461
tp462
I4
s(Vinsert
p463
I42
VSimpleName: outputStream
p464
tp465
I3
s(Vinsert
p466
I42
VSimpleName: downloadHandler
p467
tp468
I1
s(Vinsert
p469
I42
VSimpleName: moshi
p470
tp471
I5
s(Vinsert
p472
I42
VSimpleName: Files
p473
tp474
I2
s(Vinsert
p475
I42
VSimpleName: hasPathParameters
p476
tp477
I1
s(Vinsert
p478
I43
VSimpleType: IllegalAccessException
p479
tp480
I1
s(Vinsert
p481
I42
VSimpleName: CHARSET
p482
tp483
I3
s(Vinsert
p484
I42
VSimpleName: interceptorTape
p485
tp486
I1
s(Vinsert
p487
I42
VSimpleName: newSuccessCall
p488
tp489
I1
s(Vinsert
p490
I42
VSimpleName: fromNullable
p491
tp492
I1
s(Vinsert
p493
I42
VSimpleName: observable
p494
tp495
I7
s(Vinsert
p496
I42
VSimpleName: substrEnd
p497
tp498
I2
s(Vinsert
p499
I43
VSimpleType: JavaType
p500
tp501
I3
s(Vinsert
p502
I27
VInfixExpression: <<
p503
tp504
I1
s(Vinsert
p505
I42
VSimpleName: convertToBytes
p506
tp507
I1
s(Vinsert
p508
I40
VQualifiedName: methodInfo.requestUrl
p509
tp510
I1
s(Vinsert
p511
I57
VTypeLiteral
p512
tp513
I60
s(Vinsert
p514
I45
VStringLiteral: "hello"
p515
tp516
I4
s(Vinsert
p517
I45
VStringLiteral: "Query param \u005c""
p518
tp519
I1
s(Vinsert
p520
I42
VSimpleName: newBuilder
p521
tp522
I4
s(Vinsert
p523
I42
VSimpleName: moveTo
p524
tp525
I1
s(Vinsert
p526
I45
VStringLiteral: "secondParam"
p527
tp528
I1
s(Vinsert
p529
I43
VSimpleType: Builder
p530
tp531
I1
s(Vinsert
p532
I43
VSimpleType: MoshiConverterFactory
p533
tp534
I1
s(Vinsert
p535
I14
VClassInstanceCreation
p536
tp537
I202
s(Vinsert
p538
I42
VSimpleName: Set
p539
tp540
I2
s(Vinsert
p541
I45
VStringLiteral: "--123--"
p542
tp543
I1
s(Vinsert
p544
I43
VSimpleType: ApacheClient
p545
tp546
I1
s(Vinsert
p547
I45
VStringLiteral: "123"
p548
tp549
I2
s(Vinsert
p550
I42
VSimpleName: ofNullable
p551
tp552
I1
s(Vinsert
p553
I42
VSimpleName: buffer
p554
tp555
I11
s(Vinsert
p556
I42
VSimpleName: parsed
p557
tp558
I1
s(Vinsert
p559
I43
VSimpleType: Closeable
p560
tp561
I1
s(Vinsert
p562
I42
VSimpleName: TypedByteArray
p563
tp564
I4
s(Vinsert
p565
I42
VSimpleName: HttpClients
p566
tp567
I1
s(Vinsert
p568
I45
VStringLiteral: "Expected onCompleted event but was "
p569
tp570
I1
s(Vinsert
p571
I27
VInfixExpression: >=
p572
tp573
I1
s(Vinsert
p574
I45
VStringLiteral: "{/* a comment! */}"
p575
tp576
I1
s(Vinsert
p577
I42
VSimpleName: requestInfo
p578
tp579
I1
s(Vinsert
p580
I43
VSimpleType: Response
p581
tp582
I43
s(Vinsert
p583
I42
VSimpleName: BasicHttpParams
p584
tp585
I1
s(Vinsert
p586
I42
VSimpleName: index
p587
tp588
I3
s(Vinsert
p589
I42
VSimpleName: List
p590
tp591
I18
s(Vinsert
p592
I40
VQualifiedName: Map.Entry
p593
tp594
I5
s(Vinsert
p595
I42
VSimpleName: Chain
p596
tp597
I1
s(Vinsert
p598
I42
VSimpleName: PARAM_NAME_REGEX
p599
tp600
I1
s(Vinsert
p601
I42
VSimpleName: getCallbackParameterType
p602
tp603
I1
s(Vinsert
p604
I40
VQualifiedName: com.google.protobuf.CodedInputStream
p605
tp606
I1
s(Vinsert
p607
I42
VSimpleName: Objects
p608
tp609
I3
s(Vinsert
p610
I43
VSimpleType: ArgumentCaptor
p611
tp612
I1
s(Vinsert
p613
I45
VStringLiteral: "."
p614
tp615
I1
s(Vinsert
p616
I43
VSimpleType: Map.Entry
p617
tp618
I5
s(Vinsert
p619
I43
VSimpleType: IllegalArgumentException
p620
tp621
I13
s(Vinsert
p622
I43
VSimpleType: NameValuePair
p623
tp624
I2
s(Vinsert
p625
I45
VStringLiteral: "@Field parameters can only be used with form encoding."
p626
tp627
I1
s(Vinsert
p628
I42
VSimpleName: methodError
p629
tp630
I2
s(Vinsert
p631
I42
VSimpleName: getOutputStream
p632
tp633
I1
s(Vinsert
p634
I43
VSimpleType: SimpleModule
p635
tp636
I2
s(Vinsert
p637
I43
VSimpleType: com.squareup.okhttp.Response.Builder
p638
tp639
I1
s(Vinsert
p640
I42
VSimpleName: realHeaders
p641
tp642
I1
s(Vinsert
p643
I42
VSimpleName: iterable
p644
tp645
I2
s(Vinsert
p646
I42
VSimpleName: disposable
p647
tp648
I2
s(Vinsert
p649
I42
VSimpleName: replace
p650
tp651
I2
s(Vinsert
p652
I42
VSimpleName: cls
p653
tp654
I3
s(Vinsert
p655
I42
VSimpleName: TEXT_PLAIN
p656
tp657
I1
s(Vinsert
p658
I45
VStringLiteral: "File is truncated. Expected length: "
p659
tp660
I1
s(Vinsert
p661
I43
VSimpleType: Helper
p662
tp663
I11
s(Vinsert
p664
I42
VSimpleName: parameterAnnotations
p665
tp666
I3
s(Vinsert
p667
I45
VStringLiteral: "GET"
p668
tp669
I7
s(Vinsert
p670
I42
VSimpleName: boundary
p671
tp672
I7
s(Vinsert
p673
I45
VStringLiteral: "rawResponse must be successful response"
p674
tp675
I1
s(Vinsert
p676
I66
VTextElement: argument or neither of the two.
p677
tp678
I1
s(Vinsert
p679
I42
VSimpleName: HEADER_NAME
p680
tp681
I1
s(Vinsert
p682
I42
VSimpleName: MultipartBody
p683
tp684
I2
s(Vinsert
p685
I40
VQualifiedName: methodInfo.requestMethod
p686
tp687
I1
s(Vinsert
p688
I42
VSimpleName: partName
p689
tp690
I1
s(Vinsert
p691
I42
VSimpleName: response
p692
tp693
I87
s(Vinsert
p694
I42
VSimpleName: getTime
p695
tp696
I1
s(Vinsert
p697
I42
VSimpleName: lenient
p698
tp699
I3
s(Vinsert
p700
I29
VJavadoc
p701
tp702
I2
s(Vinsert
p703
I45
VStringLiteral: "?"
p704
tp705
I1
s(Vinsert
p706
I40
VQualifiedName: org.easymock.EasyMock.replay
p707
tp708
I1
s(Vinsert
p709
I42
VSimpleName: string
p710
tp711
I15
s(Vinsert
p712
I42
VSimpleName: next
p713
tp714
I1
s(Vinsert
p715
I43
VSimpleType: RequestFacade
p716
tp717
I2
s(Vinsert
p718
I43
VSimpleType: Completable
p719
tp720
I1
s(Vinsert
p721
I45
VStringLiteral: "kit"
p722
tp723
I6
s(Vinsert
p724
I43
VSimpleType: TextView
p725
tp726
I1
s(Vinsert
p727
I34
VNumberLiteral: 1
p728
tp729
I18
s(Vinsert
p730
I42
VSimpleName: getFinalUrl
p731
tp732
I1
s(Vinsert
p733
I42
VSimpleName: ID
p734
tp735
I1
s(Vinsert
p736
I74
VParameterizedType: Result<R>
p737
tp738
I1
s(Vinsert
p739
I42
VSimpleName: readBodyToBytesIfNecessary
p740
tp741
I3
s(Vinsert
p742
I42
VSimpleName: AndroidApacheClient
p743
tp744
I2
s(Vinsert
p745
I42
VSimpleName: two
p746
tp747
I1
s(Vinsert
p748
I42
VSimpleName: o
p749
tp750
I9
s(Vinsert
p751
I40
VQualifiedName: RequestBuilderAction.FieldMap
p752
tp753
I1
s(Vinsert
p754
I42
VSimpleName: paramNames
p755
tp756
I1
s(Vinsert
p757
I42
VSimpleName: read
p758
tp759
I12
s(Vinsert
p760
I43
VSimpleType: Moshi
p761
tp762
I1
s(Vinsert
p763
I42
VSimpleName: CountDownLatch
p764
tp765
I4
s(Vinsert
p766
I45
VStringLiteral: " * retrofit.WireConverterFactory\u005cn"
p767
tp768
I1
s(Vinsert
p769
I42
VSimpleName: baseUrl
p770
tp771
I20
s(Vinsert
p772
I42
VSimpleName: called
p773
tp774
I1
s(Vinsert
p775
I42
VSimpleName: cancel
p776
tp777
I7
s(Vinsert
p778
I42
VSimpleName: defaultHttpClient
p779
tp780
I1
s(Vinsert
p781
I43
VSimpleType: HttpResponse
p782
tp783
I1
s(Vinsert
p784
I42
VSimpleName: CallAdapter
p785
tp786
I6
s(Vinsert
p787
I42
VSimpleName: Endpoints
p788
tp789
I2
s(Vinsert
p790
I42
VSimpleName: paramFlags
p791
tp792
I3
s(Vinsert
p793
I42
VSimpleName: mapper
p794
tp795
I2
s(Vinsert
p796
I42
VSimpleName: bytes
p797
tp798
I6
s(Vinsert
p799
I43
VSimpleType: ToStringConverterFactory
p800
tp801
I1
s(Vinsert
p802
I42
VSimpleName: Before
p803
tp804
I2
s(Vinsert
p805
I42
VSimpleName: Platform
p806
tp807
I6
s(Vinsert
p808
I42
VSimpleName: responseConverter
p809
tp810
I3
s(Vinsert
p811
I43
VSimpleType: Optional
p812
tp813
I2
s(Vinsert
p814
I33
VNullLiteral
p815
tp816
I111
s(Vinsert
p817
I42
VSimpleName: osw
p818
tp819
I3
s(Vinsert
p820
I43
VSimpleType: Type
p821
tp822
I31
s(Vinsert
p823
I42
VSimpleName: Promise
p824
tp825
I4
s(Vinsert
p826
I45
VStringLiteral: "HTTP "
p827
tp828
I3
s(Vinsert
p829
I43
VSimpleType: HttpUrl
p830
tp831
I3
s(Vinsert
p832
I42
VSimpleName: headerToParse
p833
tp834
I2
s(Vinsert
p835
I42
VSimpleName: mediaType
p836
tp837
I2
s(Vinsert
p838
I42
VSimpleName: isInstanceOf
p839
tp840
I7
s(Vinsert
p841
I43
VSimpleType: Double
p842
tp843
I1
s(Vinsert
p844
I42
VSimpleName: latch
p845
tp846
I4
s(Vinsert
p847
I42
VSimpleName: Raw
p848
tp849
I1
s(Vinsert
p850
I42
VSimpleName: candidate
p851
tp852
I2
s(Vinsert
p853
I27
VInfixExpression: >
p854
tp855
I1
s(Vinsert
p856
I74
VParameterizedType: List<Contributor>
p857
tp858
I2
s(Vinsert
p859
I42
VSimpleName: invocation
p860
tp861
I1
s(Vinsert
p862
I42
VSimpleName: MessageLite
p863
tp864
I3
s(Vinsert
p865
I42
VSimpleName: readResponse
p866
tp867
I2
s(Vinsert
p868
I42
VSimpleName: unwrapIOException
p869
tp870
I1
s(Vinsert
p871
I42
VSimpleName: throwsCustomException
p872
tp873
I1
s(Vinsert
p874
I74
VParameterizedType: Call<List<Contributor>>
p875
tp876
I1
s(Vinsert
p877
I42
VSimpleName: converted
p878
tp879
I1
s(Vinsert
p880
I45
VStringLiteral: "\u005c" value must not be null."
p881
tp882
I2
s(Vinsert
p883
I42
VSimpleName: chunkSize
p884
tp885
I1
s(Vinsert
p886
I42
VSimpleName: parameterAnnotationsRef
p887
tp888
I1
s(Vinsert
p889
I42
VSimpleName: to
p890
tp891
I2
s(Vinsert
p892
I42
VSimpleName: Okio
p893
tp894
I1
s(Vinsert
p895
I42
VSimpleName: failureException
p896
tp897
I1
s(Vinsert
p898
I42
VSimpleName: GenericArrayType
p899
tp900
I2
s(Vinsert
p901
I42
VSimpleName: wildcardUpperBound
p902
tp903
I1
s(Vinsert
p904
I42
VSimpleName: getDeclaredField
p905
tp906
I2
s(Vinsert
p907
I42
VSimpleName: module
p908
tp909
I2
s(Vinsert
p910
I66
VTextElement: .
p911
tp912
I1
s(Vinsert
p913
I42
VSimpleName: expectFailure
p914
tp915
I1
s(Vinsert
p916
I45
VStringLiteral: "a.png"
p917
tp918
I1
s(Vinsert
p919
I42
VSimpleName: Query
p920
tp921
I2
s(Vinsert
p922
I42
VSimpleName: actual
p923
tp924
I1
s(Vinsert
p925
I43
VSimpleType: RequestAction.JavaUriUrl
p926
tp927
I1
s(Vinsert
p928
I74
VParameterizedType: CallAdapter<Object,Observable<?>>
p929
tp930
I1
s(Vinsert
p931
I43
VSimpleType: Handler
p932
tp933
I3
s(Vinsert
p934
I42
VSimpleName: hasOkHttpOnClasspath
p935
tp936
I1
s(Vinsert
p937
I43
VSimpleType: MethodHandler
p938
tp939
I2
s(Vinsert
p940
I34
VNumberLiteral: 31
p941
tp942
I1
s(Vinsert
p943
I45
VStringLiteral: "Hi!"
p944
tp945
I1
s(Vinsert
p946
I2
VArrayAccess
p947
tp948
I14
s(Vinsert
p949
I42
VSimpleName: statusCode
p950
tp951
I2
s(Vinsert
p952
I42
VSimpleName: writeCount
p953
tp954
I2
s(Vinsert
p955
I42
VSimpleName: Server
p956
tp957
I1
s(Vinsert
p958
I42
VSimpleName: setConnectTimeout
p959
tp960
I4
s(Vinsert
p961
I42
VSimpleName: UnsupportedOperationException
p962
tp963
I1
s(Vinsert
p964
I40
VQualifiedName: StringConverterFactory.StringConverter
p965
tp966
I1
s(Vinsert
p967
I1
VAnonymousClassDeclaration
p968
tp969
I24
s(Vinsert
p970
I45
VStringLiteral: "abc"
p971
tp972
I1
s(Vinsert
p973
I42
VSimpleName: QueryParam
p974
tp975
I1
s(Vinsert
p976
I42
VSimpleName: ObservableCallAdapterFactory
p977
tp978
I1
s(Vinsert
p979
I42
VSimpleName: d
p980
tp981
I1
s(Vinsert
p982
I42
VSimpleName: isExecuted
p983
tp984
I2
s(Vinsert
p985
I42
VSimpleName: Math
p986
tp987
I1
s(Vinsert
p988
I42
VSimpleName: mimeType
p989
tp990
I19
s(Vinsert
p991
I42
VSimpleName: request
p992
tp993
I83
s(Vinsert
p994
I42
VSimpleName: iterableType
p995
tp996
I2
s(Vinsert
p997
I43
VSimpleType: com.google.protobuf.CodedInputStream
p998
tp999
I1
s(Vinsert
p1000
I42
VSimpleName: TypedString
p1001
tp1002
I4
s(Vinsert
p1003
I43
VSimpleType: ErrorHandler
p1004
tp1005
I2
s(Vinsert
p1006
I42
VSimpleName: sync
p1007
tp1008
I5
s(Vinsert
p1009
I42
VSimpleName: getType
p1010
tp1011
I7
s(Vinsert
p1012
I42
VSimpleName: ownerType
p1013
tp1014
I3
s(Vinsert
p1015
I45
VStringLiteral: "http://example.com/foo/bar/"
p1016
tp1017
I1
s(Vinsert
p1018
I43
VSimpleType: LinkedHashMap
p1019
tp1020
I3
s(Vinsert
p1021
I42
VSimpleName: setQuery
p1022
tp1023
I1
s(Vinsert
p1024
I74
VParameterizedType: Converter<?,String>
p1025
tp1026
I1
s(Vinsert
p1027
I42
VSimpleName: getMessage
p1028
tp1029
I5
s(Vinsert
p1030
I42
VSimpleName: httpMultipartField
p1031
tp1032
I1
s(Vinsert
p1033
I42
VSimpleName: addAll
p1034
tp1035
I3
s(Vinsert
p1036
I40
VQualifiedName: com.google.gson.TypeAdapter
p1037
tp1038
I1
s(Vinsert
p1039
I40
VQualifiedName: MockRetrofit.Builder
p1040
tp1041
I2
s(Vinsert
p1042
I42
VSimpleName: retrofitRef
p1043
tp1044
I2
s(Vinsert
p1045
I39
VPrimitiveType: byte
p1046
tp1047
I18
s(Vinsert
p1048
I42
VSimpleName: addInterceptorQueryParam
p1049
tp1050
I1
s(Vinsert
p1051
I42
VSimpleName: getResponseObj
p1052
tp1053
I2
s(Vinsert
p1054
I42
VSimpleName: ConversionException
p1055
tp1056
I1
s(Vinsert
p1057
I45
VStringLiteral: "@PartMap parameters can only be used with multipart encoding."
p1058
tp1059
I1
s(Vinsert
p1060
I42
VSimpleName: PutService
p1061
tp1062
I1
s(Vinsert
p1063
I42
VSimpleName: serverError
p1064
tp1065
I1
s(Vinsert
p1066
I42
VSimpleName: Body
p1067
tp1068
I2
s(Vinsert
p1069
I42
VSimpleName: ignored
p1070
tp1071
I2
s(Vinsert
p1072
I42
VSimpleName: interceptors
p1073
tp1074
I1
s(Vinsert
p1075
I42
VSimpleName: methodHandlerCache
p1076
tp1077
I1
s(Vinsert
p1078
I42
VSimpleName: HttpUriRequest
p1079
tp1080
I2
s(Vinsert
p1081
I45
VStringLiteral: "charset == null"
p1082
tp1083
I1
s(Vinsert
p1084
I42
VSimpleName: responseCallable
p1085
tp1086
I1
s(Vinsert
p1087
I42
VSimpleName: RestAdapter
p1088
tp1089
I4
s(Vinsert
p1090
I45
VStringLiteral: "dog\u005cr\u005cn"
p1091
tp1092
I1
s(Vinsert
p1093
I42
VSimpleName: from
p1094
tp1095
I2
s(Vinsert
p1096
I42
VSimpleName: Contributor
p1097
tp1098
I3
s(Vinsert
p1099
I42
VSimpleName: valueConverter
p1100
tp1101
I1
s(Vinsert
p1102
I42
VSimpleName: method
p1103
tp1104
I46
s(Vinsert
p1105
I42
VSimpleName: TextView
p1106
tp1107
I1
s(Vinsert
p1108
I34
VNumberLiteral: 500
p1109
tp1110
I1
s(Vinsert
p1111
I42
VSimpleName: parseResult
p1112
tp1113
I1
s(Vinsert
p1114
I42
VSimpleName: expectCallAndResponse
p1115
tp1116
I1
s(Vinsert
p1117
I42
VSimpleName: Completable
p1118
tp1119
I1
s(Vinsert
p1120
I42
VSimpleName: HttpConnectionParams
p1121
tp1122
I1
s(Vinsert
p1123
I76
VWildcardType: ? extends Annotation
p1124
tp1125
I1
s(Vinsert
p1126
I45
VStringLiteral: "text/greeting"
p1127
tp1128
I1
s(Vinsert
p1129
I42
VSimpleName: object
p1130
tp1131
I4
s(Vinsert
p1132
I42
VSimpleName: getSuccessType
p1133
tp1134
I2
s(Vinsert
p1135
I42
VSimpleName: malformedResponse
p1136
tp1137
I2
s(Vinsert
p1138
I42
VSimpleName: gson
p1139
tp1140
I15
s(Vinsert
p1141
I42
VSimpleName: Array
p1142
tp1143
I4
s(Vinsert
p1144
I42
VSimpleName: addFormField
p1145
tp1146
I1
s(Vinsert
p1147
I42
VSimpleName: extensionsAreInitialized
p1148
tp1149
I1
s(Vinsert
p1150
I42
VSimpleName: isEqualToIgnoringCase
p1151
tp1152
I4
s(Vinsert
p1153
I45
VStringLiteral: "Only methods having %s as response data type are allowed to have @%s annotation."
p1154
tp1155
I1
s(Vinsert
p1156
I42
VSimpleName: OkClient
p1157
tp1158
I1
s(Vinsert
p1159
I42
VSimpleName: RxJavaPlugins
p1160
tp1161
I8
s(Vinsert
p1162
I42
VSimpleName: returning
p1163
tp1164
I2
s(Vinsert
p1165
I43
VSimpleType: Response.Builder
p1166
tp1167
I3
s(Vinsert
p1168
I43
VSimpleType: Headers
p1169
tp1170
I2
s(Vinsert
p1171
I42
VSimpleName: defaultClient
p1172
tp1173
I1
s(Vinsert
p1174
I42
VSimpleName: colon
p1175
tp1176
I2
s(Vinsert
p1177
I42
VSimpleName: requestHasBody
p1178
tp1179
I3
s(Vinsert
p1180
I42
VSimpleName: queryParam
p1181
tp1182
I1
s(Vinsert
p1183
I42
VSimpleName: valueOf
p1184
tp1185
I4
s(Vinsert
p1186
I42
VSimpleName: getStatusLine
p1187
tp1188
I1
s(Vinsert
p1189
I42
VSimpleName: getGenericReturnType
p1190
tp1191
I1
s(Vinsert
p1192
I32
VMethodInvocation
p1193
tp1194
I1574
s(Vinsert
p1195
I42
VSimpleName: charStream
p1196
tp1197
I2
s(Vinsert
p1198
I45
VStringLiteral: "iB94gawbwUSiZy5FuruIOQ=="
p1199
tp1200
I1
s(Vinsert
p1201
I42
VSimpleName: setClient
p1202
tp1203
I1
s(Vinsert
p1204
I42
VSimpleName: AssertionError
p1205
tp1206
I5
s(Vinsert
p1207
I42
VSimpleName: requestUrl
p1208
tp1209
I7
s(Vinsert
p1210
I42
VSimpleName: urlBuilder
p1211
tp1212
I1
s(Vinsert
p1213
I45
VStringLiteral: "bar"
p1214
tp1215
I1
s(Vinsert
p1216
I43
VSimpleType: Converter.Factory
p1217
tp1218
I4
s(Vinsert
p1219
I45
VStringLiteral: "{\u005c"theName\u005c":value}"
p1220
tp1221
I1
s(Vinsert
p1222
I66
VTextElement: Result: https://github.com/square/retrofit/
p1223
tp1224
I1
s(Vinsert
p1225
I42
VSimpleName: toRequest
p1226
tp1227
I1
s(Vinsert
p1228
I3
VArrayCreation
p1229
tp1230
I1
s(Vinsert
p1231
I43
VSimpleType: HttpProfiler.Method
p1232
tp1233
I1
s(Vinsert
p1234
I42
VSimpleName: addPair
p1235
tp1236
I2
s(Vinsert
p1237
I42
VSimpleName: HttpPut
p1238
tp1239
I2
s(Vinsert
p1240
I43
VSimpleType: TypedString
p1241
tp1242
I4
s(Vinsert
p1243
I43
VSimpleType: Retrofit.Builder
p1244
tp1245
I22
s(Vinsert
p1246
I45
VStringLiteral: "hello world"
p1247
tp1248
I1
s(Vinsert
p1249
I42
VSimpleName: HeaderPair
p1250
tp1251
I3
s(Vinsert
p1252
I42
VSimpleName: Result
p1253
tp1254
I3
s(Vinsert
p1255
I42
VSimpleName: isSingle
p1256
tp1257
I2
s(Vinsert
p1258
I42
VSimpleName: elapsedTime
p1259
tp1260
I1
s(Vinsert
p1261
I42
VSimpleName: test
p1262
tp1263
I2
s(Vinsert
p1264
I42
VSimpleName: ByteString
p1265
tp1266
I4
s(Vinsert
p1267
I42
VSimpleName: CallArbiter
p1268
tp1269
I2
s(Vinsert
p1270
I42
VSimpleName: anImplementation
p1271
tp1272
I3
s(Vinsert
p1273
I43
VSimpleType: MethodDetails
p1274
tp1275
I2
s(Vinsert
p1276
I45
VStringLiteral: "I'm broken!"
p1277
tp1278
I1
s(Vinsert
p1279
I42
VSimpleName: nonMatchingFactory2
p1280
tp1281
I1
s(Vinsert
p1282
I43
VSimpleType: TypeToken
p1283
tp1284
I3
s(Vinsert
p1285
I42
VSimpleName: isZero
p1286
tp1287
I3
s(Vinsert
p1288
I43
VSimpleType: OnErrorNotImplementedException
p1289
tp1290
I3
s(Vinsert
p1291
I42
VSimpleName: getDeclaredMethod
p1292
tp1293
I3
s(Vinsert
p1294
I42
VSimpleName: observableCallsInterceptorForEverySubscription
p1295
tp1296
I1
s(Vinsert
p1297
I42
VSimpleName: fetchResponse
p1298
tp1299
I2
s(Vinsert
p1300
I42
VSimpleName: createParamList
p1301
tp1302
I2
s(Vinsert
p1303
I43
VSimpleType: Headers.Builder
p1304
tp1305
I1
s(Vinsert
p1306
I42
VSimpleName: init
p1307
tp1308
I7
s(Vinsert
p1309
I42
VSimpleName: MainThreadExecutor
p1310
tp1311
I1
s(Vinsert
p1312
I45
VStringLiteral: "Content-Type"
p1313
tp1314
I7
s(Vinsert
p1315
I42
VSimpleName: createErrorResponse
p1316
tp1317
I1
s(Vinsert
p1318
I42
VSimpleName: entityToBytes
p1319
tp1320
I1
s(Vinsert
p1321
I42
VSimpleName: matcher
p1322
tp1323
I4
s(Vinsert
p1324
I42
VSimpleName: BODY
p1325
tp1326
I1
s(Vinsert
p1327
I43
VSimpleType: MimePart
p1328
tp1329
I1
s(Vinsert
p1330
I43
VSimpleType: ConversionException
p1331
tp1332
I1
s(Vinsert
p1333
I42
VSimpleName: task
p1334
tp1335
I1
s(Vinsert
p1336
I42
VSimpleName: a1
p1337
tp1338
I4
s(Vinsert
p1339
I42
VSimpleName: queue
p1340
tp1341
I1
s(Vinsert
p1342
I42
VSimpleName: JavaType
p1343
tp1344
I3
s(Vinsert
p1345
I45
VStringLiteral: "header name was null"
p1346
tp1347
I1
s(Vinsert
p1348
I45
VStringLiteral: "hashCode"
p1349
tp1350
I1
s(Vinsert
p1351
I42
VSimpleName: Behavior
p1352
tp1353
I1
s(Vinsert
p1354
I74
VParameterizedType: CallAdapter<?>
p1355
tp1356
I3
s(Vinsert
p1357
I42
VSimpleName: RequestBody
p1358
tp1359
I21
s(Vinsert
p1360
I40
VQualifiedName: serviceMethod.callAdapter
p1361
tp1362
I1
s(Vinsert
p1363
I42
VSimpleName: callSuccess
p1364
tp1365
I1
s(Vinsert
p1366
I42
VSimpleName: r
p1367
tp1368
I4
s(Vinsert
p1369
I42
VSimpleName: getAllHeaders
p1370
tp1371
I1
s(Vinsert
p1372
I27
VInfixExpression: ||
p1373
tp1374
I8
s(Vinsert
p1375
I40
VQualifiedName: com.google.gson.reflect.TypeToken
p1376
tp1377
I1
s(Vinsert
p1378
I42
VSimpleName: requestLine
p1379
tp1380
I2
s(Vinsert
p1381
I42
VSimpleName: endMessage
p1382
tp1383
I1
s(Vinsert
p1384
I43
VSimpleType: ResponseBody
p1385
tp1386
I26
s(Vinsert
p1387
I45
VStringLiteral: "foobarbaz"
p1388
tp1389
I1
s(Vinsert
p1390
I42
VSimpleName: Reader
p1391
tp1392
I2
s(Vinsert
p1393
I74
VParameterizedType: Iterable<?>
p1394
tp1395
I1
s(Vinsert
p1396
I42
VSimpleName: ce
p1397
tp1398
I2
s(Vinsert
p1399
I42
VSimpleName: reset
p1400
tp1401
I1
s(Vinsert
p1402
I42
VSimpleName: parts
p1403
tp1404
I2
s(Vinsert
p1405
I42
VSimpleName: Service
p1406
tp1407
I10
s(Vinsert
p1408
I34
VNumberLiteral: 5
p1409
tp1410
I4
s(Vinsert
p1411
I43
VSimpleType: ServiceMethod
p1412
tp1413
I1
s(Vinsert
p1414
I42
VSimpleName: POST
p1415
tp1416
I1
s(Vinsert
p1417
I42
VSimpleName: defaultInstance
p1418
tp1419
I1
s(Vinsert
p1420
I42
VSimpleName: builder
p1421
tp1422
I14
s(Vinsert
p1423
I42
VSimpleName: executed
p1424
tp1425
I1
s(Vinsert
p1426
I45
VStringLiteral: "Canceled"
p1427
tp1428
I1
s(Vinsert
p1429
I45
VStringLiteral: "Expected {1, 2, 3}. Got "
p1430
tp1431
I1
s(Vinsert
p1432
I43
VSimpleType: ByteArrayOutputStream
p1433
tp1434
I8
s(Vinsert
p1435
I43
VSimpleType: JsonWriter
p1436
tp1437
I2
s(Vinsert
p1438
I42
VSimpleName: name
p1439
tp1440
I17
s(Vinsert
p1441
I42
VSimpleName: toBlocking
p1442
tp1443
I1
s(Vinsert
p1444
I42
VSimpleName: url
p1445
tp1446
I28
s(Vinsert
p1447
I42
VSimpleName: Observable
p1448
tp1449
I9
s(Vinsert
p1450
I42
VSimpleName: ByteArrayOutputStream
p1451
tp1452
I8
s(Vinsert
p1453
I43
VSimpleType: MockWebServer
p1454
tp1455
I2
s(Vinsert
p1456
I74
VParameterizedType: BehaviorDelegate<DoWorkService>
p1457
tp1458
I1
s(Vinsert
p1459
I42
VSimpleName: ClassCastException
p1460
tp1461
I1
s(Vinsert
p1462
I45
VStringLiteral: "nope"
p1463
tp1464
I1
s(Vinsert
p1465
I42
VSimpleName: protoConverter
p1466
tp1467
I1
s(Vinsert
p1468
I42
VSimpleName: hasReturnType
p1469
tp1470
I1
s(Vinsert
p1471
I42
VSimpleName: isNull
p1472
tp1473
I1
s(Vinsert
p1474
I45
VStringLiteral: "callback == null"
p1475
tp1476
I1
s(Vinsert
p1477
I42
VSimpleName: replacedRelativePath
p1478
tp1479
I2
s(Vinsert
p1480
I42
VSimpleName: setAccessible
p1481
tp1482
I1
s(Vinsert
p1483
I42
VSimpleName: GuavaOptionalConverterFactory
p1484
tp1485
I1
s(Vinsert
p1486
I40
VQualifiedName: retrofit.GsonConverterFactory
p1487
tp1488
I1
s(Vinsert
p1489
I43
VSimpleType: OnCompletedFailedException
p1490
tp1491
I4
s(Vinsert
p1492
I74
VParameterizedType: AtomicReference<Throwable>
p1493
tp1494
I1
s(Vinsert
p1495
I42
VSimpleName: Moshi
p1496
tp1497
I2
s(Vinsert
p1498
I42
VSimpleName: invoke
p1499
tp1500
I3
s(Vinsert
p1501
I74
VParameterizedType: UiCallback<?>
p1502
tp1503
I1
s(Vinsert
p1504
I42
VSimpleName: rawParameterType
p1505
tp1506
I3
s(Vinsert
p1507
I42
VSimpleName: getInt
p1508
tp1509
I1
s(Vinsert
p1510
I42
VSimpleName: methodField
p1511
tp1512
I1
s(Vinsert
p1513
I27
VInfixExpression: ==
p1514
tp1515
I45
s(Vinsert
p1516
I43
VSimpleType: Phone
p1517
tp1518
I3
s(Vinsert
p1519
I9
VBooleanLiteral: true
p1520
tp1521
I14
s(Vinsert
p1522
I42
VSimpleName: queueFile
p1523
tp1524
I1
s(Vinsert
p1525
I42
VSimpleName: callback
p1526
tp1527
I16
s(Vinsert
p1528
I42
VSimpleName: factoryCalled
p1529
tp1530
I1
s(Vinsert
p1531
I43
VSimpleType: ClassCastException
p1532
tp1533
I1
s(Vinsert
p1534
I58
VVariableDeclarationExpression
p1535
tp1536
I9
s(Vinsert
p1537
I42
VSimpleName: count
p1538
tp1539
I10
s(Vinsert
p1540
I40
VQualifiedName: RequestType.FORM_ENCODED
p1541
tp1542
I1
s(Vinsert
p1543
I42
VSimpleName: resultType
p1544
tp1545
I1
s(Vinsert
p1546
I42
VSimpleName: Single
p1547
tp1548
I3
s(Vinsert
p1549
I42
VSimpleName: T
p1550
tp1551
I46
s(Vinsert
p1552
I42
VSimpleName: Executor
p1553
tp1554
I3
s(Vinsert
p1555
I45
VStringLiteral: "414"
p1556
tp1557
I1
s(Vinsert
p1558
I42
VSimpleName: converterFactory
p1559
tp1560
I2
s(Vinsert
p1561
I42
VSimpleName: RecordingMaybeObserver
p1562
tp1563
I1
s(Vinsert
p1564
I43
VSimpleType: Behavior
p1565
tp1566
I1
s(Vinsert
p1567
I45
VStringLiteral: "<my-object><message>hello world</message><count>10</count></my-object>"
p1568
tp1569
I1
s(Vinsert
p1570
I42
VSimpleName: headerBuilder
p1571
tp1572
I2
s(Vinsert
p1573
I43
VSimpleType: NonMatchingConverterFactory
p1574
tp1575
I1
s(Vinsert
p1576
I42
VSimpleName: javaType
p1577
tp1578
I3
s(Vinsert
p1579
I43
VSimpleType: HttpUriRequest
p1580
tp1581
I2
s(Vinsert
p1582
I42
VSimpleName: VoidConverter
p1583
tp1584
I1
s(Vinsert
p1585
I74
VParameterizedType: List<byte[]>
p1586
tp1587
I1
s(Vinsert
p1588
I42
VSimpleName: dir
p1589
tp1590
I1
s(Vinsert
p1591
I42
VSimpleName: BUFFER_SIZE
p1592
tp1593
I2
s(Vinsert
p1594
I42
VSimpleName: unexpectedError
p1595
tp1596
I5
s(Vinsert
p1597
I42
VSimpleName: testObservableCallsOperatorsOffHttpExecutor
p1598
tp1599
I1
s(Vinsert
p1600
I42
VSimpleName: AsyncCallback
p1601
tp1602
I1
s(Vinsert
p1603
I43
VSimpleType: Callback
p1604
tp1605
I3
s(Vinsert
p1606
I45
VStringLiteral: "HTTP 404 Client Error"
p1607
tp1608
I4
s(Vinsert
p1609
I42
VSimpleName: MAX_WINDOW_SIZE
p1610
tp1611
I2
s(Vinsert
p1612
I42
VSimpleName: MimeHelper
p1613
tp1614
I2
s(Vinsert
p1615
I42
VSimpleName: properties
p1616
tp1617
I2
s(Vinsert
p1618
I42
VSimpleName: addConverterFactory
p1619
tp1620
I8
s(Vinsert
p1621
I42
VSimpleName: NameValuePair
p1622
tp1623
I2
s(Vinsert
p1624
I42
VSimpleName: responseSuccess404
p1625
tp1626
I2
s(Vinsert
p1627
I45
VStringLiteral: "Hey"
p1628
tp1629
I1
s(Vinsert
p1630
I42
VSimpleName: Observer
p1631
tp1632
I1
s(Vinsert
p1633
I42
VSimpleName: getAnnotation
p1634
tp1635
I1
s(Vinsert
p1636
I42
VSimpleName: isLoggable
p1637
tp1638
I2
s(Vinsert
p1639
I45
VStringLiteral: "Response content type was not a proto: "
p1640
tp1641
I1
s(Vinsert
p1642
I42
VSimpleName: forClass
p1643
tp1644
I1
s(Vinsert
p1645
I42
VSimpleName: mimeParts
p1646
tp1647
I1
s(Vinsert
p1648
I42
VSimpleName: isSynchronousInvocation
p1649
tp1650
I1
s(Vinsert
p1651
I42
VSimpleName: testNonNull
p1652
tp1653
I1
s(Vinsert
p1654
I42
VSimpleName: mto
p1655
tp1656
I5
s(Vinsert
p1657
I43
VSimpleType: BasicHttpParams
p1658
tp1659
I1
s(Vinsert
p1660
I45
VStringLiteral: "/foo/bar/"
p1661
tp1662
I7
s(Vinsert
p1663
I42
VSimpleName: isDefault
p1664
tp1665
I1
s(Vinsert
p1666
I16
VConditionalExpression
p1667
tp1668
I10
s(Vinsert
p1669
I42
VSimpleName: assertBody
p1670
tp1671
I2
s(Vinsert
p1672
I42
VSimpleName: arrayLength
p1673
tp1674
I2
s(Vinsert
p1675
I42
VSimpleName: responseCaptor
p1676
tp1677
I1
s(Vinsert
p1678
I40
VQualifiedName: org.easymock.EasyMock.expectLastCall
p1679
tp1680
I1
s(Vinsert
p1681
I42
VSimpleName: takeRequest
p1682
tp1683
I3
s(Vinsert
p1684
I42
VSimpleName: parse
p1685
tp1686
I12
s(Vinsert
p1687
I42
VSimpleName: SuppressWarnings
p1688
tp1689
I1
s(Vinsert
p1690
I45
VStringLiteral: "whatever"
p1691
tp1692
I1
s(Vinsert
p1693
I43
VSimpleType: Single
p1694
tp1695
I2
s(Vinsert
p1696
I42
VSimpleName: mockHeaders
p1697
tp1698
I1
s(Vinsert
p1699
I42
VSimpleName: mockClient
p1700
tp1701
I5
s(Vinsert
p1702
I45
VStringLiteral: "Transfer encoding must not be null."
p1703
tp1704
I1
s(Vinsert
p1705
I40
VQualifiedName: other.unknownFields
p1706
tp1707
I1
s(Vinsert
p1708
I43
VSimpleType: CompletableSubscriber
p1709
tp1710
I1
s(Vinsert
p1711
I42
VSimpleName: getInstance
p1712
tp1713
I9
s(Vinsert
p1714
I42
VSimpleName: result
p1715
tp1716
I9
s(Vinsert
p1717
I9
VBooleanLiteral: false
p1718
tp1719
I8
s(Vinsert
p1720
I42
VSimpleName: nanoTime
p1721
tp1722
I1
s(Vinsert
p1723
I42
VSimpleName: objAsXML
p1724
tp1725
I1
s(Vinsert
p1726
I42
VSimpleName: parser
p1727
tp1728
I1
s(Vinsert
p1729
I42
VSimpleName: onError
p1730
tp1731
I2
s(Vinsert
p1732
I43
VSimpleType: HeaderPair
p1733
tp1734
I3
s(Vinsert
p1735
I43
VSimpleType: UiCallback
p1736
tp1737
I1
s(Vinsert
p1738
I42
VSimpleName: assertTrue
p1739
tp1740
I4
s(Vinsert
p1741
I45
VStringLiteral: "ListenableFuture must have generic type (e.g., ListenableFuture<ResponseBody>)"
p1742
tp1743
I1
s(Vinsert
p1744
I42
VSimpleName: clearExtension
p1745
tp1746
I1
s(Vinsert
p1747
I42
VSimpleName: error
p1748
tp1749
I11
s(Vinsert
p1750
I65
VTagElement
p1751
tp1752
I2
s(Vinsert
p1753
I42
VSimpleName: getActualTypeArguments
p1754
tp1755
I3
s(Vinsert
p1756
I42
VSimpleName: subscriberRule
p1757
tp1758
I16
s(Vinsert
p1759
I42
VSimpleName: Closeable
p1760
tp1761
I1
s(Vinsert
p1762
I45
VStringLiteral: "Could not locate converter for class java.lang.String. Tried:\u005cn"
p1763
tp1764
I3
s(Vinsert
p1765
I42
VSimpleName: startNanos
p1766
tp1767
I1
s(Vinsert
p1768
I42
VSimpleName: baseName
p1769
tp1770
I1
s(Vinsert
p1771
I42
VSimpleName: Path
p1772
tp1773
I2
s(Vinsert
p1774
I42
VSimpleName: relativeUrl
p1775
tp1776
I3
s(Vinsert
p1777
I42
VSimpleName: success
p1778
tp1779
I4
s(Vinsert
p1780
I42
VSimpleName: responseObservable
p1781
tp1782
I1
s(Vinsert
p1783
I40
VQualifiedName: headers.length
p1784
tp1785
I1
s(Vinsert
p1786
I42
VSimpleName: newCall
p1787
tp1788
I1
s(Vinsert
p1789
I42
VSimpleName: serviceMethod
p1790
tp1791
I1
s(Vinsert
p1792
I42
VSimpleName: isSameAs
p1793
tp1794
I2
s(Vinsert
p1795
I42
VSimpleName: handleError
p1796
tp1797
I4
s(Vinsert
p1798
I45
VStringLiteral: "hi=mom"
p1799
tp1800
I1
s(Vinsert
p1801
I42
VSimpleName: setBody
p1802
tp1803
I9
s(Vinsert
p1804
I42
VSimpleName: realHeader
p1805
tp1806
I2
s(Vinsert
p1807
I42
VSimpleName: RecordingSubscriber
p1808
tp1809
I2
s(Vinsert
p1810
I42
VSimpleName: notification
p1811
tp1812
I3
s(Vinsert
p1813
I42
VSimpleName: file
p1814
tp1815
I3
s(Vinsert
p1816
I42
VSimpleName: genericParameterTypes
p1817
tp1818
I1
s(Vinsert
p1819
I42
VSimpleName: profilerMethod
p1820
tp1821
I1
s(Vinsert
p1822
I40
VQualifiedName: retrofit.baseUrl
p1823
tp1824
I1
s(Vinsert
p1825
I43
VSimpleType: Executor
p1826
tp1827
I1
s(Vinsert
p1828
I43
VSimpleType: StringConverterFactory
p1829
tp1830
I4
s(Vinsert
p1831
I45
VStringLiteral: "%20"
p1832
tp1833
I1
s(Vinsert
p1834
I42
VSimpleName: setFailurePercent
p1835
tp1836
I1
s(Vinsert
p1837
I42
VSimpleName: converter
p1838
tp1839
I25
s(Vinsert
p1840
I42
VSimpleName: single
p1841
tp1842
I2
s(Vinsert
p1843
I42
VSimpleName: expectResponseCalls
p1844
tp1845
I1
s(Vinsert
p1846
I42
VSimpleName: instance
p1847
tp1848
I1
s(Vinsert
p1849
I42
VSimpleName: httpClientProvider
p1850
tp1851
I1
s(Vinsert
p1852
I42
VSimpleName: PATCH
p1853
tp1854
I2
s(Vinsert
p1855
I42
VSimpleName: clientError
p1856
tp1857
I1
s(Vinsert
p1858
I42
VSimpleName: sessionExpired
p1859
tp1860
I1
s(Vinsert
p1861
I42
VSimpleName: toArray
p1862
tp1863
I2
s(Vinsert
p1864
I42
VSimpleName: errorRef
p1865
tp1866
I5
s(Vinsert
p1867
I42
VSimpleName: stream
p1868
tp1869
I2
s(Vinsert
p1870
I42
VSimpleName: message
p1871
tp1872
I18
s(Vinsert
p1873
I74
VParameterizedType: Map<Method,MethodHandler<?>>
p1874
tp1875
I1
s(Vinsert
p1876
I45
VStringLiteral: "application/xml; charset=UTF-8"
p1877
tp1878
I1
s(Vinsert
p1879
I42
VSimpleName: File
p1880
tp1881
I4
s(Vinsert
p1882
I43
VSimpleType: OPTIONS
p1883
tp1884
I2
s(Vinsert
p1885
I43
VSimpleType: HttpURLConnection
p1886
tp1887
I1
s(Vinsert
p1888
I42
VSimpleName: call1
p1889
tp1890
I1
s(Vinsert
p1891
I42
VSimpleName: getChannel
p1892
tp1893
I1
s(Vinsert
p1894
I42
VSimpleName: pathQueryParams
p1895
tp1896
I1
s(Vinsert
p1897
I42
VSimpleName: mimeName
p1898
tp1899
I4
s(Vinsert
p1900
I42
VSimpleName: getAdapter
p1901
tp1902
I3
s(Vinsert
p1903
I43
VSimpleType: TypedOutputBody
p1904
tp1905
I2
s(Vinsert
p1906
I42
VSimpleName: responseToException
p1907
tp1908
I1
s(Vinsert
p1909
I34
VNumberLiteral: 0
p1910
tp1911
I24
s(Vinsert
p1912
I42
VSimpleName: getSimpleName
p1913
tp1914
I4
s(Vinsert
p1915
I42
VSimpleName: append
p1916
tp1917
I10
s(Vinsert
p1918
I45
VStringLiteral: "  Tried:"
p1919
tp1920
I1
s(Vinsert
p1921
I74
VParameterizedType: OnSubscribe<?>
p1922
tp1923
I1
s(Vinsert
p1924
I43
VSimpleType: ByteString
p1925
tp1926
I1
s(Vinsert
p1927
I70
VEnhancedForStatement
p1928
tp1929
I15
s(Vinsert
p1930
I42
VSimpleName: MockWebServer
p1931
tp1932
I2
s(Vinsert
p1933
I42
VSimpleName: keyType
p1934
tp1935
I1
s(Vinsert
p1936
I42
VSimpleName: setInputStream
p1937
tp1938
I1
s(Vinsert
p1939
I42
VSimpleName: obtainResponse
p1940
tp1941
I1
s(Vinsert
p1942
I42
VSimpleName: getCallResponseType
p1943
tp1944
I3
s(Vinsert
p1945
I42
VSimpleName: HttpUrl
p1946
tp1947
I5
s(Vinsert
p1948
I42
VSimpleName: action
p1949
tp1950
I1
s(Vinsert
p1951
I68
VMethodRef
p1952
tp1953
I1
s(Vinsert
p1954
I45
VStringLiteral: "Greetings"
p1955
tp1956
I1
s(Vinsert
p1957
I40
VQualifiedName: body.theName
p1958
tp1959
I1
s(Vinsert
p1960
I42
VSimpleName: HttpException
p1961
tp1962
I6
s(Vinsert
p1963
I42
VSimpleName: BehaviorDelegate
p1964
tp1965
I1
s(Vinsert
p1966
I42
VSimpleName: HttpEntityEnclosingRequest
p1967
tp1968
I2
s(Vinsert
p1969
I42
VSimpleName: fileLength
p1970
tp1971
I2
s(Vinsert
p1972
I42
VSimpleName: bodyStream
p1973
tp1974
I1
s(Vinsert
p1975
I43
VSimpleType: GetService
p1976
tp1977
I1
s(Vinsert
p1978
I43
VSimpleType: TestSubscriber
p1979
tp1980
I6
s(Vinsert
p1981
I42
VSimpleName: FutureTask
p1982
tp1983
I1
s(Vinsert
p1984
I42
VSimpleName: length
p1985
tp1986
I17
s(Vinsert
p1987
I43
VSimpleType: ScalarRequestBodyConverter
p1988
tp1989
I1
s(Vinsert
p1990
I74
VParameterizedType: Set<Long>
p1991
tp1992
I1
s(Vinsert
p1993
I42
VSimpleName: requestRef
p1994
tp1995
I1
s(Vinsert
p1996
I42
VSimpleName: setChunkedStreamingMode
p1997
tp1998
I1
s(Vinsert
p1999
I43
VSimpleType: CallAdapter
p2000
tp2001
I5
s(Vinsert
p2002
I43
VSimpleType: Field
p2003
tp2004
I1
s(Vinsert
p2005
I45
VStringLiteral: "' converted to null by "
p2006
tp2007
I1
s(Vinsert
p2008
I74
VParameterizedType: Single<Response<? extends String>>
p2009
tp2010
I1
s(Vinsert
p2011
I42
VSimpleName: fromResponseBody
p2012
tp2013
I2
s(Vinsert
p2014
I45
VStringLiteral: "Call.Factory returned null."
p2015
tp2016
I1
s(Vinsert
p2017
I42
VSimpleName: createFixed
p2018
tp2019
I1
s(Vinsert
p2020
I42
VSimpleName: ArgumentCaptor
p2021
tp2022
I2
s(Vinsert
p2023
I43
VSimpleType: Header
p2024
tp2025
I10
s(Vinsert
p2026
I42
VSimpleName: hasTypeVariable
p2027
tp2028
I1
s(Vinsert
p2029
I42
VSimpleName: getMethod
p2030
tp2031
I17
s(Vinsert
p2032
I42
VSimpleName: okResponse
p2033
tp2034
I2
s(Vinsert
p2035
I42
VSimpleName: Types
p2036
tp2037
I5
s(Vinsert
p2038
I42
VSimpleName: compile
p2039
tp2040
I2
s(Vinsert
p2041
I42
VSimpleName: mockResponse
p2042
tp2043
I1
s(Vinsert
p2044
I42
VSimpleName: responseHandler
p2045
tp2046
I2
s(Vinsert
p2047
I42
VSimpleName: pathSegments
p2048
tp2049
I2
s(Vinsert
p2050
I42
VSimpleName: disableUrlEncoding
p2051
tp2052
I3
s(Vinsert
p2053
I65
VTagElement: @link
p2054
tp2055
I3
s(Vinsert
p2056
I42
VSimpleName: ignoreSslWarnings
p2057
tp2058
I2
s(Vinsert
p2059
I42
VSimpleName: createRawCall
p2060
tp2061
I1
s(Vinsert
p2062
I42
VSimpleName: format
p2063
tp2064
I5
s(Vinsert
p2065
I43
VSimpleType: GitHub
p2066
tp2067
I2
s(Vinsert
p2068
I42
VSimpleName: TypedFile
p2069
tp2070
I1
s(Vinsert
p2071
I42
VSimpleName: Exception
p2072
tp2073
I12
s(Vinsert
p2074
I84
VUnionType: RuntimeException|IOException
p2075
tp2076
I1
s(Vinsert
p2077
I42
VSimpleName: rangeEquals
p2078
tp2079
I1
s(Vinsert
p2080
I42
VSimpleName: responseHeaders
p2081
tp2082
I1
s(Vinsert
p2083
I42
VSimpleName: encode
p2084
tp2085
I5
s(Vinsert
p2086
I40
VQualifiedName: java.io.IOException
p2087
tp2088
I1
s(Vinsert
p2089
I42
VSimpleName: toResolve
p2090
tp2091
I2
s(Vinsert
p2092
I42
VSimpleName: HttpProfiler
p2093
tp2094
I4
s(Vinsert
p2095
I74
VParameterizedType: ThreadLocal<SimpleDateFormat>
p2096
tp2097
I1
s(Vinsert
p2098
I42
VSimpleName: LinkedHashMap
p2099
tp2100
I3
s(Vinsert
p2101
I42
VSimpleName: setRelativeUrl
p2102
tp2103
I2
s(Vinsert
p2104
I42
VSimpleName: hasMessage
p2105
tp2106
I25
s(Vinsert
p2107
I42
VSimpleName: body1
p2108
tp2109
I1
s(Vinsert
p2110
I43
VSimpleType: OnErrorFailedException
p2111
tp2112
I3
s(Vinsert
p2113
I42
VSimpleName: realBody
p2114
tp2115
I1
s(Vinsert
p2116
I43
VSimpleType: HttpClient
p2117
tp2118
I1
s(Vinsert
p2119
I74
VParameterizedType: List<Header>
p2120
tp2121
I2
s(Vinsert
p2122
I42
VSimpleName: operationQueue
p2123
tp2124
I2
s(Vinsert
p2125
I45
VStringLiteral: "Broken!"
p2126
tp2127
I1
s(Vinsert
p2128
I17
VConstructorInvocation
p2129
tp2130
I2
s(Vinsert
p2131
I45
VStringLiteral: "Last parameter of %s must be a Class or ParameterizedType"
p2132
tp2133
I1
s(Vinsert
p2134
I42
VSimpleName: createURI
p2135
tp2136
I1
s(Vinsert
p2137
I42
VSimpleName: closeable
p2138
tp2139
I3
s(Vinsert
p2140
I66
VTextElement: Log response data. Returns replacement 
p2141
tp2142
I1
s(Vinsert
p2143
I42
VSimpleName: start
p2144
tp2145
I4
s(Vinsert
p2146
I42
VSimpleName: restAdapter
p2147
tp2148
I4
s(Vinsert
p2149
I42
VSimpleName: Throwable
p2150
tp2151
I22
s(Vinsert
p2152
I42
VSimpleName: takeNotification
p2153
tp2154
I1
s(Vinsert
p2155
I42
VSimpleName: await
p2156
tp2157
I2
s(Vinsert
p2158
I43
VSimpleType: RecordingSubscriber.Rule
p2159
tp2160
I4
s(Vinsert
p2161
I42
VSimpleName: getRawType
p2162
tp2163
I11
s(Vinsert
p2164
I42
VSimpleName: deserializeUsesRegistry
p2165
tp2166
I1
s(Vinsert
p2167
I42
VSimpleName: trim
p2168
tp2169
I2
s(Vinsert
p2170
I43
VSimpleType: HttpProfiler
p2171
tp2172
I4
s(Vinsert
p2173
I66
VTextElement: Endpoint: //github.com/square/retrofit/<br>
p2174
tp2175
I1
s(Vinsert
p2176
I43
VSimpleType: HttpEntityEnclosingRequest
p2177
tp2178
I2
s(Vinsert
p2179
I42
VSimpleName: failOnUnknown
p2180
tp2181
I4
s(Vinsert
p2182
I42
VSimpleName: OnErrorFailedException
p2183
tp2184
I3
s(Vinsert
p2185
I43
VSimpleType: InterruptedException
p2186
tp2187
I4
s(Vinsert
p2188
I42
VSimpleName: contextType
p2189
tp2190
I1
s(Vinsert
p2191
I45
VStringLiteral: "---> HTTP "
p2192
tp2193
I1
s(Vinsert
p2194
I45
VStringLiteral: "hi"
p2195
tp2196
I1
s(Vinsert
p2197
I42
VSimpleName: OPTIONS
p2198
tp2199
I2
s(Vinsert
p2200
I42
VSimpleName: validateServiceClass
p2201
tp2202
I1
s(Vinsert
p2203
I42
VSimpleName: contributors
p2204
tp2205
I3
s(Vinsert
p2206
I43
VSimpleType: ThreadLocal
p2207
tp2208
I1
s(Vinsert
p2209
I42
VSimpleName: failurePercentageIsAccurate
p2210
tp2211
I1
s(Vinsert
p2212
I42
VSimpleName: fromCallable
p2213
tp2214
I1
s(Vinsert
p2215
I42
VSimpleName: EncodedQuery
p2216
tp2217
I3
s(Vinsert
p2218
I42
VSimpleName: open
p2219
tp2220
I1
s(Vinsert
p2221
I43
VSimpleType: Observable
p2222
tp2223
I5
s(Vinsert
p2224
I42
VSimpleName: sb
p2225
tp2226
I3
s(Vinsert
p2227
I42
VSimpleName: enqueueResponse
p2228
tp2229
I1
s(Vinsert
p2230
I43
VSimpleType: OutputStream
p2231
tp2232
I1
s(Vinsert
p2233
I74
VParameterizedType: RequestAction<?>
p2234
tp2235
I1
s(Vinsert
p2236
I42
VSimpleName: getSupertype
p2237
tp2238
I3
s(Vinsert
p2239
I42
VSimpleName: paramUsage
p2240
tp2241
I1
s(Vinsert
p2242
I45
VStringLiteral: "Ping"
p2243
tp2244
I1
s(Vinsert
p2245
I43
VSimpleType: Runnable
p2246
tp2247
I6
s(Vinsert
p2248
I42
VSimpleName: Gson
p2249
tp2250
I3
s(Vinsert
p2251
I43
VSimpleType: T
p2252
tp2253
I44
s(Vinsert
p2254
I43
VSimpleType: AssertionError
p2255
tp2256
I1
s(Vinsert
p2257
I40
VQualifiedName: com.squareup.okhttp.Request
p2258
tp2259
I2
s(Vinsert
p2260
I42
VSimpleName: onNext
p2261
tp2262
I11
s(Vinsert
p2263
I74
VParameterizedType: Single<Response>
p2264
tp2265
I1
s(Vinsert
p2266
I74
VParameterizedType: Map.Entry<?,?>
p2267
tp2268
I2
s(Vinsert
p2269
I45
VStringLiteral: "@Part annotation must supply a name or use MultipartBody.Part parameter type."
p2270
tp2271
I2
s(Vinsert
p2272
I74
VParameterizedType: Map.Entry<String,TypedOutput>
p2273
tp2274
I2
s(Vinsert
p2275
I74
VParameterizedType: Response<ResponseBody>
p2276
tp2277
I1
s(Vinsert
p2278
I42
VSimpleName: create
p2279
tp2280
I64
s(Vinsert
p2281
I42
VSimpleName: Field
p2282
tp2283
I1
s(Vinsert
p2284
I40
VQualifiedName: ParamUsage.QUERY_MAP
p2285
tp2286
I1
s(Vinsert
p2287
I38
VPrefixExpression: -
p2288
tp2289
I5
s(Vinsert
p2290
I42
VSimpleName: bodyThrowingInOnErrorDeliveredToPlugin
p2291
tp2292
I1
s(Vinsert
p2293
I42
VSimpleName: setServer
p2294
tp2295
I4
s(Vinsert
p2296
I43
VSimpleType: Date
p2297
tp2298
I5
s(Vinsert
p2299
I42
VSimpleName: returningResponse
p2300
tp2301
I1
s(Vinsert
p2302
I74
VParameterizedType: Promise<Response<T>>
p2303
tp2304
I1
s(Vinsert
p2305
I42
VSimpleName: nextCallAdapter
p2306
tp2307
I3
s(Vinsert
p2308
I42
VSimpleName: call
p2309
tp2310
I43
s(Vinsert
p2311
I42
VSimpleName: accept
p2312
tp2313
I1
s(Vinsert
p2314
I42
VSimpleName: requestUrlParam
p2315
tp2316
I1
s(Vinsert
p2317
I42
VSimpleName: StatusLine
p2318
tp2319
I1
s(Vinsert
p2320
I42
VSimpleName: canonicalName
p2321
tp2322
I1
s(Vinsert
p2323
I85
VDimension
p2324
tp2325
I36
s(Vinsert
p2326
I43
VSimpleType: Statement
p2327
tp2328
I1
s(Vinsert
p2329
I42
VSimpleName: query
p2330
tp2331
I3
s(Vinsert
p2332
I43
VSimpleType: OkHttpClient
p2333
tp2334
I5
s(Vinsert
p2335
I43
VSimpleType: BufferedSink
p2336
tp2337
I1
s(Vinsert
p2338
I74
VParameterizedType: ArgumentCaptor<Response>
p2339
tp2340
I1
s(Vinsert
p2341
I42
VSimpleName: parameterAnnotation
p2342
tp2343
I2
s(Vinsert
p2344
I42
VSimpleName: of
p2345
tp2346
I1
s(Vinsert
p2347
I42
VSimpleName: createCallAdapter
p2348
tp2349
I1
s(Vinsert
p2350
I42
VSimpleName: getContent
p2351
tp2352
I1
s(Vinsert
p2353
I42
VSimpleName: toMillis
p2354
tp2355
I1
s(Vinsert
p2356
I42
VSimpleName: OutputStream
p2357
tp2358
I1
s(Vinsert
p2359
I40
VQualifiedName: MimeType.GIF
p2360
tp2361
I1
s(Vinsert
p2362
I42
VSimpleName: found
p2363
tp2364
I1
s(Vinsert
p2365
I42
VSimpleName: is
p2366
tp2367
I4
s(Vinsert
p2368
I42
VSimpleName: serializer
p2369
tp2370
I1
s(Vinsert
p2371
I42
VSimpleName: rawCall
p2372
tp2373
I6
s(Vinsert
p2374
I42
VSimpleName: sResponseWildcard
p2375
tp2376
I2
s(Vinsert
p2377
I42
VSimpleName: directory
p2378
tp2379
I2
s(Vinsert
p2380
I42
VSimpleName: okHeaders
p2381
tp2382
I1
s(Vinsert
p2383
I42
VSimpleName: nextResponseBodyConverter
p2384
tp2385
I2
s(Vinsert
p2386
I42
VSimpleName: SimpleDateFormat
p2387
tp2388
I2
s(Vinsert
p2389
I42
VSimpleName: unsubscribe
p2390
tp2391
I1
s(Vinsert
p2392
I42
VSimpleName: factory
p2393
tp2394
I11
s(Vinsert
p2395
I42
VSimpleName: changed
p2396
tp2397
I2
s(Vinsert
p2398
I78
VMarkerAnnotation
p2399
tp2400
I86
s(Vinsert
p2401
I42
VSimpleName: paramAnnotations
p2402
tp2403
I1
s(Vinsert
p2404
I42
VSimpleName: NullPointerException
p2405
tp2406
I15
s(Vinsert
p2407
I42
VSimpleName: adapterFactories
p2408
tp2409
I3
s(Vinsert
p2410
I45
VStringLiteral: "hey!"
p2411
tp2412
I1
s(Vinsert
p2413
I45
VStringLiteral: "rx.Completable"
p2414
tp2415
I1
s(Vinsert
p2416
I42
VSimpleName: ApacheClient
p2417
tp2418
I2
s(Vinsert
p2419
I42
VSimpleName: subscriber
p2420
tp2421
I28
s(Vinsert
p2422
I83
VModifier: public
p2423
tp2424
I112
s(Vinsert
p2425
I45
VStringLiteral: "Multiple Retrofit annotations found, only one allowed: @%s, @%s."
p2426
tp2427
I1
s(Vinsert
p2428
I42
VSimpleName: backgroundExecutorPropagated
p2429
tp2430
I1
s(Vinsert
p2431
I42
VSimpleName: bodyParts
p2432
tp2433
I1
s(Vinsert
p2434
I40
VQualifiedName: methodInfo.requestHasBody
p2435
tp2436
I2
s(Vinsert
p2437
I42
VSimpleName: exists
p2438
tp2439
I3
s(Vinsert
p2440
I74
VParameterizedType: Response<? extends String>
p2441
tp2442
I1
s(Vinsert
p2443
I40
VQualifiedName: org.fest.assertions.Assertions.assertThat
p2444
tp2445
I1
s(Vinsert
p2446
I74
VParameterizedType: Single<Object>
p2447
tp2448
I1
s(Vinsert
p2449
I66
VTextElement:  true
p2450
tp2451
I1
s(Vinsert
p2452
I43
VSimpleType: FutureTask
p2453
tp2454
I1
s(Vinsert
p2455
I42
VSimpleName: Looper
p2456
tp2457
I2
s(Vinsert
p2458
I42
VSimpleName: callbackRunnable
p2459
tp2460
I1
s(Vinsert
p2461
I42
VSimpleName: addEncodedQueryParam
p2462
tp2463
I1
s(Vinsert
p2464
I42
VSimpleName: executor
p2465
tp2466
I4
s(Vinsert
p2467
I7
VAssignment: +=
p2468
tp2469
I1
s(Vinsert
p2470
I42
VSimpleName: gotQuery
p2471
tp2472
I1
s(Vinsert
p2473
I42
VSimpleName: replacedPath
p2474
tp2475
I2
s(Vinsert
p2476
I42
VSimpleName: RxJava2CallAdapterFactory
p2477
tp2478
I4
s(Vinsert
p2479
I43
VSimpleType: TypedByteArray
p2480
tp2481
I4
s(Vinsert
p2482
I45
VStringLiteral: "ERROR"
p2483
tp2484
I2
s(Vinsert
p2485
I42
VSimpleName: unsafeSubscribe
p2486
tp2487
I1
s(Vinsert
p2488
I42
VSimpleName: InputStream
p2489
tp2490
I1
s(Vinsert
p2491
I27
VInfixExpression: -
p2492
tp2493
I6
s(Vinsert
p2494
I42
VSimpleName: getFilesDir
p2495
tp2496
I1
s(Vinsert
p2497
I42
VSimpleName: values
p2498
tp2499
I5
s(Vinsert
p2500
I42
VSimpleName: HOST
p2501
tp2502
I3
s(Vinsert
p2503
I42
VSimpleName: methodParameterType
p2504
tp2505
I4
s(Vinsert
p2506
I65
VTagElement: @code
p2507
tp2508
I1
s(Vinsert
p2509
I42
VSimpleName: Thread
p2510
tp2511
I4
s(Vinsert
p2512
I42
VSimpleName: newFixedEndpoint
p2513
tp2514
I3
s(Vinsert
p2515
I45
VStringLiteral: "Content-Length"
p2516
tp2517
I3
s(Vinsert
p2518
I42
VSimpleName: requestQuery
p2519
tp2520
I1
s(Vinsert
p2521
I42
VSimpleName: Proxy
p2522
tp2523
I1
s(Vinsert
p2524
I43
VSimpleType: TypedInput
p2525
tp2526
I3
s(Vinsert
p2527
I42
VSimpleName: mock
p2528
tp2529
I3
s(Vinsert
p2530
I42
VSimpleName: DEFAULT_TYPE
p2531
tp2532
I1
s(Vinsert
p2533
I42
VSimpleName: compareAndSet
p2534
tp2535
I5
s(Vinsert
p2536
I42
VSimpleName: queryString
p2537
tp2538
I2
s(Vinsert
p2539
I4
VArrayInitializer
p2540
tp2541
I4
s(Vinsert
p2542
I74
VParameterizedType: Promise<T>
p2543
tp2544
I1
s(Vinsert
p2545
I42
VSimpleName: isFalse
p2546
tp2547
I5
s(Vinsert
p2548
I42
VSimpleName: headerAction
p2549
tp2550
I1
s(Vinsert
p2551
I42
VSimpleName: endsWith
p2552
tp2553
I1
s(Vinsert
p2554
I42
VSimpleName: hasCallback
p2555
tp2556
I1
s(Vinsert
p2557
I42
VSimpleName: Page
p2558
tp2559
I1
s(Vinsert
p2560
I42
VSimpleName: destination
p2561
tp2562
I2
s(Vinsert
p2563
I42
VSimpleName: iterableValue
p2564
tp2565
I3
s(Vinsert
p2566
I45
VStringLiteral: "/"
p2567
tp2568
I8
s(Vinsert
p2569
I42
VSimpleName: Map
p2570
tp2571
I4
s(Vinsert
p2572
I42
VSimpleName: ServerError
p2573
tp2574
I1
s(Vinsert
p2575
I42
VSimpleName: body
p2576
tp2577
I68
s(Vinsert
p2578
I43
VSimpleType: Annotation
p2579
tp2580
I18
s(Vinsert
p2581
I74
VParameterizedType: TestSubscriber<String>
p2582
tp2583
I1
s(Vinsert
p2584
I42
VSimpleName: System
p2585
tp2586
I2
s(Vinsert
p2587
I42
VSimpleName: size
p2588
tp2589
I11
s(Vinsert
p2590
I42
VSimpleName: isGreaterThanOrEqualTo
p2591
tp2592
I1
s(Vinsert
p2593
I42
VSimpleName: once
p2594
tp2595
I1
s(Vinsert
p2596
I45
VStringLiteral: "objectMapper == null"
p2597
tp2598
I1
s(Vinsert
p2599
I42
VSimpleName: isCanceled
p2600
tp2601
I7
s(Vinsert
p2602
I42
VSimpleName: requestUrlParamNames
p2603
tp2604
I1
s(Vinsert
p2605
I42
VSimpleName: getDeclaringClass
p2606
tp2607
I1
s(Vinsert
p2608
I42
VSimpleName: beforeCallData
p2609
tp2610
I1
s(Vinsert
p2611
I40
VQualifiedName: args.length
p2612
tp2613
I3
s(Vinsert
p2614
I42
VSimpleName: getName
p2615
tp2616
I6
s(Vinsert
p2617
I42
VSimpleName: setUrl
p2618
tp2619
I7
s(Vinsert
p2620
I42
VSimpleName: encoding
p2621
tp2622
I2
s(Vinsert
p2623
I24
VForStatement
p2624
tp2625
I9
s(Vinsert
p2626
I42
VSimpleName: getStatus
p2627
tp2628
I2
s(Vinsert
p2629
I42
VSimpleName: getResponse
p2630
tp2631
I1
s(Vinsert
p2632
I45
VStringLiteral: "thirdParam"
p2633
tp2634
I1
s(Vinsert
p2635
I42
VSimpleName: stringConverter
p2636
tp2637
I2
s(Vinsert
p2638
I42
VSimpleName: toByteArray
p2639
tp2640
I2
s(Vinsert
p2641
I42
VSimpleName: lowerPair
p2642
tp2643
I1
s(Vinsert
p2644
I42
VSimpleName: timestamp
p2645
tp2646
I2
s(Vinsert
p2647
I42
VSimpleName: instantiate
p2648
tp2649
I1
s(Vinsert
p2650
I42
VSimpleName: contentLength
p2651
tp2652
I4
s(Vinsert
p2653
I40
VQualifiedName: HTTP.CONTENT_TYPE
p2654
tp2655
I1
s(Vinsert
p2656
I42
VSimpleName: gitHub
p2657
tp2658
I1
s(Vinsert
p2659
I45
VStringLiteral: "\u005cr\u005cn"
p2660
tp2661
I2
s(Vinsert
p2662
I42
VSimpleName: UTF_8
p2663
tp2664
I1
s(Vinsert
p2665
I42
VSimpleName: encodeNames
p2666
tp2667
I2
s(Vinsert
p2668
I43
VSimpleType: BehaviorDelegate
p2669
tp2670
I2
s(Vinsert
p2671
I42
VSimpleName: getMimeType
p2672
tp2673
I1
s(Vinsert
p2674
I42
VSimpleName: HttpDelete
p2675
tp2676
I2
s(Vinsert
p2677
I42
VSimpleName: parameterIndex
p2678
tp2679
I1
s(Vinsert
p2680
I48
VSuperMethodInvocation
p2681
tp2682
I2
s(Vinsert
p2683
I42
VSimpleName: contextRawType
p2684
tp2685
I1
s(Vinsert
p2686
I42
VSimpleName: isShaking
p2687
tp2688
I2
s(Vinsert
p2689
I66
VTextElement:  to synchronize
p2690
tp2691
I2
s(Vinsert
p2692
I42
VSimpleName: isStreaming
p2693
tp2694
I4
s(Vinsert
p2695
I43
VSimpleType: File
p2696
tp2697
I4
s(Vinsert
p2698
I42
VSimpleName: relativePath
p2699
tp2700
I1
s(Vinsert
p2701
I42
VSimpleName: mapType
p2702
tp2703
I2
s(Vinsert
p2704
I45
VStringLiteral: "Path parameter \u005c""
p2705
tp2706
I1
s(Vinsert
p2707
I42
VSimpleName: UiCallback
p2708
tp2709
I1
s(Vinsert
p2710
I42
VSimpleName: JsonAdapter
p2711
tp2712
I2
s(Vinsert
p2713
I43
VSimpleType: MockResponse
p2714
tp2715
I8
s(Vinsert
p2716
I42
VSimpleName: RequestInterceptor
p2717
tp2718
I1
s(Vinsert
p2719
I13
VCharacterLiteral: '='
p2720
tp2721
I1
s(Vinsert
p2722
I42
VSimpleName: actions
p2723
tp2724
I2
s(Vinsert
p2725
I60
VVariableDeclarationStatement
p2726
tp2727
I256
s(Vinsert
p2728
I40
VQualifiedName: CallAdapter.Factory
p2729
tp2730
I2
s(Vinsert
p2731
I42
VSimpleName: isMultipart
p2732
tp2733
I2
s(Vinsert
p2734
I42
VSimpleName: extension
p2735
tp2736
I1
s(Vinsert
p2737
I43
VSimpleType: Set
p2738
tp2739
I1
s(Vinsert
p2740
I42
VSimpleName: DefaultCallAdapterFactory
p2741
tp2742
I1
s(Vinsert
p2743
I42
VSimpleName: PostService
p2744
tp2745
I2
s(Vinsert
p2746
I42
VSimpleName: toRequestBody
p2747
tp2748
I1
s(Vinsert
p2749
I40
VQualifiedName: Moshi.Builder
p2750
tp2751
I1
s(Vinsert
p2752
I42
VSimpleName: creatingRequest
p2753
tp2754
I2
s(Vinsert
p2755
I42
VSimpleName: ra
p2756
tp2757
I2
s(Vinsert
p2758
I45
VStringLiteral: "text/plain"
p2759
tp2760
I2
s(Vinsert
p2761
I42
VSimpleName: setPath
p2762
tp2763
I8
s(Vinsert
p2764
I22
VFieldAccess
p2765
tp2766
I42
s(Vinsert
p2767
I42
VSimpleName: responseUrl
p2768
tp2769
I2
s(Vinsert
p2770
I42
VSimpleName: Character
p2771
tp2772
I1
s(Vinsert
p2773
I40
VQualifiedName: org.easymock.EasyMock.anyInt
p2774
tp2775
I1
s(Vinsert
p2776
I42
VSimpleName: scheduler
p2777
tp2778
I9
s(Vinsert
p2779
I42
VSimpleName: func
p2780
tp2781
I5
s(Vinsert
p2782
I42
VSimpleName: Part
p2783
tp2784
I2
s(Vinsert
p2785
I43
VSimpleType: Server
p2786
tp2787
I1
s(Vinsert
p2788
I43
VSimpleType: ParameterizedType
p2789
tp2790
I13
s(Vinsert
p2791
I74
VParameterizedType: Response<MyObject>
p2792
tp2793
I1
s(Vinsert
p2794
I42
VSimpleName: bodyString
p2795
tp2796
I2
s(Vinsert
p2797
I42
VSimpleName: unmodifiableList
p2798
tp2799
I2
s(Vinsert
p2800
I45
VStringLiteral: "Retrofit-"
p2801
tp2802
I1
s(Vinsert
p2803
I43
VSimpleType: Message
p2804
tp2805
I3
s(Vinsert
p2806
I42
VSimpleName: decodeHex
p2807
tp2808
I1
s(Vinsert
p2809
I43
VSimpleType: Map
p2810
tp2811
I5
s(Vinsert
p2812
I42
VSimpleName: onFailure
p2813
tp2814
I5
s(Vinsert
p2815
I42
VSimpleName: EncodedQueryMap
p2816
tp2817
I1
s(Vinsert
p2818
I42
VSimpleName: composite
p2819
tp2820
I3
s(Vinsert
p2821
I42
VSimpleName: subscribe
p2822
tp2823
I5
s(Vinsert
p2824
I42
VSimpleName: resolveConverter
p2825
tp2826
I2
s(Vinsert
p2827
I5
VArrayType: MultipartBody.Part[]
p2828
tp2829
I1
s(Vinsert
p2830
I43
VSimpleType: CompositeException
p2831
tp2832
I6
s(Vinsert
p2833
I42
VSimpleName: toStringUtf8
p2834
tp2835
I1
s(Vinsert
p2836
I42
VSimpleName: String
p2837
tp2838
I105
s(Vinsert
p2839
I42
VSimpleName: createDefaultClient
p2840
tp2841
I1
s(Vinsert
p2842
I42
VSimpleName: interruptTask
p2843
tp2844
I1
s(Vinsert
p2845
I42
VSimpleName: isFormEncoded
p2846
tp2847
I1
s(Vinsert
p2848
I42
VSimpleName: methodInfoCache
p2849
tp2850
I3
s(Vinsert
p2851
I42
VSimpleName: Calls
p2852
tp2853
I2
s(Vinsert
p2854
I42
VSimpleName: isArray
p2855
tp2856
I4
s(Vinsert
p2857
I42
VSimpleName: entrySet
p2858
tp2859
I4
s(Vinsert
p2860
I74
VParameterizedType: MethodHandler<?>
p2861
tp2862
I3
s(Vinsert
p2863
I42
VSimpleName: that
p2864
tp2865
I1
s(Vinsert
p2866
I42
VSimpleName: c
p2867
tp2868
I8
s(Vinsert
p2869
I42
VSimpleName: Method
p2870
tp2871
I16
s(Vinsert
p2872
I42
VSimpleName: equalsIgnoreCase
p2873
tp2874
I3
s(Vinsert
p2875
I40
VQualifiedName: org.easymock.EasyMock.expect
p2876
tp2877
I1
s(Vinsert
p2878
I42
VSimpleName: delete
p2879
tp2880
I2
s(Vinsert
p2881
I42
VSimpleName: Message
p2882
tp2883
I3
s(Vinsert
p2884
I25
VIfStatement
p2885
tp2886
I136
s(Vinsert
p2887
I42
VSimpleName: mockRetrofit
p2888
tp2889
I3
s(Vinsert
p2890
I42
VSimpleName: getUrl
p2891
tp2892
I15
s(Vinsert
p2893
I42
VSimpleName: createWithInitialRequest
p2894
tp2895
I1
s(Vinsert
p2896
I43
VSimpleType: CountDownLatch
p2897
tp2898
I4
s(Vinsert
p2899
I42
VSimpleName: parseFrom
p2900
tp2901
I4
s(Vinsert
p2902
I42
VSimpleName: MediaType
p2903
tp2904
I10
s(Vinsert
p2905
I42
VSimpleName: createMultipart
p2906
tp2907
I1
s(Vinsert
p2908
I42
VSimpleName: lastArgClass
p2909
tp2910
I1
s(Vinsert
p2911
I74
VParameterizedType: Map<?,?>
p2912
tp2913
I1
s(Vinsert
p2914
I42
VSimpleName: toJson
p2915
tp2916
I2
s(Vinsert
p2917
I42
VSimpleName: purge
p2918
tp2919
I2
s(Vinsert
p2920
I45
VStringLiteral: "204 response must not include body."
p2921
tp2922
I1
s(Vinsert
p2923
I42
VSimpleName: CompletableFuture
p2924
tp2925
I1
s(Vinsert
p2926
I42
VSimpleName: isTrue
p2927
tp2928
I4
s(Vinsert
p2929
I45
VStringLiteral: "kat"
p2930
tp2931
I4
s(Vinsert
p2932
I42
VSimpleName: logMessages
p2933
tp2934
I5
s(Vinsert
p2935
I42
VSimpleName: formEncodingBuilder
p2936
tp2937
I2
s(Vinsert
p2938
I42
VSimpleName: Iterable
p2939
tp2940
I3
s(Vinsert
p2941
I42
VSimpleName: isUnsubscribed
p2942
tp2943
I6
s(Vinsert
p2944
I38
VPrefixExpression: !
p2945
tp2946
I31
s(Vinsert
p2947
I45
VStringLiteral: "Expected a proto message but was java.lang.String"
p2948
tp2949
I1
s(Vinsert
p2950
I45
VStringLiteral: "fetch exception"
p2951
tp2952
I1
s(Vinsert
p2953
I42
VSimpleName: apiUrl
p2954
tp2955
I5
s(Vinsert
p2956
I74
VParameterizedType: TypeAdapter<?>
p2957
tp2958
I3
s(Vinsert
p2959
I43
VSimpleType: PartMap
p2960
tp2961
I1
s(Vinsert
p2962
I42
VSimpleName: in
p2963
tp2964
I9
s(Vinsert
p2965
I43
VSimpleType: Boolean
p2966
tp2967
I2
s(Vinsert
p2968
I45
VStringLiteral: "baz"
p2969
tp2970
I2
s(Vinsert
p2971
I42
VSimpleName: StringConverter
p2972
tp2973
I3
s(Vinsert
p2974
I45
VStringLiteral: " * retrofit.OkHttpBodyConverterFactory"
p2975
tp2976
I3
s(Vinsert
p2977
I40
VQualifiedName: HttpProfiler.NONE
p2978
tp2979
I1
s(Vinsert
p2980
I42
VSimpleName: getFD
p2981
tp2982
I2
s(Vinsert
p2983
I66
VTextElement: <p>
p2984
tp2985
I1
s(Vinsert
p2986
I42
VSimpleName: Callback
p2987
tp2988
I3
s(Vinsert
p2989
I42
VSimpleName: fieldMap
p2990
tp2991
I6
s(Vinsert
p2992
I45
VStringLiteral: "baseUrl must end in /: http://example.com/api"
p2993
tp2994
I1
s(Vinsert
p2995
I74
VParameterizedType: ArrayList<>
p2996
tp2997
I2
s(Vinsert
p2998
I42
VSimpleName: pool
p2999
tp3000
I2
s(Vinsert
p3001
I74
VParameterizedType: Map.Entry<String,T>
p3002
tp3003
I1
s(Vinsert
p3004
I42
VSimpleName: indexOf
p3005
tp3006
I2
s(Vinsert
p3007
I42
VSimpleName: badType1
p3008
tp3009
I1
s(Vinsert
p3010
I43
VSimpleType: CallAdapter.Factory
p3011
tp3012
I1
s(Vinsert
p3013
I45
VStringLiteral: ", Actual length: "
p3014
tp3015
I1
s(Vinsert
p3016
I42
VSimpleName: server
p3017
tp3018
I38
s(Vinsert
p3019
I42
VSimpleName: invalidEndpointEagerlyThrows
p3020
tp3021
I1
s(Vinsert
p3022
I42
VSimpleName: okHttpCall
p3023
tp3024
I1
s(Vinsert
p3025
I34
VNumberLiteral: 10
p3026
tp3027
I1
s(Vinsert
p3028
I42
VSimpleName: throwableRef
p3029
tp3030
I3
s(Vinsert
p3031
I43
VSimpleType: Request.Builder
p3032
tp3033
I1
s(Vinsert
p3034
I43
VSimpleType: Gson
p3035
tp3036
I1
s(Vinsert
p3037
I42
VSimpleName: JsonReader
p3038
tp3039
I1
s(Vinsert
p3040
I45
VStringLiteral: ")"
p3041
tp3042
I1
s(Vinsert
p3043
I42
VSimpleName: annotation
p3044
tp3045
I20
s(Vinsert
p3046
I42
VSimpleName: PARAM
p3047
tp3048
I2
s(Vinsert
p3049
I42
VSimpleName: Sample
p3050
tp3051
I2
s(Vinsert
p3052
I43
VSimpleType: HttpException
p3053
tp3054
I4
s(Vinsert
p3055
I74
VParameterizedType: JsonAdapter<Object>
p3056
tp3057
I1
s(Vinsert
p3058
I42
VSimpleName: Properties
p3059
tp3060
I1
s(Vinsert
p3061
I42
VSimpleName: newCachedThreadPool
p3062
tp3063
I1
s(Vinsert
p3064
I42
VSimpleName: UnsupportedEncodingException
p3065
tp3066
I1
s(Vinsert
p3067
I43
VSimpleType: URL
p3068
tp3069
I3
s(Vinsert
p3070
I42
VSimpleName: code
p3071
tp3072
I22
s(Vinsert
p3073
I42
VSimpleName: x
p3074
tp3075
I3
s(Vinsert
p3076
I42
VSimpleName: getRunnable
p3077
tp3078
I1
s(Vinsert
p3079
I42
VSimpleName: StringBuilder
p3080
tp3081
I1
s(Vinsert
p3082
I43
VSimpleType: Path
p3083
tp3084
I1
s(Vinsert
p3085
I42
VSimpleName: cause
p3086
tp3087
I3
s(Vinsert
p3088
I42
VSimpleName: inner
p3089
tp3090
I3
s(Vinsert
p3091
I45
VStringLiteral: "kat&"
p3092
tp3093
I1
s(Vinsert
p3094
I42
VSimpleName: taco
p3095
tp3096
I2
s(Vinsert
p3097
I43
VSimpleType: List
p3098
tp3099
I17
s(Vinsert
p3100
I42
VSimpleName: platformAwareAdapterAbsentInCloneBuilder
p3101
tp3102
I1
s(Vinsert
p3103
I74
VParameterizedType: Parser<MessageLite>
p3104
tp3105
I1
s(Vinsert
p3106
I34
VNumberLiteral: 3
p3107
tp3108
I3
s(Vinsert
p3109
I45
VStringLiteral: "text/plain; CHARSET=utf-8"
p3110
tp3111
I1
s(Vinsert
p3112
I42
VSimpleName: byteStream
p3113
tp3114
I1
s(Vinsert
p3115
I42
VSimpleName: bodyTypedInput
p3116
tp3117
I1
s(Vinsert
p3118
I42
VSimpleName: proceed
p3119
tp3120
I1
s(Vinsert
p3121
I42
VSimpleName: Parser
p3122
tp3123
I1
s(Vinsert
p3124
I42
VSimpleName: javaMethod
p3125
tp3126
I1
s(Vinsert
p3127
I42
VSimpleName: validateEagerly
p3128
tp3129
I1
s(Vinsert
p3130
I74
VParameterizedType: Converter<Object>
p3131
tp3132
I2
s(Vinsert
p3133
I42
VSimpleName: methodParameterAnnotation
p3134
tp3135
I1
s(Vinsert
p3136
I42
VSimpleName: buildRequest
p3137
tp3138
I10
s(Vinsert
p3139
I42
VSimpleName: apacheResponse
p3140
tp3141
I1
s(Vinsert
p3142
I42
VSimpleName: HttpRequestBuilder
p3143
tp3144
I2
s(Vinsert
p3145
I42
VSimpleName: ExecutorService
p3146
tp3147
I1
s(Vinsert
p3148
I42
VSimpleName: TypedOutputBody
p3149
tp3150
I3
s(Vinsert
p3151
I42
VSimpleName: getRequestMethod
p3152
tp3153
I1
s(Vinsert
p3154
I42
VSimpleName: serialization
p3155
tp3156
I1
s(Vinsert
p3157
I42
VSimpleName: ByteStreams
p3158
tp3159
I1
s(Vinsert
p3160
I42
VSimpleName: MIME_TYPE
p3161
tp3162
I2
s(Vinsert
p3163
I42
VSimpleName: number
p3164
tp3165
I4
s(Vinsert
p3166
I42
VSimpleName: writeValueAsString
p3167
tp3168
I1
s(Vinsert
p3169
I42
VSimpleName: newLength
p3170
tp3171
I2
s(Vinsert
p3172
I42
VSimpleName: toBody
p3173
tp3174
I4
s(Vinsert
p3175
I42
VSimpleName: Retrofit
p3176
tp3177
I19
s(Vinsert
p3178
I74
VParameterizedType: Converter<?>
p3179
tp3180
I1
s(Vinsert
p3181
I43
VSimpleType: ResponseWrapper
p3182
tp3183
I1
s(Vinsert
p3184
I43
VSimpleType: ByteArrayInputStream
p3185
tp3186
I4
s(Vinsert
p3187
I42
VSimpleName: type
p3188
tp3189
I28
s(Vinsert
p3190
I42
VSimpleName: getOwnerType
p3191
tp3192
I1
s(Vinsert
p3193
I42
VSimpleName: jsonWriter
p3194
tp3195
I1
s(Vinsert
p3196
I42
VSimpleName: limit
p3197
tp3198
I1
s(Vinsert
p3199
I42
VSimpleName: Matcher
p3200
tp3201
I2
s(Vinsert
p3202
I42
VSimpleName: q
p3203
tp3204
I4
s(Vinsert
p3205
I54
VTryStatement
p3206
tp3207
I50
s(Vinsert
p3208
I42
VSimpleName: writeByte
p3209
tp3210
I1
s(Vinsert
p3211
I43
VSimpleType: HttpParams
p3212
tp3213
I1
s(Vinsert
p3214
I43
VSimpleType: IOException
p3215
tp3216
I54
s(Vinsert
p3217
I42
VSimpleName: ScalarRequestBodyConverter
p3218
tp3219
I1
s(Vinsert
p3220
I45
VStringLiteral: "@QueryMap parameter type must be Map."
p3221
tp3222
I1
s(Vinsert
p3223
I42
VSimpleName: Object
p3224
tp3225
I40
s(Vinsert
p3226
I42
VSimpleName: deserializeWrongType
p3227
tp3228
I2
s(Vinsert
p3229
I76
VWildcardType: ? extends String
p3230
tp3231
I2
s(Vinsert
p3232
I43
VSimpleType: IllegalStateException
p3233
tp3234
I8
s(Vinsert
p3235
I45
VStringLiteral: "x"
p3236
tp3237
I1
s(Vinsert
p3238
I42
VSimpleName: applySingleBehavior
p3239
tp3240
I1
s(Vinsert
p3241
I45
VStringLiteral: "foo/bar"
p3242
tp3243
I1
s(Vinsert
p3244
I42
VSimpleName: ProfilingResponseHandler
p3245
tp3246
I1
s(Vinsert
p3247
I42
VSimpleName: getResponseCode
p3248
tp3249
I1
s(Vinsert
p3250
I42
VSimpleName: tmpFile
p3251
tp3252
I3
s(Vinsert
p3253
I42
VSimpleName: startTime
p3254
tp3255
I4
s(Vinsert
p3256
I40
VQualifiedName: System.out
p3257
tp3258
I2
s(Vinsert
p3259
I42
VSimpleName: entry
p3260
tp3261
I3
s(Vinsert
p3262
I42
VSimpleName: createWithScheduler
p3263
tp3264
I4
s(Vinsert
p3265
I40
VQualifiedName: retrofit.callFactory
p3266
tp3267
I1
s(Vinsert
p3268
I42
VSimpleName: sink
p3269
tp3270
I2
s(Vinsert
p3271
I42
VSimpleName: urlEncodeValue
p3272
tp3273
I1
s(Vinsert
p3274
I42
VSimpleName: getTypeFactory
p3275
tp3276
I3
s(Vinsert
p3277
I42
VSimpleName: annotationType
p3278
tp3279
I7
s(Vinsert
p3280
I42
VSimpleName: Phone
p3281
tp3282
I3
s(Vinsert
p3283
I45
VStringLiteral: "content-md5"
p3284
tp3285
I1
s(Vinsert
p3286
I36
VParenthesizedExpression
p3287
tp3288
I22
s(Vinsert
p3289
I42
VSimpleName: callFactory
p3290
tp3291
I1
s(Vinsert
p3292
I42
VSimpleName: beforeCall
p3293
tp3294
I2
s(Vinsert
p3295
I42
VSimpleName: UTF8_BOM
p3296
tp3297
I1
s(Vinsert
p3298
I42
VSimpleName: mutableParameters
p3299
tp3300
I1
s(Vinsert
p3301
I52
VThisExpression
p3302
tp3303
I53
s(Vinsert
p3304
I42
VSimpleName: singleType
p3305
tp3306
I1
s(Vinsert
p3307
I43
VSimpleType: FormEncodedTypedOutput
p3308
tp3309
I2
s(Vinsert
p3310
I40
VQualifiedName: RecordingSubscriber.Rule
p3311
tp3312
I4
s(Vinsert
p3313
I42
VSimpleName: createFrom
p3314
tp3315
I1
s(Vinsert
p3316
I42
VSimpleName: match
p3317
tp3318
I2
s(Vinsert
p3319
I42
VSimpleName: preferences
p3320
tp3321
I1
s(Vinsert
p3322
I42
VSimpleName: hasRxJavaOnClasspath
p3323
tp3324
I2
s(Vinsert
p3325
I42
VSimpleName: isInterface
p3326
tp3327
I1
s(Vinsert
p3328
I42
VSimpleName: OnCompletedFailedException
p3329
tp3330
I4
s(Vinsert
p3331
I42
VSimpleName: MethodDetails
p3332
tp3333
I2
s(Vinsert
p3334
I42
VSimpleName: remainingBytes
p3335
tp3336
I1
s(Vinsert
p3337
I42
VSimpleName: fail
p3338
tp3339
I14
s(Vinsert
p3340
I43
VSimpleType: SimpleDateFormat
p3341
tp3342
I2
s(Vinsert
p3343
I42
VSimpleName: streamToBytes
p3344
tp3345
I3
s(Vinsert
p3346
I42
VSimpleName: RecordingObserver
p3347
tp3348
I1
s(Vinsert
p3349
I42
VSimpleName: Response
p3350
tp3351
I50
s(Vinsert
p3352
I42
VSimpleName: Arrays
p3353
tp3354
I2
s(Vinsert
p3355
I43
VSimpleType: ExecutorService
p3356
tp3357
I1
s(Vinsert
p3358
I42
VSimpleName: entity
p3359
tp3360
I7
s(Vinsert
p3361
I74
VParameterizedType: BehaviorDelegate<GitHub>
p3362
tp3363
I1
s(Vinsert
p3364
I43
VSimpleType: java.io.IOException
p3365
tp3366
I1
s(Vinsert
p3367
I42
VSimpleName: onComplete
p3368
tp3369
I1
s(Vinsert
p3370
I45
VStringLiteral: "file length"
p3371
tp3372
I1
s(Vinsert
p3373
I42
VSimpleName: setWriteTimeout
p3374
tp3375
I1
s(Vinsert
p3376
I42
VSimpleName: setMethod
p3377
tp3378
I12
s(Vinsert
p3379
I42
VSimpleName: observer
p3380
tp3381
I13
s(Vinsert
p3382
I42
VSimpleName: THREAD_PREFIX
p3383
tp3384
I2
s(Vinsert
p3385
I42
VSimpleName: iterator
p3386
tp3387
I2
s(Vinsert
p3388
I42
VSimpleName: resolve
p3389
tp3390
I1
s(Vinsert
p3391
I42
VSimpleName: onSubscribe
p3392
tp3393
I4
s(Vinsert
p3394
I42
VSimpleName: apacheRequest
p3395
tp3396
I1
s(Vinsert
p3397
I42
VSimpleName: responseObjectType
p3398
tp3399
I1
s(Vinsert
p3400
I42
VSimpleName: params
p3401
tp3402
I16
s(Vinsert
p3403
I42
VSimpleName: delegate
p3404
tp3405
I18
s(Vinsert
p3406
I43
VSimpleType: DefaultCallAdapterFactory
p3407
tp3408
I1
s(Vinsert
p3409
I40
VQualifiedName: retrofit.converter.PhoneProtos.Phone
p3410
tp3411
I1
s(Vinsert
p3412
I83
VModifier: final
p3413
tp3414
I32
s(Vinsert
p3415
I42
VSimpleName: writeTo
p3416
tp3417
I7
s(Vinsert
p3418
I42
VSimpleName: getCanonicalName
p3419
tp3420
I1
s(Vinsert
p3421
I42
VSimpleName: EmptyCall
p3422
tp3423
I1
s(Vinsert
p3424
I42
VSimpleName: TypeToken
p3425
tp3426
I3
s(Vinsert
p3427
I42
VSimpleName: callAdapter
p3428
tp3429
I4
s(Vinsert
p3430
I83
VModifier: static
p3431
tp3432
I17
s(Vinsert
p3433
I45
VStringLiteral: "baz/\u005cr\u005cnheader: blue"
p3434
tp3435
I1
s(Vinsert
p3436
I42
VSimpleName: toString
p3437
tp3438
I12
s(Vinsert
p3439
I42
VSimpleName: assertBytes
p3440
tp3441
I1
s(Vinsert
p3442
I74
VParameterizedType: Class<T>
p3443
tp3444
I1
s(Vinsert
p3445
I42
VSimpleName: close
p3446
tp3447
I9
s(Vinsert
p3448
I42
VSimpleName: parameterizedType
p3449
tp3450
I5
s(Vinsert
p3451
I42
VSimpleName: original
p3452
tp3453
I4
s(Vinsert
p3454
I42
VSimpleName: isInstance
p3455
tp3456
I3
s(Vinsert
p3457
I42
VSimpleName: HttpURLConnection
p3458
tp3459
I1
s(Vinsert
p3460
I43
VSimpleType: Retrofit
p3461
tp3462
I19
s(Vinsert
p3463
I42
VSimpleName: QueryParams
p3464
tp3465
I1
s(Vinsert
p3466
I42
VSimpleName: contains
p3467
tp3468
I9
s(Vinsert
p3469
I37
VPostfixExpression: ++
p3470
tp3471
I7
s(Vinsert
p3472
I43
VSimpleType: AbstractFuture
p3473
tp3474
I1
s(Vinsert
p3475
I66
VTextElement:  or 
p3476
tp3477
I1
s(Vinsert
p3478
I42
VSimpleName: newMultipart
p3479
tp3480
I2
s(Vinsert
p3481
I42
VSimpleName: okHttp
p3482
tp3483
I2
s(Vinsert
p3484
I42
VSimpleName: createRequestObservable
p3485
tp3486
I1
s(Vinsert
p3487
I42
VSimpleName: bodyMime
p3488
tp3489
I4
s(Vinsert
p3490
I40
VQualifiedName: TimeUnit.NANOSECONDS
p3491
tp3492
I1
s(Vinsert
p3493
I42
VSimpleName: getResponseMessage
p3494
tp3495
I1
s(Vinsert
p3496
I43
VSimpleType: com.google.protobuf.ByteString
p3497
tp3498
I1
s(Vinsert
p3499
I42
VSimpleName: first
p3500
tp3501
I1
s(Vinsert
p3502
I42
VSimpleName: getHttpMethod
p3503
tp3504
I1
s(Vinsert
p3505
I42
VSimpleName: substring
p3506
tp3507
I1
s(Vinsert
p3508
I42
VSimpleName: threwException
p3509
tp3510
I1
s(Vinsert
p3511
I42
VSimpleName: assertCompleted
p3512
tp3513
I3
s(Vinsert
p3514
I42
VSimpleName: hasAtLeastOneElementOfType
p3515
tp3516
I1
s(Vinsert
p3517
I42
VSimpleName: requestBuilderActions
p3518
tp3519
I1
s(Vinsert
p3520
I42
VSimpleName: BufferedSink
p3521
tp3522
I1
s(Vinsert
p3523
I74
VParameterizedType: Observable<Response<String>>
p3524
tp3525
I1
s(Vinsert
p3526
I42
VSimpleName: methodWantsSynchronousInvocation
p3527
tp3528
I2
s(Vinsert
p3529
I42
VSimpleName: AtomicReference
p3530
tp3531
I6
s(Vinsert
p3532
I74
VParameterizedType: Result<String>
p3533
tp3534
I1
s(Vinsert
p3535
I42
VSimpleName: readByteString
p3536
tp3537
I1
s(Vinsert
p3538
I42
VSimpleName: methodAnnotation
p3539
tp3540
I1
s(Vinsert
p3541
I42
VSimpleName: CallBehaviorAdapter
p3542
tp3543
I1
s(Vinsert
p3544
I42
VSimpleName: isAssignableFrom
p3545
tp3546
I13
s(Vinsert
p3547
I42
VSimpleName: output
p3548
tp3549
I5
s(Vinsert
p3550
I42
VSimpleName: RecordedRequest
p3551
tp3552
I2
s(Vinsert
p3553
I43
VSimpleType: RestAdapter
p3554
tp3555
I4
s(Vinsert
p3556
I42
VSimpleName: takeValue
p3557
tp3558
I11
s(Vinsert
p3559
I42
VSimpleName: hasContentTypeHeader
p3560
tp3561
I2
s(Vinsert
p3562
I42
VSimpleName: interfaceWithExtendIsNotSupported
p3563
tp3564
I1
s(Vinsert
p3565
I43
VSimpleType: TestScheduler
p3566
tp3567
I1
s(Vinsert
p3568
I43
VSimpleType: RestAdapter.Builder
p3569
tp3570
I5
s(Vinsert
p3571
I42
VSimpleName: setLogLevel
p3572
tp3573
I1
s(Vinsert
p3574
I42
VSimpleName: headerValue
p3575
tp3576
I3
s(Vinsert
p3577
I42
VSimpleName: InvocationTargetException
p3578
tp3579
I1
s(Vinsert
p3580
I42
VSimpleName: fetchRequest
p3581
tp3582
I1
s(Vinsert
p3583
I42
VSimpleName: mockExecutor
p3584
tp3585
I1
s(Vinsert
p3586
I42
VSimpleName: objAsJson
p3587
tp3588
I1
s(Vinsert
p3589
I43
VSimpleType: Buffer
p3590
tp3591
I10
s(Vinsert
p3592
I42
VSimpleName: NoSuchFieldException
p3593
tp3594
I1
s(Vinsert
p3595
I43
VSimpleType: PATCH
p3596
tp3597
I2
s(Vinsert
p3598
I7
VAssignment: =
p3599
tp3600
I111
s(Vinsert
p3601
I42
VSimpleName: AndroidHttpClient
p3602
tp3603
I1
s(Vinsert
p3604
I42
VSimpleName: entityRequest
p3605
tp3606
I2
s(Vinsert
p3607
I45
VStringLiteral: "Idle"
p3608
tp3609
I1
s(Vinsert
p3610
I42
VSimpleName: serverUrl
p3611
tp3612
I1
s(Vinsert
p3613
I40
VQualifiedName: method.type
p3614
tp3615
I1
s(Vinsert
p3616
I43
VSimpleType: Platform
p3617
tp3618
I3
s(Vinsert
p3619
I42
VSimpleName: rxSupport
p3620
tp3621
I1
s(Vinsert
p3622
I42
VSimpleName: isSuccessful
p3623
tp3624
I5
s(Vinsert
p3625
I42
VSimpleName: handler
p3626
tp3627
I3
s(Vinsert
p3628
I42
VSimpleName: Statement
p3629
tp3630
I2
s(Vinsert
p3631
I42
VSimpleName: INSTANCE
p3632
tp3633
I1
s(Vinsert
p3634
I42
VSimpleName: returnType
p3635
tp3636
I11
s(Vinsert
p3637
I74
VParameterizedType: Response<AnImplementation>
p3638
tp3639
I1
s(Vinsert
p3640
I42
VSimpleName: CallMethod
p3641
tp3642
I2
s(Vinsert
p3643
I42
VSimpleName: writeValueAsBytes
p3644
tp3645
I1
s(Vinsert
p3646
I43
VSimpleType: QueryParam
p3647
tp3648
I1
s(Vinsert
p3649
I43
VSimpleType: EncodedQuery
p3650
tp3651
I3
s(Vinsert
p3652
I43
VSimpleType: com.squareup.okhttp.Response
p3653
tp3654
I1
s(Vinsert
p3655
I42
VSimpleName: DATE_FORMAT
p3656
tp3657
I1
s(Vinsert
p3658
I42
VSimpleName: doReturn
p3659
tp3660
I1
s(Vinsert
p3661
I42
VSimpleName: addCallAdapterFactory
p3662
tp3663
I4
s(Vinsert
p3664
I42
VSimpleName: getHeaders
p3665
tp3666
I4
s(Vinsert
p3667
I42
VSimpleName: getLogger
p3668
tp3669
I1
s(Vinsert
p3670
I42
VSimpleName: codePoint
p3671
tp3672
I1
s(Vinsert
p3673
I74
VParameterizedType: Converter<ResponseBody,?>
p3674
tp3675
I3
s(Vinsert
p3676
I42
VSimpleName: observableHttpExceptionBecomesError
p3677
tp3678
I1
s(Vinsert
p3679
I42
VSimpleName: OkHttpClient
p3680
tp3681
I5
s(Vinsert
p3682
I43
VSimpleType: Parameter
p3683
tp3684
I1
s(Vinsert
p3685
I42
VSimpleName: reportsExecutedAsync
p3686
tp3687
I1
s(Vinsert
p3688
I42
VSimpleName: Handler
p3689
tp3690
I2
s(Vinsert
p3691
I42
VSimpleName: missingConverterThrowsOnNonResponseBody
p3692
tp3693
I1
s(Vinsert
p3694
I42
VSimpleName: ToStringConverterFactory
p3695
tp3696
I2
s(Vinsert
p3697
I43
VSimpleType: Service
p3698
tp3699
I7
s(Vinsert
p3700
I42
VSimpleName: typedBytes
p3701
tp3702
I7
s(Vinsert
p3703
I42
VSimpleName: defaultCallbackExecutor
p3704
tp3705
I2
s(Vinsert
p3706
I42
VSimpleName: MEDIA_TYPE
p3707
tp3708
I2
s(Vinsert
p3709
I42
VSimpleName: Double
p3710
tp3711
I2
s(Vinsert
p3712
I42
VSimpleName: transferEncoding
p3713
tp3714
I3
s(Vinsert
p3715
I40
VQualifiedName: methodInfo.isSynchronous
p3716
tp3717
I1
s(Vinsert
p3718
I42
VSimpleName: toStringHeaderParam
p3719
tp3720
I1
s(Vinsert
p3721
I42
VSimpleName: getDeclaredConstructor
p3722
tp3723
I1
s(Vinsert
p3724
I42
VSimpleName: annotations
p3725
tp3726
I18
s(Vinsert
p3727
I42
VSimpleName: Schedulers
p3728
tp3729
I1
s(Vinsert
p3730
I42
VSimpleName: addInterceptorPathParam
p3731
tp3732
I1
s(Vinsert
p3733
I34
VNumberLiteral: 12
p3734
tp3735
I1
s(Vinsert
p3736
I43
VSimpleType: BufferedSource
p3737
tp3738
I6
s(Vinsert
p3739
I42
VSimpleName: R
p3740
tp3741
I9
s(Vinsert
p3742
I8
VBlock
p3743
tp3744
I520
s(Vinsert
p3745
I45
VStringLiteral: "txt"
p3746
tp3747
I1
s(Vinsert
p3748
I42
VSimpleName: evaluate
p3749
tp3750
I2
s(Vinsert
p3751
I42
VSimpleName: parsePathParameters
p3752
tp3753
I1
s(Vinsert
p3754
I74
VParameterizedType: ArrayList<Header>
p3755
tp3756
I1
s(Vinsert
p3757
I42
VSimpleName: getDeclaredMethods
p3758
tp3759
I3
s(Vinsert
p3760
I42
VSimpleName: when
p3761
tp3762
I9
s(Vinsert
p3763
I42
VSimpleName: hasSingleEntityAnnotation
p3764
tp3765
I1
s(Vinsert
p3766
I76
VWildcardType: ?
p3767
tp3768
I42
s(Vinsert
p3769
I74
VParameterizedType: TypeToken<List<String>>
p3770
tp3771
I1
s(Vinsert
p3772
I74
VParameterizedType: Response<Object>
p3773
tp3774
I1
s(Vinsert
p3775
I42
VSimpleName: behavior
p3776
tp3777
I6
s(Vinsert
p3778
I42
VSimpleName: onCompleted
p3779
tp3780
I5
s(Vinsert
p3781
I42
VSimpleName: Call
p3782
tp3783
I12
s(Vinsert
p3784
I45
VStringLiteral: "\u005c\u005c{("
p3785
tp3786
I1
s(Vinsert
p3787
I43
VSimpleType: HttpDelete
p3788
tp3789
I2
s(Vinsert
p3790
I5
VArrayType: byte[]
p3791
tp3792
I15
s(Vinsert
p3793
I42
VSimpleName: getBody
p3794
tp3795
I7
s(Vinsert
p3796
I42
VSimpleName: addRequestProperty
p3797
tp3798
I1
s(Vinsert
p3799
I43
VSimpleType: JsonReader
p3800
tp3801
I1
s(Vinsert
p3802
I45
VStringLiteral: "I am broken!"
p3803
tp3804
I1
s(Vinsert
p3805
I42
VSimpleName: ownerRepoContributors
p3806
tp3807
I1
s(Vinsert
p3808
I42
VSimpleName: host
p3809
tp3810
I1
s(Vinsert
p3811
I42
VSimpleName: URISyntaxException
p3812
tp3813
I1
s(Vinsert
p3814
I40
VQualifiedName: body.parts
p3815
tp3816
I1
s(Vinsert
p3817
I43
VSimpleType: NoSuchFieldException
p3818
tp3819
I1
s(Vinsert
p3820
I42
VSimpleName: perform
p3821
tp3822
I3
s(Vinsert
p3823
I45
VStringLiteral: "text/plain; \u005cr\u005cn\u005ctcharset=utf-8"
p3824
tp3825
I2
s(Vinsert
p3826
I40
VQualifiedName: com.squareup.okhttp.Response
p3827
tp3828
I1
s(Vinsert
p3829
I45
VStringLiteral: "Session expired.  Request url "
p3830
tp3831
I1
s(Vinsert
p3832
I42
VSimpleName: setConnectionTimeout
p3833
tp3834
I1
s(Vinsert
p3835
I45
VStringLiteral: "@EncodedQueryMap parameter type must be Map."
p3836
tp3837
I1
s(Vinsert
p3838
I42
VSimpleName: Action1
p3839
tp3840
I2
s(Vinsert
p3841
I45
VStringLiteral: "Method "
p3842
tp3843
I1
s(Vinsert
p3844
I42
VSimpleName: mockRestAdapter
p3845
tp3846
I2
s(Vinsert
p3847
I42
VSimpleName: annotationsRef
p3848
tp3849
I1
s(Vinsert
p3850
I42
VSimpleName: t
p3851
tp3852
I12
s(Vinsert
p3853
I42
VSimpleName: FormEncodedTypedOutput
p3854
tp3855
I2
s(Vinsert
p3856
I42
VSimpleName: entryClass
p3857
tp3858
I1
s(Vinsert
p3859
I42
VSimpleName: generateDefaultOkHttp
p3860
tp3861
I1
s(Vinsert
p3862
I42
VSimpleName: NonMatchingConverterFactory
p3863
tp3864
I1
s(Vinsert
p3865
I43
VSimpleType: InputStream
p3866
tp3867
I1
s(Vinsert
p3868
I42
VSimpleName: apply
p3869
tp3870
I2
s(Vinsert
p3871
I42
VSimpleName: forName
p3872
tp3873
I2
s(Vinsert
p3874
I74
VParameterizedType: AtomicReference<>
p3875
tp3876
I2
s(Vinsert
p3877
I76
VWildcardType: ? super Object
p3878
tp3879
I1
s(Vinsert
p3880
I42
VSimpleName: ResponseBody
p3881
tp3882
I29
s(Vinsert
p3883
I43
VSimpleType: Exception
p3884
tp3885
I11
s(Vinsert
p3886
I43
VSimpleType: Converter
p3887
tp3888
I8
s(Vinsert
p3889
I40
VQualifiedName: ParameterHandler.RawPart.INSTANCE
p3890
tp3891
I2
s(Vinsert
p3892
I40
VQualifiedName: Converter.Factory
p3893
tp3894
I4
s(Vinsert
p3895
I42
VSimpleName: methodAnnotations
p3896
tp3897
I2
s(Vinsert
p3898
I42
VSimpleName: Executors
p3899
tp3900
I2
s(Vinsert
p3901
I42
VSimpleName: consumeAsBytes
p3902
tp3903
I1
s(Vinsert
p3904
I39
VPrimitiveType: int
p3905
tp3906
I24
s(Vinsert
p3907
I42
VSimpleName: GetService
p3908
tp3909
I1
s(Vinsert
p3910
I42
VSimpleName: get
p3911
tp3912
I56
s(Vinsert
p3913
I42
VSimpleName: NO_HEADERS
p3914
tp3915
I3
s(Vinsert
p3916
I45
VStringLiteral: "RedundantStringConstructorCall"
p3917
tp3918
I1
s(Vinsert
p3919
I42
VSimpleName: getKind
p3920
tp3921
I2
s(Vinsert
p3922
I44
VSingleVariableDeclaration
p3923
tp3924
I199
s(Vinsert
p3925
I45
VStringLiteral: "Header must be in the form 'Name: Value': "
p3926
tp3927
I1
s(Vinsert
p3928
I45
VStringLiteral: "butter"
p3929
tp3930
I1
s(Vinsert
p3931
I42
VSimpleName: getOnNextEvents
p3932
tp3933
I1
s(Vinsert
p3934
I5
VArrayType: Type[]
p3935
tp3936
I3
s(Vinsert
p3937
I43
VSimpleType: RequestBuilder
p3938
tp3939
I2
s(Vinsert
p3940
I42
VSimpleName: jsonReader
p3941
tp3942
I1
s(Vinsert
p3943
I42
VSimpleName: setUp
p3944
tp3945
I4
s(Vinsert
p3946
I42
VSimpleName: SECONDS
p3947
tp3948
I1
s(Vinsert
p3949
I45
VStringLiteral: "body == null"
p3950
tp3951
I1
s(Vinsert
p3952
I42
VSimpleName: endpointAndName
p3953
tp3954
I1
s(Vinsert
p3955
I43
VSimpleType: StringConverter
p3956
tp3957
I3
s(Vinsert
p3958
I43
VSimpleType: GenericArrayType
p3959
tp3960
I2
s(Vinsert
p3961
I42
VSimpleName: newInstance
p3962
tp3963
I1
s(Vinsert
p3964
I40
VQualifiedName: com.google.protobuf.ByteString
p3965
tp3966
I1
s(Vinsert
p3967
I42
VSimpleName: getString
p3968
tp3969
I1
s(Vinsert
p3970
I45
VStringLiteral: "pong&"
p3971
tp3972
I1
s(Vinsert
p3973
I45
VStringLiteral: "id="
p3974
tp3975
I1
s(Vinsert
p3976
I42
VSimpleName: execute
p3977
tp3978
I24
s(Vinsert
p3979
I43
VSimpleType: R
p3980
tp3981
I8
s(Vinsert
p3982
I42
VSimpleName: ArrayList
p3983
tp3984
I3
s(Vinsert
p3985
I42
VSimpleName: getHost
p3986
tp3987
I1
s(Vinsert
p3988
I45
VStringLiteral: "application/json; charset=UTF-8"
p3989
tp3990
I1
s(Vinsert
p3991
I41
VReturnStatement
p3992
tp3993
I113
s(Vinsert
p3994
I40
VQualifiedName: RequestType.FORM_URL_ENCODED
p3995
tp3996
I1
s(Vinsert
p3997
I42
VSimpleName: TypedInput
p3998
tp3999
I4
s(Vinsert
p4000
I42
VSimpleName: URL
p4001
tp4002
I3
s(Vinsert
p4003
I5
VArrayType: String[]
p4004
tp4005
I1
s(Vinsert
p4006
I43
VSimpleType: EncodedQueryMap
p4007
tp4008
I1
s(Vinsert
p4009
I27
VInfixExpression: <
p4010
tp4011
I5
s(Vinsert
p4012
I42
VSimpleName: IllegalStateException
p4013
tp4014
I8
s(Vinsert
p4015
I43
VSimpleType: Void
p4016
tp4017
I4
s(Vinsert
p4018
I42
VSimpleName: OkHttpCall
p4019
tp4020
I4
s(Vinsert
p4021
I42
VSimpleName: endpoint1
p4022
tp4023
I1
s(Vinsert
p4024
I42
VSimpleName: run
p4025
tp4026
I9
s(Vinsert
p4027
I42
VSimpleName: headers
p4028
tp4029
I28
s(Vinsert
p4030
I42
VSimpleName: bs
p4031
tp4032
I1
s(Vinsert
p4033
I42
VSimpleName: acquire
p4034
tp4035
I2
s(Vinsert
p4036
I43
VSimpleType: CallBehaviorAdapter
p4037
tp4038
I1
s(Vinsert
p4039
I42
VSimpleName: MockResponse
p4040
tp4041
I9
s(Vinsert
p4042
I42
VSimpleName: setDelay
p4043
tp4044
I2
s(Vinsert
p4045
I40
VQualifiedName: methodInfo.adapter
p4046
tp4047
I1
s(Vinsert
p4048
I42
VSimpleName: URLEncoder
p4049
tp4050
I4
s(Vinsert
p4051
I42
VSimpleName: createMock
p4052
tp4053
I2
s(Vinsert
p4054
I45
VStringLiteral: "shaking"
p4055
tp4056
I1
s(Vinsert
p4057
I43
VSimpleType: Promise
p4058
tp4059
I2
s(Vinsert
p4060
I42
VSimpleName: callFailure
p4061
tp4062
I2
s(Vinsert
p4063
I42
VSimpleName: Future
p4064
tp4065
I1
s(Vinsert
p4066
I45
VStringLiteral: "\u005cr\u005cnpong1\u005cr\u005cn--"
p4067
tp4068
I1
s(Vinsert
p4069
I42
VSimpleName: voidResponseBodyConverter
p4070
tp4071
I2
s(Vinsert
p4072
I42
VSimpleName: retrofitBuilder
p4073
tp4074
I1
s(Vinsert
p4075
I42
VSimpleName: fieldEncoding
p4076
tp4077
I2
s(Vinsert
p4078
I42
VSimpleName: getTypeTestMethod
p4079
tp4080
I1
s(Vinsert
p4081
I42
VSimpleName: interfaces
p4082
tp4083
I1
s(Vinsert
p4084
I43
VSimpleType: MultipartBody.Part
p4085
tp4086
I6
s(Vinsert
p4087
I42
VSimpleName: Builder
p4088
tp4089
I1
s(Vinsert
p4090
I42
VSimpleName: doOnNext
p4091
tp4092
I1
s(Vinsert
p4093
I45
VStringLiteral: "{}"
p4094
tp4095
I1
s(Vinsert
p4096
I40
VQualifiedName: retrofit2.HttpException
p4097
tp4098
I1
s(Vinsert
p4099
I10
VBreakStatement
p4100
tp4101
I1
s(Vinsert
p4102
I45
VStringLiteral: "Query param map must not be null."
p4103
tp4104
I1
s(Vinsert
p4105
I43
VSimpleType: RecordedRequest
p4106
tp4107
I2
s(Vinsert
p4108
I42
VSimpleName: equals
p4109
tp4110
I15
s(Vinsert
p4111
I43
VSimpleType: Example
p4112
tp4113
I17
s(Vinsert
p4114
I12
VCatchClause
p4115
tp4116
I24
s(Vinsert
p4117
I43
VSimpleType: HttpEntity
p4118
tp4119
I2
s(Vinsert
p4120
I42
VSimpleName: arbiter
p4121
tp4122
I1
s(Vinsert
p4123
I74
VParameterizedType: OkHttpCall<>
p4124
tp4125
I1
s(Vinsert
p4126
I42
VSimpleName: urlString
p4127
tp4128
I4
s(Vinsert
p4129
I42
VSimpleName: convert
p4130
tp4131
I16
s(Vinsert
p4132
I42
VSimpleName: JsonTypedBytes
p4133
tp4134
I1
s(Vinsert
p4135
I42
VSimpleName: singleResponseFailure
p4136
tp4137
I1
s(Vinsert
p4138
I42
VSimpleName: IllegalAccessException
p4139
tp4140
I1
s(Vinsert
p4141
I42
VSimpleName: facade
p4142
tp4143
I2
s(Vinsert
p4144
I45
VStringLiteral: ""
p4145
tp4146
I3
s(Vinsert
p4147
I45
VStringLiteral: "finger"
p4148
tp4149
I1
s(Vinsert
p4150
I43
VSimpleType: OkHttpCall
p4151
tp4152
I3
s(Vinsert
p4153
I42
VSimpleName: failureRef
p4154
tp4155
I1
s(Vinsert
p4156
I45
VStringLiteral: "yep"
p4157
tp4158
I1
s(Vinsert
p4159
I42
VSimpleName: b
p4160
tp4161
I8
s(Vinsert
p4162
I40
VQualifiedName: methodDetails.isSynchronous
p4163
tp4164
I1
s(Vinsert
p4165
I66
VTextElement: . 
p4166
tp4167
I1
s(Vinsert
p4168
I43
VSimpleType: MultipartTypedOutput
p4169
tp4170
I7
s(Vinsert
p4171
I42
VSimpleName: CompositeException
p4172
tp4173
I6
s(Vinsert
p4174
I42
VSimpleName: ENCODING
p4175
tp4176
I2
s(Vinsert
p4177
I43
VSimpleType: TypedFile
p4178
tp4179
I1
s(Vinsert
p4180
I42
VSimpleName: networkError
p4181
tp4182
I2
s(Vinsert
p4183
I42
VSimpleName: MimeType
p4184
tp4185
I1
s(Vinsert
p4186
I42
VSimpleName: OkHttpResponseBodyConverter
p4187
tp4188
I1
s(Vinsert
p4189
I74
VParameterizedType: Response<R>
p4190
tp4191
I5
s(Vinsert
p4192
I45
VStringLiteral: "parser"
p4193
tp4194
I1
s(Vinsert
p4195
I45
VStringLiteral: "headers == null"
p4196
tp4197
I1
s(Vinsert
p4198
I42
VSimpleName: clone
p4199
tp4200
I3
s(Vinsert
p4201
I42
VSimpleName: expectLifecycle
p4202
tp4203
I1
s(Vinsert
p4204
I45
VStringLiteral: "getMainQueue"
p4205
tp4206
I1
s(Vinsert
p4207
I45
VStringLiteral: "Could not deserialize body as "
p4208
tp4209
I1
s(Vinsert
p4210
I74
VParameterizedType: TestSubscriber<Void>
p4211
tp4212
I1
s(Vinsert
p4213
I42
VSimpleName: bodyFailure
p4214
tp4215
I3
s(Vinsert
p4216
I45
VStringLiteral: "---> HTTP POST http://example.com/"
p4217
tp4218
I1
s(Vinsert
p4219
I34
VNumberLiteral: 100
p4220
tp4221
I2
s(Vinsert
p4222
I43
VSimpleType: RequestAction
p4223
tp4224
I1
s(Vinsert
p4225
I42
VSimpleName: snapshot
p4226
tp4227
I1
s(Vinsert
p4228
I42
VSimpleName: makeSingle
p4229
tp4230
I1
s(Vinsert
p4231
I43
VSimpleType: OutputStreamWriter
p4232
tp4233
I3
s(Vinsert
p4234
I42
VSimpleName: newUrl
p4235
tp4236
I1
s(Vinsert
p4237
I42
VSimpleName: as
p4238
tp4239
I2
s(Vinsert
p4240
I74
VParameterizedType: AtomicReference<Request>
p4241
tp4242
I1
s(Vinsert
p4243
I43
VSimpleType: OnSubscribe
p4244
tp4245
I1
s(Vinsert
p4246
I42
VSimpleName: paramList
p4247
tp4248
I3
s(Vinsert
p4249
I40
VQualifiedName: Retrofit.Builder
p4250
tp4251
I22
s(Vinsert
p4252
I42
VSimpleName: variance
p4253
tp4254
I1
s(Vinsert
p4255
I42
VSimpleName: rawResponse
p4256
tp4257
I4
s(Vinsert
p4258
I42
VSimpleName: RuntimeException
p4259
tp4260
I6
s(Vinsert
p4261
I42
VSimpleName: setURI
p4262
tp4263
I1
s(Vinsert
p4264
I42
VSimpleName: Void
p4265
tp4266
I3
s(Vinsert
p4267
I43
VSimpleType: CallArbiter
p4268
tp4269
I2
s(Vinsert
p4270
I42
VSimpleName: requestParamAnnotation
p4271
tp4272
I2
s(Vinsert
p4273
I42
VSimpleName: getCause
p4274
tp4275
I9
s(Vinsert
p4276
I42
VSimpleName: GitHub
p4277
tp4278
I2
s(Vinsert
p4279
I42
VSimpleName: addOperation
p4280
tp4281
I1
s(Vinsert
p4282
I43
VSimpleType: RequestInterceptor
p4283
tp4284
I1
s(Vinsert
p4285
I42
VSimpleName: canceled
p4286
tp4287
I2
s(Vinsert
p4288
I45
VStringLiteral: " * retrofit.ProtoConverterFactory\u005cn"
p4289
tp4290
I1
s(Vinsert
p4291
I42
VSimpleName: arrayValue
p4292
tp4293
I2
s(Vinsert
p4294
I42
VSimpleName: originalRelativePath
p4295
tp4296
I2
s(Vinsert
p4297
I42
VSimpleName: source
p4298
tp4299
I10
s(Vinsert
p4300
I42
VSimpleName: objectMapper
p4301
tp4302
I3
s(Vinsert
p4303
I42
VSimpleName: HttpResponse
p4304
tp4305
I1
s(Vinsert
p4306
I74
VParameterizedType: Response<T>
p4307
tp4308
I5
s(Vinsert
p4309
I42
VSimpleName: FileInputStream
p4310
tp4311
I1
s(Vinsert
p4312
I43
VSimpleType: Endpoint
p4313
tp4314
I3
s(Vinsert
p4315
I42
VSimpleName: logLevel
p4316
tp4317
I1
s(Vinsert
p4318
I42
VSimpleName: RecordingSingleObserver
p4319
tp4320
I1
s(Vinsert
p4321
I43
VSimpleType: RetrofitError
p4322
tp4323
I6
s(Vinsert
p4324
I42
VSimpleName: getPathParameters
p4325
tp4326
I1
s(Vinsert
p4327
I23
VFieldDeclaration
p4328
tp4329
I7
s(Vinsert
p4330
I42
VSimpleName: ServerException
p4331
tp4332
I2
s(Vinsert
p4333
I42
VSimpleName: callFunc
p4334
tp4335
I3
s(Vinsert
p4336
I42
VSimpleName: tookMs
p4337
tp4338
I3
s(Vinsert
p4339
I42
VSimpleName: mockProfiler
p4340
tp4341
I2
s(Vinsert
p4342
I45
VStringLiteral: "bytes"
p4343
tp4344
I1
s(Vinsert
p4345
I34
VNumberLiteral: 200
p4346
tp4347
I1
s(Vinsert
p4348
I42
VSimpleName: addQueryParam
p4349
tp4350
I4
s(Vinsert
p4351
I34
VNumberLiteral: 404
p4352
tp4353
I2
s(Vinsert
p4354
I42
VSimpleName: addSerializer
p4355
tp4356
I1
s(Vinsert
p4357
I43
VSimpleType: ProfilingResponseHandler
p4358
tp4359
I1
s(Vinsert
p4360
I74
VParameterizedType: Map<String,RequestBody>
p4361
tp4362
I1
s(Vinsert
p4363
I42
VSimpleName: events
p4364
tp4365
I1
s(Vinsert
p4366
I42
VSimpleName: bodyLength
p4367
tp4368
I3
s(Vinsert
p4369
I42
VSimpleName: parseResponse
p4370
tp4371
I2
s(Vinsert
p4372
I62
VInstanceofExpression
p4373
tp4374
I12
s(Vinsert
p4375
I42
VSimpleName: Type
p4376
tp4377
I31
s(Vinsert
p4378
I45
VStringLiteral: "Expected a protobuf message but was java.lang.String"
p4379
tp4380
I1
s(Vinsert
p4381
I69
VMethodRefParameter
p4382
tp4383
I2
s(Vinsert
p4384
I40
VQualifiedName: bytes.length
p4385
tp4386
I3
s(Vinsert
p4387
I45
VStringLiteral: "Content-Length: "
p4388
tp4389
I1
s(Vinsert
p4390
I42
VSimpleName: errorHandler
p4391
tp4392
I8
s(Vinsert
p4393
I34
VNumberLiteral: 2
p4394
tp4395
I2
s(Vinsert
p4396
I42
VSimpleName: isOnComplete
p4397
tp4398
I1
s(Vinsert
p4399
I42
VSimpleName: assertThat
p4400
tp4401
I109
s(Vinsert
p4402
I45
VStringLiteral: "/foo/bar/{ping}/"
p4403
tp4404
I2
s(Vinsert
p4405
I42
VSimpleName: RequestLine
p4406
tp4407
I1
s(Vinsert
p4408
I42
VSimpleName: Example
p4409
tp4410
I18
s(Vinsert
p4411
I45
VStringLiteral: "@Header parameter type must be String. Found: %s."
p4412
tp4413
I1
s(Vinsert
p4414
I42
VSimpleName: paramUsages
p4415
tp4416
I1
s(Vinsert
p4417
I42
VSimpleName: URLEncodedUtils
p4418
tp4419
I1
s(Vinsert
p4420
I42
VSimpleName: injector
p4421
tp4422
I2
s(Vinsert
p4423
I42
VSimpleName: addNamedParam
p4424
tp4425
I2
s(Vinsert
p4426
I42
VSimpleName: Java8OptionalConverterFactory
p4427
tp4428
I1
s(Vinsert
p4429
I42
VSimpleName: OutputStreamWriter
p4430
tp4431
I3
s(Vinsert
p4432
I42
VSimpleName: out
p4433
tp4434
I11
s(Vinsert
p4435
I45
VStringLiteral: "annotations == null"
p4436
tp4437
I2
s(Vinsert
p4438
I42
VSimpleName: data
p4439
tp4440
I1
s(Vinsert
p4441
I40
VQualifiedName: org.easymock.EasyMock.verify
p4442
tp4443
I1
s(Vinsert
p4444
I42
VSimpleName: elementLength
p4445
tp4446
I1
s(Vinsert
p4447
I40
VQualifiedName: org.apache.http.Header
p4448
tp4449
I1
s(Vinsert
p4450
I42
VSimpleName: Pattern
p4451
tp4452
I4
s(Vinsert
p4453
I45
VStringLiteral: ")\u005c\u005c}"
p4454
tp4455
I1
s(Vinsert
p4456
I31
VMethodDeclaration
p4457
tp4458
I85
s(Vinsert
p4459
I40
VQualifiedName: RestAdapter.Builder
p4460
tp4461
I6
s(Vinsert
p4462
I27
VInfixExpression: *
p4463
tp4464
I1
s(Vinsert
p4465
I39
VPrimitiveType: void
p4466
tp4467
I89
s(Vinsert
p4468
I42
VSimpleName: isCompletable
p4469
tp4470
I1
s(Vinsert
p4471
I42
VSimpleName: failure
p4472
tp4473
I7
s(Vinsert
p4474
I42
VSimpleName: StringConverterFactory
p4475
tp4476
I4
s(Vinsert
p4477
I42
VSimpleName: input
p4478
tp4479
I3
s(Vinsert
p4480
I43
VSimpleType: Part
p4481
tp4482
I1
s(Vinsert
p4483
I40
VQualifiedName: okhttp3.Response.Builder
p4484
tp4485
I1
s(Vinsert
p4486
I45
VStringLiteral: "UTF-8"
p4487
tp4488
I10
s(Vinsert
p4489
I42
VSimpleName: wrapper
p4490
tp4491
I1
s(Vinsert
p4492
I42
VSimpleName: methodInfo
p4493
tp4494
I10
s(Vinsert
p4495
I27
VInfixExpression: !=
p4496
tp4497
I45
s(Vinsert
p4498
I42
VSimpleName: end
p4499
tp4500
I1
s(Vinsert
p4501
I42
VSimpleName: connection
p4502
tp4503
I10
s(Vinsert
p4504
I40
VQualifiedName: MultipartBody.Part
p4505
tp4506
I9
s(Vinsert
p4507
I42
VSimpleName: assertContent
p4508
tp4509
I2
s(Vinsert
p4510
I39
VPrimitiveType: boolean
p4511
tp4512
I19
s(Vinsert
p4513
I42
VSimpleName: hashCode
p4514
tp4515
I8
s(Vinsert
p4516
I42
VSimpleName: declaringType
p4517
tp4518
I2
s(Vinsert
p4519
I42
VSimpleName: byteResponse
p4520
tp4521
I1
s(Vinsert
p4522
I42
VSimpleName: requestType
p4523
tp4524
I4
s(Vinsert
p4525
I43
VSimpleType: retrofit2.HttpException
p4526
tp4527
I1
s(Vinsert
p4528
I45
VStringLiteral: "Unable to create converter for java.util.List<java.lang.String>\u005cn"
p4529
tp4530
I2
s(Vinsert
p4531
I42
VSimpleName: toInstance
p4532
tp4533
I2
s(Vinsert
p4534
I42
VSimpleName: onResponse
p4535
tp4536
I6
s(Vinsert
p4537
I42
VSimpleName: isSynchronous
p4538
tp4539
I1
s(Vinsert
p4540
I42
VSimpleName: replaceAll
p4541
tp4542
I1
s(Vinsert
p4543
I42
VSimpleName: rawType
p4544
tp4545
I3
s(Vinsert
p4546
I42
VSimpleName: bodyBytes
p4547
tp4548
I2
s(Vinsert
p4549
I42
VSimpleName: HttpEntity
p4550
tp4551
I2
s(Vinsert
p4552
I74
VParameterizedType: CallArbiter<>
p4553
tp4554
I1
s(Vinsert
p4555
I42
VSimpleName: HttpClient
p4556
tp4557
I1
s(Vinsert
p4558
I42
VSimpleName: encoded
p4559
tp4560
I2
s(Vinsert
p4561
I74
VParameterizedType: Call<T>
p4562
tp4563
I1
s(Vinsert
p4564
I42
VSimpleName: pos
p4565
tp4566
I1
s(Vinsert
p4567
I42
VSimpleName: IDLE_THREAD_NAME
p4568
tp4569
I1
s(Vinsert
p4570
I59
VVariableDeclarationFragment
p4571
tp4572
I365
s(Vinsert
p4573
I42
VSimpleName: fromMethod
p4574
tp4575
I1
s(Vinsert
p4576
I42
VSimpleName: AnImplementation
p4577
tp4578
I4
s(Vinsert
p4579
I42
VSimpleName: Utils
p4580
tp4581
I19
s(Vinsert
p4582
I42
VSimpleName: bos
p4583
tp4584
I3
s(Vinsert
p4585
I43
VSimpleType: UnsupportedOperationException
p4586
tp4587
I1
s(Vinsert
p4588
I42
VSimpleName: expected
p4589
tp4590
I3
s(Vinsert
p4591
I42
VSimpleName: p
p4592
tp4593
I3
s(Vinsert
p4594
I42
VSimpleName: TestSubscriber
p4595
tp4596
I8
s(Vinsert
p4597
I42
VSimpleName: Disposable
p4598
tp4599
I2
s(Vinsert
p4600
I45
VStringLiteral: "parameterAnnotations == null"
p4601
tp4602
I1
s(Vinsert
p4603
I42
VSimpleName: getEntity
p4604
tp4605
I2
s(Vinsert
p4606
I45
VStringLiteral: "Query map value '"
p4607
tp4608
I1
s(Vinsert
p4609
I42
VSimpleName: RequestFacade
p4610
tp4611
I2
s(Vinsert
p4612
I43
VSimpleType: Disposable
p4613
tp4614
I2
s(Vinsert
p4615
I66
VTextElement: Base URL: http://example.com<br>
p4616
tp4617
I1
s(Vinsert
p4618
I43
VSimpleType: Query
p4619
tp4620
I1
s(Vinsert
p4621
I45
VStringLiteral: "equals"
p4622
tp4623
I1
s(Vinsert
p4624
I42
VSimpleName: byteObject
p4625
tp4626
I1
s(Vinsert
p4627
I42
VSimpleName: Runnable
p4628
tp4629
I6
s(Vinsert
p4630
I42
VSimpleName: currentThread
p4631
tp4632
I4
s(Vinsert
p4633
I42
VSimpleName: readHttpMethodAnnotation
p4634
tp4635
I1
s(Vinsert
p4636
I51
VSynchronizedStatement
p4637
tp4638
I1
s(Vinsert
p4639
I42
VSimpleName: chain
p4640
tp4641
I2
s(Vinsert
p4642
I42
VSimpleName: i
p4643
tp4644
I48
s(Vinsert
p4645
I45
VStringLiteral: "first"
p4646
tp4647
I1
s(Vinsert
p4648
I42
VSimpleName: parameterType
p4649
tp4650
I3
s(Vinsert
p4651
I42
VSimpleName: event
p4652
tp4653
I2
s(Vinsert
p4654
I42
VSimpleName: json
p4655
tp4656
I2
s(Vinsert
p4657
I42
VSimpleName: converterReturningNullThrows
p4658
tp4659
I1
s(Vinsert
p4660
I40
VQualifiedName: HttpProfiler.Method
p4661
tp4662
I1
s(Vinsert
p4663
I42
VSimpleName: tearDown
p4664
tp4665
I1
s(Vinsert
p4666
I45
VStringLiteral: "EFBBBF"
p4667
tp4668
I1
s(Vinsert
p4669
I74
VParameterizedType: ScalarRequestBodyConverter<>
p4670
tp4671
I1
s(Vinsert
p4672
I42
VSimpleName: getMainLooper
p4673
tp4674
I2
s(Vinsert
p4675
I42
VSimpleName: currentTimeMillis
p4676
tp4677
I1
s(Vinsert
p4678
I40
VQualifiedName: error.button_label
p4679
tp4680
I1
s(Vinsert
p4681
I42
VSimpleName: requestInterceptor
p4682
tp4683
I3
s(Vinsert
p4684
I42
VSimpleName: getObservableType
p4685
tp4686
I1
s(Vinsert
p4687
I43
VSimpleType: MockRetrofit.Builder
p4688
tp4689
I1
s(Vinsert
p4690
I42
VSimpleName: rawReturnType
p4691
tp4692
I1
s(Vinsert
p4693
I42
VSimpleName: converterFactories
p4694
tp4695
I9
s(Vinsert
p4696
I74
VParameterizedType: Response<String>
p4697
tp4698
I11
s(Vinsert
p4699
I42
VSimpleName: getPartCount
p4700
tp4701
I1
s(Vinsert
p4702
I42
VSimpleName: requests
p4703
tp4704
I1
s(Vinsert
p4705
I66
VTextElement:  directly.
p4706
tp4707
I1
s(Vinsert
p4708
I42
VSimpleName: writer
p4709
tp4710
I2
s(Vinsert
p4711
I42
VSimpleName: getProperty
p4712
tp4713
I1
s(Vinsert
p4714
I43
VSimpleType: PutService
p4715
tp4716
I1
s(Vinsert
p4717
I43
VSimpleType: DownloadHandler
p4718
tp4719
I1
s(Vinsert
p4720
I42
VSimpleName: getURI
p4721
tp4722
I1
s(Vinsert
p4723
I40
VQualifiedName: okhttp3.Call
p4724
tp4725
I1
s(Vinsert
p4726
I34
VNumberLiteral: 4
p4727
tp4728
I2
s(Vinsert
p4729
I42
VSimpleName: setResponseCode
p4730
tp4731
I2
s(Vinsert
p4732
I42
VSimpleName: fe
p4733
tp4734
I2
s(Vinsert
p4735
I42
VSimpleName: example
p4736
tp4737
I8
s(Vinsert
p4738
I43
VSimpleType: MessageLite
p4739
tp4740
I3
s(Vinsert
p4741
I42
VSimpleName: Converter
p4742
tp4743
I10
s(Vinsert
p4744
I42
VSimpleName: TypedBytes
p4745
tp4746
I1
s(Vinsert
p4747
I42
VSimpleName: FULL
p4748
tp4749
I1
s(Vinsert
p4750
I42
VSimpleName: add
p4751
tp4752
I24
s(Vinsert
p4753
I42
VSimpleName: assertEquals
p4754
tp4755
I5
s(Vinsert
p4756
I40
VQualifiedName: Request.Builder
p4757
tp4758
I1
s(Vinsert
p4759
I42
VSimpleName: getParameterUpperBound
p4760
tp4761
I7
s(Vinsert
p4762
I45
VStringLiteral: "Content-Disposition: form-data;"
p4763
tp4764
I2
s(Vinsert
p4765
I43
VSimpleType: Chain
p4766
tp4767
I1
s(Vinsert
p4768
I74
VParameterizedType: LinkedHashMap<>
p4769
tp4770
I1
s(Vinsert
p4771
I45
VStringLiteral: "--"
p4772
tp4773
I1
s(Vinsert
p4774
I42
VSimpleName: responseBodyConverter
p4775
tp4776
I1
s(Vinsert
p4777
I34
VNumberLiteral: 4096
p4778
tp4779
I1
s(Vinsert
p4780
I42
VSimpleName: withNulls
p4781
tp4782
I1
s(Vinsert
p4783
I42
VSimpleName: repoContributors
p4784
tp4785
I1
s(Vinsert
p4786
I42
VSimpleName: assertFalse
p4787
tp4788
I2
s(Vinsert
p4789
I43
VSimpleType: StatusLine
p4790
tp4791
I1
s(Vinsert
p4792
I42
VSimpleName: getBytes
p4793
tp4794
I8
s(Vinsert
p4795
I42
VSimpleName: ParameterizedType
p4796
tp4797
I13
s(Vinsert
p4798
I42
VSimpleName: intercept
p4799
tp4800
I3
s(Vinsert
p4801
I42
VSimpleName: getAnnotations
p4802
tp4803
I3
s(Vinsert
p4804
I42
VSimpleName: shutdown
p4805
tp4806
I2
s(Vinsert
p4807
I42
VSimpleName: one
p4808
tp4809
I2
s(Vinsert
p4810
I42
VSimpleName: hasSize
p4811
tp4812
I3
s(Vinsert
p4813
I42
VSimpleName: singletonList
p4814
tp4815
I1
s(Vinsert
p4816
I42
VSimpleName: isDefaultMethod
p4817
tp4818
I2
s(Vinsert
p4819
I66
VTextElement: Determine whether or not OkHttp is present on the runtime classpath. 
p4820
tp4821
I1
s(Vinsert
p4822
I42
VSimpleName: getLength
p4823
tp4824
I3
s(Vinsert
p4825
I27
VInfixExpression: &&
p4826
tp4827
I7
s(Vinsert
p4828
I42
VSimpleName: jsonFactory
p4829
tp4830
I1
s(Vinsert
p4831
I42
VSimpleName: HAS_RX_JAVA
p4832
tp4833
I1
s(Vinsert
p4834
I42
VSimpleName: protocol
p4835
tp4836
I1
s(Vinsert
p4837
I42
VSimpleName: reader
p4838
tp4839
I4
s(Vinsert
p4840
I43
VSimpleType: Writer
p4841
tp4842
I1
s(Vinsert
p4843
I42
VSimpleName: addHeader
p4844
tp4845
I9
s(Vinsert
p4846
I74
VParameterizedType: ProfilingResponseHandler<T>
p4847
tp4848
I2
s(Vinsert
p4849
I42
VSimpleName: pluginRef
p4850
tp4851
I5
s(Vinsert
p4852
I42
VSimpleName: LOGGER
p4853
tp4854
I3
s(Vinsert
p4855
I42
VSimpleName: parseCharset
p4856
tp4857
I9
s(Vinsert
p4858
I40
VQualifiedName: com.squareup.okhttp.Response.Builder
p4859
tp4860
I1
s(Vinsert
p4861
I42
VSimpleName: getBodyParts
p4862
tp4863
I1
s(Vinsert
p4864
I42
VSimpleName: part1
p4865
tp4866
I2
s(Vinsert
p4867
I42
VSimpleName: decode
p4868
tp4869
I1
s(Vinsert
p4870
I45
VStringLiteral: "http://example.com/"
p4871
tp4872
I1
s(Vinsert
p4873
I42
VSimpleName: BASE_URL
p4874
tp4875
I1
s(Vinsert
p4876
I42
VSimpleName: emptyList
p4877
tp4878
I4
s(Vinsert
p4879
I45
VStringLiteral: "2"
p4880
tp4881
I1
s(Vinsert
p4882
I42
VSimpleName: min
p4883
tp4884
I1
s(Vinsert
p4885
I74
VParameterizedType: TypeToken<Single<Response<? extends String>>>
p4886
tp4887
I1
s(Vinsert
p4888
I42
VSimpleName: platform
p4889
tp4890
I8
s(Vinsert
p4891
I42
VSimpleName: raf
p4892
tp4893
I3
s(Vinsert
p4894
I42
VSimpleName: completableSuccess200
p4895
tp4896
I2
s(Vinsert
p4897
I43
VSimpleType: RestMethodInfo
p4898
tp4899
I8
s(Vinsert
p4900
I42
VSimpleName: arg
p4901
tp4902
I2
s(Vinsert
p4903
I74
VParameterizedType: Class<?>
p4904
tp4905
I7
s(Vinsert
p4906
I43
VSimpleType: MockRetrofit
p4907
tp4908
I1
s(Vinsert
p4909
I42
VSimpleName: InterruptedException
p4910
tp4911
I4
s(Vinsert
p4912
I42
VSimpleName: post
p4913
tp4914
I3
s(Vinsert
p4915
I42
VSimpleName: log
p4916
tp4917
I12
s(Vinsert
p4918
I42
VSimpleName: setResponseMessage
p4919
tp4920
I1
s(Vinsert
p4921
I74
VParameterizedType: Callback<T>
p4922
tp4923
I2
s(Vinsert
p4924
I43
VSimpleType: URISyntaxException
p4925
tp4926
I1
s(Vinsert
p4927
I42
VSimpleName: requestClass
p4928
tp4929
I1
s(Vinsert
p4930
I42
VSimpleName: getParts
p4931
tp4932
I3
s(Vinsert
p4933
I45
VStringLiteral: "ftp://example.org"
p4934
tp4935
I1
s(Vinsert
p4936
I45
VStringLiteral: "Hi"
p4937
tp4938
I5
s(Vinsert
p4939
I42
VSimpleName: content
p4940
tp4941
I3
s(Vinsert
p4942
I42
VSimpleName: Date
p4943
tp4944
I5
s(Vinsert
p4945
I42
VSimpleName: EntityUtils
p4946
tp4947
I1
s(Vinsert
p4948
I40
VQualifiedName: java.util.List
p4949
tp4950
I1
s(Vinsert
p4951
I42
VSimpleName: Helper
p4952
tp4953
I11
s(Vinsert
p4954
I42
VSimpleName: uri
p4955
tp4956
I3
s(Vinsert
p4957
I45
VStringLiteral: "text/plain; \u005ctcharset=utf-8"
p4958
tp4959
I1
s(Vinsert
p4960
I42
VSimpleName: Request
p4961
tp4962
I20
s(Vinsert
p4963
I42
VSimpleName: status
p4964
tp4965
I5
s(Vinsert
p4966
I42
VSimpleName: newOwnerType
p4967
tp4968
I2
s(Vinsert
p4969
I42
VSimpleName: timer
p4970
tp4971
I1
s(Vinsert
p4972
I42
VSimpleName: openConnection
p4973
tp4974
I2
s(Vinsert
p4975
I45
VStringLiteral: "foo"
p4976
tp4977
I3
s(Vinsert
p4978
I43
VSimpleType: RequestLine
p4979
tp4980
I1
s(Vinsert
p4981
I45
VStringLiteral: "Content-Length: 42"
p4982
tp4983
I1
s(Vinsert
p4984
I42
VSimpleName: MimePart
p4985
tp4986
I1
s(Vinsert
p4987
I42
VSimpleName: ListenableFuture
p4988
tp4989
I1
s(Vinsert
p4990
I42
VSimpleName: mockMainThread
p4991
tp4992
I1
s(Vinsert
p4993
I42
VSimpleName: fine
p4994
tp4995
I6
s(Vinsert
p4996
I43
VSimpleType: FieldMap
p4997
tp4998
I3
s(Vinsert
p4999
I42
VSimpleName: mainThread
p5000
tp5001
I2
s(Vinsert
p5002
I43
VSimpleType: Parser
p5003
tp5004
I1
s(Vinsert
p5005
I74
VParameterizedType: TestSubscriber<>
p5006
tp5007
I4
s(Vinsert
p5008
I40
VQualifiedName: method.isSynchronous
p5009
tp5010
I1
s(Vinsert
p5011
I45
VStringLiteral: "name=\u005c"ping\u005c"\u005cr\u005cn"
p5012
tp5013
I1
s(Vinsert
p5014
I43
VSimpleType: ServerException
p5015
tp5016
I2
s(Vinsert
p5017
I42
VSimpleName: incrementAndGet
p5018
tp5019
I1
s(Vinsert
p5020
I42
VSimpleName: urlParams
p5021
tp5022
I1
s(Vinsert
p5023
I66
VTextElement: Result: http://github.com/square/retrofit/ (note the scheme stays 'http')
p5024
tp5025
I1
s(Vinsert
p5026
I42
VSimpleName: getGenericComponentType
p5027
tp5028
I1
s(Vinsert
p5029
I43
VSimpleType: URI
p5030
tp5031
I2
s(Vinsert
p5032
I74
VParameterizedType: Call<Object>
p5033
tp5034
I1
s(Vinsert
p5035
I40
VQualifiedName: java.net.URLEncoder
p5036
tp5037
I1
s(Vinsert
p5038
I42
VSimpleName: responseType
p5039
tp5040
I14
s(Vinsert
p5041
I42
VSimpleName: ordinal
p5042
tp5043
I1
s(Vinsert
p5044
I45
VStringLiteral: "hash code"
p5045
tp5046
I1
s(Vinsert
p5047
I74
VParameterizedType: LinkedHashMap<String,Object>
p5048
tp5049
I2
s(Vinsert
p5050
I42
VSimpleName: Parameter
p5051
tp5052
I2
s(Vinsert
p5053
I42
VSimpleName: BufferedSource
p5054
tp5055
I6
s(Vinsert
p5056
I42
VSimpleName: logger
p5057
tp5058
I8
s(Vinsert
p5059
I42
VSimpleName: throwable
p5060
tp5061
I7
s(Vinsert
p5062
I43
VSimpleType: Invoker
p5063
tp5064
I1
s(Vinsert
p5065
I42
VSimpleName: getCallAdapter
p5066
tp5067
I1
s(Vinsert
p5068
I45
VStringLiteral: "rawResponse == null"
p5069
tp5070
I1
s(Vinsert
p5071
I42
VSimpleName: asList
p5072
tp5073
I2
s(Vinsert
p5074
I43
VSimpleType: NullPointerException
p5075
tp5076
I14
s(Vinsert
p5077
I42
VSimpleName: toObservable
p5078
tp5079
I1
s(Vinsert
p5080
I42
VSimpleName: bodySize
p5081
tp5082
I2
s(Vinsert
p5083
I42
VSimpleName: retrofit
p5084
tp5085
I44
s(Vinsert
p5086
I42
VSimpleName: methodParameterAnnotations
p5087
tp5088
I1
s(Vinsert
p5089
I42
VSimpleName: GET_DELETE_SIMPLE_URL
p5090
tp5091
I1
s(Vinsert
p5092
I42
VSimpleName: callbackExecutor
p5093
tp5094
I10
s(Vinsert
p5095
I42
VSimpleName: previousLength
p5096
tp5097
I2
s(Vinsert
p5098
I74
VParameterizedType: Call<MyObject>
p5099
tp5100
I1
s(Vinsert
p5101
I43
VSimpleType: AtomicReference
p5102
tp5103
I6
s(Vinsert
p5104
I45
VStringLiteral: "http://example.com"
p5105
tp5106
I9
s(Vinsert
p5107
I74
VParameterizedType: Map<String,List<Contributor>>
p5108
tp5109
I1
s(Vinsert
p5110
I42
VSimpleName: serviceMethodInfoCache
p5111
tp5112
I2
s(Vinsert
p5113
I42
VSimpleName: getGenericInterfaces
p5114
tp5115
I1
s(Vinsert
p5116
I42
VSimpleName: spy
p5117
tp5118
I1
s(Vinsert
p5119
I42
VSimpleName: encodedPairs
p5120
tp5121
I1
s(Vinsert
p5122
I45
VStringLiteral: "://"
p5123
tp5124
I1
s(Vinsert
p5125
I42
VSimpleName: QUERY
p5126
tp5127
I3
s(Vinsert
p5128
I42
VSimpleName: queryParams
p5129
tp5130
I4
s(Vinsert
p5131
I43
VSimpleType: Moshi.Builder
p5132
tp5133
I1
s(Vinsert
p5134
I42
VSimpleName: setLength
p5135
tp5136
I1
s(Vinsert
p5137
I45
VStringLiteral: "wire == null"
p5138
tp5139
I1
s(Vinsert
p5140
I42
VSimpleName: write
p5141
tp5142
I6
s(Vinsert
p5143
I42
VSimpleName: service
p5144
tp5145
I30
s(Vinsert
p5146
I45
VStringLiteral: "firstParam"
p5147
tp5148
I1
s(Vinsert
p5149
I42
VSimpleName: bodyUsesScheduler
p5150
tp5151
I1
s(Vinsert
p5152
I42
VSimpleName: Logger
p5153
tp5154
I1
s(Vinsert
p5155
I42
VSimpleName: getRelativePath
p5156
tp5157
I1
s(Vinsert
p5158
I43
VSimpleType: Long
p5159
tp5160
I2
s(Vinsert
p5161
I42
VSimpleName: errorBody
p5162
tp5163
I4
s(Vinsert
p5164
I42
VSimpleName: newProxyInstance
p5165
tp5166
I1
s(Vinsert
p5167
I42
VSimpleName: MoshiConverterFactory
p5168
tp5169
I1
s(Vinsert
p5170
I42
VSimpleName: encodedValue
p5171
tp5172
I2
s(Vinsert
p5173
I42
VSimpleName: ResponseWrapper
p5174
tp5175
I1
s(Vinsert
p5176
I42
VSimpleName: TestException
p5177
tp5178
I1
s(Vinsert
p5179
I42
VSimpleName: Optional
p5180
tp5181
I4
s(Vinsert
p5182
I42
VSimpleName: checkNotNull
p5183
tp5184
I3
s(Vinsert
p5185
I74
VParameterizedType: FutureTask<Void>
p5186
tp5187
I1
s(Vinsert
p5188
I45
VStringLiteral: "OPTIONS"
p5189
tp5190
I1
s(Vinsert
p5191
I43
VSimpleType: QueryParams
p5192
tp5193
I1
s(Vinsert
p5194
I45
VStringLiteral: "rx.Single"
p5195
tp5196
I2
s(Vinsert
p5197
I42
VSimpleName: MultipartEntity
p5198
tp5199
I1
s(Vinsert
p5200
I45
VStringLiteral: "k%20t"
p5201
tp5202
I1
s(Vinsert
p5203
I74
VParameterizedType: JsonAdapter<?>
p5204
tp5205
I1
s(Vinsert
p5206
I42
VSimpleName: Buffer
p5207
tp5208
I9
s(Vinsert
p5209
I5
VArrayType: Annotation[]
p5210
tp5211
I9
s(Vinsert
p5212
I42
VSimpleName: subscribeOn
p5213
tp5214
I4
s(Vinsert
p5215
I42
VSimpleName: added
p5216
tp5217
I2
s(Vinsert
p5218
I42
VSimpleName: SingleHelper
p5219
tp5220
I2
s(Vinsert
p5221
I42
VSimpleName: tempFile
p5222
tp5223
I1
s(Vinsert
p5224
I42
VSimpleName: getCallbackParameterTypes
p5225
tp5226
I1
s(Vinsert
p5227
I43
VSimpleType: RequestInterceptorTape
p5228
tp5229
I2
s(Vinsert
p5230
I42
VSimpleName: endpoint2
p5231
tp5232
I1
s(Vinsert
p5233
I42
VSimpleName: clientProvider
p5234
tp5235
I1
s(Vinsert
p5236
I42
VSimpleName: mayInterruptIfRunning
p5237
tp5238
I2
s(Vinsert
p5239
I43
VSimpleType: TypedOutput
p5240
tp5241
I6
s(Vinsert
p5242
I43
VSimpleType: ClientMessage
p5243
tp5244
I1
s(Vinsert
p5245
I45
VStringLiteral: " (parameter #"
p5246
tp5247
I1
s(Vinsert
p5248
I42
VSimpleName: build
p5249
tp5250
I30
s(Vinsert
p5251
I42
VSimpleName: logException
p5252
tp5253
I1
s(Vinsert
p5254
I42
VSimpleName: methods
p5255
tp5256
I2
s(Vinsert
p5257
I42
VSimpleName: len
p5258
tp5259
I1
s(Vinsert
p5260
I42
VSimpleName: getURL
p5261
tp5262
I2
s(Vinsert
p5263
I42
VSimpleName: charset
p5264
tp5265
I1
s(Vinsert
p5266
I40
VQualifiedName: Headers.Builder
p5267
tp5268
I1
s(Vinsert
p5269
I42
VSimpleName: exception
p5270
tp5271
I4
s(Vinsert
p5272
I43
VSimpleType: okhttp3.Response.Builder
p5273
tp5274
I1
s(Vinsert
p5275
I42
VSimpleName: ProtoConverterFactory
p5276
tp5277
I1
s(Vinsert
p5278
I40
VQualifiedName: that.message
p5279
tp5280
I1
s(Vinsert
p5281
I43
VSimpleType: okhttp3.Call
p5282
tp5283
I1
s(Vinsert
p5284
I42
VSimpleName: originalCall
p5285
tp5286
I4
s(Vinsert
p5287
I42
VSimpleName: cheat
p5288
tp5289
I1
s(Vinsert
p5290
I74
VParameterizedType: List<CallAdapter.Factory>
p5291
tp5292
I1
s(Vinsert
p5293
I42
VSimpleName: malformedResponseThrowsConversionException
p5294
tp5295
I1
s(Vinsert
p5296
I66
VTextElement: . Returns 
p5297
tp5298
I1
s(Vinsert
p5299
I43
VSimpleType: Method
p5300
tp5301
I18
s(Vinsert
p5302
I40
VQualifiedName: error.message_title
p5303
tp5304
I1
s(Vinsert
p5305
I42
VSimpleName: serializeNulls
p5306
tp5307
I7
s(Vinsert
p5308
I43
VSimpleType: retrofit.converter.PhoneProtos.Phone
p5309
tp5310
I1
s(Vinsert
p5311
I45
VStringLiteral: "a"
p5312
tp5313
I4
s(Vinsert
p5314
I42
VSimpleName: HttpParams
p5315
tp5316
I1
s(Vinsert
p5317
I42
VSimpleName: MethodHandler
p5318
tp5319
I1
s(Vinsert
p5320
I43
VSimpleType: TestException
p5321
tp5322
I1
s(Vinsert
p5323
I42
VSimpleName: adapter
p5324
tp5325
I25
s(Vinsert
p5326
I43
VSimpleType: Contributor
p5327
tp5328
I3
s(Vinsert
p5329
I43
VSimpleType: String
p5330
tp5331
I98
s(Vinsert
p5332
I13
VCharacterLiteral: '\u005cn'
p5333
tp5334
I2
s(Vinsert
p5335
I42
VSimpleName: setEndpoint
p5336
tp5337
I2
s(Vinsert
p5338
I42
VSimpleName: OnErrorNotImplementedException
p5339
tp5340
I3
s(Vinsert
p5341
I42
VSimpleName: e
p5342
tp5343
I64
s(Vinsert
p5344
I43
VSimpleType: Object
p5345
tp5346
I36
s(Vinsert
p5347
I40
VQualifiedName: Response.Builder
p5348
tp5349
I4
s(Vinsert
p5350
I42
VSimpleName: getReasonPhrase
p5351
tp5352
I1
s(Vinsert
p5353
I43
VSimpleType: EmptyCall
p5354
tp5355
I1
s(Vinsert
p5356
I43
VSimpleType: TypedBytes
p5357
tp5358
I1
s(Vinsert
p5359
I84
VUnionType: OnCompletedFailedException|OnErrorFailedException|OnErrorNotImplementedException
p5360
tp5361
I3
s(Vinsert
p5362
I28
VInitializer
p5363
tp5364
I1
s(Vinsert
p5365
I45
VStringLiteral: "pong"
p5366
tp5367
I3
s(Vinsert
p5368
I42
VSimpleName: part
p5369
tp5370
I6
s(Vinsert
p5371
I42
VSimpleName: Long
p5372
tp5373
I2
s(Vinsert
p5374
I45
VStringLiteral: "filter=merchant&name2=value2&"
p5375
tp5376
I1
s(Vinsert
p5377
I42
VSimpleName: countDown
p5378
tp5379
I1
s(Vinsert
p5380
I42
VSimpleName: ThreadLocal
p5381
tp5382
I1
s(Vinsert
p5383
I42
VSimpleName: headerName
p5384
tp5385
I3
s(Vinsert
p5386
I43
VSimpleType: GreetingCallAdapterFactory
p5387
tp5388
I1
s(Vinsert
p5389
I42
VSimpleName: replayAll
p5390
tp5391
I2
s(Vinsert
p5392
I42
VSimpleName: Class
p5393
tp5394
I15
s(Vinsert
p5395
I42
VSimpleName: TestScheduler
p5396
tp5397
I1
s(Vinsert
p5398
I42
VSimpleName: parameterError
p5399
tp5400
I8
s(Vinsert
p5401
I42
VSimpleName: AbstractFuture
p5402
tp5403
I1
s(Vinsert
p5404
I42
VSimpleName: ByteArrayInputStream
p5405
tp5406
I4
s(Vinsert
p5407
I42
VSimpleName: entryValue
p5408
tp5409
I3
s(Vinsert
p5410
I42
VSimpleName: requestBodyConverter
p5411
tp5412
I3
s(Vinsert
p5413
I74
VParameterizedType: AbstractFuture<R>
p5414
tp5415
I1
s(Vinsert
p5416
I74
VParameterizedType: List<String>
p5417
tp5418
I3
s(Vinsert
p5419
I42
VSimpleName: addHeaderParam
p5420
tp5421
I2
s(Vinsert
p5422
I42
VSimpleName: Override
p5423
tp5424
I63
s(Vinsert
p5425
I42
VSimpleName: RequestAction
p5426
tp5427
I1
s(Vinsert
p5428
I40
VQualifiedName: methodInfo.requestUrlParamNames
p5429
tp5430
I1
s(Vinsert
p5431
I42
VSimpleName: isNotNull
p5432
tp5433
I1
s(Vinsert
p5434
I42
VSimpleName: tag
p5435
tp5436
I1
s(Vinsert
p5437
I45
VStringLiteral: "Missing entity for "
p5438
tp5439
I1
s(Vinsert
p5440
I42
VSimpleName: IOException
p5441
tp5442
I57
s(Vinsert
p5443
I43
VSimpleType: MultipartBody
p5444
tp5445
I2
s(Vinsert
p5446
I42
VSimpleName: fileName
p5447
tp5448
I2
s(Vinsert
p5449
I42
VSimpleName: TypeAdapter
p5450
tp5451
I3
s(Vinsert
p5452
I83
VModifier: private
p5453
tp5454
I13
s(Vinsert
p5455
I42
VSimpleName: charCount
p5456
tp5457
I1
s(Vinsert
p5458
I42
VSimpleName: isExactlyInstanceOf
p5459
tp5460
I1
s(Vinsert
p5461
I42
VSimpleName: put
p5462
tp5463
I15
s(Vinsert
p5464
I42
VSimpleName: dateFormat
p5465
tp5466
I8
s(Vinsert
p5467
I42
VSimpleName: writeUtf8
p5468
tp5469
I2
s(Vinsert
p5470
I76
VWildcardType: ? extends ResponseBody
p5471
tp5472
I1
s(Vinsert
p5473
I43
VSimpleType: Iterable
p5474
tp5475
I3
s(Vinsert
p5476
I45
VStringLiteral: "b"
p5477
tp5478
I1
s(Vinsert
p5479
I42
VSimpleName: wire
p5480
tp5481
I2
s(Vinsert
p5482
I42
VSimpleName: getValue
p5483
tp5484
I2
s(Vinsert
p5485
I40
VQualifiedName: okhttp3.Response
p5486
tp5487
I1
s(Vinsert
p5488
I53
VThrowStatement
p5489
tp5490
I42
s(Vinsert
p5491
I42
VSimpleName: SimpleModule
p5492
tp5493
I1
s(Vinsert
p5494
I42
VSimpleName: nonNull
p5495
tp5496
I3
s(Vinsert
p5497
I42
VSimpleName: isr
p5498
tp5499
I2
s(Vinsert
p5500
I42
VSimpleName: typeVariableUpperBound
p5501
tp5502
I1
s(Vinsert
p5503
I42
VSimpleName: preInvoke
p5504
tp5505
I2
s(Vinsert
p5506
I42
VSimpleName: client
p5507
tp5508
I13
s(Vinsert
p5509
I42
VSimpleName: bind
p5510
tp5511
I2
s(Vinsert
p5512
I42
VSimpleName: addPart
p5513
tp5514
I7
s(Vinsert
p5515
I43
VSimpleType: HttpRequestBuilder
p5516
tp5517
I2
s(Vinsert
p5518
I74
VParameterizedType: Converter<ResponseBody,Object>
p5519
tp5520
I2
s(Vinsert
p5521
I45
VStringLiteral: "^[a-zA-Z0-9][a-zA-Z0-9-]*$"
p5522
tp5523
I1
s(Vinsert
p5524
I42
VSimpleName: clientNullThrows
p5525
tp5526
I1
s(Vinsert
p5527
I42
VSimpleName: multipartBody
p5528
tp5529
I1
s(Vinsert
p5530
I43
VSimpleType: StringBuilder
p5531
tp5532
I2
s(Vinsert
p5533
I21
VExpressionStatement
p5534
tp5535
I494
s(Vinsert
p5536
I26
VImportDeclaration
p5537
tp5538
I8
s(Vinsert
p5539
I43
VSimpleType: MimeType
p5540
tp5541
I1
s(Vinsert
p5542
I42
VSimpleName: newSingleThreadExecutor
p5543
tp5544
I3
s(Vinsert
p5545
I42
VSimpleName: Annotation
p5546
tp5547
I21
s(Vinsert
p5548
I42
VSimpleName: supportedResponseTypes
p5549
tp5550
I1
s(Vinsert
p5551
I40
VQualifiedName: RequestType.MULTIPART
p5552
tp5553
I1
s(Vinsert
p5554
I43
VSimpleType: RequestBody
p5555
tp5556
I11
s(Vinsert
p5557
I43
VSimpleType: MultipartEntity
p5558
tp5559
I1
s(Vinsert
p5560
I42
VSimpleName: convertedEntryValue
p5561
tp5562
I1
s.