(lp0
(Vinsert
p1
I42
VSimpleName: build
p2
tp3
a(Vinsert
p4
I42
VSimpleName: getTime
p5
tp6
a(Vinsert
p7
I42
VSimpleName: assertComplete
p8
tp9
a(Vinsert
p10
I42
VSimpleName: getAllHeaders
p11
tp12
a(Vinsert
p13
I42
VSimpleName: enqueue
p14
tp15
a(Vinsert
p16
I42
VSimpleName: createFormData
p17
tp18
a(Vinsert
p19
I42
VSimpleName: write
p20
tp21
a(Vinsert
p22
I42
VSimpleName: apply
p23
tp24
a(Vinsert
p25
I42
VSimpleName: emptyList
p26
tp27
a(Vinsert
p28
I42
VSimpleName: rangeEquals
p29
tp30
a(Vinsert
p31
I42
VSimpleName: start
p32
tp33
a(Vinsert
p34
I42
VSimpleName: string
p35
tp36
a(Vinsert
p37
I42
VSimpleName: next
p38
tp39
a(Vinsert
p40
I42
VSimpleName: getURI
p41
tp42
a(Vinsert
p43
I42
VSimpleName: getCallResponseType
p44
tp45
a(Vinsert
p46
I42
VSimpleName: min
p47
tp48
a(Vinsert
p49
I42
VSimpleName: newMultipart
p50
tp51
a(Vinsert
p52
I42
VSimpleName: typeVariableUpperBound
p53
tp54
a(Vinsert
p55
I42
VSimpleName: createRequestObservable
p56
tp57
a(Vinsert
p58
I42
VSimpleName: endMessage
p59
tp60
a(Vinsert
p61
I42
VSimpleName: getResponseMessage
p62
tp63
a(Vinsert
p64
I42
VSimpleName: addEncodedQueryParam
p65
tp66
a(Vinsert
p67
I42
VSimpleName: getActualTypeArguments
p68
tp69
a(Vinsert
p70
I42
VSimpleName: setRelativeUrl
p71
tp72
a(Vinsert
p73
I42
VSimpleName: newJsonWriter
p74
tp75
a(Vinsert
p76
I42
VSimpleName: proceed
p77
tp78
a(Vinsert
p79
I42
VSimpleName: addPathParam
p80
tp81
a(Vinsert
p82
I42
VSimpleName: getFinalUrl
p83
tp84
a(Vinsert
p85
I42
VSimpleName: threwException
p86
tp87
a(Vinsert
p88
I42
VSimpleName: assertCompleted
p89
tp90
a(Vinsert
p91
I42
VSimpleName: getStatusLine
p92
tp93
a(Vinsert
p94
I42
VSimpleName: getRelativePath
p95
tp96
a(Vinsert
p97
I42
VSimpleName: hasAtLeastOneElementOfType
p98
tp99
a(Vinsert
p100
I42
VSimpleName: adapt
p101
tp102
a(Vinsert
p103
I42
VSimpleName: reset
p104
tp105
a(Vinsert
p106
I42
VSimpleName: toArray
p107
tp108
a(Vinsert
p109
I42
VSimpleName: readBodyToBytesIfNecessary
p110
tp111
a(Vinsert
p112
I42
VSimpleName: lenient
p113
tp114
a(Vinsert
p115
I42
VSimpleName: unmodifiableList
p116
tp117
a(Vinsert
p118
I42
VSimpleName: method
p119
tp120
a(Vinsert
p121
I42
VSimpleName: encode
p122
tp123
a(Vinsert
p124
I42
VSimpleName: urlString
p125
tp126
a(Vinsert
p127
I42
VSimpleName: get
p128
tp129
a(Vinsert
p130
I42
VSimpleName: post
p131
tp132
a(Vinsert
p133
I42
VSimpleName: log
p134
tp135
a(Vinsert
p136
I42
VSimpleName: getBody
p137
tp138
a(Vinsert
p139
I42
VSimpleName: methodWantsSynchronousInvocation
p140
tp141
a(Vinsert
p142
I42
VSimpleName: getKind
p143
tp144
a(Vinsert
p145
I42
VSimpleName: getRequestMethod
p146
tp147
a(Vinsert
p148
I42
VSimpleName: newCachedThreadPool
p149
tp150
a(Vinsert
p151
I42
VSimpleName: read
p152
tp153
a(Vinsert
p154
I42
VSimpleName: serializeNulls
p155
tp156
a(Vinsert
p157
I42
VSimpleName: readByteString
p158
tp159
a(Vinsert
p160
I42
VSimpleName: getClass
p161
tp162
a(Vinsert
p163
I42
VSimpleName: indexOf
p164
tp165
a(Vinsert
p166
I42
VSimpleName: defaultHttpClient
p167
tp168
a(Vinsert
p169
I42
VSimpleName: forName
p170
tp171
a(Vinsert
p172
I42
VSimpleName: length
p173
tp174
a(Vinsert
p175
I42
VSimpleName: subscribe
p176
tp177
a(Vinsert
p178
I42
VSimpleName: getParameterUpperBound
p179
tp180
a(Vinsert
p181
I42
VSimpleName: from
p182
tp183
a(Vinsert
p184
I42
VSimpleName: getDeclaredField
p185
tp186
a(Vinsert
p187
I42
VSimpleName: baseUrl
p188
tp189
a(Vinsert
p190
I42
VSimpleName: currentThread
p191
tp192
a(Vinsert
p193
I42
VSimpleName: success
p194
tp195
a(Vinsert
p196
I42
VSimpleName: hashCode
p197
tp198
a(Vinsert
p199
I42
VSimpleName: takeValue
p200
tp201
a(Vinsert
p202
I42
VSimpleName: cancel
p203
tp204
a(Vinsert
p205
I42
VSimpleName: getCause
p206
tp207
a(Vinsert
p208
I42
VSimpleName: fromBody
p209
tp210
a(Vinsert
p211
I42
VSimpleName: getSuccessType
p212
tp213
a(Vinsert
p214
I42
VSimpleName: toStringUtf8
p215
tp216
a(Vinsert
p217
I42
VSimpleName: setEndpoint
p218
tp219
a(Vinsert
p220
I42
VSimpleName: preInvoke
p221
tp222
a(Vinsert
p223
I42
VSimpleName: getRawType
p224
tp225
a(Vinsert
p226
I42
VSimpleName: toBody
p227
tp228
a(Vinsert
p229
I42
VSimpleName: trim
p230
tp231
a(Vinsert
p232
I42
VSimpleName: completable
p233
tp234
a(Vinsert
p235
I42
VSimpleName: isSameAs
p236
tp237
a(Vinsert
p238
I42
VSimpleName: handleError
p239
tp240
a(Vinsert
p241
I42
VSimpleName: execute
p242
tp243
a(Vinsert
p244
I42
VSimpleName: failOnUnknown
p245
tp246
a(Vinsert
p247
I42
VSimpleName: setBody
p248
tp249
a(Vinsert
p250
I42
VSimpleName: await
p251
tp252
a(Vinsert
p253
I42
VSimpleName: serverError
p254
tp255
a(Vinsert
p256
I42
VSimpleName: compareAndSet
p257
tp258
a(Vinsert
p259
I42
VSimpleName: matcher
p260
tp261
a(Vinsert
p262
I42
VSimpleName: source
p263
tp264
a(Vinsert
p265
I42
VSimpleName: println
p266
tp267
a(Vinsert
p268
I42
VSimpleName: getSimpleName
p269
tp270
a(Vinsert
p271
I42
VSimpleName: addFormField
p272
tp273
a(Vinsert
p274
I42
VSimpleName: sync
p275
tp276
a(Vinsert
p277
I42
VSimpleName: isArray
p278
tp279
a(Vinsert
p280
I42
VSimpleName: endpoint
p281
tp282
a(Vinsert
p283
I42
VSimpleName: entrySet
p284
tp285
a(Vinsert
p286
I42
VSimpleName: buffer
p287
tp288
a(Vinsert
p289
I42
VSimpleName: adapter
p290
tp291
a(Vinsert
p292
I42
VSimpleName: type
p293
tp294
a(Vinsert
p295
I42
VSimpleName: getReasonPhrase
p296
tp297
a(Vinsert
p298
I42
VSimpleName: newInstance
p299
tp300
a(Vinsert
p301
I42
VSimpleName: isEqualToIgnoringCase
p302
tp303
a(Vinsert
p304
I42
VSimpleName: getString
p305
tp306
a(Vinsert
p307
I42
VSimpleName: contains
p308
tp309
a(Vinsert
p310
I42
VSimpleName: isFalse
p311
tp312
a(Vinsert
p313
I42
VSimpleName: parseFrom
p314
tp315
a(Vinsert
p316
I42
VSimpleName: endsWith
p317
tp318
a(Vinsert
p319
I42
VSimpleName: protocol
p320
tp321
a(Vinsert
p322
I42
VSimpleName: contributors
p323
tp324
a(Vinsert
p325
I42
VSimpleName: newFixedEndpoint
p326
tp327
a(Vinsert
p328
I42
VSimpleName: equalsIgnoreCase
p329
tp330
a(Vinsert
p331
I42
VSimpleName: setLogLevel
p332
tp333
a(Vinsert
p334
I42
VSimpleName: delete
p335
tp336
a(Vinsert
p337
I42
VSimpleName: returning
p338
tp339
a(Vinsert
p340
I42
VSimpleName: getDeclaredMethods
p341
tp342
a(Vinsert
p343
I42
VSimpleName: toRequest
p344
tp345
a(Vinsert
p346
I42
VSimpleName: getMainLooper
p347
tp348
a(Vinsert
p349
I42
VSimpleName: setPath
p350
tp351
a(Vinsert
p352
I42
VSimpleName: currentTimeMillis
p353
tp354
a(Vinsert
p355
I42
VSimpleName: isInstanceOf
p356
tp357
a(Vinsert
p358
I42
VSimpleName: setClient
p359
tp360
a(Vinsert
p361
I42
VSimpleName: isAnnotationPresent
p362
tp363
a(Vinsert
p364
I42
VSimpleName: when
p365
tp366
a(Vinsert
p367
I42
VSimpleName: body
p368
tp369
a(Vinsert
p370
I42
VSimpleName: containsExactly
p371
tp372
a(Vinsert
p373
I42
VSimpleName: valueOf
p374
tp375
a(Vinsert
p376
I42
VSimpleName: writeValueAsBytes
p377
tp378
a(Vinsert
p379
I42
VSimpleName: isSynchronous
p380
tp381
a(Vinsert
p382
I42
VSimpleName: getSupertype
p383
tp384
a(Vinsert
p385
I42
VSimpleName: countDown
p386
tp387
a(Vinsert
p388
I42
VSimpleName: incrementAndGet
p389
tp390
a(Vinsert
p391
I42
VSimpleName: addQueryParam
p392
tp393
a(Vinsert
p394
I42
VSimpleName: getProperty
p395
tp396
a(Vinsert
p397
I42
VSimpleName: isCanceled
p398
tp399
a(Vinsert
p400
I42
VSimpleName: getGenericReturnType
p401
tp402
a(Vinsert
p403
I42
VSimpleName: invoke
p404
tp405
a(Vinsert
p406
I42
VSimpleName: addSerializer
p407
tp408
a(Vinsert
p409
I42
VSimpleName: message
p410
tp411
a(Vinsert
p412
I42
VSimpleName: readResponse
p413
tp414
a(Vinsert
p415
I42
VSimpleName: unwrapIOException
p416
tp417
a(Vinsert
p418
I42
VSimpleName: getPartCount
p419
tp420
a(Vinsert
p421
I42
VSimpleName: getGenericComponentType
p422
tp423
a(Vinsert
p424
I42
VSimpleName: charStream
p425
tp426
a(Vinsert
p427
I42
VSimpleName: getReturnType
p428
tp429
a(Vinsert
p430
I42
VSimpleName: onNext
p431
tp432
a(Vinsert
p433
I42
VSimpleName: timer
p434
tp435
a(Vinsert
p436
I42
VSimpleName: isLoggable
p437
tp438
a(Vinsert
p439
I42
VSimpleName: toInstance
p440
tp441
a(Vinsert
p442
I42
VSimpleName: getAnnotation
p443
tp444
a(Vinsert
p445
I42
VSimpleName: responseType
p446
tp447
a(Vinsert
p448
I42
VSimpleName: requestBodyConverter
p449
tp450
a(Vinsert
p451
I42
VSimpleName: getRequestProperty
p452
tp453
a(Vinsert
p454
I42
VSimpleName: headers
p455
tp456
a(Vinsert
p457
I42
VSimpleName: getCallbackParameterTypes
p458
tp459
a(Vinsert
p460
I42
VSimpleName: acquire
p461
tp462
a(Vinsert
p463
I42
VSimpleName: create
p464
tp465
a(Vinsert
p466
I42
VSimpleName: toJson
p467
tp468
a(Vinsert
p469
I42
VSimpleName: applySingleBehavior
p470
tp471
a(Vinsert
p472
I42
VSimpleName: throwIfFatal
p473
tp474
a(Vinsert
p475
I42
VSimpleName: encoded
p476
tp477
a(Vinsert
p478
I42
VSimpleName: to
p479
tp480
a(Vinsert
p481
I42
VSimpleName: setFixedLengthStreamingMode
p482
tp483
a(Vinsert
p484
I42
VSimpleName: getChannel
p485
tp486
a(Vinsert
p487
I42
VSimpleName: setWriteTimeout
p488
tp489
a(Vinsert
p490
I42
VSimpleName: mimeName
p491
tp492
a(Vinsert
p493
I42
VSimpleName: byteStream
p494
tp495
a(Vinsert
p496
I42
VSimpleName: newSuccessCall
p497
tp498
a(Vinsert
p499
I42
VSimpleName: setMethod
p500
tp501
a(Vinsert
p502
I42
VSimpleName: fromNullable
p503
tp504
a(Vinsert
p505
I42
VSimpleName: createMultipart
p506
tp507
a(Vinsert
p508
I42
VSimpleName: getStatus
p509
tp510
a(Vinsert
p511
I42
VSimpleName: asList
p512
tp513
a(Vinsert
p514
I42
VSimpleName: decodeBase64
p515
tp516
a(Vinsert
p517
I42
VSimpleName: toObservable
p518
tp519
a(Vinsert
p520
I42
VSimpleName: observable
p521
tp522
a(Vinsert
p523
I42
VSimpleName: isTrue
p524
tp525
a(Vinsert
p526
I42
VSimpleName: getAdapter
p527
tp528
a(Vinsert
p529
I42
VSimpleName: getURL
p530
tp531
a(Vinsert
p532
I42
VSimpleName: setServer
p533
tp534
a(Vinsert
p535
I42
VSimpleName: getTypeFactory
p536
tp537
a(Vinsert
p538
I42
VSimpleName: annotationType
p539
tp540
a(Vinsert
p541
I42
VSimpleName: getOwnerType
p542
tp543
a(Vinsert
p544
I42
VSimpleName: set
p545
tp546
a(Vinsert
p547
I42
VSimpleName: stringConverter
p548
tp549
a(Vinsert
p550
I42
VSimpleName: callbackExecutor
p551
tp552
a(Vinsert
p553
I42
VSimpleName: isUnsubscribed
p554
tp555
a(Vinsert
p556
I42
VSimpleName: getDeclaringClass
p557
tp558
a(Vinsert
p559
I42
VSimpleName: append
p560
tp561
a(Vinsert
p562
I42
VSimpleName: getUrl
p563
tp564
a(Vinsert
p565
I42
VSimpleName: addPair
p566
tp567
a(Vinsert
p568
I42
VSimpleName: getParts
p569
tp570
a(Vinsert
p571
I42
VSimpleName: doOnNext
p572
tp573
a(Vinsert
p574
I42
VSimpleName: nextCallAdapter
p575
tp576
a(Vinsert
p577
I42
VSimpleName: getHeaders
p578
tp579
a(Vinsert
p580
I42
VSimpleName: beforeCall
p581
tp582
a(Vinsert
p583
I42
VSimpleName: newBuilder
p584
tp585
a(Vinsert
p586
I42
VSimpleName: fileName
p587
tp588
a(Vinsert
p589
I42
VSimpleName: defaultCallbackExecutor
p590
tp591
a(Vinsert
p592
I42
VSimpleName: getGenericInterfaces
p593
tp594
a(Vinsert
p595
I42
VSimpleName: call
p596
tp597
a(Vinsert
p598
I42
VSimpleName: open
p599
tp600
a(Vinsert
p601
I42
VSimpleName: outputStream
p602
tp603
a(Vinsert
p604
I42
VSimpleName: charCount
p605
tp606
a(Vinsert
p607
I42
VSimpleName: defaultInstance
p608
tp609
a(Vinsert
p610
I42
VSimpleName: isExactlyInstanceOf
p611
tp612
a(Vinsert
p613
I42
VSimpleName: isInterface
p614
tp615
a(Vinsert
p616
I42
VSimpleName: getName
p617
tp618
a(Vinsert
p619
I42
VSimpleName: substring
p620
tp621
a(Vinsert
p622
I42
VSimpleName: equals
p623
tp624
a(Vinsert
p625
I42
VSimpleName: apiUrl
p626
tp627
a(Vinsert
p628
I42
VSimpleName: getLength
p629
tp630
a(Vinsert
p631
I42
VSimpleName: getFD
p632
tp633
a(Vinsert
p634
I42
VSimpleName: getInt
p635
tp636
a(Vinsert
p637
I42
VSimpleName: ofNullable
p638
tp639
a(Vinsert
p640
I42
VSimpleName: encodeNames
p641
tp642
a(Vinsert
p643
I42
VSimpleName: obtainResponse
p644
tp645
a(Vinsert
p646
I42
VSimpleName: of
p647
tp648
a(Vinsert
p649
I42
VSimpleName: contentLength
p650
tp651
a(Vinsert
p652
I42
VSimpleName: getDeclaredConstructor
p653
tp654
a(Vinsert
p655
I42
VSimpleName: getMimeType
p656
tp657
a(Vinsert
p658
I42
VSimpleName: put
p659
tp660
a(Vinsert
p661
I42
VSimpleName: hasMessage
p662
tp663
a(Vinsert
p664
I42
VSimpleName: add
p665
tp666
a(Vinsert
p667
I42
VSimpleName: anImplementation
p668
tp669
a(Vinsert
p670
I42
VSimpleName: convert
p671
tp672
a(Vinsert
p673
I42
VSimpleName: addConverterFactory
p674
tp675
a(Vinsert
p676
I42
VSimpleName: isAssignableFrom
p677
tp678
a(Vinsert
p679
I42
VSimpleName: hasSize
p680
tp681
a(Vinsert
p682
I42
VSimpleName: url
p683
tp684
a(Vinsert
p685
I42
VSimpleName: as
p686
tp687
a(Vinsert
p688
I42
VSimpleName: fromCallable
p689
tp690
a(Vinsert
p691
I42
VSimpleName: getMethod
p692
tp693
a(Vinsert
p694
I42
VSimpleName: run
p695
tp696
a(Vinsert
p697
I42
VSimpleName: parsePathParameters
p698
tp699
a(Vinsert
p700
I42
VSimpleName: responseBodyConverter
p701
tp702
a(Vinsert
p703
I42
VSimpleName: isSuccessful
p704
tp705
a(Vinsert
p706
I42
VSimpleName: writeUtf8
p707
tp708
a(Vinsert
p709
I42
VSimpleName: setConnectTimeout
p710
tp711
a(Vinsert
p712
I42
VSimpleName: forClass
p713
tp714
a(Vinsert
p715
I42
VSimpleName: newProxyInstance
p716
tp717
a(Vinsert
p718
I42
VSimpleName: networkError
p719
tp720
a(Vinsert
p721
I42
VSimpleName: isNull
p722
tp723
a(Vinsert
p724
I42
VSimpleName: getDeclaredMethod
p725
tp726
a(Vinsert
p727
I42
VSimpleName: d
p728
tp729
a(Vinsert
p730
I42
VSimpleName: isExecuted
p731
tp732
a(Vinsert
p733
I42
VSimpleName: replaceAll
p734
tp735
a(Vinsert
p736
I42
VSimpleName: streamToBytes
p737
tp738
a(Vinsert
p739
I42
VSimpleName: pop
p740
tp741
a(Vinsert
p742
I42
VSimpleName: nonNull
p743
tp744
a(Vinsert
p745
I42
VSimpleName: getBytes
p746
tp747
a(Vinsert
p748
I42
VSimpleName: profilerMethod
p749
tp750
a(Vinsert
p751
I42
VSimpleName: mimeType
p752
tp753
a(Vinsert
p754
I42
VSimpleName: resolve
p755
tp756
a(Vinsert
p757
I42
VSimpleName: value
p758
tp759
a(Vinsert
p760
I42
VSimpleName: onSubscribe
p761
tp762
a(Vinsert
p763
I42
VSimpleName: ordinal
p764
tp765
a(Vinsert
p766
I42
VSimpleName: createURI
p767
tp768
a(Vinsert
p769
I42
VSimpleName: encoding
p770
tp771
a(Vinsert
p772
I42
VSimpleName: intercept
p773
tp774
a(Vinsert
p775
I42
VSimpleName: unexpectedError
p776
tp777
a(Vinsert
p778
I42
VSimpleName: getEntity
p779
tp780
a(Vinsert
p781
I42
VSimpleName: getAnnotations
p782
tp783
a(Vinsert
p784
I42
VSimpleName: request
p785
tp786
a(Vinsert
p787
I42
VSimpleName: code
p788
tp789
a(Vinsert
p790
I42
VSimpleName: isDefault
p791
tp792
a(Vinsert
p793
I42
VSimpleName: isEqualTo
p794
tp795
a(Vinsert
p796
I42
VSimpleName: nextResponseBodyConverter
p797
tp798
a(Vinsert
p799
I42
VSimpleName: init
p800
tp801
a(Vinsert
p802
I42
VSimpleName: methodError
p803
tp804
a(Vinsert
p805
I42
VSimpleName: interceptors
p806
tp807
a(Vinsert
p808
I42
VSimpleName: isDefaultMethod
p809
tp810
a(Vinsert
p811
I42
VSimpleName: getOutputStream
p812
tp813
a(Vinsert
p814
I42
VSimpleName: client
p815
tp816
a(Vinsert
p817
I42
VSimpleName: takeRequest
p818
tp819
a(Vinsert
p820
I42
VSimpleName: parse
p821
tp822
a(Vinsert
p823
I42
VSimpleName: writeTo
p824
tp825
a(Vinsert
p826
I42
VSimpleName: fine
p827
tp828
a(Vinsert
p829
I42
VSimpleName: addRequestProperty
p830
tp831
a(Vinsert
p832
I42
VSimpleName: subscribeOn
p833
tp834
a(Vinsert
p835
I42
VSimpleName: addPart
p836
tp837
a(Vinsert
p838
I42
VSimpleName: writeValueAsString
p839
tp840
a(Vinsert
p841
I42
VSimpleName: getType
p842
tp843
a(Vinsert
p844
I42
VSimpleName: isShaking
p845
tp846
a(Vinsert
p847
I42
VSimpleName: createFixed
p848
tp849
a(Vinsert
p850
I42
VSimpleName: iterable
p851
tp852
a(Vinsert
p853
I42
VSimpleName: thenReturn
p854
tp855
a(Vinsert
p856
I42
VSimpleName: replace
p857
tp858
a(Vinsert
p859
I42
VSimpleName: setChunkedStreamingMode
p860
tp861
a(Vinsert
p862
I42
VSimpleName: setLength
p863
tp864
a(Vinsert
p865
I42
VSimpleName: once
p866
tp867
a(Vinsert
p868
I42
VSimpleName: exists
p869
tp870
a(Vinsert
p871
I42
VSimpleName: size
p872
tp873
a(Vinsert
p874
I42
VSimpleName: onResponse
p875
tp876
a(Vinsert
p877
I42
VSimpleName: test
p878
tp879
a(Vinsert
p880
I42
VSimpleName: getMessage
p881
tp882
a(Vinsert
p883
I42
VSimpleName: clone
p884
tp885
a(Vinsert
p886
I42
VSimpleName: shutdown
p887
tp888
a(Vinsert
p889
I42
VSimpleName: makeSingle
p890
tp891
a(Vinsert
p892
I42
VSimpleName: addAll
p893
tp894
a(Vinsert
p895
I42
VSimpleName: compile
p896
tp897
a(Vinsert
p898
I42
VSimpleName: toString
p899
tp900
a(Vinsert
p901
I42
VSimpleName: perform
p902
tp903
a(Vinsert
p904
I42
VSimpleName: pathSegments
p905
tp906
a(Vinsert
p907
I42
VSimpleName: setDelay
p908
tp909
a(Vinsert
p910
I42
VSimpleName: disableUrlEncoding
p911
tp912
a(Vinsert
p913
I42
VSimpleName: getInstance
p914
tp915
a(Vinsert
p916
I42
VSimpleName: setConnectionTimeout
p917
tp918
a(Vinsert
p919
I42
VSimpleName: toByteArray
p920
tp921
a(Vinsert
p922
I42
VSimpleName: onFailure
p923
tp924
a(Vinsert
p925
I42
VSimpleName: parseCharset
p926
tp927
a(Vinsert
p928
I42
VSimpleName: setFailurePercent
p929
tp930
a(Vinsert
p931
I42
VSimpleName: close
p932
tp933
a(Vinsert
p934
I42
VSimpleName: newSingleThreadExecutor
p935
tp936
a(Vinsert
p937
I42
VSimpleName: toRequestBody
p938
tp939
a(Vinsert
p940
I42
VSimpleName: snapshot
p941
tp942
a(Vinsert
p943
I42
VSimpleName: resolveConverter
p944
tp945
a(Vinsert
p946
I42
VSimpleName: contentType
p947
tp948
a(Vinsert
p949
I42
VSimpleName: isInstance
p950
tp951
a(Vinsert
p952
I42
VSimpleName: addHeader
p953
tp954
a(Vinsert
p955
I42
VSimpleName: getResponseObj
p956
tp957
a(Vinsert
p958
I42
VSimpleName: format
p959
tp960
a(Vinsert
p961
I42
VSimpleName: response
p962
tp963
a.