(lp0
(Vinsert
p1
I42
VSimpleName: addValue
p2
tp3
a(Vinsert
p4
I42
VSimpleName: isSmudged
p5
tp6
a(Vinsert
p7
I42
VSimpleName: getCommitTime
p8
tp9
a(Vinsert
p10
I42
VSimpleName: isPathPrefix
p11
tp12
a(Vinsert
p13
I42
VSimpleName: getData
p14
tp15
a(Vinsert
p16
I42
VSimpleName: and
p17
tp18
a(Vinsert
p19
I42
VSimpleName: getAuthorIdent
p20
tp21
a(Vinsert
p22
I42
VSimpleName: getField
p23
tp24
a(Vinsert
p25
I42
VSimpleName: getFetchRefSpecs
p26
tp27
a(Vinsert
p28
I42
VSimpleName: write
p29
tp30
a(Vinsert
p31
I42
VSimpleName: setPath
p32
tp33
a(Vinsert
p34
I42
VSimpleName: getRevWalk
p35
tp36
a(Vinsert
p37
I42
VSimpleName: getFileAttributesPosix
p38
tp39
a(Vinsert
p40
I42
VSimpleName: allocate
p41
tp42
a(Vinsert
p43
I42
VSimpleName: disableRefLog
p44
tp45
a(Vinsert
p46
I42
VSimpleName: toToken
p47
tp48
a(Vinsert
p49
I42
VSimpleName: getEdits
p50
tp51
a(Vinsert
p52
I42
VSimpleName: writeMergeHeads
p53
tp54
a(Vinsert
p55
I42
VSimpleName: setDetachingSymbolicRef
p56
tp57
a(Vinsert
p58
I42
VSimpleName: setAdvertisedRefs
p59
tp60
a(Vinsert
p61
I42
VSimpleName: isFileMode
p62
tp63
a(Vinsert
p64
I42
VSimpleName: getRewriteParents
p65
tp66
a(Vinsert
p67
I42
VSimpleName: getConfig
p68
tp69
a(Vinsert
p70
I42
VSimpleName: createSymLink
p71
tp72
a(Vinsert
p73
I42
VSimpleName: setResult
p74
tp75
a(Vinsert
p76
I42
VSimpleName: newFlag
p77
tp78
a(Vinsert
p79
I42
VSimpleName: setListMode
p80
tp81
a(Vinsert
p82
I42
VSimpleName: getConflicting
p83
tp84
a(Vinsert
p85
I42
VSimpleName: readOrigHead
p86
tp87
a(Vinsert
p88
I42
VSimpleName: writeLink
p89
tp90
a(Vinsert
p91
I42
VSimpleName: createNewFile
p92
tp93
a(Vinsert
p94
I42
VSimpleName: getLastEntry
p95
tp96
a(Vinsert
p97
I42
VSimpleName: back
p98
tp99
a(Vinsert
p100
I42
VSimpleName: isModified
p101
tp102
a(Vinsert
p103
I42
VSimpleName: getMessageDigest
p104
tp105
a(Vinsert
p106
I42
VSimpleName: reset
p107
tp108
a(Vinsert
p109
I42
VSimpleName: setReadOnly
p110
tp111
a(Vinsert
p112
I42
VSimpleName: setUseCachedPacks
p113
tp114
a(Vinsert
p115
I42
VSimpleName: getReaderOptions
p116
tp117
a(Vinsert
p118
I42
VSimpleName: unmodifiableList
p119
tp120
a(Vinsert
p121
I42
VSimpleName: isSubtree
p122
tp123
a(Vinsert
p124
I42
VSimpleName: needsInput
p125
tp126
a(Vinsert
p127
I42
VSimpleName: lookup
p128
tp129
a(Vinsert
p130
I42
VSimpleName: setTypeFastForwardUpdate
p131
tp132
a(Vinsert
p133
I42
VSimpleName: getStatusCode
p134
tp135
a(Vinsert
p136
I42
VSimpleName: setTimeout
p137
tp138
a(Vinsert
p139
I42
VSimpleName: onBeginNegotiateRound
p140
tp141
a(Vinsert
p142
I42
VSimpleName: setDoNotDelta
p143
tp144
a(Vinsert
p145
I42
VSimpleName: builder
p146
tp147
a(Vinsert
p148
I42
VSimpleName: getEntryPathBuffer
p149
tp150
a(Vinsert
p151
I42
VSimpleName: release
p152
tp153
a(Vinsert
p154
I42
VSimpleName: writeMergeCommitMsg
p155
tp156
a(Vinsert
p157
I42
VSimpleName: getReceivedPackStatistics
p158
tp159
a(Vinsert
p160
I42
VSimpleName: getSourceCommit
p161
tp162
a(Vinsert
p163
I42
VSimpleName: canMergeRegions
p164
tp165
a(Vinsert
p166
I42
VSimpleName: getUpdateIndex
p167
tp168
a(Vinsert
p169
I42
VSimpleName: onFailure
p170
tp171
a(Vinsert
p172
I42
VSimpleName: beginResult
p173
tp174
a(Vinsert
p175
I42
VSimpleName: getPeeledBuilder
p176
tp177
a(Vinsert
p178
I42
VSimpleName: readFully
p179
tp180
a(Vinsert
p181
I42
VSimpleName: install
p182
tp183
a(Vinsert
p184
I42
VSimpleName: setDirectory
p185
tp186
a(Vinsert
p187
I42
VSimpleName: getErrorType
p188
tp189
a(Vinsert
p190
I42
VSimpleName: setURI
p191
tp192
a(Vinsert
p193
I42
VSimpleName: isEmpty
p194
tp195
a(Vinsert
p196
I42
VSimpleName: name
p197
tp198
a(Vinsert
p199
I42
VSimpleName: getEntryAttributesNode
p200
tp201
a(Vinsert
p202
I42
VSimpleName: fatalError
p203
tp204
a(Vinsert
p205
I42
VSimpleName: getParent
p206
tp207
a(Vinsert
p208
I42
VSimpleName: getTarget
p209
tp210
a(Vinsert
p211
I42
VSimpleName: getCause
p212
tp213
a(Vinsert
p214
I42
VSimpleName: getLengthB
p215
tp216
a(Vinsert
p217
I42
VSimpleName: getEntryFileMode
p218
tp219
a(Vinsert
p220
I42
VSimpleName: setContentType
p221
tp222
a(Vinsert
p223
I42
VSimpleName: getPackConfig
p224
tp225
a(Vinsert
p226
I42
VSimpleName: setObjectCount
p227
tp228
a(Vinsert
p229
I42
VSimpleName: assumeTrue
p230
tp231
a(Vinsert
p232
I42
VSimpleName: isSymbolicLink
p233
tp234
a(Vinsert
p235
I42
VSimpleName: getAgent
p236
tp237
a(Vinsert
p238
I42
VSimpleName: getLeaf
p239
tp240
a(Vinsert
p241
I42
VSimpleName: randomUUID
p242
tp243
a(Vinsert
p244
I42
VSimpleName: setProgressMonitor
p245
tp246
a(Vinsert
p247
I42
VSimpleName: getParentFile
p248
tp249
a(Vinsert
p250
I42
VSimpleName: getPacks
p251
tp252
a(Vinsert
p253
I42
VSimpleName: setDeltaAttempted
p254
tp255
a(Vinsert
p256
I42
VSimpleName: getStreamFileThreshold
p257
tp258
a(Vinsert
p259
I42
VSimpleName: println
p260
tp261
a(Vinsert
p262
I42
VSimpleName: getOffset
p263
tp264
a(Vinsert
p265
I42
VSimpleName: isEmptyOrNull
p266
tp267
a(Vinsert
p268
I42
VSimpleName: entrySet
p269
tp270
a(Vinsert
p271
I42
VSimpleName: checkPathSegment
p272
tp273
a(Vinsert
p274
I42
VSimpleName: a
p275
tp276
a(Vinsert
p277
I42
VSimpleName: lightweightTag
p278
tp279
a(Vinsert
p280
I42
VSimpleName: seekRef
p281
tp282
a(Vinsert
p283
I42
VSimpleName: unmodifiableSet
p284
tp285
a(Vinsert
p286
I42
VSimpleName: fillTo
p287
tp288
a(Vinsert
p289
I42
VSimpleName: consumeRequestBody
p290
tp291
a(Vinsert
p292
I42
VSimpleName: getRefName
p293
tp294
a(Vinsert
p295
I42
VSimpleName: getRemoteName
p296
tp297
a(Vinsert
p298
I42
VSimpleName: getLocale
p299
tp300
a(Vinsert
p301
I42
VSimpleName: sort
p302
tp303
a(Vinsert
p304
I42
VSimpleName: createDefaultInstance
p305
tp306
a(Vinsert
p307
I42
VSimpleName: equalsIgnoreCase
p308
tp309
a(Vinsert
p310
I42
VSimpleName: emptySet
p311
tp312
a(Vinsert
p313
I42
VSimpleName: getPathHash
p314
tp315
a(Vinsert
p316
I42
VSimpleName: getObjectId
p317
tp318
a(Vinsert
p319
I42
VSimpleName: quote
p320
tp321
a(Vinsert
p322
I42
VSimpleName: copyTo
p323
tp324
a(Vinsert
p325
I42
VSimpleName: supportsExecute
p326
tp327
a(Vinsert
p328
I42
VSimpleName: setSecurePort
p329
tp330
a(Vinsert
p331
I42
VSimpleName: getResultSize
p332
tp333
a(Vinsert
p334
I42
VSimpleName: acceptsGzipEncoding
p335
tp336
a(Vinsert
p337
I42
VSimpleName: setInitParameter
p338
tp339
a(Vinsert
p340
I42
VSimpleName: setRawTextFactory
p341
tp342
a(Vinsert
p343
I42
VSimpleName: getCommitterIdent
p344
tp345
a(Vinsert
p346
I42
VSimpleName: matches
p347
tp348
a(Vinsert
p349
I42
VSimpleName: millis
p350
tp351
a(Vinsert
p352
I42
VSimpleName: isCaseSensitive
p353
tp354
a(Vinsert
p355
I42
VSimpleName: deleteBackslash
p356
tp357
a(Vinsert
p358
I42
VSimpleName: isValueSecure
p359
tp360
a(Vinsert
p361
I42
VSimpleName: writeObject
p362
tp363
a(Vinsert
p364
I42
VSimpleName: getReverseEntries
p365
tp366
a(Vinsert
p367
I42
VSimpleName: parent
p368
tp369
a(Vinsert
p370
I42
VSimpleName: putArchiveEntry
p371
tp372
a(Vinsert
p373
I42
VSimpleName: hasObject
p374
tp375
a(Vinsert
p376
I42
VSimpleName: describe
p377
tp378
a(Vinsert
p379
I42
VSimpleName: invoke
p380
tp381
a(Vinsert
p382
I42
VSimpleName: setPeerUserAgent
p383
tp384
a(Vinsert
p385
I42
VSimpleName: getRawStream
p386
tp387
a(Vinsert
p388
I42
VSimpleName: setRefLogMessage
p389
tp390
a(Vinsert
p391
I42
VSimpleName: expectMessage
p392
tp393
a(Vinsert
p394
I42
VSimpleName: getInt
p395
tp396
a(Vinsert
p397
I42
VSimpleName: setReadTimeout
p398
tp399
a(Vinsert
p400
I42
VSimpleName: typeString
p401
tp402
a(Vinsert
p403
I42
VSimpleName: fireEvent
p404
tp405
a(Vinsert
p406
I42
VSimpleName: getCurrentPackList
p407
tp408
a(Vinsert
p409
I42
VSimpleName: isTableOverflow
p410
tp411
a(Vinsert
p412
I42
VSimpleName: repack
p413
tp414
a(Vinsert
p415
I42
VSimpleName: getUntracked
p416
tp417
a(Vinsert
p418
I42
VSimpleName: print
p419
tp420
a(Vinsert
p421
I42
VSimpleName: getGitwebDescription
p422
tp423
a(Vinsert
p424
I42
VSimpleName: getEntryContentLength
p425
tp426
a(Vinsert
p427
I42
VSimpleName: setPushCertificate
p428
tp429
a(Vinsert
p430
I42
VSimpleName: toArray
p431
tp432
a(Vinsert
p433
I42
VSimpleName: setBiDirectionalPipe
p434
tp435
a(Vinsert
p436
I42
VSimpleName: setCredentialsProvider
p437
tp438
a(Vinsert
p439
I42
VSimpleName: performsAtomicTransactions
p440
tp441
a(Vinsert
p442
I42
VSimpleName: setSourcePath
p443
tp444
a(Vinsert
p445
I42
VSimpleName: count
p446
tp447
a(Vinsert
p448
I42
VSimpleName: setAllowLeadingZeroFileMode
p449
tp450
a(Vinsert
p451
I42
VSimpleName: setPreserveOldPacks
p452
tp453
a(Vinsert
p454
I42
VSimpleName: minUpdateIndex
p455
tp456
a(Vinsert
p457
I42
VSimpleName: setObjectId
p458
tp459
a(Vinsert
p460
I42
VSimpleName: readEnvironment
p461
tp462
a(Vinsert
p463
I42
VSimpleName: setExpectDataAfterPackFooter
p464
tp465
a(Vinsert
p466
I42
VSimpleName: decrementAndGet
p467
tp468
a(Vinsert
p469
I42
VSimpleName: supports
p470
tp471
a(Vinsert
p472
I42
VSimpleName: assumeFalse
p473
tp474
a(Vinsert
p475
I42
VSimpleName: renameTo
p476
tp477
a(Vinsert
p478
I42
VSimpleName: defaultCharset
p479
tp480
a(Vinsert
p481
I42
VSimpleName: getLastModified
p482
tp483
a(Vinsert
p484
I42
VSimpleName: getSequenceIndex
p485
tp486
a(Vinsert
p487
I42
VSimpleName: findObject
p488
tp489
a(Vinsert
p490
I42
VSimpleName: readBlock
p491
tp492
a(Vinsert
p493
I42
VSimpleName: set
p494
tp495
a(Vinsert
p496
I42
VSimpleName: getDeltaBaseId
p497
tp498
a(Vinsert
p499
I42
VSimpleName: startsWith
p500
tp501
a(Vinsert
p502
I42
VSimpleName: getErrStream
p503
tp504
a(Vinsert
p505
I42
VSimpleName: readTag
p506
tp507
a(Vinsert
p508
I42
VSimpleName: getDeltaCount
p509
tp510
a(Vinsert
p511
I42
VSimpleName: setObjectChecker
p512
tp513
a(Vinsert
p514
I42
VSimpleName: propose
p515
tp516
a(Vinsert
p517
I42
VSimpleName: branchDelete
p518
tp519
a(Vinsert
p520
I42
VSimpleName: setId
p521
tp522
a(Vinsert
p523
I42
VSimpleName: nextObject
p524
tp525
a(Vinsert
p526
I42
VSimpleName: containsGitModulesFile
p527
tp528
a(Vinsert
p529
I42
VSimpleName: remove
p530
tp531
a(Vinsert
p532
I42
VSimpleName: members
p533
tp534
a(Vinsert
p535
I42
VSimpleName: merge
p536
tp537
a(Vinsert
p538
I42
VSimpleName: setMaxBytes
p539
tp540
a(Vinsert
p541
I42
VSimpleName: int32IfNotZero
p542
tp543
a(Vinsert
p544
I42
VSimpleName: pollForUpdates
p545
tp546
a(Vinsert
p547
I42
VSimpleName: diff
p548
tp549
a(Vinsert
p550
I42
VSimpleName: setMessage
p551
tp552
a(Vinsert
p553
I42
VSimpleName: getOrLoad
p554
tp555
a(Vinsert
p556
I42
VSimpleName: serveRegex
p557
tp558
a(Vinsert
p559
I42
VSimpleName: preCommit
p560
tp561
a(Vinsert
p562
I42
VSimpleName: fill
p563
tp564
a(Vinsert
p565
I42
VSimpleName: finished
p566
tp567
a(Vinsert
p568
I42
VSimpleName: floor
p569
tp570
a(Vinsert
p571
I42
VSimpleName: runHookIfPresent
p572
tp573
a(Vinsert
p574
I42
VSimpleName: schedule
p575
tp576
a(Vinsert
p577
I42
VSimpleName: getPostBuffer
p578
tp579
a(Vinsert
p580
I42
VSimpleName: abort
p581
tp582
a(Vinsert
p583
I42
VSimpleName: decodeUInt32
p584
tp585
a(Vinsert
p586
I42
VSimpleName: setDelayStart
p587
tp588
a(Vinsert
p589
I42
VSimpleName: replaceLineBreaksWithSpace
p590
tp591
a(Vinsert
p592
I42
VSimpleName: isCorrupt
p593
tp594
a(Vinsert
p595
I42
VSimpleName: isConnected
p596
tp597
a(Vinsert
p598
I42
VSimpleName: indexOf
p599
tp600
a(Vinsert
p601
I42
VSimpleName: setEstimatedPackSize
p602
tp603
a(Vinsert
p604
I42
VSimpleName: formatLength
p605
tp606
a(Vinsert
p607
I42
VSimpleName: fromInt
p608
tp609
a(Vinsert
p610
I42
VSimpleName: getConcurrencyLevel
p611
tp612
a(Vinsert
p613
I42
VSimpleName: split
p614
tp615
a(Vinsert
p616
I42
VSimpleName: getAnnotation
p617
tp618
a(Vinsert
p619
I42
VSimpleName: newThread
p620
tp621
a(Vinsert
p622
I42
VSimpleName: setOutputStream
p623
tp624
a(Vinsert
p625
I42
VSimpleName: getBit
p626
tp627
a(Vinsert
p628
I42
VSimpleName: fromString
p629
tp630
a(Vinsert
p631
I42
VSimpleName: setPostReceiveHook
p632
tp633
a(Vinsert
p634
I42
VSimpleName: onRefsChanged
p635
tp636
a(Vinsert
p637
I42
VSimpleName: getShallowCommits
p638
tp639
a(Vinsert
p640
I42
VSimpleName: addConfigChangedListener
p641
tp642
a(Vinsert
p643
I42
VSimpleName: getMergeResult
p644
tp645
a(Vinsert
p646
I42
VSimpleName: getRecommendShallow
p647
tp648
a(Vinsert
p649
I42
VSimpleName: getRawBuffer
p650
tp651
a(Vinsert
p652
I42
VSimpleName: getChainLength
p653
tp654
a(Vinsert
p655
I42
VSimpleName: getCurrentTime
p656
tp657
a(Vinsert
p658
I42
VSimpleName: setRepository
p659
tp660
a(Vinsert
p661
I42
VSimpleName: getParameter
p662
tp663
a(Vinsert
p664
I42
VSimpleName: getReason
p665
tp666
a(Vinsert
p667
I42
VSimpleName: initializedSubmodules
p668
tp669
a(Vinsert
p670
I42
VSimpleName: commit
p671
tp672
a(Vinsert
p673
I42
VSimpleName: getBaseCommit
p674
tp675
a(Vinsert
p676
I42
VSimpleName: end
p677
tp678
a(Vinsert
p679
I42
VSimpleName: registerFormat
p680
tp681
a(Vinsert
p682
I42
VSimpleName: assertArrayEquals
p683
tp684
a(Vinsert
p685
I42
VSimpleName: addFragment
p686
tp687
a(Vinsert
p688
I42
VSimpleName: getUntrackedFolders
p689
tp690
a(Vinsert
p691
I42
VSimpleName: reduceCommonStartEnd
p692
tp693
a(Vinsert
p694
I42
VSimpleName: getBaseObjectIds
p695
tp696
a(Vinsert
p697
I42
VSimpleName: archive
p698
tp699
a(Vinsert
p700
I42
VSimpleName: getObject
p701
tp702
a(Vinsert
p703
I42
VSimpleName: containsConflicts
p704
tp705
a(Vinsert
p706
I42
VSimpleName: editor
p707
tp708
a(Vinsert
p709
I42
VSimpleName: getNote
p710
tp711
a(Vinsert
p712
I42
VSimpleName: getTxnNamespace
p713
tp714
a(Vinsert
p715
I42
VSimpleName: writeInt
p716
tp717
a(Vinsert
p718
I42
VSimpleName: beginTask
p719
tp720
a(Vinsert
p721
I42
VSimpleName: readUpdateIndexDelta
p722
tp723
a(Vinsert
p724
I42
VSimpleName: parse
p725
tp726
a(Vinsert
p727
I42
VSimpleName: hashCode
p728
tp729
a(Vinsert
p730
I42
VSimpleName: walkAdviceEnd
p731
tp732
a(Vinsert
p733
I42
VSimpleName: getStatistics
p734
tp735
a(Vinsert
p736
I42
VSimpleName: getIgnoredPaths
p737
tp738
a(Vinsert
p739
I42
VSimpleName: singleton
p740
tp741
a(Vinsert
p742
I42
VSimpleName: lineMap
p743
tp744
a(Vinsert
p745
I42
VSimpleName: copyOf
p746
tp747
a(Vinsert
p748
I42
VSimpleName: setInput
p749
tp750
a(Vinsert
p751
I42
VSimpleName: setIgnore
p752
tp753
a(Vinsert
p754
I42
VSimpleName: mkdir
p755
tp756
a(Vinsert
p757
I42
VSimpleName: runIfPresent
p758
tp759
a(Vinsert
p760
I42
VSimpleName: toPath
p761
tp762
a(Vinsert
p763
I42
VSimpleName: findRef
p764
tp765
a(Vinsert
p766
I42
VSimpleName: digest
p767
tp768
a(Vinsert
p769
I42
VSimpleName: wrap
p770
tp771
a(Vinsert
p772
I42
VSimpleName: getObjectFilter
p773
tp774
a(Vinsert
p775
I42
VSimpleName: lock
p776
tp777
a(Vinsert
p778
I42
VSimpleName: getSubsections
p779
tp780
a(Vinsert
p781
I42
VSimpleName: replaceAll
p782
tp783
a(Vinsert
p784
I42
VSimpleName: getSystem
p785
tp786
a(Vinsert
p787
I42
VSimpleName: addFetchRefSpec
p788
tp789
a(Vinsert
p790
I42
VSimpleName: keySet
p791
tp792
a(Vinsert
p793
I42
VSimpleName: getAlternateObjectDirectories
p794
tp795
a(Vinsert
p796
I42
VSimpleName: available
p797
tp798
a(Vinsert
p799
I42
VSimpleName: getConflictingPaths
p800
tp801
a(Vinsert
p802
I42
VSimpleName: toUpperCase
p803
tp804
a(Vinsert
p805
I42
VSimpleName: getEmailAddress
p806
tp807
a(Vinsert
p808
I42
VSimpleName: setFallbackAlgorithm
p809
tp810
a(Vinsert
p811
I42
VSimpleName: getInstance
p812
tp813
a(Vinsert
p814
I42
VSimpleName: setReuseValidatingObjects
p815
tp816
a(Vinsert
p817
I42
VSimpleName: cherryPick
p818
tp819
a(Vinsert
p820
I42
VSimpleName: getCommands
p821
tp822
a(Vinsert
p823
I42
VSimpleName: isUnpacked
p824
tp825
a(Vinsert
p826
I42
VSimpleName: setObjectCountCallback
p827
tp828
a(Vinsert
p829
I42
VSimpleName: zeroId
p830
tp831
a(Vinsert
p832
I42
VSimpleName: isBinary
p833
tp834
a(Vinsert
p835
I42
VSimpleName: setWorkDir
p836
tp837
a(Vinsert
p838
I42
VSimpleName: nanoTime
p839
tp840
a(Vinsert
p841
I42
VSimpleName: lastIndexOf
p842
tp843
a(Vinsert
p844
I42
VSimpleName: compareTo
p845
tp846
a(Vinsert
p847
I42
VSimpleName: setLong
p848
tp849
a(Vinsert
p850
I42
VSimpleName: ofEpochSecond
p851
tp852
a(Vinsert
p853
I42
VSimpleName: getConflictingFiles
p854
tp855
a(Vinsert
p856
I42
VSimpleName: getDateTimeInstance
p857
tp858
a(Vinsert
p859
I42
VSimpleName: isRebase
p860
tp861
a(Vinsert
p862
I42
VSimpleName: getOldObjectId
p863
tp864
a(Vinsert
p865
I42
VSimpleName: findObjects
p866
tp867
a(Vinsert
p868
I42
VSimpleName: forceUpdate
p869
tp870
a(Vinsert
p871
I42
VSimpleName: getEntryPathString
p872
tp873
a(Vinsert
p874
I42
VSimpleName: reflog
p875
tp876
a(Vinsert
p877
I42
VSimpleName: sleep
p878
tp879
a(Vinsert
p880
I42
VSimpleName: requireLock
p881
tp882
a(Vinsert
p883
I42
VSimpleName: lookupOrNull
p884
tp885
a(Vinsert
p886
I42
VSimpleName: getGroups
p887
tp888
a(Vinsert
p889
I42
VSimpleName: canExecute
p890
tp891
a(Vinsert
p892
I42
VSimpleName: setType
p893
tp894
a(Vinsert
p895
I42
VSimpleName: ofObjectType
p896
tp897
a(Vinsert
p898
I42
VSimpleName: receiveHeader
p899
tp900
a(Vinsert
p901
I42
VSimpleName: getCountOfLoadedCommits
p902
tp903
a(Vinsert
p904
I42
VSimpleName: toHexString
p905
tp906
a(Vinsert
p907
I42
VSimpleName: getTips
p908
tp909
a(Vinsert
p910
I42
VSimpleName: error
p911
tp912
a(Vinsert
p913
I42
VSimpleName: getAttributes
p914
tp915
a(Vinsert
p916
I42
VSimpleName: getReceivePackFactory
p917
tp918
a(Vinsert
p919
I42
VSimpleName: getNewHead
p920
tp921
a(Vinsert
p922
I42
VSimpleName: getOptions
p923
tp924
a(Vinsert
p925
I42
VSimpleName: getPackDirectory
p926
tp927
a(Vinsert
p928
I42
VSimpleName: getListenerList
p929
tp930
a(Vinsert
p931
I42
VSimpleName: nextSpan
p932
tp933
a(Vinsert
p934
I42
VSimpleName: parseTree
p935
tp936
a(Vinsert
p937
I42
VSimpleName: setDirCacheIterator
p938
tp939
a(Vinsert
p940
I42
VSimpleName: addAndGet
p941
tp942
a(Vinsert
p943
I42
VSimpleName: getNonce
p944
tp945
a(Vinsert
p946
I42
VSimpleName: getPath
p947
tp948
a(Vinsert
p949
I42
VSimpleName: getRefDatabase
p950
tp951
a(Vinsert
p952
I42
VSimpleName: matchFilter
p953
tp954
a(Vinsert
p955
I42
VSimpleName: skip
p956
tp957
a(Vinsert
p958
I42
VSimpleName: getRepositoryDescription
p959
tp960
a(Vinsert
p961
I42
VSimpleName: parseCommit
p962
tp963
a(Vinsert
p964
I42
VSimpleName: parsePersonIdent
p965
tp966
a(Vinsert
p967
I42
VSimpleName: getRefFilter
p968
tp969
a(Vinsert
p970
I42
VSimpleName: setRewriteParents
p971
tp972
a(Vinsert
p973
I42
VSimpleName: partitionTasks
p974
tp975
a(Vinsert
p976
I42
VSimpleName: getKey
p977
tp978
a(Vinsert
p979
I42
VSimpleName: readLines
p980
tp981
a(Vinsert
p982
I42
VSimpleName: setClean
p983
tp984
a(Vinsert
p985
I42
VSimpleName: registerIndexChangedListener
p986
tp987
a(Vinsert
p988
I42
VSimpleName: getEndB
p989
tp990
a(Vinsert
p991
I42
VSimpleName: getReviewUrl
p992
tp993
a(Vinsert
p994
I42
VSimpleName: getStreamKey
p995
tp996
a(Vinsert
p997
I42
VSimpleName: getAdded
p998
tp999
a(Vinsert
p1000
I42
VSimpleName: createFile
p1001
tp1002
a(Vinsert
p1003
I42
VSimpleName: setBucket
p1004
tp1005
a(Vinsert
p1006
I42
VSimpleName: getErrorStream
p1007
tp1008
a(Vinsert
p1009
I42
VSimpleName: writeString
p1010
tp1011
a(Vinsert
p1012
I42
VSimpleName: newReader
p1013
tp1014
a(Vinsert
p1015
I42
VSimpleName: resetCRC32
p1016
tp1017
a(Vinsert
p1018
I42
VSimpleName: waitFor
p1019
tp1020
a(Vinsert
p1021
I42
VSimpleName: getOldSymref
p1022
tp1023
a(Vinsert
p1024
I42
VSimpleName: stripTrailingSeparator
p1025
tp1026
a(Vinsert
p1027
I42
VSimpleName: addFile
p1028
tp1029
a(Vinsert
p1030
I42
VSimpleName: getWhen
p1031
tp1032
a(Vinsert
p1033
I42
VSimpleName: endWorker
p1034
tp1035
a(Vinsert
p1036
I42
VSimpleName: getServletContext
p1037
tp1038
a(Vinsert
p1039
I42
VSimpleName: replaceFirst
p1040
tp1041
a(Vinsert
p1042
I42
VSimpleName: unregister
p1043
tp1044
a(Vinsert
p1045
I42
VSimpleName: formatBase10
p1046
tp1047
a(Vinsert
p1048
I42
VSimpleName: branchList
p1049
tp1050
a(Vinsert
p1051
I42
VSimpleName: rawExecute
p1052
tp1053
a(Vinsert
p1054
I42
VSimpleName: findGitDir
p1055
tp1056
a(Vinsert
p1057
I42
VSimpleName: encodeInt32
p1058
tp1059
a(Vinsert
p1060
I42
VSimpleName: help
p1061
tp1062
a(Vinsert
p1063
I42
VSimpleName: getObjectSize1
p1064
tp1065
a(Vinsert
p1066
I42
VSimpleName: getRawSize
p1067
tp1068
a(Vinsert
p1069
I42
VSimpleName: isRemote
p1070
tp1071
a(Vinsert
p1072
I42
VSimpleName: walkAdviceBeginTrees
p1073
tp1074
a(Vinsert
p1075
I42
VSimpleName: getSimpleDateFormat
p1076
tp1077
a(Vinsert
p1078
I42
VSimpleName: unlock
p1079
tp1080
a(Vinsert
p1081
I42
VSimpleName: mark
p1082
tp1083
a(Vinsert
p1084
I42
VSimpleName: getOldName
p1085
tp1086
a(Vinsert
p1087
I42
VSimpleName: updateType
p1088
tp1089
a(Vinsert
p1090
I42
VSimpleName: newObjectInserter
p1091
tp1092
a(Vinsert
p1093
I42
VSimpleName: getAbbreviatedObjectId
p1094
tp1095
a(Vinsert
p1096
I42
VSimpleName: select
p1097
tp1098
a(Vinsert
p1099
I42
VSimpleName: remaining
p1100
tp1101
a(Vinsert
p1102
I42
VSimpleName: getenv
p1103
tp1104
a(Vinsert
p1105
I42
VSimpleName: toLowerCase
p1106
tp1107
a(Vinsert
p1108
I42
VSimpleName: onPostReceive
p1109
tp1110
a(Vinsert
p1111
I42
VSimpleName: initCause
p1112
tp1113
a(Vinsert
p1114
I42
VSimpleName: setSafeForMacOS
p1115
tp1116
a(Vinsert
p1117
I42
VSimpleName: getBigFileThreshold
p1118
tp1119
a(Vinsert
p1120
I42
VSimpleName: getObjectCount
p1121
tp1122
a(Vinsert
p1123
I42
VSimpleName: idOffset
p1124
tp1125
a(Vinsert
p1126
I42
VSimpleName: getBitmapContiguousCommitCount
p1127
tp1128
a(Vinsert
p1129
I42
VSimpleName: doFilter
p1130
tp1131
a(Vinsert
p1132
I42
VSimpleName: userHome
p1133
tp1134
a(Vinsert
p1135
I42
VSimpleName: getSecurePort
p1136
tp1137
a(Vinsert
p1138
I42
VSimpleName: cloneRepository
p1139
tp1140
a(Vinsert
p1141
I42
VSimpleName: isStaleFileHandle
p1142
tp1143
a(Vinsert
p1144
I42
VSimpleName: openObject
p1145
tp1146
a(Vinsert
p1147
I42
VSimpleName: selectObjectRepresentation
p1148
tp1149
a(Vinsert
p1150
I42
VSimpleName: invalid
p1151
tp1152
a(Vinsert
p1153
I42
VSimpleName: isFile
p1154
tp1155
a(Vinsert
p1156
I42
VSimpleName: currentTimeMillis
p1157
tp1158
a(Vinsert
p1159
I42
VSimpleName: instance
p1160
tp1161
a(Vinsert
p1162
I42
VSimpleName: setAtomic
p1163
tp1164
a(Vinsert
p1165
I42
VSimpleName: onPackStatistics
p1166
tp1167
a(Vinsert
p1168
I42
VSimpleName: setConnectionFactory
p1169
tp1170
a(Vinsert
p1171
I42
VSimpleName: getFileAttributesBasic
p1172
tp1173
a(Vinsert
p1174
I42
VSimpleName: clear
p1175
tp1176
a(Vinsert
p1177
I42
VSimpleName: getFile
p1178
tp1179
a(Vinsert
p1180
I42
VSimpleName: onConfigChanged
p1181
tp1182
a(Vinsert
p1183
I42
VSimpleName: getParentCount
p1184
tp1185
a(Vinsert
p1186
I42
VSimpleName: readACK
p1187
tp1188
a(Vinsert
p1189
I42
VSimpleName: setExpectedOldObjectId
p1190
tp1191
a(Vinsert
p1192
I42
VSimpleName: makeNext
p1193
tp1194
a(Vinsert
p1195
I42
VSimpleName: getExtension
p1196
tp1197
a(Vinsert
p1198
I42
VSimpleName: getConflictState
p1199
tp1200
a(Vinsert
p1201
I42
VSimpleName: insertId
p1202
tp1203
a(Vinsert
p1204
I42
VSimpleName: stream
p1205
tp1206
a(Vinsert
p1207
I42
VSimpleName: newMerger
p1208
tp1209
a(Vinsert
p1210
I42
VSimpleName: message
p1211
tp1212
a(Vinsert
p1213
I42
VSimpleName: setAuthor
p1214
tp1215
a(Vinsert
p1216
I42
VSimpleName: isInteractive
p1217
tp1218
a(Vinsert
p1219
I42
VSimpleName: openEntryStream
p1220
tp1221
a(Vinsert
p1222
I42
VSimpleName: deleteTrashFile
p1223
tp1224
a(Vinsert
p1225
I42
VSimpleName: compareUInt32
p1226
tp1227
a(Vinsert
p1228
I42
VSimpleName: findPosition
p1229
tp1230
a(Vinsert
p1231
I42
VSimpleName: fromReader
p1232
tp1233
a(Vinsert
p1234
I42
VSimpleName: getRawMode
p1235
tp1236
a(Vinsert
p1237
I42
VSimpleName: getTimeZoneOffset
p1238
tp1239
a(Vinsert
p1240
I42
VSimpleName: insertTo
p1241
tp1242
a(Vinsert
p1243
I42
VSimpleName: getLineDelimiter
p1244
tp1245
a(Vinsert
p1246
I42
VSimpleName: getPackFile
p1247
tp1248
a(Vinsert
p1249
I42
VSimpleName: seek
p1250
tp1251
a(Vinsert
p1252
I42
VSimpleName: containsKey
p1253
tp1254
a(Vinsert
p1255
I42
VSimpleName: isDone
p1256
tp1257
a(Vinsert
p1258
I42
VSimpleName: skipFully
p1259
tp1260
a(Vinsert
p1261
I42
VSimpleName: encodeInt64
p1262
tp1263
a(Vinsert
p1264
I42
VSimpleName: newBatchUpdate
p1265
tp1266
a(Vinsert
p1267
I42
VSimpleName: getChannel
p1268
tp1269
a(Vinsert
p1270
I42
VSimpleName: normalizeBranchName
p1271
tp1272
a(Vinsert
p1273
I42
VSimpleName: resolveBase
p1274
tp1275
a(Vinsert
p1276
I42
VSimpleName: exitValue
p1277
tp1278
a(Vinsert
p1279
I42
VSimpleName: repositoryIndex
p1280
tp1281
a(Vinsert
p1282
I42
VSimpleName: advertiseRefs
p1283
tp1284
a(Vinsert
p1285
I42
VSimpleName: getStreamPackBufferSize
p1286
tp1287
a(Vinsert
p1288
I42
VSimpleName: headSet
p1289
tp1290
a(Vinsert
p1291
I42
VSimpleName: fromRaw
p1292
tp1293
a(Vinsert
p1294
I42
VSimpleName: source
p1295
tp1296
a(Vinsert
p1297
I42
VSimpleName: getAdditionalRefs
p1298
tp1299
a(Vinsert
p1300
I42
VSimpleName: getDefault
p1301
tp1302
a(Vinsert
p1303
I42
VSimpleName: toExternalString
p1304
tp1305
a(Vinsert
p1306
I42
VSimpleName: setDatabase
p1307
tp1308
a(Vinsert
p1309
I42
VSimpleName: access
p1310
tp1311
a(Vinsert
p1312
I42
VSimpleName: getEncodedPathInfo
p1313
tp1314
a(Vinsert
p1315
I42
VSimpleName: compareUInt64
p1316
tp1317
a(Vinsert
p1318
I42
VSimpleName: setPushOptions
p1319
tp1320
a(Vinsert
p1321
I42
VSimpleName: getProperty
p1322
tp1323
a(Vinsert
p1324
I42
VSimpleName: formatDate
p1325
tp1326
a(Vinsert
p1327
I42
VSimpleName: getOldId
p1328
tp1329
a(Vinsert
p1330
I42
VSimpleName: append
p1331
tp1332
a(Vinsert
p1333
I42
VSimpleName: setWeight
p1334
tp1335
a(Vinsert
p1336
I42
VSimpleName: getAll
p1337
tp1338
a(Vinsert
p1339
I42
VSimpleName: getDepth
p1340
tp1341
a(Vinsert
p1342
I42
VSimpleName: onPreReceive
p1343
tp1344
a(Vinsert
p1345
I42
VSimpleName: newBuilder
p1346
tp1347
a(Vinsert
p1348
I42
VSimpleName: getRepositoryName
p1349
tp1350
a(Vinsert
p1351
I42
VSimpleName: getURI
p1352
tp1353
a(Vinsert
p1354
I42
VSimpleName: toConfigValue
p1355
tp1356
a(Vinsert
p1357
I42
VSimpleName: setRevFilter
p1358
tp1359
a(Vinsert
p1360
I42
VSimpleName: getSize
p1361
tp1362
a(Vinsert
p1363
I42
VSimpleName: match
p1364
tp1365
a(Vinsert
p1366
I42
VSimpleName: getRecentChunks
p1367
tp1368
a(Vinsert
p1369
I42
VSimpleName: setFileMode
p1370
tp1371
a(Vinsert
p1372
I42
VSimpleName: getRegisteredKeys
p1373
tp1374
a(Vinsert
p1375
I42
VSimpleName: lockDirCache
p1376
tp1377
a(Vinsert
p1378
I42
VSimpleName: intValue
p1379
tp1380
a(Vinsert
p1381
I42
VSimpleName: getSymLinks
p1382
tp1383
a(Vinsert
p1384
I42
VSimpleName: setNewObjectId
p1385
tp1386
a(Vinsert
p1387
I42
VSimpleName: nextBytes
p1388
tp1389
a(Vinsert
p1390
I42
VSimpleName: setContainsConflicts
p1391
tp1392
a(Vinsert
p1393
I42
VSimpleName: findTreeMember
p1394
tp1395
a(Vinsert
p1396
I42
VSimpleName: getFullMessage
p1397
tp1398
a(Vinsert
p1399
I42
VSimpleName: markDirty
p1400
tp1401
a(Vinsert
p1402
I42
VSimpleName: modify
p1403
tp1404
a(Vinsert
p1405
I42
VSimpleName: setIndexVersion
p1406
tp1407
a(Vinsert
p1408
I42
VSimpleName: parsePersonIdentOnly
p1409
tp1410
a(Vinsert
p1411
I42
VSimpleName: getDirectory
p1412
tp1413
a(Vinsert
p1414
I42
VSimpleName: assertEquals
p1415
tp1416
a(Vinsert
p1417
I42
VSimpleName: setFilename
p1418
tp1419
a(Vinsert
p1420
I42
VSimpleName: getTimeZone
p1421
tp1422
a(Vinsert
p1423
I42
VSimpleName: setAllowThin
p1424
tp1425
a(Vinsert
p1426
I42
VSimpleName: isErrorEnabled
p1427
tp1428
a(Vinsert
p1429
I42
VSimpleName: andNot
p1430
tp1431
a(Vinsert
p1432
I42
VSimpleName: toTextWithSignature
p1433
tp1434
a(Vinsert
p1435
I42
VSimpleName: getInputStream
p1436
tp1437
a(Vinsert
p1438
I42
VSimpleName: execute
p1439
tp1440
a(Vinsert
p1441
I42
VSimpleName: parseDouble
p1442
tp1443
a(Vinsert
p1444
I42
VSimpleName: isDoNotDelta
p1445
tp1446
a(Vinsert
p1447
I42
VSimpleName: getScheme
p1448
tp1449
a(Vinsert
p1450
I42
VSimpleName: getRevision
p1451
tp1452
a(Vinsert
p1453
I42
VSimpleName: getTotalSize
p1454
tp1455
a(Vinsert
p1456
I42
VSimpleName: writeVarint
p1457
tp1458
a(Vinsert
p1459
I42
VSimpleName: computeId
p1460
tp1461
a(Vinsert
p1462
I42
VSimpleName: writeInt64
p1463
tp1464
a(Vinsert
p1465
I42
VSimpleName: getMode
p1466
tp1467
a(Vinsert
p1468
I42
VSimpleName: getAllRefs
p1469
tp1470
a(Vinsert
p1471
I42
VSimpleName: writeCherryPickHead
p1472
tp1473
a(Vinsert
p1474
I42
VSimpleName: getToBeDeleted
p1475
tp1476
a(Vinsert
p1477
I42
VSimpleName: hasFileExt
p1478
tp1479
a(Vinsert
p1480
I42
VSimpleName: getConfigRepository
p1481
tp1482
a(Vinsert
p1483
I42
VSimpleName: getPort
p1484
tp1485
a(Vinsert
p1486
I42
VSimpleName: getMergeResults
p1487
tp1488
a(Vinsert
p1489
I42
VSimpleName: getResult
p1490
tp1491
a(Vinsert
p1492
I42
VSimpleName: writeIndex
p1493
tp1494
a(Vinsert
p1495
I42
VSimpleName: hasNext
p1496
tp1497
a(Vinsert
p1498
I42
VSimpleName: pathCompare
p1499
tp1500
a(Vinsert
p1501
I42
VSimpleName: checkoutEntry
p1502
tp1503
a(Vinsert
p1504
I42
VSimpleName: length
p1505
tp1506
a(Vinsert
p1507
I42
VSimpleName: isValid
p1508
tp1509
a(Vinsert
p1510
I42
VSimpleName: getBytes
p1511
tp1512
a(Vinsert
p1513
I42
VSimpleName: iterator
p1514
tp1515
a(Vinsert
p1516
I42
VSimpleName: setIncludeDeletes
p1517
tp1518
a(Vinsert
p1519
I42
VSimpleName: isExecutable
p1520
tp1521
a(Vinsert
p1522
I42
VSimpleName: resolve
p1523
tp1524
a(Vinsert
p1525
I42
VSimpleName: setTreeId
p1526
tp1527
a(Vinsert
p1528
I42
VSimpleName: getClassLoader
p1529
tp1530
a(Vinsert
p1531
I42
VSimpleName: createFromStrings
p1532
tp1533
a(Vinsert
p1534
I42
VSimpleName: store
p1535
tp1536
a(Vinsert
p1537
I42
VSimpleName: binarySearch
p1538
tp1539
a(Vinsert
p1540
I42
VSimpleName: find
p1541
tp1542
a(Vinsert
p1543
I42
VSimpleName: isSkippedCommit
p1544
tp1545
a(Vinsert
p1546
I42
VSimpleName: getPeerUserAgent
p1547
tp1548
a(Vinsert
p1549
I42
VSimpleName: setDeltaCompress
p1550
tp1551
a(Vinsert
p1552
I42
VSimpleName: canHandle
p1553
tp1554
a(Vinsert
p1555
I42
VSimpleName: stashApply
p1556
tp1557
a(Vinsert
p1558
I42
VSimpleName: setClientShallowCommits
p1559
tp1560
a(Vinsert
p1561
I42
VSimpleName: onPacksChanged
p1562
tp1563
a(Vinsert
p1564
I42
VSimpleName: getModified
p1565
tp1566
a(Vinsert
p1567
I42
VSimpleName: rm
p1568
tp1569
a(Vinsert
p1570
I42
VSimpleName: getOutputStream
p1571
tp1572
a(Vinsert
p1573
I42
VSimpleName: getEntryObjectId
p1574
tp1575
a(Vinsert
p1576
I42
VSimpleName: getLength
p1577
tp1578
a(Vinsert
p1579
I42
VSimpleName: getRemaining
p1580
tp1581
a(Vinsert
p1582
I42
VSimpleName: outBytes
p1583
tp1584
a(Vinsert
p1585
I42
VSimpleName: insert
p1586
tp1587
a(Vinsert
p1588
I42
VSimpleName: decodeInt64
p1589
tp1590
a(Vinsert
p1591
I42
VSimpleName: crypt
p1592
tp1593
a(Vinsert
p1594
I42
VSimpleName: tagDelete
p1595
tp1596
a(Vinsert
p1597
I42
VSimpleName: getUpdated
p1598
tp1599
a(Vinsert
p1600
I42
VSimpleName: filter
p1601
tp1602
a(Vinsert
p1603
I42
VSimpleName: replace
p1604
tp1605
a(Vinsert
p1606
I42
VSimpleName: getFilterCommand
p1607
tp1608
a(Vinsert
p1609
I42
VSimpleName: toBitmap
p1610
tp1611
a(Vinsert
p1612
I42
VSimpleName: derive
p1613
tp1614
a(Vinsert
p1615
I42
VSimpleName: getMethod
p1616
tp1617
a(Vinsert
p1618
I42
VSimpleName: doFinal
p1619
tp1620
a(Vinsert
p1621
I42
VSimpleName: getSourceStart
p1622
tp1623
a(Vinsert
p1624
I42
VSimpleName: matchSource
p1625
tp1626
a(Vinsert
p1627
I42
VSimpleName: compile
p1628
tp1629
a(Vinsert
p1630
I42
VSimpleName: toString
p1631
tp1632
a(Vinsert
p1633
I42
VSimpleName: fromBytes
p1634
tp1635
a(Vinsert
p1636
I42
VSimpleName: getUnit
p1637
tp1638
a(Vinsert
p1639
I42
VSimpleName: getCompressionLevel
p1640
tp1641
a(Vinsert
p1642
I42
VSimpleName: decodeUInt16
p1643
tp1644
a(Vinsert
p1645
I42
VSimpleName: setLinkName
p1646
tp1647
a(Vinsert
p1648
I42
VSimpleName: setDeltaSearchWindowSize
p1649
tp1650
a(Vinsert
p1651
I42
VSimpleName: getID
p1652
tp1653
a(Vinsert
p1654
I42
VSimpleName: setRecursive
p1655
tp1656
a(Vinsert
p1657
I42
VSimpleName: charAt
p1658
tp1659
a(Vinsert
p1660
I42
VSimpleName: getAttribute
p1661
tp1662
a(Vinsert
p1663
I42
VSimpleName: getCopyBuffer
p1664
tp1665
a(Vinsert
p1666
I42
VSimpleName: close
p1667
tp1668
a(Vinsert
p1669
I42
VSimpleName: newInCore
p1670
tp1671
a(Vinsert
p1672
I42
VSimpleName: getPeeledObjectId
p1673
tp1674
a(Vinsert
p1675
I42
VSimpleName: createNonce
p1676
tp1677
a(Vinsert
p1678
I42
VSimpleName: setAll
p1679
tp1680
a(Vinsert
p1681
I42
VSimpleName: warn
p1682
tp1683
a(Vinsert
p1684
I42
VSimpleName: branch
p1685
tp1686
a(Vinsert
p1687
I42
VSimpleName: format
p1688
tp1689
a(Vinsert
p1690
I42
VSimpleName: cloningSubmodule
p1691
tp1692
a(Vinsert
p1693
I42
VSimpleName: response
p1694
tp1695
a(Vinsert
p1696
I42
VSimpleName: toASCIIString
p1697
tp1698
a(Vinsert
p1699
I42
VSimpleName: getTime
p1700
tp1701
a(Vinsert
p1702
I42
VSimpleName: sendError
p1703
tp1704
a(Vinsert
p1705
I42
VSimpleName: decode
p1706
tp1707
a(Vinsert
p1708
I42
VSimpleName: getPathString
p1709
tp1710
a(Vinsert
p1711
I42
VSimpleName: contains
p1712
tp1713
a(Vinsert
p1714
I42
VSimpleName: lenient
p1715
tp1716
a(Vinsert
p1717
I42
VSimpleName: setOrphan
p1718
tp1719
a(Vinsert
p1720
I42
VSimpleName: getObjectType
p1721
tp1722
a(Vinsert
p1723
I42
VSimpleName: getAlternates
p1724
tp1725
a(Vinsert
p1726
I42
VSimpleName: emptyList
p1727
tp1728
a(Vinsert
p1729
I42
VSimpleName: getExecutor
p1730
tp1731
a(Vinsert
p1732
I42
VSimpleName: setHidden
p1733
tp1734
a(Vinsert
p1735
I42
VSimpleName: encode
p1736
tp1737
a(Vinsert
p1738
I42
VSimpleName: setBlockSize
p1739
tp1740
a(Vinsert
p1741
I42
VSimpleName: next
p1742
tp1743
a(Vinsert
p1744
I42
VSimpleName: readDirCache
p1745
tp1746
a(Vinsert
p1747
I42
VSimpleName: getObjectsDirectory
p1748
tp1749
a(Vinsert
p1750
I42
VSimpleName: min
p1751
tp1752
a(Vinsert
p1753
I42
VSimpleName: firstExactRef
p1754
tp1755
a(Vinsert
p1756
I42
VSimpleName: getPushOptions
p1757
tp1758
a(Vinsert
p1759
I42
VSimpleName: getObjectReader
p1760
tp1761
a(Vinsert
p1762
I42
VSimpleName: setMaxObjectSizeLimit
p1763
tp1764
a(Vinsert
p1765
I42
VSimpleName: delete
p1766
tp1767
a(Vinsert
p1768
I42
VSimpleName: getInterestingObjects
p1769
tp1770
a(Vinsert
p1771
I42
VSimpleName: compact
p1772
tp1773
a(Vinsert
p1774
I42
VSimpleName: getTimeWriting
p1775
tp1776
a(Vinsert
p1777
I42
VSimpleName: incrementTransientErrorCount
p1778
tp1779
a(Vinsert
p1780
I42
VSimpleName: first
p1781
tp1782
a(Vinsert
p1783
I42
VSimpleName: destroy
p1784
tp1785
a(Vinsert
p1786
I42
VSimpleName: readSymLink
p1787
tp1788
a(Vinsert
p1789
I42
VSimpleName: isMatch
p1790
tp1791
a(Vinsert
p1792
I42
VSimpleName: getConflictingNames
p1793
tp1794
a(Vinsert
p1795
I42
VSimpleName: isMerged
p1796
tp1797
a(Vinsert
p1798
I42
VSimpleName: isEdge
p1799
tp1800
a(Vinsert
p1801
I42
VSimpleName: add
p1802
tp1803
a(Vinsert
p1804
I42
VSimpleName: getPosixFilePermissions
p1805
tp1806
a(Vinsert
p1807
I42
VSimpleName: addUnpackedObject
p1808
tp1809
a(Vinsert
p1810
I42
VSimpleName: endTask
p1811
tp1812
a(Vinsert
p1813
I42
VSimpleName: getRemote
p1814
tp1815
a(Vinsert
p1816
I42
VSimpleName: pair
p1817
tp1818
a(Vinsert
p1819
I42
VSimpleName: getIndexFile
p1820
tp1821
a(Vinsert
p1822
I42
VSimpleName: setTransportConfigCallback
p1823
tp1824
a(Vinsert
p1825
I42
VSimpleName: getPackDescription
p1826
tp1827
a(Vinsert
p1828
I42
VSimpleName: getRepositoryState
p1829
tp1830
a(Vinsert
p1831
I42
VSimpleName: unmodifiableMap
p1832
tp1833
a(Vinsert
p1834
I42
VSimpleName: markRoot
p1835
tp1836
a(Vinsert
p1837
I42
VSimpleName: getPushURIs
p1838
tp1839
a(Vinsert
p1840
I42
VSimpleName: setNeedStatInformation
p1841
tp1842
a(Vinsert
p1843
I42
VSimpleName: log
p1844
tp1845
a(Vinsert
p1846
I42
VSimpleName: writeRevertHead
p1847
tp1848
a(Vinsert
p1849
I42
VSimpleName: newBufferedReader
p1850
tp1851
a(Vinsert
p1852
I42
VSimpleName: isDetectRenames
p1853
tp1854
a(Vinsert
p1855
I42
VSimpleName: isRetainBody
p1856
tp1857
a(Vinsert
p1858
I42
VSimpleName: read
p1859
tp1860
a(Vinsert
p1861
I42
VSimpleName: isGarbage
p1862
tp1863
a(Vinsert
p1864
I42
VSimpleName: start
p1865
tp1866
a(Vinsert
p1867
I42
VSimpleName: tick
p1868
tp1869
a(Vinsert
p1870
I42
VSimpleName: unmodifiableCollection
p1871
tp1872
a(Vinsert
p1873
I42
VSimpleName: debug
p1874
tp1875
a(Vinsert
p1876
I42
VSimpleName: update
p1877
tp1878
a(Vinsert
p1879
I42
VSimpleName: newDelta
p1880
tp1881
a(Vinsert
p1882
I42
VSimpleName: hash
p1883
tp1884
a(Vinsert
p1885
I42
VSimpleName: getDeltaDepth
p1886
tp1887
a(Vinsert
p1888
I42
VSimpleName: isValidRefName
p1889
tp1890
a(Vinsert
p1891
I42
VSimpleName: getChangeType
p1892
tp1893
a(Vinsert
p1894
I42
VSimpleName: setAllowNonFastForwards
p1895
tp1896
a(Vinsert
p1897
I42
VSimpleName: getExitStatus
p1898
tp1899
a(Vinsert
p1900
I42
VSimpleName: newObjectReader
p1901
tp1902
a(Vinsert
p1903
I42
VSimpleName: trim
p1904
tp1905
a(Vinsert
p1906
I42
VSimpleName: getStreamRatio
p1907
tp1908
a(Vinsert
p1909
I42
VSimpleName: getObjectSizeImpl2
p1910
tp1911
a(Vinsert
p1912
I42
VSimpleName: getPosition
p1913
tp1914
a(Vinsert
p1915
I42
VSimpleName: findObjectForOffset
p1916
tp1917
a(Vinsert
p1918
I42
VSimpleName: findResource
p1919
tp1920
a(Vinsert
p1921
I42
VSimpleName: getPackSource
p1922
tp1923
a(Vinsert
p1924
I42
VSimpleName: setUp
p1925
tp1926
a(Vinsert
p1927
I42
VSimpleName: getGlobalAttributesNode
p1928
tp1929
a(Vinsert
p1930
I42
VSimpleName: setTagOpt
p1931
tp1932
a(Vinsert
p1933
I42
VSimpleName: setPackConfig
p1934
tp1935
a(Vinsert
p1936
I42
VSimpleName: status
p1937
tp1938
a(Vinsert
p1939
I42
VSimpleName: setName
p1940
tp1941
a(Vinsert
p1942
I42
VSimpleName: decodeTypeString
p1943
tp1944
a(Vinsert
p1945
I42
VSimpleName: getEntryLength
p1946
tp1947
a(Vinsert
p1948
I42
VSimpleName: getComparator
p1949
tp1950
a(Vinsert
p1951
I42
VSimpleName: openConnection
p1952
tp1953
a(Vinsert
p1954
I42
VSimpleName: getNameOnly
p1955
tp1956
a(Vinsert
p1957
I42
VSimpleName: getClass
p1958
tp1959
a(Vinsert
p1960
I42
VSimpleName: encodeASCII
p1961
tp1962
a(Vinsert
p1963
I42
VSimpleName: getPathInfo
p1964
tp1965
a(Vinsert
p1966
I42
VSimpleName: openUserConfig
p1967
tp1968
a(Vinsert
p1969
I42
VSimpleName: blockUntil
p1970
tp1971
a(Vinsert
p1972
I42
VSimpleName: log10
p1973
tp1974
a(Vinsert
p1975
I42
VSimpleName: appendChild
p1976
tp1977
a(Vinsert
p1978
I42
VSimpleName: checkout
p1979
tp1980
a(Vinsert
p1981
I42
VSimpleName: setRepositoryDescription
p1982
tp1983
a(Vinsert
p1984
I42
VSimpleName: getTreeId
p1985
tp1986
a(Vinsert
p1987
I42
VSimpleName: setConfig
p1988
tp1989
a(Vinsert
p1990
I42
VSimpleName: createTempFile
p1991
tp1992
a(Vinsert
p1993
I42
VSimpleName: commitMsg
p1994
tp1995
a(Vinsert
p1996
I42
VSimpleName: getFSyncObjectFiles
p1997
tp1998
a(Vinsert
p1999
I42
VSimpleName: enterSubtree
p2000
tp2001
a(Vinsert
p2002
I42
VSimpleName: isMergedInto
p2003
tp2004
a(Vinsert
p2005
I42
VSimpleName: getStringList
p2006
tp2007
a(Vinsert
p2008
I42
VSimpleName: getAllRemoteConfigs
p2009
tp2010
a(Vinsert
p2011
I42
VSimpleName: setSafeForWindows
p2012
tp2013
a(Vinsert
p2014
I42
VSimpleName: getRemoteUpdate
p2015
tp2016
a(Vinsert
p2017
I42
VSimpleName: unregisterFormat
p2018
tp2019
a(Vinsert
p2020
I42
VSimpleName: getStorage
p2021
tp2022
a(Vinsert
p2023
I42
VSimpleName: parseFrom
p2024
tp2025
a(Vinsert
p2026
I42
VSimpleName: include
p2027
tp2028
a(Vinsert
p2029
I42
VSimpleName: getStage
p2030
tp2031
a(Vinsert
p2032
I42
VSimpleName: toCharArray
p2033
tp2034
a(Vinsert
p2035
I42
VSimpleName: ofSeconds
p2036
tp2037
a(Vinsert
p2038
I42
VSimpleName: incrementAndGet
p2039
tp2040
a(Vinsert
p2041
I42
VSimpleName: doNotAttemptDelta
p2042
tp2043
a(Vinsert
p2044
I42
VSimpleName: eof
p2045
tp2046
a(Vinsert
p2047
I42
VSimpleName: updateRef
p2048
tp2049
a(Vinsert
p2050
I42
VSimpleName: fromObjectId
p2051
tp2052
a(Vinsert
p2053
I42
VSimpleName: rebase
p2054
tp2055
a(Vinsert
p2056
I42
VSimpleName: rename
p2057
tp2058
a(Vinsert
p2059
I42
VSimpleName: getConnectionAttempts
p2060
tp2061
a(Vinsert
p2062
I42
VSimpleName: combine
p2063
tp2064
a(Vinsert
p2065
I42
VSimpleName: addTree
p2066
tp2067
a(Vinsert
p2068
I42
VSimpleName: estimateSize
p2069
tp2070
a(Vinsert
p2071
I42
VSimpleName: onIndexChanged
p2072
tp2073
a(Vinsert
p2074
I42
VSimpleName: getEolStreamType
p2075
tp2076
a(Vinsert
p2077
I42
VSimpleName: getTrackingBranch
p2078
tp2079
a(Vinsert
p2080
I42
VSimpleName: finish
p2081
tp2082
a(Vinsert
p2083
I42
VSimpleName: setHeads
p2084
tp2085
a(Vinsert
p2086
I42
VSimpleName: getHeader
p2087
tp2088
a(Vinsert
p2089
I42
VSimpleName: getEntryPathHashCode
p2090
tp2091
a(Vinsert
p2092
I42
VSimpleName: isComplete
p2093
tp2094
a(Vinsert
p2095
I42
VSimpleName: openObjectImpl1
p2096
tp2097
a(Vinsert
p2098
I42
VSimpleName: readFile
p2099
tp2100
a(Vinsert
p2101
I42
VSimpleName: getBitmapIndex
p2102
tp2103
a(Vinsert
p2104
I42
VSimpleName: create
p2105
tp2106
a(Vinsert
p2107
I42
VSimpleName: isFragmented
p2108
tp2109
a(Vinsert
p2110
I42
VSimpleName: popCachedDelta
p2111
tp2112
a(Vinsert
p2113
I42
VSimpleName: authorize
p2114
tp2115
a(Vinsert
p2116
I42
VSimpleName: getRepository
p2117
tp2118
a(Vinsert
p2119
I42
VSimpleName: lsRemoteRepository
p2120
tp2121
a(Vinsert
p2122
I42
VSimpleName: addURI
p2123
tp2124
a(Vinsert
p2125
I42
VSimpleName: getGitDir
p2126
tp2127
a(Vinsert
p2128
I42
VSimpleName: getReadChannel
p2129
tp2130
a(Vinsert
p2131
I42
VSimpleName: getUserName
p2132
tp2133
a(Vinsert
p2134
I42
VSimpleName: getGlobalListenerList
p2135
tp2136
a(Vinsert
p2137
I42
VSimpleName: insertUnpackedObject
p2138
tp2139
a(Vinsert
p2140
I42
VSimpleName: asList
p2141
tp2142
a(Vinsert
p2143
I42
VSimpleName: nextLF
p2144
tp2145
a(Vinsert
p2146
I42
VSimpleName: findRemoteRefUpdatesFor
p2147
tp2148
a(Vinsert
p2149
I42
VSimpleName: getEntryCount
p2150
tp2151
a(Vinsert
p2152
I42
VSimpleName: renamed
p2153
tp2154
a(Vinsert
p2155
I42
VSimpleName: getCommitPrefetch
p2156
tp2157
a(Vinsert
p2158
I42
VSimpleName: hasRevSort
p2159
tp2160
a(Vinsert
p2161
I42
VSimpleName: getAdvertisedRef
p2162
tp2163
a(Vinsert
p2164
I42
VSimpleName: writeOrigHead
p2165
tp2166
a(Vinsert
p2167
I42
VSimpleName: needsStopWalk
p2168
tp2169
a(Vinsert
p2170
I42
VSimpleName: getDeltaBase
p2171
tp2172
a(Vinsert
p2173
I42
VSimpleName: lookupAny
p2174
tp2175
a(Vinsert
p2176
I42
VSimpleName: getAuthorName
p2177
tp2178
a(Vinsert
p2179
I42
VSimpleName: getShortMessage
p2180
tp2181
a(Vinsert
p2182
I42
VSimpleName: repeat
p2183
tp2184
a(Vinsert
p2185
I42
VSimpleName: relativize
p2186
tp2187
a(Vinsert
p2188
I42
VSimpleName: getLogger
p2189
tp2190
a(Vinsert
p2191
I42
VSimpleName: openInputStream
p2192
tp2193
a(Vinsert
p2194
I42
VSimpleName: setRelativeStart
p2195
tp2196
a(Vinsert
p2197
I42
VSimpleName: setCheckEofAfterPackFooter
p2198
tp2199
a(Vinsert
p2200
I42
VSimpleName: getChunkHash
p2201
tp2202
a(Vinsert
p2203
I42
VSimpleName: list
p2204
tp2205
a(Vinsert
p2206
I42
VSimpleName: getParents
p2207
tp2208
a(Vinsert
p2209
I42
VSimpleName: getPathLength
p2210
tp2211
a(Vinsert
p2212
I42
VSimpleName: createSubtreeIterator0
p2213
tp2214
a(Vinsert
p2215
I42
VSimpleName: getRetrySleepMs
p2216
tp2217
a(Vinsert
p2218
I42
VSimpleName: call
p2219
tp2220
a(Vinsert
p2221
I42
VSimpleName: newCachedFileObjectDatabase
p2222
tp2223
a(Vinsert
p2224
I42
VSimpleName: compare
p2225
tp2226
a(Vinsert
p2227
I42
VSimpleName: getValue
p2228
tp2229
a(Vinsert
p2230
I42
VSimpleName: setMeta
p2231
tp2232
a(Vinsert
p2233
I42
VSimpleName: printStackTrace
p2234
tp2235
a(Vinsert
p2236
I42
VSimpleName: onBeforeDfsPackIndexLoaded
p2237
tp2238
a(Vinsert
p2239
I42
VSimpleName: getConflicts
p2240
tp2241
a(Vinsert
p2242
I42
VSimpleName: mkdirs
p2243
tp2244
a(Vinsert
p2245
I42
VSimpleName: setLength
p2246
tp2247
a(Vinsert
p2248
I42
VSimpleName: setStartPoint
p2249
tp2250
a(Vinsert
p2251
I42
VSimpleName: blob
p2252
tp2253
a(Vinsert
p2254
I42
VSimpleName: prePush
p2255
tp2256
a(Vinsert
p2257
I42
VSimpleName: getTotalObjects
p2258
tp2259
a(Vinsert
p2260
I42
VSimpleName: newFixedThreadPool
p2261
tp2262
a(Vinsert
p2263
I42
VSimpleName: signum
p2264
tp2265
a(Vinsert
p2266
I42
VSimpleName: of
p2267
tp2268
a(Vinsert
p2269
I42
VSimpleName: tooManyLooseObjects
p2270
tp2271
a(Vinsert
p2272
I42
VSimpleName: isDeltaBaseAsOffset
p2273
tp2274
a(Vinsert
p2275
I42
VSimpleName: createFilterCommand
p2276
tp2277
a(Vinsert
p2278
I42
VSimpleName: shouldBeRecursive
p2279
tp2280
a(Vinsert
p2281
I42
VSimpleName: toMillis
p2282
tp2283
a(Vinsert
p2284
I42
VSimpleName: interrupted
p2285
tp2286
a(Vinsert
p2287
I42
VSimpleName: getBundleFor
p2288
tp2289
a(Vinsert
p2290
I42
VSimpleName: getWorkTree
p2291
tp2292
a(Vinsert
p2293
I42
VSimpleName: setPackExpireAgeMillis
p2294
tp2295
a(Vinsert
p2296
I42
VSimpleName: evaluate
p2297
tp2298
a(Vinsert
p2299
I42
VSimpleName: setPass
p2300
tp2301
a(Vinsert
p2302
I42
VSimpleName: register
p2303
tp2304
a(Vinsert
p2305
I42
VSimpleName: getSections
p2306
tp2307
a(Vinsert
p2308
I42
VSimpleName: addContext
p2309
tp2310
a(Vinsert
p2311
I42
VSimpleName: setOperationType
p2312
tp2313
a(Vinsert
p2314
I42
VSimpleName: isSymbolic
p2315
tp2316
a(Vinsert
p2317
I42
VSimpleName: getAlgorithm
p2318
tp2319
a(Vinsert
p2320
I42
VSimpleName: setConnectTimeout
p2321
tp2322
a(Vinsert
p2323
I42
VSimpleName: gc
p2324
tp2325
a(Vinsert
p2326
I42
VSimpleName: setPackSource
p2327
tp2328
a(Vinsert
p2329
I42
VSimpleName: empty
p2330
tp2331
a(Vinsert
p2332
I42
VSimpleName: closeArchiveEntry
p2333
tp2334
a(Vinsert
p2335
I42
VSimpleName: formatMerge
p2336
tp2337
a(Vinsert
p2338
I42
VSimpleName: shortenRemoteBranchName
p2339
tp2340
a(Vinsert
p2341
I42
VSimpleName: setAction
p2342
tp2343
a(Vinsert
p2344
I42
VSimpleName: exactRef
p2345
tp2346
a(Vinsert
p2347
I42
VSimpleName: getRuntime
p2348
tp2349
a(Vinsert
p2350
I42
VSimpleName: showRemoteMessages
p2351
tp2352
a(Vinsert
p2353
I42
VSimpleName: getRules
p2354
tp2355
a(Vinsert
p2356
I42
VSimpleName: closeAllPackHandles
p2357
tp2358
a(Vinsert
p2359
I42
VSimpleName: key
p2360
tp2361
a(Vinsert
p2362
I42
VSimpleName: setUseCaches
p2363
tp2364
a(Vinsert
p2365
I42
VSimpleName: getDirCacheEntry
p2366
tp2367
a(Vinsert
p2368
I42
VSimpleName: isFound
p2369
tp2370
a(Vinsert
p2371
I42
VSimpleName: getLastModifiedTime
p2372
tp2373
a(Vinsert
p2374
I42
VSimpleName: getRelativeStart
p2375
tp2376
a(Vinsert
p2377
I42
VSimpleName: packAndPrune
p2378
tp2379
a(Vinsert
p2380
I42
VSimpleName: getWeight
p2381
tp2382
a(Vinsert
p2383
I42
VSimpleName: submoduleResults
p2384
tp2385
a(Vinsert
p2386
I42
VSimpleName: directory
p2387
tp2388
a(Vinsert
p2389
I42
VSimpleName: forIndex
p2390
tp2391
a(Vinsert
p2392
I42
VSimpleName: setDiffAlgorithm
p2393
tp2394
a(Vinsert
p2395
I42
VSimpleName: writeTree
p2396
tp2397
a(Vinsert
p2398
I42
VSimpleName: prevLF
p2399
tp2400
a(Vinsert
p2401
I42
VSimpleName: getCachedBytes
p2402
tp2403
a(Vinsert
p2404
I42
VSimpleName: getState
p2405
tp2406
a(Vinsert
p2407
I42
VSimpleName: setLayout
p2408
tp2409
a(Vinsert
p2410
I42
VSimpleName: getAbsolutePath
p2411
tp2412
a(Vinsert
p2413
I42
VSimpleName: getDescription
p2414
tp2415
a(Vinsert
p2416
I42
VSimpleName: listFiles
p2417
tp2418
a(Vinsert
p2419
I42
VSimpleName: reconfigure
p2420
tp2421
a(Vinsert
p2422
I42
VSimpleName: isModeDifferent
p2423
tp2424
a(Vinsert
p2425
I42
VSimpleName: walkAdviceBeginCommits
p2426
tp2427
a(Vinsert
p2428
I42
VSimpleName: parseCommand
p2429
tp2430
a(Vinsert
p2431
I42
VSimpleName: getMissing
p2432
tp2433
a(Vinsert
p2434
I42
VSimpleName: getWriter
p2435
tp2436
a(Vinsert
p2437
I42
VSimpleName: isEntryIgnored
p2438
tp2439
a(Vinsert
p2440
I42
VSimpleName: writeRebaseTodoFile
p2441
tp2442
a(Vinsert
p2443
I42
VSimpleName: getType
p2444
tp2445
a(Vinsert
p2446
I42
VSimpleName: setHostnameVerifier
p2447
tp2448
a(Vinsert
p2449
I42
VSimpleName: getRawPath
p2450
tp2451
a(Vinsert
p2452
I42
VSimpleName: addPath
p2453
tp2454
a(Vinsert
p2455
I42
VSimpleName: setRepositoryResolver
p2456
tp2457
a(Vinsert
p2458
I42
VSimpleName: getMergeStatus
p2459
tp2460
a(Vinsert
p2461
I42
VSimpleName: load
p2462
tp2463
a(Vinsert
p2464
I42
VSimpleName: abbreviate
p2465
tp2466
a(Vinsert
p2467
I42
VSimpleName: isExtended
p2468
tp2469
a(Vinsert
p2470
I42
VSimpleName: getMessage
p2471
tp2472
a(Vinsert
p2473
I42
VSimpleName: addCopyFile
p2474
tp2475
a(Vinsert
p2476
I42
VSimpleName: move
p2477
tp2478
a(Vinsert
p2479
I42
VSimpleName: addAll
p2480
tp2481
a(Vinsert
p2482
I42
VSimpleName: putAll
p2483
tp2484
a(Vinsert
p2485
I42
VSimpleName: setGitDir
p2486
tp2487
a(Vinsert
p2488
I42
VSimpleName: setLastModified
p2489
tp2490
a(Vinsert
p2491
I42
VSimpleName: getFailingPaths
p2492
tp2493
a(Vinsert
p2494
I42
VSimpleName: isHidden
p2495
tp2496
a(Vinsert
p2497
I42
VSimpleName: setNewPrefix
p2498
tp2499
a(Vinsert
p2500
I42
VSimpleName: shouldBe
p2501
tp2502
a(Vinsert
p2503
I42
VSimpleName: isIgnored
p2504
tp2505
a(Vinsert
p2506
I42
VSimpleName: toObjectWalkWithSameObjects
p2507
tp2508
a(Vinsert
p2509
I42
VSimpleName: toURI
p2510
tp2511
a(Vinsert
p2512
I42
VSimpleName: setBoolean
p2513
tp2514
a(Vinsert
p2515
I42
VSimpleName: appendSanitized
p2516
tp2517
a(Vinsert
p2518
I42
VSimpleName: arraycopy
p2519
tp2520
a(Vinsert
p2521
I42
VSimpleName: abs
p2522
tp2523
a(Vinsert
p2524
I42
VSimpleName: xor
p2525
tp2526
a(Vinsert
p2527
I42
VSimpleName: fsck
p2528
tp2529
a(Vinsert
p2530
I42
VSimpleName: isBatchMode
p2531
tp2532
a(Vinsert
p2533
I42
VSimpleName: exists
p2534
tp2535
a(Vinsert
p2536
I42
VSimpleName: requiresCommitBody
p2537
tp2538
a(Vinsert
p2539
I42
VSimpleName: getCorruptObjects
p2540
tp2541
a(Vinsert
p2542
I42
VSimpleName: scan
p2543
tp2544
a(Vinsert
p2545
I42
VSimpleName: writeTrashFile
p2546
tp2547
a(Vinsert
p2548
I42
VSimpleName: getBoolean
p2549
tp2550
a(Vinsert
p2551
I42
VSimpleName: build
p2552
tp2553
a(Vinsert
p2554
I42
VSimpleName: formatWithConflicts
p2555
tp2556
a(Vinsert
p2557
I42
VSimpleName: isRunning
p2558
tp2559
a(Vinsert
p2560
I42
VSimpleName: substring
p2561
tp2562
a(Vinsert
p2563
I42
VSimpleName: copyMetaData
p2564
tp2565
a(Vinsert
p2566
I42
VSimpleName: putEntry
p2567
tp2568
a(Vinsert
p2569
I42
VSimpleName: apply
p2570
tp2571
a(Vinsert
p2572
I42
VSimpleName: forName
p2573
tp2574
a(Vinsert
p2575
I42
VSimpleName: getLanePos
p2576
tp2577
a(Vinsert
p2578
I42
VSimpleName: hasCustomRefLog
p2579
tp2580
a(Vinsert
p2581
I42
VSimpleName: getURL
p2582
tp2583
a(Vinsert
p2584
I42
VSimpleName: isId
p2585
tp2586
a(Vinsert
p2587
I42
VSimpleName: openObjectInAllPacks
p2588
tp2589
a(Vinsert
p2590
I42
VSimpleName: setFlushOnEnd
p2591
tp2592
a(Vinsert
p2593
I42
VSimpleName: getRequestURL
p2594
tp2595
a(Vinsert
p2596
I42
VSimpleName: waitForCompletion
p2597
tp2598
a(Vinsert
p2599
I42
VSimpleName: nextInt
p2600
tp2601
a(Vinsert
p2602
I42
VSimpleName: setDeltaBaseAsOffset
p2603
tp2604
a(Vinsert
p2605
I42
VSimpleName: getAssumeUnchanged
p2606
tp2607
a(Vinsert
p2608
I42
VSimpleName: has
p2609
tp2610
a(Vinsert
p2611
I42
VSimpleName: isAllowTipSha1InWant
p2612
tp2613
a(Vinsert
p2614
I42
VSimpleName: openFetch
p2615
tp2616
a(Vinsert
p2617
I42
VSimpleName: asBytes
p2618
tp2619
a(Vinsert
p2620
I42
VSimpleName: setForce
p2621
tp2622
a(Vinsert
p2623
I42
VSimpleName: prefixCompare
p2624
tp2625
a(Vinsert
p2626
I42
VSimpleName: isOutput
p2627
tp2628
a(Vinsert
p2629
I42
VSimpleName: setPushAll
p2630
tp2631
a(Vinsert
p2632
I42
VSimpleName: from
p2633
tp2634
a(Vinsert
p2635
I42
VSimpleName: autoGC
p2636
tp2637
a(Vinsert
p2638
I42
VSimpleName: parseEncodingName
p2639
tp2640
a(Vinsert
p2641
I42
VSimpleName: asString
p2642
tp2643
a(Vinsert
p2644
I42
VSimpleName: setForceUpdate
p2645
tp2646
a(Vinsert
p2647
I42
VSimpleName: getObjectDatabase
p2648
tp2649
a(Vinsert
p2650
I42
VSimpleName: setCommit
p2651
tp2652
a(Vinsert
p2653
I42
VSimpleName: isAutoCRLF
p2654
tp2655
a(Vinsert
p2656
I42
VSimpleName: get
p2657
tp2658
a(Vinsert
p2659
I42
VSimpleName: getWho
p2660
tp2661
a(Vinsert
p2662
I42
VSimpleName: isSet
p2663
tp2664
a(Vinsert
p2665
I42
VSimpleName: isGC
p2666
tp2667
a(Vinsert
p2668
I42
VSimpleName: values
p2669
tp2670
a(Vinsert
p2671
I42
VSimpleName: getCanonicalPath
p2672
tp2673
a(Vinsert
p2674
I42
VSimpleName: getNameUTF8
p2675
tp2676
a(Vinsert
p2677
I42
VSimpleName: addCommand
p2678
tp2679
a(Vinsert
p2680
I42
VSimpleName: createCommitSnapshot
p2681
tp2682
a(Vinsert
p2683
I42
VSimpleName: writeTo
p2684
tp2685
a(Vinsert
p2686
I42
VSimpleName: getObjectSet
p2687
tp2688
a(Vinsert
p2689
I42
VSimpleName: addMe
p2690
tp2691
a(Vinsert
p2692
I42
VSimpleName: setLongFileMode
p2693
tp2694
a(Vinsert
p2695
I42
VSimpleName: exact
p2696
tp2697
a(Vinsert
p2698
I42
VSimpleName: setLocale
p2699
tp2700
a(Vinsert
p2701
I42
VSimpleName: fileFor
p2702
tp2703
a(Vinsert
p2704
I42
VSimpleName: lineSeparator
p2705
tp2706
a(Vinsert
p2707
I42
VSimpleName: hasId
p2708
tp2709
a(Vinsert
p2710
I42
VSimpleName: getRef
p2711
tp2712
a(Vinsert
p2713
I42
VSimpleName: prune
p2714
tp2715
a(Vinsert
p2716
I42
VSimpleName: isSslVerify
p2717
tp2718
a(Vinsert
p2719
I42
VSimpleName: setFilter
p2720
tp2721
a(Vinsert
p2722
I42
VSimpleName: checkTree
p2723
tp2724
a(Vinsert
p2725
I42
VSimpleName: getId
p2726
tp2727
a(Vinsert
p2728
I42
VSimpleName: getFileName
p2729
tp2730
a(Vinsert
p2731
I42
VSimpleName: getHost
p2732
tp2733
a(Vinsert
p2734
I42
VSimpleName: common
p2735
tp2736
a(Vinsert
p2737
I42
VSimpleName: setStreamFileThreshold
p2738
tp2739
a(Vinsert
p2740
I42
VSimpleName: getItem
p2741
tp2742
a(Vinsert
p2743
I42
VSimpleName: escapeValue
p2744
tp2745
a(Vinsert
p2746
I42
VSimpleName: compareAndSet
p2747
tp2748
a(Vinsert
p2749
I42
VSimpleName: getPathWithSlash
p2750
tp2751
a(Vinsert
p2752
I42
VSimpleName: setTags
p2753
tp2754
a(Vinsert
p2755
I42
VSimpleName: setByte
p2756
tp2757
a(Vinsert
p2758
I42
VSimpleName: setString
p2759
tp2760
a(Vinsert
p2761
I42
VSimpleName: check
p2762
tp2763
a(Vinsert
p2764
I42
VSimpleName: getPackBitmapIndex
p2765
tp2766
a(Vinsert
p2767
I42
VSimpleName: checkValidPath
p2768
tp2769
a(Vinsert
p2770
I42
VSimpleName: isCached
p2771
tp2772
a(Vinsert
p2773
I42
VSimpleName: getLogWriter
p2774
tp2775
a(Vinsert
p2776
I42
VSimpleName: getConfigUrl
p2777
tp2778
a(Vinsert
p2779
I42
VSimpleName: newInstance
p2780
tp2781
a(Vinsert
p2782
I42
VSimpleName: getString
p2783
tp2784
a(Vinsert
p2785
I42
VSimpleName: getRemoteTrackingBranch
p2786
tp2787
a(Vinsert
p2788
I42
VSimpleName: save
p2789
tp2790
a(Vinsert
p2791
I42
VSimpleName: supportsSymlinks
p2792
tp2793
a(Vinsert
p2794
I42
VSimpleName: getCurrentThreadCpuTime
p2795
tp2796
a(Vinsert
p2797
I42
VSimpleName: setRequestProperty
p2798
tp2799
a(Vinsert
p2800
I42
VSimpleName: hasUncommittedChanges
p2801
tp2802
a(Vinsert
p2803
I42
VSimpleName: setReuseAddress
p2804
tp2805
a(Vinsert
p2806
I42
VSimpleName: endsWith
p2807
tp2808
a(Vinsert
p2809
I42
VSimpleName: advertiseCapability
p2810
tp2811
a(Vinsert
p2812
I42
VSimpleName: setValue
p2813
tp2814
a(Vinsert
p2815
I42
VSimpleName: setMatch
p2816
tp2817
a(Vinsert
p2818
I42
VSimpleName: exit
p2819
tp2820
a(Vinsert
p2821
I42
VSimpleName: getBitmap
p2822
tp2823
a(Vinsert
p2824
I42
VSimpleName: parseTag
p2825
tp2826
a(Vinsert
p2827
I42
VSimpleName: isDirectory
p2828
tp2829
a(Vinsert
p2830
I42
VSimpleName: getRequestHeader
p2831
tp2832
a(Vinsert
p2833
I42
VSimpleName: blockSize
p2834
tp2835
a(Vinsert
p2836
I42
VSimpleName: setUseBitmaps
p2837
tp2838
a(Vinsert
p2839
I42
VSimpleName: isNameOnly
p2840
tp2841
a(Vinsert
p2842
I42
VSimpleName: setConstraint
p2843
tp2844
a(Vinsert
p2845
I42
VSimpleName: setBare
p2846
tp2847
a(Vinsert
p2848
I42
VSimpleName: getInserterOptions
p2849
tp2850
a(Vinsert
p2851
I42
VSimpleName: setBranch
p2852
tp2853
a(Vinsert
p2854
I42
VSimpleName: getFullBranch
p2855
tp2856
a(Vinsert
p2857
I42
VSimpleName: getNames
p2858
tp2859
a(Vinsert
p2860
I42
VSimpleName: getRepositoryKey
p2861
tp2862
a(Vinsert
p2863
I42
VSimpleName: newObjectToPack
p2864
tp2865
a(Vinsert
p2866
I42
VSimpleName: valueOf
p2867
tp2868
a(Vinsert
p2869
I42
VSimpleName: disposeBody
p2870
tp2871
a(Vinsert
p2872
I42
VSimpleName: link
p2873
tp2874
a(Vinsert
p2875
I42
VSimpleName: isPeeled
p2876
tp2877
a(Vinsert
p2878
I42
VSimpleName: readRebaseTodo
p2879
tp2880
a(Vinsert
p2881
I42
VSimpleName: getRefSpecs
p2882
tp2883
a(Vinsert
p2884
I42
VSimpleName: getIsPeeled
p2885
tp2886
a(Vinsert
p2887
I42
VSimpleName: isWildcard
p2888
tp2889
a(Vinsert
p2890
I42
VSimpleName: getAutoCRLF
p2891
tp2892
a(Vinsert
p2893
I42
VSimpleName: isBare
p2894
tp2895
a(Vinsert
p2896
I42
VSimpleName: advertiseId
p2897
tp2898
a(Vinsert
p2899
I42
VSimpleName: failed
p2900
tp2901
a(Vinsert
p2902
I42
VSimpleName: getName
p2903
tp2904
a(Vinsert
p2905
I42
VSimpleName: identityHashCode
p2906
tp2907
a(Vinsert
p2908
I42
VSimpleName: getChild
p2909
tp2910
a(Vinsert
p2911
I42
VSimpleName: hashBlock
p2912
tp2913
a(Vinsert
p2914
I42
VSimpleName: addMessages
p2915
tp2916
a(Vinsert
p2917
I42
VSimpleName: getLong
p2918
tp2919
a(Vinsert
p2920
I42
VSimpleName: getCommitLastModified
p2921
tp2922
a(Vinsert
p2923
I42
VSimpleName: getWorkDir
p2924
tp2925
a(Vinsert
p2926
I42
VSimpleName: openPack
p2927
tp2928
a(Vinsert
p2929
I42
VSimpleName: getTimeUnit
p2930
tp2931
a(Vinsert
p2932
I42
VSimpleName: setAmend
p2933
tp2934
a(Vinsert
p2935
I42
VSimpleName: getUnmergedPaths
p2936
tp2937
a(Vinsert
p2938
I42
VSimpleName: getEnum
p2939
tp2940
a(Vinsert
p2941
I42
VSimpleName: getContentEncoding
p2942
tp2943
a(Vinsert
p2944
I42
VSimpleName: shortenRefName
p2945
tp2946
a(Vinsert
p2947
I42
VSimpleName: onPostUpload
p2948
tp2949
a(Vinsert
p2950
I42
VSimpleName: getStatus
p2951
tp2952
a(Vinsert
p2953
I42
VSimpleName: setUnixMode
p2954
tp2955
a(Vinsert
p2956
I42
VSimpleName: idFor
p2957
tp2958
a(Vinsert
p2959
I42
VSimpleName: enabled
p2960
tp2961
a(Vinsert
p2962
I42
VSimpleName: newInputStream
p2963
tp2964
a(Vinsert
p2965
I42
VSimpleName: getPushee
p2966
tp2967
a(Vinsert
p2968
I42
VSimpleName: addFileExt
p2969
tp2970
a(Vinsert
p2971
I42
VSimpleName: isOutdated
p2972
tp2973
a(Vinsert
p2974
I42
VSimpleName: flush
p2975
tp2976
a(Vinsert
p2977
I42
VSimpleName: setUri
p2978
tp2979
a(Vinsert
p2980
I42
VSimpleName: diffNonCommon
p2981
tp2982
a(Vinsert
p2983
I42
VSimpleName: getResource
p2984
tp2985
a(Vinsert
p2986
I42
VSimpleName: tag
p2987
tp2988
a(Vinsert
p2989
I42
VSimpleName: getChunkKey
p2990
tp2991
a(Vinsert
p2992
I42
VSimpleName: outputType
p2993
tp2994
a(Vinsert
p2995
I42
VSimpleName: newUpdate
p2996
tp2997
a(Vinsert
p2998
I42
VSimpleName: getNegation
p2999
tp3000
a(Vinsert
p3001
I42
VSimpleName: getRc
p3002
tp3003
a(Vinsert
p3004
I42
VSimpleName: setReadAheadBytes
p3005
tp3006
a(Vinsert
p3007
I42
VSimpleName: getHumanishName
p3008
tp3009
a(Vinsert
p3010
I42
VSimpleName: toByteArray
p3011
tp3012
a(Vinsert
p3013
I42
VSimpleName: writeSquashCommitMsg
p3014
tp3015
a(Vinsert
p3016
I42
VSimpleName: getEntryRawMode
p3017
tp3018
a(Vinsert
p3019
I42
VSimpleName: getIndexSize
p3020
tp3021
a(Vinsert
p3022
I42
VSimpleName: getTreeCount
p3023
tp3024
a(Vinsert
p3025
I42
VSimpleName: through
p3026
tp3027
a(Vinsert
p3028
I42
VSimpleName: getReflogReader
p3029
tp3030
a(Vinsert
p3031
I42
VSimpleName: sum
p3032
tp3033
a(Vinsert
p3034
I42
VSimpleName: pull
p3035
tp3036
a(Vinsert
p3037
I42
VSimpleName: newMessageDigest
p3038
tp3039
a(Vinsert
p3040
I42
VSimpleName: readPassword
p3041
tp3042
a(Vinsert
p3043
I42
VSimpleName: file
p3044
tp3045
a(Vinsert
p3046
I42
VSimpleName: setGroups
p3047
tp3048
a(Vinsert
p3049
I42
VSimpleName: getAction
p3050
tp3051
a(Vinsert
p3052
I42
VSimpleName: fetchingSubmodule
p3053
tp3054
a(Vinsert
p3055
I42
VSimpleName: setHeader
p3056
tp3057
a(Vinsert
p3058
I42
VSimpleName: comparator
p3059
tp3060
a(Vinsert
p3061
I42
VSimpleName: equals
p3062
tp3063
a(Vinsert
p3064
I42
VSimpleName: addFilepattern
p3065
tp3066
a(Vinsert
p3067
I42
VSimpleName: clean
p3068
tp3069
a(Vinsert
p3070
I42
VSimpleName: indexOfChangeId
p3071
tp3072
a(Vinsert
p3073
I42
VSimpleName: createArchiveOutputStream
p3074
tp3075
a(Vinsert
p3076
I42
VSimpleName: copy
p3077
tp3078
a(Vinsert
p3079
I42
VSimpleName: getCertNonceSeed
p3080
tp3081
a(Vinsert
p3082
I42
VSimpleName: setSSLSocketFactory
p3083
tp3084
a(Vinsert
p3085
I42
VSimpleName: initializeShallowCommits
p3086
tp3087
a(Vinsert
p3088
I42
VSimpleName: toFile
p3089
tp3090
a(Vinsert
p3091
I42
VSimpleName: setRejectedExecutionHandler
p3092
tp3093
a(Vinsert
p3094
I42
VSimpleName: put
p3095
tp3096
a(Vinsert
p3097
I42
VSimpleName: getUpdatedFiles
p3098
tp3099
a(Vinsert
p3100
I42
VSimpleName: setReuseDeltaCommits
p3101
tp3102
a(Vinsert
p3103
I42
VSimpleName: getOldMode
p3104
tp3105
a(Vinsert
p3106
I42
VSimpleName: convert
p3107
tp3108
a(Vinsert
p3109
I42
VSimpleName: readLine
p3110
tp3111
a(Vinsert
p3112
I42
VSimpleName: branchCreate
p3113
tp3114
a(Vinsert
p3115
I42
VSimpleName: nextIndex
p3116
tp3117
a(Vinsert
p3118
I42
VSimpleName: estimateIndexSize
p3119
tp3120
a(Vinsert
p3121
I42
VSimpleName: open
p3122
tp3123
a(Vinsert
p3124
I42
VSimpleName: parseAny
p3125
tp3126
a(Vinsert
p3127
I42
VSimpleName: newTempFile
p3128
tp3129
a(Vinsert
p3130
I42
VSimpleName: emptyMap
p3131
tp3132
a(Vinsert
p3133
I42
VSimpleName: setReceivePackFactory
p3134
tp3135
a(Vinsert
p3136
I42
VSimpleName: getCanonicalFile
p3137
tp3138
a(Vinsert
p3139
I42
VSimpleName: getSimpleName
p3140
tp3141
a(Vinsert
p3142
I42
VSimpleName: setForceRefLog
p3143
tp3144
a(Vinsert
p3145
I42
VSimpleName: createTempDirectory
p3146
tp3147
a(Vinsert
p3148
I42
VSimpleName: getReverseIndexSize
p3149
tp3150
a(Vinsert
p3151
I42
VSimpleName: getDeclaredMethod
p3152
tp3153
a(Vinsert
p3154
I42
VSimpleName: refBytes
p3155
tp3156
a(Vinsert
p3157
I42
VSimpleName: peel
p3158
tp3159
a(Vinsert
p3160
I42
VSimpleName: getHeaderField
p3161
tp3162
a(Vinsert
p3163
I42
VSimpleName: getEntry
p3164
tp3165
a(Vinsert
p3166
I42
VSimpleName: assertEvent
p3167
tp3168
a(Vinsert
p3169
I42
VSimpleName: setIgnoreSubmoduleMode
p3170
tp3171
a(Vinsert
p3172
I42
VSimpleName: getCachedPacks
p3173
tp3174
a(Vinsert
p3175
I42
VSimpleName: setGarbageTtl
p3176
tp3177
a(Vinsert
p3178
I42
VSimpleName: isCancelled
p3179
tp3180
a(Vinsert
p3181
I42
VSimpleName: stripTrailing
p3182
tp3183
a(Vinsert
p3184
I42
VSimpleName: newCachedDatabase
p3185
tp3186
a(Vinsert
p3187
I42
VSimpleName: max
p3188
tp3189
a(Vinsert
p3190
I42
VSimpleName: parseEncoding
p3191
tp3192
a(Vinsert
p3193
I42
VSimpleName: getPath1
p3194
tp3195
a(Vinsert
p3196
I42
VSimpleName: booleanValue
p3197
tp3198
a(Vinsert
p3199
I42
VSimpleName: readMergeHeads
p3200
tp3201
a(Vinsert
p3202
I42
VSimpleName: setTreeFilter
p3203
tp3204
a(Vinsert
p3205
I42
VSimpleName: checkPath
p3206
tp3207
a(Vinsert
p3208
I42
VSimpleName: hasTheirs
p3209
tp3210
a(Vinsert
p3211
I42
VSimpleName: encodeInt24
p3212
tp3213
a(Vinsert
p3214
I42
VSimpleName: getRefs
p3215
tp3216
a(Vinsert
p3217
I42
VSimpleName: lastModified
p3218
tp3219
a(Vinsert
p3220
I42
VSimpleName: init
p3221
tp3222
a(Vinsert
p3223
I42
VSimpleName: getUser
p3224
tp3225
a(Vinsert
p3226
I42
VSimpleName: setInstance
p3227
tp3228
a(Vinsert
p3229
I42
VSimpleName: with
p3230
tp3231
a(Vinsert
p3232
I42
VSimpleName: detectStreamType
p3233
tp3234
a(Vinsert
p3235
I42
VSimpleName: markStart
p3236
tp3237
a(Vinsert
p3238
I42
VSimpleName: toObjectId
p3239
tp3240
a(Vinsert
p3241
I42
VSimpleName: longValue
p3242
tp3243
a(Vinsert
p3244
I42
VSimpleName: setIndexDisabled
p3245
tp3246
a(Vinsert
p3247
I42
VSimpleName: parseBody
p3248
tp3249
a(Vinsert
p3250
I42
VSimpleName: setRequestMethod
p3251
tp3252
a(Vinsert
p3253
I42
VSimpleName: matcher
p3254
tp3255
a(Vinsert
p3256
I42
VSimpleName: setRef
p3257
tp3258
a(Vinsert
p3259
I42
VSimpleName: matchConfigValue
p3260
tp3261
a(Vinsert
p3262
I42
VSimpleName: copyPackAsIs
p3263
tp3264
a(Vinsert
p3265
I42
VSimpleName: normalize
p3266
tp3267
a(Vinsert
p3268
I42
VSimpleName: size
p3269
tp3270
a(Vinsert
p3271
I42
VSimpleName: toText
p3272
tp3273
a(Vinsert
p3274
I42
VSimpleName: getKeys
p3275
tp3276
a(Vinsert
p3277
I42
VSimpleName: clone
p3278
tp3279
a(Vinsert
p3280
I42
VSimpleName: setPrunePreserved
p3281
tp3282
a(Vinsert
p3283
I42
VSimpleName: getMemoryUsed
p3284
tp3285
a(Vinsert
p3286
I42
VSimpleName: getFS
p3287
tp3288
a(Vinsert
p3289
I42
VSimpleName: getObjectIndexBatchSize
p3290
tp3291
a(Vinsert
p3292
I42
VSimpleName: getBits
p3293
tp3294
a(Vinsert
p3295
I42
VSimpleName: setAvoidUnreachableObjects
p3296
tp3297
a(Vinsert
p3298
I42
VSimpleName: toPrivateASCIIString
p3299
tp3300
a(Vinsert
p3301
I42
VSimpleName: isDeltaCompress
p3302
tp3303
a(Vinsert
p3304
I42
VSimpleName: getCreatedFromInserter
p3305
tp3306
a(Vinsert
p3307
I42
VSimpleName: assumeShallow
p3308
tp3309
a(Vinsert
p3310
I42
VSimpleName: getFirstByte
p3311
tp3312
a(Vinsert
p3313
I42
VSimpleName: setBase
p3314
tp3315
a(Vinsert
p3316
I42
VSimpleName: getTree
p3317
tp3318
a(Vinsert
p3319
I42
VSimpleName: parseCanonical
p3320
tp3321
a(Vinsert
p3322
I42
VSimpleName: newInserter
p3323
tp3324
a(Vinsert
p3325
I42
VSimpleName: setRetainBody
p3326
tp3327
a(Vinsert
p3328
I42
VSimpleName: getAttributesNodeProvider
p3329
tp3330
a(Vinsert
p3331
I42
VSimpleName: hasRemaining
p3332
tp3333
a(Vinsert
p3334
I42
VSimpleName: hasSequence
p3335
tp3336
a.