(lp0
(Vinsert
p1
I42
VSimpleName: getTopLeftOnBit
p2
tp3
a(Vinsert
p4
I42
VSimpleName: getByteSegments
p5
tp6
a(Vinsert
p7
I42
VSimpleName: sqrt
p8
tp9
a(Vinsert
p10
I42
VSimpleName: getViewfinderView
p11
tp12
a(Vinsert
p13
I42
VSimpleName: getData
p14
tp15
a(Vinsert
p16
I42
VSimpleName: queryIntentActivities
p17
tp18
a(Vinsert
p19
I42
VSimpleName: getResultPoints
p20
tp21
a(Vinsert
p22
I42
VSimpleName: invokeEvent
p23
tp24
a(Vinsert
p25
I42
VSimpleName: getMatrixWidth
p26
tp27
a(Vinsert
p28
I42
VSimpleName: addAction
p29
tp30
a(Vinsert
p31
I42
VSimpleName: getControl
p32
tp33
a(Vinsert
p34
I42
VSimpleName: getCharCode
p35
tp36
a(Vinsert
p37
I42
VSimpleName: setOnClickListener
p38
tp39
a(Vinsert
p40
I42
VSimpleName: getSnapshot
p41
tp42
a(Vinsert
p43
I42
VSimpleName: addResultPoints
p44
tp45
a(Vinsert
p46
I42
VSimpleName: numberOfTrailingZeros
p47
tp48
a(Vinsert
p49
I42
VSimpleName: getDisplay
p50
tp51
a(Vinsert
p52
I42
VSimpleName: ClearMatrix
p53
tp54
a(Vinsert
p55
I42
VSimpleName: reset
p56
tp57
a(Vinsert
p58
I42
VSimpleName: getDataMask
p59
tp60
a(Vinsert
p61
I42
VSimpleName: schedule
p62
tp63
a(Vinsert
p64
I42
VSimpleName: height
p65
tp66
a(Vinsert
p67
I42
VSimpleName: lookup
p68
tp69
a(Vinsert
p70
I42
VSimpleName: setTimeout
p71
tp72
a(Vinsert
p73
I42
VSimpleName: getCount
p74
tp75
a(Vinsert
p76
I42
VSimpleName: setISO
p77
tp78
a(Vinsert
p79
I42
VSimpleName: release
p80
tp81
a(Vinsert
p82
I42
VSimpleName: getOne
p83
tp84
a(Vinsert
p85
I42
VSimpleName: available
p86
tp87
a(Vinsert
p88
I42
VSimpleName: getAverageTime
p89
tp90
a(Vinsert
p91
I42
VSimpleName: indexOf
p92
tp93
a(Vinsert
p94
I42
VSimpleName: setLooping
p95
tp96
a(Vinsert
p97
I42
VSimpleName: sleep
p98
tp99
a(Vinsert
p100
I42
VSimpleName: setFocus
p101
tp102
a(Vinsert
p103
I42
VSimpleName: isEmpty
p104
tp105
a(Vinsert
p106
I42
VSimpleName: buildMultimediaManager
p107
tp108
a(Vinsert
p109
I42
VSimpleName: getDataCapacity
p110
tp111
a(Vinsert
p112
I42
VSimpleName: getGoogleMapsURI
p113
tp114
a(Vinsert
p115
I42
VSimpleName: getCause
p116
tp117
a(Vinsert
p118
I42
VSimpleName: getChecksumInstance
p119
tp120
a(Vinsert
p121
I42
VSimpleName: addCategory
p122
tp123
a(Vinsert
p124
I42
VSimpleName: getPairs
p125
tp126
a(Vinsert
p127
I42
VSimpleName: getAllNetworkInfo
p128
tp129
a(Vinsert
p130
I42
VSimpleName: getBookSearchCountryTLD
p131
tp132
a(Vinsert
p133
I42
VSimpleName: rotate
p134
tp135
a(Vinsert
p136
I42
VSimpleName: println
p137
tp138
a(Vinsert
p139
I42
VSimpleName: getRow
p140
tp141
a(Vinsert
p142
I42
VSimpleName: splashDone
p143
tp144
a(Vinsert
p145
I42
VSimpleName: num_bytes
p146
tp147
a(Vinsert
p148
I42
VSimpleName: entrySet
p149
tp150
a(Vinsert
p151
I42
VSimpleName: getSelectedIndex
p152
tp153
a(Vinsert
p154
I42
VSimpleName: crop
p155
tp156
a(Vinsert
p157
I42
VSimpleName: capturePreviewAndDraw
p158
tp159
a(Vinsert
p160
I42
VSimpleName: min
p161
tp162
a(Vinsert
p163
I42
VSimpleName: clear
p164
tp165
a(Vinsert
p166
I42
VSimpleName: getLocale
p167
tp168
a(Vinsert
p169
I42
VSimpleName: setPrimaryClip
p170
tp171
a(Vinsert
p172
I42
VSimpleName: equalsIgnoreCase
p173
tp174
a(Vinsert
p175
I42
VSimpleName: emptySet
p176
tp177
a(Vinsert
p178
I42
VSimpleName: threadCpuTimeNanos
p179
tp180
a(Vinsert
p181
I42
VSimpleName: delete
p182
tp183
a(Vinsert
p184
I42
VSimpleName: getFrame
p185
tp186
a(Vinsert
p187
I42
VSimpleName: addFileSystemJournalListener
p188
tp189
a(Vinsert
p190
I42
VSimpleName: isLoggable
p191
tp192
a(Vinsert
p193
I42
VSimpleName: getRawText
p194
tp195
a(Vinsert
p196
I42
VSimpleName: getOther
p197
tp198
a(Vinsert
p199
I42
VSimpleName: makeText
p200
tp201
a(Vinsert
p202
I42
VSimpleName: setOnCancelListener
p203
tp204
a(Vinsert
p205
I42
VSimpleName: createFilter
p206
tp207
a(Vinsert
p208
I42
VSimpleName: matches
p209
tp210
a(Vinsert
p211
I42
VSimpleName: putByteArray
p212
tp213
a(Vinsert
p214
I42
VSimpleName: getSymbolDataWidth
p215
tp216
a(Vinsert
p217
I42
VSimpleName: arrayToString
p218
tp219
a(Vinsert
p220
I42
VSimpleName: getDefaultSharedPreferences
p221
tp222
a(Vinsert
p223
I42
VSimpleName: isScanFromWebPage
p224
tp225
a(Vinsert
p226
I42
VSimpleName: getNbLayers
p227
tp228
a(Vinsert
p229
I42
VSimpleName: invoke
p230
tp231
a(Vinsert
p232
I42
VSimpleName: getPoints
p233
tp234
a(Vinsert
p235
I42
VSimpleName: getSubject
p236
tp237
a(Vinsert
p238
I42
VSimpleName: getMatrix
p239
tp240
a(Vinsert
p241
I42
VSimpleName: getInt
p242
tp243
a(Vinsert
p244
I42
VSimpleName: getGeneratorBase
p245
tp246
a(Vinsert
p247
I42
VSimpleName: InterleaveWithECBytes
p248
tp249
a(Vinsert
p250
I42
VSimpleName: getColumnIndex
p251
tp252
a(Vinsert
p253
I42
VSimpleName: executeOnExecutor
p254
tp255
a(Vinsert
p256
I42
VSimpleName: getErrorCodewords
p257
tp258
a(Vinsert
p259
I42
VSimpleName: toURL
p260
tp261
a(Vinsert
p262
I42
VSimpleName: getQueryParameter
p263
tp264
a(Vinsert
p265
I42
VSimpleName: round
p266
tp267
a(Vinsert
p268
I42
VSimpleName: keys
p269
tp270
a(Vinsert
p271
I42
VSimpleName: setNegativeButton
p272
tp273
a(Vinsert
p274
I42
VSimpleName: onClick
p275
tp276
a(Vinsert
p277
I42
VSimpleName: isClosed
p278
tp279
a(Vinsert
p280
I42
VSimpleName: set
p281
tp282
a(Vinsert
p283
I42
VSimpleName: startsWith
p284
tp285
a(Vinsert
p286
I42
VSimpleName: at
p287
tp288
a(Vinsert
p289
I42
VSimpleName: setTorch
p290
tp291
a(Vinsert
p292
I42
VSimpleName: getNormalizedProductID
p293
tp294
a(Vinsert
p295
I42
VSimpleName: d
p296
tp297
a(Vinsert
p298
I42
VSimpleName: remove
p299
tp300
a(Vinsert
p301
I42
VSimpleName: setPixels
p302
tp303
a(Vinsert
p304
I42
VSimpleName: setNumBits
p305
tp306
a(Vinsert
p307
I42
VSimpleName: getDetectionResultColumns
p308
tp309
a(Vinsert
p310
I42
VSimpleName: setMessage
p311
tp312
a(Vinsert
p313
I42
VSimpleName: addPossibleResultPoint
p314
tp315
a(Vinsert
p316
I42
VSimpleName: getStringExtra
p317
tp318
a(Vinsert
p319
I42
VSimpleName: fill
p320
tp321
a(Vinsert
p322
I42
VSimpleName: getEmails
p323
tp324
a(Vinsert
p325
I42
VSimpleName: noneOf
p326
tp327
a(Vinsert
p328
I42
VSimpleName: formatNumber
p329
tp330
a(Vinsert
p331
I42
VSimpleName: getCountry
p332
tp333
a(Vinsert
p334
I42
VSimpleName: setVisibility
p335
tp336
a(Vinsert
p337
I42
VSimpleName: toUri
p338
tp339
a(Vinsert
p340
I42
VSimpleName: setLenient
p341
tp342
a(Vinsert
p343
I42
VSimpleName: split
p344
tp345
a(Vinsert
p346
I42
VSimpleName: setInstanceFollowRedirects
p347
tp348
a(Vinsert
p349
I42
VSimpleName: stop
p350
tp351
a(Vinsert
p352
I42
VSimpleName: getLastEstimationMethod
p353
tp354
a(Vinsert
p355
I42
VSimpleName: getStructuredAppendSequenceNumber
p356
tp357
a(Vinsert
p358
I42
VSimpleName: recycle
p359
tp360
a(Vinsert
p361
I42
VSimpleName: abort
p362
tp363
a(Vinsert
p364
I42
VSimpleName: parseDouble
p365
tp366
a(Vinsert
p367
I42
VSimpleName: commit
p368
tp369
a(Vinsert
p370
I42
VSimpleName: findItem
p371
tp372
a(Vinsert
p373
I42
VSimpleName: notifyAll
p374
tp375
a(Vinsert
p376
I42
VSimpleName: saveConfiguration
p377
tp378
a(Vinsert
p379
I42
VSimpleName: checkStandardUPCEANChecksum
p380
tp381
a(Vinsert
p382
I42
VSimpleName: getAttendees
p383
tp384
a(Vinsert
p385
I42
VSimpleName: transformPoints
p386
tp387
a(Vinsert
p388
I42
VSimpleName: getSupportedColorEffects
p389
tp390
a(Vinsert
p391
I42
VSimpleName: sampleGrid
p392
tp393
a(Vinsert
p394
I42
VSimpleName: getMaxOpticalZoom
p395
tp396
a(Vinsert
p397
I42
VSimpleName: getNote
p398
tp399
a(Vinsert
p400
I42
VSimpleName: getCoefficient
p401
tp402
a(Vinsert
p403
I42
VSimpleName: parse
p404
tp405
a(Vinsert
p406
I42
VSimpleName: getMessageCount
p407
tp408
a(Vinsert
p409
I42
VSimpleName: getY
p410
tp411
a(Vinsert
p412
I42
VSimpleName: wait
p413
tp414
a(Vinsert
p415
I42
VSimpleName: toPath
p416
tp417
a(Vinsert
p418
I42
VSimpleName: setColor
p419
tp420
a(Vinsert
p421
I42
VSimpleName: getISBN
p422
tp423
a(Vinsert
p424
I42
VSimpleName: getCodeword
p425
tp426
a(Vinsert
p427
I42
VSimpleName: replaceAll
p428
tp429
a(Vinsert
p430
I42
VSimpleName: setBulk
p431
tp432
a(Vinsert
p433
I42
VSimpleName: reverse
p434
tp435
a(Vinsert
p436
I42
VSimpleName: convertToQuotedString
p437
tp438
a(Vinsert
p439
I42
VSimpleName: getSystemService
p440
tp441
a(Vinsert
p442
I42
VSimpleName: setDefaultValues
p443
tp444
a(Vinsert
p445
I42
VSimpleName: getInstance
p446
tp447
a(Vinsert
p448
I42
VSimpleName: convertUPCEtoUPCA
p449
tp450
a(Vinsert
p451
I42
VSimpleName: writeCodeword
p452
tp453
a(Vinsert
p454
I42
VSimpleName: binarySearch
p455
tp456
a(Vinsert
p457
I42
VSimpleName: getSharedPreferences
p458
tp459
a(Vinsert
p460
I42
VSimpleName: moveToNext
p461
tp462
a(Vinsert
p463
I42
VSimpleName: isRotateSupported
p464
tp465
a(Vinsert
p466
I42
VSimpleName: compareTo
p467
tp468
a(Vinsert
p469
I42
VSimpleName: getLatLng
p470
tp471
a(Vinsert
p472
I42
VSimpleName: getProductSearchCountryTLD
p473
tp474
a(Vinsert
p475
I42
VSimpleName: downloadViaHttp
p476
tp477
a(Vinsert
p478
I42
VSimpleName: setType
p479
tp480
a(Vinsert
p481
I42
VSimpleName: findPreference
p482
tp483
a(Vinsert
p484
I42
VSimpleName: decodeFormatInformation
p485
tp486
a(Vinsert
p487
I42
VSimpleName: parseDecodeHints
p488
tp489
a(Vinsert
p490
I42
VSimpleName: getSubmittedFileName
p491
tp492
a(Vinsert
p493
I42
VSimpleName: isPossiblyMaliciousURI
p494
tp495
a(Vinsert
p496
I42
VSimpleName: isBasicallyValidURI
p497
tp498
a(Vinsert
p499
I42
VSimpleName: findViewById
p500
tp501
a(Vinsert
p502
I42
VSimpleName: getSupportedFocusModes
p503
tp504
a(Vinsert
p505
I42
VSimpleName: getCamera
p506
tp507
a(Vinsert
p508
I42
VSimpleName: compare
p509
tp510
a(Vinsert
p511
I42
VSimpleName: addElement
p512
tp513
a(Vinsert
p514
I42
VSimpleName: getText
p515
tp516
a(Vinsert
p517
I42
VSimpleName: rotate180
p518
tp519
a(Vinsert
p520
I42
VSimpleName: show
p521
tp522
a(Vinsert
p523
I42
VSimpleName: getOrganizer
p524
tp525
a(Vinsert
p526
I42
VSimpleName: getBody
p527
tp528
a(Vinsert
p529
I42
VSimpleName: getVersionForNumber
p530
tp531
a(Vinsert
p532
I42
VSimpleName: getPhoneTypes
p533
tp534
a(Vinsert
p535
I42
VSimpleName: handleButtonPress
p536
tp537
a(Vinsert
p538
I42
VSimpleName: getBufferedImageColorModel
p539
tp540
a(Vinsert
p541
I42
VSimpleName: areContentsSecure
p542
tp543
a(Vinsert
p544
I42
VSimpleName: getIntExtra
p545
tp546
a(Vinsert
p547
I42
VSimpleName: i
p548
tp549
a(Vinsert
p550
I42
VSimpleName: getFileId
p551
tp552
a(Vinsert
p553
I42
VSimpleName: getGeoURI
p554
tp555
a(Vinsert
p556
I42
VSimpleName: addCallbackBuffer
p557
tp558
a(Vinsert
p559
I42
VSimpleName: findMulti
p560
tp561
a(Vinsert
p562
I42
VSimpleName: startActivityForResult
p563
tp564
a(Vinsert
p565
I42
VSimpleName: buildAdjoint
p566
tp567
a(Vinsert
p568
I42
VSimpleName: setTitle
p569
tp570
a(Vinsert
p571
I42
VSimpleName: setManualCameraId
p572
tp573
a(Vinsert
p574
I42
VSimpleName: getExposureCompensationStep
p575
tp576
a(Vinsert
p577
I42
VSimpleName: Encode
p578
tp579
a(Vinsert
p580
I42
VSimpleName: getScreenResolution
p581
tp582
a(Vinsert
p583
I42
VSimpleName: historyRequest
p584
tp585
a(Vinsert
p586
I42
VSimpleName: flatten
p587
tp588
a(Vinsert
p589
I42
VSimpleName: prepare
p590
tp591
a(Vinsert
p592
I42
VSimpleName: currentTimeMillis
p593
tp594
a(Vinsert
p595
I42
VSimpleName: digit
p596
tp597
a(Vinsert
p598
I42
VSimpleName: setCharAt
p599
tp600
a(Vinsert
p601
I42
VSimpleName: getX
p602
tp603
a(Vinsert
p604
I42
VSimpleName: makeAdjoint
p605
tp606
a(Vinsert
p607
I42
VSimpleName: drawLine
p608
tp609
a(Vinsert
p610
I42
VSimpleName: toArray
p611
tp612
a(Vinsert
p613
I42
VSimpleName: setPackage
p614
tp615
a(Vinsert
p616
I42
VSimpleName: getRemainingCharacters
p617
tp618
a(Vinsert
p619
I42
VSimpleName: setTimeZone
p620
tp621
a(Vinsert
p622
I42
VSimpleName: getPassword
p623
tp624
a(Vinsert
p625
I42
VSimpleName: getResultMetadata
p626
tp627
a(Vinsert
p628
I42
VSimpleName: decodeRow
p629
tp630
a(Vinsert
p631
I42
VSimpleName: setAttribute
p632
tp633
a(Vinsert
p634
I42
VSimpleName: RenderAsPNGFromData
p635
tp636
a(Vinsert
p637
I42
VSimpleName: drawImage
p638
tp639
a(Vinsert
p640
I42
VSimpleName: containsKey
p641
tp642
a(Vinsert
p643
I42
VSimpleName: getDisplayResult
p644
tp645
a(Vinsert
p646
I42
VSimpleName: getActivity
p647
tp648
a(Vinsert
p649
I42
VSimpleName: getTelURI
p650
tp651
a(Vinsert
p652
I42
VSimpleName: putExtra
p653
tp654
a(Vinsert
p655
I42
VSimpleName: matchSingleVCardPrefixedField
p656
tp657
a(Vinsert
p658
I42
VSimpleName: setChangeListener
p659
tp660
a(Vinsert
p661
I42
VSimpleName: toByteArray
p662
tp663
a(Vinsert
p664
I42
VSimpleName: getHolder
p665
tp666
a(Vinsert
p667
I42
VSimpleName: subtract
p668
tp669
a(Vinsert
p670
I42
VSimpleName: append
p671
tp672
a(Vinsert
p673
I42
VSimpleName: getDefaultDisplay
p674
tp675
a(Vinsert
p676
I42
VSimpleName: setPreviewCallback
p677
tp678
a(Vinsert
p679
I42
VSimpleName: getURI
p680
tp681
a(Vinsert
p682
I42
VSimpleName: getPreviewSize
p683
tp684
a(Vinsert
p685
I42
VSimpleName: getSize
p686
tp687
a(Vinsert
p688
I42
VSimpleName: getRequestURI
p689
tp690
a(Vinsert
p691
I42
VSimpleName: getBirthday
p692
tp693
a(Vinsert
p694
I42
VSimpleName: getNumDataCodewords
p695
tp696
a(Vinsert
p697
I42
VSimpleName: buildAlert
p698
tp699
a(Vinsert
p700
I42
VSimpleName: info
p701
tp702
a(Vinsert
p703
I42
VSimpleName: getPackageName
p704
tp705
a(Vinsert
p706
I42
VSimpleName: add
p707
tp708
a(Vinsert
p709
I42
VSimpleName: forReference
p710
tp711
a(Vinsert
p712
I42
VSimpleName: addOrSubtract
p713
tp714
a(Vinsert
p715
I42
VSimpleName: getInputStream
p716
tp717
a(Vinsert
p718
I42
VSimpleName: readImage
p719
tp720
a(Vinsert
p721
I42
VSimpleName: getRingerMode
p722
tp723
a(Vinsert
p724
I42
VSimpleName: encodeAsBitmap
p725
tp726
a(Vinsert
p727
I42
VSimpleName: getMailtoURI
p728
tp729
a(Vinsert
p730
I42
VSimpleName: multiply
p731
tp732
a(Vinsert
p733
I42
VSimpleName: getSymbolInfo
p734
tp735
a(Vinsert
p736
I42
VSimpleName: putAllMetadata
p737
tp738
a(Vinsert
p739
I42
VSimpleName: getResult
p740
tp741
a(Vinsert
p742
I42
VSimpleName: isMacroSupported
p743
tp744
a(Vinsert
p745
I42
VSimpleName: getNumber
p746
tp747
a(Vinsert
p748
I42
VSimpleName: length
p749
tp750
a(Vinsert
p751
I42
VSimpleName: getBytes
p752
tp753
a(Vinsert
p754
I42
VSimpleName: iterator
p755
tp756
a(Vinsert
p757
I42
VSimpleName: setIntParameter
p758
tp759
a(Vinsert
p760
I42
VSimpleName: getRaster
p761
tp762
a(Vinsert
p763
I42
VSimpleName: resolve
p764
tp765
a(Vinsert
p766
I42
VSimpleName: isBookSearchUrl
p767
tp768
a(Vinsert
p769
I42
VSimpleName: renderThumbnail
p770
tp771
a(Vinsert
p772
I42
VSimpleName: updateSymbolInfo
p773
tp774
a(Vinsert
p775
I42
VSimpleName: arrayContains
p776
tp777
a(Vinsert
p778
I42
VSimpleName: find
p779
tp780
a(Vinsert
p781
I42
VSimpleName: getReadableDatabase
p782
tp783
a(Vinsert
p784
I42
VSimpleName: parseStrict
p785
tp786
a(Vinsert
p787
I42
VSimpleName: intValue
p788
tp789
a(Vinsert
p790
I42
VSimpleName: abs
p791
tp792
a(Vinsert
p793
I42
VSimpleName: isSubstringOfDigits
p794
tp795
a(Vinsert
p796
I42
VSimpleName: getSupportedFlashModes
p797
tp798
a(Vinsert
p799
I42
VSimpleName: getDocumentElement
p800
tp801
a(Vinsert
p802
I42
VSimpleName: singletonList
p803
tp804
a(Vinsert
p805
I42
VSimpleName: getFramingRect
p806
tp807
a(Vinsert
p808
I42
VSimpleName: createGraphics
p809
tp810
a(Vinsert
p811
I42
VSimpleName: buildMonomial
p812
tp813
a(Vinsert
p814
I42
VSimpleName: insert
p815
tp816
a(Vinsert
p817
I42
VSimpleName: newInstance
p818
tp819
a(Vinsert
p820
I42
VSimpleName: addHistoryItemDetails
p821
tp822
a(Vinsert
p823
I42
VSimpleName: replace
p824
tp825
a(Vinsert
p826
I42
VSimpleName: DCHECK_EQ
p827
tp828
a(Vinsert
p829
I42
VSimpleName: getElement
p830
tp831
a(Vinsert
p832
I42
VSimpleName: setRegion
p833
tp834
a(Vinsert
p835
I42
VSimpleName: getMethod
p836
tp837
a(Vinsert
p838
I42
VSimpleName: getNetworkType
p839
tp840
a(Vinsert
p841
I42
VSimpleName: setStackTrace
p842
tp843
a(Vinsert
p844
I42
VSimpleName: compile
p845
tp846
a(Vinsert
p847
I42
VSimpleName: toString
p848
tp849
a(Vinsert
p850
I42
VSimpleName: addHeader
p851
tp852
a(Vinsert
p853
I42
VSimpleName: startMethodTracing
p854
tp855
a(Vinsert
p856
I42
VSimpleName: join
p857
tp858
a(Vinsert
p859
I42
VSimpleName: charAt
p860
tp861
a(Vinsert
p862
I42
VSimpleName: createImage
p863
tp864
a(Vinsert
p865
I42
VSimpleName: isAutoFocusSupported
p866
tp867
a(Vinsert
p868
I42
VSimpleName: elementAt
p869
tp870
a(Vinsert
p871
I42
VSimpleName: decodeVersionInformation
p872
tp873
a(Vinsert
p874
I42
VSimpleName: close
p875
tp876
a(Vinsert
p877
I42
VSimpleName: decodeMiddle
p878
tp879
a(Vinsert
p880
I42
VSimpleName: setMaskPattern
p881
tp882
a(Vinsert
p883
I42
VSimpleName: getBoolean
p884
tp885
a(Vinsert
p886
I42
VSimpleName: format
p887
tp888
a(Vinsert
p889
I42
VSimpleName: setStatus
p890
tp891
a(Vinsert
p892
I42
VSimpleName: onPause
p893
tp894
a(Vinsert
p895
I42
VSimpleName: getUPC
p896
tp897
a(Vinsert
p898
I42
VSimpleName: getTime
p899
tp900
a(Vinsert
p901
I42
VSimpleName: decode
p902
tp903
a(Vinsert
p904
I42
VSimpleName: contains
p905
tp906
a(Vinsert
p907
I42
VSimpleName: emptyList
p908
tp909
a(Vinsert
p910
I42
VSimpleName: encode
p911
tp912
a(Vinsert
p913
I42
VSimpleName: isNaN
p914
tp915
a(Vinsert
p916
I42
VSimpleName: setEnabled
p917
tp918
a(Vinsert
p919
I42
VSimpleName: evaluateAt
p920
tp921
a(Vinsert
p922
I42
VSimpleName: lookupCountryIdentifier
p923
tp924
a(Vinsert
p925
I42
VSimpleName: destroy
p926
tp927
a(Vinsert
p928
I42
VSimpleName: forBits
p929
tp930
a(Vinsert
p931
I42
VSimpleName: hasExtra
p932
tp933
a(Vinsert
p934
I42
VSimpleName: containsPermissionKey
p935
tp936
a(Vinsert
p937
I42
VSimpleName: getGeo
p938
tp939
a(Vinsert
p940
I42
VSimpleName: getByteOffset
p941
tp942
a(Vinsert
p943
I42
VSimpleName: getAlphaRaster
p944
tp945
a(Vinsert
p946
I42
VSimpleName: addKeyPressHandler
p947
tp948
a(Vinsert
p949
I42
VSimpleName: setText
p950
tp951
a(Vinsert
p952
I42
VSimpleName: setRGB
p953
tp954
a(Vinsert
p955
I42
VSimpleName: read
p956
tp957
a(Vinsert
p958
I42
VSimpleName: getArray
p959
tp960
a(Vinsert
p961
I42
VSimpleName: getBarcodeFormat
p962
tp963
a(Vinsert
p964
I42
VSimpleName: start
p965
tp966
a(Vinsert
p967
I42
VSimpleName: toHexString
p968
tp969
a(Vinsert
p970
I42
VSimpleName: setOneShotPreviewCallback
p971
tp972
a(Vinsert
p973
I42
VSimpleName: getResources
p974
tp975
a(Vinsert
p976
I42
VSimpleName: getBlackMatrix
p977
tp978
a(Vinsert
p979
I42
VSimpleName: getStringArrayExtra
p980
tp981
a(Vinsert
p982
I42
VSimpleName: getPayload
p983
tp984
a(Vinsert
p985
I42
VSimpleName: cancel
p986
tp987
a(Vinsert
p988
I42
VSimpleName: await
p989
tp990
a(Vinsert
p991
I42
VSimpleName: getVersionNumber
p992
tp993
a(Vinsert
p994
I42
VSimpleName: trim
p995
tp996
a(Vinsert
p997
I42
VSimpleName: signalEncoderChange
p998
tp999
a(Vinsert
p1000
I42
VSimpleName: execute
p1001
tp1002
a(Vinsert
p1003
I42
VSimpleName: setClassName
p1004
tp1005
a(Vinsert
p1006
I42
VSimpleName: getQuery
p1007
tp1008
a(Vinsert
p1009
I42
VSimpleName: getWidth
p1010
tp1011
a(Vinsert
p1012
I42
VSimpleName: onActivity
p1013
tp1014
a(Vinsert
p1015
I42
VSimpleName: getSimpleName
p1016
tp1017
a(Vinsert
p1018
I42
VSimpleName: getItemAt
p1019
tp1020
a(Vinsert
p1021
I42
VSimpleName: getWritableDatabase
p1022
tp1023
a(Vinsert
p1024
I42
VSimpleName: insertionSort
p1025
tp1026
a(Vinsert
p1027
I42
VSimpleName: getOddCounts
p1028
tp1029
a(Vinsert
p1030
I42
VSimpleName: newAuthorizationCodeFlow
p1031
tp1032
a(Vinsert
p1033
I42
VSimpleName: numberOfLeadingZeros
p1034
tp1035
a(Vinsert
p1036
I42
VSimpleName: readFormatInformation
p1037
tp1038
a(Vinsert
p1039
I42
VSimpleName: fine
p1040
tp1041
a(Vinsert
p1042
I42
VSimpleName: getScaledRow
p1043
tp1044
a(Vinsert
p1045
I42
VSimpleName: getExternalStorageDirectory
p1046
tp1047
a(Vinsert
p1048
I42
VSimpleName: parseResult
p1049
tp1050
a(Vinsert
p1051
I42
VSimpleName: newEncoder
p1052
tp1053
a(Vinsert
p1054
I42
VSimpleName: scheduleAtFixedRate
p1055
tp1056
a(Vinsert
p1057
I42
VSimpleName: setFlash
p1058
tp1059
a(Vinsert
p1060
I42
VSimpleName: drawRect
p1061
tp1062
a(Vinsert
p1063
I42
VSimpleName: LOG_ERROR
p1064
tp1065
a(Vinsert
p1066
I42
VSimpleName: toCharArray
p1067
tp1068
a(Vinsert
p1069
I42
VSimpleName: getPronunciation
p1070
tp1071
a(Vinsert
p1072
I42
VSimpleName: parseInt
p1073
tp1074
a(Vinsert
p1075
I42
VSimpleName: newArrayListWithCapacity
p1076
tp1077
a(Vinsert
p1078
I42
VSimpleName: readRecord
p1079
tp1080
a(Vinsert
p1081
I42
VSimpleName: captureStill
p1082
tp1083
a(Vinsert
p1084
I42
VSimpleName: gc
p1085
tp1086
a(Vinsert
p1087
I42
VSimpleName: parseECI
p1088
tp1089
a(Vinsert
p1090
I42
VSimpleName: getLuminanceRow
p1091
tp1092
a(Vinsert
p1093
I42
VSimpleName: putMetadata
p1094
tp1095
a(Vinsert
p1096
I42
VSimpleName: getApplicationContext
p1097
tp1098
a(Vinsert
p1099
I42
VSimpleName: w
p1100
tp1101
a(Vinsert
p1102
I42
VSimpleName: startThread
p1103
tp1104
a(Vinsert
p1105
I42
VSimpleName: isRange
p1106
tp1107
a(Vinsert
p1108
I42
VSimpleName: quadrilateralToQuadrilateral
p1109
tp1110
a(Vinsert
p1111
I42
VSimpleName: setUsePreviewForDecode
p1112
tp1113
a(Vinsert
p1114
I42
VSimpleName: hasMoreElements
p1115
tp1116
a(Vinsert
p1117
I42
VSimpleName: create
p1118
tp1119
a(Vinsert
p1120
I42
VSimpleName: decodeMultiple
p1121
tp1122
a(Vinsert
p1123
I42
VSimpleName: addFlags
p1124
tp1125
a(Vinsert
p1126
I42
VSimpleName: setTime
p1127
tp1128
a(Vinsert
p1129
I42
VSimpleName: setAlpha
p1130
tp1131
a(Vinsert
p1132
I42
VSimpleName: getTranslatedAssetLanguage
p1133
tp1134
a(Vinsert
p1135
I42
VSimpleName: asList
p1136
tp1137
a(Vinsert
p1138
I42
VSimpleName: getByteArrayExtra
p1139
tp1140
a(Vinsert
p1141
I42
VSimpleName: getTotalCodewords
p1142
tp1143
a(Vinsert
p1144
I42
VSimpleName: showError
p1145
tp1146
a(Vinsert
p1147
I42
VSimpleName: buildHistory
p1148
tp1149
a(Vinsert
p1150
I42
VSimpleName: execSQL
p1151
tp1152
a(Vinsert
p1153
I42
VSimpleName: getNextUSN
p1154
tp1155
a(Vinsert
p1156
I42
VSimpleName: getLong
p1157
tp1158
a(Vinsert
p1159
I42
VSimpleName: putString
p1160
tp1161
a(Vinsert
p1162
I42
VSimpleName: isWifiEnabled
p1163
tp1164
a(Vinsert
p1165
I42
VSimpleName: isChecked
p1166
tp1167
a(Vinsert
p1168
I42
VSimpleName: call
p1169
tp1170
a(Vinsert
p1171
I42
VSimpleName: requestStillAndDecode1D
p1172
tp1173
a(Vinsert
p1174
I42
VSimpleName: getValue
p1175
tp1176
a(Vinsert
p1177
I42
VSimpleName: query
p1178
tp1179
a(Vinsert
p1180
I42
VSimpleName: getHandler
p1181
tp1182
a(Vinsert
p1183
I42
VSimpleName: setLength
p1184
tp1185
a(Vinsert
p1186
I42
VSimpleName: newFixedThreadPool
p1187
tp1188
a(Vinsert
p1189
I42
VSimpleName: isRotatedSupported
p1190
tp1191
a(Vinsert
p1192
I42
VSimpleName: write
p1193
tp1194
a(Vinsert
p1195
I42
VSimpleName: getContent
p1196
tp1197
a(Vinsert
p1198
I42
VSimpleName: bitCount
p1199
tp1200
a(Vinsert
p1201
I42
VSimpleName: getECCodewords
p1202
tp1203
a(Vinsert
p1204
I42
VSimpleName: combineEstimate
p1205
tp1206
a(Vinsert
p1207
I42
VSimpleName: setAccessType
p1208
tp1209
a(Vinsert
p1210
I42
VSimpleName: toggleTracing
p1211
tp1212
a(Vinsert
p1213
I42
VSimpleName: generateECBytes
p1214
tp1215
a(Vinsert
p1216
I42
VSimpleName: getBarcodeMatrix
p1217
tp1218
a(Vinsert
p1219
I42
VSimpleName: setDimensions
p1220
tp1221
a(Vinsert
p1222
I42
VSimpleName: getErrorCorrectionCodewordCount
p1223
tp1224
a(Vinsert
p1225
I42
VSimpleName: ordinal
p1226
tp1227
a(Vinsert
p1228
I42
VSimpleName: width
p1229
tp1230
a(Vinsert
p1231
I42
VSimpleName: detect
p1232
tp1233
a(Vinsert
p1234
I42
VSimpleName: getNotFoundInstance
p1235
tp1236
a(Vinsert
p1237
I42
VSimpleName: getAbsolutePath
p1238
tp1239
a(Vinsert
p1240
I42
VSimpleName: getDescription
p1241
tp1242
a(Vinsert
p1243
I42
VSimpleName: getCameraResolution
p1244
tp1245
a(Vinsert
p1246
I42
VSimpleName: getCameraInfo
p1247
tp1248
a(Vinsert
p1249
I42
VSimpleName: availableProcessors
p1250
tp1251
a(Vinsert
p1252
I42
VSimpleName: createBitmap
p1253
tp1254
a(Vinsert
p1255
I42
VSimpleName: getDimensionForVersion
p1256
tp1257
a(Vinsert
p1258
I42
VSimpleName: getBoundingBox
p1259
tp1260
a(Vinsert
p1261
I42
VSimpleName: getLocation
p1262
tp1263
a(Vinsert
p1264
I42
VSimpleName: getType
p1265
tp1266
a(Vinsert
p1267
I42
VSimpleName: appendBits
p1268
tp1269
a(Vinsert
p1270
I42
VSimpleName: getLatitude
p1271
tp1272
a(Vinsert
p1273
I42
VSimpleName: isFile
p1274
tp1275
a(Vinsert
p1276
I42
VSimpleName: dispose
p1277
tp1278
a(Vinsert
p1279
I42
VSimpleName: distance
p1280
tp1281
a(Vinsert
p1282
I42
VSimpleName: hasText
p1283
tp1284
a(Vinsert
p1285
I42
VSimpleName: getMessage
p1286
tp1287
a(Vinsert
p1288
I42
VSimpleName: shutdown
p1289
tp1290
a(Vinsert
p1291
I42
VSimpleName: move
p1292
tp1293
a(Vinsert
p1294
I42
VSimpleName: addAll
p1295
tp1296
a(Vinsert
p1297
I42
VSimpleName: putAll
p1298
tp1299
a(Vinsert
p1300
I42
VSimpleName: getFormatInstance
p1301
tp1302
a(Vinsert
p1303
I42
VSimpleName: obtainMessage
p1304
tp1305
a(Vinsert
p1306
I42
VSimpleName: toURI
p1307
tp1308
a(Vinsert
p1309
I42
VSimpleName: convertBoolArrayToByteArray
p1310
tp1311
a(Vinsert
p1312
I42
VSimpleName: arraycopy
p1313
tp1314
a(Vinsert
p1315
I42
VSimpleName: setDefault
p1316
tp1317
a(Vinsert
p1318
I42
VSimpleName: shareText
p1319
tp1320
a(Vinsert
p1321
I42
VSimpleName: exists
p1322
tp1323
a(Vinsert
p1324
I42
VSimpleName: getSymbolWidth
p1325
tp1326
a(Vinsert
p1327
I42
VSimpleName: build
p1328
tp1329
a(Vinsert
p1330
I42
VSimpleName: substring
p1331
tp1332
a(Vinsert
p1333
I42
VSimpleName: forName
p1334
tp1335
a(Vinsert
p1336
I42
VSimpleName: getStatusLine
p1337
tp1338
a(Vinsert
p1339
I42
VSimpleName: readBits
p1340
tp1341
a(Vinsert
p1342
I42
VSimpleName: estimate
p1343
tp1344
a(Vinsert
p1345
I42
VSimpleName: nextInt
p1346
tp1347
a(Vinsert
p1348
I42
VSimpleName: getEncodingName
p1349
tp1350
a(Vinsert
p1351
I42
VSimpleName: yuvToRGB
p1352
tp1353
a(Vinsert
p1354
I42
VSimpleName: encodeHighLevel
p1355
tp1356
a(Vinsert
p1357
I42
VSimpleName: getBlackDiagonal
p1358
tp1359
a(Vinsert
p1360
I42
VSimpleName: foundPossibleResultPoint
p1361
tp1362
a(Vinsert
p1363
I42
VSimpleName: setHandler
p1364
tp1365
a(Vinsert
p1366
I42
VSimpleName: startActivity
p1367
tp1368
a(Vinsert
p1369
I42
VSimpleName: getRGB
p1370
tp1371
a(Vinsert
p1372
I42
VSimpleName: from
p1373
tp1374
a(Vinsert
p1375
I42
VSimpleName: saveState
p1376
tp1377
a(Vinsert
p1378
I42
VSimpleName: getLuminanceSource
p1379
tp1380
a(Vinsert
p1381
I42
VSimpleName: get
p1382
tp1383
a(Vinsert
p1384
I42
VSimpleName: listFiles
p1385
tp1386
a(Vinsert
p1387
I42
VSimpleName: values
p1388
tp1389
a(Vinsert
p1390
I42
VSimpleName: restartPreviewAfterDelay
p1391
tp1392
a(Vinsert
p1393
I42
VSimpleName: getItemId
p1394
tp1395
a(Vinsert
p1396
I42
VSimpleName: addCommand
p1397
tp1398
a(Vinsert
p1399
I42
VSimpleName: dismiss
p1400
tp1401
a(Vinsert
p1402
I42
VSimpleName: getAttribute
p1403
tp1404
a(Vinsert
p1405
I42
VSimpleName: estimateBlackPoint
p1406
tp1407
a(Vinsert
p1408
I42
VSimpleName: setExposure
p1409
tp1410
a(Vinsert
p1411
I42
VSimpleName: matchSinglePrefixedField
p1412
tp1413
a(Vinsert
p1414
I42
VSimpleName: sendEmptyMessageDelayed
p1415
tp1416
a(Vinsert
p1417
I42
VSimpleName: setVisible
p1418
tp1419
a(Vinsert
p1420
I42
VSimpleName: encodeECC200
p1421
tp1422
a(Vinsert
p1423
I42
VSimpleName: getCountryTLD
p1424
tp1425
a(Vinsert
p1426
I42
VSimpleName: sendRedirect
p1427
tp1428
a(Vinsert
p1429
I42
VSimpleName: setZoom
p1430
tp1431
a(Vinsert
p1432
I42
VSimpleName: chooseImage
p1433
tp1434
a(Vinsert
p1435
I42
VSimpleName: getAction
p1436
tp1437
a(Vinsert
p1438
I42
VSimpleName: toBitFieldStringArray
p1439
tp1440
a(Vinsert
p1441
I42
VSimpleName: e
p1442
tp1443
a(Vinsert
p1444
I42
VSimpleName: getCharacterCountBits
p1445
tp1446
a(Vinsert
p1447
I42
VSimpleName: getString
p1448
tp1449
a(Vinsert
p1450
I42
VSimpleName: setRequestProperty
p1451
tp1452
a(Vinsert
p1453
I42
VSimpleName: endsWith
p1454
tp1455
a(Vinsert
p1456
I42
VSimpleName: newBufferedWriter
p1457
tp1458
a(Vinsert
p1459
I42
VSimpleName: getConstructor
p1460
tp1461
a(Vinsert
p1462
I42
VSimpleName: connect
p1463
tp1464
a(Vinsert
p1465
I42
VSimpleName: getBitmap
p1466
tp1467
a(Vinsert
p1468
I42
VSimpleName: getCharacterSetECIByValue
p1469
tp1470
a(Vinsert
p1471
I42
VSimpleName: toLowerCase
p1472
tp1473
a(Vinsert
p1474
I42
VSimpleName: getInitParameter
p1475
tp1476
a(Vinsert
p1477
I42
VSimpleName: name
p1478
tp1479
a(Vinsert
p1480
I42
VSimpleName: decodeByteArray
p1481
tp1482
a(Vinsert
p1483
I42
VSimpleName: printf
p1484
tp1485
a(Vinsert
p1486
I42
VSimpleName: getBooleanExtra
p1487
tp1488
a(Vinsert
p1489
I42
VSimpleName: getNames
p1490
tp1491
a(Vinsert
p1492
I42
VSimpleName: ceil
p1493
tp1494
a(Vinsert
p1495
I42
VSimpleName: getTimestamp
p1496
tp1497
a(Vinsert
p1498
I42
VSimpleName: valueOf
p1499
tp1500
a(Vinsert
p1501
I42
VSimpleName: getSMSURI
p1502
tp1503
a(Vinsert
p1504
I42
VSimpleName: getTorchSetting
p1505
tp1506
a(Vinsert
p1507
I42
VSimpleName: getTo
p1508
tp1509
a(Vinsert
p1510
I42
VSimpleName: getTitle
p1511
tp1512
a(Vinsert
p1513
I42
VSimpleName: getName
p1514
tp1515
a(Vinsert
p1516
I42
VSimpleName: getDegree
p1517
tp1518
a(Vinsert
p1519
I42
VSimpleName: clone
p1520
tp1521
a(Vinsert
p1522
I42
VSimpleName: closeIdleConnections
p1523
tp1524
a(Vinsert
p1525
I42
VSimpleName: getBCCs
p1526
tp1527
a(Vinsert
p1528
I42
VSimpleName: subscriptions
p1529
tp1530
a(Vinsert
p1531
I42
VSimpleName: getBitOffset
p1532
tp1533
a(Vinsert
p1534
I42
VSimpleName: getStatus
p1535
tp1536
a(Vinsert
p1537
I42
VSimpleName: grabPixels
p1538
tp1539
a(Vinsert
p1540
I42
VSimpleName: setCancelable
p1541
tp1542
a(Vinsert
p1543
I42
VSimpleName: getRowNumber
p1544
tp1545
a(Vinsert
p1546
I42
VSimpleName: flush
p1547
tp1548
a(Vinsert
p1549
I42
VSimpleName: getEmailAddress
p1550
tp1551
a(Vinsert
p1552
I42
VSimpleName: getNextSet
p1553
tp1554
a(Vinsert
p1555
I42
VSimpleName: setLastSegment
p1556
tp1557
a(Vinsert
p1558
I42
VSimpleName: getDefault
p1559
tp1560
a(Vinsert
p1561
I42
VSimpleName: getIntent
p1562
tp1563
a(Vinsert
p1564
I42
VSimpleName: sum
p1565
tp1566
a(Vinsert
p1567
I42
VSimpleName: equals
p1568
tp1569
a(Vinsert
p1570
I42
VSimpleName: copy
p1571
tp1572
a(Vinsert
p1573
I42
VSimpleName: obtain
p1574
tp1575
a(Vinsert
p1576
I42
VSimpleName: toFile
p1577
tp1578
a(Vinsert
p1579
I42
VSimpleName: put
p1580
tp1581
a(Vinsert
p1582
I42
VSimpleName: convert
p1583
tp1584
a(Vinsert
p1585
I42
VSimpleName: filterNumber
p1586
tp1587
a(Vinsert
p1588
I42
VSimpleName: getCodewords
p1589
tp1590
a(Vinsert
p1591
I42
VSimpleName: isSecure
p1592
tp1593
a(Vinsert
p1594
I42
VSimpleName: parseReaderResult
p1595
tp1596
a(Vinsert
p1597
I42
VSimpleName: bytesToString
p1598
tp1599
a(Vinsert
p1600
I42
VSimpleName: getHeight
p1601
tp1602
a(Vinsert
p1603
I42
VSimpleName: getSymbolSizeRows
p1604
tp1605
a(Vinsert
p1606
I42
VSimpleName: getECBlocksForLevel
p1607
tp1608
a(Vinsert
p1609
I42
VSimpleName: open
p1610
tp1611
a(Vinsert
p1612
I42
VSimpleName: setAntiAlias
p1613
tp1614
a(Vinsert
p1615
I42
VSimpleName: getPreviewFpsRange
p1616
tp1617
a(Vinsert
p1618
I42
VSimpleName: finish
p1619
tp1620
a(Vinsert
p1621
I42
VSimpleName: v
p1622
tp1623
a(Vinsert
p1624
I42
VSimpleName: allOf
p1625
tp1626
a(Vinsert
p1627
I42
VSimpleName: getHeaderField
p1628
tp1629
a(Vinsert
p1630
I42
VSimpleName: buildLuminanceSource
p1631
tp1632
a(Vinsert
p1633
I42
VSimpleName: enterEventDispatcher
p1634
tp1635
a(Vinsert
p1636
I42
VSimpleName: max
p1637
tp1638
a(Vinsert
p1639
I42
VSimpleName: parseBoolean
p1640
tp1641
a(Vinsert
p1642
I42
VSimpleName: getNodeName
p1643
tp1644
a(Vinsert
p1645
I42
VSimpleName: registerListener
p1646
tp1647
a(Vinsert
p1648
I42
VSimpleName: setMode
p1649
tp1650
a(Vinsert
p1651
I42
VSimpleName: optString
p1652
tp1653
a(Vinsert
p1654
I42
VSimpleName: set_ec_level
p1655
tp1656
a(Vinsert
p1657
I42
VSimpleName: matcher
p1658
tp1659
a(Vinsert
p1660
I42
VSimpleName: isBlack
p1661
tp1662
a(Vinsert
p1663
I42
VSimpleName: getRawBytes
p1664
tp1665
a(Vinsert
p1666
I42
VSimpleName: disableFlashlight
p1667
tp1668
a(Vinsert
p1669
I42
VSimpleName: setHints
p1670
tp1671
a(Vinsert
p1672
I42
VSimpleName: size
p1673
tp1674
a(Vinsert
p1675
I42
VSimpleName: mapPoints
p1676
tp1677
a(Vinsert
p1678
I42
VSimpleName: getItem
p1679
tp1680
a(Vinsert
p1681
I42
VSimpleName: getGMTRelative
p1682
tp1683
a(Vinsert
p1684
I42
VSimpleName: getMinY
p1685
tp1686
a(Vinsert
p1687
I42
VSimpleName: nextElement
p1688
tp1689
a(Vinsert
p1690
I42
VSimpleName: getBits
p1691
tp1692
a(Vinsert
p1693
I42
VSimpleName: warning
p1694
tp1695
a(Vinsert
p1696
I42
VSimpleName: fromHtml
p1697
tp1698
a(Vinsert
p1699
I42
VSimpleName: maybeAppend
p1700
tp1701
a(Vinsert
p1702
I42
VSimpleName: getPackageManager
p1703
tp1704
a(Vinsert
p1705
I42
VSimpleName: reserve
p1706
tp1707
a(Vinsert
p1708
I42
VSimpleName: getBlackRow
p1709
tp1710
a.