(lp0
(Vinsert
p1
I42
VSimpleName: getEncodedImage
p2
tp3
a(Vinsert
p4
I42
VSimpleName: getMemoryTrimmableRegistry
p5
tp6
a(Vinsert
p7
I42
VSimpleName: onSubmit
p8
tp9
a(Vinsert
p10
I42
VSimpleName: deserialize
p11
tp12
a(Vinsert
p13
I42
VSimpleName: getLowestPermittedRequestLevel
p14
tp15
a(Vinsert
p16
I42
VSimpleName: getResponseBytesRange
p17
tp18
a(Vinsert
p19
I42
VSimpleName: getExternalPhotoSimpleAdapter
p20
tp21
a(Vinsert
p22
I42
VSimpleName: getBlockSizeLong
p23
tp24
a(Vinsert
p25
I42
VSimpleName: assertNull
p26
tp27
a(Vinsert
p28
I42
VSimpleName: newDataFetchProducer
p29
tp30
a(Vinsert
p31
I42
VSimpleName: getCachedVariants
p32
tp33
a(Vinsert
p34
I42
VSimpleName: getConfig
p35
tp36
a(Vinsert
p37
I42
VSimpleName: callOnCancellationRequested
p38
tp39
a(Vinsert
p40
I42
VSimpleName: getFlexByteArrayPoolParams
p41
tp42
a(Vinsert
p43
I42
VSimpleName: queryMiniThumbnail
p44
tp45
a(Vinsert
p46
I42
VSimpleName: checkArgument
p47
tp48
a(Vinsert
p49
I42
VSimpleName: contains
p50
tp51
a(Vinsert
p52
I42
VSimpleName: reset
p53
tp54
a(Vinsert
p55
I42
VSimpleName: unmodifiableList
p56
tp57
a(Vinsert
p58
I42
VSimpleName: setShader
p59
tp60
a(Vinsert
p61
I42
VSimpleName: getCount
p62
tp63
a(Vinsert
p64
I42
VSimpleName: getPostprocessorCacheKey
p65
tp66
a(Vinsert
p67
I42
VSimpleName: release
p68
tp69
a(Vinsert
p70
I42
VSimpleName: onFailure
p71
tp72
a(Vinsert
p73
I42
VSimpleName: isEmpty
p74
tp75
a(Vinsert
p76
I42
VSimpleName: getParent
p77
tp78
a(Vinsert
p79
I42
VSimpleName: setScale
p80
tp81
a(Vinsert
p82
I42
VSimpleName: getAllocationByteCount
p83
tp84
a(Vinsert
p85
I42
VSimpleName: addCategory
p86
tp87
a(Vinsert
p88
I42
VSimpleName: getByteBufferRef
p89
tp90
a(Vinsert
p91
I42
VSimpleName: runOnMainSync
p92
tp93
a(Vinsert
p94
I42
VSimpleName: updateMeasureSpec
p95
tp96
a(Vinsert
p97
I42
VSimpleName: addCustomDrawableFactory
p98
tp99
a(Vinsert
p100
I42
VSimpleName: setResizeOptions
p101
tp102
a(Vinsert
p103
I42
VSimpleName: poll
p104
tp105
a(Vinsert
p106
I42
VSimpleName: isDiskCacheEnabled
p107
tp108
a(Vinsert
p109
I42
VSimpleName: setListener
p110
tp111
a(Vinsert
p112
I42
VSimpleName: println
p113
tp114
a(Vinsert
p115
I42
VSimpleName: onFrameEvicted
p116
tp117
a(Vinsert
p118
I42
VSimpleName: getWebpTranscoder
p119
tp120
a(Vinsert
p121
I42
VSimpleName: ensure
p122
tp123
a(Vinsert
p124
I42
VSimpleName: bufSizeYUV
p125
tp126
a(Vinsert
p127
I42
VSimpleName: entrySet
p128
tp129
a(Vinsert
p130
I42
VSimpleName: createDraweeHierarchy
p131
tp132
a(Vinsert
p133
I42
VSimpleName: isResizeAndRotateEnabledForNetwork
p134
tp135
a(Vinsert
p136
I42
VSimpleName: setProgressBarImage
p137
tp138
a(Vinsert
p139
I42
VSimpleName: setEnabled
p140
tp141
a(Vinsert
p142
I42
VSimpleName: getIndexPopulateAtStartupEnabled
p143
tp144
a(Vinsert
p145
I42
VSimpleName: getForceSmallCacheThresholdBytes
p146
tp147
a(Vinsert
p148
I42
VSimpleName: getDecodeAllFrames
p149
tp150
a(Vinsert
p151
I42
VSimpleName: setOldController
p152
tp153
a(Vinsert
p154
I42
VSimpleName: addDrawableFrame
p155
tp156
a(Vinsert
p157
I42
VSimpleName: equal
p158
tp159
a(Vinsert
p160
I42
VSimpleName: turnOffStatusFlag
p161
tp162
a(Vinsert
p163
I42
VSimpleName: createBitmapInternal
p164
tp165
a(Vinsert
p166
I42
VSimpleName: callOnIsPrefetchChanged
p167
tp168
a(Vinsert
p169
I42
VSimpleName: getFlexByteArrayPoolMaxNumThreads
p170
tp171
a(Vinsert
p172
I42
VSimpleName: makeText
p173
tp174
a(Vinsert
p175
I42
VSimpleName: getBitmapConfig
p176
tp177
a(Vinsert
p178
I42
VSimpleName: newBuilderWithSource
p179
tp180
a(Vinsert
p181
I42
VSimpleName: addUpdateListener
p182
tp183
a(Vinsert
p184
I42
VSimpleName: setImageURI
p185
tp186
a(Vinsert
p187
I42
VSimpleName: isEndMarkerRead
p188
tp189
a(Vinsert
p190
I42
VSimpleName: getByteCount
p191
tp192
a(Vinsert
p193
I42
VSimpleName: getInt
p194
tp195
a(Vinsert
p196
I42
VSimpleName: setHeight
p197
tp198
a(Vinsert
p199
I42
VSimpleName: toCircle
p200
tp201
a(Vinsert
p202
I42
VSimpleName: getColumnIndex
p203
tp204
a(Vinsert
p205
I42
VSimpleName: immediateFailedDataSource
p206
tp207
a(Vinsert
p208
I42
VSimpleName: mockDrawable
p209
tp210
a(Vinsert
p211
I42
VSimpleName: getUriForResourceId
p212
tp213
a(Vinsert
p214
I42
VSimpleName: isNotLast
p215
tp216
a(Vinsert
p217
I42
VSimpleName: calcDesiredSize
p218
tp219
a(Vinsert
p220
I42
VSimpleName: getDecodedImageProducerSequence
p221
tp222
a(Vinsert
p223
I42
VSimpleName: assertThat
p224
tp225
a(Vinsert
p226
I42
VSimpleName: setBounds
p227
tp228
a(Vinsert
p229
I42
VSimpleName: getBitmapMemoryCache
p230
tp231
a(Vinsert
p232
I42
VSimpleName: fromContentRangeHeader
p233
tp234
a(Vinsert
p235
I42
VSimpleName: getCacheKey
p236
tp237
a(Vinsert
p238
I42
VSimpleName: getRadii
p239
tp240
a(Vinsert
p241
I42
VSimpleName: isClosed
p242
tp243
a(Vinsert
p244
I42
VSimpleName: set
p245
tp246
a(Vinsert
p247
I42
VSimpleName: startsWith
p248
tp249
a(Vinsert
p250
I42
VSimpleName: initialize
p251
tp252
a(Vinsert
p253
I42
VSimpleName: wrapChildWithScaleType
p254
tp255
a(Vinsert
p256
I42
VSimpleName: HSVToColor
p257
tp258
a(Vinsert
p259
I42
VSimpleName: remove
p260
tp261
a(Vinsert
p262
I42
VSimpleName: closeSafely
p263
tp264
a(Vinsert
p265
I42
VSimpleName: inflateBuilder
p266
tp267
a(Vinsert
p268
I42
VSimpleName: getTargetRenderTimeMs
p269
tp270
a(Vinsert
p271
I42
VSimpleName: addOptionalFeatures
p272
tp273
a(Vinsert
p274
I42
VSimpleName: decodeWebP
p275
tp276
a(Vinsert
p277
I42
VSimpleName: setMessage
p278
tp279
a(Vinsert
p280
I42
VSimpleName: isMutable
p281
tp282
a(Vinsert
p283
I42
VSimpleName: sort
p284
tp285
a(Vinsert
p286
I42
VSimpleName: createForAllScaleTypes
p287
tp288
a(Vinsert
p289
I42
VSimpleName: resetDefaultRequestConfig
p290
tp291
a(Vinsert
p292
I42
VSimpleName: getCallerContext
p293
tp294
a(Vinsert
p295
I42
VSimpleName: fromCornersRadius
p296
tp297
a(Vinsert
p298
I42
VSimpleName: setContentDescription
p299
tp300
a(Vinsert
p301
I42
VSimpleName: onTouchEvent
p302
tp303
a(Vinsert
p304
I42
VSimpleName: setProgressiveJpegConfig
p305
tp306
a(Vinsert
p307
I42
VSimpleName: loadLibrary
p308
tp309
a(Vinsert
p310
I42
VSimpleName: setControllerViewportVisibilityListener
p311
tp312
a(Vinsert
p313
I42
VSimpleName: getPadding
p314
tp315
a(Vinsert
p316
I42
VSimpleName: setTransitionDuration
p317
tp318
a(Vinsert
p319
I42
VSimpleName: onReusabilityChange
p320
tp321
a(Vinsert
p322
I42
VSimpleName: getCurrent
p323
tp324
a(Vinsert
p325
I42
VSimpleName: getPreferredWidth
p326
tp327
a(Vinsert
p328
I42
VSimpleName: onBitmapCreated
p329
tp330
a(Vinsert
p331
I42
VSimpleName: canDeferUntilRendered
p332
tp333
a(Vinsert
p334
I42
VSimpleName: forClass
p335
tp336
a(Vinsert
p337
I42
VSimpleName: createForForcedRotation
p338
tp339
a(Vinsert
p340
I42
VSimpleName: getSampleSize
p341
tp342
a(Vinsert
p343
I42
VSimpleName: recycle
p344
tp345
a(Vinsert
p346
I42
VSimpleName: makeItInfinite
p347
tp348
a(Vinsert
p349
I42
VSimpleName: getSelectedItemPosition
p350
tp351
a(Vinsert
p352
I42
VSimpleName: showDuration
p353
tp354
a(Vinsert
p355
I42
VSimpleName: beginTransaction
p356
tp357
a(Vinsert
p358
I42
VSimpleName: getImagePipelineFactory
p359
tp360
a(Vinsert
p361
I42
VSimpleName: setIntValues
p362
tp363
a(Vinsert
p364
I42
VSimpleName: startsWithPattern
p365
tp366
a(Vinsert
p367
I42
VSimpleName: findItem
p368
tp369
a(Vinsert
p370
I42
VSimpleName: newPartialDiskCacheProducer
p371
tp372
a(Vinsert
p373
I42
VSimpleName: setRoundingMethod
p374
tp375
a(Vinsert
p376
I42
VSimpleName: toStringHelper
p377
tp378
a(Vinsert
p379
I42
VSimpleName: getSharedPreferences
p380
tp381
a(Vinsert
p382
I42
VSimpleName: isEqualTo
p383
tp384
a(Vinsert
p385
I42
VSimpleName: prefetchToDiskCache
p386
tp387
a(Vinsert
p388
I42
VSimpleName: setFocusPoint
p389
tp390
a(Vinsert
p391
I42
VSimpleName: getAnimatedImageFactory
p392
tp393
a(Vinsert
p394
I42
VSimpleName: uptimeMillis
p395
tp396
a(Vinsert
p397
I42
VSimpleName: parse
p398
tp399
a(Vinsert
p400
I42
VSimpleName: hashCode
p401
tp402
a(Vinsert
p403
I42
VSimpleName: setExecutorSupplier
p404
tp405
a(Vinsert
p406
I42
VSimpleName: shadowOf
p407
tp408
a(Vinsert
p409
I42
VSimpleName: getY
p410
tp411
a(Vinsert
p412
I42
VSimpleName: getBytesRange
p413
tp414
a(Vinsert
p415
I42
VSimpleName: getTitleId
p416
tp417
a(Vinsert
p418
I42
VSimpleName: setColor
p419
tp420
a(Vinsert
p421
I42
VSimpleName: getInUseCount
p422
tp423
a(Vinsert
p424
I42
VSimpleName: decodeGif
p425
tp426
a(Vinsert
p427
I42
VSimpleName: setOrientation
p428
tp429
a(Vinsert
p430
I42
VSimpleName: increase
p431
tp432
a(Vinsert
p433
I42
VSimpleName: getInstance
p434
tp435
a(Vinsert
p436
I42
VSimpleName: forDecode
p437
tp438
a(Vinsert
p439
I42
VSimpleName: getTargetRenderTimeForNextFrameMs
p440
tp441
a(Vinsert
p442
I42
VSimpleName: networkInterceptors
p443
tp444
a(Vinsert
p445
I42
VSimpleName: nanoTime
p446
tp447
a(Vinsert
p448
I42
VSimpleName: setPadding
p449
tp450
a(Vinsert
p451
I42
VSimpleName: draw
p452
tp453
a(Vinsert
p454
I42
VSimpleName: containsUri
p455
tp456
a(Vinsert
p457
I42
VSimpleName: fromUri
p458
tp459
a(Vinsert
p460
I42
VSimpleName: getBitmapPool
p461
tp462
a(Vinsert
p463
I42
VSimpleName: isIndexReady
p464
tp465
a(Vinsert
p466
I42
VSimpleName: getQueuedTime
p467
tp468
a(Vinsert
p469
I42
VSimpleName: setBytesRange
p470
tp471
a(Vinsert
p472
I42
VSimpleName: setExifOrientation
p473
tp474
a(Vinsert
p475
I42
VSimpleName: setType
p476
tp477
a(Vinsert
p478
I42
VSimpleName: getCacheKeys
p479
tp480
a(Vinsert
p481
I42
VSimpleName: copyMetaDataFrom
p482
tp483
a(Vinsert
p484
I42
VSimpleName: getAnimatedDrawableFactory
p485
tp486
a(Vinsert
p487
I42
VSimpleName: findViewById
p488
tp489
a(Vinsert
p490
I42
VSimpleName: onAttachToView
p491
tp492
a(Vinsert
p493
I42
VSimpleName: getResourceAsStream
p494
tp495
a(Vinsert
p496
I42
VSimpleName: getMatchingEntries
p497
tp498
a(Vinsert
p499
I42
VSimpleName: getPath
p500
tp501
a(Vinsert
p502
I42
VSimpleName: getBucketedSize
p503
tp504
a(Vinsert
p505
I42
VSimpleName: compare
p506
tp507
a(Vinsert
p508
I42
VSimpleName: setFailureImageScaleType
p509
tp510
a(Vinsert
p511
I42
VSimpleName: statusHasAnyFlag
p512
tp513
a(Vinsert
p514
I42
VSimpleName: getText
p515
tp516
a(Vinsert
p517
I42
VSimpleName: skip
p518
tp519
a(Vinsert
p520
I42
VSimpleName: getPixelSizeForBitmapConfig
p521
tp522
a(Vinsert
p523
I42
VSimpleName: setFrameListener
p524
tp525
a(Vinsert
p526
I42
VSimpleName: getEncodedImagePrefetchProducerSequence
p527
tp528
a(Vinsert
p529
I42
VSimpleName: show
p530
tp531
a(Vinsert
p532
I42
VSimpleName: getActiveScaleTypeDrawable
p533
tp534
a(Vinsert
p535
I42
VSimpleName: getChildCount
p536
tp537
a(Vinsert
p538
I42
VSimpleName: getNumberOfLayers
p539
tp540
a(Vinsert
p541
I42
VSimpleName: setRoundAsCircle
p542
tp543
a(Vinsert
p544
I42
VSimpleName: getClass
p545
tp546
a(Vinsert
p547
I42
VSimpleName: cache
p548
tp549
a(Vinsert
p550
I42
VSimpleName: setLayoutManager
p551
tp552
a(Vinsert
p553
I42
VSimpleName: getViewTreeObserver
p554
tp555
a(Vinsert
p556
I42
VSimpleName: getOverlays
p557
tp558
a(Vinsert
p559
I42
VSimpleName: newSingleThreadScheduledExecutor
p560
tp561
a(Vinsert
p562
I42
VSimpleName: callOnPriorityChanged
p563
tp564
a(Vinsert
p565
I42
VSimpleName: setRetainImageOnFailure
p566
tp567
a(Vinsert
p568
I42
VSimpleName: make
p569
tp570
a(Vinsert
p571
I42
VSimpleName: findIndexOfValue
p572
tp573
a(Vinsert
p574
I42
VSimpleName: isSameAs
p575
tp576
a(Vinsert
p577
I42
VSimpleName: saveCachedVariantSync
p578
tp579
a(Vinsert
p580
I42
VSimpleName: Fib
p581
tp582
a(Vinsert
p583
I42
VSimpleName: isImageBigEnough
p584
tp585
a(Vinsert
p586
I42
VSimpleName: getUnderlyingReferenceTestOnly
p587
tp588
a(Vinsert
p589
I42
VSimpleName: getBackstackTag
p590
tp591
a(Vinsert
p592
I42
VSimpleName: onCancellationRequested
p593
tp594
a(Vinsert
p595
I42
VSimpleName: generate
p596
tp597
a(Vinsert
p598
I42
VSimpleName: newDiskCacheWriteProducer
p599
tp600
a(Vinsert
p601
I42
VSimpleName: setSeekBarMaxValue
p602
tp603
a(Vinsert
p604
I42
VSimpleName: getDefaultColor
p605
tp606
a(Vinsert
p607
I42
VSimpleName: getRequestPriority
p608
tp609
a(Vinsert
p610
I42
VSimpleName: setCornersRadius
p611
tp612
a(Vinsert
p613
I42
VSimpleName: bind
p614
tp615
a(Vinsert
p616
I42
VSimpleName: setTitle
p617
tp618
a(Vinsert
p619
I42
VSimpleName: shouldForceRequestForSpecifiedUri
p620
tp621
a(Vinsert
p622
I42
VSimpleName: getDefaultImageRequestConfig
p623
tp624
a(Vinsert
p625
I42
VSimpleName: disconnect
p626
tp627
a(Vinsert
p628
I42
VSimpleName: createValueAnimator
p629
tp630
a(Vinsert
p631
I42
VSimpleName: currentTimeMillis
p632
tp633
a(Vinsert
p634
I42
VSimpleName: clear
p635
tp636
a(Vinsert
p637
I42
VSimpleName: getAnimatedValue
p638
tp639
a(Vinsert
p640
I42
VSimpleName: getFile
p641
tp642
a(Vinsert
p643
I42
VSimpleName: getFrameCount
p644
tp645
a(Vinsert
p646
I42
VSimpleName: cancelRequest
p647
tp648
a(Vinsert
p649
I42
VSimpleName: invalidate
p650
tp651
a(Vinsert
p652
I42
VSimpleName: toArray
p653
tp654
a(Vinsert
p655
I42
VSimpleName: getImageDecoder
p656
tp657
a(Vinsert
p658
I42
VSimpleName: onProducerStart
p659
tp660
a(Vinsert
p661
I42
VSimpleName: myLooper
p662
tp663
a(Vinsert
p664
I42
VSimpleName: getDiskStorageFactory
p665
tp666
a(Vinsert
p667
I42
VSimpleName: getReleaser
p668
tp669
a(Vinsert
p670
I42
VSimpleName: provide
p671
tp672
a(Vinsert
p673
I42
VSimpleName: experiment
p674
tp675
a(Vinsert
p676
I42
VSimpleName: getAuthority
p677
tp678
a(Vinsert
p679
I42
VSimpleName: setMediaIdExtractor
p680
tp681
a(Vinsert
p682
I42
VSimpleName: containsKey
p683
tp684
a(Vinsert
p685
I42
VSimpleName: incrementBy
p686
tp687
a(Vinsert
p688
I42
VSimpleName: getForceNewAnimationCode
p689
tp690
a(Vinsert
p691
I42
VSimpleName: getEncodedCacheKeys
p692
tp693
a(Vinsert
p694
I42
VSimpleName: getDecorView
p695
tp696
a(Vinsert
p697
I42
VSimpleName: setCacheKey
p698
tp699
a(Vinsert
p700
I42
VSimpleName: getCustomImageDecoder
p701
tp702
a(Vinsert
p703
I42
VSimpleName: setRotationOptions
p704
tp705
a(Vinsert
p706
I42
VSimpleName: createAndStartCacheReadTask
p707
tp708
a(Vinsert
p709
I42
VSimpleName: shouldRound
p710
tp711
a(Vinsert
p712
I42
VSimpleName: getContentResolver
p713
tp714
a(Vinsert
p715
I42
VSimpleName: getBorderColor
p716
tp717
a(Vinsert
p718
I42
VSimpleName: isGestureInProgress
p719
tp720
a(Vinsert
p721
I42
VSimpleName: onFetchCompletion
p722
tp723
a(Vinsert
p724
I42
VSimpleName: wtf
p725
tp726
a(Vinsert
p727
I42
VSimpleName: getSimpleName
p728
tp729
a(Vinsert
p730
I42
VSimpleName: getProperty
p731
tp732
a(Vinsert
p733
I42
VSimpleName: onProgressUpdate
p734
tp735
a(Vinsert
p736
I42
VSimpleName: append
p737
tp738
a(Vinsert
p739
I42
VSimpleName: hookDecodeFileDescriptor
p740
tp741
a(Vinsert
p742
I42
VSimpleName: getAll
p743
tp744
a(Vinsert
p745
I42
VSimpleName: newBuilder
p746
tp747
a(Vinsert
p748
I42
VSimpleName: getSize
p749
tp750
a(Vinsert
p751
I42
VSimpleName: setEncodedCacheKey
p752
tp753
a(Vinsert
p754
I42
VSimpleName: waitUntilReadingThreadBlocked
p755
tp756
a(Vinsert
p757
I42
VSimpleName: add
p758
tp759
a(Vinsert
p760
I42
VSimpleName: bufSize
p761
tp762
a(Vinsert
p763
I42
VSimpleName: produceResults
p764
tp765
a(Vinsert
p766
I42
VSimpleName: setDrawListener
p767
tp768
a(Vinsert
p769
I42
VSimpleName: getDecodedFrame
p770
tp771
a(Vinsert
p772
I42
VSimpleName: getInputStream
p773
tp774
a(Vinsert
p775
I42
VSimpleName: execute
p776
tp777
a(Vinsert
p778
I42
VSimpleName: cloneUnderlyingBitmapReference
p779
tp780
a(Vinsert
p781
I42
VSimpleName: getFrameInfo
p782
tp783
a(Vinsert
p784
I42
VSimpleName: getMinDecodeIntervalMs
p785
tp786
a(Vinsert
p787
I42
VSimpleName: getAndIncrement
p788
tp789
a(Vinsert
p790
I42
VSimpleName: getEncodedImageProducerSequence
p791
tp792
a(Vinsert
p793
I42
VSimpleName: getApplicationContext
p794
tp795
a(Vinsert
p796
I42
VSimpleName: inflate
p797
tp798
a(Vinsert
p799
I42
VSimpleName: setActualImageScaleType
p800
tp801
a(Vinsert
p802
I42
VSimpleName: getResult
p803
tp804
a(Vinsert
p805
I42
VSimpleName: assertFalse
p806
tp807
a(Vinsert
p808
I42
VSimpleName: length
p809
tp810
a(Vinsert
p811
I42
VSimpleName: isValid
p812
tp813
a(Vinsert
p814
I42
VSimpleName: getBytes
p815
tp816
a(Vinsert
p817
I42
VSimpleName: iterator
p818
tp819
a(Vinsert
p820
I42
VSimpleName: scheme
p821
tp822
a(Vinsert
p823
I42
VSimpleName: getFontMetricsInt
p824
tp825
a(Vinsert
p826
I42
VSimpleName: setHotspot
p827
tp828
a(Vinsert
p829
I42
VSimpleName: getPlaceholderImage
p830
tp831
a(Vinsert
p832
I42
VSimpleName: arraycopy
p833
tp834
a(Vinsert
p835
I42
VSimpleName: getSizeInBytes
p836
tp837
a(Vinsert
p838
I42
VSimpleName: isAttached
p839
tp840
a(Vinsert
p841
I42
VSimpleName: setPlaceholderImage
p842
tp843
a(Vinsert
p844
I42
VSimpleName: setImage
p845
tp846
a(Vinsert
p847
I42
VSimpleName: forLocalStorageRead
p848
tp849
a(Vinsert
p850
I42
VSimpleName: onDraweeViewportEntry
p851
tp852
a(Vinsert
p853
I42
VSimpleName: setLayoutParams
p854
tp855
a(Vinsert
p856
I42
VSimpleName: getTransform
p857
tp858
a(Vinsert
p859
I42
VSimpleName: newInstance
p860
tp861
a(Vinsert
p862
I42
VSimpleName: thenReturn
p863
tp864
a(Vinsert
p865
I42
VSimpleName: forDimensions
p866
tp867
a(Vinsert
p868
I42
VSimpleName: exists
p869
tp870
a(Vinsert
p871
I42
VSimpleName: newBuilderForMediaId
p872
tp873
a(Vinsert
p874
I42
VSimpleName: getPendingCount
p875
tp876
a(Vinsert
p877
I42
VSimpleName: getResizeOptions
p878
tp879
a(Vinsert
p880
I42
VSimpleName: setAnimationBackend
p881
tp882
a(Vinsert
p883
I42
VSimpleName: setDisplayHomeAsUpEnabled
p884
tp885
a(Vinsert
p886
I42
VSimpleName: verifyStatic
p887
tp888
a(Vinsert
p889
I42
VSimpleName: toString
p890
tp891
a(Vinsert
p892
I42
VSimpleName: parseMetaData
p893
tp894
a(Vinsert
p895
I42
VSimpleName: isQualifiedResourceUri
p896
tp897
a(Vinsert
p898
I42
VSimpleName: addToBackStack
p899
tp900
a(Vinsert
p901
I42
VSimpleName: decodeDimensions
p902
tp903
a(Vinsert
p904
I42
VSimpleName: getHigherPriority
p905
tp906
a(Vinsert
p907
I42
VSimpleName: getController
p908
tp909
a(Vinsert
p910
I42
VSimpleName: getResourceId
p911
tp912
a(Vinsert
p913
I42
VSimpleName: v
p914
tp915
a(Vinsert
p916
I42
VSimpleName: cloneDrawable
p917
tp918
a(Vinsert
p919
I42
VSimpleName: addDiskCacheEntry
p920
tp921
a(Vinsert
p922
I42
VSimpleName: getMediaVariations
p923
tp924
a(Vinsert
p925
I42
VSimpleName: isVideo
p926
tp927
a(Vinsert
p928
I42
VSimpleName: close
p929
tp930
a(Vinsert
p931
I42
VSimpleName: determineSampleSize
p932
tp933
a(Vinsert
p934
I42
VSimpleName: requiresExtraMap
p935
tp936
a(Vinsert
p937
I42
VSimpleName: supportsImageType
p938
tp939
a(Vinsert
p940
I42
VSimpleName: format
p941
tp942
a(Vinsert
p943
I42
VSimpleName: getProgress
p944
tp945
a(Vinsert
p946
I42
VSimpleName: getDelayUntilNextFrameMs
p947
tp948
a(Vinsert
p949
I42
VSimpleName: maybeWrapWithScaleType
p950
tp951
a(Vinsert
p952
I42
VSimpleName: getImageRequest
p953
tp954
a(Vinsert
p955
I42
VSimpleName: decode
p956
tp957
a(Vinsert
p958
I42
VSimpleName: getContext
p959
tp960
a(Vinsert
p961
I42
VSimpleName: statusHasFlag
p962
tp963
a(Vinsert
p964
I42
VSimpleName: emptyList
p965
tp966
a(Vinsert
p967
I42
VSimpleName: openInputStream
p968
tp969
a(Vinsert
p970
I42
VSimpleName: min
p971
tp972
a(Vinsert
p973
I42
VSimpleName: getFloat
p974
tp975
a(Vinsert
p976
I42
VSimpleName: setBitmapCreator
p977
tp978
a(Vinsert
p979
I42
VSimpleName: setWidth
p980
tp981
a(Vinsert
p982
I42
VSimpleName: setHierarchy
p983
tp984
a(Vinsert
p985
I42
VSimpleName: delete
p986
tp987
a(Vinsert
p988
I42
VSimpleName: getBitmapMemoryCacheTrimStrategy
p989
tp990
a(Vinsert
p991
I42
VSimpleName: recordEvent
p992
tp993
a(Vinsert
p994
I42
VSimpleName: split
p995
tp996
a(Vinsert
p997
I42
VSimpleName: postTranslate
p998
tp999
a(Vinsert
p1000
I42
VSimpleName: exp
p1001
tp1002
a(Vinsert
p1003
I42
VSimpleName: whenNew
p1004
tp1005
a(Vinsert
p1006
I42
VSimpleName: onEviction
p1007
tp1008
a(Vinsert
p1009
I42
VSimpleName: post
p1010
tp1011
a(Vinsert
p1012
I42
VSimpleName: getDurationMsForFrame
p1013
tp1014
a(Vinsert
p1015
I42
VSimpleName: id
p1016
tp1017
a(Vinsert
p1018
I42
VSimpleName: read
p1019
tp1020
a(Vinsert
p1021
I42
VSimpleName: start
p1022
tp1023
a(Vinsert
p1024
I42
VSimpleName: getResources
p1025
tp1026
a(Vinsert
p1027
I42
VSimpleName: getLoopCount
p1028
tp1029
a(Vinsert
p1030
I42
VSimpleName: cancel
p1031
tp1032
a(Vinsert
p1033
I42
VSimpleName: getAnimationBackend
p1034
tp1035
a(Vinsert
p1036
I42
VSimpleName: closeQuietly
p1037
tp1038
a(Vinsert
p1039
I42
VSimpleName: getBestScanNumber
p1040
tp1041
a(Vinsert
p1042
I42
VSimpleName: getDrawable
p1043
tp1044
a(Vinsert
p1045
I42
VSimpleName: getListener
p1046
tp1047
a(Vinsert
p1048
I42
VSimpleName: getSourceFile
p1049
tp1050
a(Vinsert
p1051
I42
VSimpleName: getPooledByteBufferFactory
p1052
tp1053
a(Vinsert
p1054
I42
VSimpleName: getWidth
p1055
tp1056
a(Vinsert
p1057
I42
VSimpleName: getExifOrientation
p1058
tp1059
a(Vinsert
p1060
I42
VSimpleName: getStorageName
p1061
tp1062
a(Vinsert
p1063
I42
VSimpleName: getCustomDrawableFactories
p1064
tp1065
a(Vinsert
p1066
I42
VSimpleName: getWritableDatabase
p1067
tp1068
a(Vinsert
p1069
I42
VSimpleName: isFinished
p1070
tp1071
a(Vinsert
p1072
I42
VSimpleName: setWebpErrorLogger
p1073
tp1074
a(Vinsert
p1075
I42
VSimpleName: setCurrent
p1076
tp1077
a(Vinsert
p1078
I42
VSimpleName: getHierarchy
p1079
tp1080
a(Vinsert
p1081
I42
VSimpleName: isKeyframesEnabled
p1082
tp1083
a(Vinsert
p1084
I42
VSimpleName: drawRect
p1085
tp1086
a(Vinsert
p1087
I42
VSimpleName: setDebugOverlayEnabledSupplier
p1088
tp1089
a(Vinsert
p1090
I42
VSimpleName: isWebpSupportEnabled
p1091
tp1092
a(Vinsert
p1093
I42
VSimpleName: setSmartResizingEnabled
p1094
tp1095
a(Vinsert
p1096
I42
VSimpleName: parseMoreData
p1097
tp1098
a(Vinsert
p1099
I42
VSimpleName: fromFile
p1100
tp1101
a(Vinsert
p1102
I42
VSimpleName: checkState
p1103
tp1104
a(Vinsert
p1105
I42
VSimpleName: createDrawableFactory
p1106
tp1107
a(Vinsert
p1108
I42
VSimpleName: onVisibilityChange
p1109
tp1110
a(Vinsert
p1111
I42
VSimpleName: isPrefetch
p1112
tp1113
a(Vinsert
p1114
I42
VSimpleName: getStringArray
p1115
tp1116
a(Vinsert
p1117
I42
VSimpleName: incrementAndGet
p1118
tp1119
a(Vinsert
p1120
I42
VSimpleName: createNotificationChannel
p1121
tp1122
a(Vinsert
p1123
I42
VSimpleName: getRotationOptions
p1124
tp1125
a(Vinsert
p1126
I42
VSimpleName: getStartX
p1127
tp1128
a(Vinsert
p1129
I42
VSimpleName: simpleStatusForIsLast
p1130
tp1131
a(Vinsert
p1132
I42
VSimpleName: w
p1133
tp1134
a(Vinsert
p1135
I42
VSimpleName: create
p1136
tp1137
a(Vinsert
p1138
I42
VSimpleName: getLayoutParams
p1139
tp1140
a(Vinsert
p1141
I42
VSimpleName: setAutoRotateEnabled
p1142
tp1143
a(Vinsert
p1144
I42
VSimpleName: decrementInUseCount
p1145
tp1146
a(Vinsert
p1147
I42
VSimpleName: setAlpha
p1148
tp1149
a(Vinsert
p1150
I42
VSimpleName: setSampleSize
p1151
tp1152
a(Vinsert
p1153
I42
VSimpleName: clearAll
p1154
tp1155
a(Vinsert
p1156
I42
VSimpleName: asList
p1157
tp1158
a(Vinsert
p1159
I42
VSimpleName: getSourceUri
p1160
tp1161
a(Vinsert
p1162
I42
VSimpleName: onCancellation
p1163
tp1164
a(Vinsert
p1165
I42
VSimpleName: isMetaDataAvailable
p1166
tp1167
a(Vinsert
p1168
I42
VSimpleName: shouldDrawDebugOverlay
p1169
tp1170
a(Vinsert
p1171
I42
VSimpleName: setNavigationItemSelectedListener
p1172
tp1173
a(Vinsert
p1174
I42
VSimpleName: getIntrinsicHeight
p1175
tp1176
a(Vinsert
p1177
I42
VSimpleName: getTopLevelDrawable
p1178
tp1179
a(Vinsert
p1180
I42
VSimpleName: describedAs
p1181
tp1182
a(Vinsert
p1183
I42
VSimpleName: getCachedFrame
p1184
tp1185
a(Vinsert
p1186
I42
VSimpleName: getDimensions
p1187
tp1188
a(Vinsert
p1189
I42
VSimpleName: getMinimumSizeLimit
p1190
tp1191
a(Vinsert
p1192
I42
VSimpleName: getDeclaredMethod
p1193
tp1194
a(Vinsert
p1195
I42
VSimpleName: getItemSize
p1196
tp1197
a(Vinsert
p1198
I42
VSimpleName: isChecked
p1199
tp1200
a(Vinsert
p1201
I42
VSimpleName: setMinimumLoggingLevel
p1202
tp1203
a(Vinsert
p1204
I42
VSimpleName: getValue
p1205
tp1206
a(Vinsert
p1207
I42
VSimpleName: getFrameDurationMs
p1208
tp1209
a(Vinsert
p1210
I42
VSimpleName: onInactive
p1211
tp1212
a(Vinsert
p1213
I42
VSimpleName: query
p1214
tp1215
a(Vinsert
p1216
I42
VSimpleName: verify
p1217
tp1218
a(Vinsert
p1219
I42
VSimpleName: requestLayout
p1220
tp1221
a(Vinsert
p1222
I42
VSimpleName: getExecutorSupplier
p1223
tp1224
a(Vinsert
p1225
I42
VSimpleName: newFixedThreadPool
p1226
tp1227
a(Vinsert
p1228
I42
VSimpleName: getImageFormat_WrapIOException
p1229
tp1230
a(Vinsert
p1231
I42
VSimpleName: of
p1232
tp1233
a(Vinsert
p1234
I42
VSimpleName: getMediumPostprocessor
p1235
tp1236
a(Vinsert
p1237
I42
VSimpleName: assertOverlayColorNotOk
p1238
tp1239
a(Vinsert
p1240
I42
VSimpleName: setImageUrl
p1241
tp1242
a(Vinsert
p1243
I42
VSimpleName: mapRect
p1244
tp1245
a(Vinsert
p1246
I42
VSimpleName: newQualifiedResourceFetchProducer
p1247
tp1248
a(Vinsert
p1249
I42
VSimpleName: when
p1250
tp1251
a(Vinsert
p1252
I42
VSimpleName: getScaleType
p1253
tp1254
a(Vinsert
p1255
I42
VSimpleName: getDefaultSharedPreferences
p1256
tp1257
a(Vinsert
p1258
I42
VSimpleName: getUnderlyingBitmap
p1259
tp1260
a(Vinsert
p1261
I42
VSimpleName: computeHorizontalScrollExtent
p1262
tp1263
a(Vinsert
p1264
I42
VSimpleName: isExternal
p1265
tp1266
a(Vinsert
p1267
I42
VSimpleName: getRuntime
p1268
tp1269
a(Vinsert
p1270
I42
VSimpleName: d
p1271
tp1272
a(Vinsert
p1273
I42
VSimpleName: getImageFormat
p1274
tp1275
a(Vinsert
p1276
I42
VSimpleName: getPixelSize
p1277
tp1278
a(Vinsert
p1279
I42
VSimpleName: getPipelineDraweeControllerFactory
p1280
tp1281
a(Vinsert
p1282
I42
VSimpleName: getAutoRotateAngleFromOrientation
p1283
tp1284
a(Vinsert
p1285
I42
VSimpleName: onNewResultImpl
p1286
tp1287
a(Vinsert
p1288
I42
VSimpleName: checkNotNull
p1289
tp1290
a(Vinsert
p1291
I42
VSimpleName: onUltimateProducerReached
p1292
tp1293
a(Vinsert
p1294
I42
VSimpleName: applyDimension
p1295
tp1296
a(Vinsert
p1297
I42
VSimpleName: width
p1298
tp1299
a(Vinsert
p1300
I42
VSimpleName: getBitmapToReuseForFrame
p1301
tp1302
a(Vinsert
p1303
I42
VSimpleName: createWebpTranslucentUri
p1304
tp1305
a(Vinsert
p1306
I42
VSimpleName: getState
p1307
tp1308
a(Vinsert
p1309
I42
VSimpleName: newPostprocessorBitmapMemoryCacheProducer
p1310
tp1311
a(Vinsert
p1312
I42
VSimpleName: initInstrumentation
p1313
tp1314
a(Vinsert
p1315
I42
VSimpleName: setRequestListeners
p1316
tp1317
a(Vinsert
p1318
I42
VSimpleName: reconfigure
p1319
tp1320
a(Vinsert
p1321
I42
VSimpleName: createBitmap
p1322
tp1323
a(Vinsert
p1324
I42
VSimpleName: wrapAnimatedDrawableFactory
p1325
tp1326
a(Vinsert
p1327
I42
VSimpleName: hasKey
p1328
tp1329
a(Vinsert
p1330
I42
VSimpleName: getFromInputStream
p1331
tp1332
a(Vinsert
p1333
I42
VSimpleName: setSharedElementEnterTransition
p1334
tp1335
a(Vinsert
p1336
I42
VSimpleName: load
p1337
tp1338
a(Vinsert
p1339
I42
VSimpleName: setOnItemSelectedListener
p1340
tp1341
a(Vinsert
p1342
I42
VSimpleName: getConstantState
p1343
tp1344
a(Vinsert
p1345
I42
VSimpleName: setRotate
p1346
tp1347
a(Vinsert
p1348
I42
VSimpleName: addAll
p1349
tp1350
a(Vinsert
p1351
I42
VSimpleName: initSizeData
p1352
tp1353
a(Vinsert
p1354
I42
VSimpleName: canProvideImageForSize
p1355
tp1356
a(Vinsert
p1357
I42
VSimpleName: setImageFormat
p1358
tp1359
a(Vinsert
p1360
I42
VSimpleName: now
p1361
tp1362
a(Vinsert
p1363
I42
VSimpleName: isDecodeMemoryFileEnabled
p1364
tp1365
a(Vinsert
p1366
I42
VSimpleName: onRequestStart
p1367
tp1368
a(Vinsert
p1369
I42
VSimpleName: getDurationMs
p1370
tp1371
a(Vinsert
p1372
I42
VSimpleName: abs
p1373
tp1374
a(Vinsert
p1375
I42
VSimpleName: getImageResult
p1376
tp1377
a(Vinsert
p1378
I42
VSimpleName: newMediaVariationsProducer
p1379
tp1380
a(Vinsert
p1381
I42
VSimpleName: getBoolean
p1382
tp1383
a(Vinsert
p1384
I42
VSimpleName: build
p1385
tp1386
a(Vinsert
p1387
I42
VSimpleName: isRunning
p1388
tp1389
a(Vinsert
p1390
I42
VSimpleName: getRequestListener
p1391
tp1392
a(Vinsert
p1393
I42
VSimpleName: substring
p1394
tp1395
a(Vinsert
p1396
I42
VSimpleName: getCacheChoiceForResult
p1397
tp1398
a(Vinsert
p1399
I42
VSimpleName: writeToCache
p1400
tp1401
a(Vinsert
p1402
I42
VSimpleName: forName
p1403
tp1404
a(Vinsert
p1405
I42
VSimpleName: drawBitmap
p1406
tp1407
a(Vinsert
p1408
I42
VSimpleName: getWebpErrorLogger
p1409
tp1410
a(Vinsert
p1411
I42
VSimpleName: getPreDecodedFrame
p1412
tp1413
a(Vinsert
p1414
I42
VSimpleName: setResponseBytesRange
p1415
tp1416
a(Vinsert
p1417
I42
VSimpleName: forMediaId
p1418
tp1419
a(Vinsert
p1420
I42
VSimpleName: onFling
p1421
tp1422
a(Vinsert
p1423
I42
VSimpleName: setController
p1424
tp1425
a(Vinsert
p1426
I42
VSimpleName: isLazy
p1427
tp1428
a(Vinsert
p1429
I42
VSimpleName: decodeStream
p1430
tp1431
a(Vinsert
p1432
I42
VSimpleName: getEncodedCacheKey
p1433
tp1434
a(Vinsert
p1435
I42
VSimpleName: setHandler
p1436
tp1437
a(Vinsert
p1438
I42
VSimpleName: from
p1439
tp1440
a(Vinsert
p1441
I42
VSimpleName: getExperiments
p1442
tp1443
a(Vinsert
p1444
I42
VSimpleName: setRadii
p1445
tp1446
a(Vinsert
p1447
I42
VSimpleName: getImagePipeline
p1448
tp1449
a(Vinsert
p1450
I42
VSimpleName: setDrawDebugOverlay
p1451
tp1452
a(Vinsert
p1453
I42
VSimpleName: cleanUp
p1454
tp1455
a(Vinsert
p1456
I42
VSimpleName: getPixels
p1457
tp1458
a(Vinsert
p1459
I42
VSimpleName: get
p1460
tp1461
a(Vinsert
p1462
I42
VSimpleName: getEagerAdapter
p1463
tp1464
a(Vinsert
p1465
I42
VSimpleName: success
p1466
tp1467
a(Vinsert
p1468
I42
VSimpleName: setLegacyVisibilityHandlingEnabled
p1469
tp1470
a(Vinsert
p1471
I42
VSimpleName: values
p1472
tp1473
a(Vinsert
p1474
I42
VSimpleName: setAdapter
p1475
tp1476
a(Vinsert
p1477
I42
VSimpleName: getItemId
p1478
tp1479
a(Vinsert
p1480
I42
VSimpleName: createForBackend
p1481
tp1482
a(Vinsert
p1483
I42
VSimpleName: wasTransformCorrected
p1484
tp1485
a(Vinsert
p1486
I42
VSimpleName: isDecodeFileDescriptorEnabled
p1487
tp1488
a(Vinsert
p1489
I42
VSimpleName: setVisible
p1490
tp1491
a(Vinsert
p1492
I42
VSimpleName: onNewResult
p1493
tp1494
a(Vinsert
p1495
I42
VSimpleName: getValues
p1496
tp1497
a(Vinsert
p1498
I42
VSimpleName: getId
p1499
tp1500
a(Vinsert
p1501
I42
VSimpleName: setLevel
p1502
tp1503
a(Vinsert
p1504
I42
VSimpleName: hookDecodeStream
p1505
tp1506
a(Vinsert
p1507
I42
VSimpleName: useMultipleReadKeys
p1508
tp1509
a(Vinsert
p1510
I42
VSimpleName: getVersion
p1511
tp1512
a(Vinsert
p1513
I42
VSimpleName: setAllowTouchInterceptionWhileZoomed
p1514
tp1515
a(Vinsert
p1516
I42
VSimpleName: onDataSourceProgress
p1517
tp1518
a(Vinsert
p1519
I42
VSimpleName: e
p1520
tp1521
a(Vinsert
p1522
I42
VSimpleName: setBgColor
p1523
tp1524
a(Vinsert
p1525
I42
VSimpleName: getString
p1526
tp1527
a(Vinsert
p1528
I42
VSimpleName: circularBufferMatchesBytePattern
p1529
tp1530
a(Vinsert
p1531
I42
VSimpleName: isDownsampleEnabled
p1532
tp1533
a(Vinsert
p1534
I42
VSimpleName: getConstructor
p1535
tp1536
a(Vinsert
p1537
I42
VSimpleName: bitmapSize
p1538
tp1539
a(Vinsert
p1540
I42
VSimpleName: setUnclosedRelevantTrance
p1541
tp1542
a(Vinsert
p1543
I42
VSimpleName: getBitmap
p1544
tp1545
a(Vinsert
p1546
I42
VSimpleName: setSelection
p1547
tp1548
a(Vinsert
p1549
I42
VSimpleName: setOnClickListener
p1550
tp1551
a(Vinsert
p1552
I42
VSimpleName: displayImage
p1553
tp1554
a(Vinsert
p1555
I42
VSimpleName: enableWebKitInspector
p1556
tp1557
a(Vinsert
p1558
I42
VSimpleName: name
p1559
tp1560
a(Vinsert
p1561
I42
VSimpleName: decodeByteArray
p1562
tp1563
a(Vinsert
p1564
I42
VSimpleName: useImageMetadata
p1565
tp1566
a(Vinsert
p1567
I42
VSimpleName: startAnimation
p1568
tp1569
a(Vinsert
p1570
I42
VSimpleName: createSampleUri
p1571
tp1572
a(Vinsert
p1573
I42
VSimpleName: decodeResourceStream
p1574
tp1575
a(Vinsert
p1576
I42
VSimpleName: setInTestMode
p1577
tp1578
a(Vinsert
p1579
I42
VSimpleName: getTimestamp
p1580
tp1581
a(Vinsert
p1582
I42
VSimpleName: valueOf
p1583
tp1584
a(Vinsert
p1585
I42
VSimpleName: forBackground
p1586
tp1587
a(Vinsert
p1588
I42
VSimpleName: getCacheChoice
p1589
tp1590
a(Vinsert
p1591
I42
VSimpleName: countDown
p1592
tp1593
a(Vinsert
p1594
I42
VSimpleName: initMocks
p1595
tp1596
a(Vinsert
p1597
I42
VSimpleName: getPriority
p1598
tp1599
a(Vinsert
p1600
I42
VSimpleName: getPointerCount
p1601
tp1602
a(Vinsert
p1603
I42
VSimpleName: onRequestSuccess
p1604
tp1605
a(Vinsert
p1606
I42
VSimpleName: getAutoRotateEnabled
p1607
tp1608
a(Vinsert
p1609
I42
VSimpleName: getName
p1610
tp1611
a(Vinsert
p1612
I42
VSimpleName: onReadException
p1613
tp1614
a(Vinsert
p1615
I42
VSimpleName: isDestroyed
p1616
tp1617
a(Vinsert
p1618
I42
VSimpleName: removeAllViews
p1619
tp1620
a(Vinsert
p1621
I42
VSimpleName: getActionMasked
p1622
tp1623
a(Vinsert
p1624
I42
VSimpleName: getCacheSize
p1625
tp1626
a(Vinsert
p1627
I42
VSimpleName: setStyle
p1628
tp1629
a(Vinsert
p1630
I42
VSimpleName: setDrawable
p1631
tp1632
a(Vinsert
p1633
I42
VSimpleName: acquire
p1634
tp1635
a(Vinsert
p1636
I42
VSimpleName: setColorFilter
p1637
tp1638
a(Vinsert
p1639
I42
VSimpleName: isLast
p1640
tp1641
a(Vinsert
p1642
I42
VSimpleName: decorate
p1643
tp1644
a(Vinsert
p1645
I42
VSimpleName: setControllerId
p1646
tp1647
a(Vinsert
p1648
I42
VSimpleName: setProgress
p1649
tp1650
a(Vinsert
p1651
I42
VSimpleName: forResult
p1652
tp1653
a(Vinsert
p1654
I42
VSimpleName: isNetworkUri
p1655
tp1656
a(Vinsert
p1657
I42
VSimpleName: prepareFrames
p1658
tp1659
a(Vinsert
p1660
I42
VSimpleName: drawCircle
p1661
tp1662
a(Vinsert
p1663
I42
VSimpleName: newAddImageTransformMetaDataProducer
p1664
tp1665
a(Vinsert
p1666
I42
VSimpleName: logError
p1667
tp1668
a(Vinsert
p1669
I42
VSimpleName: onAttach
p1670
tp1671
a(Vinsert
p1672
I42
VSimpleName: setCreationListener
p1673
tp1674
a(Vinsert
p1675
I42
VSimpleName: setCustomDrawableFactories
p1676
tp1677
a(Vinsert
p1678
I42
VSimpleName: startQueueing
p1679
tp1680
a(Vinsert
p1681
I42
VSimpleName: toByteArray
p1682
tp1683
a(Vinsert
p1684
I42
VSimpleName: getDocumentId
p1685
tp1686
a(Vinsert
p1687
I42
VSimpleName: with
p1688
tp1689
a(Vinsert
p1690
I42
VSimpleName: setThreadPriority
p1691
tp1692
a(Vinsert
p1693
I42
VSimpleName: getRowBytes
p1694
tp1695
a(Vinsert
p1696
I42
VSimpleName: equals
p1697
tp1698
a(Vinsert
p1699
I42
VSimpleName: onCleared
p1700
tp1701
a(Vinsert
p1702
I42
VSimpleName: cloneOrNull
p1703
tp1704
a(Vinsert
p1705
I42
VSimpleName: obtain
p1706
tp1707
a(Vinsert
p1708
I42
VSimpleName: put
p1709
tp1710
a(Vinsert
p1711
I42
VSimpleName: getEntryEvictionComparatorSupplier
p1712
tp1713
a(Vinsert
p1714
I42
VSimpleName: setBitmapPrepareToDraw
p1715
tp1716
a(Vinsert
p1717
I42
VSimpleName: getFlexByteArrayPool
p1718
tp1719
a(Vinsert
p1720
I42
VSimpleName: getSizeInByteForBitmap
p1721
tp1722
a(Vinsert
p1723
I42
VSimpleName: getHeight
p1724
tp1725
a(Vinsert
p1726
I42
VSimpleName: obtainStyledAttributes
p1727
tp1728
a(Vinsert
p1729
I42
VSimpleName: setOnEditorActionListener
p1730
tp1731
a(Vinsert
p1732
I42
VSimpleName: getArguments
p1733
tp1734
a(Vinsert
p1735
I42
VSimpleName: setAntiAlias
p1736
tp1737
a(Vinsert
p1738
I42
VSimpleName: determineFormat
p1739
tp1740
a(Vinsert
p1741
I42
VSimpleName: setDuration
p1742
tp1743
a(Vinsert
p1744
I42
VSimpleName: turnOnStatusFlag
p1745
tp1746
a(Vinsert
p1747
I42
VSimpleName: getHeaderField
p1748
tp1749
a(Vinsert
p1750
I42
VSimpleName: isFaulted
p1751
tp1752
a(Vinsert
p1753
I42
VSimpleName: isCancelled
p1754
tp1755
a(Vinsert
p1756
I42
VSimpleName: setRotationAngle
p1757
tp1758
a(Vinsert
p1759
I42
VSimpleName: max
p1760
tp1761
a(Vinsert
p1762
I42
VSimpleName: setDownsampleEnabled
p1763
tp1764
a(Vinsert
p1765
I42
VSimpleName: init
p1766
tp1767
a(Vinsert
p1768
I42
VSimpleName: getForceStaticImage
p1769
tp1770
a(Vinsert
p1771
I42
VSimpleName: getDebugOverlayEnabledSupplier
p1772
tp1773
a(Vinsert
p1774
I42
VSimpleName: drawFrame
p1775
tp1776
a(Vinsert
p1777
I42
VSimpleName: getRotationAngle
p1778
tp1779
a(Vinsert
p1780
I42
VSimpleName: getPostprocessor
p1781
tp1782
a(Vinsert
p1783
I42
VSimpleName: size
p1784
tp1785
a(Vinsert
p1786
I42
VSimpleName: getItem
p1787
tp1788
a(Vinsert
p1789
I42
VSimpleName: isIntermediateResultExpected
p1790
tp1791
a(Vinsert
p1792
I42
VSimpleName: forNewBounds
p1793
tp1794
a(Vinsert
p1795
I42
VSimpleName: getResource
p1796
tp1797
a(Vinsert
p1798
I42
VSimpleName: setHasAlpha
p1799
tp1800
a(Vinsert
p1801
I42
VSimpleName: extractMime
p1802
tp1803
a(Vinsert
p1804
I42
VSimpleName: zoomToPoint
p1805
tp1806
a(Vinsert
p1807
I42
VSimpleName: getDimensionPixelSize
p1808
tp1809
a(Vinsert
p1810
I42
VSimpleName: onFrameRendered
p1811
tp1812
a(Vinsert
p1813
I42
VSimpleName: isLocalFileUri
p1814
tp1815
a(Vinsert
p1816
I42
VSimpleName: newSingleThreadExecutor
p1817
tp1818
a(Vinsert
p1819
I42
VSimpleName: getDuration
p1820
tp1821
a(Vinsert
p1822
I42
VSimpleName: onWebpErrorLog
p1823
tp1824
a(Vinsert
p1825
I42
VSimpleName: getPaint
p1826
tp1827
a(Vinsert
p1828
I42
VSimpleName: elapsedRealtime
p1829
tp1830
a.