(lp0
(Vinsert
p1
I42
VSimpleName: getTracks
p2
tp3
a(Vinsert
p4
I42
VSimpleName: assertNextSample
p5
tp6
a(Vinsert
p7
I42
VSimpleName: removeLast
p8
tp9
a(Vinsert
p10
I42
VSimpleName: isAvailable
p11
tp12
a(Vinsert
p13
I42
VSimpleName: getData
p14
tp15
a(Vinsert
p16
I42
VSimpleName: getAllHeaders
p17
tp18
a(Vinsert
p19
I42
VSimpleName: seekToUs
p20
tp21
a(Vinsert
p22
I42
VSimpleName: parseXsDateTime
p23
tp24
a(Vinsert
p25
I42
VSimpleName: upgradeIfNeeded
p26
tp27
a(Vinsert
p28
I42
VSimpleName: copyWithMaxInputSize
p29
tp30
a(Vinsert
p31
I42
VSimpleName: readNullTerminatedString
p32
tp33
a(Vinsert
p34
I42
VSimpleName: allocate
p35
tp36
a(Vinsert
p37
I42
VSimpleName: peekFully
p38
tp39
a(Vinsert
p40
I42
VSimpleName: getEventTime
p41
tp42
a(Vinsert
p43
I42
VSimpleName: hasGaplessInfo
p44
tp45
a(Vinsert
p46
I42
VSimpleName: endSection
p47
tp48
a(Vinsert
p49
I42
VSimpleName: getContentLength
p50
tp51
a(Vinsert
p52
I42
VSimpleName: requestFocus
p53
tp54
a(Vinsert
p55
I42
VSimpleName: validateWebvttHeaderLine
p56
tp57
a(Vinsert
p58
I42
VSimpleName: setOnClickListener
p59
tp60
a(Vinsert
p61
I42
VSimpleName: getSnapshot
p62
tp63
a(Vinsert
p64
I42
VSimpleName: discardBuffer
p65
tp66
a(Vinsert
p67
I42
VSimpleName: allowDefaults
p68
tp69
a(Vinsert
p70
I42
VSimpleName: assertPeriodCounts
p71
tp72
a(Vinsert
p73
I42
VSimpleName: getPassthroughDecoderInfo
p74
tp75
a(Vinsert
p76
I42
VSimpleName: getPlaneHeight
p77
tp78
a(Vinsert
p79
I42
VSimpleName: checkArgument
p80
tp81
a(Vinsert
p82
I42
VSimpleName: consume
p83
tp84
a(Vinsert
p85
I42
VSimpleName: contains
p86
tp87
a(Vinsert
p88
I42
VSimpleName: reset
p89
tp90
a(Vinsert
p91
I42
VSimpleName: getAdjuster
p92
tp93
a(Vinsert
p94
I42
VSimpleName: setPlayer
p95
tp96
a(Vinsert
p97
I42
VSimpleName: unmodifiableList
p98
tp99
a(Vinsert
p100
I42
VSimpleName: getLargestQueuedTimestampUs
p101
tp102
a(Vinsert
p103
I42
VSimpleName: queueInput
p104
tp105
a(Vinsert
p106
I42
VSimpleName: isFlagSet
p107
tp108
a(Vinsert
p109
I42
VSimpleName: onClosedCaption
p110
tp111
a(Vinsert
p112
I42
VSimpleName: removeFirst
p113
tp114
a(Vinsert
p115
I42
VSimpleName: getBytesFromHexString
p116
tp117
a(Vinsert
p118
I42
VSimpleName: release
p119
tp120
a(Vinsert
p121
I42
VSimpleName: getChunkIndex
p122
tp123
a(Vinsert
p124
I42
VSimpleName: isAd
p125
tp126
a(Vinsert
p127
I42
VSimpleName: setOutputMode
p128
tp129
a(Vinsert
p130
I42
VSimpleName: getPeriodWindowIndex
p131
tp132
a(Vinsert
p133
I42
VSimpleName: updateManifest
p134
tp135
a(Vinsert
p136
I42
VSimpleName: singletonMap
p137
tp138
a(Vinsert
p139
I42
VSimpleName: readFully
p140
tp141
a(Vinsert
p142
I42
VSimpleName: bytesLeft
p143
tp144
a(Vinsert
p145
I42
VSimpleName: setSurfaceTextureListener
p146
tp147
a(Vinsert
p148
I42
VSimpleName: sleep
p149
tp150
a(Vinsert
p151
I42
VSimpleName: getAudioAttributesV21
p152
tp153
a(Vinsert
p154
I42
VSimpleName: isEmpty
p155
tp156
a(Vinsert
p157
I42
VSimpleName: onCacheInitialized
p158
tp159
a(Vinsert
p160
I42
VSimpleName: floatElement
p161
tp162
a(Vinsert
p163
I42
VSimpleName: getParent
p164
tp165
a(Vinsert
p166
I42
VSimpleName: getCodecInfos
p167
tp168
a(Vinsert
p169
I42
VSimpleName: setTargetVoice
p170
tp171
a(Vinsert
p172
I42
VSimpleName: group
p173
tp174
a(Vinsert
p175
I42
VSimpleName: getCause
p176
tp177
a(Vinsert
p178
I42
VSimpleName: setImageResource
p179
tp180
a(Vinsert
p181
I42
VSimpleName: setContentType
p182
tp183
a(Vinsert
p184
I42
VSimpleName: getPeriodDurationUs
p185
tp186
a(Vinsert
p187
I42
VSimpleName: selectRepresentations
p188
tp189
a(Vinsert
p190
I42
VSimpleName: setVideoScalingMode
p191
tp192
a(Vinsert
p193
I42
VSimpleName: setInfo
p194
tp195
a(Vinsert
p196
I42
VSimpleName: getMainHandler
p197
tp198
a(Vinsert
p199
I42
VSimpleName: readBit
p200
tp201
a(Vinsert
p202
I42
VSimpleName: setFlags
p203
tp204
a(Vinsert
p205
I42
VSimpleName: setReadingEnabled
p206
tp207
a(Vinsert
p208
I42
VSimpleName: audioSessionId
p209
tp210
a(Vinsert
p211
I42
VSimpleName: getParentFile
p212
tp213
a(Vinsert
p214
I42
VSimpleName: poll
p215
tp216
a(Vinsert
p217
I42
VSimpleName: parseEAc3SyncframeAudioSampleCount
p218
tp219
a(Vinsert
p220
I42
VSimpleName: getRendererException
p221
tp222
a(Vinsert
p223
I42
VSimpleName: putLong
p224
tp225
a(Vinsert
p226
I42
VSimpleName: setListener
p227
tp228
a(Vinsert
p229
I42
VSimpleName: parseFullAtomVersion
p230
tp231
a(Vinsert
p232
I42
VSimpleName: setFontFamily
p233
tp234
a(Vinsert
p235
I42
VSimpleName: getHeaderFields
p236
tp237
a(Vinsert
p238
I42
VSimpleName: setRandomData
p239
tp240
a(Vinsert
p241
I42
VSimpleName: getNextEventTimeIndex
p242
tp243
a(Vinsert
p244
I42
VSimpleName: pause
p245
tp246
a(Vinsert
p247
I42
VSimpleName: longBitsToDouble
p248
tp249
a(Vinsert
p250
I42
VSimpleName: entrySet
p251
tp252
a(Vinsert
p253
I42
VSimpleName: getSelectedIndex
p254
tp255
a(Vinsert
p256
I42
VSimpleName: getPositionInWindowUs
p257
tp258
a(Vinsert
p259
I42
VSimpleName: createSource
p260
tp261
a(Vinsert
p262
I42
VSimpleName: isNull
p263
tp264
a(Vinsert
p265
I42
VSimpleName: sendEmptyMessage
p266
tp267
a(Vinsert
p268
I42
VSimpleName: onCues
p269
tp270
a(Vinsert
p271
I42
VSimpleName: copyWithMaxVideoDimensions
p272
tp273
a(Vinsert
p274
I42
VSimpleName: array
p275
tp276
a(Vinsert
p277
I42
VSimpleName: flip
p278
tp279
a(Vinsert
p280
I42
VSimpleName: consumeTestData
p281
tp282
a(Vinsert
p283
I42
VSimpleName: equalsIgnoreCase
p284
tp285
a(Vinsert
p286
I42
VSimpleName: setShuffleModeEnabled
p287
tp288
a(Vinsert
p289
I42
VSimpleName: readUnsignedInt24
p290
tp291
a(Vinsert
p292
I42
VSimpleName: setFeatureEnabled
p293
tp294
a(Vinsert
p295
I42
VSimpleName: maybeBlacklistTrack
p296
tp297
a(Vinsert
p298
I42
VSimpleName: getInteger
p299
tp300
a(Vinsert
p301
I42
VSimpleName: hasFormat
p302
tp303
a(Vinsert
p304
I42
VSimpleName: cloneAndInsert
p305
tp306
a(Vinsert
p307
I42
VSimpleName: setFromMetadata
p308
tp309
a(Vinsert
p310
I42
VSimpleName: readSynchSafeInt
p311
tp312
a(Vinsert
p313
I42
VSimpleName: getResponseCode
p314
tp315
a(Vinsert
p316
I42
VSimpleName: populatePageHeader
p317
tp318
a(Vinsert
p319
I42
VSimpleName: makeText
p320
tp321
a(Vinsert
p322
I42
VSimpleName: getApproximateBitrate
p323
tp324
a(Vinsert
p325
I42
VSimpleName: isGreaterThan
p326
tp327
a(Vinsert
p328
I42
VSimpleName: setChannelMap
p329
tp330
a(Vinsert
p331
I42
VSimpleName: getDisplayId
p332
tp333
a(Vinsert
p334
I42
VSimpleName: seekToDefaultPosition
p335
tp336
a(Vinsert
p337
I42
VSimpleName: onTrackSelections
p338
tp339
a(Vinsert
p340
I42
VSimpleName: audioTrackUnderrun
p341
tp342
a(Vinsert
p343
I42
VSimpleName: readLittleEndianUnsignedInt24
p344
tp345
a(Vinsert
p346
I42
VSimpleName: writeToParcel
p347
tp348
a(Vinsert
p349
I42
VSimpleName: isAudio
p350
tp351
a(Vinsert
p352
I42
VSimpleName: getWriteIndex
p353
tp354
a(Vinsert
p355
I42
VSimpleName: getInt
p356
tp357
a(Vinsert
p358
I42
VSimpleName: setPosition
p359
tp360
a(Vinsert
p361
I42
VSimpleName: assertPreviousWindowIndices
p362
tp363
a(Vinsert
p364
I42
VSimpleName: glGetUniformLocation
p365
tp366
a(Vinsert
p367
I42
VSimpleName: getFlag
p368
tp369
a(Vinsert
p370
I42
VSimpleName: maybeThrowPlaylistRefreshError
p371
tp372
a(Vinsert
p373
I42
VSimpleName: sniffFragmented
p374
tp375
a(Vinsert
p376
I42
VSimpleName: drmInitData
p377
tp378
a(Vinsert
p379
I42
VSimpleName: appendReadData
p380
tp381
a(Vinsert
p382
I42
VSimpleName: advanceTo
p383
tp384
a(Vinsert
p385
I42
VSimpleName: getStartTimePos
p386
tp387
a(Vinsert
p388
I42
VSimpleName: isLinebreak
p389
tp390
a(Vinsert
p391
I42
VSimpleName: getAllHeadersAsList
p392
tp393
a(Vinsert
p394
I42
VSimpleName: parseColor
p395
tp396
a(Vinsert
p397
I42
VSimpleName: round
p398
tp399
a(Vinsert
p400
I42
VSimpleName: getWindowFirstPeriodIndex
p401
tp402
a(Vinsert
p403
I42
VSimpleName: getCommaDelimitedSimpleClassNames
p404
tp405
a(Vinsert
p406
I42
VSimpleName: maybeThrowStreamError
p407
tp408
a(Vinsert
p409
I42
VSimpleName: evaluateQueueSize
p410
tp411
a(Vinsert
p412
I42
VSimpleName: onCachedBytesRead
p413
tp414
a(Vinsert
p415
I42
VSimpleName: onTimelineChanged
p416
tp417
a(Vinsert
p418
I42
VSimpleName: isTrue
p419
tp420
a(Vinsert
p421
I42
VSimpleName: bitsLeft
p422
tp423
a(Vinsert
p424
I42
VSimpleName: isLevel1Element
p425
tp426
a(Vinsert
p427
I42
VSimpleName: defaultCharset
p428
tp429
a(Vinsert
p430
I42
VSimpleName: getFormats
p431
tp432
a(Vinsert
p433
I42
VSimpleName: checkNotEmpty
p434
tp435
a(Vinsert
p436
I42
VSimpleName: set
p437
tp438
a(Vinsert
p439
I42
VSimpleName: isExplicit
p440
tp441
a(Vinsert
p442
I42
VSimpleName: startsWith
p443
tp444
a(Vinsert
p445
I42
VSimpleName: isFocused
p446
tp447
a(Vinsert
p448
I42
VSimpleName: createSampleFormat
p449
tp450
a(Vinsert
p451
I42
VSimpleName: addMediaSources
p452
tp453
a(Vinsert
p454
I42
VSimpleName: createTx3GFormat
p455
tp456
a(Vinsert
p457
I42
VSimpleName: onDecoderInitialized
p458
tp459
a(Vinsert
p460
I42
VSimpleName: isAdaptive
p461
tp462
a(Vinsert
p463
I42
VSimpleName: getReadIndex
p464
tp465
a(Vinsert
p466
I42
VSimpleName: updateNativeOrientation
p467
tp468
a(Vinsert
p469
I42
VSimpleName: remove
p470
tp471
a(Vinsert
p472
I42
VSimpleName: onVideoSizeChanged
p473
tp474
a(Vinsert
p475
I42
VSimpleName: queueJumpToItem
p476
tp477
a(Vinsert
p478
I42
VSimpleName: adjustTsTimestamp
p479
tp480
a(Vinsert
p481
I42
VSimpleName: getBufferSize
p482
tp483
a(Vinsert
p484
I42
VSimpleName: addFlag
p485
tp486
a(Vinsert
p487
I42
VSimpleName: isAdAvailable
p488
tp489
a(Vinsert
p490
I42
VSimpleName: addMediaSource
p491
tp492
a(Vinsert
p493
I42
VSimpleName: skipToKeyframeBefore
p494
tp495
a(Vinsert
p496
I42
VSimpleName: getStringExtra
p497
tp498
a(Vinsert
p499
I42
VSimpleName: fill
p500
tp501
a(Vinsert
p502
I42
VSimpleName: floor
p503
tp504
a(Vinsert
p505
I42
VSimpleName: setOutputSurface
p506
tp507
a(Vinsert
p508
I42
VSimpleName: hasReadStreamToEnd
p509
tp510
a(Vinsert
p511
I42
VSimpleName: isNaN
p512
tp513
a(Vinsert
p514
I42
VSimpleName: allowDirectExecutor
p515
tp516
a(Vinsert
p517
I42
VSimpleName: isNotSameAs
p518
tp519
a(Vinsert
p520
I42
VSimpleName: getUserAgent
p521
tp522
a(Vinsert
p523
I42
VSimpleName: setSpan
p524
tp525
a(Vinsert
p526
I42
VSimpleName: readUnsignedShort
p527
tp528
a(Vinsert
p529
I42
VSimpleName: getRemainderDataSpec
p530
tp531
a(Vinsert
p532
I42
VSimpleName: indexOf
p533
tp534
a(Vinsert
p535
I42
VSimpleName: getAdGroupIndexForPositionUs
p536
tp537
a(Vinsert
p538
I42
VSimpleName: setVisibility
p539
tp540
a(Vinsert
p541
I42
VSimpleName: setFocusable
p542
tp543
a(Vinsert
p544
I42
VSimpleName: getWindowCount
p545
tp546
a(Vinsert
p547
I42
VSimpleName: postDelayed
p548
tp549
a(Vinsert
p550
I42
VSimpleName: split
p551
tp552
a(Vinsert
p553
I42
VSimpleName: getEndTimeUs
p554
tp555
a(Vinsert
p556
I42
VSimpleName: findNalUnit
p557
tp558
a(Vinsert
p559
I42
VSimpleName: clearFlag
p560
tp561
a(Vinsert
p562
I42
VSimpleName: setInstanceFollowRedirects
p563
tp564
a(Vinsert
p565
I42
VSimpleName: getPassthroughDecoderName
p566
tp567
a(Vinsert
p568
I42
VSimpleName: blockUntilEnded
p569
tp570
a(Vinsert
p571
I42
VSimpleName: createFormatEvaluator
p572
tp573
a(Vinsert
p574
I42
VSimpleName: fromString
p575
tp576
a(Vinsert
p577
I42
VSimpleName: createDataSource
p578
tp579
a(Vinsert
p580
I42
VSimpleName: recycle
p581
tp582
a(Vinsert
p583
I42
VSimpleName: getSeekWindowCount
p584
tp585
a(Vinsert
p586
I42
VSimpleName: loadError
p587
tp588
a(Vinsert
p589
I42
VSimpleName: parseCea708AccessibilityChannel
p590
tp591
a(Vinsert
p592
I42
VSimpleName: setWidth
p593
tp594
a(Vinsert
p595
I42
VSimpleName: playedAdGroup
p596
tp597
a(Vinsert
p598
I42
VSimpleName: getSampleDescriptionEncryptionBox
p599
tp600
a(Vinsert
p601
I42
VSimpleName: readInt
p602
tp603
a(Vinsert
p604
I42
VSimpleName: getCurrentWindowIndex
p605
tp606
a(Vinsert
p607
I42
VSimpleName: parseDouble
p608
tp609
a(Vinsert
p610
I42
VSimpleName: createFormatForMimeType
p611
tp612
a(Vinsert
p613
I42
VSimpleName: readData
p614
tp615
a(Vinsert
p616
I42
VSimpleName: setData
p617
tp618
a(Vinsert
p619
I42
VSimpleName: getAndClearResult
p620
tp621
a(Vinsert
p622
I42
VSimpleName: isCryptoSchemeSupported
p623
tp624
a(Vinsert
p625
I42
VSimpleName: canAcquireSession
p626
tp627
a(Vinsert
p628
I42
VSimpleName: getAssets
p629
tp630
a(Vinsert
p631
I42
VSimpleName: getPcmEncoding
p632
tp633
a(Vinsert
p634
I42
VSimpleName: setVolume
p635
tp636
a(Vinsert
p637
I42
VSimpleName: isEqualTo
p638
tp639
a(Vinsert
p640
I42
VSimpleName: getEncoding
p641
tp642
a(Vinsert
p643
I42
VSimpleName: getCurrentAdGroupIndex
p644
tp645
a(Vinsert
p646
I42
VSimpleName: setBackgroundColor
p647
tp648
a(Vinsert
p649
I42
VSimpleName: writeInt
p650
tp651
a(Vinsert
p652
I42
VSimpleName: fromUtf8Bytes
p653
tp654
a(Vinsert
p655
I42
VSimpleName: uptimeMillis
p656
tp657
a(Vinsert
p658
I42
VSimpleName: parse
p659
tp660
a(Vinsert
p661
I42
VSimpleName: hashCode
p662
tp663
a(Vinsert
p664
I42
VSimpleName: copyWithPeriodIndex
p665
tp666
a(Vinsert
p667
I42
VSimpleName: createAudioSampleFormat
p668
tp669
a(Vinsert
p670
I42
VSimpleName: getY
p671
tp672
a(Vinsert
p673
I42
VSimpleName: copyOf
p674
tp675
a(Vinsert
p676
I42
VSimpleName: buildTestData
p677
tp678
a(Vinsert
p679
I42
VSimpleName: onSourcePrepared
p680
tp681
a(Vinsert
p682
I42
VSimpleName: wrap
p683
tp684
a(Vinsert
p685
I42
VSimpleName: getThread
p686
tp687
a(Vinsert
p688
I42
VSimpleName: skipBits
p689
tp690
a(Vinsert
p691
I42
VSimpleName: replaceAll
p692
tp693
a(Vinsert
p694
I42
VSimpleName: writeMangledHeader
p695
tp696
a(Vinsert
p697
I42
VSimpleName: keySet
p698
tp699
a(Vinsert
p700
I42
VSimpleName: onUpstreamFormatChanged
p701
tp702
a(Vinsert
p703
I42
VSimpleName: createCronetEngine
p704
tp705
a(Vinsert
p706
I42
VSimpleName: getSystemService
p707
tp708
a(Vinsert
p709
I42
VSimpleName: skipSample
p710
tp711
a(Vinsert
p712
I42
VSimpleName: getCapabilities
p713
tp714
a(Vinsert
p715
I42
VSimpleName: getInstance
p716
tp717
a(Vinsert
p718
I42
VSimpleName: delay
p719
tp720
a(Vinsert
p721
I42
VSimpleName: getCommands
p722
tp723
a(Vinsert
p724
I42
VSimpleName: ensureUpdated
p725
tp726
a(Vinsert
p727
I42
VSimpleName: queueInputBuffer
p728
tp729
a(Vinsert
p730
I42
VSimpleName: setLoadPosition
p731
tp732
a(Vinsert
p733
I42
VSimpleName: binarySearch
p734
tp735
a(Vinsert
p736
I42
VSimpleName: readString
p737
tp738
a(Vinsert
p739
I42
VSimpleName: getAdDurationUs
p740
tp741
a(Vinsert
p742
I42
VSimpleName: getStartOffset
p743
tp744
a(Vinsert
p745
I42
VSimpleName: constrainValue
p746
tp747
a(Vinsert
p748
I42
VSimpleName: nanoTime
p749
tp750
a(Vinsert
p751
I42
VSimpleName: getTypeface
p752
tp753
a(Vinsert
p754
I42
VSimpleName: addHeader
p755
tp756
a(Vinsert
p757
I42
VSimpleName: setPlaybackParams
p758
tp759
a(Vinsert
p760
I42
VSimpleName: onError
p761
tp762
a(Vinsert
p763
I42
VSimpleName: onLoaderReleased
p764
tp765
a(Vinsert
p766
I42
VSimpleName: newAudioInstance
p767
tp768
a(Vinsert
p769
I42
VSimpleName: nextText
p770
tp771
a(Vinsert
p772
I42
VSimpleName: getPlaylistSnapshot
p773
tp774
a(Vinsert
p775
I42
VSimpleName: getIndex
p776
tp777
a(Vinsert
p778
I42
VSimpleName: inputFormatChanged
p779
tp780
a(Vinsert
p781
I42
VSimpleName: onContinueLoadingRequested
p782
tp783
a(Vinsert
p784
I42
VSimpleName: assertTrue
p785
tp786
a(Vinsert
p787
I42
VSimpleName: parseSchemeSpecificData
p788
tp789
a(Vinsert
p790
I42
VSimpleName: handlesTrack
p791
tp792
a(Vinsert
p793
I42
VSimpleName: assertConsecutiveDroppedOutputBufferLimit
p794
tp795
a(Vinsert
p796
I42
VSimpleName: copyWithSchemeType
p797
tp798
a(Vinsert
p799
I42
VSimpleName: copyWithMetadata
p800
tp801
a(Vinsert
p802
I42
VSimpleName: getCurrentPeriodIndex
p803
tp804
a(Vinsert
p805
I42
VSimpleName: crc
p806
tp807
a(Vinsert
p808
I42
VSimpleName: getFrameworkMediaFormatV16
p809
tp810
a(Vinsert
p811
I42
VSimpleName: seekTo
p812
tp813
a(Vinsert
p814
I42
VSimpleName: createTextFormat
p815
tp816
a(Vinsert
p817
I42
VSimpleName: getSegments
p818
tp819
a(Vinsert
p820
I42
VSimpleName: buildTestString
p821
tp822
a(Vinsert
p823
I42
VSimpleName: peek
p824
tp825
a(Vinsert
p826
I42
VSimpleName: createExtractors
p827
tp828
a(Vinsert
p829
I42
VSimpleName: getRepeatCount
p830
tp831
a(Vinsert
p832
I42
VSimpleName: getNextChunk
p833
tp834
a(Vinsert
p835
I42
VSimpleName: bytesLoaded
p836
tp837
a(Vinsert
p838
I42
VSimpleName: getTopInt
p839
tp840
a(Vinsert
p841
I42
VSimpleName: onBytesTransferred
p842
tp843
a(Vinsert
p844
I42
VSimpleName: getSampleCount
p845
tp846
a(Vinsert
p847
I42
VSimpleName: onText
p848
tp849
a(Vinsert
p850
I42
VSimpleName: getTimestampOffsetUs
p851
tp852
a(Vinsert
p853
I42
VSimpleName: getPath
p854
tp855
a(Vinsert
p856
I42
VSimpleName: toLowerInvariant
p857
tp858
a(Vinsert
p859
I42
VSimpleName: readSignedInt24
p860
tp861
a(Vinsert
p862
I42
VSimpleName: getText
p863
tp864
a(Vinsert
p865
I42
VSimpleName: skip
p866
tp867
a(Vinsert
p868
I42
VSimpleName: getAbsoluteStartTime
p869
tp870
a(Vinsert
p871
I42
VSimpleName: seekMap
p872
tp873
a(Vinsert
p874
I42
VSimpleName: getVideoCodecCounters
p875
tp876
a(Vinsert
p877
I42
VSimpleName: splice
p878
tp879
a(Vinsert
p880
I42
VSimpleName: show
p881
tp882
a(Vinsert
p883
I42
VSimpleName: getChildCount
p884
tp885
a(Vinsert
p886
I42
VSimpleName: getTrackSelection
p887
tp888
a(Vinsert
p889
I42
VSimpleName: createAudioFormat
p890
tp891
a(Vinsert
p892
I42
VSimpleName: setDefaultCookieManager
p893
tp894
a(Vinsert
p895
I42
VSimpleName: onMetadata
p896
tp897
a(Vinsert
p898
I42
VSimpleName: readUnsignedByte
p899
tp900
a(Vinsert
p901
I42
VSimpleName: getClass
p902
tp903
a(Vinsert
p904
I42
VSimpleName: hasPendingDiscontinuity
p905
tp906
a(Vinsert
p907
I42
VSimpleName: returnToMark
p908
tp909
a(Vinsert
p910
I42
VSimpleName: writeString
p911
tp912
a(Vinsert
p913
I42
VSimpleName: getLastSegmentNum
p914
tp915
a(Vinsert
p916
I42
VSimpleName: asShortBuffer
p917
tp918
a(Vinsert
p919
I42
VSimpleName: generateNewId
p920
tp921
a(Vinsert
p922
I42
VSimpleName: setIndex
p923
tp924
a(Vinsert
p925
I42
VSimpleName: useExtensionRenderers
p926
tp927
a(Vinsert
p928
I42
VSimpleName: currentThread
p929
tp930
a(Vinsert
p931
I42
VSimpleName: getIntExtra
p932
tp933
a(Vinsert
p934
I42
VSimpleName: copyWithEndTag
p935
tp936
a(Vinsert
p937
I42
VSimpleName: nextLong
p938
tp939
a(Vinsert
p940
I42
VSimpleName: getEventType
p941
tp942
a(Vinsert
p943
I42
VSimpleName: disable
p944
tp945
a(Vinsert
p946
I42
VSimpleName: newDrmProtectedSample
p947
tp948
a(Vinsert
p949
I42
VSimpleName: newWidevineInstance
p950
tp951
a(Vinsert
p952
I42
VSimpleName: unregister
p953
tp954
a(Vinsert
p955
I42
VSimpleName: readUnsignedInt
p956
tp957
a(Vinsert
p958
I42
VSimpleName: i
p959
tp960
a(Vinsert
p961
I42
VSimpleName: dequeueOutputBuffer
p962
tp963
a(Vinsert
p964
I42
VSimpleName: setActions
p965
tp966
a(Vinsert
p967
I42
VSimpleName: buildHlsSource
p968
tp969
a(Vinsert
p970
I42
VSimpleName: runTest
p971
tp972
a(Vinsert
p973
I42
VSimpleName: isStatic
p974
tp975
a(Vinsert
p976
I42
VSimpleName: fromNewPosition
p977
tp978
a(Vinsert
p979
I42
VSimpleName: createTextSampleFormat
p980
tp981
a(Vinsert
p982
I42
VSimpleName: getDownloadedSegments
p983
tp984
a(Vinsert
p985
I42
VSimpleName: createForSource
p986
tp987
a(Vinsert
p988
I42
VSimpleName: getPlayState
p989
tp990
a(Vinsert
p991
I42
VSimpleName: remaining
p992
tp993
a(Vinsert
p994
I42
VSimpleName: getPeriod
p995
tp996
a(Vinsert
p997
I42
VSimpleName: getSelectedFormat
p998
tp999
a(Vinsert
p1000
I42
VSimpleName: setStreamName
p1001
tp1002
a(Vinsert
p1003
I42
VSimpleName: initCause
p1004
tp1005
a(Vinsert
p1006
I42
VSimpleName: limit
p1007
tp1008
a(Vinsert
p1009
I42
VSimpleName: getBufferLength
p1010
tp1011
a(Vinsert
p1012
I42
VSimpleName: getAttributeValue
p1013
tp1014
a(Vinsert
p1015
I42
VSimpleName: getTrackFormat
p1016
tp1017
a(Vinsert
p1018
I42
VSimpleName: loadDrmInitData
p1019
tp1020
a(Vinsert
p1021
I42
VSimpleName: createEia608Format
p1022
tp1023
a(Vinsert
p1024
I42
VSimpleName: getBitrateEstimate
p1025
tp1026
a(Vinsert
p1027
I42
VSimpleName: isSizeSupported
p1028
tp1029
a(Vinsert
p1030
I42
VSimpleName: handleBuffer
p1031
tp1032
a(Vinsert
p1033
I42
VSimpleName: getMainLooper
p1034
tp1035
a(Vinsert
p1036
I42
VSimpleName: prepare
p1037
tp1038
a(Vinsert
p1039
I42
VSimpleName: currentTimeMillis
p1040
tp1041
a(Vinsert
p1042
I42
VSimpleName: selectVideoFormatsForDefaultDisplay
p1043
tp1044
a(Vinsert
p1045
I42
VSimpleName: getBandwidthMeter
p1046
tp1047
a(Vinsert
p1048
I42
VSimpleName: discardUntil
p1049
tp1050
a(Vinsert
p1051
I42
VSimpleName: parseSpsNalUnit
p1052
tp1053
a(Vinsert
p1054
I42
VSimpleName: capacity
p1055
tp1056
a(Vinsert
p1057
I42
VSimpleName: clear
p1058
tp1059
a(Vinsert
p1060
I42
VSimpleName: getAdGroupCount
p1061
tp1062
a(Vinsert
p1063
I42
VSimpleName: getTrackGroup
p1064
tp1065
a(Vinsert
p1066
I42
VSimpleName: clearVideoSurface
p1067
tp1068
a(Vinsert
p1069
I42
VSimpleName: setAdResumePositionUs
p1070
tp1071
a(Vinsert
p1072
I42
VSimpleName: setResizeMode
p1073
tp1074
a(Vinsert
p1075
I42
VSimpleName: toArray
p1076
tp1077
a(Vinsert
p1078
I42
VSimpleName: parseLong
p1079
tp1080
a(Vinsert
p1081
I42
VSimpleName: getSegmentUrl
p1082
tp1083
a(Vinsert
p1084
I42
VSimpleName: getPosition
p1085
tp1086
a(Vinsert
p1087
I42
VSimpleName: setValues
p1088
tp1089
a(Vinsert
p1090
I42
VSimpleName: setTimeZone
p1091
tp1092
a(Vinsert
p1093
I42
VSimpleName: getSegmentCount
p1094
tp1095
a(Vinsert
p1096
I42
VSimpleName: setVideoSurface
p1097
tp1098
a(Vinsert
p1099
I42
VSimpleName: canSeekForward
p1100
tp1101
a(Vinsert
p1102
I42
VSimpleName: myLooper
p1103
tp1104
a(Vinsert
p1105
I42
VSimpleName: setAudioVideoFormats
p1106
tp1107
a(Vinsert
p1108
I42
VSimpleName: readBytes
p1109
tp1110
a(Vinsert
p1111
I42
VSimpleName: createWindowFromZero
p1112
tp1113
a(Vinsert
p1114
I42
VSimpleName: enableTunnelingV21
p1115
tp1116
a(Vinsert
p1117
I42
VSimpleName: registerReceiver
p1118
tp1119
a(Vinsert
p1120
I42
VSimpleName: getPeriodWindow
p1121
tp1122
a(Vinsert
p1123
I42
VSimpleName: setLibraries
p1124
tp1125
a(Vinsert
p1126
I42
VSimpleName: seek
p1127
tp1128
a(Vinsert
p1129
I42
VSimpleName: containsKey
p1130
tp1131
a(Vinsert
p1132
I42
VSimpleName: getDefaultDisplay
p1133
tp1134
a(Vinsert
p1135
I42
VSimpleName: skipFully
p1136
tp1137
a(Vinsert
p1138
I42
VSimpleName: isNormalCue
p1139
tp1140
a(Vinsert
p1141
I42
VSimpleName: onSetShuffleModeEnabled
p1142
tp1143
a(Vinsert
p1144
I42
VSimpleName: getIndexOfEarlierOrEqualSynchronizationSample
p1145
tp1146
a(Vinsert
p1147
I42
VSimpleName: enable
p1148
tp1149
a(Vinsert
p1150
I42
VSimpleName: putExtra
p1151
tp1152
a(Vinsert
p1153
I42
VSimpleName: prepareSource
p1154
tp1155
a(Vinsert
p1156
I42
VSimpleName: resetPeekPosition
p1157
tp1158
a(Vinsert
p1159
I42
VSimpleName: loadManifest
p1160
tp1161
a(Vinsert
p1162
I42
VSimpleName: hasForegroundColor
p1163
tp1164
a(Vinsert
p1165
I42
VSimpleName: getSpans
p1166
tp1167
a(Vinsert
p1168
I42
VSimpleName: getTrackType
p1169
tp1170
a(Vinsert
p1171
I42
VSimpleName: isHoleSpan
p1172
tp1173
a(Vinsert
p1174
I42
VSimpleName: getPeriodPosition
p1175
tp1176
a(Vinsert
p1177
I42
VSimpleName: copyWithMediaTimeOffsetMs
p1178
tp1179
a(Vinsert
p1180
I42
VSimpleName: parseStringAttr
p1181
tp1182
a(Vinsert
p1183
I42
VSimpleName: maxDecodedFrameSize
p1184
tp1185
a(Vinsert
p1186
I42
VSimpleName: append
p1187
tp1188
a(Vinsert
p1189
I42
VSimpleName: asSubclass
p1190
tp1191
a(Vinsert
p1192
I42
VSimpleName: getCurrentBoundsUs
p1193
tp1194
a(Vinsert
p1195
I42
VSimpleName: getAll
p1196
tp1197
a(Vinsert
p1198
I42
VSimpleName: getMasterPlaylist
p1199
tp1200
a(Vinsert
p1201
I42
VSimpleName: hasEnoughDataToBeginPlayback
p1202
tp1203
a(Vinsert
p1204
I42
VSimpleName: getIntegerCodeForString
p1205
tp1206
a(Vinsert
p1207
I42
VSimpleName: getSize
p1208
tp1209
a(Vinsert
p1210
I42
VSimpleName: isLibopusAvailable
p1211
tp1212
a(Vinsert
p1213
I42
VSimpleName: continueBuffering
p1214
tp1215
a(Vinsert
p1216
I42
VSimpleName: copyWithSubsampleOffsetUs
p1217
tp1218
a(Vinsert
p1219
I42
VSimpleName: onPlaylistLoadError
p1220
tp1221
a(Vinsert
p1222
I42
VSimpleName: allOutputsBuilt
p1223
tp1224
a(Vinsert
p1225
I42
VSimpleName: store
p1226
tp1227
a(Vinsert
p1228
I42
VSimpleName: getEnabledTrackCount
p1229
tp1230
a(Vinsert
p1231
I42
VSimpleName: putInt
p1232
tp1233
a(Vinsert
p1234
I42
VSimpleName: getPreviousWindowIndex
p1235
tp1236
a(Vinsert
p1237
I42
VSimpleName: canReadExpGolombCodedNum
p1238
tp1239
a(Vinsert
p1240
I42
VSimpleName: newUrlRequestBuilder
p1241
tp1242
a(Vinsert
p1243
I42
VSimpleName: nextBytes
p1244
tp1245
a(Vinsert
p1246
I42
VSimpleName: setTrimSampleCount
p1247
tp1248
a(Vinsert
p1249
I42
VSimpleName: getPackageName
p1250
tp1251
a(Vinsert
p1252
I42
VSimpleName: getVideoCapabilities
p1253
tp1254
a(Vinsert
p1255
I42
VSimpleName: setSourceProvider
p1256
tp1257
a(Vinsert
p1258
I42
VSimpleName: onVideoDisabled
p1259
tp1260
a(Vinsert
p1261
I42
VSimpleName: getTrack
p1262
tp1263
a(Vinsert
p1264
I42
VSimpleName: add
p1265
tp1266
a(Vinsert
p1267
I42
VSimpleName: assertEquals
p1268
tp1269
a(Vinsert
p1270
I42
VSimpleName: discardTo
p1271
tp1272
a(Vinsert
p1273
I42
VSimpleName: getTimeZone
p1274
tp1275
a(Vinsert
p1276
I42
VSimpleName: newDefaultExtractors
p1277
tp1278
a(Vinsert
p1279
I42
VSimpleName: createUnseekableFinalTimeline
p1280
tp1281
a(Vinsert
p1282
I42
VSimpleName: getInputStream
p1283
tp1284
a(Vinsert
p1285
I42
VSimpleName: getFormatId
p1286
tp1287
a(Vinsert
p1288
I42
VSimpleName: getScheme
p1289
tp1290
a(Vinsert
p1291
I42
VSimpleName: setSimulateIOErrors
p1292
tp1293
a(Vinsert
p1294
I42
VSimpleName: getAndIncrement
p1295
tp1296
a(Vinsert
p1297
I42
VSimpleName: alignVideoSizeV21
p1298
tp1299
a(Vinsert
p1300
I42
VSimpleName: getSupportedPrepareActions
p1301
tp1302
a(Vinsert
p1303
I42
VSimpleName: getApplicationContext
p1304
tp1305
a(Vinsert
p1306
I42
VSimpleName: isUnderline
p1307
tp1308
a(Vinsert
p1309
I42
VSimpleName: canReadBits
p1310
tp1311
a(Vinsert
p1312
I42
VSimpleName: nextString
p1313
tp1314
a(Vinsert
p1315
I42
VSimpleName: buildOggHeader
p1316
tp1317
a(Vinsert
p1318
I42
VSimpleName: getRepeatMode
p1319
tp1320
a(Vinsert
p1321
I42
VSimpleName: getResult
p1322
tp1323
a(Vinsert
p1324
I42
VSimpleName: assertFalse
p1325
tp1326
a(Vinsert
p1327
I42
VSimpleName: parseUuid
p1328
tp1329
a(Vinsert
p1330
I42
VSimpleName: setSimulateUnknownLength
p1331
tp1332
a(Vinsert
p1333
I42
VSimpleName: length
p1334
tp1335
a(Vinsert
p1336
I42
VSimpleName: isValid
p1337
tp1338
a(Vinsert
p1339
I42
VSimpleName: isHighBitDepthSupported
p1340
tp1341
a(Vinsert
p1342
I42
VSimpleName: getBytes
p1343
tp1344
a(Vinsert
p1345
I42
VSimpleName: setUploadDataProvider
p1346
tp1347
a(Vinsert
p1348
I42
VSimpleName: resolve
p1349
tp1350
a(Vinsert
p1351
I42
VSimpleName: onLoadingChanged
p1352
tp1353
a(Vinsert
p1354
I42
VSimpleName: scheme
p1355
tp1356
a(Vinsert
p1357
I42
VSimpleName: isDecodeOnly
p1358
tp1359
a(Vinsert
p1360
I42
VSimpleName: showSelectionDialog
p1361
tp1362
a(Vinsert
p1363
I42
VSimpleName: getClassLoader
p1364
tp1365
a(Vinsert
p1366
I42
VSimpleName: isAudioSampleRateSupportedV21
p1367
tp1368
a(Vinsert
p1369
I42
VSimpleName: getDurationMs
p1370
tp1371
a(Vinsert
p1372
I42
VSimpleName: getLastIndex
p1373
tp1374
a(Vinsert
p1375
I42
VSimpleName: getChunkDurationUs
p1376
tp1377
a(Vinsert
p1378
I42
VSimpleName: singletonList
p1379
tp1380
a(Vinsert
p1381
I42
VSimpleName: submit
p1382
tp1383
a(Vinsert
p1384
I42
VSimpleName: getLength
p1385
tp1386
a(Vinsert
p1387
I42
VSimpleName: newVideoInstance
p1388
tp1389
a(Vinsert
p1390
I42
VSimpleName: getLast
p1391
tp1392
a(Vinsert
p1393
I42
VSimpleName: getSampleData
p1394
tp1395
a(Vinsert
p1396
I42
VSimpleName: matches
p1397
tp1398
a(Vinsert
p1399
I42
VSimpleName: populateHeader
p1400
tp1401
a(Vinsert
p1402
I42
VSimpleName: getPeekPosition
p1403
tp1404
a(Vinsert
p1405
I42
VSimpleName: newInstance
p1406
tp1407
a(Vinsert
p1408
I42
VSimpleName: glActiveTexture
p1409
tp1410
a(Vinsert
p1411
I42
VSimpleName: getLooper
p1412
tp1413
a(Vinsert
p1414
I42
VSimpleName: replace
p1415
tp1416
a(Vinsert
p1417
I42
VSimpleName: getManifest
p1418
tp1419
a(Vinsert
p1420
I42
VSimpleName: getFirstSampleTimestampUs
p1421
tp1422
a(Vinsert
p1423
I42
VSimpleName: onChunkLoadCompleted
p1424
tp1425
a(Vinsert
p1426
I42
VSimpleName: getRendererOffset
p1427
tp1428
a(Vinsert
p1429
I42
VSimpleName: isPrepared
p1430
tp1431
a(Vinsert
p1432
I42
VSimpleName: reverseOrder
p1433
tp1434
a(Vinsert
p1435
I42
VSimpleName: queueEndOfStream
p1436
tp1437
a(Vinsert
p1438
I42
VSimpleName: onPositionDiscontinuity
p1439
tp1440
a(Vinsert
p1441
I42
VSimpleName: handleEndOfStream
p1442
tp1443
a(Vinsert
p1444
I42
VSimpleName: compile
p1445
tp1446
a(Vinsert
p1447
I42
VSimpleName: toString
p1448
tp1449
a(Vinsert
p1450
I42
VSimpleName: sendMessages
p1451
tp1452
a(Vinsert
p1453
I42
VSimpleName: unregisterDisplayListener
p1454
tp1455
a(Vinsert
p1456
I42
VSimpleName: isPlayingAd
p1457
tp1458
a(Vinsert
p1459
I42
VSimpleName: getPixelCount
p1460
tp1461
a(Vinsert
p1462
I42
VSimpleName: releasePeriod
p1463
tp1464
a(Vinsert
p1465
I42
VSimpleName: sampleAvailable
p1466
tp1467
a(Vinsert
p1468
I42
VSimpleName: registerModule
p1469
tp1470
a(Vinsert
p1471
I42
VSimpleName: playedAd
p1472
tp1473
a(Vinsert
p1474
I42
VSimpleName: setAntiAlias
p1475
tp1476
a(Vinsert
p1477
I42
VSimpleName: charAt
p1478
tp1479
a(Vinsert
p1480
I42
VSimpleName: nextGaussian
p1481
tp1482
a(Vinsert
p1483
I42
VSimpleName: close
p1484
tp1485
a(Vinsert
p1486
I42
VSimpleName: setSpeed
p1487
tp1488
a(Vinsert
p1489
I42
VSimpleName: createInput
p1490
tp1491
a(Vinsert
p1492
I42
VSimpleName: areEqual
p1493
tp1494
a(Vinsert
p1495
I42
VSimpleName: format
p1496
tp1497
a(Vinsert
p1498
I42
VSimpleName: isLibvpxAvailable
p1499
tp1500
a(Vinsert
p1501
I42
VSimpleName: createByteArray
p1502
tp1503
a(Vinsert
p1504
I42
VSimpleName: setSampleOffsetUs
p1505
tp1506
a(Vinsert
p1507
I42
VSimpleName: getOutputSampleRateHz
p1508
tp1509
a(Vinsert
p1510
I42
VSimpleName: decode
p1511
tp1512
a(Vinsert
p1513
I42
VSimpleName: onIntegerElement
p1514
tp1515
a(Vinsert
p1516
I42
VSimpleName: getContext
p1517
tp1518
a(Vinsert
p1519
I42
VSimpleName: emptyList
p1520
tp1521
a(Vinsert
p1522
I42
VSimpleName: onSetShuffleMode
p1523
tp1524
a(Vinsert
p1525
I42
VSimpleName: createTextContainerFormat
p1526
tp1527
a(Vinsert
p1528
I42
VSimpleName: setIsTimestampMaster
p1529
tp1530
a(Vinsert
p1531
I42
VSimpleName: next
p1532
tp1533
a(Vinsert
p1534
I42
VSimpleName: onStopped
p1535
tp1536
a(Vinsert
p1537
I42
VSimpleName: joinByteArrays
p1538
tp1539
a(Vinsert
p1540
I42
VSimpleName: sampleMetadata
p1541
tp1542
a(Vinsert
p1543
I42
VSimpleName: min
p1544
tp1545
a(Vinsert
p1546
I42
VSimpleName: createMediaCrypto
p1547
tp1548
a(Vinsert
p1549
I42
VSimpleName: setVideoSurfaceView
p1550
tp1551
a(Vinsert
p1552
I42
VSimpleName: sniffUnfragmented
p1553
tp1554
a(Vinsert
p1555
I42
VSimpleName: nativeOrder
p1556
tp1557
a(Vinsert
p1558
I42
VSimpleName: isEndOfStream
p1559
tp1560
a(Vinsert
p1561
I42
VSimpleName: destroy
p1562
tp1563
a(Vinsert
p1564
I42
VSimpleName: readUnsignedExpGolombCodedInt
p1565
tp1566
a(Vinsert
p1567
I42
VSimpleName: substring
p1568
tp1569
a(Vinsert
p1570
I42
VSimpleName: getTrackName
p1571
tp1572
a(Vinsert
p1573
I42
VSimpleName: getPeriodCount
p1574
tp1575
a(Vinsert
p1576
I42
VSimpleName: removeCallbacks
p1577
tp1578
a(Vinsert
p1579
I42
VSimpleName: getResourceId
p1580
tp1581
a(Vinsert
p1582
I42
VSimpleName: createContainerFormat
p1583
tp1584
a(Vinsert
p1585
I42
VSimpleName: setHttpMethod
p1586
tp1587
a(Vinsert
p1588
I42
VSimpleName: isReady
p1589
tp1590
a(Vinsert
p1591
I42
VSimpleName: removeCallbacksAndMessages
p1592
tp1593
a(Vinsert
p1594
I42
VSimpleName: unmodifiableMap
p1595
tp1596
a(Vinsert
p1597
I42
VSimpleName: post
p1598
tp1599
a(Vinsert
p1600
I42
VSimpleName: setText
p1601
tp1602
a(Vinsert
p1603
I42
VSimpleName: seekToDefaultPositionForPeriod
p1604
tp1605
a(Vinsert
p1606
I42
VSimpleName: parseIntAttr
p1607
tp1608
a(Vinsert
p1609
I42
VSimpleName: read
p1610
tp1611
a(Vinsert
p1612
I42
VSimpleName: assertThrows
p1613
tp1614
a(Vinsert
p1615
I42
VSimpleName: normalizeLanguageCode
p1616
tp1617
a(Vinsert
p1618
I42
VSimpleName: setTrack
p1619
tp1620
a(Vinsert
p1621
I42
VSimpleName: start
p1622
tp1623
a(Vinsert
p1624
I42
VSimpleName: toHexString
p1625
tp1626
a(Vinsert
p1627
I42
VSimpleName: getResources
p1628
tp1629
a(Vinsert
p1630
I42
VSimpleName: getStringArrayExtra
p1631
tp1632
a(Vinsert
p1633
I42
VSimpleName: endData
p1634
tp1635
a(Vinsert
p1636
I42
VSimpleName: getLastPathSegment
p1637
tp1638
a(Vinsert
p1639
I42
VSimpleName: appendQueryParameter
p1640
tp1641
a(Vinsert
p1642
I42
VSimpleName: setTargetBufferSize
p1643
tp1644
a(Vinsert
p1645
I42
VSimpleName: getPeriodDuration
p1646
tp1647
a(Vinsert
p1648
I42
VSimpleName: onLoadCanceled
p1649
tp1650
a(Vinsert
p1651
I42
VSimpleName: getByteArray
p1652
tp1653
a(Vinsert
p1654
I42
VSimpleName: setFrame
p1655
tp1656
a(Vinsert
p1657
I42
VSimpleName: trim
p1658
tp1659
a(Vinsert
p1660
I42
VSimpleName: buildPsshAtom
p1661
tp1662
a(Vinsert
p1663
I42
VSimpleName: onSeekProcessed
p1664
tp1665
a(Vinsert
p1666
I42
VSimpleName: isPlayWhenReadyCommitted
p1667
tp1668
a(Vinsert
p1669
I42
VSimpleName: getDecoderInfo
p1670
tp1671
a(Vinsert
p1672
I42
VSimpleName: continueLoading
p1673
tp1674
a(Vinsert
p1675
I42
VSimpleName: newDefaultInstance
p1676
tp1677
a(Vinsert
p1678
I42
VSimpleName: setFirstSampleTimestampUs
p1679
tp1680
a(Vinsert
p1681
I42
VSimpleName: getTrackGroupCount
p1682
tp1683
a(Vinsert
p1684
I42
VSimpleName: getWidth
p1685
tp1686
a(Vinsert
p1687
I42
VSimpleName: advancePeekPosition
p1688
tp1689
a(Vinsert
p1690
I42
VSimpleName: getGaplessInfo
p1691
tp1692
a(Vinsert
p1693
I42
VSimpleName: downloadLicense
p1694
tp1695
a(Vinsert
p1696
I42
VSimpleName: fillInStackTrace
p1697
tp1698
a(Vinsert
p1699
I42
VSimpleName: setFrameworkFormatV16
p1700
tp1701
a(Vinsert
p1702
I42
VSimpleName: setVideoDebugListener
p1703
tp1704
a(Vinsert
p1705
I42
VSimpleName: getEventTimeCount
p1706
tp1707
a(Vinsert
p1708
I42
VSimpleName: updateManifestUrl
p1709
tp1710
a(Vinsert
p1711
I42
VSimpleName: onSeekRangeChanged
p1712
tp1713
a(Vinsert
p1714
I42
VSimpleName: setPropertyByteArray
p1715
tp1716
a(Vinsert
p1717
I42
VSimpleName: getPositionInFirstPeriodMs
p1718
tp1719
a(Vinsert
p1720
I42
VSimpleName: selectTracks
p1721
tp1722
a(Vinsert
p1723
I42
VSimpleName: getTrackCount
p1724
tp1725
a(Vinsert
p1726
I42
VSimpleName: onAudioTrackWriteError
p1727
tp1728
a(Vinsert
p1729
I42
VSimpleName: setProperty
p1730
tp1731
a(Vinsert
p1732
I42
VSimpleName: getPlaybackState
p1733
tp1734
a(Vinsert
p1735
I42
VSimpleName: isLive
p1736
tp1737
a(Vinsert
p1738
I42
VSimpleName: position
p1739
tp1740
a(Vinsert
p1741
I42
VSimpleName: createTempFile
p1742
tp1743
a(Vinsert
p1744
I42
VSimpleName: getPeriodDurationMs
p1745
tp1746
a(Vinsert
p1747
I42
VSimpleName: createTrackSelection
p1748
tp1749
a(Vinsert
p1750
I42
VSimpleName: pollFirst
p1751
tp1752
a(Vinsert
p1753
I42
VSimpleName: showController
p1754
tp1755
a(Vinsert
p1756
I42
VSimpleName: binarySearchFloor
p1757
tp1758
a(Vinsert
p1759
I42
VSimpleName: checkState
p1760
tp1761
a(Vinsert
p1762
I42
VSimpleName: getSampleSource
p1763
tp1764
a(Vinsert
p1765
I42
VSimpleName: download
p1766
tp1767
a(Vinsert
p1768
I42
VSimpleName: toLogString
p1769
tp1770
a(Vinsert
p1771
I42
VSimpleName: releaseSession
p1772
tp1773
a(Vinsert
p1774
I42
VSimpleName: getNextChunkIndex
p1775
tp1776
a(Vinsert
p1777
I42
VSimpleName: getFixedTrackVariant
p1778
tp1779
a(Vinsert
p1780
I42
VSimpleName: getBufferedPositionUs
p1781
tp1782
a(Vinsert
p1783
I42
VSimpleName: setReceiverApplicationId
p1784
tp1785
a(Vinsert
p1786
I42
VSimpleName: parseInt
p1787
tp1788
a(Vinsert
p1789
I42
VSimpleName: findViewById
p1790
tp1791
a(Vinsert
p1792
I42
VSimpleName: getMaxVideoDimensions
p1793
tp1794
a(Vinsert
p1795
I42
VSimpleName: setPositionUs
p1796
tp1797
a(Vinsert
p1798
I42
VSimpleName: stop
p1799
tp1800
a(Vinsert
p1801
I42
VSimpleName: msToUs
p1802
tp1803
a(Vinsert
p1804
I42
VSimpleName: isCurrentWindowSeekable
p1805
tp1806
a(Vinsert
p1807
I42
VSimpleName: onAudioTrackUnderrun
p1808
tp1809
a(Vinsert
p1810
I42
VSimpleName: readUTF
p1811
tp1812
a(Vinsert
p1813
I42
VSimpleName: setSource
p1814
tp1815
a(Vinsert
p1816
I42
VSimpleName: shouldStartPlayback
p1817
tp1818
a(Vinsert
p1819
I42
VSimpleName: getMode
p1820
tp1821
a(Vinsert
p1822
I42
VSimpleName: w
p1823
tp1824
a(Vinsert
p1825
I42
VSimpleName: assertWindowIds
p1826
tp1827
a(Vinsert
p1828
I42
VSimpleName: create
p1829
tp1830
a(Vinsert
p1831
I42
VSimpleName: getSpeedAdjustedDurationUs
p1832
tp1833
a(Vinsert
p1834
I42
VSimpleName: getDataSet
p1835
tp1836
a(Vinsert
p1837
I42
VSimpleName: setImageDrawable
p1838
tp1839
a(Vinsert
p1840
I42
VSimpleName: setAlpha
p1841
tp1842
a(Vinsert
p1843
I42
VSimpleName: setSurfaceHolderCallback
p1844
tp1845
a(Vinsert
p1846
I42
VSimpleName: floatToRawIntBits
p1847
tp1848
a(Vinsert
p1849
I42
VSimpleName: disabled
p1850
tp1851
a(Vinsert
p1852
I42
VSimpleName: getLibvpxVersion
p1853
tp1854
a(Vinsert
p1855
I42
VSimpleName: selectTrack
p1856
tp1857
a(Vinsert
p1858
I42
VSimpleName: getRegionEndTimeMs
p1859
tp1860
a(Vinsert
p1861
I42
VSimpleName: newInstanceV17
p1862
tp1863
a(Vinsert
p1864
I42
VSimpleName: getDeclaredField
p1865
tp1866
a(Vinsert
p1867
I42
VSimpleName: getURL
p1868
tp1869
a(Vinsert
p1870
I42
VSimpleName: trimPayload
p1871
tp1872
a(Vinsert
p1873
I42
VSimpleName: sampleData
p1874
tp1875
a(Vinsert
p1876
I42
VSimpleName: readDiscontinuity
p1877
tp1878
a(Vinsert
p1879
I42
VSimpleName: endTracks
p1880
tp1881
a(Vinsert
p1882
I42
VSimpleName: getAllocatedSize
p1883
tp1884
a(Vinsert
p1885
I42
VSimpleName: getLibopusVersion
p1886
tp1887
a(Vinsert
p1888
I42
VSimpleName: createImageSampleFormat
p1889
tp1890
a(Vinsert
p1891
I42
VSimpleName: initialize
p1892
tp1893
a(Vinsert
p1894
I42
VSimpleName: getLong
p1895
tp1896
a(Vinsert
p1897
I42
VSimpleName: getFrames
p1898
tp1899
a(Vinsert
p1900
I42
VSimpleName: getNextWindowIndex
p1901
tp1902
a(Vinsert
p1903
I42
VSimpleName: dispatchKeyEvent
p1904
tp1905
a(Vinsert
p1906
I42
VSimpleName: createId3Format
p1907
tp1908
a(Vinsert
p1909
I42
VSimpleName: compileBooleanAttrPattern
p1910
tp1911
a(Vinsert
p1912
I42
VSimpleName: block
p1913
tp1914
a(Vinsert
p1915
I42
VSimpleName: getNextLoadPositionUs
p1916
tp1917
a(Vinsert
p1918
I42
VSimpleName: setSelectionOverride
p1919
tp1920
a(Vinsert
p1921
I42
VSimpleName: inferContentType
p1922
tp1923
a(Vinsert
p1924
I42
VSimpleName: getPropertyString
p1925
tp1926
a(Vinsert
p1927
I42
VSimpleName: notify
p1928
tp1929
a(Vinsert
p1930
I42
VSimpleName: isPassthroughAudio
p1931
tp1932
a(Vinsert
p1933
I42
VSimpleName: getCurrentTimeline
p1934
tp1935
a(Vinsert
p1936
I42
VSimpleName: compare
p1937
tp1938
a(Vinsert
p1939
I42
VSimpleName: getWindow
p1940
tp1941
a(Vinsert
p1942
I42
VSimpleName: maybeThrowPrepareError
p1943
tp1944
a(Vinsert
p1945
I42
VSimpleName: hasNext
p1946
tp1947
a(Vinsert
p1948
I42
VSimpleName: printStackTrace
p1949
tp1950
a(Vinsert
p1951
I42
VSimpleName: scaleLargeTimestamp
p1952
tp1953
a(Vinsert
p1954
I42
VSimpleName: getSampleFormat
p1955
tp1956
a(Vinsert
p1957
I42
VSimpleName: getProfileLevels
p1958
tp1959
a(Vinsert
p1960
I42
VSimpleName: ccData2
p1961
tp1962
a(Vinsert
p1963
I42
VSimpleName: getSourceCount
p1964
tp1965
a(Vinsert
p1966
I42
VSimpleName: setLength
p1967
tp1968
a(Vinsert
p1969
I42
VSimpleName: getNewPlayingPeriodIndex
p1970
tp1971
a(Vinsert
p1972
I42
VSimpleName: doActionAndScheduleNext
p1973
tp1974
a(Vinsert
p1975
I42
VSimpleName: commitSample
p1976
tp1977
a(Vinsert
p1978
I42
VSimpleName: createTtmlFormat
p1979
tp1980
a(Vinsert
p1981
I42
VSimpleName: createDecoder
p1982
tp1983
a(Vinsert
p1984
I42
VSimpleName: write
p1985
tp1986
a(Vinsert
p1987
I42
VSimpleName: onLoadCompleted
p1988
tp1989
a(Vinsert
p1990
I42
VSimpleName: getTimeUs
p1991
tp1992
a(Vinsert
p1993
I42
VSimpleName: getFirstPeriodIndexInSource
p1994
tp1995
a(Vinsert
p1996
I42
VSimpleName: interrupted
p1997
tp1998
a(Vinsert
p1999
I42
VSimpleName: buildHttpDataSourceFactory
p2000
tp2001
a(Vinsert
p2002
I42
VSimpleName: renderedFirstFrame
p2003
tp2004
a(Vinsert
p2005
I42
VSimpleName: isSeekable
p2006
tp2007
a(Vinsert
p2008
I42
VSimpleName: getPositionInWindowMs
p2009
tp2010
a(Vinsert
p2011
I42
VSimpleName: evaluate
p2012
tp2013
a(Vinsert
p2014
I42
VSimpleName: register
p2015
tp2016
a(Vinsert
p2017
I42
VSimpleName: getSelectedTrack
p2018
tp2019
a(Vinsert
p2020
I42
VSimpleName: createVideoFormat
p2021
tp2022
a(Vinsert
p2023
I42
VSimpleName: copyWithDrmInitData
p2024
tp2025
a(Vinsert
p2026
I42
VSimpleName: when
p2027
tp2028
a(Vinsert
p2029
I42
VSimpleName: provideProvisionResponse
p2030
tp2031
a(Vinsert
p2032
I42
VSimpleName: bytesRead
p2033
tp2034
a(Vinsert
p2035
I42
VSimpleName: hasValue
p2036
tp2037
a(Vinsert
p2038
I42
VSimpleName: setAction
p2039
tp2040
a(Vinsert
p2041
I42
VSimpleName: setByteBuffer
p2042
tp2043
a(Vinsert
p2044
I42
VSimpleName: setTextAlign
p2045
tp2046
a(Vinsert
p2047
I42
VSimpleName: track
p2048
tp2049
a(Vinsert
p2050
I42
VSimpleName: readByte
p2051
tp2052
a(Vinsert
p2053
I42
VSimpleName: d
p2054
tp2055
a(Vinsert
p2056
I42
VSimpleName: onSourceInfoRefreshed
p2057
tp2058
a(Vinsert
p2059
I42
VSimpleName: startBlock
p2060
tp2061
a(Vinsert
p2062
I42
VSimpleName: isSameMedia
p2063
tp2064
a(Vinsert
p2065
I42
VSimpleName: loadSampleFormat
p2066
tp2067
a(Vinsert
p2068
I42
VSimpleName: isFinal
p2069
tp2070
a(Vinsert
p2071
I42
VSimpleName: endNalUnit
p2072
tp2073
a(Vinsert
p2074
I42
VSimpleName: onVideoFormatChanged
p2075
tp2076
a(Vinsert
p2077
I42
VSimpleName: checkNotNull
p2078
tp2079
a(Vinsert
p2080
I42
VSimpleName: getCues
p2081
tp2082
a(Vinsert
p2083
I42
VSimpleName: setFormat
p2084
tp2085
a(Vinsert
p2086
I42
VSimpleName: queryKeyStatus
p2087
tp2088
a(Vinsert
p2089
I42
VSimpleName: getCurrentWindowDuration
p2090
tp2091
a(Vinsert
p2092
I42
VSimpleName: configureSpliceTo
p2093
tp2094
a(Vinsert
p2095
I42
VSimpleName: getCachedBytes
p2096
tp2097
a(Vinsert
p2098
I42
VSimpleName: getState
p2099
tp2100
a(Vinsert
p2101
I42
VSimpleName: getCurrentMappedTrackInfo
p2102
tp2103
a(Vinsert
p2104
I42
VSimpleName: waitUntilInitialized
p2105
tp2106
a(Vinsert
p2107
I42
VSimpleName: getAbsolutePath
p2108
tp2109
a(Vinsert
p2110
I42
VSimpleName: convertTimeToGranule
p2111
tp2112
a(Vinsert
p2113
I42
VSimpleName: update
p2114
tp2115
a(Vinsert
p2116
I42
VSimpleName: setPlaybackParameters
p2117
tp2118
a(Vinsert
p2119
I42
VSimpleName: onShuffleModeEnabledChanged
p2120
tp2121
a(Vinsert
p2122
I42
VSimpleName: createBitmap
p2123
tp2124
a(Vinsert
p2125
I42
VSimpleName: join
p2126
tp2127
a(Vinsert
p2128
I42
VSimpleName: getPlayWhenReady
p2129
tp2130
a(Vinsert
p2131
I42
VSimpleName: sync
p2132
tp2133
a(Vinsert
p2134
I42
VSimpleName: copyWithGaplessInfo
p2135
tp2136
a(Vinsert
p2137
I42
VSimpleName: getAvailableEndTimeUs
p2138
tp2139
a(Vinsert
p2140
I42
VSimpleName: isShowing
p2141
tp2142
a(Vinsert
p2143
I42
VSimpleName: setVideoListener
p2144
tp2145
a(Vinsert
p2146
I42
VSimpleName: getIdentifier
p2147
tp2148
a(Vinsert
p2149
I42
VSimpleName: setLayoutDirection
p2150
tp2151
a(Vinsert
p2152
I42
VSimpleName: getFNV64Hash
p2153
tp2154
a(Vinsert
p2155
I42
VSimpleName: recordOggPacket
p2156
tp2157
a(Vinsert
p2158
I42
VSimpleName: getStartTime
p2159
tp2160
a(Vinsert
p2161
I42
VSimpleName: load
p2162
tp2163
a(Vinsert
p2164
I42
VSimpleName: getBitrate
p2165
tp2166
a(Vinsert
p2167
I42
VSimpleName: order
p2168
tp2169
a(Vinsert
p2170
I42
VSimpleName: getMessage
p2171
tp2172
a(Vinsert
p2173
I42
VSimpleName: escapeFileName
p2174
tp2175
a(Vinsert
p2176
I42
VSimpleName: getLeafAtomOfType
p2177
tp2178
a(Vinsert
p2179
I42
VSimpleName: addAll
p2180
tp2181
a(Vinsert
p2182
I42
VSimpleName: putAll
p2183
tp2184
a(Vinsert
p2185
I42
VSimpleName: ceiling
p2186
tp2187
a(Vinsert
p2188
I42
VSimpleName: getSelectionData
p2189
tp2190
a(Vinsert
p2191
I42
VSimpleName: obtainMessage
p2192
tp2193
a(Vinsert
p2194
I42
VSimpleName: getClosedCaptionMetadataRenderer
p2195
tp2196
a(Vinsert
p2197
I42
VSimpleName: getDurationUs
p2198
tp2199
a(Vinsert
p2200
I42
VSimpleName: setOutputBuffer
p2201
tp2202
a(Vinsert
p2203
I42
VSimpleName: arraycopy
p2204
tp2205
a(Vinsert
p2206
I42
VSimpleName: abs
p2207
tp2208
a(Vinsert
p2209
I42
VSimpleName: getUri
p2210
tp2211
a(Vinsert
p2212
I42
VSimpleName: getPageHeader
p2213
tp2214
a(Vinsert
p2215
I42
VSimpleName: exists
p2216
tp2217
a(Vinsert
p2218
I42
VSimpleName: getDefaultStartPosition
p2219
tp2220
a(Vinsert
p2221
I42
VSimpleName: singleLoad
p2222
tp2223
a(Vinsert
p2224
I42
VSimpleName: getLanguage
p2225
tp2226
a(Vinsert
p2227
I42
VSimpleName: isVideo
p2228
tp2229
a(Vinsert
p2230
I42
VSimpleName: releaseSource
p2231
tp2232
a(Vinsert
p2233
I42
VSimpleName: build
p2234
tp2235
a(Vinsert
p2236
I42
VSimpleName: traverseForStyle
p2237
tp2238
a(Vinsert
p2239
I42
VSimpleName: extractTimelineFromMediaSource
p2240
tp2241
a(Vinsert
p2242
I42
VSimpleName: getLibvpxConfig
p2243
tp2244
a(Vinsert
p2245
I42
VSimpleName: getFirstWindowIndex
p2246
tp2247
a(Vinsert
p2248
I42
VSimpleName: getUpstreamFormat
p2249
tp2250
a(Vinsert
p2251
I42
VSimpleName: checkIndex
p2252
tp2253
a(Vinsert
p2254
I42
VSimpleName: apply
p2255
tp2256
a(Vinsert
p2257
I42
VSimpleName: forName
p2258
tp2259
a(Vinsert
p2260
I42
VSimpleName: getIndexOfPeriod
p2261
tp2262
a(Vinsert
p2263
I42
VSimpleName: drawBitmap
p2264
tp2265
a(Vinsert
p2266
I42
VSimpleName: supportsEncoding
p2267
tp2268
a(Vinsert
p2269
I42
VSimpleName: readBits
p2270
tp2271
a(Vinsert
p2272
I42
VSimpleName: isFeatureSupported
p2273
tp2274
a(Vinsert
p2275
I42
VSimpleName: readLong
p2276
tp2277
a(Vinsert
p2278
I42
VSimpleName: nextInt
p2279
tp2280
a(Vinsert
p2281
I42
VSimpleName: getWrappedMediaCrypto
p2282
tp2283
a(Vinsert
p2284
I42
VSimpleName: onAudioSessionId
p2285
tp2286
a(Vinsert
p2287
I42
VSimpleName: isCodecSupported
p2288
tp2289
a(Vinsert
p2290
I42
VSimpleName: getTrackOutput
p2291
tp2292
a(Vinsert
p2293
I42
VSimpleName: getSeekMap
p2294
tp2295
a(Vinsert
p2296
I42
VSimpleName: getHolder
p2297
tp2298
a(Vinsert
p2299
I42
VSimpleName: tailSet
p2300
tp2301
a(Vinsert
p2302
I42
VSimpleName: getValue
p2303
tp2304
a(Vinsert
p2305
I42
VSimpleName: getStream
p2306
tp2307
a(Vinsert
p2308
I42
VSimpleName: getPriorityTaskManager
p2309
tp2310
a(Vinsert
p2311
I42
VSimpleName: hasSystemFeature
p2312
tp2313
a(Vinsert
p2314
I42
VSimpleName: leaveGroup
p2315
tp2316
a(Vinsert
p2317
I42
VSimpleName: createVideoContainerFormat
p2318
tp2319
a(Vinsert
p2320
I42
VSimpleName: setCookiePolicy
p2321
tp2322
a(Vinsert
p2323
I42
VSimpleName: getPlaybackLooper
p2324
tp2325
a(Vinsert
p2326
I42
VSimpleName: get
p2327
tp2328
a(Vinsert
p2329
I42
VSimpleName: asList
p2330
tp2331
a(Vinsert
p2332
I42
VSimpleName: getPlayedAdCount
p2333
tp2334
a(Vinsert
p2335
I42
VSimpleName: listFiles
p2336
tp2337
a(Vinsert
p2338
I42
VSimpleName: getSurface
p2339
tp2340
a(Vinsert
p2341
I42
VSimpleName: values
p2342
tp2343
a(Vinsert
p2344
I42
VSimpleName: isSyncFrame
p2345
tp2346
a(Vinsert
p2347
I42
VSimpleName: intBitsToFloat
p2348
tp2349
a(Vinsert
p2350
I42
VSimpleName: hasData
p2351
tp2352
a(Vinsert
p2353
I42
VSimpleName: skipBytes
p2354
tp2355
a(Vinsert
p2356
I42
VSimpleName: setTextSize
p2357
tp2358
a(Vinsert
p2359
I42
VSimpleName: ceilDivide
p2360
tp2361
a(Vinsert
p2362
I42
VSimpleName: getBackgroundColor
p2363
tp2364
a(Vinsert
p2365
I42
VSimpleName: setMediaSource
p2366
tp2367
a(Vinsert
p2368
I42
VSimpleName: readUnsignedIntToInt
p2369
tp2370
a(Vinsert
p2371
I42
VSimpleName: maybeTerminateInputStream
p2372
tp2373
a(Vinsert
p2374
I42
VSimpleName: beginSection
p2375
tp2376
a(Vinsert
p2377
I42
VSimpleName: getSurfaceTextureListener
p2378
tp2379
a(Vinsert
p2380
I42
VSimpleName: hasRelativeIndexOffsets
p2381
tp2382
a(Vinsert
p2383
I42
VSimpleName: from
p2384
tp2385
a(Vinsert
p2386
I42
VSimpleName: clearData
p2387
tp2388
a(Vinsert
p2389
I42
VSimpleName: copyOfRange
p2390
tp2391
a(Vinsert
p2392
I42
VSimpleName: discardFromNextKeyframes
p2393
tp2394
a(Vinsert
p2395
I42
VSimpleName: getVersion
p2396
tp2397
a(Vinsert
p2398
I42
VSimpleName: getAction
p2399
tp2400
a(Vinsert
p2401
I42
VSimpleName: getCurrentManifest
p2402
tp2403
a(Vinsert
p2404
I42
VSimpleName: setUsage
p2405
tp2406
a(Vinsert
p2407
I42
VSimpleName: parseFloat
p2408
tp2409
a(Vinsert
p2410
I42
VSimpleName: onAudioCodecCounters
p2411
tp2412
a(Vinsert
p2413
I42
VSimpleName: getStartTimeUs
p2414
tp2415
a(Vinsert
p2416
I42
VSimpleName: newVttInstance
p2417
tp2418
a(Vinsert
p2419
I42
VSimpleName: getAudioMediaMimeType
p2420
tp2421
a(Vinsert
p2422
I42
VSimpleName: setString
p2423
tp2424
a(Vinsert
p2425
I42
VSimpleName: appendData
p2426
tp2427
a(Vinsert
p2428
I42
VSimpleName: e
p2429
tp2430
a(Vinsert
p2431
I42
VSimpleName: setUpstreamFormatChangeListener
p2432
tp2433
a(Vinsert
p2434
I42
VSimpleName: onRenderersError
p2435
tp2436
a(Vinsert
p2437
I42
VSimpleName: setRepeatMode
p2438
tp2439
a(Vinsert
p2440
I42
VSimpleName: getString
p2441
tp2442
a(Vinsert
p2443
I42
VSimpleName: sha1
p2444
tp2445
a(Vinsert
p2446
I42
VSimpleName: save
p2447
tp2448
a(Vinsert
p2449
I42
VSimpleName: isFalse
p2450
tp2451
a(Vinsert
p2452
I42
VSimpleName: setRequestProperty
p2453
tp2454
a(Vinsert
p2455
I42
VSimpleName: endsWith
p2456
tp2457
a(Vinsert
p2458
I42
VSimpleName: draw
p2459
tp2460
a(Vinsert
p2461
I42
VSimpleName: getConstructor
p2462
tp2463
a(Vinsert
p2464
I42
VSimpleName: connect
p2465
tp2466
a(Vinsert
p2467
I42
VSimpleName: createSeekableFinalTimeline
p2468
tp2469
a(Vinsert
p2470
I42
VSimpleName: assertOutput
p2471
tp2472
a(Vinsert
p2473
I42
VSimpleName: getFormat
p2474
tp2475
a(Vinsert
p2476
I42
VSimpleName: toLowerCase
p2477
tp2478
a(Vinsert
p2479
I42
VSimpleName: sniff
p2480
tp2481
a(Vinsert
p2482
I42
VSimpleName: getWindowLastPeriodIndex
p2483
tp2484
a(Vinsert
p2485
I42
VSimpleName: getFD
p2486
tp2487
a(Vinsert
p2488
I42
VSimpleName: getNextPeriodIndex
p2489
tp2490
a(Vinsert
p2491
I42
VSimpleName: isStartTag
p2492
tp2493
a(Vinsert
p2494
I42
VSimpleName: printf
p2495
tp2496
a(Vinsert
p2497
I42
VSimpleName: getBooleanExtra
p2498
tp2499
a(Vinsert
p2500
I42
VSimpleName: body
p2501
tp2502
a(Vinsert
p2503
I42
VSimpleName: readReset
p2504
tp2505
a(Vinsert
p2506
I42
VSimpleName: resolveToUri
p2507
tp2508
a(Vinsert
p2509
I42
VSimpleName: valueOf
p2510
tp2511
a(Vinsert
p2512
I42
VSimpleName: getLastWindowIndex
p2513
tp2514
a(Vinsert
p2515
I42
VSimpleName: isLoading
p2516
tp2517
a(Vinsert
p2518
I42
VSimpleName: initMocks
p2519
tp2520
a(Vinsert
p2521
I42
VSimpleName: onTimestampError
p2522
tp2523
a(Vinsert
p2524
I42
VSimpleName: adjustSampleTimestamp
p2525
tp2526
a(Vinsert
p2527
I42
VSimpleName: newFlagsOnlyInstance
p2528
tp2529
a(Vinsert
p2530
I42
VSimpleName: getNextManifestUrl
p2531
tp2532
a(Vinsert
p2533
I42
VSimpleName: setOutputSampleRateHz
p2534
tp2535
a(Vinsert
p2536
I42
VSimpleName: sort
p2537
tp2538
a(Vinsert
p2539
I42
VSimpleName: sniffTestData
p2540
tp2541
a(Vinsert
p2542
I42
VSimpleName: rechunk
p2543
tp2544
a(Vinsert
p2545
I42
VSimpleName: loadLibrary
p2546
tp2547
a(Vinsert
p2548
I42
VSimpleName: onReceive
p2549
tp2550
a(Vinsert
p2551
I42
VSimpleName: run
p2552
tp2553
a(Vinsert
p2554
I42
VSimpleName: isPrimaryTrack
p2555
tp2556
a(Vinsert
p2557
I42
VSimpleName: discardToRead
p2558
tp2559
a(Vinsert
p2560
I42
VSimpleName: setLimit
p2561
tp2562
a(Vinsert
p2563
I42
VSimpleName: setStyle
p2564
tp2565
a(Vinsert
p2566
I42
VSimpleName: assertEmpty
p2567
tp2568
a(Vinsert
p2569
I42
VSimpleName: recursiveDelete
p2570
tp2571
a(Vinsert
p2572
I42
VSimpleName: assertSourceInfosEquals
p2573
tp2574
a(Vinsert
p2575
I42
VSimpleName: isLinethrough
p2576
tp2577
a(Vinsert
p2578
I42
VSimpleName: loadCanceled
p2579
tp2580
a(Vinsert
p2581
I42
VSimpleName: isVideoSizeSupportedV21
p2582
tp2583
a(Vinsert
p2584
I42
VSimpleName: putString
p2585
tp2586
a(Vinsert
p2587
I42
VSimpleName: setChecked
p2588
tp2589
a(Vinsert
p2590
I42
VSimpleName: isNotNull
p2591
tp2592
a(Vinsert
p2593
I42
VSimpleName: getAttributeCount
p2594
tp2595
a(Vinsert
p2596
I42
VSimpleName: flush
p2597
tp2598
a(Vinsert
p2599
I42
VSimpleName: getChunkOperation
p2600
tp2601
a(Vinsert
p2602
I42
VSimpleName: createVideoSampleFormat
p2603
tp2604
a(Vinsert
p2605
I42
VSimpleName: setCurrentTrackStreamIsFinal
p2606
tp2607
a(Vinsert
p2608
I42
VSimpleName: toByteArray
p2609
tp2610
a(Vinsert
p2611
I42
VSimpleName: setStreamType
p2612
tp2613
a(Vinsert
p2614
I42
VSimpleName: getContentPosition
p2615
tp2616
a(Vinsert
p2617
I42
VSimpleName: getDiagnosticInfo
p2618
tp2619
a(Vinsert
p2620
I42
VSimpleName: binarySearchCeil
p2621
tp2622
a(Vinsert
p2623
I42
VSimpleName: setThreadPriority
p2624
tp2625
a(Vinsert
p2626
I42
VSimpleName: onAdClicked
p2627
tp2628
a(Vinsert
p2629
I42
VSimpleName: setItalic
p2630
tp2631
a(Vinsert
p2632
I42
VSimpleName: isChecked
p2633
tp2634
a(Vinsert
p2635
I42
VSimpleName: getRendererType
p2636
tp2637
a(Vinsert
p2638
I42
VSimpleName: onTransferStart
p2639
tp2640
a(Vinsert
p2641
I42
VSimpleName: getH265NalUnitType
p2642
tp2643
a(Vinsert
p2644
I42
VSimpleName: parseBaseUri
p2645
tp2646
a(Vinsert
p2647
I42
VSimpleName: equals
p2648
tp2649
a(Vinsert
p2650
I42
VSimpleName: setBackgrounded
p2651
tp2652
a(Vinsert
p2653
I42
VSimpleName: getCacheSpace
p2654
tp2655
a(Vinsert
p2656
I42
VSimpleName: copy
p2657
tp2658
a(Vinsert
p2659
I42
VSimpleName: parseCommonEncryptionSinfFromParent
p2660
tp2661
a(Vinsert
p2662
I42
VSimpleName: obtain
p2663
tp2664
a(Vinsert
p2665
I42
VSimpleName: attemptMerge
p2666
tp2667
a(Vinsert
p2668
I42
VSimpleName: put
p2669
tp2670
a(Vinsert
p2671
I42
VSimpleName: onSelectionActivated
p2672
tp2673
a(Vinsert
p2674
I42
VSimpleName: getAudioContentTypeForStreamType
p2675
tp2676
a(Vinsert
p2677
I42
VSimpleName: mark
p2678
tp2679
a(Vinsert
p2680
I42
VSimpleName: parseIlstElement
p2681
tp2682
a(Vinsert
p2683
I42
VSimpleName: onChunkLoaded
p2684
tp2685
a(Vinsert
p2686
I42
VSimpleName: onSource
p2687
tp2688
a(Vinsert
p2689
I42
VSimpleName: readLine
p2690
tp2691
a(Vinsert
p2692
I42
VSimpleName: createMediaPlaylistHlsUrl
p2693
tp2694
a(Vinsert
p2695
I42
VSimpleName: translateOffset
p2696
tp2697
a(Vinsert
p2698
I42
VSimpleName: getMediaFormat
p2699
tp2700
a(Vinsert
p2701
I42
VSimpleName: getHeight
p2702
tp2703
a(Vinsert
p2704
I42
VSimpleName: newSimpleInstance
p2705
tp2706
a(Vinsert
p2707
I42
VSimpleName: open
p2708
tp2709
a(Vinsert
p2710
I42
VSimpleName: isActionSegment
p2711
tp2712
a(Vinsert
p2713
I42
VSimpleName: setPlayWhenReady
p2714
tp2715
a(Vinsert
p2716
I42
VSimpleName: releaseOutputBuffer
p2717
tp2718
a(Vinsert
p2719
I42
VSimpleName: usToMs
p2720
tp2721
a(Vinsert
p2722
I42
VSimpleName: isText
p2723
tp2724
a(Vinsert
p2725
I42
VSimpleName: formatWithOffset
p2726
tp2727
a(Vinsert
p2728
I42
VSimpleName: createTracks
p2729
tp2730
a(Vinsert
p2731
I42
VSimpleName: supportsFormat
p2732
tp2733
a(Vinsert
p2734
I42
VSimpleName: getPlaybackHeadPosition
p2735
tp2736
a(Vinsert
p2737
I42
VSimpleName: onPrepared
p2738
tp2739
a(Vinsert
p2740
I42
VSimpleName: releaseHoleSpan
p2741
tp2742
a(Vinsert
p2743
I42
VSimpleName: parseCueText
p2744
tp2745
a(Vinsert
p2746
I42
VSimpleName: doThrowExceptionsAtPeek
p2747
tp2748
a(Vinsert
p2749
I42
VSimpleName: configure
p2750
tp2751
a(Vinsert
p2752
I42
VSimpleName: getErrorCode
p2753
tp2754
a(Vinsert
p2755
I42
VSimpleName: max
p2756
tp2757
a(Vinsert
p2758
I42
VSimpleName: valueAt
p2759
tp2760
a(Vinsert
p2761
I42
VSimpleName: setWidevineInfo
p2762
tp2763
a(Vinsert
p2764
I42
VSimpleName: selectEmbeddedTrack
p2765
tp2766
a(Vinsert
p2767
I42
VSimpleName: getStyle
p2768
tp2769
a(Vinsert
p2770
I42
VSimpleName: maybeThrowError
p2771
tp2772
a(Vinsert
p2773
I42
VSimpleName: getHexString
p2774
tp2775
a(Vinsert
p2776
I42
VSimpleName: isEncrypted
p2777
tp2778
a(Vinsert
p2779
I42
VSimpleName: init
p2780
tp2781
a(Vinsert
p2782
I42
VSimpleName: getArgbColorFromCeaColor
p2783
tp2784
a(Vinsert
p2785
I42
VSimpleName: getDefaultUrl
p2786
tp2787
a(Vinsert
p2788
I42
VSimpleName: onChunkLoadError
p2789
tp2790
a(Vinsert
p2791
I42
VSimpleName: addListener
p2792
tp2793
a(Vinsert
p2794
I42
VSimpleName: removeMessages
p2795
tp2796
a(Vinsert
p2797
I42
VSimpleName: parseUdta
p2798
tp2799
a(Vinsert
p2800
I42
VSimpleName: matcher
p2801
tp2802
a(Vinsert
p2803
I42
VSimpleName: dvbSubsDecode
p2804
tp2805
a(Vinsert
p2806
I42
VSimpleName: forceStop
p2807
tp2808
a(Vinsert
p2809
I42
VSimpleName: size
p2810
tp2811
a(Vinsert
p2812
I42
VSimpleName: getKeys
p2813
tp2814
a(Vinsert
p2815
I42
VSimpleName: clone
p2816
tp2817
a(Vinsert
p2818
I42
VSimpleName: sendToTarget
p2819
tp2820
a(Vinsert
p2821
I42
VSimpleName: digit
p2822
tp2823
a(Vinsert
p2824
I42
VSimpleName: getSpeed
p2825
tp2826
a(Vinsert
p2827
I42
VSimpleName: setSoTimeout
p2828
tp2829
a(Vinsert
p2830
I42
VSimpleName: getName
p2831
tp2832
a(Vinsert
p2833
I42
VSimpleName: getAdData
p2834
tp2835
a(Vinsert
p2836
I42
VSimpleName: followRedirect
p2837
tp2838
a(Vinsert
p2839
I42
VSimpleName: resolvePeriodPositionForAds
p2840
tp2841
a(Vinsert
p2842
I42
VSimpleName: createForRenderer
p2843
tp2844
a(Vinsert
p2845
I42
VSimpleName: setHeader
p2846
tp2847
a(Vinsert
p2848
I42
VSimpleName: performClick
p2849
tp2850
a(Vinsert
p2851
I42
VSimpleName: discardUpstreamSamples
p2852
tp2853
a(Vinsert
p2854
I42
VSimpleName: onAdTapped
p2855
tp2856
a(Vinsert
p2857
I42
VSimpleName: onVideoEnabled
p2858
tp2859
a(Vinsert
p2860
I42
VSimpleName: play
p2861
tp2862
a(Vinsert
p2863
I42
VSimpleName: isLocalFileUri
p2864
tp2865
a(Vinsert
p2866
I42
VSimpleName: getPackageManager
p2867
tp2868
a(Vinsert
p2869
I42
VSimpleName: createStreamReader
p2870
tp2871
a(Vinsert
p2872
I42
VSimpleName: getNalUnitType
p2873
tp2874
a(Vinsert
p2875
I42
VSimpleName: getDuration
p2876
tp2877
a(Vinsert
p2878
I42
VSimpleName: isHttps
p2879
tp2880
a(Vinsert
p2881
I42
VSimpleName: createWindow
p2882
tp2883
a(Vinsert
p2884
I42
VSimpleName: getMediaMimeType
p2885
tp2886
a(Vinsert
p2887
I42
VSimpleName: elapsedRealtime
p2888
tp2889
a.