(lp0
(Vinsert
p1
I42
VSimpleName: handleReset
p2
tp3
a(Vinsert
p4
I42
VSimpleName: getWorkerPool
p5
tp6
a(Vinsert
p7
I42
VSimpleName: isAvailable
p8
tp9
a(Vinsert
p10
I42
VSimpleName: getField
p11
tp12
a(Vinsert
p13
I42
VSimpleName: clientUsesAlpn
p14
tp15
a(Vinsert
p16
I42
VSimpleName: setPath
p17
tp18
a(Vinsert
p19
I42
VSimpleName: createOptimized
p20
tp21
a(Vinsert
p22
I42
VSimpleName: setInitialWindowSize
p23
tp24
a(Vinsert
p25
I42
VSimpleName: alloc
p26
tp27
a(Vinsert
p28
I42
VSimpleName: setMaxHeaderSize
p29
tp30
a(Vinsert
p31
I42
VSimpleName: shutdownGracefully
p32
tp33
a(Vinsert
p34
I42
VSimpleName: getJmxDomain
p35
tp36
a(Vinsert
p37
I42
VSimpleName: isCompressionSupported
p38
tp39
a(Vinsert
p40
I42
VSimpleName: address
p41
tp42
a(Vinsert
p43
I42
VSimpleName: clientVerifyHost
p44
tp45
a(Vinsert
p46
I42
VSimpleName: setHostPort
p47
tp48
a(Vinsert
p49
I42
VSimpleName: applicationProtocol
p50
tp51
a(Vinsert
p52
I42
VSimpleName: setFollowRedirects
p53
tp54
a(Vinsert
p55
I42
VSimpleName: setMaxEventLoopExecuteTime
p56
tp57
a(Vinsert
p58
I42
VSimpleName: messageSent
p59
tp60
a(Vinsert
p61
I42
VSimpleName: setFactory
p62
tp63
a(Vinsert
p64
I42
VSimpleName: succeededFuture
p65
tp66
a(Vinsert
p67
I42
VSimpleName: readerIndex
p68
tp69
a(Vinsert
p70
I42
VSimpleName: createNewFile
p71
tp72
a(Vinsert
p73
I42
VSimpleName: initialWindowSize
p74
tp75
a(Vinsert
p76
I42
VSimpleName: loadFactories
p77
tp78
a(Vinsert
p79
I42
VSimpleName: consume
p80
tp81
a(Vinsert
p82
I42
VSimpleName: contains
p83
tp84
a(Vinsert
p85
I42
VSimpleName: reset
p86
tp87
a(Vinsert
p88
I42
VSimpleName: addNull
p89
tp90
a(Vinsert
p91
I42
VSimpleName: exceptionOccurred
p92
tp93
a(Vinsert
p94
I42
VSimpleName: cancelTimer
p95
tp96
a(Vinsert
p97
I42
VSimpleName: unmodifiableList
p98
tp99
a(Vinsert
p100
I42
VSimpleName: containsIgnoringCase
p101
tp102
a(Vinsert
p103
I42
VSimpleName: setValidity
p104
tp105
a(Vinsert
p106
I42
VSimpleName: getPemTrustOptions
p107
tp108
a(Vinsert
p109
I42
VSimpleName: setTimeout
p110
tp111
a(Vinsert
p112
I42
VSimpleName: getCount
p113
tp114
a(Vinsert
p115
I42
VSimpleName: setQueryTimeout
p116
tp117
a(Vinsert
p118
I42
VSimpleName: release
p119
tp120
a(Vinsert
p121
I42
VSimpleName: getIdleTimeout
p122
tp123
a(Vinsert
p124
I42
VSimpleName: setHeaderTableSize
p125
tp126
a(Vinsert
p127
I42
VSimpleName: singletonMap
p128
tp129
a(Vinsert
p130
I42
VSimpleName: cause
p131
tp132
a(Vinsert
p133
I42
VSimpleName: testLookupNonExisting
p134
tp135
a(Vinsert
p136
I42
VSimpleName: path
p137
tp138
a(Vinsert
p139
I42
VSimpleName: sleep
p140
tp141
a(Vinsert
p142
I42
VSimpleName: isEmpty
p143
tp144
a(Vinsert
p145
I42
VSimpleName: setUnmaskedFrame
p146
tp147
a(Vinsert
p148
I42
VSimpleName: isOptionAssigned
p149
tp150
a(Vinsert
p151
I42
VSimpleName: putHeader
p152
tp153
a(Vinsert
p154
I42
VSimpleName: encoder
p155
tp156
a(Vinsert
p157
I42
VSimpleName: isReplaceExisting
p158
tp159
a(Vinsert
p160
I42
VSimpleName: getCause
p161
tp162
a(Vinsert
p163
I42
VSimpleName: executeStart
p164
tp165
a(Vinsert
p166
I42
VSimpleName: isPerformFrameUnmasking
p167
tp168
a(Vinsert
p169
I42
VSimpleName: head
p170
tp171
a(Vinsert
p172
I42
VSimpleName: remoteName
p173
tp174
a(Vinsert
p175
I42
VSimpleName: resolveFile
p176
tp177
a(Vinsert
p178
I42
VSimpleName: serverUsesSni
p179
tp180
a(Vinsert
p181
I42
VSimpleName: randomUUID
p182
tp183
a(Vinsert
p184
I42
VSimpleName: lookup4
p185
tp186
a(Vinsert
p187
I42
VSimpleName: getDefaultPort
p188
tp189
a(Vinsert
p190
I42
VSimpleName: getParentFile
p191
tp192
a(Vinsert
p193
I42
VSimpleName: poll
p194
tp195
a(Vinsert
p196
I42
VSimpleName: getUnsignedShort
p197
tp198
a(Vinsert
p199
I42
VSimpleName: toCopyOptionSet
p200
tp201
a(Vinsert
p202
I42
VSimpleName: println
p203
tp204
a(Vinsert
p205
I42
VSimpleName: textFrame
p206
tp207
a(Vinsert
p208
I42
VSimpleName: stop
p209
tp210
a(Vinsert
p211
I42
VSimpleName: getArgName
p212
tp213
a(Vinsert
p214
I42
VSimpleName: getenv
p215
tp216
a(Vinsert
p217
I42
VSimpleName: host
p218
tp219
a(Vinsert
p220
I42
VSimpleName: entrySet
p221
tp222
a(Vinsert
p223
I42
VSimpleName: getConnection
p224
tp225
a(Vinsert
p226
I42
VSimpleName: config
p227
tp228
a(Vinsert
p229
I42
VSimpleName: setDnsName
p230
tp231
a(Vinsert
p232
I42
VSimpleName: isCreate
p233
tp234
a(Vinsert
p235
I42
VSimpleName: setContextClassLoader
p236
tp237
a(Vinsert
p238
I42
VSimpleName: order
p239
tp240
a(Vinsert
p241
I42
VSimpleName: setEnabled
p242
tp243
a(Vinsert
p244
I42
VSimpleName: header
p245
tp246
a(Vinsert
p247
I42
VSimpleName: getDouble
p248
tp249
a(Vinsert
p250
I42
VSimpleName: server
p251
tp252
a(Vinsert
p253
I42
VSimpleName: sendWithTimeout
p254
tp255
a(Vinsert
p256
I42
VSimpleName: dec
p257
tp258
a(Vinsert
p259
I42
VSimpleName: registerHandler
p260
tp261
a(Vinsert
p262
I42
VSimpleName: getMap
p263
tp264
a(Vinsert
p265
I42
VSimpleName: equalsIgnoreCase
p266
tp267
a(Vinsert
p268
I42
VSimpleName: getIsolationGroup
p269
tp270
a(Vinsert
p271
I42
VSimpleName: getKeyStore
p272
tp273
a(Vinsert
p274
I42
VSimpleName: launcher
p275
tp276
a(Vinsert
p277
I42
VSimpleName: delete
p278
tp279
a(Vinsert
p280
I42
VSimpleName: createCluster
p281
tp282
a(Vinsert
p283
I42
VSimpleName: replyWithTimeout
p284
tp285
a(Vinsert
p286
I42
VSimpleName: loadCerts
p287
tp288
a(Vinsert
p289
I42
VSimpleName: writeFrame
p290
tp291
a(Vinsert
p292
I42
VSimpleName: handleException
p293
tp294
a(Vinsert
p295
I42
VSimpleName: textData
p296
tp297
a(Vinsert
p298
I42
VSimpleName: newVertx
p299
tp300
a(Vinsert
p301
I42
VSimpleName: getSslEngineOptions
p302
tp303
a(Vinsert
p304
I42
VSimpleName: replyFailure
p305
tp306
a(Vinsert
p307
I42
VSimpleName: getSnapshot
p308
tp309
a(Vinsert
p310
I42
VSimpleName: isReadable
p311
tp312
a(Vinsert
p313
I42
VSimpleName: getClusterPingReplyInterval
p314
tp315
a(Vinsert
p316
I42
VSimpleName: setWarningExceptionTime
p317
tp318
a(Vinsert
p319
I42
VSimpleName: invoke
p320
tp321
a(Vinsert
p322
I42
VSimpleName: parsePath
p323
tp324
a(Vinsert
p325
I42
VSimpleName: slice
p326
tp327
a(Vinsert
p328
I42
VSimpleName: attr
p329
tp330
a(Vinsert
p331
I42
VSimpleName: toObject
p332
tp333
a(Vinsert
p334
I42
VSimpleName: getInt
p335
tp336
a(Vinsert
p337
I42
VSimpleName: isSNI
p338
tp339
a(Vinsert
p340
I42
VSimpleName: workerPool
p341
tp342
a(Vinsert
p343
I42
VSimpleName: randomByteArray
p344
tp345
a(Vinsert
p346
I42
VSimpleName: transport
p347
tp348
a(Vinsert
p349
I42
VSimpleName: exitBecauseOfVertxDeploymentIssue
p350
tp351
a(Vinsert
p352
I42
VSimpleName: compute
p353
tp354
a(Vinsert
p355
I42
VSimpleName: handleAuthorise
p356
tp357
a(Vinsert
p358
I42
VSimpleName: setPipelining
p359
tp360
a(Vinsert
p361
I42
VSimpleName: toJson
p362
tp363
a(Vinsert
p364
I42
VSimpleName: isLocal
p365
tp366
a(Vinsert
p367
I42
VSimpleName: writerIndex
p368
tp369
a(Vinsert
p370
I42
VSimpleName: isSuccess
p371
tp372
a(Vinsert
p373
I42
VSimpleName: setPfxTrustOptions
p374
tp375
a(Vinsert
p376
I42
VSimpleName: handleChunk
p377
tp378
a(Vinsert
p379
I42
VSimpleName: createVertx
p380
tp381
a(Vinsert
p382
I42
VSimpleName: recycle
p383
tp384
a(Vinsert
p385
I42
VSimpleName: nettyAddressResolverGroup
p386
tp387
a(Vinsert
p388
I42
VSimpleName: getCrlPaths
p389
tp390
a(Vinsert
p391
I42
VSimpleName: isClosed
p392
tp393
a(Vinsert
p394
I42
VSimpleName: set
p395
tp396
a(Vinsert
p397
I42
VSimpleName: loadFactory
p398
tp399
a(Vinsert
p400
I42
VSimpleName: startsWith
p401
tp402
a(Vinsert
p403
I42
VSimpleName: setSucceeded
p404
tp405
a(Vinsert
p406
I42
VSimpleName: setProxyHost
p407
tp408
a(Vinsert
p409
I42
VSimpleName: addressResolver
p410
tp411
a(Vinsert
p412
I42
VSimpleName: clientPeerCert
p413
tp414
a(Vinsert
p415
I42
VSimpleName: handshakeFuture
p416
tp417
a(Vinsert
p418
I42
VSimpleName: setParentProperty
p419
tp420
a(Vinsert
p421
I42
VSimpleName: remove
p422
tp423
a(Vinsert
p424
I42
VSimpleName: unregisterVerticleFactory
p425
tp426
a(Vinsert
p427
I42
VSimpleName: peerCertificateChain
p428
tp429
a(Vinsert
p430
I42
VSimpleName: isIpV6
p431
tp432
a(Vinsert
p433
I42
VSimpleName: endpointConnected
p434
tp435
a(Vinsert
p436
I42
VSimpleName: getRequest
p437
tp438
a(Vinsert
p439
I42
VSimpleName: setOpenSslEngineOptions
p440
tp441
a(Vinsert
p442
I42
VSimpleName: setProxyType
p443
tp444
a(Vinsert
p445
I42
VSimpleName: getNextEntry
p446
tp447
a(Vinsert
p448
I42
VSimpleName: serverSni
p449
tp450
a(Vinsert
p451
I42
VSimpleName: getNow
p452
tp453
a(Vinsert
p454
I42
VSimpleName: getContextClassLoader
p455
tp456
a(Vinsert
p457
I42
VSimpleName: getWorkerPoolSize
p458
tp459
a(Vinsert
p460
I42
VSimpleName: completedFuture
p461
tp462
a(Vinsert
p463
I42
VSimpleName: getAddress
p464
tp465
a(Vinsert
p466
I42
VSimpleName: appendByte
p467
tp468
a(Vinsert
p469
I42
VSimpleName: eventLoopSize
p470
tp471
a(Vinsert
p472
I42
VSimpleName: decodeResponse
p473
tp474
a(Vinsert
p475
I42
VSimpleName: forceDirectAllocator
p476
tp477
a(Vinsert
p478
I42
VSimpleName: writeHeaders
p479
tp480
a(Vinsert
p481
I42
VSimpleName: setWebsocketSubProtocol
p482
tp483
a(Vinsert
p484
I42
VSimpleName: removeHandler
p485
tp486
a(Vinsert
p487
I42
VSimpleName: setKeyCertOptions
p488
tp489
a(Vinsert
p490
I42
VSimpleName: eventLoopGroup
p491
tp492
a(Vinsert
p493
I42
VSimpleName: drainHandler
p494
tp495
a(Vinsert
p496
I42
VSimpleName: headerTableSize
p497
tp498
a(Vinsert
p499
I42
VSimpleName: mapEmpty
p500
tp501
a(Vinsert
p502
I42
VSimpleName: getLocalAddress
p503
tp504
a(Vinsert
p505
I42
VSimpleName: getDeploymentID
p506
tp507
a(Vinsert
p508
I42
VSimpleName: indexOf
p509
tp510
a(Vinsert
p511
I42
VSimpleName: setKeyStoreOptions
p512
tp513
a(Vinsert
p514
I42
VSimpleName: addArgument
p515
tp516
a(Vinsert
p517
I42
VSimpleName: addCrlPath
p518
tp519
a(Vinsert
p520
I42
VSimpleName: closeHandler
p521
tp522
a(Vinsert
p523
I42
VSimpleName: setIsolatedClasses
p524
tp525
a(Vinsert
p526
I42
VSimpleName: split
p527
tp528
a(Vinsert
p529
I42
VSimpleName: params
p530
tp531
a(Vinsert
p532
I42
VSimpleName: setSendTimeout
p533
tp534
a(Vinsert
p535
I42
VSimpleName: getPreferNativeTransport
p536
tp537
a(Vinsert
p538
I42
VSimpleName: random
p539
tp540
a(Vinsert
p541
I42
VSimpleName: getMaxHeaderSize
p542
tp543
a(Vinsert
p544
I42
VSimpleName: fromString
p545
tp546
a(Vinsert
p547
I42
VSimpleName: writeGoAway
p548
tp549
a(Vinsert
p550
I42
VSimpleName: pongFrame
p551
tp552
a(Vinsert
p553
I42
VSimpleName: setWindowSize
p554
tp555
a(Vinsert
p556
I42
VSimpleName: indicatedServerName
p557
tp558
a(Vinsert
p559
I42
VSimpleName: safeBuffer
p560
tp561
a(Vinsert
p562
I42
VSimpleName: setWrite
p563
tp564
a(Vinsert
p565
I42
VSimpleName: requestHandler
p566
tp567
a(Vinsert
p568
I42
VSimpleName: parseSilently
p569
tp570
a(Vinsert
p571
I42
VSimpleName: getHostAddress
p572
tp573
a(Vinsert
p574
I42
VSimpleName: writeRstStream
p575
tp576
a(Vinsert
p577
I42
VSimpleName: readInt
p578
tp579
a(Vinsert
p580
I42
VSimpleName: determineContentEncoding
p581
tp582
a(Vinsert
p583
I42
VSimpleName: isFlag
p584
tp585
a(Vinsert
p586
I42
VSimpleName: value
p587
tp588
a(Vinsert
p589
I42
VSimpleName: end
p590
tp591
a(Vinsert
p592
I42
VSimpleName: clientCert
p593
tp594
a(Vinsert
p595
I42
VSimpleName: clientTrustAll
p596
tp597
a(Vinsert
p598
I42
VSimpleName: endHandler
p599
tp600
a(Vinsert
p601
I42
VSimpleName: connection
p602
tp603
a(Vinsert
p604
I42
VSimpleName: isEqualTo
p605
tp606
a(Vinsert
p607
I42
VSimpleName: handleDataReceived
p608
tp609
a(Vinsert
p610
I42
VSimpleName: requestBegin
p611
tp612
a(Vinsert
p613
I42
VSimpleName: deleteOnExit
p614
tp615
a(Vinsert
p616
I42
VSimpleName: getMaxPoolSize
p617
tp618
a(Vinsert
p619
I42
VSimpleName: isReuseAddress
p620
tp621
a(Vinsert
p622
I42
VSimpleName: getProxyOperationTimeout
p623
tp624
a(Vinsert
p625
I42
VSimpleName: setMaxConcurrentStreams
p626
tp627
a(Vinsert
p628
I42
VSimpleName: parse
p629
tp630
a(Vinsert
p631
I42
VSimpleName: hashCode
p632
tp633
a(Vinsert
p634
I42
VSimpleName: deploymentOptions
p635
tp636
a(Vinsert
p637
I42
VSimpleName: getVertx
p638
tp639
a(Vinsert
p640
I42
VSimpleName: setKeyValue
p641
tp642
a(Vinsert
p643
I42
VSimpleName: sender
p644
tp645
a(Vinsert
p646
I42
VSimpleName: toPath
p647
tp648
a(Vinsert
p649
I42
VSimpleName: setBytes
p650
tp651
a(Vinsert
p652
I42
VSimpleName: digest
p653
tp654
a(Vinsert
p655
I42
VSimpleName: ended
p656
tp657
a(Vinsert
p658
I42
VSimpleName: removeFromHA
p659
tp660
a(Vinsert
p661
I42
VSimpleName: all
p662
tp663
a(Vinsert
p664
I42
VSimpleName: stream
p665
tp666
a(Vinsert
p667
I42
VSimpleName: request
p668
tp669
a(Vinsert
p670
I42
VSimpleName: getKeyCertOptions
p671
tp672
a(Vinsert
p673
I42
VSimpleName: keySet
p674
tp675
a(Vinsert
p676
I42
VSimpleName: nextBoolean
p677
tp678
a(Vinsert
p679
I42
VSimpleName: getCurrentRequest
p680
tp681
a(Vinsert
p682
I42
VSimpleName: testComplete
p683
tp684
a(Vinsert
p685
I42
VSimpleName: vertx
p686
tp687
a(Vinsert
p688
I42
VSimpleName: timerStream
p689
tp690
a(Vinsert
p691
I42
VSimpleName: bytesWritten
p692
tp693
a(Vinsert
p694
I42
VSimpleName: setSslEngine
p695
tp696
a(Vinsert
p697
I42
VSimpleName: result
p698
tp699
a(Vinsert
p700
I42
VSimpleName: setForceUri
p701
tp702
a(Vinsert
p703
I42
VSimpleName: isStarted
p704
tp705
a(Vinsert
p706
I42
VSimpleName: setWritable
p707
tp708
a(Vinsert
p709
I42
VSimpleName: isNativeTransport
p710
tp711
a(Vinsert
p712
I42
VSimpleName: setDnsType
p713
tp714
a(Vinsert
p715
I42
VSimpleName: voidPromise
p716
tp717
a(Vinsert
p718
I42
VSimpleName: getMaxHeaderListSize
p719
tp720
a(Vinsert
p721
I42
VSimpleName: newDelimited
p722
tp723
a(Vinsert
p724
I42
VSimpleName: decoderResult
p725
tp726
a(Vinsert
p727
I42
VSimpleName: nanoTime
p728
tp729
a(Vinsert
p730
I42
VSimpleName: lastIndexOf
p731
tp732
a(Vinsert
p733
I42
VSimpleName: forEach
p734
tp735
a(Vinsert
p736
I42
VSimpleName: addHeader
p737
tp738
a(Vinsert
p739
I42
VSimpleName: touch
p740
tp741
a(Vinsert
p742
I42
VSimpleName: isAnonymousClass
p743
tp744
a(Vinsert
p745
I42
VSimpleName: requiresClientAuth
p746
tp747
a(Vinsert
p748
I42
VSimpleName: randomUnicodeString
p749
tp750
a(Vinsert
p751
I42
VSimpleName: enqueue
p752
tp753
a(Vinsert
p754
I42
VSimpleName: isAskingForHelp
p755
tp756
a(Vinsert
p757
I42
VSimpleName: setEnabledProtocols
p758
tp759
a(Vinsert
p760
I42
VSimpleName: encodePrettily
p761
tp762
a(Vinsert
p763
I42
VSimpleName: flowController
p764
tp765
a(Vinsert
p766
I42
VSimpleName: unwrap
p767
tp768
a(Vinsert
p769
I42
VSimpleName: range
p770
tp771
a(Vinsert
p772
I42
VSimpleName: setType
p773
tp774
a(Vinsert
p775
I42
VSimpleName: fromVertxInitialSettings
p776
tp777
a(Vinsert
p778
I42
VSimpleName: runOnContext
p779
tp780
a(Vinsert
p781
I42
VSimpleName: error
p782
tp783
a(Vinsert
p784
I42
VSimpleName: collect
p785
tp786
a(Vinsert
p787
I42
VSimpleName: writeToBuffer
p788
tp789
a(Vinsert
p790
I42
VSimpleName: getOptions
p791
tp792
a(Vinsert
p793
I42
VSimpleName: debug
p794
tp795
a(Vinsert
p796
I42
VSimpleName: moduleUndeployed
p797
tp798
a(Vinsert
p799
I42
VSimpleName: putNull
p800
tp801
a(Vinsert
p802
I42
VSimpleName: isComplete
p803
tp804
a(Vinsert
p805
I42
VSimpleName: getResourceAsStream
p806
tp807
a(Vinsert
p808
I42
VSimpleName: getSendBufferSize
p809
tp810
a(Vinsert
p811
I42
VSimpleName: convertValue
p812
tp813
a(Vinsert
p814
I42
VSimpleName: getPath
p815
tp816
a(Vinsert
p817
I42
VSimpleName: writeBuffer
p818
tp819
a(Vinsert
p820
I42
VSimpleName: isSizeAvailable
p821
tp822
a(Vinsert
p823
I42
VSimpleName: leave
p824
tp825
a(Vinsert
p826
I42
VSimpleName: setJmxDomain
p827
tp828
a(Vinsert
p829
I42
VSimpleName: pass
p830
tp831
a(Vinsert
p832
I42
VSimpleName: foo
p833
tp834
a(Vinsert
p835
I42
VSimpleName: getKey
p836
tp837
a(Vinsert
p838
I42
VSimpleName: eventBus
p839
tp840
a(Vinsert
p841
I42
VSimpleName: getRedeployGracePeriod
p842
tp843
a(Vinsert
p844
I42
VSimpleName: doAssert
p845
tp846
a(Vinsert
p847
I42
VSimpleName: toUnsignedLong
p848
tp849
a(Vinsert
p850
I42
VSimpleName: getWarningExceptionTime
p851
tp852
a(Vinsert
p853
I42
VSimpleName: readUnsignedByte
p854
tp855
a(Vinsert
p856
I42
VSimpleName: getClass
p857
tp858
a(Vinsert
p859
I42
VSimpleName: getLong
p860
tp861
a(Vinsert
p862
I42
VSimpleName: setShortName
p863
tp864
a(Vinsert
p865
I42
VSimpleName: searchDomains
p866
tp867
a(Vinsert
p868
I42
VSimpleName: pushHandler
p869
tp870
a(Vinsert
p871
I42
VSimpleName: destroy
p872
tp873
a(Vinsert
p874
I42
VSimpleName: writeString
p875
tp876
a(Vinsert
p877
I42
VSimpleName: getLogManager
p878
tp879
a(Vinsert
p880
I42
VSimpleName: setKeepAlive
p881
tp882
a(Vinsert
p883
I42
VSimpleName: deployVerticle
p884
tp885
a(Vinsert
p886
I42
VSimpleName: websocketStream
p887
tp888
a(Vinsert
p889
I42
VSimpleName: cancel
p890
tp891
a(Vinsert
p892
I42
VSimpleName: setIndex
p893
tp894
a(Vinsert
p895
I42
VSimpleName: completer
p896
tp897
a(Vinsert
p898
I42
VSimpleName: currentThread
p899
tp900
a(Vinsert
p901
I42
VSimpleName: nextLong
p902
tp903
a(Vinsert
p904
I42
VSimpleName: emptyList
p905
tp906
a(Vinsert
p907
I42
VSimpleName: setKeyStorePath
p908
tp909
a(Vinsert
p910
I42
VSimpleName: removeChild
p911
tp912
a(Vinsert
p913
I42
VSimpleName: retainedDuplicate
p914
tp915
a(Vinsert
p916
I42
VSimpleName: writeToChannel
p917
tp918
a(Vinsert
p919
I42
VSimpleName: getMaxChunkSize
p920
tp921
a(Vinsert
p922
I42
VSimpleName: help
p923
tp924
a(Vinsert
p925
I42
VSimpleName: setMaxPoolSize
p926
tp927
a(Vinsert
p928
I42
VSimpleName: clientTrust
p929
tp930
a(Vinsert
p931
I42
VSimpleName: remoteAddress
p932
tp933
a(Vinsert
p934
I42
VSimpleName: type
p935
tp936
a(Vinsert
p937
I42
VSimpleName: nettyEventLoopGroup
p938
tp939
a(Vinsert
p940
I42
VSimpleName: setRequired
p941
tp942
a(Vinsert
p943
I42
VSimpleName: bind
p944
tp945
a(Vinsert
p946
I42
VSimpleName: isWritable
p947
tp948
a(Vinsert
p949
I42
VSimpleName: expectWebsockets
p950
tp951
a(Vinsert
p952
I42
VSimpleName: getSocket
p953
tp954
a(Vinsert
p955
I42
VSimpleName: getList
p956
tp957
a(Vinsert
p958
I42
VSimpleName: dispatch
p959
tp960
a(Vinsert
p961
I42
VSimpleName: setParameters
p962
tp963
a(Vinsert
p964
I42
VSimpleName: disconnect
p965
tp966
a(Vinsert
p967
I42
VSimpleName: setHAGroup
p968
tp969
a(Vinsert
p970
I42
VSimpleName: getProtocolVersion
p971
tp972
a(Vinsert
p973
I42
VSimpleName: setMetricsOptions
p974
tp975
a(Vinsert
p976
I42
VSimpleName: eventBusInitialized
p977
tp978
a(Vinsert
p979
I42
VSimpleName: hasName
p980
tp981
a(Vinsert
p982
I42
VSimpleName: setClusterPort
p983
tp984
a(Vinsert
p985
I42
VSimpleName: load
p986
tp987
a(Vinsert
p988
I42
VSimpleName: currentTimeMillis
p989
tp990
a(Vinsert
p991
I42
VSimpleName: getBlockedThreadCheckPeriod
p992
tp993
a(Vinsert
p994
I42
VSimpleName: caseInsensitiveMultiMap
p995
tp996
a(Vinsert
p997
I42
VSimpleName: computeIfAbsent
p998
tp999
a(Vinsert
p1000
I42
VSimpleName: setCharAt
p1001
tp1002
a(Vinsert
p1003
I42
VSimpleName: createMessage
p1004
tp1005
a(Vinsert
p1006
I42
VSimpleName: clear
p1007
tp1008
a(Vinsert
p1009
I42
VSimpleName: exceptionHandler
p1010
tp1011
a(Vinsert
p1012
I42
VSimpleName: addFailoverCompleteHandler
p1013
tp1014
a(Vinsert
p1015
I42
VSimpleName: setMaxInitialLineLength
p1016
tp1017
a(Vinsert
p1018
I42
VSimpleName: setThrown
p1019
tp1020
a(Vinsert
p1021
I42
VSimpleName: define
p1022
tp1023
a(Vinsert
p1024
I42
VSimpleName: setProtocolVersion
p1025
tp1026
a(Vinsert
p1027
I42
VSimpleName: setStatusCode
p1028
tp1029
a(Vinsert
p1030
I42
VSimpleName: toArray
p1031
tp1032
a(Vinsert
p1033
I42
VSimpleName: handleInterestedOpsChanged
p1034
tp1035
a(Vinsert
p1036
I42
VSimpleName: toList
p1037
tp1038
a(Vinsert
p1039
I42
VSimpleName: urlToPath
p1040
tp1041
a(Vinsert
p1042
I42
VSimpleName: failedFuture
p1043
tp1044
a(Vinsert
p1045
I42
VSimpleName: message
p1046
tp1047
a(Vinsert
p1048
I42
VSimpleName: handleResponseEnd
p1049
tp1050
a(Vinsert
p1051
I42
VSimpleName: newRouteMatcher
p1052
tp1053
a(Vinsert
p1054
I42
VSimpleName: tmpFile
p1055
tp1056
a(Vinsert
p1057
I42
VSimpleName: getPassword
p1058
tp1059
a(Vinsert
p1060
I42
VSimpleName: any
p1061
tp1062
a(Vinsert
p1063
I42
VSimpleName: sendHead
p1064
tp1065
a(Vinsert
p1066
I42
VSimpleName: fromInt
p1067
tp1068
a(Vinsert
p1069
I42
VSimpleName: refCnt
p1070
tp1071
a(Vinsert
p1072
I42
VSimpleName: transform
p1073
tp1074
a(Vinsert
p1075
I42
VSimpleName: createHttpClient
p1076
tp1077
a(Vinsert
p1078
I42
VSimpleName: clientEnabledSecureTransportProtocol
p1079
tp1080
a(Vinsert
p1081
I42
VSimpleName: getParameterTypes
p1082
tp1083
a(Vinsert
p1084
I42
VSimpleName: setPort
p1085
tp1086
a(Vinsert
p1087
I42
VSimpleName: containsKey
p1088
tp1089
a(Vinsert
p1090
I42
VSimpleName: isEnabled
p1091
tp1092
a(Vinsert
p1093
I42
VSimpleName: taskSubmitted
p1094
tp1095
a(Vinsert
p1096
I42
VSimpleName: executeFromIO
p1097
tp1098
a(Vinsert
p1099
I42
VSimpleName: options
p1100
tp1101
a(Vinsert
p1102
I42
VSimpleName: isOptResourceEnabled
p1103
tp1104
a(Vinsert
p1105
I42
VSimpleName: optionsFromJson
p1106
tp1107
a(Vinsert
p1108
I42
VSimpleName: disconnected
p1109
tp1110
a(Vinsert
p1111
I42
VSimpleName: setEnablePush
p1112
tp1113
a(Vinsert
p1114
I42
VSimpleName: addEnabledCipherSuite
p1115
tp1116
a(Vinsert
p1117
I42
VSimpleName: registerDefaultCodec
p1118
tp1119
a(Vinsert
p1120
I42
VSimpleName: isEndOfInput
p1121
tp1122
a(Vinsert
p1123
I42
VSimpleName: getHttp2ConnectionWindowSize
p1124
tp1125
a(Vinsert
p1126
I42
VSimpleName: uploadHandler
p1127
tp1128
a(Vinsert
p1129
I42
VSimpleName: addLast
p1130
tp1131
a(Vinsert
p1132
I42
VSimpleName: endReadAndFlush
p1133
tp1134
a(Vinsert
p1135
I42
VSimpleName: pump
p1136
tp1137
a(Vinsert
p1138
I42
VSimpleName: addChoice
p1139
tp1140
a(Vinsert
p1141
I42
VSimpleName: createNetServer
p1142
tp1143
a(Vinsert
p1144
I42
VSimpleName: isTcpQuickAck
p1145
tp1146
a(Vinsert
p1147
I42
VSimpleName: append
p1148
tp1149
a(Vinsert
p1150
I42
VSimpleName: setSuccess
p1151
tp1152
a(Vinsert
p1153
I42
VSimpleName: setNofollowLinks
p1154
tp1155
a(Vinsert
p1156
I42
VSimpleName: assertNotCompleted
p1157
tp1158
a(Vinsert
p1159
I42
VSimpleName: setAlpnVersions
p1160
tp1161
a(Vinsert
p1162
I42
VSimpleName: getTrailer
p1163
tp1164
a(Vinsert
p1165
I42
VSimpleName: consumer
p1166
tp1167
a(Vinsert
p1168
I42
VSimpleName: newFixed
p1169
tp1170
a(Vinsert
p1171
I42
VSimpleName: enqueueRequest
p1172
tp1173
a(Vinsert
p1174
I42
VSimpleName: match
p1175
tp1176
a(Vinsert
p1177
I42
VSimpleName: isLoopbackModeDisabled
p1178
tp1179
a(Vinsert
p1180
I42
VSimpleName: writabilityChanged
p1181
tp1182
a(Vinsert
p1183
I42
VSimpleName: getClusterManager
p1184
tp1185
a(Vinsert
p1186
I42
VSimpleName: setMaxBufferedMessages
p1187
tp1188
a(Vinsert
p1189
I42
VSimpleName: channelHandlerContext
p1190
tp1191
a(Vinsert
p1192
I42
VSimpleName: getInstance
p1193
tp1194
a(Vinsert
p1195
I42
VSimpleName: getPool
p1196
tp1197
a(Vinsert
p1198
I42
VSimpleName: connectWebsocket
p1199
tp1200
a(Vinsert
p1201
I42
VSimpleName: setCodecName
p1202
tp1203
a(Vinsert
p1204
I42
VSimpleName: info
p1205
tp1206
a(Vinsert
p1207
I42
VSimpleName: setClusterPublicPort
p1208
tp1209
a(Vinsert
p1210
I42
VSimpleName: createSSLEngine
p1211
tp1212
a(Vinsert
p1213
I42
VSimpleName: getCode
p1214
tp1215
a(Vinsert
p1216
I42
VSimpleName: fail
p1217
tp1218
a(Vinsert
p1219
I42
VSimpleName: createNetClient
p1220
tp1221
a(Vinsert
p1222
I42
VSimpleName: unregister
p1223
tp1224
a(Vinsert
p1225
I42
VSimpleName: buffer
p1226
tp1227
a(Vinsert
p1228
I42
VSimpleName: getClientTrustOptions
p1229
tp1230
a(Vinsert
p1231
I42
VSimpleName: add
p1232
tp1233
a(Vinsert
p1234
I42
VSimpleName: getPeerCertificateChain
p1235
tp1236
a(Vinsert
p1237
I42
VSimpleName: isCreateNew
p1238
tp1239
a(Vinsert
p1240
I42
VSimpleName: getLocalName
p1241
tp1242
a(Vinsert
p1243
I42
VSimpleName: addServer
p1244
tp1245
a(Vinsert
p1246
I42
VSimpleName: compose
p1247
tp1248
a(Vinsert
p1249
I42
VSimpleName: getDecoder
p1250
tp1251
a(Vinsert
p1252
I42
VSimpleName: execute
p1253
tp1254
a(Vinsert
p1255
I42
VSimpleName: getEnabledCipherSuites
p1256
tp1257
a(Vinsert
p1258
I42
VSimpleName: getScheme
p1259
tp1260
a(Vinsert
p1261
I42
VSimpleName: getMetrics
p1262
tp1263
a(Vinsert
p1264
I42
VSimpleName: getSslHelper
p1265
tp1266
a(Vinsert
p1267
I42
VSimpleName: getAndIncrement
p1268
tp1269
a(Vinsert
p1270
I42
VSimpleName: appendString
p1271
tp1272
a(Vinsert
p1273
I42
VSimpleName: ofInstant
p1274
tp1275
a(Vinsert
p1276
I42
VSimpleName: endHandleMessage
p1277
tp1278
a(Vinsert
p1279
I42
VSimpleName: randomAlphaString
p1280
tp1281
a(Vinsert
p1282
I42
VSimpleName: getHeader
p1283
tp1284
a(Vinsert
p1285
I42
VSimpleName: sendFile
p1286
tp1287
a(Vinsert
p1288
I42
VSimpleName: isFailure
p1289
tp1290
a(Vinsert
p1291
I42
VSimpleName: bodyStream
p1292
tp1293
a(Vinsert
p1294
I42
VSimpleName: putNumber
p1295
tp1296
a(Vinsert
p1297
I42
VSimpleName: fireUserEventTriggered
p1298
tp1299
a(Vinsert
p1300
I42
VSimpleName: sharedData
p1301
tp1302
a(Vinsert
p1303
I42
VSimpleName: hasNext
p1304
tp1305
a(Vinsert
p1306
I42
VSimpleName: beforeLeave
p1307
tp1308
a(Vinsert
p1309
I42
VSimpleName: length
p1310
tp1311
a(Vinsert
p1312
I42
VSimpleName: isAlpnAvailable
p1313
tp1314
a(Vinsert
p1315
I42
VSimpleName: getBytes
p1316
tp1317
a(Vinsert
p1318
I42
VSimpleName: iterator
p1319
tp1320
a(Vinsert
p1321
I42
VSimpleName: resetResponse
p1322
tp1323
a(Vinsert
p1324
I42
VSimpleName: resolve
p1325
tp1326
a(Vinsert
p1327
I42
VSimpleName: setErr
p1328
tp1329
a(Vinsert
p1330
I42
VSimpleName: writeClosed
p1331
tp1332
a(Vinsert
p1333
I42
VSimpleName: isWorkerContext
p1334
tp1335
a(Vinsert
p1336
I42
VSimpleName: getClassLoader
p1337
tp1338
a(Vinsert
p1339
I42
VSimpleName: formAttributes
p1340
tp1341
a(Vinsert
p1342
I42
VSimpleName: getProxyPassword
p1343
tp1344
a(Vinsert
p1345
I42
VSimpleName: selectedSubprotocol
p1346
tp1347
a(Vinsert
p1348
I42
VSimpleName: resume
p1349
tp1350
a(Vinsert
p1351
I42
VSimpleName: connectionClosed
p1352
tp1353
a(Vinsert
p1354
I42
VSimpleName: getReconnectAttempts
p1355
tp1356
a(Vinsert
p1357
I42
VSimpleName: intValue
p1358
tp1359
a(Vinsert
p1360
I42
VSimpleName: chooseHandler
p1361
tp1362
a(Vinsert
p1363
I42
VSimpleName: singletonList
p1364
tp1365
a(Vinsert
p1366
I42
VSimpleName: isSsl
p1367
tp1368
a(Vinsert
p1369
I42
VSimpleName: inet6Entries
p1370
tp1371
a(Vinsert
p1372
I42
VSimpleName: setTimer
p1373
tp1374
a(Vinsert
p1375
I42
VSimpleName: getMetricsName
p1376
tp1377
a(Vinsert
p1378
I42
VSimpleName: setConnectionExceptionHandler
p1379
tp1380
a(Vinsert
p1381
I42
VSimpleName: getPrintStream
p1382
tp1383
a(Vinsert
p1384
I42
VSimpleName: fromVertxSettings
p1385
tp1386
a(Vinsert
p1387
I42
VSimpleName: getCanonicalName
p1388
tp1389
a(Vinsert
p1390
I42
VSimpleName: setKeyPaths
p1391
tp1392
a(Vinsert
p1393
I42
VSimpleName: isForceClose
p1394
tp1395
a(Vinsert
p1396
I42
VSimpleName: setExecutionContext
p1397
tp1398
a(Vinsert
p1399
I42
VSimpleName: newInstance
p1400
tp1401
a(Vinsert
p1402
I42
VSimpleName: resolveAsync
p1403
tp1404
a(Vinsert
p1405
I42
VSimpleName: replace
p1406
tp1407
a(Vinsert
p1408
I42
VSimpleName: doSetWriteQueueMaxSize
p1409
tp1410
a(Vinsert
p1411
I42
VSimpleName: isDecompressionSupported
p1412
tp1413
a(Vinsert
p1414
I42
VSimpleName: getEnumConstants
p1415
tp1416
a(Vinsert
p1417
I42
VSimpleName: pushPromiseHandler
p1418
tp1419
a(Vinsert
p1420
I42
VSimpleName: getMethod
p1421
tp1422
a(Vinsert
p1423
I42
VSimpleName: generateRandomByteArray
p1424
tp1425
a(Vinsert
p1426
I42
VSimpleName: getRawQuery
p1427
tp1428
a(Vinsert
p1429
I42
VSimpleName: getHeaderTableSize
p1430
tp1431
a(Vinsert
p1432
I42
VSimpleName: toString
p1433
tp1434
a(Vinsert
p1435
I42
VSimpleName: compareTo
p1436
tp1437
a(Vinsert
p1438
I42
VSimpleName: aliases
p1439
tp1440
a(Vinsert
p1441
I42
VSimpleName: isAlpnSupported
p1442
tp1443
a(Vinsert
p1444
I42
VSimpleName: periodicStream
p1445
tp1446
a(Vinsert
p1447
I42
VSimpleName: addCloseHook
p1448
tp1449
a(Vinsert
p1450
I42
VSimpleName: setTrustStore
p1451
tp1452
a(Vinsert
p1453
I42
VSimpleName: resolveCNAME
p1454
tp1455
a(Vinsert
p1456
I42
VSimpleName: join
p1457
tp1458
a(Vinsert
p1459
I42
VSimpleName: charAt
p1460
tp1461
a(Vinsert
p1462
I42
VSimpleName: deploymentID
p1463
tp1464
a(Vinsert
p1465
I42
VSimpleName: doPause
p1466
tp1467
a(Vinsert
p1468
I42
VSimpleName: close
p1469
tp1470
a(Vinsert
p1471
I42
VSimpleName: requireInRange
p1472
tp1473
a(Vinsert
p1474
I42
VSimpleName: ofNullable
p1475
tp1476
a(Vinsert
p1477
I42
VSimpleName: buffersEqual
p1478
tp1479
a(Vinsert
p1480
I42
VSimpleName: addKeyPath
p1481
tp1482
a(Vinsert
p1483
I42
VSimpleName: addCertPath
p1484
tp1485
a(Vinsert
p1486
I42
VSimpleName: getProperty
p1487
tp1488
a(Vinsert
p1489
I42
VSimpleName: format
p1490
tp1491
a(Vinsert
p1492
I42
VSimpleName: succeeded
p1493
tp1494
a(Vinsert
p1495
I42
VSimpleName: response
p1496
tp1497
a(Vinsert
p1498
I42
VSimpleName: setMulticastNetworkInterface
p1499
tp1500
a(Vinsert
p1501
I42
VSimpleName: setMaxStreams
p1502
tp1503
a(Vinsert
p1504
I42
VSimpleName: decode
p1505
tp1506
a(Vinsert
p1507
I42
VSimpleName: setCacheMaxTimeToLive
p1508
tp1509
a(Vinsert
p1510
I42
VSimpleName: getContext
p1511
tp1512
a(Vinsert
p1513
I42
VSimpleName: requestReset
p1514
tp1515
a(Vinsert
p1516
I42
VSimpleName: responsePushed
p1517
tp1518
a(Vinsert
p1519
I42
VSimpleName: getExecutor
p1520
tp1521
a(Vinsert
p1522
I42
VSimpleName: encode
p1523
tp1524
a(Vinsert
p1525
I42
VSimpleName: next
p1526
tp1527
a(Vinsert
p1528
I42
VSimpleName: setKeyPath
p1529
tp1530
a(Vinsert
p1531
I42
VSimpleName: getSslEngine
p1532
tp1533
a(Vinsert
p1534
I42
VSimpleName: min
p1535
tp1536
a(Vinsert
p1537
I42
VSimpleName: getFloat
p1538
tp1539
a(Vinsert
p1540
I42
VSimpleName: simulateEventBusUnresponsive
p1541
tp1542
a(Vinsert
p1543
I42
VSimpleName: setTrafficClass
p1544
tp1545
a(Vinsert
p1546
I42
VSimpleName: require
p1547
tp1548
a(Vinsert
p1549
I42
VSimpleName: setInternalBlockingPoolSize
p1550
tp1551
a(Vinsert
p1552
I42
VSimpleName: connectionHandler
p1553
tp1554
a(Vinsert
p1555
I42
VSimpleName: shutdownRedeployment
p1556
tp1557
a(Vinsert
p1558
I42
VSimpleName: leaveGroup
p1559
tp1560
a(Vinsert
p1561
I42
VSimpleName: setName
p1562
tp1563
a(Vinsert
p1564
I42
VSimpleName: fileSystem
p1565
tp1566
a(Vinsert
p1567
I42
VSimpleName: metricsSPI
p1568
tp1569
a(Vinsert
p1570
I42
VSimpleName: send
p1571
tp1572
a(Vinsert
p1573
I42
VSimpleName: assertEquals
p1574
tp1575
a(Vinsert
p1576
I42
VSimpleName: getByName
p1577
tp1578
a(Vinsert
p1579
I42
VSimpleName: resetWriterIndex
p1580
tp1581
a(Vinsert
p1582
I42
VSimpleName: isOnWorkerThread
p1583
tp1584
a(Vinsert
p1585
I42
VSimpleName: isHandle100ContinueAutomatically
p1586
tp1587
a(Vinsert
p1588
I42
VSimpleName: publish
p1589
tp1590
a(Vinsert
p1591
I42
VSimpleName: getJsonObject
p1592
tp1593
a(Vinsert
p1594
I42
VSimpleName: newSockJSServer
p1595
tp1596
a(Vinsert
p1597
I42
VSimpleName: isOpenSslSessionCacheEnabled
p1598
tp1599
a(Vinsert
p1600
I42
VSimpleName: read
p1601
tp1602
a(Vinsert
p1603
I42
VSimpleName: isOnEventLoopThread
p1604
tp1605
a(Vinsert
p1606
I42
VSimpleName: cnOf
p1607
tp1608
a(Vinsert
p1609
I42
VSimpleName: getProperties
p1610
tp1611
a(Vinsert
p1612
I42
VSimpleName: getArray
p1613
tp1614
a(Vinsert
p1615
I42
VSimpleName: owner
p1616
tp1617
a(Vinsert
p1618
I42
VSimpleName: start
p1619
tp1620
a(Vinsert
p1621
I42
VSimpleName: entries
p1622
tp1623
a(Vinsert
p1624
I42
VSimpleName: isFileResolverCachingEnabled
p1625
tp1626
a(Vinsert
p1627
I42
VSimpleName: getJsonArray
p1628
tp1629
a(Vinsert
p1630
I42
VSimpleName: endRequest
p1631
tp1632
a(Vinsert
p1633
I42
VSimpleName: handleEnd
p1634
tp1635
a(Vinsert
p1636
I42
VSimpleName: loadClass
p1637
tp1638
a(Vinsert
p1639
I42
VSimpleName: getByte
p1640
tp1641
a(Vinsert
p1642
I42
VSimpleName: statusMessage
p1643
tp1644
a(Vinsert
p1645
I42
VSimpleName: hasAttr
p1646
tp1647
a(Vinsert
p1648
I42
VSimpleName: await
p1649
tp1650
a(Vinsert
p1651
I42
VSimpleName: content
p1652
tp1653
a(Vinsert
p1654
I42
VSimpleName: trim
p1655
tp1656
a(Vinsert
p1657
I42
VSimpleName: synchronizedList
p1658
tp1659
a(Vinsert
p1660
I42
VSimpleName: open
p1661
tp1662
a(Vinsert
p1663
I42
VSimpleName: unknownFrameHandler
p1664
tp1665
a(Vinsert
p1666
I42
VSimpleName: binaryFrame
p1667
tp1668
a(Vinsert
p1669
I42
VSimpleName: getProcessArguments
p1670
tp1671
a(Vinsert
p1672
I42
VSimpleName: uri
p1673
tp1674
a(Vinsert
p1675
I42
VSimpleName: getInternalBlockingPoolSize
p1676
tp1677
a(Vinsert
p1678
I42
VSimpleName: getHttp2MultiplexingLimit
p1679
tp1680
a(Vinsert
p1681
I42
VSimpleName: isOnCorrectWorker
p1682
tp1683
a(Vinsert
p1684
I42
VSimpleName: status
p1685
tp1686
a(Vinsert
p1687
I42
VSimpleName: removePrefix
p1688
tp1689
a(Vinsert
p1690
I42
VSimpleName: undeployAll
p1691
tp1692
a(Vinsert
p1693
I42
VSimpleName: removeCookieHeaders
p1694
tp1695
a(Vinsert
p1696
I42
VSimpleName: writeNumber
p1697
tp1698
a(Vinsert
p1699
I42
VSimpleName: setClustered
p1700
tp1701
a(Vinsert
p1702
I42
VSimpleName: cast
p1703
tp1704
a(Vinsert
p1705
I42
VSimpleName: randomPositiveLong
p1706
tp1707
a(Vinsert
p1708
I42
VSimpleName: registerThread
p1709
tp1710
a(Vinsert
p1711
I42
VSimpleName: isWindows
p1712
tp1713
a(Vinsert
p1714
I42
VSimpleName: isAcceptUnmaskedFrames
p1715
tp1716
a(Vinsert
p1717
I42
VSimpleName: write100Continue
p1718
tp1719
a(Vinsert
p1720
I42
VSimpleName: isVerifyHost
p1721
tp1722
a(Vinsert
p1723
I42
VSimpleName: writeUTF
p1724
tp1725
a(Vinsert
p1726
I42
VSimpleName: isUseAlpn
p1727
tp1728
a(Vinsert
p1729
I42
VSimpleName: setTrustStoreOptions
p1730
tp1731
a(Vinsert
p1732
I42
VSimpleName: setProperty
p1733
tp1734
a(Vinsert
p1735
I42
VSimpleName: getRdns
p1736
tp1737
a(Vinsert
p1738
I42
VSimpleName: terminate
p1739
tp1740
a(Vinsert
p1741
I42
VSimpleName: maxConcurrentStreams
p1742
tp1743
a(Vinsert
p1744
I42
VSimpleName: setConfig
p1745
tp1746
a(Vinsert
p1747
I42
VSimpleName: createTempFile
p1748
tp1749
a(Vinsert
p1750
I42
VSimpleName: configureFromSystemProperties
p1751
tp1752
a(Vinsert
p1753
I42
VSimpleName: setWriteBufferHighWaterMark
p1754
tp1755
a(Vinsert
p1756
I42
VSimpleName: setUseClientMode
p1757
tp1758
a(Vinsert
p1759
I42
VSimpleName: isWorker
p1760
tp1761
a(Vinsert
p1762
I42
VSimpleName: setProxyPort
p1763
tp1764
a(Vinsert
p1765
I42
VSimpleName: setDaemon
p1766
tp1767
a(Vinsert
p1768
I42
VSimpleName: getInitialBufferSizeHttpDecoder
p1769
tp1770
a(Vinsert
p1771
I42
VSimpleName: setWriteQueueMaxSize
p1772
tp1773
a(Vinsert
p1774
I42
VSimpleName: getAdditionalResources
p1775
tp1776
a(Vinsert
p1777
I42
VSimpleName: getNextWaiter
p1778
tp1779
a(Vinsert
p1780
I42
VSimpleName: getByteBuf
p1781
tp1782
a(Vinsert
p1783
I42
VSimpleName: setWorkerPoolSize
p1784
tp1785
a(Vinsert
p1786
I42
VSimpleName: retain
p1787
tp1788
a(Vinsert
p1789
I42
VSimpleName: returnConnection
p1790
tp1791
a(Vinsert
p1792
I42
VSimpleName: setProxyOptions
p1793
tp1794
a(Vinsert
p1795
I42
VSimpleName: toCharArray
p1796
tp1797
a(Vinsert
p1798
I42
VSimpleName: logIfEnabled
p1799
tp1800
a(Vinsert
p1801
I42
VSimpleName: incrementAndGet
p1802
tp1803
a(Vinsert
p1804
I42
VSimpleName: parseInt
p1805
tp1806
a(Vinsert
p1807
I42
VSimpleName: nextElement
p1808
tp1809
a(Vinsert
p1810
I42
VSimpleName: fromInstance
p1811
tp1812
a(Vinsert
p1813
I42
VSimpleName: trySuccess
p1814
tp1815
a(Vinsert
p1816
I42
VSimpleName: reject
p1817
tp1818
a(Vinsert
p1819
I42
VSimpleName: createStream
p1820
tp1821
a(Vinsert
p1822
I42
VSimpleName: getShort
p1823
tp1824
a(Vinsert
p1825
I42
VSimpleName: getHeaders
p1826
tp1827
a(Vinsert
p1828
I42
VSimpleName: azzert
p1829
tp1830
a(Vinsert
p1831
I42
VSimpleName: handlerUnregistered
p1832
tp1833
a(Vinsert
p1834
I42
VSimpleName: setTryUseCompression
p1835
tp1836
a(Vinsert
p1837
I42
VSimpleName: getLocalMap
p1838
tp1839
a(Vinsert
p1840
I42
VSimpleName: getSoLinger
p1841
tp1842
a(Vinsert
p1843
I42
VSimpleName: writeShort
p1844
tp1845
a(Vinsert
p1846
I42
VSimpleName: unregisterCodec
p1847
tp1848
a(Vinsert
p1849
I42
VSimpleName: onHttpClientUpgrade
p1850
tp1851
a(Vinsert
p1852
I42
VSimpleName: isSend
p1853
tp1854
a(Vinsert
p1855
I42
VSimpleName: httpClientMetrics
p1856
tp1857
a(Vinsert
p1858
I42
VSimpleName: hasMoreElements
p1859
tp1860
a(Vinsert
p1861
I42
VSimpleName: create
p1862
tp1863
a(Vinsert
p1864
I42
VSimpleName: setSsl
p1865
tp1866
a(Vinsert
p1867
I42
VSimpleName: getAbsoluteFile
p1868
tp1869
a(Vinsert
p1870
I42
VSimpleName: isDebugEnabled
p1871
tp1872
a(Vinsert
p1873
I42
VSimpleName: checkThread
p1874
tp1875
a(Vinsert
p1876
I42
VSimpleName: setHook
p1877
tp1878
a(Vinsert
p1879
I42
VSimpleName: writeSettings
p1880
tp1881
a(Vinsert
p1882
I42
VSimpleName: asList
p1883
tp1884
a(Vinsert
p1885
I42
VSimpleName: getMaxConcurrentStreams
p1886
tp1887
a(Vinsert
p1888
I42
VSimpleName: skipBytes
p1889
tp1890
a(Vinsert
p1891
I42
VSimpleName: toVertxSettings
p1892
tp1893
a(Vinsert
p1894
I42
VSimpleName: getMethodName
p1895
tp1896
a(Vinsert
p1897
I42
VSimpleName: setPeriodic
p1898
tp1899
a(Vinsert
p1900
I42
VSimpleName: setSslEngineOptions
p1901
tp1902
a(Vinsert
p1903
I42
VSimpleName: setPosixFilePermissions
p1904
tp1905
a(Vinsert
p1906
I42
VSimpleName: deployModule
p1907
tp1908
a(Vinsert
p1909
I42
VSimpleName: setHandler
p1910
tp1911
a(Vinsert
p1912
I42
VSimpleName: removeRegistration
p1913
tp1914
a(Vinsert
p1915
I42
VSimpleName: connected
p1916
tp1917
a(Vinsert
p1918
I42
VSimpleName: randomPositiveInt
p1919
tp1920
a(Vinsert
p1921
I42
VSimpleName: getLogger
p1922
tp1923
a(Vinsert
p1924
I42
VSimpleName: putString
p1925
tp1926
a(Vinsert
p1927
I42
VSimpleName: cli
p1928
tp1929
a(Vinsert
p1930
I42
VSimpleName: list
p1931
tp1932
a(Vinsert
p1933
I42
VSimpleName: setHandlerContext
p1934
tp1935
a(Vinsert
p1936
I42
VSimpleName: parseRotateOptionFromResolvConf
p1937
tp1938
a(Vinsert
p1939
I42
VSimpleName: getModuleGraph
p1940
tp1941
a(Vinsert
p1942
I42
VSimpleName: getOutstandingRequestCount
p1943
tp1944
a(Vinsert
p1945
I42
VSimpleName: call
p1946
tp1947
a(Vinsert
p1948
I42
VSimpleName: createProxy
p1949
tp1950
a(Vinsert
p1951
I42
VSimpleName: accept
p1952
tp1953
a(Vinsert
p1954
I42
VSimpleName: keyManagerMapper
p1955
tp1956
a(Vinsert
p1957
I42
VSimpleName: clusterManager
p1958
tp1959
a(Vinsert
p1960
I42
VSimpleName: clientSSL
p1961
tp1962
a(Vinsert
p1963
I42
VSimpleName: getValue
p1964
tp1965
a(Vinsert
p1966
I42
VSimpleName: setProxyUsername
p1967
tp1968
a(Vinsert
p1969
I42
VSimpleName: printStackTrace
p1970
tp1971
a(Vinsert
p1972
I42
VSimpleName: query
p1973
tp1974
a(Vinsert
p1975
I42
VSimpleName: isPushEnabled
p1976
tp1977
a(Vinsert
p1978
I42
VSimpleName: sentBody
p1979
tp1980
a(Vinsert
p1981
I42
VSimpleName: isMultiThreaded
p1982
tp1983
a(Vinsert
p1984
I42
VSimpleName: setIdleTimeout
p1985
tp1986
a(Vinsert
p1987
I42
VSimpleName: newFixedThreadPool
p1988
tp1989
a(Vinsert
p1990
I42
VSimpleName: clusterSerializable
p1991
tp1992
a(Vinsert
p1993
I42
VSimpleName: getLastUri
p1994
tp1995
a(Vinsert
p1996
I42
VSimpleName: createHttpServer
p1997
tp1998
a(Vinsert
p1999
I42
VSimpleName: write
p2000
tp2001
a(Vinsert
p2002
I42
VSimpleName: getJsonObjectMap
p2003
tp2004
a(Vinsert
p2005
I42
VSimpleName: getContent
p2006
tp2007
a(Vinsert
p2008
I42
VSimpleName: createSslHandler
p2009
tp2010
a(Vinsert
p2011
I42
VSimpleName: getClusterPublicHost
p2012
tp2013
a(Vinsert
p2014
I42
VSimpleName: deployments
p2015
tp2016
a(Vinsert
p2017
I42
VSimpleName: isValid
p2018
tp2019
a(Vinsert
p2020
I42
VSimpleName: isSni
p2021
tp2022
a(Vinsert
p2023
I42
VSimpleName: removeLast
p2024
tp2025
a(Vinsert
p2026
I42
VSimpleName: statusCode
p2027
tp2028
a(Vinsert
p2029
I42
VSimpleName: register
p2030
tp2031
a(Vinsert
p2032
I42
VSimpleName: runCloseHooks
p2033
tp2034
a(Vinsert
p2035
I42
VSimpleName: getSni
p2036
tp2037
a(Vinsert
p2038
I42
VSimpleName: retainAll
p2039
tp2040
a(Vinsert
p2041
I42
VSimpleName: method
p2042
tp2043
a(Vinsert
p2044
I42
VSimpleName: addCertValue
p2045
tp2046
a(Vinsert
p2047
I42
VSimpleName: setRequestURI
p2048
tp2049
a(Vinsert
p2050
I42
VSimpleName: encodeToBuffer
p2051
tp2052
a(Vinsert
p2053
I42
VSimpleName: getAndSet
p2054
tp2055
a(Vinsert
p2056
I42
VSimpleName: createUnresolved
p2057
tp2058
a(Vinsert
p2059
I42
VSimpleName: subProtocol
p2060
tp2061
a(Vinsert
p2062
I42
VSimpleName: isMultithreaded
p2063
tp2064
a(Vinsert
p2065
I42
VSimpleName: isFinal
p2066
tp2067
a(Vinsert
p2068
I42
VSimpleName: getResolver
p2069
tp2070
a(Vinsert
p2071
I42
VSimpleName: numberOfCompletedTasks
p2072
tp2073
a(Vinsert
p2074
I42
VSimpleName: getMimeTypeForFilename
p2075
tp2076
a(Vinsert
p2077
I42
VSimpleName: getOrCreateContext
p2078
tp2079
a(Vinsert
p2080
I42
VSimpleName: code
p2081
tp2082
a(Vinsert
p2083
I42
VSimpleName: getAbsolutePath
p2084
tp2085
a(Vinsert
p2086
I42
VSimpleName: negativeTtl
p2087
tp2088
a(Vinsert
p2089
I42
VSimpleName: parseNdotsOptionFromResolvConf
p2090
tp2091
a(Vinsert
p2092
I42
VSimpleName: dnsClient
p2093
tp2094
a(Vinsert
p2095
I42
VSimpleName: print
p2096
tp2097
a(Vinsert
p2098
I42
VSimpleName: future
p2099
tp2100
a(Vinsert
p2101
I42
VSimpleName: setLoggerName
p2102
tp2103
a(Vinsert
p2104
I42
VSimpleName: sync
p2105
tp2106
a(Vinsert
p2107
I42
VSimpleName: getServerKeyCertOptions
p2108
tp2109
a(Vinsert
p2110
I42
VSimpleName: setUsername
p2111
tp2112
a(Vinsert
p2113
I42
VSimpleName: context
p2114
tp2115
a(Vinsert
p2116
I42
VSimpleName: appendBuffer
p2117
tp2118
a(Vinsert
p2119
I42
VSimpleName: getEnabledSecureTransportProtocols
p2120
tp2121
a(Vinsert
p2122
I42
VSimpleName: pushEnabled
p2123
tp2124
a(Vinsert
p2125
I42
VSimpleName: newParser
p2126
tp2127
a(Vinsert
p2128
I42
VSimpleName: dispose
p2129
tp2130
a(Vinsert
p2131
I42
VSimpleName: main
p2132
tp2133
a(Vinsert
p2134
I42
VSimpleName: responseEnded
p2135
tp2136
a(Vinsert
p2137
I42
VSimpleName: authority
p2138
tp2139
a(Vinsert
p2140
I42
VSimpleName: getMessage
p2141
tp2142
a(Vinsert
p2143
I42
VSimpleName: getInteger
p2144
tp2145
a(Vinsert
p2146
I42
VSimpleName: writeTextMessage
p2147
tp2148
a(Vinsert
p2149
I42
VSimpleName: move
p2150
tp2151
a(Vinsert
p2152
I42
VSimpleName: addAll
p2153
tp2154
a(Vinsert
p2155
I42
VSimpleName: fireChannelRead
p2156
tp2157
a(Vinsert
p2158
I42
VSimpleName: getThreadMXBean
p2159
tp2160
a(Vinsert
p2161
I42
VSimpleName: setPemKeyCertOptions
p2162
tp2163
a(Vinsert
p2164
I42
VSimpleName: perform
p2165
tp2166
a(Vinsert
p2167
I42
VSimpleName: channelFuture
p2168
tp2169
a(Vinsert
p2170
I42
VSimpleName: log
p2171
tp2172
a(Vinsert
p2173
I42
VSimpleName: isHidden
p2174
tp2175
a(Vinsert
p2176
I42
VSimpleName: now
p2177
tp2178
a(Vinsert
p2179
I42
VSimpleName: appReady
p2180
tp2181
a(Vinsert
p2182
I42
VSimpleName: toURI
p2183
tp2184
a(Vinsert
p2185
I42
VSimpleName: setLongName
p2186
tp2187
a(Vinsert
p2188
I42
VSimpleName: handshakeFailure
p2189
tp2190
a(Vinsert
p2191
I42
VSimpleName: priority
p2192
tp2193
a(Vinsert
p2194
I42
VSimpleName: port
p2195
tp2196
a(Vinsert
p2197
I42
VSimpleName: setChunked
p2198
tp2199
a(Vinsert
p2200
I42
VSimpleName: arraycopy
p2201
tp2202
a(Vinsert
p2203
I42
VSimpleName: getExtraClasspath
p2204
tp2205
a(Vinsert
p2206
I42
VSimpleName: exists
p2207
tp2208
a(Vinsert
p2209
I42
VSimpleName: setIoRatio
p2210
tp2211
a(Vinsert
p2212
I42
VSimpleName: getCrlValues
p2213
tp2214
a(Vinsert
p2215
I42
VSimpleName: getCompressionLevel
p2216
tp2217
a(Vinsert
p2218
I42
VSimpleName: setOut
p2219
tp2220
a(Vinsert
p2221
I42
VSimpleName: getBoolean
p2222
tp2223
a(Vinsert
p2224
I42
VSimpleName: build
p2225
tp2226
a(Vinsert
p2227
I42
VSimpleName: addBinary
p2228
tp2229
a(Vinsert
p2230
I42
VSimpleName: createEngine
p2231
tp2232
a(Vinsert
p2233
I42
VSimpleName: setGroup
p2234
tp2235
a(Vinsert
p2236
I42
VSimpleName: substring
p2237
tp2238
a(Vinsert
p2239
I42
VSimpleName: getClusterHost
p2240
tp2241
a(Vinsert
p2242
I42
VSimpleName: apply
p2243
tp2244
a(Vinsert
p2245
I42
VSimpleName: forName
p2246
tp2247
a(Vinsert
p2248
I42
VSimpleName: getIfEligible
p2249
tp2250
a(Vinsert
p2251
I42
VSimpleName: setContext
p2252
tp2253
a(Vinsert
p2254
I42
VSimpleName: getStackTrace
p2255
tp2256
a(Vinsert
p2257
I42
VSimpleName: reportException
p2258
tp2259
a(Vinsert
p2260
I42
VSimpleName: setDnsClass
p2261
tp2262
a(Vinsert
p2263
I42
VSimpleName: wrapperFactory
p2264
tp2265
a(Vinsert
p2266
I42
VSimpleName: nextInt
p2267
tp2268
a(Vinsert
p2269
I42
VSimpleName: local
p2270
tp2271
a(Vinsert
p2272
I42
VSimpleName: executor
p2273
tp2274
a(Vinsert
p2275
I42
VSimpleName: verticleFactories
p2276
tp2277
a(Vinsert
p2278
I42
VSimpleName: getMaxWaitQueueSize
p2279
tp2280
a(Vinsert
p2281
I42
VSimpleName: readValue
p2282
tp2283
a(Vinsert
p2284
I42
VSimpleName: getExtraSettings
p2285
tp2286
a(Vinsert
p2287
I42
VSimpleName: getAcceptBacklog
p2288
tp2289
a(Vinsert
p2290
I42
VSimpleName: getLoopbackAddress
p2291
tp2292
a(Vinsert
p2293
I42
VSimpleName: isUnmaskedFrame
p2294
tp2295
a(Vinsert
p2296
I42
VSimpleName: clusteredVertx
p2297
tp2298
a(Vinsert
p2299
I42
VSimpleName: connect
p2300
tp2301
a(Vinsert
p2302
I42
VSimpleName: from
p2303
tp2304
a(Vinsert
p2305
I42
VSimpleName: copiedBuffer
p2306
tp2307
a(Vinsert
p2308
I42
VSimpleName: isEventLoopContext
p2309
tp2310
a(Vinsert
p2311
I42
VSimpleName: ping
p2312
tp2313
a(Vinsert
p2314
I42
VSimpleName: handler
p2315
tp2316
a(Vinsert
p2317
I42
VSimpleName: setNeedsCopy
p2318
tp2319
a(Vinsert
p2320
I42
VSimpleName: get
p2321
tp2322
a(Vinsert
p2323
I42
VSimpleName: failureType
p2324
tp2325
a(Vinsert
p2326
I42
VSimpleName: listFiles
p2327
tp2328
a(Vinsert
p2329
I42
VSimpleName: values
p2330
tp2331
a(Vinsert
p2332
I42
VSimpleName: heapBuffer
p2333
tp2334
a(Vinsert
p2335
I42
VSimpleName: getCanonicalPath
p2336
tp2337
a(Vinsert
p2338
I42
VSimpleName: init
p2339
tp2340
a(Vinsert
p2341
I42
VSimpleName: getChoices
p2342
tp2343
a(Vinsert
p2344
I42
VSimpleName: resolveCache
p2345
tp2346
a(Vinsert
p2347
I42
VSimpleName: isSessionCacheEnabled
p2348
tp2349
a(Vinsert
p2350
I42
VSimpleName: channel
p2351
tp2352
a(Vinsert
p2353
I42
VSimpleName: setReconnectInterval
p2354
tp2355
a(Vinsert
p2356
I42
VSimpleName: goAwayReceived
p2357
tp2358
a(Vinsert
p2359
I42
VSimpleName: lineSeparator
p2360
tp2361
a(Vinsert
p2362
I42
VSimpleName: getHttp2Settings
p2363
tp2364
a(Vinsert
p2365
I42
VSimpleName: setRedeploy
p2366
tp2367
a(Vinsert
p2368
I42
VSimpleName: localAddress
p2369
tp2370
a(Vinsert
p2371
I42
VSimpleName: lookup6
p2372
tp2373
a(Vinsert
p2374
I42
VSimpleName: reply
p2375
tp2376
a(Vinsert
p2377
I42
VSimpleName: resolveMainClassName
p2378
tp2379
a(Vinsert
p2380
I42
VSimpleName: callEndHandler
p2381
tp2382
a(Vinsert
p2383
I42
VSimpleName: onCompletion
p2384
tp2385
a(Vinsert
p2386
I42
VSimpleName: failed
p2387
tp2388
a(Vinsert
p2389
I42
VSimpleName: getProxyOptions
p2390
tp2391
a(Vinsert
p2392
I42
VSimpleName: bodyHandler
p2393
tp2394
a(Vinsert
p2395
I42
VSimpleName: requireNonNull
p2396
tp2397
a(Vinsert
p2398
I42
VSimpleName: metric
p2399
tp2400
a(Vinsert
p2401
I42
VSimpleName: of
p2402
tp2403
a(Vinsert
p2404
I42
VSimpleName: toBuffer
p2405
tp2406
a(Vinsert
p2407
I42
VSimpleName: getUserInfo
p2408
tp2409
a(Vinsert
p2410
I42
VSimpleName: simulateUnresponsive
p2411
tp2412
a(Vinsert
p2413
I42
VSimpleName: websocket
p2414
tp2415
a(Vinsert
p2416
I42
VSimpleName: setTrustStorePath
p2417
tp2418
a(Vinsert
p2419
I42
VSimpleName: getString
p2420
tp2421
a(Vinsert
p2422
I42
VSimpleName: afterStartingVertx
p2423
tp2424
a(Vinsert
p2425
I42
VSimpleName: newEntity
p2426
tp2427
a(Vinsert
p2428
I42
VSimpleName: setResult
p2429
tp2430
a(Vinsert
p2431
I42
VSimpleName: setReuseAddress
p2432
tp2433
a(Vinsert
p2434
I42
VSimpleName: resolver
p2435
tp2436
a(Vinsert
p2437
I42
VSimpleName: setAppend
p2438
tp2439
a(Vinsert
p2440
I42
VSimpleName: getConstructor
p2441
tp2442
a(Vinsert
p2443
I42
VSimpleName: setValue
p2444
tp2445
a(Vinsert
p2446
I42
VSimpleName: keyStream
p2447
tp2448
a(Vinsert
p2449
I42
VSimpleName: readCPUMask
p2450
tp2451
a(Vinsert
p2452
I42
VSimpleName: resolveURIReference
p2453
tp2454
a(Vinsert
p2455
I42
VSimpleName: setLogActivity
p2456
tp2457
a(Vinsert
p2458
I42
VSimpleName: toLowerCase
p2459
tp2460
a(Vinsert
p2461
I42
VSimpleName: addKeyedStringValue
p2462
tp2463
a(Vinsert
p2464
I42
VSimpleName: name
p2465
tp2466
a(Vinsert
p2467
I42
VSimpleName: getHostnameVerificationAlgorithm
p2468
tp2469
a(Vinsert
p2470
I42
VSimpleName: setHostnameVerificationAlgorithm
p2471
tp2472
a(Vinsert
p2473
I42
VSimpleName: body
p2474
tp2475
a(Vinsert
p2476
I42
VSimpleName: getLangMod
p2477
tp2478
a(Vinsert
p2479
I42
VSimpleName: setInstances
p2480
tp2481
a(Vinsert
p2482
I42
VSimpleName: setClusterHost
p2483
tp2484
a(Vinsert
p2485
I42
VSimpleName: valueOf
p2486
tp2487
a(Vinsert
p2488
I42
VSimpleName: currentContext
p2489
tp2490
a(Vinsert
p2491
I42
VSimpleName: inject
p2492
tp2493
a(Vinsert
p2494
I42
VSimpleName: countDown
p2495
tp2496
a(Vinsert
p2497
I42
VSimpleName: getBinary
p2498
tp2499
a(Vinsert
p2500
I42
VSimpleName: isLoadFromModuleFirst
p2501
tp2502
a(Vinsert
p2503
I42
VSimpleName: systemCodecs
p2504
tp2505
a(Vinsert
p2506
I42
VSimpleName: writeFinalTextFrame
p2507
tp2508
a(Vinsert
p2509
I42
VSimpleName: getBinaryData
p2510
tp2511
a(Vinsert
p2512
I42
VSimpleName: option
p2513
tp2514
a(Vinsert
p2515
I42
VSimpleName: getDefaultFactory
p2516
tp2517
a(Vinsert
p2518
I42
VSimpleName: getName
p2519
tp2520
a(Vinsert
p2521
I42
VSimpleName: setConnectTimeout
p2522
tp2523
a(Vinsert
p2524
I42
VSimpleName: run
p2525
tp2526
a(Vinsert
p2527
I42
VSimpleName: setUnsignedByte
p2528
tp2529
a(Vinsert
p2530
I42
VSimpleName: discard
p2531
tp2532
a(Vinsert
p2533
I42
VSimpleName: push
p2534
tp2535
a(Vinsert
p2536
I42
VSimpleName: id
p2537
tp2538
a(Vinsert
p2539
I42
VSimpleName: headers
p2540
tp2541
a(Vinsert
p2542
I42
VSimpleName: isNotWritable
p2543
tp2544
a(Vinsert
p2545
I42
VSimpleName: isClustered
p2546
tp2547
a(Vinsert
p2548
I42
VSimpleName: getInstances
p2549
tp2550
a(Vinsert
p2551
I42
VSimpleName: getInstant
p2552
tp2553
a(Vinsert
p2554
I42
VSimpleName: encodeBytes
p2555
tp2556
a(Vinsert
p2557
I42
VSimpleName: setMultiThreaded
p2558
tp2559
a(Vinsert
p2560
I42
VSimpleName: pipeline
p2561
tp2562
a(Vinsert
p2563
I42
VSimpleName: setMetric
p2564
tp2565
a(Vinsert
p2566
I42
VSimpleName: compareAndSet
p2567
tp2568
a(Vinsert
p2569
I42
VSimpleName: canRead
p2570
tp2571
a(Vinsert
p2572
I42
VSimpleName: copiedOptions
p2573
tp2574
a(Vinsert
p2575
I42
VSimpleName: newFolder
p2576
tp2577
a(Vinsert
p2578
I42
VSimpleName: getRuntime
p2579
tp2580
a(Vinsert
p2581
I42
VSimpleName: putIfAbsent
p2582
tp2583
a(Vinsert
p2584
I42
VSimpleName: createMetrics
p2585
tp2586
a(Vinsert
p2587
I42
VSimpleName: flush
p2588
tp2589
a(Vinsert
p2590
I42
VSimpleName: getMetricsOptions
p2591
tp2592
a(Vinsert
p2593
I42
VSimpleName: complete
p2594
tp2595
a(Vinsert
p2596
I42
VSimpleName: sendPush
p2597
tp2598
a(Vinsert
p2599
I42
VSimpleName: getHost
p2600
tp2601
a(Vinsert
p2602
I42
VSimpleName: setDefaultValue
p2603
tp2604
a(Vinsert
p2605
I42
VSimpleName: handleUnknownFrame
p2606
tp2607
a(Vinsert
p2608
I42
VSimpleName: sslSession
p2609
tp2610
a(Vinsert
p2611
I42
VSimpleName: createDatagramSocket
p2612
tp2613
a(Vinsert
p2614
I42
VSimpleName: mapFrom
p2615
tp2616
a(Vinsert
p2617
I42
VSimpleName: decodeValue
p2618
tp2619
a(Vinsert
p2620
I42
VSimpleName: isSSL
p2621
tp2622
a(Vinsert
p2623
I42
VSimpleName: getAsBoolean
p2624
tp2625
a(Vinsert
p2626
I42
VSimpleName: newOptions
p2627
tp2628
a(Vinsert
p2629
I42
VSimpleName: getClientAuth
p2630
tp2631
a(Vinsert
p2632
I42
VSimpleName: addHandler
p2633
tp2634
a(Vinsert
p2635
I42
VSimpleName: readableBytes
p2636
tp2637
a(Vinsert
p2638
I42
VSimpleName: continuationFrame
p2639
tp2640
a(Vinsert
p2641
I42
VSimpleName: getPort
p2642
tp2643
a(Vinsert
p2644
I42
VSimpleName: requestStream
p2645
tp2646
a(Vinsert
p2647
I42
VSimpleName: setHost
p2648
tp2649
a(Vinsert
p2650
I42
VSimpleName: connectHandler
p2651
tp2652
a(Vinsert
p2653
I42
VSimpleName: equals
p2654
tp2655
a(Vinsert
p2656
I42
VSimpleName: getPoolSize
p2657
tp2658
a(Vinsert
p2659
I42
VSimpleName: toVertxMethod
p2660
tp2661
a(Vinsert
p2662
I42
VSimpleName: copy
p2663
tp2664
a(Vinsert
p2665
I42
VSimpleName: toFile
p2666
tp2667
a(Vinsert
p2668
I42
VSimpleName: put
p2669
tp2670
a(Vinsert
p2671
I42
VSimpleName: setBroadcast
p2672
tp2673
a(Vinsert
p2674
I42
VSimpleName: contentIndex
p2675
tp2676
a(Vinsert
p2677
I42
VSimpleName: convert
p2678
tp2679
a(Vinsert
p2680
I42
VSimpleName: executeOnOrderedWorkerExec
p2681
tp2682
a(Vinsert
p2683
I42
VSimpleName: addSearchDomain
p2684
tp2685
a(Vinsert
p2686
I42
VSimpleName: inc
p2687
tp2688
a(Vinsert
p2689
I42
VSimpleName: readLine
p2690
tp2691
a(Vinsert
p2692
I42
VSimpleName: listen
p2693
tp2694
a(Vinsert
p2695
I42
VSimpleName: executeBlocking
p2696
tp2697
a(Vinsert
p2698
I42
VSimpleName: upgrade
p2699
tp2700
a(Vinsert
p2701
I42
VSimpleName: writeData
p2702
tp2703
a(Vinsert
p2704
I42
VSimpleName: useProxy
p2705
tp2706
a(Vinsert
p2707
I42
VSimpleName: getArguments
p2708
tp2709
a(Vinsert
p2710
I42
VSimpleName: streamId
p2711
tp2712
a(Vinsert
p2713
I42
VSimpleName: state
p2714
tp2715
a(Vinsert
p2716
I42
VSimpleName: arrayEquals
p2717
tp2718
a(Vinsert
p2719
I42
VSimpleName: writeQueueFull
p2720
tp2721
a(Vinsert
p2722
I42
VSimpleName: createTempDirectory
p2723
tp2724
a(Vinsert
p2725
I42
VSimpleName: isTcpNoDelay
p2726
tp2727
a(Vinsert
p2728
I42
VSimpleName: getMaxWebsocketFrameSize
p2729
tp2730
a(Vinsert
p2731
I42
VSimpleName: data
p2732
tp2733
a(Vinsert
p2734
I42
VSimpleName: undeployVerticle
p2735
tp2736
a(Vinsert
p2737
I42
VSimpleName: setRecvByteBufAllocator
p2738
tp2739
a(Vinsert
p2740
I42
VSimpleName: createVerticle
p2741
tp2742
a(Vinsert
p2743
I42
VSimpleName: getEncoder
p2744
tp2745
a(Vinsert
p2746
I42
VSimpleName: randomBuffer
p2747
tp2748
a(Vinsert
p2749
I42
VSimpleName: usage
p2750
tp2751
a(Vinsert
p2752
I42
VSimpleName: required
p2753
tp2754
a(Vinsert
p2755
I42
VSimpleName: getCertPath
p2756
tp2757
a(Vinsert
p2758
I42
VSimpleName: configure
p2759
tp2760
a(Vinsert
p2761
I42
VSimpleName: getDecoderResult
p2762
tp2763
a(Vinsert
p2764
I42
VSimpleName: inetSocketAddress
p2765
tp2766
a(Vinsert
p2767
I42
VSimpleName: isExpectMultipart
p2768
tp2769
a(Vinsert
p2770
I42
VSimpleName: isKeepAlive
p2771
tp2772
a(Vinsert
p2773
I42
VSimpleName: updateSettings
p2774
tp2775
a(Vinsert
p2776
I42
VSimpleName: handle
p2777
tp2778
a(Vinsert
p2779
I42
VSimpleName: addEnabledSecureTransportProtocol
p2780
tp2781
a(Vinsert
p2782
I42
VSimpleName: writeShortLE
p2783
tp2784
a(Vinsert
p2785
I42
VSimpleName: getMaxWebsocketMessageSize
p2786
tp2787
a(Vinsert
p2788
I42
VSimpleName: metrics
p2789
tp2790
a(Vinsert
p2791
I42
VSimpleName: createDirectory
p2792
tp2793
a(Vinsert
p2794
I42
VSimpleName: handleConnectionException
p2795
tp2796
a(Vinsert
p2797
I42
VSimpleName: addListener
p2798
tp2799
a(Vinsert
p2800
I42
VSimpleName: completeExceptionally
p2801
tp2802
a(Vinsert
p2803
I42
VSimpleName: version
p2804
tp2805
a(Vinsert
p2806
I42
VSimpleName: longValue
p2807
tp2808
a(Vinsert
p2809
I42
VSimpleName: kind
p2810
tp2811
a(Vinsert
p2812
I42
VSimpleName: http1xConnected
p2813
tp2814
a(Vinsert
p2815
I42
VSimpleName: endsWith
p2816
tp2817
a(Vinsert
p2818
I42
VSimpleName: getWebsocketSubProtocols
p2819
tp2820
a(Vinsert
p2821
I42
VSimpleName: matcher
p2822
tp2823
a(Vinsert
p2824
I42
VSimpleName: getLogActivity
p2825
tp2826
a(Vinsert
p2827
I42
VSimpleName: getIsolatedClasses
p2828
tp2829
a(Vinsert
p2830
I42
VSimpleName: setTrustAll
p2831
tp2832
a(Vinsert
p2833
I42
VSimpleName: getLastRequestHeaders
p2834
tp2835
a(Vinsert
p2836
I42
VSimpleName: setChildProperty
p2837
tp2838
a(Vinsert
p2839
I42
VSimpleName: isSendUnmaskedFrames
p2840
tp2841
a(Vinsert
p2842
I42
VSimpleName: size
p2843
tp2844
a(Vinsert
p2845
I42
VSimpleName: clone
p2846
tp2847
a(Vinsert
p2848
I42
VSimpleName: map
p2849
tp2850
a(Vinsert
p2851
I42
VSimpleName: completionHandler
p2852
tp2853
a(Vinsert
p2854
I42
VSimpleName: warn
p2855
tp2856
a(Vinsert
p2857
I42
VSimpleName: checkAndCopy
p2858
tp2859
a(Vinsert
p2860
I42
VSimpleName: getResource
p2861
tp2862
a(Vinsert
p2863
I42
VSimpleName: createConnection
p2864
tp2865
a(Vinsert
p2866
I42
VSimpleName: tryFail
p2867
tp2868
a(Vinsert
p2869
I42
VSimpleName: getTrustStorePath
p2870
tp2871
a(Vinsert
p2872
I42
VSimpleName: unavailabilityCause
p2873
tp2874
a(Vinsert
p2875
I42
VSimpleName: registerVerticleFactory
p2876
tp2877
a(Vinsert
p2878
I42
VSimpleName: addFirst
p2879
tp2880
a(Vinsert
p2881
I42
VSimpleName: taskExecuting
p2882
tp2883
a(Vinsert
p2884
I42
VSimpleName: newBuffer
p2885
tp2886
a(Vinsert
p2887
I42
VSimpleName: failoverCompleteHandler
p2888
tp2889
a(Vinsert
p2890
I42
VSimpleName: setMaxWorkerExecuteTime
p2891
tp2892
a(Vinsert
p2893
I42
VSimpleName: setJmxEnabled
p2894
tp2895
a(Vinsert
p2896
I42
VSimpleName: exit
p2897
tp2898
a(Vinsert
p2899
I42
VSimpleName: newPromise
p2900
tp2901
a.