(dp0
(Vinsert
p1
I42
VSimpleName: TypedValue
p2
tp3
I6
s(Vinsert
p4
I43
VSimpleType: FrameLayout
p5
tp6
I1
s(Vinsert
p7
I42
VSimpleName: r
p8
tp9
I2
s(Vinsert
p10
I42
VSimpleName: SimpleDrawerActivity
p11
tp12
I2
s(Vinsert
p13
I42
VSimpleName: disabledIconColor
p14
tp15
I1
s(Vinsert
p16
I42
VSimpleName: deleteAllSelectedItems
p17
tp18
I1
s(Vinsert
p19
I42
VSimpleName: enabled
p20
tp21
I1
s(Vinsert
p22
I42
VSimpleName: selectedIcon
p23
tp24
I6
s(Vinsert
p25
I42
VSimpleName: getCurrentFocus
p26
tp27
I1
s(Vinsert
p28
I42
VSimpleName: getItemCount
p29
tp30
I1
s(Vinsert
p31
I22
VFieldAccess
p32
tp33
I71
s(Vinsert
p34
I27
VInfixExpression: ||
p35
tp36
I8
s(Vinsert
p37
I42
VSimpleName: reversedActiveProfiles
p38
tp39
I1
s(Vinsert
p40
I40
VQualifiedName: Build.VERSION_CODES.KITKAT
p41
tp42
I1
s(Vinsert
p43
I42
VSimpleName: ActionBarDrawerActivity
p44
tp45
I1
s(Vinsert
p46
I45
VStringLiteral: "Bullhorn"
p47
tp48
I1
s(Vinsert
p49
I42
VSimpleName: d
p50
tp51
I3
s(Vinsert
p52
I43
VSimpleType: ProfileDrawerItem
p53
tp54
I4
s(Vinsert
p55
I42
VSimpleName: setDp
p56
tp57
I1
s(Vinsert
p58
I40
VQualifiedName: viewHolder.description
p59
tp60
I3
s(Vinsert
p61
I40
VQualifiedName: layoutParamsContentView.bottomMargin
p62
tp63
I1
s(Vinsert
p64
I42
VSimpleName: withViewPosition
p65
tp66
I4
s(Vinsert
p67
I45
VStringLiteral: "please set the gravity for the drawer"
p68
tp69
I1
s(Vinsert
p70
I42
VSimpleName: getIconRes
p71
tp72
I2
s(Vinsert
p73
I43
VSimpleType: DrawerLayout
p74
tp75
I4
s(Vinsert
p76
I42
VSimpleName: withDrawer
p77
tp78
I2
s(Vinsert
p79
I42
VSimpleName: getChildAt
p80
tp81
I2
s(Vinsert
p82
I40
VQualifiedName: mDrawer.mDrawerBuilder.mFullscreen
p83
tp84
I2
s(Vinsert
p85
I42
VSimpleName: isDrawerIndicatorEnabled
p86
tp87
I1
s(Vinsert
p88
I45
VStringLiteral: "Collapsable"
p89
tp90
I1
s(Vinsert
p91
I42
VSimpleName: topMargin
p92
tp93
I3
s(Vinsert
p94
I42
VSimpleName: mSavedInstance
p95
tp96
I4
s(Vinsert
p97
I34
VNumberLiteral: 5
p98
tp99
I1
s(Vinsert
p100
I42
VSimpleName: height
p101
tp102
I4
s(Vinsert
p103
I66
VTextElement: the defined FastAdapter.OnClickListener which completely replaces the original behavior
p104
tp105
I1
s(Vinsert
p106
I40
VQualifiedName: ViewGroup.LayoutParams
p107
tp108
I2
s(Vinsert
p109
I40
VQualifiedName: android.R.attr.state_enabled
p110
tp111
I1
s(Vinsert
p112
I42
VSimpleName: removeProfile
p113
tp114
I1
s(Vinsert
p115
I40
VQualifiedName: R.string.drawer_item_crossfade_drawer_layout_drawer_desc
p116
tp117
I1
s(Vinsert
p118
I40
VQualifiedName: R.color.material_primary_color_dark
p119
tp120
I1
s(Vinsert
p121
I42
VSimpleName: withActionBarDrawerToggle
p122
tp123
I1
s(Vinsert
p124
I42
VSimpleName: Canvas
p125
tp126
I1
s(Vinsert
p127
I42
VSimpleName: withCustomHeightPx
p128
tp129
I2
s(Vinsert
p130
I43
VSimpleType: FrameLayout.LayoutParams
p131
tp132
I3
s(Vinsert
p133
I42
VSimpleName: IExpandable
p134
tp135
I2
s(Vinsert
p136
I27
VInfixExpression: +
p137
tp138
I4
s(Vinsert
p139
I37
VPostfixExpression: ++
p140
tp141
I4
s(Vinsert
p142
I42
VSimpleName: mRootView
p143
tp144
I4
s(Vinsert
p145
I42
VSimpleName: withEnabled
p146
tp147
I1
s(Vinsert
p148
I42
VSimpleName: RuntimeException
p149
tp150
I3
s(Vinsert
p151
I42
VSimpleName: install
p152
tp153
I1
s(Vinsert
p154
I42
VSimpleName: mHeaderDivider
p155
tp156
I2
s(Vinsert
p157
I40
VQualifiedName: ViewGroup.LayoutParams.MATCH_PARENT
p158
tp159
I7
s(Vinsert
p160
I42
VSimpleName: setInsetForeground
p161
tp162
I1
s(Vinsert
p163
I42
VSimpleName: outState
p164
tp165
I8
s(Vinsert
p166
I42
VSimpleName: badgeRes
p167
tp168
I1
s(Vinsert
p169
I42
VSimpleName: View
p170
tp171
I32
s(Vinsert
p172
I42
VSimpleName: mDrawerAnimatedItems
p173
tp174
I1
s(Vinsert
p175
I42
VSimpleName: LinkedList
p176
tp177
I1
s(Vinsert
p178
I42
VSimpleName: profile
p179
tp180
I15
s(Vinsert
p181
I42
VSimpleName: getSelectedColorRes
p182
tp183
I1
s(Vinsert
p184
I42
VSimpleName: mDrawerBuilder
p185
tp186
I7
s(Vinsert
p187
I42
VSimpleName: miniResult
p188
tp189
I1
s(Vinsert
p190
I42
VSimpleName: profile2
p191
tp192
I1
s(Vinsert
p193
I42
VSimpleName: Stack
p194
tp195
I2
s(Vinsert
p196
I42
VSimpleName: mPixel
p197
tp198
I2
s(Vinsert
p199
I42
VSimpleName: buildHeader
p200
tp201
I1
s(Vinsert
p202
I34
VNumberLiteral: 2001
p203
tp204
I1
s(Vinsert
p205
I42
VSimpleName: String
p206
tp207
I9
s(Vinsert
p208
I42
VSimpleName: withMultiSelect
p209
tp210
I1
s(Vinsert
p211
I42
VSimpleName: resetStickyFooterSelection
p212
tp213
I2
s(Vinsert
p214
I40
VQualifiedName: R.string.drawer_item_custom_container_drawer
p215
tp216
I1
s(Vinsert
p217
I42
VSimpleName: mapPossibleType
p218
tp219
I1
s(Vinsert
p220
I40
VQualifiedName: DrawerLayout.STATE_IDLE
p221
tp222
I1
s(Vinsert
p223
I42
VSimpleName: postInvalidateOnAnimation
p224
tp225
I1
s(Vinsert
p226
I42
VSimpleName: mProfileFirstView
p227
tp228
I2
s(Vinsert
p229
I42
VSimpleName: FrameLayout
p230
tp231
I1
s(Vinsert
p232
I42
VSimpleName: selectedIconTinted
p233
tp234
I6
s(Vinsert
p235
I42
VSimpleName: setEmail
p236
tp237
I1
s(Vinsert
p238
I42
VSimpleName: getDrawerAdapter
p239
tp240
I1
s(Vinsert
p241
I42
VSimpleName: headerViewRes
p242
tp243
I1
s(Vinsert
p244
I40
VQualifiedName: R.string.drawer_item_fragment_drawer
p245
tp246
I1
s(Vinsert
p247
I42
VSimpleName: getTag
p248
tp249
I5
s(Vinsert
p250
I42
VSimpleName: mOnAccountHeaderListener
p251
tp252
I1
s(Vinsert
p253
I42
VSimpleName: getNavDrawerItems
p254
tp255
I1
s(Vinsert
p256
I40
VQualifiedName: android.R.attr.state_activated
p257
tp258
I1
s(Vinsert
p259
I42
VSimpleName: mOnMiniDrawerItemClickListener
p260
tp261
I2
s(Vinsert
p262
I42
VSimpleName: DisplayMetrics
p263
tp264
I3
s(Vinsert
p265
I42
VSimpleName: DrawerLayout
p266
tp267
I4
s(Vinsert
p268
I40
VQualifiedName: GoogleMaterial.Icon.gmd_style
p269
tp270
I2
s(Vinsert
p271
I42
VSimpleName: mIconRes
p272
tp273
I1
s(Vinsert
p274
I83
VModifier: protected
p275
tp276
I13
s(Vinsert
p277
I42
VSimpleName: withSetSelected
p278
tp279
I2
s(Vinsert
p280
I42
VSimpleName: AccountHeaderBuilder
p281
tp282
I1
s(Vinsert
p283
I40
VQualifiedName: com.mikepenz.materialdrawer.util.DrawerUIUtils
p284
tp285
I1
s(Vinsert
p286
I42
VSimpleName: accentColor
p287
tp288
I1
s(Vinsert
p289
I42
VSimpleName: generateMiniDrawer
p290
tp291
I1
s(Vinsert
p292
I43
VSimpleType: RuntimeException
p293
tp294
I3
s(Vinsert
p295
I42
VSimpleName: BadgeStyle
p296
tp297
I4
s(Vinsert
p298
I42
VSimpleName: setOnDrawerItemClickListener
p299
tp300
I1
s(Vinsert
p301
I42
VSimpleName: selectedIconColor
p302
tp303
I4
s(Vinsert
p304
I42
VSimpleName: mCurrentFooterSelection
p305
tp306
I1
s(Vinsert
p307
I42
VSimpleName: headerBackground
p308
tp309
I1
s(Vinsert
p310
I40
VQualifiedName: viewHolder.switchView
p311
tp312
I4
s(Vinsert
p313
I43
VSimpleType: IItemAdapter
p314
tp315
I1
s(Vinsert
p316
I42
VSimpleName: isSelected
p317
tp318
I4
s(Vinsert
p319
I42
VSimpleName: padding
p320
tp321
I2
s(Vinsert
p322
I40
VQualifiedName: R.string.drawer_item_free_play
p323
tp324
I2
s(Vinsert
p325
I42
VSimpleName: withIcon
p326
tp327
I32
s(Vinsert
p328
I42
VSimpleName: notifyItemRangeInserted
p329
tp330
I2
s(Vinsert
p331
I42
VSimpleName: consumed
p332
tp333
I6
s(Vinsert
p334
I45
VStringLiteral: "http"
p335
tp336
I1
s(Vinsert
p337
I42
VSimpleName: switchEnabled
p338
tp339
I4
s(Vinsert
p340
I42
VSimpleName: setDrawerShadow
p341
tp342
I2
s(Vinsert
p343
I42
VSimpleName: makeText
p344
tp345
I7
s(Vinsert
p346
I40
VQualifiedName: mDrawer.mDrawerContentRoot
p347
tp348
I3
s(Vinsert
p349
I25
VIfStatement
p350
tp351
I207
s(Vinsert
p352
I42
VSimpleName: parse
p353
tp354
I2
s(Vinsert
p355
I34
VNumberLiteral: 100000000
p356
tp357
I1
s(Vinsert
p358
I42
VSimpleName: withIdentifier
p359
tp360
I27
s(Vinsert
p361
I42
VSimpleName: mProfileThirdView
p362
tp363
I1
s(Vinsert
p364
I42
VSimpleName: mDrawerItems
p365
tp366
I10
s(Vinsert
p367
I42
VSimpleName: parent
p368
tp369
I6
s(Vinsert
p370
I42
VSimpleName: getDefaultSharedPreferences
p371
tp372
I2
s(Vinsert
p373
I43
VSimpleType: ViewHolder
p374
tp375
I10
s(Vinsert
p376
I42
VSimpleName: canvas
p377
tp378
I2
s(Vinsert
p379
I43
VSimpleType: BaseDrawerAdapter.OnLongClickListener
p380
tp381
I1
s(Vinsert
p382
I42
VSimpleName: getItemAdapter
p383
tp384
I1
s(Vinsert
p385
I42
VSimpleName: openDrawer
p386
tp387
I4
s(Vinsert
p388
I42
VSimpleName: includeOffset
p389
tp390
I2
s(Vinsert
p391
I42
VSimpleName: inflater
p392
tp393
I8
s(Vinsert
p394
I40
VQualifiedName: RecyclerView.LayoutParams
p395
tp396
I2
s(Vinsert
p397
I42
VSimpleName: attr
p398
tp399
I2
s(Vinsert
p400
I42
VSimpleName: iconColorRes
p401
tp402
I1
s(Vinsert
p403
I42
VSimpleName: addItemsAtPosition
p404
tp405
I1
s(Vinsert
p406
I34
VNumberLiteral: 105
p407
tp408
I1
s(Vinsert
p409
I42
VSimpleName: LinearLayout
p410
tp411
I7
s(Vinsert
p412
I42
VSimpleName: drawerItems
p413
tp414
I5
s(Vinsert
p415
I27
VInfixExpression: ==
p416
tp417
I57
s(Vinsert
p418
I42
VSimpleName: mTextColor
p419
tp420
I3
s(Vinsert
p421
I42
VSimpleName: selection
p422
tp423
I3
s(Vinsert
p424
I9
VBooleanLiteral: true
p425
tp426
I13
s(Vinsert
p427
I62
VInstanceofExpression
p428
tp429
I13
s(Vinsert
p430
I34
VNumberLiteral: 103
p431
tp432
I1
s(Vinsert
p433
I40
VQualifiedName: layoutParams.width
p434
tp435
I2
s(Vinsert
p436
I40
VQualifiedName: RecyclerView.ViewHolder
p437
tp438
I5
s(Vinsert
p439
I42
VSimpleName: getGroupId
p440
tp441
I3
s(Vinsert
p442
I40
VQualifiedName: Build.VERSION_CODES.LOLLIPOP
p443
tp444
I2
s(Vinsert
p445
I42
VSimpleName: getEmail
p446
tp447
I1
s(Vinsert
p448
I40
VQualifiedName: NavDrawerItem.SECONDARY
p449
tp450
I1
s(Vinsert
p451
I42
VSimpleName: toArray
p452
tp453
I1
s(Vinsert
p454
I40
VQualifiedName: drawer.mStickyFooterDivider
p455
tp456
I1
s(Vinsert
p457
I58
VVariableDeclarationExpression
p458
tp459
I4
s(Vinsert
p460
I42
VSimpleName: mDelayOnDrawerClose
p461
tp462
I1
s(Vinsert
p463
I40
VQualifiedName: DrawerLayout.LayoutParams.MATCH_PARENT
p464
tp465
I2
s(Vinsert
p466
I42
VSimpleName: mTranslucentStatusBar
p467
tp468
I1
s(Vinsert
p469
I43
VSimpleType: Menu
p470
tp471
I2
s(Vinsert
p472
I42
VSimpleName: corners
p473
tp474
I1
s(Vinsert
p475
I42
VSimpleName: count
p476
tp477
I4
s(Vinsert
p478
I42
VSimpleName: ViewCompat
p479
tp480
I2
s(Vinsert
p481
I42
VSimpleName: convertPixelsToDp
p482
tp483
I2
s(Vinsert
p484
I42
VSimpleName: mDrawerGravity
p485
tp486
I2
s(Vinsert
p487
I40
VQualifiedName: R.id.divider
p488
tp489
I1
s(Vinsert
p490
I43
VSimpleType: Stack
p491
tp492
I1
s(Vinsert
p493
I34
VNumberLiteral: 2
p494
tp495
I3
s(Vinsert
p496
I40
VQualifiedName: mDrawerBuilder.mStickyDrawerItems
p497
tp498
I3
s(Vinsert
p499
I43
VSimpleType: CompoundButton
p500
tp501
I1
s(Vinsert
p502
I42
VSimpleName: positionBasedStateManagement
p503
tp504
I4
s(Vinsert
p505
I42
VSimpleName: systemUIHidden
p506
tp507
I3
s(Vinsert
p508
I42
VSimpleName: withSelectable
p509
tp510
I13
s(Vinsert
p511
I40
VQualifiedName: mDrawer.mDrawerItems
p512
tp513
I11
s(Vinsert
p514
I83
VModifier: final
p515
tp516
I9
s(Vinsert
p517
I42
VSimpleName: IconValue
p518
tp519
I1
s(Vinsert
p520
I42
VSimpleName: mProfiles
p521
tp522
I3
s(Vinsert
p523
I42
VSimpleName: DrawerUIUtils
p524
tp525
I2
s(Vinsert
p526
I42
VSimpleName: lps
p527
tp528
I1
s(Vinsert
p529
I42
VSimpleName: set
p530
tp531
I2
s(Vinsert
p532
I42
VSimpleName: convertDpToPixel
p533
tp534
I20
s(Vinsert
p535
I40
VQualifiedName: drawer.mHeaderOffset
p536
tp537
I1
s(Vinsert
p538
I42
VSimpleName: Glide
p539
tp540
I1
s(Vinsert
p541
I42
VSimpleName: title
p542
tp543
I1
s(Vinsert
p544
I42
VSimpleName: wm
p545
tp546
I1
s(Vinsert
p547
I42
VSimpleName: mHandleAllUris
p548
tp549
I1
s(Vinsert
p550
I42
VSimpleName: setImageBitmap
p551
tp552
I1
s(Vinsert
p553
I40
VQualifiedName: R.id.material_drawer_arrow
p554
tp555
I1
s(Vinsert
p556
I42
VSimpleName: customHeightPx
p557
tp558
I2
s(Vinsert
p559
I65
VTagElement: @return
p560
tp561
I11
s(Vinsert
p562
I40
VQualifiedName: Configuration.ORIENTATION_LANDSCAPE
p563
tp564
I2
s(Vinsert
p565
I43
VSimpleType: LinearLayout
p566
tp567
I7
s(Vinsert
p568
I42
VSimpleName: savedInstanceState
p569
tp570
I8
s(Vinsert
p571
I40
VQualifiedName: R.id.shadow_top
p572
tp573
I1
s(Vinsert
p574
I42
VSimpleName: setId
p575
tp576
I11
s(Vinsert
p577
I42
VSimpleName: HSVToColor
p578
tp579
I1
s(Vinsert
p580
I43
VSimpleType: BaseDrawerAdapter
p581
tp582
I1
s(Vinsert
p583
I42
VSimpleName: DividerDrawerItem
p584
tp585
I1
s(Vinsert
p586
I42
VSimpleName: mKeyboardUtil
p587
tp588
I3
s(Vinsert
p589
I42
VSimpleName: onDrawerNavigationListener
p590
tp591
I1
s(Vinsert
p592
I42
VSimpleName: description
p593
tp594
I1
s(Vinsert
p595
I42
VSimpleName: setDescriptionRes
p596
tp597
I1
s(Vinsert
p598
I43
VSimpleType: Boolean
p599
tp600
I1
s(Vinsert
p601
I42
VSimpleName: onProfileChanged
p602
tp603
I2
s(Vinsert
p604
I42
VSimpleName: addHeaderDrawerItems
p605
tp606
I2
s(Vinsert
p607
I42
VSimpleName: setMinimumHeight
p608
tp609
I1
s(Vinsert
p610
I42
VSimpleName: getDrawerItemCount
p611
tp612
I1
s(Vinsert
p613
I34
VNumberLiteral: 6
p614
tp615
I1
s(Vinsert
p616
I42
VSimpleName: args
p617
tp618
I2
s(Vinsert
p619
I34
VNumberLiteral: 1.0f
p620
tp621
I2
s(Vinsert
p622
I42
VSimpleName: colorHolder
p623
tp624
I4
s(Vinsert
p625
I42
VSimpleName: addView
p626
tp627
I8
s(Vinsert
p628
I42
VSimpleName: mHeaderDrawerItems
p629
tp630
I1
s(Vinsert
p631
I42
VSimpleName: deselect
p632
tp633
I5
s(Vinsert
p634
I42
VSimpleName: email
p635
tp636
I1
s(Vinsert
p637
I42
VSimpleName: mEnableSelectedBackground
p638
tp639
I2
s(Vinsert
p640
I42
VSimpleName: reverted
p641
tp642
I1
s(Vinsert
p643
I31
VMethodDeclaration
p644
tp645
I33
s(Vinsert
p646
I43
VSimpleType: ColorHolder
p647
tp648
I3
s(Vinsert
p649
I42
VSimpleName: resources
p650
tp651
I3
s(Vinsert
p652
I42
VSimpleName: badge
p653
tp654
I8
s(Vinsert
p655
I43
VSimpleType: Outline
p656
tp657
I1
s(Vinsert
p658
I42
VSimpleName: closeDrawers
p659
tp660
I1
s(Vinsert
p661
I42
VSimpleName: decideColor
p662
tp663
I1
s(Vinsert
p664
I39
VPrimitiveType: void
p665
tp666
I50
s(Vinsert
p667
I42
VSimpleName: onProfileClick
p668
tp669
I2
s(Vinsert
p670
I74
VParameterizedType: ArrayList<>
p671
tp672
I3
s(Vinsert
p673
I42
VSimpleName: badgeCount
p674
tp675
I1
s(Vinsert
p676
I42
VSimpleName: ExpandableDrawerItem
p677
tp678
I1
s(Vinsert
p679
I42
VSimpleName: mPaddingTopBottom
p680
tp681
I2
s(Vinsert
p682
I42
VSimpleName: url
p683
tp684
I3
s(Vinsert
p685
I42
VSimpleName: setVisibility
p686
tp687
I18
s(Vinsert
p688
I43
VSimpleType: StringHolder
p689
tp690
I5
s(Vinsert
p691
I42
VSimpleName: smoothScrollToPosition
p692
tp693
I1
s(Vinsert
p694
I42
VSimpleName: mInsets
p695
tp696
I1
s(Vinsert
p697
I40
VQualifiedName: primaryDrawerItem.mBadgeStyle
p698
tp699
I1
s(Vinsert
p700
I42
VSimpleName: postDelayed
p701
tp702
I2
s(Vinsert
p703
I40
VQualifiedName: R.string.drawer_with_menu
p704
tp705
I1
s(Vinsert
p706
I42
VSimpleName: removeAllViews
p707
tp708
I2
s(Vinsert
p709
I40
VQualifiedName: R.layout.fragment_simple_sample
p710
tp711
I1
s(Vinsert
p712
I43
VSimpleType: EmbeddedDrawerActivity
p713
tp714
I1
s(Vinsert
p715
I42
VSimpleName: withTintSelectedIcon
p716
tp717
I1
s(Vinsert
p718
I40
VQualifiedName: viewHolder.view
p719
tp720
I10
s(Vinsert
p721
I42
VSimpleName: MiniDrawerItem
p722
tp723
I1
s(Vinsert
p724
I45
VStringLiteral: "please pass an activity first to use this call"
p725
tp726
I6
s(Vinsert
p727
I42
VSimpleName: onDrawerSlide
p728
tp729
I1
s(Vinsert
p730
I34
VNumberLiteral: 10
p731
tp732
I1
s(Vinsert
p733
I40
VQualifiedName: GoogleMaterial.Icon.gmd_8tracks
p734
tp735
I1
s(Vinsert
p736
I42
VSimpleName: switchProfiles
p737
tp738
I1
s(Vinsert
p739
I40
VQualifiedName: R.string.drawer_item_fullscreen_drawer
p740
tp741
I1
s(Vinsert
p742
I42
VSimpleName: resetAnimation
p743
tp744
I2
s(Vinsert
p745
I42
VSimpleName: getWindowVisibleDisplayFrame
p746
tp747
I1
s(Vinsert
p748
I43
VSimpleType: ExpandableExtension
p749
tp750
I2
s(Vinsert
p751
I40
VQualifiedName: viewHolder.divider
p752
tp753
I2
s(Vinsert
p754
I42
VSimpleName: getCount
p755
tp756
I2
s(Vinsert
p757
I42
VSimpleName: getDrawerItem
p758
tp759
I8
s(Vinsert
p760
I74
VParameterizedType: List<Object>
p761
tp762
I1
s(Vinsert
p763
I42
VSimpleName: setItemAnimator
p764
tp765
I1
s(Vinsert
p766
I42
VSimpleName: setNameRes
p767
tp768
I1
s(Vinsert
p769
I43
VSimpleType: IconValue
p770
tp771
I1
s(Vinsert
p772
I42
VSimpleName: setOnCheckedChangeListener
p773
tp774
I10
s(Vinsert
p775
I40
VQualifiedName: mAccountHeader.mProfiles
p776
tp777
I6
s(Vinsert
p778
I42
VSimpleName: bindView
p779
tp780
I5
s(Vinsert
p781
I42
VSimpleName: value
p782
tp783
I1
s(Vinsert
p784
I27
VInfixExpression: !=
p785
tp786
I117
s(Vinsert
p787
I42
VSimpleName: withEmail
p788
tp789
I6
s(Vinsert
p790
I66
VTextElement: deselects the item with the given identifier
p791
tp792
I1
s(Vinsert
p793
I42
VSimpleName: miniDrawerItem
p794
tp795
I2
s(Vinsert
p796
I42
VSimpleName: getScreenWidth
p797
tp798
I1
s(Vinsert
p799
I42
VSimpleName: image
p800
tp801
I2
s(Vinsert
p802
I42
VSimpleName: Throwable
p803
tp804
I1
s(Vinsert
p805
I42
VSimpleName: mContext
p806
tp807
I1
s(Vinsert
p808
I66
VTextElement: Clear the header
p809
tp810
I1
s(Vinsert
p811
I42
VSimpleName: setBackgroundColor
p812
tp813
I8
s(Vinsert
p814
I40
VQualifiedName: primaryDrawerItem.mBadge
p815
tp816
I1
s(Vinsert
p817
I45
VStringLiteral: "22"
p818
tp819
I1
s(Vinsert
p820
I42
VSimpleName: drawerView
p821
tp822
I5
s(Vinsert
p823
I39
VPrimitiveType: boolean
p824
tp825
I39
s(Vinsert
p826
I42
VSimpleName: switchedDrawerContent
p827
tp828
I3
s(Vinsert
p829
I42
VSimpleName: setListSelection
p830
tp831
I1
s(Vinsert
p832
I42
VSimpleName: mutate
p833
tp834
I2
s(Vinsert
p835
I42
VSimpleName: withTextColor
p836
tp837
I3
s(Vinsert
p838
I40
VQualifiedName: GoogleMaterial.Icon.gmd_battery_charging_full
p839
tp840
I2
s(Vinsert
p841
I66
VTextElement: Do not set this if you are in a sub activity and want to handle the back arrow on your own
p842
tp843
I1
s(Vinsert
p844
I42
VSimpleName: checked
p845
tp846
I8
s(Vinsert
p847
I42
VSimpleName: withPaddingTopBottomRes
p848
tp849
I1
s(Vinsert
p850
I42
VSimpleName: multiSelect
p851
tp852
I2
s(Vinsert
p853
I42
VSimpleName: wrap
p854
tp855
I2
s(Vinsert
p856
I45
VStringLiteral: "onDrawerOpened"
p857
tp858
I1
s(Vinsert
p859
I42
VSimpleName: getSystem
p860
tp861
I1
s(Vinsert
p862
I42
VSimpleName: setDrawerVerticalPadding
p863
tp864
I6
s(Vinsert
p865
I11
VCastExpression
p866
tp867
I60
s(Vinsert
p868
I42
VSimpleName: getSystemService
p869
tp870
I1
s(Vinsert
p871
I42
VSimpleName: setElevation
p872
tp873
I1
s(Vinsert
p874
I42
VSimpleName: ColorStateList
p875
tp876
I1
s(Vinsert
p877
I34
VNumberLiteral: 1f
p878
tp879
I1
s(Vinsert
p880
I42
VSimpleName: toggleEnabled
p881
tp882
I4
s(Vinsert
p883
I42
VSimpleName: mHeaderBackgroundScaleType
p884
tp885
I1
s(Vinsert
p886
I42
VSimpleName: RectF
p887
tp888
I1
s(Vinsert
p889
I42
VSimpleName: getInstance
p890
tp891
I6
s(Vinsert
p892
I42
VSimpleName: buildProfiles
p893
tp894
I2
s(Vinsert
p895
I42
VSimpleName: result
p896
tp897
I14
s(Vinsert
p898
I42
VSimpleName: getStickyFooterShadow
p899
tp900
I3
s(Vinsert
p901
I42
VSimpleName: EmbeddedDrawerActivity
p902
tp903
I2
s(Vinsert
p904
I9
VBooleanLiteral: false
p905
tp906
I35
s(Vinsert
p907
I42
VSimpleName: stickyFooterRes
p908
tp909
I1
s(Vinsert
p910
I42
VSimpleName: getActionBar
p911
tp912
I1
s(Vinsert
p913
I66
VTextElement:  defines if the ActionBarDrawerToggle needs to be recreated with the new set Toolbar
p914
tp915
I1
s(Vinsert
p916
I34
VNumberLiteral: 180
p917
tp918
I1
s(Vinsert
p919
I42
VSimpleName: mHeight
p920
tp921
I2
s(Vinsert
p922
I42
VSimpleName: mAdapter
p923
tp924
I6
s(Vinsert
p925
I42
VSimpleName: hasStableIds
p926
tp927
I2
s(Vinsert
p928
I42
VSimpleName: IItemAdapter
p929
tp930
I1
s(Vinsert
p931
I42
VSimpleName: getTypeface
p932
tp933
I4
s(Vinsert
p934
I42
VSimpleName: getDrawerLayout
p935
tp936
I2
s(Vinsert
p937
I42
VSimpleName: setPadding
p938
tp939
I12
s(Vinsert
p940
I42
VSimpleName: selectedColorRes
p941
tp942
I3
s(Vinsert
p943
I40
VQualifiedName: R.color.material_drawer_selected_text
p944
tp945
I2
s(Vinsert
p946
I24
VForStatement
p947
tp948
I4
s(Vinsert
p949
I43
VSimpleType: List
p950
tp951
I1
s(Vinsert
p952
I42
VSimpleName: getCrossFadeSlidingPaneLayout
p953
tp954
I1
s(Vinsert
p955
I43
VSimpleType: Libs.Builder
p956
tp957
I1
s(Vinsert
p958
I42
VSimpleName: previousActiveProfiles
p959
tp960
I1
s(Vinsert
p961
I40
VQualifiedName: mAccountHeaderBuilder.mOnAccountHeaderListener
p962
tp963
I2
s(Vinsert
p964
I42
VSimpleName: mStatusBarColorRes
p965
tp966
I2
s(Vinsert
p967
I42
VSimpleName: Collections
p968
tp969
I2
s(Vinsert
p970
I42
VSimpleName: mInRTL
p971
tp972
I2
s(Vinsert
p973
I40
VQualifiedName: DrawerLayout.LayoutParams
p974
tp975
I4
s(Vinsert
p976
I42
VSimpleName: di
p977
tp978
I3
s(Vinsert
p979
I42
VSimpleName: DrawerUtils
p980
tp981
I14
s(Vinsert
p982
I42
VSimpleName: withBackgroundRes
p983
tp984
I1
s(Vinsert
p985
I42
VSimpleName: actionBarHeight
p986
tp987
I2
s(Vinsert
p988
I42
VSimpleName: compactStyle
p989
tp990
I1
s(Vinsert
p991
I42
VSimpleName: withRootView
p992
tp993
I1
s(Vinsert
p994
I42
VSimpleName: IDrawerItem
p995
tp996
I38
s(Vinsert
p997
I43
VSimpleType: TypedValue
p998
tp999
I6
s(Vinsert
p1000
I42
VSimpleName: getIconColor
p1001
tp1002
I4
s(Vinsert
p1003
I42
VSimpleName: setImportantForAccessibility
p1004
tp1005
I1
s(Vinsert
p1006
I65
VTagElement
p1007
tp1008
I9
s(Vinsert
p1009
I42
VSimpleName: findViewById
p1010
tp1011
I19
s(Vinsert
p1012
I42
VSimpleName: getPlaceHolder
p1013
tp1014
I2
s(Vinsert
p1015
I42
VSimpleName: Iconics
p1016
tp1017
I1
s(Vinsert
p1018
I42
VSimpleName: ColorHolder
p1019
tp1020
I15
s(Vinsert
p1021
I42
VSimpleName: onBindView
p1022
tp1023
I1
s(Vinsert
p1024
I45
VStringLiteral: "can't use a footerView without a listView"
p1025
tp1026
I1
s(Vinsert
p1027
I40
VQualifiedName: R.attr.material_drawer_divider
p1028
tp1029
I2
s(Vinsert
p1030
I40
VQualifiedName: R.attr.material_drawer_selected_text
p1031
tp1032
I2
s(Vinsert
p1033
I42
VSimpleName: color
p1034
tp1035
I25
s(Vinsert
p1036
I43
VSimpleType: Nameable
p1037
tp1038
I9
s(Vinsert
p1039
I42
VSimpleName: iconBitmap
p1040
tp1041
I7
s(Vinsert
p1042
I43
VSimpleType: GradientDrawable
p1043
tp1044
I2
s(Vinsert
p1045
I42
VSimpleName: getText
p1046
tp1047
I1
s(Vinsert
p1048
I40
VQualifiedName: mDrawer.mDrawerGravity
p1049
tp1050
I1
s(Vinsert
p1051
I42
VSimpleName: show
p1052
tp1053
I3
s(Vinsert
p1054
I42
VSimpleName: DimenHolder
p1055
tp1056
I6
s(Vinsert
p1057
I42
VSimpleName: DrawInsetsFrameLayout
p1058
tp1059
I2
s(Vinsert
p1060
I42
VSimpleName: mCrossFadePanel
p1061
tp1062
I1
s(Vinsert
p1063
I42
VSimpleName: Application
p1064
tp1065
I2
s(Vinsert
p1066
I42
VSimpleName: setTranslucentStatusFlag
p1067
tp1068
I1
s(Vinsert
p1069
I40
VQualifiedName: R.string.drawer_item_compact_header
p1070
tp1071
I3
s(Vinsert
p1072
I42
VSimpleName: descriptionRes
p1073
tp1074
I3
s(Vinsert
p1075
I40
VQualifiedName: viewHolder.toggle
p1076
tp1077
I3
s(Vinsert
p1078
I40
VQualifiedName: GoogleMaterial.Icon.gmd_my_location
p1079
tp1080
I1
s(Vinsert
p1081
I42
VSimpleName: getClass
p1082
tp1083
I2
s(Vinsert
p1084
I40
VQualifiedName: R.string.drawer_item_open_source
p1085
tp1086
I2
s(Vinsert
p1087
I40
VQualifiedName: R.layout.activity_sample_actionbar
p1088
tp1089
I1
s(Vinsert
p1090
I42
VSimpleName: mMaskDrawable
p1091
tp1092
I2
s(Vinsert
p1093
I42
VSimpleName: buttonView
p1094
tp1095
I7
s(Vinsert
p1096
I40
VQualifiedName: mDrawer.mDrawerBuilder.mTranslucentNavigationBar
p1097
tp1098
I1
s(Vinsert
p1099
I42
VSimpleName: mColorRes
p1100
tp1101
I1
s(Vinsert
p1102
I40
VQualifiedName: R.string.drawer_item_persistent_compact_header_desc
p1103
tp1104
I1
s(Vinsert
p1105
I43
VSimpleType: DrawerBuilder
p1106
tp1107
I2
s(Vinsert
p1108
I42
VSimpleName: withFullscreen
p1109
tp1110
I1
s(Vinsert
p1111
I42
VSimpleName: KeyboardUtil
p1112
tp1113
I1
s(Vinsert
p1114
I42
VSimpleName: getViewTreeObserver
p1115
tp1116
I1
s(Vinsert
p1117
I43
VSimpleType: ContainerDrawerItem
p1118
tp1119
I3
s(Vinsert
p1120
I42
VSimpleName: mCorners
p1121
tp1122
I1
s(Vinsert
p1123
I40
VQualifiedName: R.string.drawer_item_collapsing_toolbar_drawer
p1124
tp1125
I2
s(Vinsert
p1126
I40
VQualifiedName: android.os.Build.VERSION.SDK_INT
p1127
tp1128
I3
s(Vinsert
p1129
I42
VSimpleName: disable
p1130
tp1131
I2
s(Vinsert
p1132
I34
VNumberLiteral: 2000
p1133
tp1134
I3
s(Vinsert
p1135
I42
VSimpleName: Checkable
p1136
tp1137
I2
s(Vinsert
p1138
I2
VArrayAccess
p1139
tp1140
I1
s(Vinsert
p1141
I40
VQualifiedName: Toast.LENGTH_SHORT
p1142
tp1143
I2
s(Vinsert
p1144
I42
VSimpleName: i
p1145
tp1146
I25
s(Vinsert
p1147
I42
VSimpleName: IconDrawerItem
p1148
tp1149
I1
s(Vinsert
p1150
I40
VQualifiedName: FrameLayout.LayoutParams
p1151
tp1152
I3
s(Vinsert
p1153
I40
VQualifiedName: com.mikepenz.fastadapter.IExpandable
p1154
tp1155
I1
s(Vinsert
p1156
I42
VSimpleName: withDescription
p1157
tp1158
I5
s(Vinsert
p1159
I42
VSimpleName: normal
p1160
tp1161
I1
s(Vinsert
p1162
I66
VTextElement:  this
p1163
tp1164
I1
s(Vinsert
p1165
I45
VStringLiteral: "12+"
p1166
tp1167
I1
s(Vinsert
p1168
I42
VSimpleName: contentView
p1169
tp1170
I3
s(Vinsert
p1171
I40
VQualifiedName: R.id.backdrop
p1172
tp1173
I1
s(Vinsert
p1174
I42
VSimpleName: from
p1175
tp1176
I1
s(Vinsert
p1177
I42
VSimpleName: mSystemUIHidden
p1178
tp1179
I1
s(Vinsert
p1180
I42
VSimpleName: mOnInsetsCallback
p1181
tp1182
I2
s(Vinsert
p1183
I42
VSimpleName: mText
p1184
tp1185
I1
s(Vinsert
p1186
I34
VNumberLiteral: 11
p1187
tp1188
I1
s(Vinsert
p1189
I42
VSimpleName: colorRes
p1190
tp1191
I1
s(Vinsert
p1192
I42
VSimpleName: hasBeenDragged
p1193
tp1194
I2
s(Vinsert
p1195
I42
VSimpleName: idDistributor
p1196
tp1197
I2
s(Vinsert
p1198
I66
VTextElement:                        the toolbar which is used in combination with the drawer
p1199
tp1200
I1
s(Vinsert
p1201
I74
VParameterizedType: ExpandableExtension<>
p1202
tp1203
I1
s(Vinsert
p1204
I42
VSimpleName: save
p1205
tp1206
I1
s(Vinsert
p1207
I66
VTextElement: OVERWRITE to get the correct secondary color
p1208
tp1209
I2
s(Vinsert
p1210
I42
VSimpleName: onMenuItemClick
p1211
tp1212
I1
s(Vinsert
p1213
I42
VSimpleName: selected_color
p1214
tp1215
I4
s(Vinsert
p1216
I42
VSimpleName: descriptionTextColor
p1217
tp1218
I4
s(Vinsert
p1219
I42
VSimpleName: mTranslucentNavigationBarProgrammatically
p1220
tp1221
I1
s(Vinsert
p1222
I40
VQualifiedName: R.id.drawinsetsframelayout
p1223
tp1224
I1
s(Vinsert
p1225
I42
VSimpleName: setTitle
p1226
tp1227
I16
s(Vinsert
p1228
I42
VSimpleName: setTranslucentNavigationFlag
p1229
tp1230
I1
s(Vinsert
p1231
I42
VSimpleName: mStickyFooterView
p1232
tp1233
I1
s(Vinsert
p1234
I42
VSimpleName: DrawerBuilder
p1235
tp1236
I3
s(Vinsert
p1237
I40
VQualifiedName: RelativeLayout.LayoutParams.MATCH_PARENT
p1238
tp1239
I1
s(Vinsert
p1240
I43
VSimpleType: MiniProfileDrawerItem
p1241
tp1242
I2
s(Vinsert
p1243
I42
VSimpleName: selectedTextColor
p1244
tp1245
I1
s(Vinsert
p1246
I42
VSimpleName: imageHolder
p1247
tp1248
I3
s(Vinsert
p1249
I42
VSimpleName: a
p1250
tp1251
I2
s(Vinsert
p1252
I42
VSimpleName: getDrawerListView
p1253
tp1254
I1
s(Vinsert
p1255
I42
VSimpleName: setSelectionByIdentifier
p1256
tp1257
I1
s(Vinsert
p1258
I40
VQualifiedName: R.drawable.profile5
p1259
tp1260
I1
s(Vinsert
p1261
I43
VSimpleType: ArrayList
p1262
tp1263
I5
s(Vinsert
p1264
I42
VSimpleName: getSelections
p1265
tp1266
I2
s(Vinsert
p1267
I42
VSimpleName: customHeight
p1268
tp1269
I1
s(Vinsert
p1270
I42
VSimpleName: Picasso
p1271
tp1272
I3
s(Vinsert
p1273
I42
VSimpleName: mBadgeStyle
p1274
tp1275
I1
s(Vinsert
p1276
I42
VSimpleName: addProfiles
p1277
tp1278
I1
s(Vinsert
p1279
I45
VStringLiteral: "batman@gmail.com"
p1280
tp1281
I2
s(Vinsert
p1282
I42
VSimpleName: selected_icon
p1283
tp1284
I4
s(Vinsert
p1285
I34
VNumberLiteral: 19
p1286
tp1287
I3
s(Vinsert
p1288
I42
VSimpleName: mShowDrawerOnFirstLaunch
p1289
tp1290
I2
s(Vinsert
p1291
I42
VSimpleName: clear
p1292
tp1293
I3
s(Vinsert
p1294
I42
VSimpleName: arrowColor
p1295
tp1296
I1
s(Vinsert
p1297
I42
VSimpleName: Object
p1298
tp1299
I2
s(Vinsert
p1300
I42
VSimpleName: getPaddingBottom
p1301
tp1302
I1
s(Vinsert
p1303
I42
VSimpleName: originalContentView
p1304
tp1305
I2
s(Vinsert
p1306
I42
VSimpleName: invalidate
p1307
tp1308
I1
s(Vinsert
p1309
I42
VSimpleName: sc
p1310
tp1311
I1
s(Vinsert
p1312
I42
VSimpleName: OnCheckedChangeListener
p1313
tp1314
I2
s(Vinsert
p1315
I42
VSimpleName: intent
p1316
tp1317
I9
s(Vinsert
p1318
I42
VSimpleName: isSelectionListShown
p1319
tp1320
I2
s(Vinsert
p1321
I42
VSimpleName: mStatusBarColor
p1322
tp1323
I2
s(Vinsert
p1324
I40
VQualifiedName: mDrawerBuilder.mAdapter
p1325
tp1326
I2
s(Vinsert
p1327
I42
VSimpleName: fullscreen
p1328
tp1329
I1
s(Vinsert
p1330
I40
VQualifiedName: android.content.res.Resources
p1331
tp1332
I1
s(Vinsert
p1333
I42
VSimpleName: insets
p1334
tp1335
I1
s(Vinsert
p1336
I42
VSimpleName: withCorners
p1337
tp1338
I1
s(Vinsert
p1339
I40
VQualifiedName: Build.VERSION_CODES.HONEYCOMB
p1340
tp1341
I1
s(Vinsert
p1342
I42
VSimpleName: setHeaderBackground
p1343
tp1344
I1
s(Vinsert
p1345
I42
VSimpleName: BUNDLE_DRAWER_CONTENT_SWITCHED_APPENDED
p1346
tp1347
I1
s(Vinsert
p1348
I43
VSimpleType: IExpandable
p1349
tp1350
I2
s(Vinsert
p1351
I42
VSimpleName: stickyHeaderRes
p1352
tp1353
I1
s(Vinsert
p1354
I42
VSimpleName: navDrawerItems
p1355
tp1356
I1
s(Vinsert
p1357
I34
VNumberLiteral: 8
p1358
tp1359
I2
s(Vinsert
p1360
I42
VSimpleName: addProfile
p1361
tp1362
I1
s(Vinsert
p1363
I40
VQualifiedName: BaseDrawerAdapter.OnLongClickListener
p1364
tp1365
I1
s(Vinsert
p1366
I42
VSimpleName: mAccountSwitcherArrow
p1367
tp1368
I1
s(Vinsert
p1369
I45
VStringLiteral: "sample"
p1370
tp1371
I1
s(Vinsert
p1372
I42
VSimpleName: textColorRes
p1373
tp1374
I5
s(Vinsert
p1375
I42
VSimpleName: mListView
p1376
tp1377
I4
s(Vinsert
p1378
I43
VSimpleType: DrawerLayout.LayoutParams
p1379
tp1380
I3
s(Vinsert
p1381
I42
VSimpleName: imageLoader
p1382
tp1383
I3
s(Vinsert
p1384
I42
VSimpleName: mIdentifier
p1385
tp1386
I1
s(Vinsert
p1387
I42
VSimpleName: viewHolder
p1388
tp1389
I13
s(Vinsert
p1390
I42
VSimpleName: mNameTypeface
p1391
tp1392
I1
s(Vinsert
p1393
I1
VAnonymousClassDeclaration
p1394
tp1395
I4
s(Vinsert
p1396
I42
VSimpleName: BaseViewHolder
p1397
tp1398
I1
s(Vinsert
p1399
I42
VSimpleName: isEnabled
p1400
tp1401
I13
s(Vinsert
p1402
I42
VSimpleName: getIconBitmap
p1403
tp1404
I2
s(Vinsert
p1405
I40
VQualifiedName: GoogleMaterial.Icon.gmd_wb_sunny
p1406
tp1407
I3
s(Vinsert
p1408
I43
VSimpleType: LinkedList
p1409
tp1410
I1
s(Vinsert
p1411
I42
VSimpleName: setSelectionFirstLine
p1412
tp1413
I1
s(Vinsert
p1414
I42
VSimpleName: Arrays
p1415
tp1416
I1
s(Vinsert
p1417
I42
VSimpleName: viewParams
p1418
tp1419
I1
s(Vinsert
p1420
I42
VSimpleName: Toast
p1421
tp1422
I6
s(Vinsert
p1423
I42
VSimpleName: footerContainer
p1424
tp1425
I3
s(Vinsert
p1426
I42
VSimpleName: appendedResult
p1427
tp1428
I1
s(Vinsert
p1429
I42
VSimpleName: mOnMiniDrawerItemLongClickListener
p1430
tp1431
I1
s(Vinsert
p1432
I42
VSimpleName: mOnPostBindViewListener
p1433
tp1434
I2
s(Vinsert
p1435
I42
VSimpleName: mTranslucentNavigationBar
p1436
tp1437
I1
s(Vinsert
p1438
I42
VSimpleName: cTranslucentNavigationBar
p1439
tp1440
I1
s(Vinsert
p1441
I42
VSimpleName: actionBarDrawerToggle
p1442
tp1443
I1
s(Vinsert
p1444
I43
VSimpleType: IDrawerItem
p1445
tp1446
I37
s(Vinsert
p1447
I42
VSimpleName: getAdapter
p1448
tp1449
I15
s(Vinsert
p1450
I40
VQualifiedName: holder.itemView
p1451
tp1452
I6
s(Vinsert
p1453
I42
VSimpleName: mRecyclerView
p1454
tp1455
I4
s(Vinsert
p1456
I43
VSimpleType: SharedPreferences
p1457
tp1458
I2
s(Vinsert
p1459
I42
VSimpleName: withActivityTheme
p1460
tp1461
I1
s(Vinsert
p1462
I34
VNumberLiteral: 0
p1463
tp1464
I47
s(Vinsert
p1465
I36
VParenthesizedExpression
p1466
tp1467
I20
s(Vinsert
p1468
I42
VSimpleName: mBoundsF
p1469
tp1470
I1
s(Vinsert
p1471
I57
VTypeLiteral
p1472
tp1473
I4
s(Vinsert
p1474
I42
VSimpleName: Log
p1475
tp1476
I8
s(Vinsert
p1477
I42
VSimpleName: mSelectedItem
p1478
tp1479
I1
s(Vinsert
p1480
I42
VSimpleName: withProfileIcon
p1481
tp1482
I1
s(Vinsert
p1483
I40
VQualifiedName: GoogleMaterial.Icon.gmd_healing
p1484
tp1485
I1
s(Vinsert
p1486
I42
VSimpleName: onCreate
p1487
tp1488
I4
s(Vinsert
p1489
I42
VSimpleName: getDefaultDisplay
p1490
tp1491
I1
s(Vinsert
p1492
I42
VSimpleName: mAccountHeaderBackground
p1493
tp1494
I2
s(Vinsert
p1495
I40
VQualifiedName: drawer.mActivity
p1496
tp1497
I1
s(Vinsert
p1498
I42
VSimpleName: getSelectedColor
p1499
tp1500
I1
s(Vinsert
p1501
I43
VSimpleType: MenuItem
p1502
tp1503
I4
s(Vinsert
p1504
I52
VThisExpression
p1505
tp1506
I136
s(Vinsert
p1507
I42
VSimpleName: withTag
p1508
tp1509
I1
s(Vinsert
p1510
I42
VSimpleName: mFooterView
p1511
tp1512
I1
s(Vinsert
p1513
I42
VSimpleName: mSliderBackgroundColorRes
p1514
tp1515
I1
s(Vinsert
p1516
I42
VSimpleName: getRecyclerView
p1517
tp1518
I4
s(Vinsert
p1519
I42
VSimpleName: getOnCheckedChangeListener
p1520
tp1521
I4
s(Vinsert
p1522
I70
VEnhancedForStatement
p1523
tp1524
I5
s(Vinsert
p1525
I42
VSimpleName: setActiveProfile
p1526
tp1527
I1
s(Vinsert
p1528
I42
VSimpleName: mItemAnimator
p1529
tp1530
I2
s(Vinsert
p1531
I42
VSimpleName: shadowLayoutParams
p1532
tp1533
I1
s(Vinsert
p1534
I42
VSimpleName: fireOnClick
p1535
tp1536
I2
s(Vinsert
p1537
I14
VClassInstanceCreation
p1538
tp1539
I100
s(Vinsert
p1540
I42
VSimpleName: mAccountHeaderContainer
p1541
tp1542
I6
s(Vinsert
p1543
I43
VSimpleType: AccountHeaderBuilder
p1544
tp1545
I2
s(Vinsert
p1546
I40
VQualifiedName: DrawerImageLoader.Tags.ACCOUNT_HEADER
p1547
tp1548
I1
s(Vinsert
p1549
I42
VSimpleName: putInt
p1550
tp1551
I2
s(Vinsert
p1552
I42
VSimpleName: toggleSelectionList
p1553
tp1554
I1
s(Vinsert
p1555
I42
VSimpleName: mCurrentProfileName
p1556
tp1557
I3
s(Vinsert
p1558
I42
VSimpleName: getFooterAdapter
p1559
tp1560
I1
s(Vinsert
p1561
I42
VSimpleName: withPaddingTopBottomPx
p1562
tp1563
I1
s(Vinsert
p1564
I42
VSimpleName: IconicsDrawable
p1565
tp1566
I3
s(Vinsert
p1567
I42
VSimpleName: layoutParamsContentView
p1568
tp1569
I1
s(Vinsert
p1570
I42
VSimpleName: setTypeface
p1571
tp1572
I9
s(Vinsert
p1573
I42
VSimpleName: mActionBarDrawerToggleEnabled
p1574
tp1575
I1
s(Vinsert
p1576
I45
VStringLiteral: "https://avatars3.githubusercontent.com/u/1476232?v=3&s=460"
p1577
tp1578
I1
s(Vinsert
p1579
I42
VSimpleName: mBounds
p1580
tp1581
I1
s(Vinsert
p1582
I42
VSimpleName: withCompactStyle
p1583
tp1584
I1
s(Vinsert
p1585
I43
VSimpleType: Context
p1586
tp1587
I20
s(Vinsert
p1588
I43
VSimpleType: SecondaryDrawerItem
p1589
tp1590
I11
s(Vinsert
p1591
I43
VSimpleType: ImageHolder
p1592
tp1593
I5
s(Vinsert
p1594
I42
VSimpleName: primary
p1595
tp1596
I1
s(Vinsert
p1597
I42
VSimpleName: getGradientDrawable
p1598
tp1599
I1
s(Vinsert
p1600
I42
VSimpleName: mActionBarDrawerToggle
p1601
tp1602
I2
s(Vinsert
p1603
I42
VSimpleName: mSelectedItemPosition
p1604
tp1605
I2
s(Vinsert
p1606
I40
VQualifiedName: R.string.drawer_item_help
p1607
tp1608
I1
s(Vinsert
p1609
I39
VPrimitiveType: float
p1610
tp1611
I2
s(Vinsert
p1612
I42
VSimpleName: withPositionBasedStateManagement
p1613
tp1614
I4
s(Vinsert
p1615
I42
VSimpleName: setBackgroundDrawable
p1616
tp1617
I1
s(Vinsert
p1618
I42
VSimpleName: hsv
p1619
tp1620
I1
s(Vinsert
p1621
I65
VTagElement: @param
p1622
tp1623
I17
s(Vinsert
p1624
I40
VQualifiedName: FontAwesome.Icon.faw_gamepad
p1625
tp1626
I3
s(Vinsert
p1627
I50
VSwitchStatement
p1628
tp1629
I3
s(Vinsert
p1630
I42
VSimpleName: getScheme
p1631
tp1632
I1
s(Vinsert
p1633
I42
VSimpleName: setBackgroundResource
p1634
tp1635
I7
s(Vinsert
p1636
I42
VSimpleName: mColorInt
p1637
tp1638
I1
s(Vinsert
p1639
I42
VSimpleName: res
p1640
tp1641
I2
s(Vinsert
p1642
I27
VInfixExpression: >=
p1643
tp1644
I8
s(Vinsert
p1645
I42
VSimpleName: isSystemBarOnBottom
p1646
tp1647
I1
s(Vinsert
p1648
I43
VSimpleType: PrimaryDrawerItem
p1649
tp1650
I22
s(Vinsert
p1651
I40
VQualifiedName: mDrawer.mRootView
p1652
tp1653
I1
s(Vinsert
p1654
I42
VSimpleName: f
p1655
tp1656
I1
s(Vinsert
p1657
I42
VSimpleName: getHeader
p1658
tp1659
I2
s(Vinsert
p1660
I42
VSimpleName: Identifyable
p1661
tp1662
I3
s(Vinsert
p1663
I42
VSimpleName: inflate
p1664
tp1665
I8
s(Vinsert
p1666
I42
VSimpleName: translucentNavigationBar
p1667
tp1668
I1
s(Vinsert
p1669
I42
VSimpleName: init
p1670
tp1671
I1
s(Vinsert
p1672
I40
VQualifiedName: R.string.drawer_item_custom
p1673
tp1674
I4
s(Vinsert
p1675
I42
VSimpleName: gravity
p1676
tp1677
I1
s(Vinsert
p1678
I42
VSimpleName: MenuInflater
p1679
tp1680
I1
s(Vinsert
p1681
I42
VSimpleName: activeProfiles
p1682
tp1683
I1
s(Vinsert
p1684
I42
VSimpleName: currentProfile
p1685
tp1686
I1
s(Vinsert
p1687
I42
VSimpleName: applyToBackground
p1688
tp1689
I1
s(Vinsert
p1690
I42
VSimpleName: length
p1691
tp1692
I1
s(Vinsert
p1693
I34
VNumberLiteral: 12
p1694
tp1695
I1
s(Vinsert
p1696
I42
VSimpleName: List
p1697
tp1698
I1
s(Vinsert
p1699
I42
VSimpleName: mProfileSecondView
p1700
tp1701
I1
s(Vinsert
p1702
I42
VSimpleName: mOnMiniDrawerItemOnClickListener
p1703
tp1704
I1
s(Vinsert
p1705
I42
VSimpleName: DefaultIdDistributorImpl
p1706
tp1707
I1
s(Vinsert
p1708
I42
VSimpleName: Context
p1709
tp1710
I21
s(Vinsert
p1711
I42
VSimpleName: withDisplayBelowStatusBar
p1712
tp1713
I1
s(Vinsert
p1714
I42
VSimpleName: enableSelectedBackground
p1715
tp1716
I1
s(Vinsert
p1717
I42
VSimpleName: setAdapter
p1718
tp1719
I3
s(Vinsert
p1720
I43
VSimpleType: SimpleFragmentDrawerActivity
p1721
tp1722
I1
s(Vinsert
p1723
I43
VSimpleType: Bundle
p1724
tp1725
I9
s(Vinsert
p1726
I42
VSimpleName: withView
p1727
tp1728
I2
s(Vinsert
p1729
I42
VSimpleName: hasSubMenu
p1730
tp1731
I1
s(Vinsert
p1732
I42
VSimpleName: outValue
p1733
tp1734
I1
s(Vinsert
p1735
I42
VSimpleName: onItemClick
p1736
tp1737
I3
s(Vinsert
p1738
I42
VSimpleName: params
p1739
tp1740
I3
s(Vinsert
p1741
I66
VTextElement: get the adapter (null safe)
p1742
tp1743
I1
s(Vinsert
p1744
I42
VSimpleName: setImage
p1745
tp1746
I1
s(Vinsert
p1747
I42
VSimpleName: addExtension
p1748
tp1749
I1
s(Vinsert
p1750
I42
VSimpleName: c
p1751
tp1752
I1
s(Vinsert
p1753
I42
VSimpleName: drawInsetsFrameLayout
p1754
tp1755
I2
s(Vinsert
p1756
I42
VSimpleName: mCrossfader
p1757
tp1758
I2
s(Vinsert
p1759
I42
VSimpleName: setLayoutParams
p1760
tp1761
I3
s(Vinsert
p1762
I42
VSimpleName: removeProfileByIdentifier
p1763
tp1764
I1
s(Vinsert
p1765
I39
VPrimitiveType: int
p1766
tp1767
I97
s(Vinsert
p1768
I42
VSimpleName: getMenuInflater
p1769
tp1770
I1
s(Vinsert
p1771
I43
VSimpleType: MiniDrawer
p1772
tp1773
I2
s(Vinsert
p1774
I43
VSimpleType: DemoFragment
p1775
tp1776
I1
s(Vinsert
p1777
I42
VSimpleName: iconTinted
p1778
tp1779
I3
s(Vinsert
p1780
I42
VSimpleName: textView
p1781
tp1782
I6
s(Vinsert
p1783
I27
VInfixExpression: &&
p1784
tp1785
I43
s(Vinsert
p1786
I42
VSimpleName: layoutParams
p1787
tp1788
I2
s(Vinsert
p1789
I42
VSimpleName: mDrawerAdapter
p1790
tp1791
I5
s(Vinsert
p1792
I42
VSimpleName: isSelectedIconTinted
p1793
tp1794
I2
s(Vinsert
p1795
I42
VSimpleName: curPos
p1796
tp1797
I1
s(Vinsert
p1798
I42
VSimpleName: typeface
p1799
tp1800
I6
s(Vinsert
p1801
I43
VSimpleType: SectionDrawerItem
p1802
tp1803
I3
s(Vinsert
p1804
I42
VSimpleName: AccountHeader
p1805
tp1806
I1
s(Vinsert
p1807
I66
VTextElement: helper method to decide for the correct color
p1808
tp1809
I3
s(Vinsert
p1810
I42
VSimpleName: setMargins
p1811
tp1812
I1
s(Vinsert
p1813
I61
VWhileStatement
p1814
tp1815
I1
s(Vinsert
p1816
I40
VQualifiedName: R.string.drawer_item_complex_header_drawer
p1817
tp1818
I1
s(Vinsert
p1819
I43
VSimpleType: DividerDrawerItem
p1820
tp1821
I1
s(Vinsert
p1822
I54
VTryStatement
p1823
tp1824
I3
s(Vinsert
p1825
I42
VSimpleName: onFooterDrawerItemClick
p1826
tp1827
I2
s(Vinsert
p1828
I42
VSimpleName: getLayoutParams
p1829
tp1830
I5
s(Vinsert
p1831
I42
VSimpleName: getFields
p1832
tp1833
I1
s(Vinsert
p1834
I43
VSimpleType: ViewGroup.LayoutParams
p1835
tp1836
I2
s(Vinsert
p1837
I59
VVariableDeclarationFragment
p1838
tp1839
I149
s(Vinsert
p1840
I42
VSimpleName: setWillNotDraw
p1841
tp1842
I1
s(Vinsert
p1843
I43
VSimpleType: RecyclerView.ViewHolder
p1844
tp1845
I3
s(Vinsert
p1846
I42
VSimpleName: getProfiles
p1847
tp1848
I2
s(Vinsert
p1849
I42
VSimpleName: setHasStableIds
p1850
tp1851
I3
s(Vinsert
p1852
I42
VSimpleName: addDrawerItem
p1853
tp1854
I2
s(Vinsert
p1855
I43
VSimpleType: MiniDrawerItem
p1856
tp1857
I1
s(Vinsert
p1858
I42
VSimpleName: v
p1859
tp1860
I13
s(Vinsert
p1861
I45
VStringLiteral: "Add Account"
p1862
tp1863
I1
s(Vinsert
p1864
I40
VQualifiedName: FontAwesome.Icon.faw_github
p1865
tp1866
I2
s(Vinsert
p1867
I40
VQualifiedName: mDrawer.mDrawerBuilder.idDistributor
p1868
tp1869
I2
s(Vinsert
p1870
I66
VTextElement:  false if not consumed
p1871
tp1872
I1
s(Vinsert
p1873
I42
VSimpleName: buildDrawerSelectionList
p1874
tp1875
I1
s(Vinsert
p1876
I40
VQualifiedName: RelativeLayout.LayoutParams.WRAP_CONTENT
p1877
tp1878
I1
s(Vinsert
p1879
I42
VSimpleName: resultAppended
p1880
tp1881
I1
s(Vinsert
p1882
I42
VSimpleName: alpha
p1883
tp1884
I1
s(Vinsert
p1885
I42
VSimpleName: withCacheSize
p1886
tp1887
I1
s(Vinsert
p1888
I40
VQualifiedName: mDrawer.mDrawerBuilder.mTranslucentStatusBar
p1889
tp1890
I1
s(Vinsert
p1891
I40
VQualifiedName: mDrawer.mDrawerBuilder
p1892
tp1893
I3
s(Vinsert
p1894
I40
VQualifiedName: Color.RED
p1895
tp1896
I2
s(Vinsert
p1897
I40
VQualifiedName: mInsets.top
p1898
tp1899
I1
s(Vinsert
p1900
I40
VQualifiedName: View.VISIBLE
p1901
tp1902
I1
s(Vinsert
p1903
I42
VSimpleName: getContext
p1904
tp1905
I22
s(Vinsert
p1906
I29
VJavadoc
p1907
tp1908
I10
s(Vinsert
p1909
I42
VSimpleName: mOnDrawerNavigationListener
p1910
tp1911
I1
s(Vinsert
p1912
I42
VSimpleName: withCheckable
p1913
tp1914
I8
s(Vinsert
p1915
I42
VSimpleName: emptyList
p1916
tp1917
I1
s(Vinsert
p1918
I45
VStringLiteral: "Mike Penz"
p1919
tp1920
I1
s(Vinsert
p1921
I42
VSimpleName: getSlider
p1922
tp1923
I3
s(Vinsert
p1924
I42
VSimpleName: getThemeColor
p1925
tp1926
I1
s(Vinsert
p1927
I40
VQualifiedName: viewHolder.itemView
p1928
tp1929
I5
s(Vinsert
p1930
I42
VSimpleName: backgroundColor
p1931
tp1932
I1
s(Vinsert
p1933
I42
VSimpleName: setEnabled
p1934
tp1935
I10
s(Vinsert
p1936
I42
VSimpleName: getAccountHeaderBuilder
p1937
tp1938
I1
s(Vinsert
p1939
I43
VSimpleType: TextView
p1940
tp1941
I2
s(Vinsert
p1942
I43
VSimpleType: Activity
p1943
tp1944
I1
s(Vinsert
p1945
I34
VNumberLiteral: 1
p1946
tp1947
I30
s(Vinsert
p1948
I42
VSimpleName: mInsetForeground
p1949
tp1950
I3
s(Vinsert
p1951
I42
VSimpleName: mCompactStyle
p1952
tp1953
I1
s(Vinsert
p1954
I42
VSimpleName: compact
p1955
tp1956
I2
s(Vinsert
p1957
I42
VSimpleName: resetDrawerContent
p1958
tp1959
I1
s(Vinsert
p1960
I42
VSimpleName: removeView
p1961
tp1962
I1
s(Vinsert
p1963
I42
VSimpleName: getSupportActionBar
p1964
tp1965
I2
s(Vinsert
p1966
I42
VSimpleName: decideIcon
p1967
tp1968
I5
s(Vinsert
p1969
I42
VSimpleName: indexOf
p1970
tp1971
I1
s(Vinsert
p1972
I40
VQualifiedName: R.string.drawer_item_persistent_compact_header
p1973
tp1974
I1
s(Vinsert
p1975
I42
VSimpleName: setForeground
p1976
tp1977
I1
s(Vinsert
p1978
I42
VSimpleName: selectionFirstLine
p1979
tp1980
I2
s(Vinsert
p1981
I42
VSimpleName: SecondarySwitchDrawerItem
p1982
tp1983
I1
s(Vinsert
p1984
I42
VSimpleName: mInflater
p1985
tp1986
I1
s(Vinsert
p1987
I42
VSimpleName: iv
p1988
tp1989
I3
s(Vinsert
p1990
I42
VSimpleName: fireOnProfileChanged
p1991
tp1992
I1
s(Vinsert
p1993
I42
VSimpleName: setDrawingCacheBackgroundColor
p1994
tp1995
I1
s(Vinsert
p1996
I42
VSimpleName: removeItems
p1997
tp1998
I1
s(Vinsert
p1999
I42
VSimpleName: onInsetsChanged
p2000
tp2001
I1
s(Vinsert
p2002
I40
VQualifiedName: R.dimen.material_drawer_padding
p2003
tp2004
I1
s(Vinsert
p2005
I42
VSimpleName: setColorInt
p2006
tp2007
I1
s(Vinsert
p2008
I45
VStringLiteral: "bundle_footer_selection_APPENDED"
p2009
tp2010
I1
s(Vinsert
p2011
I42
VSimpleName: placeholder
p2012
tp2013
I6
s(Vinsert
p2014
I42
VSimpleName: ItemAdapter
p2015
tp2016
I3
s(Vinsert
p2017
I42
VSimpleName: setText
p2018
tp2019
I4
s(Vinsert
p2020
I42
VSimpleName: CrossFader
p2021
tp2022
I1
s(Vinsert
p2023
I43
VSimpleType: Drawer
p2024
tp2025
I1
s(Vinsert
p2026
I42
VSimpleName: o
p2027
tp2028
I3
s(Vinsert
p2029
I23
VFieldDeclaration
p2030
tp2031
I4
s(Vinsert
p2032
I43
VSimpleType: BadgeStyle
p2033
tp2034
I3
s(Vinsert
p2035
I34
VNumberLiteral: 1000001
p2036
tp2037
I1
s(Vinsert
p2038
I42
VSimpleName: applyDecidedIconOrSetGone
p2039
tp2040
I1
s(Vinsert
p2041
I42
VSimpleName: getCurrentSelectedPosition
p2042
tp2043
I1
s(Vinsert
p2044
I5
VArrayType: IDrawerItem[]
p2045
tp2046
I1
s(Vinsert
p2047
I40
VQualifiedName: RelativeLayout.LayoutParams
p2048
tp2049
I4
s(Vinsert
p2050
I42
VSimpleName: start
p2051
tp2052
I1
s(Vinsert
p2053
I40
VQualifiedName: android.net.Uri
p2054
tp2055
I1
s(Vinsert
p2056
I42
VSimpleName: drawerContentRoot
p2057
tp2058
I1
s(Vinsert
p2059
I42
VSimpleName: getResources
p2060
tp2061
I28
s(Vinsert
p2062
I42
VSimpleName: onBackPressed
p2063
tp2064
I1
s(Vinsert
p2065
I42
VSimpleName: putBoolean
p2066
tp2067
I1
s(Vinsert
p2068
I43
VSimpleType: SimpleNonTranslucentDrawerActivity
p2069
tp2070
I1
s(Vinsert
p2071
I42
VSimpleName: iDrawerItem
p2072
tp2073
I1
s(Vinsert
p2074
I42
VSimpleName: getDrawerItems
p2075
tp2076
I9
s(Vinsert
p2077
I42
VSimpleName: cancel
p2078
tp2079
I1
s(Vinsert
p2080
I40
VQualifiedName: GoogleMaterial.Icon.gmd_adb
p2081
tp2082
I2
s(Vinsert
p2083
I5
VArrayType: int[]
p2084
tp2085
I2
s(Vinsert
p2086
I42
VSimpleName: mMultiSelect
p2087
tp2088
I1
s(Vinsert
p2089
I42
VSimpleName: ctx
p2090
tp2091
I61
s(Vinsert
p2092
I42
VSimpleName: verticalPadding
p2093
tp2094
I3
s(Vinsert
p2095
I42
VSimpleName: sliderBackgroundColorRes
p2096
tp2097
I1
s(Vinsert
p2098
I66
VTextElement: Set the color for the statusbar
p2099
tp2100
I1
s(Vinsert
p2101
I42
VSimpleName: getDisabledTextColorRes
p2102
tp2103
I1
s(Vinsert
p2104
I40
VQualifiedName: GoogleMaterial.Icon.gmd_brightness_5
p2105
tp2106
I1
s(Vinsert
p2107
I42
VSimpleName: getDrawable
p2108
tp2109
I4
s(Vinsert
p2110
I42
VSimpleName: getPosition
p2111
tp2112
I1
s(Vinsert
p2113
I34
VNumberLiteral: 21
p2114
tp2115
I3
s(Vinsert
p2116
I42
VSimpleName: mTranslucentStatusBarShadow
p2117
tp2118
I2
s(Vinsert
p2119
I42
VSimpleName: uri
p2120
tp2121
I9
s(Vinsert
p2122
I42
VSimpleName: setScaleType
p2123
tp2124
I1
s(Vinsert
p2125
I42
VSimpleName: getDrawerBuilder
p2126
tp2127
I2
s(Vinsert
p2128
I42
VSimpleName: closeDrawerDelayed
p2129
tp2130
I1
s(Vinsert
p2131
I43
VSimpleType: IProfile
p2132
tp2133
I10
s(Vinsert
p2134
I42
VSimpleName: Drawer
p2135
tp2136
I1
s(Vinsert
p2137
I42
VSimpleName: mEnableSelectedMiniDrawerItemBackground
p2138
tp2139
I1
s(Vinsert
p2140
I40
VQualifiedName: R.string.drawer_item_keyboard_util_drawer
p2141
tp2142
I1
s(Vinsert
p2143
I42
VSimpleName: mExpandableExtension
p2144
tp2145
I1
s(Vinsert
p2146
I33
VNullLiteral
p2147
tp2148
I125
s(Vinsert
p2149
I43
VSimpleType: DimenHolder
p2150
tp2151
I1
s(Vinsert
p2152
I42
VSimpleName: withName
p2153
tp2154
I48
s(Vinsert
p2155
I42
VSimpleName: slideOffset
p2156
tp2157
I1
s(Vinsert
p2158
I42
VSimpleName: mCrossFader
p2159
tp2160
I1
s(Vinsert
p2161
I7
VAssignment: =
p2162
tp2163
I139
s(Vinsert
p2164
I42
VSimpleName: mInnerShadow
p2165
tp2166
I4
s(Vinsert
p2167
I34
VNumberLiteral: 13
p2168
tp2169
I1
s(Vinsert
p2170
I42
VSimpleName: isDrawerOpen
p2171
tp2172
I8
s(Vinsert
p2173
I42
VSimpleName: headerResult
p2174
tp2175
I8
s(Vinsert
p2176
I42
VSimpleName: opened
p2177
tp2178
I1
s(Vinsert
p2179
I42
VSimpleName: fromColor
p2180
tp2181
I4
s(Vinsert
p2182
I42
VSimpleName: setFlags
p2183
tp2184
I2
s(Vinsert
p2185
I42
VSimpleName: convertView
p2186
tp2187
I16
s(Vinsert
p2188
I42
VSimpleName: DrawerImageLoader
p2189
tp2190
I1
s(Vinsert
p2191
I43
VSimpleType: FastAdapter
p2192
tp2193
I1
s(Vinsert
p2194
I42
VSimpleName: getDrawerItemByIdentifier
p2195
tp2196
I1
s(Vinsert
p2197
I42
VSimpleName: disabledIconColorRes
p2198
tp2199
I1
s(Vinsert
p2200
I55
VTypeDeclaration
p2201
tp2202
I1
s(Vinsert
p2203
I43
VSimpleType: NavDrawerListAdapter
p2204
tp2205
I1
s(Vinsert
p2206
I42
VSimpleName: withDrawerLayout
p2207
tp2208
I1
s(Vinsert
p2209
I42
VSimpleName: getLayoutInflater
p2210
tp2211
I8
s(Vinsert
p2212
I42
VSimpleName: position
p2213
tp2214
I24
s(Vinsert
p2215
I42
VSimpleName: NonNull
p2216
tp2217
I3
s(Vinsert
p2218
I66
VTextElement: internal mapper to remember and add possible types for the RecyclerView
p2219
tp2220
I1
s(Vinsert
p2221
I40
VQualifiedName: GoogleMaterial.Icon.gmd_list
p2222
tp2223
I1
s(Vinsert
p2224
I42
VSimpleName: toolbar
p2225
tp2226
I1
s(Vinsert
p2227
I42
VSimpleName: drawer
p2228
tp2229
I10
s(Vinsert
p2230
I27
VInfixExpression: >
p2231
tp2232
I16
s(Vinsert
p2233
I40
VQualifiedName: mDrawer.mHeaderOffset
p2234
tp2235
I2
s(Vinsert
p2236
I42
VSimpleName: mOnAccountHeaderProfileImageListener
p2237
tp2238
I1
s(Vinsert
p2239
I43
VSimpleType: ProfileSettingDrawerItem
p2240
tp2241
I1
s(Vinsert
p2242
I42
VSimpleName: mHeaderView
p2243
tp2244
I1
s(Vinsert
p2245
I43
VSimpleType: Drawable
p2246
tp2247
I8
s(Vinsert
p2248
I42
VSimpleName: statusBarShadow
p2249
tp2250
I2
s(Vinsert
p2251
I42
VSimpleName: applyTo
p2252
tp2253
I9
s(Vinsert
p2254
I42
VSimpleName: mFooterAdapter
p2255
tp2256
I1
s(Vinsert
p2257
I42
VSimpleName: handleTranslucentDecorMargins
p2258
tp2259
I1
s(Vinsert
p2260
I40
VQualifiedName: drawer.mListView
p2261
tp2262
I2
s(Vinsert
p2263
I42
VSimpleName: mSubItems
p2264
tp2265
I2
s(Vinsert
p2266
I42
VSimpleName: mItemAdapter
p2267
tp2268
I6
s(Vinsert
p2269
I43
VSimpleType: ViewGroup
p2270
tp2271
I6
s(Vinsert
p2272
I42
VSimpleName: setFullscreen
p2273
tp2274
I1
s(Vinsert
p2275
I43
VSimpleType: DrawInsetsFrameLayout
p2276
tp2277
I2
s(Vinsert
p2278
I40
VQualifiedName: R.drawable.profile3
p2279
tp2280
I1
s(Vinsert
p2281
I42
VSimpleName: mCurrentProfileView
p2282
tp2283
I2
s(Vinsert
p2284
I66
VTextElement: set the background for the header via the ImageHolder class
p2285
tp2286
I1
s(Vinsert
p2287
I43
VSimpleType: RecyclerView.LayoutParams
p2288
tp2289
I2
s(Vinsert
p2290
I43
VSimpleType: Identifyable
p2291
tp2292
I2
s(Vinsert
p2293
I42
VSimpleName: getDrawerToggle
p2294
tp2295
I1
s(Vinsert
p2296
I42
VSimpleName: fromColorRes
p2297
tp2298
I7
s(Vinsert
p2299
I43
VSimpleType: T
p2300
tp2301
I2
s(Vinsert
p2302
I42
VSimpleName: getDescriptionTextColor
p2303
tp2304
I2
s(Vinsert
p2305
I40
VQualifiedName: GoogleMaterial.Icon.gmd_collection_case_play
p2306
tp2307
I1
s(Vinsert
p2308
I40
VQualifiedName: R.color.material_drawer_background
p2309
tp2310
I3
s(Vinsert
p2311
I42
VSimpleName: arrowColorRes
p2312
tp2313
I1
s(Vinsert
p2314
I42
VSimpleName: withSubItems
p2315
tp2316
I1
s(Vinsert
p2317
I42
VSimpleName: onNavigationClickListener
p2318
tp2319
I1
s(Vinsert
p2320
I42
VSimpleName: checkId
p2321
tp2322
I1
s(Vinsert
p2323
I42
VSimpleName: onSaveInstanceState
p2324
tp2325
I4
s(Vinsert
p2326
I42
VSimpleName: calculateProfiles
p2327
tp2328
I1
s(Vinsert
p2329
I42
VSimpleName: second
p2330
tp2331
I1
s(Vinsert
p2332
I42
VSimpleName: holder
p2333
tp2334
I7
s(Vinsert
p2335
I40
VQualifiedName: mDrawer.mSliderLayout
p2336
tp2337
I2
s(Vinsert
p2338
I42
VSimpleName: topBottomPadding
p2339
tp2340
I1
s(Vinsert
p2341
I42
VSimpleName: selectedColor
p2342
tp2343
I1
s(Vinsert
p2344
I43
VSimpleType: SecondarySwitchDrawerItem
p2345
tp2346
I1
s(Vinsert
p2347
I42
VSimpleName: MiniDrawer
p2348
tp2349
I3
s(Vinsert
p2350
I42
VSimpleName: setImageDrawable
p2351
tp2352
I3
s(Vinsert
p2353
I42
VSimpleName: registerFont
p2354
tp2355
I1
s(Vinsert
p2356
I42
VSimpleName: Color
p2357
tp2358
I2
s(Vinsert
p2359
I42
VSimpleName: isSelectable
p2360
tp2361
I1
s(Vinsert
p2362
I42
VSimpleName: withEnableSelectedBackground
p2363
tp2364
I1
s(Vinsert
p2365
I42
VSimpleName: getSelectedIcon
p2366
tp2367
I2
s(Vinsert
p2368
I40
VQualifiedName: com.tundem.holokitkatdrawer.view.DrawInsetsFrameLayout
p2369
tp2370
I1
s(Vinsert
p2371
I40
VQualifiedName: R.id.icon
p2372
tp2373
I2
s(Vinsert
p2374
I42
VSimpleName: mHasStableIds
p2375
tp2376
I1
s(Vinsert
p2377
I42
VSimpleName: remove
p2378
tp2379
I1
s(Vinsert
p2380
I42
VSimpleName: withIdDistributor
p2381
tp2382
I2
s(Vinsert
p2383
I42
VSimpleName: asList
p2384
tp2385
I1
s(Vinsert
p2386
I42
VSimpleName: imageView
p2387
tp2388
I7
s(Vinsert
p2389
I42
VSimpleName: mHeaderAdapter
p2390
tp2391
I1
s(Vinsert
p2392
I42
VSimpleName: mDrawer
p2393
tp2394
I14
s(Vinsert
p2395
I42
VSimpleName: Resources
p2396
tp2397
I3
s(Vinsert
p2398
I43
VSimpleType: DisplayMetrics
p2399
tp2400
I3
s(Vinsert
p2401
I42
VSimpleName: mDrawerWidth
p2402
tp2403
I1
s(Vinsert
p2404
I42
VSimpleName: PreferenceManager
p2405
tp2406
I2
s(Vinsert
p2407
I42
VSimpleName: Outline
p2408
tp2409
I1
s(Vinsert
p2410
I42
VSimpleName: getActionBarHeight
p2411
tp2412
I1
s(Vinsert
p2413
I42
VSimpleName: setRecyclerViewSelection
p2414
tp2415
I1
s(Vinsert
p2416
I42
VSimpleName: mCurrentSelection
p2417
tp2418
I3
s(Vinsert
p2419
I42
VSimpleName: Handler
p2420
tp2421
I2
s(Vinsert
p2422
I42
VSimpleName: getSelectedIconColor
p2423
tp2424
I4
s(Vinsert
p2425
I40
VQualifiedName: viewHolder.name
p2426
tp2427
I5
s(Vinsert
p2428
I42
VSimpleName: mContainer
p2429
tp2430
I3
s(Vinsert
p2431
I43
VSimpleType: RelativeLayout.LayoutParams
p2432
tp2433
I4
s(Vinsert
p2434
I42
VSimpleName: setIconTinted
p2435
tp2436
I1
s(Vinsert
p2437
I43
VSimpleType: TypedArray
p2438
tp2439
I1
s(Vinsert
p2440
I42
VSimpleName: Icon
p2441
tp2442
I2
s(Vinsert
p2443
I42
VSimpleName: setTag
p2444
tp2445
I6
s(Vinsert
p2446
I42
VSimpleName: putString
p2447
tp2448
I1
s(Vinsert
p2449
I42
VSimpleName: keyboardSupportEnabled
p2450
tp2451
I1
s(Vinsert
p2452
I40
VQualifiedName: R.id.menu_3
p2453
tp2454
I1
s(Vinsert
p2455
I40
VQualifiedName: drawer.mSliderLayout
p2456
tp2457
I1
s(Vinsert
p2458
I40
VQualifiedName: Build.VERSION.SDK_INT
p2459
tp2460
I8
s(Vinsert
p2461
I42
VSimpleName: withHeaderBackground
p2462
tp2463
I1
s(Vinsert
p2464
I42
VSimpleName: isChecked
p2465
tp2466
I3
s(Vinsert
p2467
I42
VSimpleName: sdk
p2468
tp2469
I2
s(Vinsert
p2470
I42
VSimpleName: invalidateOptionsMenu
p2471
tp2472
I1
s(Vinsert
p2473
I42
VSimpleName: getSubItems
p2474
tp2475
I2
s(Vinsert
p2476
I40
VQualifiedName: LinearLayout.LayoutParams
p2477
tp2478
I3
s(Vinsert
p2479
I42
VSimpleName: Nameable
p2480
tp2481
I9
s(Vinsert
p2482
I38
VPrefixExpression: !
p2483
tp2484
I21
s(Vinsert
p2485
I42
VSimpleName: getWindow
p2486
tp2487
I7
s(Vinsert
p2488
I45
VStringLiteral: "Batman"
p2489
tp2490
I1
s(Vinsert
p2491
I85
VDimension
p2492
tp2493
I3
s(Vinsert
p2494
I42
VSimpleName: contentParams
p2495
tp2496
I1
s(Vinsert
p2497
I42
VSimpleName: printStackTrace
p2498
tp2499
I1
s(Vinsert
p2500
I42
VSimpleName: Bitmap
p2501
tp2502
I3
s(Vinsert
p2503
I42
VSimpleName: notifyItemRemoved
p2504
tp2505
I1
s(Vinsert
p2506
I42
VSimpleName: enabledSecond
p2507
tp2508
I1
s(Vinsert
p2509
I42
VSimpleName: Activity
p2510
tp2511
I1
s(Vinsert
p2512
I40
VQualifiedName: drawer.mFooterView
p2513
tp2514
I1
s(Vinsert
p2515
I42
VSimpleName: isCrossFaded
p2516
tp2517
I1
s(Vinsert
p2518
I42
VSimpleName: sliderBackgroundDrawableRes
p2519
tp2520
I1
s(Vinsert
p2521
I45
VStringLiteral: "https"
p2522
tp2523
I1
s(Vinsert
p2524
I42
VSimpleName: act
p2525
tp2526
I3
s(Vinsert
p2527
I40
VQualifiedName: mDrawer.mDrawerLayout
p2528
tp2529
I5
s(Vinsert
p2530
I42
VSimpleName: setBackground
p2531
tp2532
I7
s(Vinsert
p2533
I42
VSimpleName: getDimensionPixelSize
p2534
tp2535
I2
s(Vinsert
p2536
I34
VNumberLiteral: 1000000
p2537
tp2538
I1
s(Vinsert
p2539
I42
VSimpleName: getContent
p2540
tp2541
I1
s(Vinsert
p2542
I42
VSimpleName: getDrawerListItem
p2543
tp2544
I1
s(Vinsert
p2545
I45
VStringLiteral: "left closed"
p2546
tp2547
I1
s(Vinsert
p2548
I42
VSimpleName: bindViewHelper
p2549
tp2550
I3
s(Vinsert
p2551
I42
VSimpleName: footerViewRes
p2552
tp2553
I1
s(Vinsert
p2554
I42
VSimpleName: getMiniDrawer
p2555
tp2556
I1
s(Vinsert
p2557
I40
VQualifiedName: mDrawerBuilder.mCurrentSelection
p2558
tp2559
I1
s(Vinsert
p2560
I8
VBlock
p2561
tp2562
I403
s(Vinsert
p2563
I40
VQualifiedName: DrawerLayout.STATE_DRAGGING
p2564
tp2565
I1
s(Vinsert
p2566
I42
VSimpleName: shadowOffset
p2567
tp2568
I3
s(Vinsert
p2569
I42
VSimpleName: found
p2570
tp2571
I2
s(Vinsert
p2572
I42
VSimpleName: resourceId
p2573
tp2574
I1
s(Vinsert
p2575
I45
VStringLiteral: "the adapter was already set or items were added to it"
p2576
tp2577
I1
s(Vinsert
p2578
I42
VSimpleName: setDrawSelectorOnTop
p2579
tp2580
I1
s(Vinsert
p2581
I42
VSimpleName: Rect
p2582
tp2583
I2
s(Vinsert
p2584
I74
VParameterizedType: Stack<IProfile>
p2585
tp2586
I1
s(Vinsert
p2587
I40
VQualifiedName: contentParams.weight
p2588
tp2589
I1
s(Vinsert
p2590
I49
VSwitchCase
p2591
tp2592
I1
s(Vinsert
p2593
I42
VSimpleName: getPaddingTop
p2594
tp2595
I2
s(Vinsert
p2596
I42
VSimpleName: empty
p2597
tp2598
I1
s(Vinsert
p2599
I42
VSimpleName: clearFooterItems
p2600
tp2601
I1
s(Vinsert
p2602
I42
VSimpleName: clearHeaderItems
p2603
tp2604
I1
s(Vinsert
p2605
I45
VStringLiteral: "mikepenz@gmail.com"
p2606
tp2607
I1
s(Vinsert
p2608
I42
VSimpleName: iconColor
p2609
tp2610
I10
s(Vinsert
p2611
I34
VNumberLiteral: 20
p2612
tp2613
I1
s(Vinsert
p2614
I42
VSimpleName: b
p2615
tp2616
I3
s(Vinsert
p2617
I42
VSimpleName: collapse
p2618
tp2619
I1
s(Vinsert
p2620
I46
VSuperConstructorInvocation
p2621
tp2622
I1
s(Vinsert
p2623
I43
VSimpleType: ItemAdapter
p2624
tp2625
I2
s(Vinsert
p2626
I42
VSimpleName: newState
p2627
tp2628
I1
s(Vinsert
p2629
I42
VSimpleName: newProfile
p2630
tp2631
I2
s(Vinsert
p2632
I42
VSimpleName: checkDrawerItem
p2633
tp2634
I1
s(Vinsert
p2635
I45
VStringLiteral: "bundle_drawer_content_switched_appended"
p2636
tp2637
I1
s(Vinsert
p2638
I42
VSimpleName: getListView
p2639
tp2640
I4
s(Vinsert
p2641
I42
VSimpleName: SecondaryDrawerItem
p2642
tp2643
I11
s(Vinsert
p2644
I42
VSimpleName: onGlobalLayoutListener
p2645
tp2646
I1
s(Vinsert
p2647
I42
VSimpleName: width
p2648
tp2649
I1
s(Vinsert
p2650
I42
VSimpleName: mTextRes
p2651
tp2652
I1
s(Vinsert
p2653
I34
VNumberLiteral: 14
p2654
tp2655
I1
s(Vinsert
p2656
I42
VSimpleName: divider
p2657
tp2658
I12
s(Vinsert
p2659
I42
VSimpleName: cancelImage
p2660
tp2661
I2
s(Vinsert
p2662
I42
VSimpleName: withArrowColorRes
p2663
tp2664
I1
s(Vinsert
p2665
I42
VSimpleName: setIdentifier
p2666
tp2667
I2
s(Vinsert
p2668
I42
VSimpleName: outline
p2669
tp2670
I1
s(Vinsert
p2671
I42
VSimpleName: heightDiffDp
p2672
tp2673
I1
s(Vinsert
p2674
I40
VQualifiedName: R.string.drawer_item_fragment_drawer_desc
p2675
tp2676
I1
s(Vinsert
p2677
I42
VSimpleName: SimpleFragmentDrawerActivity
p2678
tp2679
I1
s(Vinsert
p2680
I42
VSimpleName: ev
p2681
tp2682
I1
s(Vinsert
p2683
I42
VSimpleName: withAccountHeader
p2684
tp2685
I7
s(Vinsert
p2686
I42
VSimpleName: mBadgeBackground
p2687
tp2688
I1
s(Vinsert
p2689
I42
VSimpleName: headerContainer
p2690
tp2691
I2
s(Vinsert
p2692
I34
VNumberLiteral: 360
p2693
tp2694
I1
s(Vinsert
p2695
I42
VSimpleName: getThemeColorFromAttrOrRes
p2696
tp2697
I8
s(Vinsert
p2698
I42
VSimpleName: disableTouchFeedback
p2699
tp2700
I2
s(Vinsert
p2701
I40
VQualifiedName: FontAwesome.Icon.faw_cog
p2702
tp2703
I1
s(Vinsert
p2704
I42
VSimpleName: mpdi
p2705
tp2706
I2
s(Vinsert
p2707
I42
VSimpleName: mDp
p2708
tp2709
I1
s(Vinsert
p2710
I74
VParameterizedType: FastAdapter<IDrawerItem>
p2711
tp2712
I1
s(Vinsert
p2713
I42
VSimpleName: values
p2714
tp2715
I1
s(Vinsert
p2716
I42
VSimpleName: setToolbarNavigationClickListener
p2717
tp2718
I1
s(Vinsert
p2719
I42
VSimpleName: factory
p2720
tp2721
I1
s(Vinsert
p2722
I42
VSimpleName: context
p2723
tp2724
I10
s(Vinsert
p2725
I42
VSimpleName: getType
p2726
tp2727
I1
s(Vinsert
p2728
I42
VSimpleName: getIdentifier
p2729
tp2730
I21
s(Vinsert
p2731
I42
VSimpleName: handled
p2732
tp2733
I1
s(Vinsert
p2734
I42
VSimpleName: getCompatDrawable
p2735
tp2736
I3
s(Vinsert
p2737
I78
VMarkerAnnotation
p2738
tp2739
I27
s(Vinsert
p2740
I42
VSimpleName: add
p2741
tp2742
I5
s(Vinsert
p2743
I42
VSimpleName: nameShown
p2744
tp2745
I4
s(Vinsert
p2746
I42
VSimpleName: mOnProfileClickDrawerCloseDelay
p2747
tp2748
I2
s(Vinsert
p2749
I42
VSimpleName: getConstantState
p2750
tp2751
I1
s(Vinsert
p2752
I42
VSimpleName: setSelected
p2753
tp2754
I1
s(Vinsert
p2755
I42
VSimpleName: itemAnimator
p2756
tp2757
I2
s(Vinsert
p2758
I42
VSimpleName: fromPixel
p2759
tp2760
I4
s(Vinsert
p2761
I42
VSimpleName: mCrossFadePanelWidthFirst
p2762
tp2763
I1
s(Vinsert
p2764
I42
VSimpleName: mCrossFadePanelWidthSecond
p2765
tp2766
I1
s(Vinsert
p2767
I40
VQualifiedName: Context.WINDOW_SERVICE
p2768
tp2769
I1
s(Vinsert
p2770
I42
VSimpleName: DefaultIdDistributor
p2771
tp2772
I1
s(Vinsert
p2773
I42
VSimpleName: addAll
p2774
tp2775
I3
s(Vinsert
p2776
I42
VSimpleName: getPaddingRight
p2777
tp2778
I1
s(Vinsert
p2779
I66
VTextElement: returns always the original drawerItems and not the switched content
p2780
tp2781
I1
s(Vinsert
p2782
I42
VSimpleName: onCheckedChanged
p2783
tp2784
I3
s(Vinsert
p2785
I42
VSimpleName: mSelectionFirstLineShown
p2786
tp2787
I1
s(Vinsert
p2788
I42
VSimpleName: red
p2789
tp2790
I1
s(Vinsert
p2791
I40
VQualifiedName: mDrawer.mListView
p2792
tp2793
I2
s(Vinsert
p2794
I42
VSimpleName: withEnableSelectedMiniDrawerItemBackground
p2795
tp2796
I1
s(Vinsert
p2797
I83
VModifier: public
p2798
tp2799
I51
s(Vinsert
p2800
I42
VSimpleName: activity
p2801
tp2802
I4
s(Vinsert
p2803
I40
VQualifiedName: mDrawerBuilder.mAppended
p2804
tp2805
I1
s(Vinsert
p2806
I40
VQualifiedName: GoogleMaterial.Icon.gmd_format_bold
p2807
tp2808
I2
s(Vinsert
p2809
I42
VSimpleName: getChildCount
p2810
tp2811
I2
s(Vinsert
p2812
I42
VSimpleName: badgeBackgroundRes
p2813
tp2814
I4
s(Vinsert
p2815
I66
VTextElement: get the current position of the selected drawer element
p2816
tp2817
I1
s(Vinsert
p2818
I42
VSimpleName: getImageLoader
p2819
tp2820
I1
s(Vinsert
p2821
I42
VSimpleName: t
p2822
tp2823
I2
s(Vinsert
p2824
I42
VSimpleName: mEmailTypeface
p2825
tp2826
I1
s(Vinsert
p2827
I42
VSimpleName: mGradientDrawable
p2828
tp2829
I1
s(Vinsert
p2830
I40
VQualifiedName: mAccountHeaderBuilder.mProfiles
p2831
tp2832
I1
s(Vinsert
p2833
I42
VSimpleName: getBoolean
p2834
tp2835
I2
s(Vinsert
p2836
I42
VSimpleName: build
p2837
tp2838
I7
s(Vinsert
p2839
I40
VQualifiedName: R.string.drawer_item_home
p2840
tp2841
I1
s(Vinsert
p2842
I42
VSimpleName: adi
p2843
tp2844
I2
s(Vinsert
p2845
I42
VSimpleName: setName
p2846
tp2847
I2
s(Vinsert
p2848
I42
VSimpleName: getLayoutDirection
p2849
tp2850
I1
s(Vinsert
p2851
I42
VSimpleName: mAccountHeaderTextSectionBackgroundResource
p2852
tp2853
I2
s(Vinsert
p2854
I43
VSimpleType: Checkable
p2855
tp2856
I2
s(Vinsert
p2857
I34
VNumberLiteral: 16
p2858
tp2859
I6
s(Vinsert
p2860
I42
VSimpleName: ColorRes
p2861
tp2862
I4
s(Vinsert
p2863
I42
VSimpleName: AbstractDrawerItem
p2864
tp2865
I10
s(Vinsert
p2866
I42
VSimpleName: mSliderLayout
p2867
tp2868
I7
s(Vinsert
p2869
I42
VSimpleName: drawerItem
p2870
tp2871
I57
s(Vinsert
p2872
I40
VQualifiedName: mDrawerBuilder.mMiniDrawer
p2873
tp2874
I2
s(Vinsert
p2875
I42
VSimpleName: withTextColorRes
p2876
tp2877
I1
s(Vinsert
p2878
I42
VSimpleName: ViewHolder
p2879
tp2880
I11
s(Vinsert
p2881
I40
VQualifiedName: GoogleMaterial.Icon.gmd_add
p2882
tp2883
I1
s(Vinsert
p2884
I40
VQualifiedName: R.color.material_drawer_divider
p2885
tp2886
I2
s(Vinsert
p2887
I42
VSimpleName: textColor
p2888
tp2889
I5
s(Vinsert
p2890
I43
VSimpleType: LinearLayout.LayoutParams
p2891
tp2892
I2
s(Vinsert
p2893
I42
VSimpleName: profiles
p2894
tp2895
I3
s(Vinsert
p2896
I42
VSimpleName: mSliderBackgroundDrawableRes
p2897
tp2898
I1
s(Vinsert
p2899
I40
VQualifiedName: Cfg.accentColor
p2900
tp2901
I1
s(Vinsert
p2902
I42
VSimpleName: preferences
p2903
tp2904
I2
s(Vinsert
p2905
I42
VSimpleName: getScreenOrientation
p2906
tp2907
I3
s(Vinsert
p2908
I42
VSimpleName: closeOnClick
p2909
tp2910
I1
s(Vinsert
p2911
I40
VQualifiedName: params.gravity
p2912
tp2913
I1
s(Vinsert
p2914
I42
VSimpleName: closeDrawer
p2915
tp2916
I1
s(Vinsert
p2917
I42
VSimpleName: mSliderBackgroundDrawable
p2918
tp2919
I1
s(Vinsert
p2920
I42
VSimpleName: addStickyFooterDivider
p2921
tp2922
I1
s(Vinsert
p2923
I34
VNumberLiteral: 7
p2924
tp2925
I1
s(Vinsert
p2926
I42
VSimpleName: SystemUtils
p2927
tp2928
I3
s(Vinsert
p2929
I42
VSimpleName: SimpleNonTranslucentDrawerActivity
p2930
tp2931
I1
s(Vinsert
p2932
I42
VSimpleName: identifier
p2933
tp2934
I14
s(Vinsert
p2935
I42
VSimpleName: updateItem
p2936
tp2937
I1
s(Vinsert
p2938
I42
VSimpleName: NavDrawerListAdapter
p2939
tp2940
I1
s(Vinsert
p2941
I42
VSimpleName: selectionSecondLineShown
p2942
tp2943
I1
s(Vinsert
p2944
I42
VSimpleName: crossFade
p2945
tp2946
I1
s(Vinsert
p2947
I42
VSimpleName: container
p2948
tp2949
I2
s(Vinsert
p2950
I45
VStringLiteral: "Felix House"
p2951
tp2952
I1
s(Vinsert
p2953
I43
VSimpleType: Icon
p2954
tp2955
I1
s(Vinsert
p2956
I42
VSimpleName: TextView
p2957
tp2958
I2
s(Vinsert
p2959
I27
VInfixExpression: -
p2960
tp2961
I6
s(Vinsert
p2962
I42
VSimpleName: get
p2963
tp2964
I9
s(Vinsert
p2965
I42
VSimpleName: iconUri
p2966
tp2967
I3
s(Vinsert
p2968
I42
VSimpleName: colorStateList
p2969
tp2970
I2
s(Vinsert
p2971
I42
VSimpleName: mSelectionSecondLineShown
p2972
tp2973
I1
s(Vinsert
p2974
I42
VSimpleName: mAccountHeaderTextSection
p2975
tp2976
I2
s(Vinsert
p2977
I42
VSimpleName: icon_color
p2978
tp2979
I2
s(Vinsert
p2980
I38
VPrefixExpression: -
p2981
tp2982
I23
s(Vinsert
p2983
I74
VParameterizedType: LinkedList<String>
p2984
tp2985
I1
s(Vinsert
p2986
I44
VSingleVariableDeclaration
p2987
tp2988
I142
s(Vinsert
p2989
I42
VSimpleName: withNameShown
p2990
tp2991
I1
s(Vinsert
p2992
I42
VSimpleName: MenuItem
p2993
tp2994
I4
s(Vinsert
p2995
I42
VSimpleName: getItemId
p2996
tp2997
I4
s(Vinsert
p2998
I42
VSimpleName: mAccountHeader
p2999
tp3000
I3
s(Vinsert
p3001
I40
VQualifiedName: Integer.MIN_VALUE
p3002
tp3003
I2
s(Vinsert
p3004
I42
VSimpleName: handleDrawerNavigation
p3005
tp3006
I2
s(Vinsert
p3007
I40
VQualifiedName: View.GONE
p3008
tp3009
I3
s(Vinsert
p3010
I42
VSimpleName: withAllowDeselection
p3011
tp3012
I1
s(Vinsert
p3013
I40
VQualifiedName: R.string.drawer_item_settings
p3014
tp3015
I1
s(Vinsert
p3016
I42
VSimpleName: Uri
p3017
tp3018
I7
s(Vinsert
p3019
I43
VSimpleType: Resources
p3020
tp3021
I2
s(Vinsert
p3022
I43
VSimpleType: View
p3023
tp3024
I30
s(Vinsert
p3025
I42
VSimpleName: resId
p3026
tp3027
I1
s(Vinsert
p3028
I42
VSimpleName: Boolean
p3029
tp3030
I1
s(Vinsert
p3031
I42
VSimpleName: getIconUri
p3032
tp3033
I2
s(Vinsert
p3034
I42
VSimpleName: mOnDrawerListener
p3035
tp3036
I4
s(Vinsert
p3037
I42
VSimpleName: actionBarSize
p3038
tp3039
I2
s(Vinsert
p3040
I42
VSimpleName: onClick
p3041
tp3042
I5
s(Vinsert
p3043
I42
VSimpleName: onInterceptTouchEvent
p3044
tp3045
I1
s(Vinsert
p3046
I42
VSimpleName: parseColor
p3047
tp3048
I1
s(Vinsert
p3049
I42
VSimpleName: adapter
p3050
tp3051
I1
s(Vinsert
p3052
I42
VSimpleName: mSliderBackgroundColor
p3053
tp3054
I1
s(Vinsert
p3055
I42
VSimpleName: getOnMiniDrawerItemLongClickListener
p3056
tp3057
I1
s(Vinsert
p3058
I42
VSimpleName: getId
p3059
tp3060
I1
s(Vinsert
p3061
I42
VSimpleName: mAppended
p3062
tp3063
I2
s(Vinsert
p3064
I42
VSimpleName: mOnDrawerItemClickListener
p3065
tp3066
I1
s(Vinsert
p3067
I43
VSimpleType: String
p3068
tp3069
I9
s(Vinsert
p3070
I42
VSimpleName: innerShadow
p3071
tp3072
I2
s(Vinsert
p3073
I42
VSimpleName: mAccountHeaderBuilder
p3074
tp3075
I1
s(Vinsert
p3076
I42
VSimpleName: updateHeaderAndList
p3077
tp3078
I2
s(Vinsert
p3079
I42
VSimpleName: startActivity
p3080
tp3081
I4
s(Vinsert
p3082
I42
VSimpleName: icon
p3083
tp3084
I10
s(Vinsert
p3085
I42
VSimpleName: mTempRect
p3086
tp3087
I2
s(Vinsert
p3088
I42
VSimpleName: SharedPreferences
p3089
tp3090
I2
s(Vinsert
p3091
I40
VQualifiedName: Octicons.Icon.oct_tools
p3092
tp3093
I1
s(Vinsert
p3094
I42
VSimpleName: setChecked
p3095
tp3096
I3
s(Vinsert
p3097
I42
VSimpleName: Menu
p3098
tp3099
I2
s(Vinsert
p3100
I42
VSimpleName: setStatusBarColor
p3101
tp3102
I2
s(Vinsert
p3103
I42
VSimpleName: getPaddingLeft
p3104
tp3105
I3
s(Vinsert
p3106
I42
VSimpleName: getTheme
p3107
tp3108
I4
s(Vinsert
p3109
I42
VSimpleName: removeItem
p3110
tp3111
I1
s(Vinsert
p3112
I4
VArrayInitializer
p3113
tp3114
I2
s(Vinsert
p3115
I42
VSimpleName: withImage
p3116
tp3117
I1
s(Vinsert
p3118
I43
VSimpleType: DefaultIdDistributor
p3119
tp3120
I1
s(Vinsert
p3121
I42
VSimpleName: e
p3122
tp3123
I2
s(Vinsert
p3124
I42
VSimpleName: px
p3125
tp3126
I1
s(Vinsert
p3127
I43
VSimpleType: Object
p3128
tp3129
I2
s(Vinsert
p3130
I42
VSimpleName: applyToOrTransparent
p3131
tp3132
I1
s(Vinsert
p3133
I42
VSimpleName: withTranslucentStatusBar
p3134
tp3135
I3
s(Vinsert
p3136
I42
VSimpleName: getString
p3137
tp3138
I1
s(Vinsert
p3139
I66
VTextElement: This will handle the ActionBarDrawerToggle for you.
p3140
tp3141
I1
s(Vinsert
p3142
I42
VSimpleName: setSelectedIconTinted
p3143
tp3144
I2
s(Vinsert
p3145
I74
VParameterizedType: ExpandableExtension<IDrawerItem>
p3146
tp3147
I1
s(Vinsert
p3148
I42
VSimpleName: inRTL
p3149
tp3150
I1
s(Vinsert
p3151
I42
VSimpleName: handleFooterView
p3152
tp3153
I1
s(Vinsert
p3154
I43
VSimpleType: ActionBarDrawerActivity
p3155
tp3156
I1
s(Vinsert
p3157
I40
VQualifiedName: R.id.drawer_layout
p3158
tp3159
I1
s(Vinsert
p3160
I34
VNumberLiteral: 15
p3161
tp3162
I1
s(Vinsert
p3163
I42
VSimpleName: getStickyFooter
p3164
tp3165
I5
s(Vinsert
p3166
I42
VSimpleName: alreadyInflated
p3167
tp3168
I4
s(Vinsert
p3169
I40
VQualifiedName: viewHolder.badge
p3170
tp3171
I8
s(Vinsert
p3172
I42
VSimpleName: tv
p3173
tp3174
I4
s(Vinsert
p3175
I42
VSimpleName: setSelection
p3176
tp3177
I5
s(Vinsert
p3178
I42
VSimpleName: setOnClickListener
p3179
tp3180
I7
s(Vinsert
p3181
I42
VSimpleName: mPositionBasedStateManagement
p3182
tp3183
I2
s(Vinsert
p3184
I42
VSimpleName: ArrayList
p3185
tp3186
I5
s(Vinsert
p3187
I42
VSimpleName: menu
p3188
tp3189
I2
s(Vinsert
p3190
I40
VQualifiedName: R.string.drawer_item_action_bar_drawer
p3191
tp3192
I1
s(Vinsert
p3193
I40
VQualifiedName: R.string.drawer_item_mini_drawer
p3194
tp3195
I1
s(Vinsert
p3196
I42
VSimpleName: setFooterSelection
p3197
tp3198
I3
s(Vinsert
p3199
I42
VSimpleName: name
p3200
tp3201
I4
s(Vinsert
p3202
I42
VSimpleName: setImageResource
p3203
tp3204
I1
s(Vinsert
p3205
I74
VParameterizedType: ArrayList<IProfile>
p3206
tp3207
I2
s(Vinsert
p3208
I42
VSimpleName: setItemChecked
p3209
tp3210
I1
s(Vinsert
p3211
I41
VReturnStatement
p3212
tp3213
I65
s(Vinsert
p3214
I42
VSimpleName: setTextColor
p3215
tp3216
I7
s(Vinsert
p3217
I42
VSimpleName: withFields
p3218
tp3219
I1
s(Vinsert
p3220
I42
VSimpleName: setFitsSystemWindows
p3221
tp3222
I4
s(Vinsert
p3223
I42
VSimpleName: mActionBarCompatibility
p3224
tp3225
I1
s(Vinsert
p3226
I42
VSimpleName: crossfader
p3227
tp3228
I1
s(Vinsert
p3229
I42
VSimpleName: badgeContainer
p3230
tp3231
I4
s(Vinsert
p3232
I42
VSimpleName: valueOf
p3233
tp3234
I2
s(Vinsert
p3235
I42
VSimpleName: Long
p3236
tp3237
I1
s(Vinsert
p3238
I42
VSimpleName: setBounds
p3239
tp3240
I2
s(Vinsert
p3241
I42
VSimpleName: CompoundButton
p3242
tp3243
I1
s(Vinsert
p3244
I43
VSimpleType: Application
p3245
tp3246
I2
s(Vinsert
p3247
I45
VStringLiteral: "CollapsableItem"
p3248
tp3249
I2
s(Vinsert
p3250
I42
VSimpleName: stickyDrawerItems
p3251
tp3252
I1
s(Vinsert
p3253
I27
VInfixExpression: <
p3254
tp3255
I10
s(Vinsert
p3256
I42
VSimpleName: T
p3257
tp3258
I2
s(Vinsert
p3259
I42
VSimpleName: fromResource
p3260
tp3261
I1
s(Vinsert
p3262
I42
VSimpleName: crossfade
p3263
tp3264
I1
s(Vinsert
p3265
I32
VMethodInvocation
p3266
tp3267
I869
s(Vinsert
p3268
I40
VQualifiedName: mDrawerBuilder.mStickyFooterShadowView
p3269
tp3270
I1
s(Vinsert
p3271
I42
VSimpleName: getName
p3272
tp3273
I2
s(Vinsert
p3274
I40
VQualifiedName: R.string.drawer_item_crossfade_drawer_layout_drawer
p3275
tp3276
I1
s(Vinsert
p3277
I42
VSimpleName: animated
p3278
tp3279
I1
s(Vinsert
p3280
I40
VQualifiedName: FontAwesome.Icon.faw_home
p3281
tp3282
I3
s(Vinsert
p3283
I42
VSimpleName: GradientDrawable
p3284
tp3285
I3
s(Vinsert
p3286
I42
VSimpleName: mFooterDrawerItems
p3287
tp3288
I2
s(Vinsert
p3289
I42
VSimpleName: paddingDp
p3290
tp3291
I5
s(Vinsert
p3292
I42
VSimpleName: paddingTopBottom
p3293
tp3294
I2
s(Vinsert
p3295
I42
VSimpleName: Drawable
p3296
tp3297
I8
s(Vinsert
p3298
I40
VQualifiedName: mAccountHeaderBuilder.mSelectionFirstLine
p3299
tp3300
I1
s(Vinsert
p3301
I42
VSimpleName: id
p3302
tp3303
I4
s(Vinsert
p3304
I16
VConditionalExpression
p3305
tp3306
I4
s(Vinsert
p3307
I42
VSimpleName: TypedArray
p3308
tp3309
I1
s(Vinsert
p3310
I40
VQualifiedName: drawerItems.length
p3311
tp3312
I1
s(Vinsert
p3313
I42
VSimpleName: orientation
p3314
tp3315
I3
s(Vinsert
p3316
I42
VSimpleName: mActivity
p3317
tp3318
I25
s(Vinsert
p3319
I40
VQualifiedName: com.mikepenz.materialdrawer.holder.StringHolder
p3320
tp3321
I1
s(Vinsert
p3322
I42
VSimpleName: Override
p3323
tp3324
I22
s(Vinsert
p3325
I42
VSimpleName: draw
p3326
tp3327
I1
s(Vinsert
p3328
I42
VSimpleName: view
p3329
tp3330
I33
s(Vinsert
p3331
I42
VSimpleName: addDrawerItems
p3332
tp3333
I1
s(Vinsert
p3334
I12
VCatchClause
p3335
tp3336
I1
s(Vinsert
p3337
I42
VSimpleName: mStyle
p3338
tp3339
I1
s(Vinsert
p3340
I43
VSimpleType: Canvas
p3341
tp3342
I1
s(Vinsert
p3343
I83
VModifier: static
p3344
tp3345
I4
s(Vinsert
p3346
I42
VSimpleName: recreateActionBarDrawerToggle
p3347
tp3348
I2
s(Vinsert
p3349
I42
VSimpleName: SimpleHeaderDrawerActivity
p3350
tp3351
I4
s(Vinsert
p3352
I42
VSimpleName: DemoFragment
p3353
tp3354
I1
s(Vinsert
p3355
I42
VSimpleName: isCheckable
p3356
tp3357
I1
s(Vinsert
p3358
I42
VSimpleName: withChecked
p3359
tp3360
I1
s(Vinsert
p3361
I42
VSimpleName: isCurrentSelectedProfile
p3362
tp3363
I3
s(Vinsert
p3364
I42
VSimpleName: current
p3365
tp3366
I1
s(Vinsert
p3367
I42
VSimpleName: getOnDrawerItemClickListener
p3368
tp3369
I5
s(Vinsert
p3370
I43
VSimpleType: IconicsDrawable
p3371
tp3372
I3
s(Vinsert
p3373
I42
VSimpleName: generateView
p3374
tp3375
I1
s(Vinsert
p3376
I42
VSimpleName: tag
p3377
tp3378
I7
s(Vinsert
p3379
I42
VSimpleName: getIcon
p3380
tp3381
I1
s(Vinsert
p3382
I42
VSimpleName: lightUpBy
p3383
tp3384
I1
s(Vinsert
p3385
I42
VSimpleName: Intent
p3386
tp3387
I7
s(Vinsert
p3388
I40
VQualifiedName: Libs.Builder
p3389
tp3390
I1
s(Vinsert
p3391
I3
VArrayCreation
p3392
tp3393
I3
s(Vinsert
p3394
I43
VSimpleType: KeyboardUtil
p3395
tp3396
I1
s(Vinsert
p3397
I40
VQualifiedName: R.string.drawer_item_section_header
p3398
tp3399
I2
s(Vinsert
p3400
I43
VSimpleType: Intent
p3401
tp3402
I5
s(Vinsert
p3403
I42
VSimpleName: Bundle
p3404
tp3405
I10
s(Vinsert
p3406
I42
VSimpleName: ViewGroup
p3407
tp3408
I6
s(Vinsert
p3409
I40
VQualifiedName: WindowManager.LayoutParams.FLAG_TRANSLUCENT_STATUS
p3410
tp3411
I4
s(Vinsert
p3412
I42
VSimpleName: with
p3413
tp3414
I5
s(Vinsert
p3415
I42
VSimpleName: setIcon
p3416
tp3417
I2
s(Vinsert
p3418
I34
VNumberLiteral: 4
p3419
tp3420
I2
s(Vinsert
p3421
I42
VSimpleName: statusBarColor
p3422
tp3423
I2
s(Vinsert
p3424
I42
VSimpleName: BUNDLE_FOOTER_SELECTION_APPENDED
p3425
tp3426
I1
s(Vinsert
p3427
I40
VQualifiedName: FontAwesome.Icon.faw_eye
p3428
tp3429
I3
s(Vinsert
p3430
I42
VSimpleName: SectionDrawerItem
p3431
tp3432
I3
s(Vinsert
p3433
I83
VModifier: private
p3434
tp3435
I7
s(Vinsert
p3436
I42
VSimpleName: rotation
p3437
tp3438
I1
s(Vinsert
p3439
I42
VSimpleName: mTypeIds
p3440
tp3441
I1
s(Vinsert
p3442
I42
VSimpleName: drawable
p3443
tp3444
I2
s(Vinsert
p3445
I42
VSimpleName: lp
p3446
tp3447
I1
s(Vinsert
p3448
I42
VSimpleName: removeHeaderView
p3449
tp3450
I2
s(Vinsert
p3451
I42
VSimpleName: equals
p3452
tp3453
I6
s(Vinsert
p3454
I42
VSimpleName: ExpandableExtension
p3455
tp3456
I2
s(Vinsert
p3457
I42
VSimpleName: getColor
p3458
tp3459
I6
s(Vinsert
p3460
I42
VSimpleName: withBadge
p3461
tp3462
I2
s(Vinsert
p3463
I42
VSimpleName: getInt
p3464
tp3465
I1
s(Vinsert
p3466
I34
VNumberLiteral: 56
p3467
tp3468
I1
s(Vinsert
p3469
I42
VSimpleName: DrawerActivity
p3470
tp3471
I1
s(Vinsert
p3472
I42
VSimpleName: iconText
p3473
tp3474
I1
s(Vinsert
p3475
I42
VSimpleName: setDisplayHomeAsUpEnabled
p3476
tp3477
I4
s(Vinsert
p3478
I42
VSimpleName: obtain
p3479
tp3480
I1
s(Vinsert
p3481
I43
VSimpleType: Uri
p3482
tp3483
I5
s(Vinsert
p3484
I42
VSimpleName: pdi
p3485
tp3486
I3
s(Vinsert
p3487
I42
VSimpleName: mMenuItem
p3488
tp3489
I3
s(Vinsert
p3490
I42
VSimpleName: PrimaryDrawerItem
p3491
tp3492
I27
s(Vinsert
p3493
I43
VSimpleType: Handler
p3494
tp3495
I2
s(Vinsert
p3496
I42
VSimpleName: load
p3497
tp3498
I1
s(Vinsert
p3499
I42
VSimpleName: IProfile
p3500
tp3501
I10
s(Vinsert
p3502
I42
VSimpleName: selected
p3503
tp3504
I1
s(Vinsert
p3505
I40
VQualifiedName: View.SYSTEM_UI_FLAG_LAYOUT_FULLSCREEN
p3506
tp3507
I1
s(Vinsert
p3508
I48
VSuperMethodInvocation
p3509
tp3510
I4
s(Vinsert
p3511
I42
VSimpleName: mSelectedItemIdentifier
p3512
tp3513
I1
s(Vinsert
p3514
I42
VSimpleName: ImageHolder
p3515
tp3516
I7
s(Vinsert
p3517
I42
VSimpleName: getPositionByIdentifier
p3518
tp3519
I2
s(Vinsert
p3520
I43
VSimpleType: ImageView
p3521
tp3522
I5
s(Vinsert
p3523
I34
VNumberLiteral: 9
p3524
tp3525
I1
s(Vinsert
p3526
I40
VQualifiedName: R.string.drawer_item_collapsing_toolbar_drawer_desc
p3527
tp3528
I1
s(Vinsert
p3529
I40
VQualifiedName: GoogleMaterial.Icon.gmd_disc_full
p3530
tp3531
I1
s(Vinsert
p3532
I42
VSimpleName: getHeight
p3533
tp3534
I2
s(Vinsert
p3535
I42
VSimpleName: enableSelectedMiniDrawerItemBackground
p3536
tp3537
I2
s(Vinsert
p3538
I42
VSimpleName: VH
p3539
tp3540
I1
s(Vinsert
p3541
I43
VSimpleType: Profile
p3542
tp3543
I3
s(Vinsert
p3544
I43
VSimpleType: BaseViewHolder
p3545
tp3546
I1
s(Vinsert
p3547
I42
VSimpleName: badgeTextColor
p3548
tp3549
I4
s(Vinsert
p3550
I43
VSimpleType: AccountHeader
p3551
tp3552
I1
s(Vinsert
p3553
I34
VNumberLiteral: 100
p3554
tp3555
I3
s(Vinsert
p3556
I42
VSimpleName: subMenu
p3557
tp3558
I1
s(Vinsert
p3559
I42
VSimpleName: ContainerDrawerItem
p3560
tp3561
I3
s(Vinsert
p3562
I42
VSimpleName: iicon
p3563
tp3564
I2
s(Vinsert
p3565
I40
VQualifiedName: drawer.mStickyFooterView
p3566
tp3567
I2
s(Vinsert
p3568
I43
VSimpleType: RectF
p3569
tp3570
I1
s(Vinsert
p3571
I42
VSimpleName: getBadge
p3572
tp3573
I1
s(Vinsert
p3574
I42
VSimpleName: onOptionsItemSelected
p3575
tp3576
I4
s(Vinsert
p3577
I42
VSimpleName: mCloseOnClick
p3578
tp3579
I2
s(Vinsert
p3580
I42
VSimpleName: setContentView
p3581
tp3582
I1
s(Vinsert
p3583
I43
VSimpleType: Rect
p3584
tp3585
I2
s(Vinsert
p3586
I42
VSimpleName: mDivider
p3587
tp3588
I1
s(Vinsert
p3589
I42
VSimpleName: getFactory
p3590
tp3591
I1
s(Vinsert
p3592
I42
VSimpleName: getStatusBarHeight
p3593
tp3594
I1
s(Vinsert
p3595
I42
VSimpleName: accentSecondaryColor
p3596
tp3597
I1
s(Vinsert
p3598
I53
VThrowStatement
p3599
tp3600
I3
s(Vinsert
p3601
I40
VQualifiedName: R.layout.drawer_list_item_spacer
p3602
tp3603
I1
s(Vinsert
p3604
I42
VSimpleName: animate
p3605
tp3606
I3
s(Vinsert
p3607
I42
VSimpleName: level
p3608
tp3609
I1
s(Vinsert
p3610
I42
VSimpleName: mMiniDrawer
p3611
tp3612
I2
s(Vinsert
p3613
I42
VSimpleName: mTypeface
p3614
tp3615
I2
s(Vinsert
p3616
I42
VSimpleName: originalDrawerSelection
p3617
tp3618
I1
s(Vinsert
p3619
I42
VSimpleName: saveInstanceState
p3620
tp3621
I5
s(Vinsert
p3622
I42
VSimpleName: used
p3623
tp3624
I1
s(Vinsert
p3625
I42
VSimpleName: payloads
p3626
tp3627
I1
s(Vinsert
p3628
I42
VSimpleName: Profile
p3629
tp3630
I3
s(Vinsert
p3631
I42
VSimpleName: getImage
p3632
tp3633
I1
s(Vinsert
p3634
I42
VSimpleName: clickedView
p3635
tp3636
I1
s(Vinsert
p3637
I42
VSimpleName: placeHolder
p3638
tp3639
I1
s(Vinsert
p3640
I42
VSimpleName: withActivity
p3641
tp3642
I5
s(Vinsert
p3643
I40
VQualifiedName: R.attr.material_drawer_background
p3644
tp3645
I2
s(Vinsert
p3646
I42
VSimpleName: MiniProfileDrawerItem
p3647
tp3648
I2
s(Vinsert
p3649
I42
VSimpleName: metrics
p3650
tp3651
I2
s(Vinsert
p3652
I42
VSimpleName: ImageView
p3653
tp3654
I7
s(Vinsert
p3655
I42
VSimpleName: mCustomHeight
p3656
tp3657
I1
s(Vinsert
p3658
I42
VSimpleName: mStickyHeaderView
p3659
tp3660
I1
s(Vinsert
p3661
I42
VSimpleName: checkIds
p3662
tp3663
I8
s(Vinsert
p3664
I42
VSimpleName: decorView
p3665
tp3666
I2
s(Vinsert
p3667
I42
VSimpleName: setOnInsetsCallback
p3668
tp3669
I1
s(Vinsert
p3670
I42
VSimpleName: mDelayDrawerClickEvent
p3671
tp3672
I1
s(Vinsert
p3673
I42
VSimpleName: getNavigationBarHeight
p3674
tp3675
I1
s(Vinsert
p3676
I43
VSimpleType: Bitmap
p3677
tp3678
I3
s(Vinsert
p3679
I42
VSimpleName: StringHolder
p3680
tp3681
I9
s(Vinsert
p3682
I34
VNumberLiteral: 100000001
p3683
tp3684
I1
s(Vinsert
p3685
I42
VSimpleName: linearLayout
p3686
tp3687
I1
s(Vinsert
p3688
I42
VSimpleName: withBadgeStyle
p3689
tp3690
I1
s(Vinsert
p3691
I40
VQualifiedName: View.SYSTEM_UI_FLAG_LAYOUT_STABLE
p3692
tp3693
I1
s(Vinsert
p3694
I42
VSimpleName: badgeTextView
p3695
tp3696
I1
s(Vinsert
p3697
I42
VSimpleName: onDrawerOpened
p3698
tp3699
I6
s(Vinsert
p3700
I42
VSimpleName: gradientDrawable
p3701
tp3702
I2
s(Vinsert
p3703
I42
VSimpleName: mDrawerLayout
p3704
tp3705
I9
s(Vinsert
p3706
I60
VVariableDeclarationStatement
p3707
tp3708
I114
s(Vinsert
p3709
I42
VSimpleName: withIconTintingEnabled
p3710
tp3711
I1
s(Vinsert
p3712
I74
VParameterizedType: ItemAdapter<IDrawerItem>
p3713
tp3714
I1
s(Vinsert
p3715
I42
VSimpleName: size
p3716
tp3717
I21
s(Vinsert
p3718
I42
VSimpleName: UIUtils
p3719
tp3720
I42
s(Vinsert
p3721
I43
VSimpleType: Throwable
p3722
tp3723
I1
s(Vinsert
p3724
I43
VSimpleType: VH
p3725
tp3726
I1
s(Vinsert
p3727
I42
VSimpleName: withDescriptionTextColorRes
p3728
tp3729
I1
s(Vinsert
p3730
I42
VSimpleName: getItem
p3731
tp3732
I3
s(Vinsert
p3733
I42
VSimpleName: updateData
p3734
tp3735
I1
s(Vinsert
p3736
I42
VSimpleName: withLevel
p3737
tp3738
I2
s(Vinsert
p3739
I43
VSimpleType: AbstractDrawerItem
p3740
tp3741
I8
s(Vinsert
p3742
I42
VSimpleName: withDisabledIconColorRes
p3743
tp3744
I1
s(Vinsert
p3745
I42
VSimpleName: getTextColorRes
p3746
tp3747
I2
s(Vinsert
p3748
I40
VQualifiedName: ViewGroup.LayoutParams.WRAP_CONTENT
p3749
tp3750
I1
s(Vinsert
p3751
I42
VSimpleName: mInsetBackground
p3752
tp3753
I1
s(Vinsert
p3754
I45
VStringLiteral: "Secondary switch"
p3755
tp3756
I1
s(Vinsert
p3757
I21
VExpressionStatement
p3758
tp3759
I358
s(Vinsert
p3760
I42
VSimpleName: ProfileSettingDrawerItem
p3761
tp3762
I2
s(Vinsert
p3763
I42
VSimpleName: getOriginalDrawerItems
p3764
tp3765
I1
s(Vinsert
p3766
I42
VSimpleName: mBadge
p3767
tp3768
I1
s(Vinsert
p3769
I42
VSimpleName: generateMiniDrawerItem
p3770
tp3771
I1
s(Vinsert
p3772
I26
VImportDeclaration
p3773
tp3774
I3
s(Vinsert
p3775
I42
VSimpleName: crossFader
p3776
tp3777
I1
s(Vinsert
p3778
I42
VSimpleName: mode
p3779
tp3780
I1
s(Vinsert
p3781
I74
VParameterizedType: ItemAdapter<>
p3782
tp3783
I1
s(Vinsert
p3784
I42
VSimpleName: icons
p3785
tp3786
I1
s(Vinsert
p3787
I43
VSimpleType: MenuInflater
p3788
tp3789
I1
s(Vinsert
p3790
I42
VSimpleName: groupId
p3791
tp3792
I2
s(Vinsert
p3793
I42
VSimpleName: item
p3794
tp3795
I25
s(Vinsert
p3796
I66
VTextElement:  the identifier to search for
p3797
tp3798
I1
s(Vinsert
p3799
I43
VSimpleType: DefaultIdDistributorImpl
p3800
tp3801
I1
s(Vinsert
p3802
I42
VSimpleName: ProfileDrawerItem
p3803
tp3804
I5
s(Vinsert
p3805
I40
VQualifiedName: android.os.Build.VERSION_CODES.JELLY_BEAN
p3806
tp3807
I1
s(Vinsert
p3808
I27
VInfixExpression: *
p3809
tp3810
I1
s.