(lp0
(Vinsert
p1
I42
VSimpleName: build
p2
tp3
a(Vinsert
p4
I42
VSimpleName: getLayoutDirection
p5
tp6
a(Vinsert
p7
I42
VSimpleName: getContext
p8
tp9
a(Vinsert
p10
I42
VSimpleName: setColorInt
p11
tp12
a(Vinsert
p13
I42
VSimpleName: withCheckable
p14
tp15
a(Vinsert
p16
I42
VSimpleName: emptyList
p17
tp18
a(Vinsert
p19
I42
VSimpleName: setInsetForeground
p20
tp21
a(Vinsert
p22
I42
VSimpleName: getSlider
p23
tp24
a(Vinsert
p25
I42
VSimpleName: withBackgroundRes
p26
tp27
a(Vinsert
p28
I42
VSimpleName: setSelected
p29
tp30
a(Vinsert
p31
I42
VSimpleName: getCrossFadeSlidingPaneLayout
p32
tp33
a(Vinsert
p34
I42
VSimpleName: setEnabled
p35
tp36
a(Vinsert
p37
I42
VSimpleName: getAccountHeaderBuilder
p38
tp39
a(Vinsert
p40
I42
VSimpleName: setImportantForAccessibility
p41
tp42
a(Vinsert
p43
I42
VSimpleName: isCheckable
p44
tp45
a(Vinsert
p46
I42
VSimpleName: findViewById
p47
tp48
a(Vinsert
p49
I42
VSimpleName: setDp
p50
tp51
a(Vinsert
p52
I42
VSimpleName: getPlaceHolder
p53
tp54
a(Vinsert
p55
I42
VSimpleName: closeDrawer
p56
tp57
a(Vinsert
p58
I42
VSimpleName: decideIcon
p59
tp60
a(Vinsert
p61
I42
VSimpleName: withViewPosition
p62
tp63
a(Vinsert
p64
I42
VSimpleName: onBindView
p65
tp66
a(Vinsert
p67
I42
VSimpleName: getDimensionPixelSize
p68
tp69
a(Vinsert
p70
I42
VSimpleName: onDrawerSlide
p71
tp72
a(Vinsert
p73
I42
VSimpleName: startActivity
p74
tp75
a(Vinsert
p76
I42
VSimpleName: withDrawer
p77
tp78
a(Vinsert
p79
I42
VSimpleName: color
p80
tp81
a(Vinsert
p82
I42
VSimpleName: setDrawingCacheBackgroundColor
p83
tp84
a(Vinsert
p85
I42
VSimpleName: updateItem
p86
tp87
a(Vinsert
p88
I42
VSimpleName: isDrawerIndicatorEnabled
p89
tp90
a(Vinsert
p91
I42
VSimpleName: onInsetsChanged
p92
tp93
a(Vinsert
p94
I42
VSimpleName: crossFade
p95
tp96
a(Vinsert
p97
I42
VSimpleName: deleteAllSelectedItems
p98
tp99
a(Vinsert
p100
I42
VSimpleName: show
p101
tp102
a(Vinsert
p103
I42
VSimpleName: get
p104
tp105
a(Vinsert
p106
I42
VSimpleName: placeholder
p107
tp108
a(Vinsert
p109
I42
VSimpleName: setText
p110
tp111
a(Vinsert
p112
I42
VSimpleName: values
p113
tp114
a(Vinsert
p115
I42
VSimpleName: parse
p116
tp117
a(Vinsert
p118
I42
VSimpleName: setAdapter
p119
tp120
a(Vinsert
p121
I42
VSimpleName: getItemId
p122
tp123
a(Vinsert
p124
I42
VSimpleName: applyDecidedIconOrSetGone
p125
tp126
a(Vinsert
p127
I42
VSimpleName: getClass
p128
tp129
a(Vinsert
p130
I42
VSimpleName: i
p131
tp132
a(Vinsert
p133
I42
VSimpleName: install
p134
tp135
a(Vinsert
p136
I42
VSimpleName: withAllowDeselection
p137
tp138
a(Vinsert
p139
I42
VSimpleName: getResources
p140
tp141
a(Vinsert
p142
I42
VSimpleName: putBoolean
p143
tp144
a(Vinsert
p145
I42
VSimpleName: getViewTreeObserver
p146
tp147
a(Vinsert
p148
I42
VSimpleName: getIconUri
p149
tp150
a(Vinsert
p151
I42
VSimpleName: getDrawerItems
p152
tp153
a(Vinsert
p154
I42
VSimpleName: cancel
p155
tp156
a(Vinsert
p157
I42
VSimpleName: actionBarSize
p158
tp159
a(Vinsert
p160
I42
VSimpleName: getCurrentFocus
p161
tp162
a(Vinsert
p163
I42
VSimpleName: disable
p164
tp165
a(Vinsert
p166
I42
VSimpleName: getId
p167
tp168
a(Vinsert
p169
I42
VSimpleName: withMultiSelect
p170
tp171
a(Vinsert
p172
I42
VSimpleName: resetStickyFooterSelection
p173
tp174
a(Vinsert
p175
I42
VSimpleName: getThemeColorFromAttrOrRes
p176
tp177
a(Vinsert
p178
I42
VSimpleName: getDrawable
p179
tp180
a(Vinsert
p181
I42
VSimpleName: getPosition
p182
tp183
a(Vinsert
p184
I42
VSimpleName: addProfile
p185
tp186
a(Vinsert
p187
I42
VSimpleName: setBackgroundDrawable
p188
tp189
a(Vinsert
p190
I42
VSimpleName: getDrawerAdapter
p191
tp192
a(Vinsert
p193
I42
VSimpleName: setChecked
p194
tp195
a(Vinsert
p196
I42
VSimpleName: setToolbarNavigationClickListener
p197
tp198
a(Vinsert
p199
I42
VSimpleName: setStatusBarColor
p200
tp201
a(Vinsert
p202
I42
VSimpleName: getPaddingLeft
p203
tp204
a(Vinsert
p205
I42
VSimpleName: getTheme
p206
tp207
a(Vinsert
p208
I42
VSimpleName: save
p209
tp210
a(Vinsert
p211
I42
VSimpleName: withName
p212
tp213
a(Vinsert
p214
I42
VSimpleName: e
p215
tp216
a(Vinsert
p217
I42
VSimpleName: withTranslucentStatusBar
p218
tp219
a(Vinsert
p220
I42
VSimpleName: withDescription
p221
tp222
a(Vinsert
p223
I42
VSimpleName: withSetSelected
p224
tp225
a(Vinsert
p226
I42
VSimpleName: isDrawerOpen
p227
tp228
a(Vinsert
p229
I42
VSimpleName: setNameRes
p230
tp231
a(Vinsert
p232
I42
VSimpleName: fromColor
p233
tp234
a(Vinsert
p235
I42
VSimpleName: setTitle
p236
tp237
a(Vinsert
p238
I42
VSimpleName: mutate
p239
tp240
a(Vinsert
p241
I42
VSimpleName: withDrawerLayout
p242
tp243
a(Vinsert
p244
I42
VSimpleName: getLayoutInflater
p245
tp246
a(Vinsert
p247
I42
VSimpleName: isSelected
p248
tp249
a(Vinsert
p250
I42
VSimpleName: setSelection
p251
tp252
a(Vinsert
p253
I42
VSimpleName: setOnClickListener
p254
tp255
a(Vinsert
p256
I42
VSimpleName: withIcon
p257
tp258
a(Vinsert
p259
I42
VSimpleName: getSelections
p260
tp261
a(Vinsert
p262
I42
VSimpleName: withTintSelectedIcon
p263
tp264
a(Vinsert
p265
I42
VSimpleName: withActionBarDrawerToggle
p266
tp267
a(Vinsert
p268
I42
VSimpleName: setFooterSelection
p269
tp270
a(Vinsert
p271
I42
VSimpleName: name
p272
tp273
a(Vinsert
p274
I42
VSimpleName: setDrawerShadow
p275
tp276
a(Vinsert
p277
I42
VSimpleName: makeText
p278
tp279
a(Vinsert
p280
I42
VSimpleName: setTextColor
p281
tp282
a(Vinsert
p283
I42
VSimpleName: withFields
p284
tp285
a(Vinsert
p286
I42
VSimpleName: setFitsSystemWindows
p287
tp288
a(Vinsert
p289
I42
VSimpleName: clear
p290
tp291
a(Vinsert
p292
I42
VSimpleName: withIdentifier
p293
tp294
a(Vinsert
p295
I42
VSimpleName: getConstantState
p296
tp297
a(Vinsert
p298
I42
VSimpleName: valueOf
p299
tp300
a(Vinsert
p301
I42
VSimpleName: applyTo
p302
tp303
a(Vinsert
p304
I42
VSimpleName: invalidate
p305
tp306
a(Vinsert
p307
I42
VSimpleName: getDefaultSharedPreferences
p308
tp309
a(Vinsert
p310
I42
VSimpleName: isSelectionListShown
p311
tp312
a(Vinsert
p313
I42
VSimpleName: getScreenOrientation
p314
tp315
a(Vinsert
p316
I42
VSimpleName: getItemAdapter
p317
tp318
a(Vinsert
p319
I42
VSimpleName: openDrawer
p320
tp321
a(Vinsert
p322
I42
VSimpleName: fromResource
p323
tp324
a(Vinsert
p325
I42
VSimpleName: fromColorRes
p326
tp327
a(Vinsert
p328
I42
VSimpleName: addProfiles
p329
tp330
a(Vinsert
p331
I42
VSimpleName: setId
p332
tp333
a(Vinsert
p334
I42
VSimpleName: getName
p335
tp336
a(Vinsert
p337
I42
VSimpleName: getInt
p338
tp339
a(Vinsert
p340
I42
VSimpleName: getSystem
p341
tp342
a(Vinsert
p343
I42
VSimpleName: removeAllViews
p344
tp345
a(Vinsert
p346
I42
VSimpleName: paddingDp
p347
tp348
a(Vinsert
p349
I42
VSimpleName: calculateProfiles
p350
tp351
a(Vinsert
p352
I42
VSimpleName: setMargins
p353
tp354
a(Vinsert
p355
I42
VSimpleName: closeDrawers
p356
tp357
a(Vinsert
p358
I42
VSimpleName: getGroupId
p359
tp360
a(Vinsert
p361
I42
VSimpleName: isEnabled
p362
tp363
a(Vinsert
p364
I42
VSimpleName: getIconBitmap
p365
tp366
a(Vinsert
p367
I42
VSimpleName: setImageDrawable
p368
tp369
a(Vinsert
p370
I42
VSimpleName: draw
p371
tp372
a(Vinsert
p373
I42
VSimpleName: isSelectable
p374
tp375
a(Vinsert
p376
I42
VSimpleName: withEnabled
p377
tp378
a(Vinsert
p379
I42
VSimpleName: withEnableSelectedBackground
p380
tp381
a(Vinsert
p382
I42
VSimpleName: getSelectedIcon
p383
tp384
a(Vinsert
p385
I42
VSimpleName: getDrawerBuilder
p386
tp387
a(Vinsert
p388
I42
VSimpleName: withIdDistributor
p389
tp390
a(Vinsert
p391
I42
VSimpleName: asList
p392
tp393
a(Vinsert
p394
I42
VSimpleName: closeDrawerDelayed
p395
tp396
a(Vinsert
p397
I42
VSimpleName: handleDrawerNavigation
p398
tp399
a(Vinsert
p400
I42
VSimpleName: withChecked
p401
tp402
a(Vinsert
p403
I42
VSimpleName: getAdapter
p404
tp405
a(Vinsert
p406
I42
VSimpleName: setBounds
p407
tp408
a(Vinsert
p409
I42
VSimpleName: withSelectable
p410
tp411
a(Vinsert
p412
I42
VSimpleName: getOnDrawerItemClickListener
p413
tp414
a(Vinsert
p415
I42
VSimpleName: getIconRes
p416
tp417
a(Vinsert
p418
I42
VSimpleName: withActivityTheme
p419
tp420
a(Vinsert
p421
I42
VSimpleName: parseColor
p422
tp423
a(Vinsert
p424
I42
VSimpleName: set
p425
tp426
a(Vinsert
p427
I42
VSimpleName: convertDpToPixel
p428
tp429
a(Vinsert
p430
I42
VSimpleName: setSelectionByIdentifier
p431
tp432
a(Vinsert
p433
I42
VSimpleName: setImageBitmap
p434
tp435
a(Vinsert
p436
I42
VSimpleName: setItemChecked
p437
tp438
a(Vinsert
p439
I42
VSimpleName: getCompatDrawable
p440
tp441
a(Vinsert
p442
I42
VSimpleName: getDefaultDisplay
p443
tp444
a(Vinsert
p445
I42
VSimpleName: setTag
p446
tp447
a(Vinsert
p448
I42
VSimpleName: putString
p449
tp450
a(Vinsert
p451
I42
VSimpleName: getSelectedColor
p452
tp453
a(Vinsert
p454
I42
VSimpleName: keyboardSupportEnabled
p455
tp456
a(Vinsert
p457
I42
VSimpleName: HSVToColor
p458
tp459
a(Vinsert
p460
I42
VSimpleName: with
p461
tp462
a(Vinsert
p463
I42
VSimpleName: withTag
p464
tp465
a(Vinsert
p466
I42
VSimpleName: getRecyclerView
p467
tp468
a(Vinsert
p469
I42
VSimpleName: getSubItems
p470
tp471
a(Vinsert
p472
I42
VSimpleName: getChildAt
p473
tp474
a(Vinsert
p475
I42
VSimpleName: onProfileChanged
p476
tp477
a(Vinsert
p478
I42
VSimpleName: addHeaderDrawerItems
p479
tp480
a(Vinsert
p481
I42
VSimpleName: setActiveProfile
p482
tp483
a(Vinsert
p484
I42
VSimpleName: from
p485
tp486
a(Vinsert
p487
I42
VSimpleName: getWindow
p488
tp489
a(Vinsert
p490
I42
VSimpleName: getStatusBarHeight
p491
tp492
a(Vinsert
p493
I42
VSimpleName: addView
p494
tp495
a(Vinsert
p496
I42
VSimpleName: deselect
p497
tp498
a(Vinsert
p499
I42
VSimpleName: putInt
p500
tp501
a(Vinsert
p502
I42
VSimpleName: removeHeaderView
p503
tp504
a(Vinsert
p505
I42
VSimpleName: equals
p506
tp507
a(Vinsert
p508
I42
VSimpleName: isCrossFaded
p509
tp510
a(Vinsert
p511
I42
VSimpleName: onFooterDrawerItemClick
p512
tp513
a(Vinsert
p514
I42
VSimpleName: setBackground
p515
tp516
a(Vinsert
p517
I42
VSimpleName: addDrawerItem
p518
tp519
a(Vinsert
p520
I42
VSimpleName: setTypeface
p521
tp522
a(Vinsert
p523
I42
VSimpleName: disableTouchFeedback
p524
tp525
a(Vinsert
p526
I42
VSimpleName: obtain
p527
tp528
a(Vinsert
p529
I42
VSimpleName: decideColor
p530
tp531
a(Vinsert
p532
I42
VSimpleName: setDisplayHomeAsUpEnabled
p533
tp534
a(Vinsert
p535
I42
VSimpleName: withCompactStyle
p536
tp537
a(Vinsert
p538
I42
VSimpleName: add
p539
tp540
a(Vinsert
p541
I42
VSimpleName: setHasStableIds
p542
tp543
a(Vinsert
p544
I42
VSimpleName: indexOf
p545
tp546
a(Vinsert
p547
I42
VSimpleName: getPositionByIdentifier
p548
tp549
a(Vinsert
p550
I42
VSimpleName: setVisibility
p551
tp552
a(Vinsert
p553
I42
VSimpleName: withPositionBasedStateManagement
p554
tp555
a(Vinsert
p556
I42
VSimpleName: smoothScrollToPosition
p557
tp558
a(Vinsert
p559
I42
VSimpleName: postDelayed
p560
tp561
a(Vinsert
p562
I42
VSimpleName: getHeight
p563
tp564
a(Vinsert
p565
I42
VSimpleName: setOnDrawerItemClickListener
p566
tp567
a(Vinsert
p568
I42
VSimpleName: setDrawSelectorOnTop
p569
tp570
a(Vinsert
p571
I42
VSimpleName: isSystemBarOnBottom
p572
tp573
a(Vinsert
p574
I42
VSimpleName: getPaddingTop
p575
tp576
a(Vinsert
p577
I42
VSimpleName: empty
p578
tp579
a(Vinsert
p580
I42
VSimpleName: getBadge
p581
tp582
a(Vinsert
p583
I42
VSimpleName: inflate
p584
tp585
a(Vinsert
p586
I42
VSimpleName: getDrawerListItem
p587
tp588
a(Vinsert
p589
I42
VSimpleName: collapse
p590
tp591
a(Vinsert
p592
I42
VSimpleName: resetAnimation
p593
tp594
a(Vinsert
p595
I42
VSimpleName: setMinimumHeight
p596
tp597
a(Vinsert
p598
I42
VSimpleName: setRecyclerViewSelection
p599
tp600
a(Vinsert
p601
I42
VSimpleName: getDrawerItem
p602
tp603
a(Vinsert
p604
I42
VSimpleName: setItemAnimator
p605
tp606
a(Vinsert
p607
I42
VSimpleName: animate
p608
tp609
a(Vinsert
p610
I42
VSimpleName: setScaleType
p611
tp612
a(Vinsert
p613
I42
VSimpleName: setOnCheckedChangeListener
p614
tp615
a(Vinsert
p616
I42
VSimpleName: saveInstanceState
p617
tp618
a(Vinsert
p619
I42
VSimpleName: printStackTrace
p620
tp621
a(Vinsert
p622
I42
VSimpleName: withEmail
p623
tp624
a(Vinsert
p625
I42
VSimpleName: withDisplayBelowStatusBar
p626
tp627
a(Vinsert
p628
I42
VSimpleName: getChildCount
p629
tp630
a(Vinsert
p631
I42
VSimpleName: cancelImage
p632
tp633
a(Vinsert
p634
I42
VSimpleName: red
p635
tp636
a(Vinsert
p637
I42
VSimpleName: withActivity
p638
tp639
a(Vinsert
p640
I42
VSimpleName: onItemClick
p641
tp642
a(Vinsert
p643
I42
VSimpleName: withAccountHeader
p644
tp645
a(Vinsert
p646
I42
VSimpleName: init
p647
tp648
a(Vinsert
p649
I42
VSimpleName: addExtension
p650
tp651
a(Vinsert
p652
I42
VSimpleName: getTag
p653
tp654
a(Vinsert
p655
I42
VSimpleName: setBackgroundColor
p656
tp657
a(Vinsert
p658
I42
VSimpleName: getFields
p659
tp660
a(Vinsert
p661
I42
VSimpleName: setLayoutParams
p662
tp663
a(Vinsert
p664
I42
VSimpleName: switchedDrawerContent
p665
tp666
a(Vinsert
p667
I42
VSimpleName: setOnInsetsCallback
p668
tp669
a(Vinsert
p670
I42
VSimpleName: setListSelection
p671
tp672
a(Vinsert
p673
I42
VSimpleName: withTextColor
p674
tp675
a(Vinsert
p676
I42
VSimpleName: getNavigationBarHeight
p677
tp678
a(Vinsert
p679
I42
VSimpleName: factory
p680
tp681
a(Vinsert
p682
I42
VSimpleName: getIdentifier
p683
tp684
a(Vinsert
p685
I42
VSimpleName: isSelectedIconTinted
p686
tp687
a(Vinsert
p688
I42
VSimpleName: registerFont
p689
tp690
a(Vinsert
p691
I42
VSimpleName: applyToOrTransparent
p692
tp693
a(Vinsert
p694
I42
VSimpleName: handleFooterView
p695
tp696
a(Vinsert
p697
I42
VSimpleName: onDrawerOpened
p698
tp699
a(Vinsert
p700
I42
VSimpleName: wrap
p701
tp702
a(Vinsert
p703
I42
VSimpleName: withIconTintingEnabled
p704
tp705
a(Vinsert
p706
I42
VSimpleName: size
p707
tp708
a(Vinsert
p709
I42
VSimpleName: convertPixelsToDp
p710
tp711
a(Vinsert
p712
I42
VSimpleName: fromPixel
p713
tp714
a(Vinsert
p715
I42
VSimpleName: getItem
p716
tp717
a(Vinsert
p718
I42
VSimpleName: updateData
p719
tp720
a(Vinsert
p721
I42
VSimpleName: addAll
p722
tp723
a(Vinsert
p724
I42
VSimpleName: getLayoutParams
p725
tp726
a(Vinsert
p727
I42
VSimpleName: setDrawerVerticalPadding
p728
tp729
a(Vinsert
p730
I42
VSimpleName: withView
p731
tp732
a(Vinsert
p733
I42
VSimpleName: setElevation
p734
tp735
a(Vinsert
p736
I42
VSimpleName: getPaddingBottom
p737
tp738
a(Vinsert
p739
I42
VSimpleName: getProfiles
p740
tp741
a(Vinsert
p742
I42
VSimpleName: getInstance
p743
tp744
a(Vinsert
p745
I42
VSimpleName: iconText
p746
tp747
a(Vinsert
p748
I42
VSimpleName: getOriginalDrawerItems
p749
tp750
a(Vinsert
p751
I42
VSimpleName: onCheckedChanged
p752
tp753
a(Vinsert
p754
I42
VSimpleName: setBackgroundResource
p755
tp756
a(Vinsert
p757
I42
VSimpleName: colorRes
p758
tp759
a(Vinsert
p760
I42
VSimpleName: checkIds
p761
tp762
a(Vinsert
p763
I42
VSimpleName: getImageLoader
p764
tp765
a(Vinsert
p766
I42
VSimpleName: updateHeaderAndList
p767
tp768
a(Vinsert
p769
I42
VSimpleName: getDrawerLayout
p770
tp771
a(Vinsert
p772
I42
VSimpleName: setPadding
p773
tp774
a(Vinsert
p775
I42
VSimpleName: getBoolean
p776
tp777
a(Vinsert
p778
I42
VSimpleName: alpha
p779
tp780
a(Vinsert
p781
I42
VSimpleName: withCacheSize
p782
tp783
a.