(dp0
(Vinsert
p1
I42
VSimpleName: RT
p2
tp3
I2
s(Vinsert
p4
I74
VParameterizedType: List<T>
p5
tp6
I4
s(Vinsert
p7
I42
VSimpleName: setCollector
p8
tp9
I1
s(Vinsert
p10
I42
VSimpleName: TransactionalBoltExecutor
p11
tp12
I2
s(Vinsert
p13
I42
VSimpleName: ArbitraryInterval
p14
tp15
I1
s(Vinsert
p16
I43
VSimpleType: IKryoFactory
p17
tp18
I1
s(Vinsert
p19
I42
VSimpleName: streamIndex
p20
tp21
I3
s(Vinsert
p22
I42
VSimpleName: resource
p23
tp24
I1
s(Vinsert
p25
I42
VSimpleName: assignment
p26
tp27
I4
s(Vinsert
p28
I42
VSimpleName: getAppConfigurationEntry
p29
tp30
I1
s(Vinsert
p31
I42
VSimpleName: BaseFilter
p32
tp33
I1
s(Vinsert
p34
I43
VSimpleType: BatchOutputCollector
p35
tp36
I3
s(Vinsert
p37
I42
VSimpleName: getObject
p38
tp39
I1
s(Vinsert
p40
I27
VInfixExpression: +
p41
tp42
I18
s(Vinsert
p43
I42
VSimpleName: statuses
p44
tp45
I2
s(Vinsert
p46
I42
VSimpleName: parallelism
p47
tp48
I3
s(Vinsert
p49
I42
VSimpleName: path
p50
tp51
I1
s(Vinsert
p52
I43
VSimpleType: DRPCRequest
p53
tp54
I2
s(Vinsert
p55
I42
VSimpleName: confFile
p56
tp57
I3
s(Vinsert
p58
I43
VSimpleType: ChannelPipeline
p59
tp60
I4
s(Vinsert
p61
I43
VSimpleType: Throwable
p62
tp63
I2
s(Vinsert
p64
I40
VQualifiedName: org.apache.thrift7.TBaseHelper
p65
tp66
I2
s(Vinsert
p67
I42
VSimpleName: randomUUID
p68
tp69
I5
s(Vinsert
p70
I42
VSimpleName: maxPending
p71
tp72
I1
s(Vinsert
p73
I42
VSimpleName: poll
p74
tp75
I1
s(Vinsert
p76
I42
VSimpleName: TException
p77
tp78
I3
s(Vinsert
p79
I42
VSimpleName: println
p80
tp81
I2
s(Vinsert
p82
I42
VSimpleName: _key24
p83
tp84
I1
s(Vinsert
p85
I74
VParameterizedType: HashMap<String,StreamInfo>
p86
tp87
I1
s(Vinsert
p88
I42
VSimpleName: config
p89
tp90
I2
s(Vinsert
p91
I83
VModifier: protected
p92
tp93
I1
s(Vinsert
p94
I42
VSimpleName: isBatchEnd
p95
tp96
I1
s(Vinsert
p97
I42
VSimpleName: prevId
p98
tp99
I2
s(Vinsert
p100
I43
VSimpleType: RuntimeException
p101
tp102
I9
s(Vinsert
p103
I42
VSimpleName: partitionIndex
p104
tp105
I1
s(Vinsert
p106
I42
VSimpleName: _workerTasks
p107
tp108
I1
s(Vinsert
p109
I42
VSimpleName: Node
p110
tp111
I2
s(Vinsert
p112
I42
VSimpleName: UUID
p113
tp114
I4
s(Vinsert
p115
I42
VSimpleName: _inputFields
p116
tp117
I1
s(Vinsert
p118
I42
VSimpleName: IllegalArgumentException
p119
tp120
I4
s(Vinsert
p121
I40
VQualifiedName: org.apache.zookeeper.KeeperException
p122
tp123
I1
s(Vinsert
p124
I42
VSimpleName: getAssignments
p125
tp126
I1
s(Vinsert
p127
I49
VSwitchCase
p128
tp129
I9
s(Vinsert
p130
I42
VSimpleName: TASK_START
p131
tp132
I1
s(Vinsert
p133
I43
VSimpleType: AtomicBoolean
p134
tp135
I2
s(Vinsert
p136
I40
VQualifiedName: backtype.storm.tuple.IAnchorableImpl
p137
tp138
I1
s(Vinsert
p139
I42
VSimpleName: get_streamId
p140
tp141
I1
s(Vinsert
p142
I42
VSimpleName: isSystemStream
p143
tp144
I1
s(Vinsert
p145
I42
VSimpleName: getTuples
p146
tp147
I1
s(Vinsert
p148
I42
VSimpleName: hasCache
p149
tp150
I1
s(Vinsert
p151
I76
VWildcardType: ?
p152
tp153
I1
s(Vinsert
p154
I42
VSimpleName: func
p155
tp156
I1
s(Vinsert
p157
I42
VSimpleName: transport
p158
tp159
I2
s(Vinsert
p160
I42
VSimpleName: streams
p161
tp162
I3
s(Vinsert
p163
I42
VSimpleName: Config
p164
tp165
I5
s(Vinsert
p166
I42
VSimpleName: CuratorFramework
p167
tp168
I1
s(Vinsert
p169
I42
VSimpleName: isBlacklistedHost
p170
tp171
I1
s(Vinsert
p172
I74
VParameterizedType: Map<String,String>
p173
tp174
I1
s(Vinsert
p175
I42
VSimpleName: INTERRUPT
p176
tp177
I1
s(Vinsert
p178
I42
VSimpleName: s
p179
tp180
I1
s(Vinsert
p181
I40
VQualifiedName: that.num_executors
p182
tp183
I1
s(Vinsert
p184
I40
VQualifiedName: AuthUtils.LoginContextClient
p185
tp186
I1
s(Vinsert
p187
I45
VStringLiteral: "Fields order must be same length as pointers map"
p188
tp189
I1
s(Vinsert
p190
I42
VSimpleName: set
p191
tp192
I2
s(Vinsert
p193
I42
VSimpleName: addTaskHook
p194
tp195
I1
s(Vinsert
p196
I42
VSimpleName: SchedulerAssignmentImpl
p197
tp198
I3
s(Vinsert
p199
I43
VSimpleType: Collection
p200
tp201
I3
s(Vinsert
p202
I42
VSimpleName: remove
p203
tp204
I8
s(Vinsert
p205
I42
VSimpleName: slots
p206
tp207
I3
s(Vinsert
p208
I42
VSimpleName: args
p209
tp210
I5
s(Vinsert
p211
I43
VSimpleType: CombinerAggregator
p212
tp213
I1
s(Vinsert
p214
I43
VSimpleType: Result
p215
tp216
I4
s(Vinsert
p217
I42
VSimpleName: buf
p218
tp219
I6
s(Vinsert
p220
I42
VSimpleName: mkClusterParam
p221
tp222
I4
s(Vinsert
p223
I42
VSimpleName: ClassNotFoundException
p224
tp225
I1
s(Vinsert
p226
I42
VSimpleName: MessageId
p227
tp228
I1
s(Vinsert
p229
I74
VParameterizedType: ArrayList<URL>
p230
tp231
I1
s(Vinsert
p232
I40
VQualifiedName: Boolean.FALSE
p233
tp234
I1
s(Vinsert
p235
I42
VSimpleName: split
p236
tp237
I1
s(Vinsert
p238
I42
VSimpleName: singleCount
p239
tp240
I1
s(Vinsert
p241
I42
VSimpleName: TrueFilter
p242
tp243
I1
s(Vinsert
p244
I43
VSimpleType: Tuple
p245
tp246
I10
s(Vinsert
p247
I43
VSimpleType: Values
p248
tp249
I2
s(Vinsert
p250
I45
VStringLiteral: "index out of bounds"
p251
tp252
I1
s(Vinsert
p253
I42
VSimpleName: SaslProcessor
p254
tp255
I1
s(Vinsert
p256
I66
VTextElement: Gets the declared output fields for the specified global stream id.
p257
tp258
I1
s(Vinsert
p259
I42
VSimpleName: value
p260
tp261
I3
s(Vinsert
p262
I42
VSimpleName: getNimbus
p263
tp264
I1
s(Vinsert
p265
I40
VQualifiedName: n.name
p266
tp267
I1
s(Vinsert
p268
I40
VQualifiedName: AttemptStatus.PROCESSED
p269
tp270
I1
s(Vinsert
p271
I43
VSimpleType: Class
p272
tp273
I3
s(Vinsert
p274
I42
VSimpleName: _writerThread
p275
tp276
I1
s(Vinsert
p277
I42
VSimpleName: ids
p278
tp279
I2
s(Vinsert
p280
I42
VSimpleName: afterMap
p281
tp282
I2
s(Vinsert
p283
I42
VSimpleName: Server
p284
tp285
I1
s(Vinsert
p286
I42
VSimpleName: keySet
p287
tp288
I14
s(Vinsert
p289
I11
VCastExpression
p290
tp291
I58
s(Vinsert
p292
I42
VSimpleName: getState
p293
tp294
I7
s(Vinsert
p295
I42
VSimpleName: URI
p296
tp297
I1
s(Vinsert
p298
I43
VSimpleType: DRPCExecutionException
p299
tp300
I2
s(Vinsert
p301
I42
VSimpleName: SingleEmitAggregator
p302
tp303
I1
s(Vinsert
p304
I42
VSimpleName: Boolean
p305
tp306
I7
s(Vinsert
p307
I45
VStringLiteral: "pid"
p308
tp309
I1
s(Vinsert
p310
I43
VSimpleType: TProtocol
p311
tp312
I1
s(Vinsert
p313
I66
VTextElement: (3) configuration of targeted topology
p314
tp315
I1
s(Vinsert
p316
I42
VSimpleName: _isDistributed
p317
tp318
I3
s(Vinsert
p319
I42
VSimpleName: that_present_status
p320
tp321
I2
s(Vinsert
p322
I42
VSimpleName: Collections
p323
tp324
I4
s(Vinsert
p325
I43
VSimpleType: ChannelBufferOutputStream
p326
tp327
I5
s(Vinsert
p328
I43
VSimpleType: TransactionalSpoutBatchExecutor
p329
tp330
I1
s(Vinsert
p331
I61
VWhileStatement
p332
tp333
I5
s(Vinsert
p334
I42
VSimpleName: componentName
p335
tp336
I1
s(Vinsert
p337
I42
VSimpleName: other
p338
tp339
I1
s(Vinsert
p340
I42
VSimpleName: _val29
p341
tp342
I1
s(Vinsert
p343
I42
VSimpleName: MessageEvent
p344
tp345
I1
s(Vinsert
p346
I42
VSimpleName: emitted_tuples
p347
tp348
I1
s(Vinsert
p349
I42
VSimpleName: MapEntry
p350
tp351
I1
s(Vinsert
p352
I42
VSimpleName: DRPCRequest
p353
tp354
I2
s(Vinsert
p355
I42
VSimpleName: currTxid
p356
tp357
I1
s(Vinsert
p358
I42
VSimpleName: ListDelegateSerializer
p359
tp360
I1
s(Vinsert
p361
I42
VSimpleName: reportError
p362
tp363
I5
s(Vinsert
p364
I34
VNumberLiteral: 2000
p365
tp366
I1
s(Vinsert
p367
I42
VSimpleName: Short
p368
tp369
I2
s(Vinsert
p370
I42
VSimpleName: getSleepTimeMs
p371
tp372
I1
s(Vinsert
p373
I43
VSimpleType: Grouping
p374
tp375
I1
s(Vinsert
p376
I42
VSimpleName: Subject
p377
tp378
I2
s(Vinsert
p379
I34
VNumberLiteral: 0
p380
tp381
I40
s(Vinsert
p382
I42
VSimpleName: setNumTasks
p383
tp384
I1
s(Vinsert
p385
I43
VSimpleType: ClassNotFoundException
p386
tp387
I1
s(Vinsert
p388
I66
VTextElement: write the current Control Message into a stream
p389
tp390
I1
s(Vinsert
p391
I74
VParameterizedType: Iterator<GlobalStreamId>
p392
tp393
I1
s(Vinsert
p394
I42
VSimpleName: ex1
p395
tp396
I1
s(Vinsert
p397
I42
VSimpleName: klass
p398
tp399
I8
s(Vinsert
p400
I42
VSimpleName: need_task_ids
p401
tp402
I4
s(Vinsert
p403
I42
VSimpleName: customGrouping
p404
tp405
I1
s(Vinsert
p406
I45
VStringLiteral: "Fail to verify user principal with section \u005c""
p407
tp408
I1
s(Vinsert
p409
I42
VSimpleName: custom_serialized
p410
tp411
I3
s(Vinsert
p412
I42
VSimpleName: _kryoInput
p413
tp414
I6
s(Vinsert
p415
I43
VSimpleType: MapEntry
p416
tp417
I1
s(Vinsert
p418
I39
VPrimitiveType: long
p419
tp420
I15
s(Vinsert
p421
I42
VSimpleName: each
p422
tp423
I1
s(Vinsert
p424
I42
VSimpleName: _windowStartTime
p425
tp426
I1
s(Vinsert
p427
I43
VSimpleType: ILocalDRPC
p428
tp429
I1
s(Vinsert
p430
I42
VSimpleName: getMessage
p431
tp432
I1
s(Vinsert
p433
I42
VSimpleName: mixed
p434
tp435
I1
s(Vinsert
p436
I45
VStringLiteral: "<"
p437
tp438
I1
s(Vinsert
p439
I42
VSimpleName: _delegates
p440
tp441
I1
s(Vinsert
p442
I74
VParameterizedType: HashMap<String,List<FixedTuple>>
p443
tp444
I1
s(Vinsert
p445
I50
VSwitchStatement
p446
tp447
I1
s(Vinsert
p448
I42
VSimpleName: TransactionalSpoutCoordinator
p449
tp450
I1
s(Vinsert
p451
I43
VSimpleType: FixedTuple
p452
tp453
I3
s(Vinsert
p454
I42
VSimpleName: loginConfigurationFile
p455
tp456
I3
s(Vinsert
p457
I40
VQualifiedName: _aggs.length
p458
tp459
I1
s(Vinsert
p460
I43
VSimpleType: ReportedFailedException
p461
tp462
I1
s(Vinsert
p463
I57
VTypeLiteral
p464
tp465
I6
s(Vinsert
p466
I42
VSimpleName: _state
p467
tp468
I2
s(Vinsert
p469
I42
VSimpleName: newVal
p470
tp471
I2
s(Vinsert
p472
I42
VSimpleName: max_retries
p473
tp474
I1
s(Vinsert
p475
I43
VSimpleType: ProcessorNode
p476
tp477
I1
s(Vinsert
p478
I42
VSimpleName: _afn
p479
tp480
I2
s(Vinsert
p481
I14
VClassInstanceCreation
p482
tp483
I132
s(Vinsert
p484
I42
VSimpleName: intValue
p485
tp486
I14
s(Vinsert
p487
I42
VSimpleName: pointers
p488
tp489
I1
s(Vinsert
p490
I42
VSimpleName: info
p491
tp492
I4
s(Vinsert
p493
I42
VSimpleName: setReferences
p494
tp495
I1
s(Vinsert
p496
I42
VSimpleName: Tuple
p497
tp498
I11
s(Vinsert
p499
I42
VSimpleName: buffer
p500
tp501
I3
s(Vinsert
p502
I42
VSimpleName: checkExists
p503
tp504
I1
s(Vinsert
p505
I42
VSimpleName: ISpoutPartition
p506
tp507
I2
s(Vinsert
p508
I74
VParameterizedType: List<WorkerSlot>
p509
tp510
I1
s(Vinsert
p511
I65
VTagElement: @param
p512
tp513
I5
s(Vinsert
p514
I66
VTextElement:  true if the request is authorized, false if reject
p515
tp516
I2
s(Vinsert
p517
I27
VInfixExpression: >=
p518
tp519
I2
s(Vinsert
p520
I42
VSimpleName: keysTodo
p521
tp522
I1
s(Vinsert
p523
I42
VSimpleName: makePassThroughSpec
p524
tp525
I1
s(Vinsert
p526
I40
VQualifiedName: val.state
p527
tp528
I1
s(Vinsert
p529
I42
VSimpleName: index
p530
tp531
I4
s(Vinsert
p532
I42
VSimpleName: List
p533
tp534
I56
s(Vinsert
p535
I40
VQualifiedName: Map.Entry
p536
tp537
I2
s(Vinsert
p538
I39
VPrimitiveType: byte
p539
tp540
I12
s(Vinsert
p541
I45
VStringLiteral: "."
p542
tp543
I1
s(Vinsert
p544
I43
VSimpleType: Map.Entry
p545
tp546
I2
s(Vinsert
p547
I74
VParameterizedType: HashMap<Integer,Object>
p548
tp549
I1
s(Vinsert
p550
I42
VSimpleName: that_present_supervisor_id
p551
tp552
I1
s(Vinsert
p553
I42
VSimpleName: readMapBegin
p554
tp555
I1
s(Vinsert
p556
I43
VSimpleType: TopologyContext
p557
tp558
I4
s(Vinsert
p559
I42
VSimpleName: bufferSize
p560
tp561
I1
s(Vinsert
p562
I42
VSimpleName: header
p563
tp564
I1
s(Vinsert
p565
I42
VSimpleName: submit
p566
tp567
I1
s(Vinsert
p568
I43
VSimpleType: StateInitializer
p569
tp570
I3
s(Vinsert
p571
I42
VSimpleName: SpoutDeclarer
p572
tp573
I1
s(Vinsert
p574
I42
VSimpleName: newInstance
p575
tp576
I3
s(Vinsert
p577
I42
VSimpleName: is_set_componentId
p578
tp579
I2
s(Vinsert
p580
I42
VSimpleName: cls
p581
tp582
I2
s(Vinsert
p583
I42
VSimpleName: isSystemComponent
p584
tp585
I1
s(Vinsert
p586
I42
VSimpleName: topologyId
p587
tp588
I1
s(Vinsert
p589
I42
VSimpleName: StateInitializer
p590
tp591
I3
s(Vinsert
p592
I42
VSimpleName: ServiceRegistry
p593
tp594
I1
s(Vinsert
p595
I42
VSimpleName: IKryoDecorator
p596
tp597
I3
s(Vinsert
p598
I42
VSimpleName: v
p599
tp600
I2
s(Vinsert
p601
I42
VSimpleName: tuples
p602
tp603
I7
s(Vinsert
p604
I42
VSimpleName: arr
p605
tp606
I1
s(Vinsert
p607
I43
VSimpleType: Group
p608
tp609
I1
s(Vinsert
p610
I42
VSimpleName: processorContext
p611
tp612
I1
s(Vinsert
p613
I42
VSimpleName: processErrorStream
p614
tp615
I2
s(Vinsert
p616
I42
VSimpleName: TransactionalState
p617
tp618
I1
s(Vinsert
p619
I43
VSimpleType: Cluster
p620
tp621
I2
s(Vinsert
p622
I29
VJavadoc
p623
tp624
I3
s(Vinsert
p625
I42
VSimpleName: isSlotOccupied
p626
tp627
I1
s(Vinsert
p628
I42
VSimpleName: TimeoutItems
p629
tp630
I1
s(Vinsert
p631
I74
VParameterizedType: List<ISpoutPartition>
p632
tp633
I2
s(Vinsert
p634
I42
VSimpleName: next
p635
tp636
I2
s(Vinsert
p637
I42
VSimpleName: descendingKeySet
p638
tp639
I1
s(Vinsert
p640
I66
VTextElement: Returns true if field location is set (has been assigned a value) and false otherwise 
p641
tp642
I1
s(Vinsert
p643
I34
VNumberLiteral: 1
p644
tp645
I8
s(Vinsert
p646
I42
VSimpleName: txidObj
p647
tp648
I1
s(Vinsert
p649
I42
VSimpleName: is_direct
p650
tp651
I1
s(Vinsert
p652
I42
VSimpleName: readI32
p653
tp654
I1
s(Vinsert
p655
I42
VSimpleName: send
p656
tp657
I1
s(Vinsert
p658
I43
VSimpleType: OutputCollector
p659
tp660
I2
s(Vinsert
p661
I42
VSimpleName: whiteListedHosts
p662
tp663
I3
s(Vinsert
p664
I42
VSimpleName: o
p665
tp666
I13
s(Vinsert
p667
I42
VSimpleName: read
p668
tp669
I2
s(Vinsert
p670
I42
VSimpleName: currTx
p671
tp672
I1
s(Vinsert
p673
I42
VSimpleName: declareOutputFields
p674
tp675
I5
s(Vinsert
p676
I42
VSimpleName: token
p677
tp678
I1
s(Vinsert
p679
I42
VSimpleName: TridentCollector
p680
tp681
I12
s(Vinsert
p682
I42
VSimpleName: declaration
p683
tp684
I1
s(Vinsert
p685
I40
VQualifiedName: SerializationFactory.IdDictionary
p686
tp687
I3
s(Vinsert
p688
I43
VSimpleType: IndifferentAccessMap
p689
tp690
I1
s(Vinsert
p691
I45
VStringLiteral: "jar:file:"
p692
tp693
I1
s(Vinsert
p694
I42
VSimpleName: bytes
p695
tp696
I2
s(Vinsert
p697
I40
VQualifiedName: processorContext.state
p698
tp699
I1
s(Vinsert
p700
I42
VSimpleName: makeDetectSpec
p701
tp702
I1
s(Vinsert
p703
I42
VSimpleName: taskToSlots
p704
tp705
I1
s(Vinsert
p706
I42
VSimpleName: _consumer
p707
tp708
I1
s(Vinsert
p709
I42
VSimpleName: BasicBoltExecutor
p710
tp711
I1
s(Vinsert
p712
I33
VNullLiteral
p713
tp714
I62
s(Vinsert
p715
I43
VSimpleType: ExecutorDetails
p716
tp717
I6
s(Vinsert
p718
I43
VSimpleType: GroupedStream
p719
tp720
I2
s(Vinsert
p721
I43
VSimpleType: AppendCollector
p722
tp723
I1
s(Vinsert
p724
I42
VSimpleName: taskMsg
p725
tp726
I2
s(Vinsert
p727
I42
VSimpleName: present_num_executors
p728
tp729
I1
s(Vinsert
p730
I43
VSimpleType: SerializationFactory.IdDictionary
p731
tp732
I2
s(Vinsert
p733
I42
VSimpleName: this_present_inputs
p734
tp735
I1
s(Vinsert
p736
I42
VSimpleName: WindowedTimeThrottler
p737
tp738
I2
s(Vinsert
p739
I45
VStringLiteral: "\u005c" in login configuration file "
p740
tp741
I1
s(Vinsert
p742
I42
VSimpleName: emitDirect
p743
tp744
I4
s(Vinsert
p745
I43
VSimpleType: TransactionAttempt
p746
tp747
I9
s(Vinsert
p748
I42
VSimpleName: worker
p749
tp750
I2
s(Vinsert
p751
I42
VSimpleName: OutputCollector
p752
tp753
I2
s(Vinsert
p754
I42
VSimpleName: isAlive
p755
tp756
I1
s(Vinsert
p757
I42
VSimpleName: is_set_supervisor_id
p758
tp759
I2
s(Vinsert
p760
I27
VInfixExpression: >
p761
tp762
I5
s(Vinsert
p763
I42
VSimpleName: V
p764
tp765
I2
s(Vinsert
p766
I42
VSimpleName: JSONValue
p767
tp768
I4
s(Vinsert
p769
I42
VSimpleName: combine
p770
tp771
I1
s(Vinsert
p772
I42
VSimpleName: _outputter
p773
tp774
I1
s(Vinsert
p775
I42
VSimpleName: writeControlMessage
p776
tp777
I1
s(Vinsert
p778
I42
VSimpleName: fieldIndex
p779
tp780
I1
s(Vinsert
p781
I45
VStringLiteral: "Projection processor can only have one parent"
p782
tp783
I1
s(Vinsert
p784
I42
VSimpleName: MapCombinerAggStateUpdater
p785
tp786
I1
s(Vinsert
p787
I43
VSimpleType: MessageId
p788
tp789
I1
s(Vinsert
p790
I43
VSimpleType: Worker
p791
tp792
I2
s(Vinsert
p793
I42
VSimpleName: is_set_json_conf
p794
tp795
I2
s(Vinsert
p796
I43
VSimpleType: Method
p797
tp798
I1
s(Vinsert
p799
I42
VSimpleName: SortedMap
p800
tp801
I1
s(Vinsert
p802
I42
VSimpleName: _projectFields
p803
tp804
I1
s(Vinsert
p805
I42
VSimpleName: clusterMap
p806
tp807
I2
s(Vinsert
p808
I43
VSimpleType: NioClientSocketChannelFactory
p809
tp810
I1
s(Vinsert
p811
I43
VSimpleType: IFn
p812
tp813
I2
s(Vinsert
p814
I42
VSimpleName: getLogger
p815
tp816
I6
s(Vinsert
p817
I42
VSimpleName: myPartitions
p818
tp819
I2
s(Vinsert
p820
I42
VSimpleName: _val120
p821
tp822
I2
s(Vinsert
p823
I42
VSimpleName: CombinerAggregator
p824
tp825
I1
s(Vinsert
p826
I42
VSimpleName: getParentTupleFactories
p827
tp828
I1
s(Vinsert
p829
I42
VSimpleName: LoggerFactory
p830
tp831
I1
s(Vinsert
p832
I2
VArrayAccess
p833
tp834
I8
s(Vinsert
p835
I42
VSimpleName: register
p836
tp837
I9
s(Vinsert
p838
I42
VSimpleName: WritableUtils
p839
tp840
I1
s(Vinsert
p841
I42
VSimpleName: tuple
p842
tp843
I36
s(Vinsert
p844
I42
VSimpleName: _memoryMapState
p845
tp846
I1
s(Vinsert
p847
I1
VAnonymousClassDeclaration
p848
tp849
I7
s(Vinsert
p850
I42
VSimpleName: _throttler
p851
tp852
I2
s(Vinsert
p853
I45
VStringLiteral: "Each element of this list must be a "
p854
tp855
I1
s(Vinsert
p856
I42
VSimpleName: vals
p857
tp858
I4
s(Vinsert
p859
I42
VSimpleName: tup
p860
tp861
I1
s(Vinsert
p862
I43
VSimpleType: Entry
p863
tp864
I2
s(Vinsert
p865
I42
VSimpleName: IndexHashGrouping
p866
tp867
I1
s(Vinsert
p868
I42
VSimpleName: getComponentOutputFields
p869
tp870
I2
s(Vinsert
p871
I42
VSimpleName: Math
p872
tp873
I1
s(Vinsert
p874
I43
VSimpleType: AckTracker
p875
tp876
I1
s(Vinsert
p877
I42
VSimpleName: newCurator
p878
tp879
I1
s(Vinsert
p880
I42
VSimpleName: topology
p881
tp882
I2
s(Vinsert
p883
I43
VSimpleType: ReqContext
p884
tp885
I3
s(Vinsert
p886
I43
VSimpleType: TransactionalState
p887
tp888
I1
s(Vinsert
p889
I43
VSimpleType: SaslException
p890
tp891
I1
s(Vinsert
p892
I42
VSimpleName: createTopology
p893
tp894
I1
s(Vinsert
p895
I42
VSimpleName: storm_id
p896
tp897
I1
s(Vinsert
p898
I42
VSimpleName: CaptureCollector
p899
tp900
I1
s(Vinsert
p901
I42
VSimpleName: INPUTS
p902
tp903
I1
s(Vinsert
p904
I42
VSimpleName: delegates
p905
tp906
I3
s(Vinsert
p907
I43
VSimpleType: ObjectOutputStream
p908
tp909
I2
s(Vinsert
p910
I42
VSimpleName: addAll
p911
tp912
I3
s(Vinsert
p913
I42
VSimpleName: groupFactory
p914
tp915
I1
s(Vinsert
p916
I42
VSimpleName: putAll
p917
tp918
I4
s(Vinsert
p919
I43
VSimpleType: LinearDRPCInputDeclarer
p920
tp921
I1
s(Vinsert
p922
I42
VSimpleName: stats
p923
tp924
I1
s(Vinsert
p925
I42
VSimpleName: ITransactionalBolt
p926
tp927
I2
s(Vinsert
p928
I42
VSimpleName: dynamicBuffer
p929
tp930
I2
s(Vinsert
p931
I43
VSimpleType: StormTopology._Fields
p932
tp933
I2
s(Vinsert
p934
I42
VSimpleName: parents
p935
tp936
I3
s(Vinsert
p937
I42
VSimpleName: abs
p938
tp939
I1
s(Vinsert
p940
I42
VSimpleName: is_set_num_executors
p941
tp942
I1
s(Vinsert
p943
I42
VSimpleName: targetTasks
p944
tp945
I3
s(Vinsert
p946
I40
VQualifiedName: Config.TOPOLOGY_METRICS_CONSUMER_REGISTER
p947
tp948
I1
s(Vinsert
p949
I42
VSimpleName: identity
p950
tp951
I1
s(Vinsert
p952
I43
VSimpleType: TimeoutItems
p953
tp954
I1
s(Vinsert
p955
I42
VSimpleName: curr
p956
tp957
I7
s(Vinsert
p958
I43
VSimpleType: ICommitterTransactionalSpout.ICommitterEmitter
p959
tp960
I1
s(Vinsert
p961
I42
VSimpleName: GroupedStream
p962
tp963
I2
s(Vinsert
p964
I42
VSimpleName: ProcessorNode
p965
tp966
I1
s(Vinsert
p967
I42
VSimpleName: TaskMessage
p968
tp969
I4
s(Vinsert
p970
I42
VSimpleName: SpoutOutputCollector
p971
tp972
I1
s(Vinsert
p973
I42
VSimpleName: method
p974
tp975
I1
s(Vinsert
p976
I45
VStringLiteral: ":"
p977
tp978
I2
s(Vinsert
p979
I42
VSimpleName: is_set_component_id
p980
tp981
I1
s(Vinsert
p982
I45
VStringLiteral: "A single worker should have 1 SystemBolt instance."
p983
tp984
I1
s(Vinsert
p985
I42
VSimpleName: preparer
p986
tp987
I1
s(Vinsert
p988
I42
VSimpleName: present_e
p989
tp990
I1
s(Vinsert
p991
I42
VSimpleName: AtomicBoolean
p992
tp993
I2
s(Vinsert
p994
I42
VSimpleName: object
p995
tp996
I3
s(Vinsert
p997
I40
VQualifiedName: retval.cached
p998
tp999
I2
s(Vinsert
p1000
I40
VQualifiedName: Config.STORM_MESSAGING_NETTY_CLIENT_WORKER_THREADS
p1001
tp1002
I1
s(Vinsert
p1003
I42
VSimpleName: WorkerSlot
p1004
tp1005
I9
s(Vinsert
p1006
I43
VSimpleType: MemoryTransactionalSpoutMeta
p1007
tp1008
I1
s(Vinsert
p1009
I43
VSimpleType: ITransactionalBolt
p1010
tp1011
I2
s(Vinsert
p1012
I42
VSimpleName: it
p1013
tp1014
I4
s(Vinsert
p1015
I42
VSimpleName: o1
p1016
tp1017
I1
s(Vinsert
p1018
I40
VQualifiedName: retval.val
p1019
tp1020
I1
s(Vinsert
p1021
I42
VSimpleName: cond
p1022
tp1023
I2
s(Vinsert
p1024
I42
VSimpleName: uniqueId
p1025
tp1026
I1
s(Vinsert
p1027
I43
VSimpleType: Input
p1028
tp1029
I4
s(Vinsert
p1030
I42
VSimpleName: ISpout
p1031
tp1032
I1
s(Vinsert
p1033
I74
VParameterizedType: ArrayList<List<Object>>
p1034
tp1035
I1
s(Vinsert
p1036
I42
VSimpleName: ArbitraryRetries
p1037
tp1038
I1
s(Vinsert
p1039
I42
VSimpleName: is_set_status
p1040
tp1041
I4
s(Vinsert
p1042
I42
VSimpleName: multiUpdate
p1043
tp1044
I2
s(Vinsert
p1045
I42
VSimpleName: name
p1046
tp1047
I11
s(Vinsert
p1048
I42
VSimpleName: valueOf
p1049
tp1050
I3
s(Vinsert
p1051
I66
VTextElement: Returns null if it was created, the value otherwise.
p1052
tp1053
I1
s(Vinsert
p1054
I42
VSimpleName: finishBatch
p1055
tp1056
I1
s(Vinsert
p1057
I42
VSimpleName: componentMap
p1058
tp1059
I1
s(Vinsert
p1060
I42
VSimpleName: _prepareWasCalled
p1061
tp1062
I1
s(Vinsert
p1063
I32
VMethodInvocation
p1064
tp1065
I710
s(Vinsert
p1066
I42
VSimpleName: readBinary
p1067
tp1068
I1
s(Vinsert
p1069
I42
VSimpleName: get_componentId
p1070
tp1071
I3
s(Vinsert
p1072
I42
VSimpleName: _vals
p1073
tp1074
I1
s(Vinsert
p1075
I42
VSimpleName: componentId
p1076
tp1077
I5
s(Vinsert
p1078
I16
VConditionalExpression
p1079
tp1080
I1
s(Vinsert
p1081
I42
VSimpleName: getConfiguration
p1082
tp1083
I1
s(Vinsert
p1084
I40
VQualifiedName: Config.STORM_CLUSTER_MODE
p1085
tp1086
I1
s(Vinsert
p1087
I42
VSimpleName: unassignByExecutor
p1088
tp1089
I2
s(Vinsert
p1090
I42
VSimpleName: decorate
p1091
tp1092
I2
s(Vinsert
p1093
I42
VSimpleName: pipeline
p1094
tp1095
I4
s(Vinsert
p1096
I42
VSimpleName: lastComparison
p1097
tp1098
I7
s(Vinsert
p1099
I43
VSimpleType: TaskMessage
p1100
tp1101
I4
s(Vinsert
p1102
I42
VSimpleName: _callback
p1103
tp1104
I1
s(Vinsert
p1105
I40
VQualifiedName: backtype.storm.tuple.IAnchorable
p1106
tp1107
I1
s(Vinsert
p1108
I42
VSimpleName: _context
p1109
tp1110
I3
s(Vinsert
p1111
I3
VArrayCreation
p1112
tp1113
I6
s(Vinsert
p1114
I42
VSimpleName: batch
p1115
tp1116
I1
s(Vinsert
p1117
I42
VSimpleName: writeLong
p1118
tp1119
I1
s(Vinsert
p1120
I42
VSimpleName: _obj
p1121
tp1122
I2
s(Vinsert
p1123
I42
VSimpleName: get_chunk
p1124
tp1125
I1
s(Vinsert
p1126
I42
VSimpleName: Result
p1127
tp1128
I4
s(Vinsert
p1129
I42
VSimpleName: _local_drpc_id
p1130
tp1131
I1
s(Vinsert
p1132
I40
VQualifiedName: TSaslServerTransport.Factory
p1133
tp1134
I4
s(Vinsert
p1135
I43
VSimpleType: HashMap
p1136
tp1137
I20
s(Vinsert
p1138
I42
VSimpleName: consumeBatch
p1139
tp1140
I1
s(Vinsert
p1141
I17
VConstructorInvocation
p1142
tp1143
I1
s(Vinsert
p1144
I42
VSimpleName: location
p1145
tp1146
I1
s(Vinsert
p1147
I43
VSimpleType: TException
p1148
tp1149
I3
s(Vinsert
p1150
I74
VParameterizedType: List<JoinType>
p1151
tp1152
I1
s(Vinsert
p1153
I42
VSimpleName: open
p1154
tp1155
I2
s(Vinsert
p1156
I42
VSimpleName: connectString
p1157
tp1158
I1
s(Vinsert
p1159
I42
VSimpleName: state
p1160
tp1161
I10
s(Vinsert
p1162
I42
VSimpleName: ex
p1163
tp1164
I5
s(Vinsert
p1165
I43
VSimpleType: K
p1166
tp1167
I3
s(Vinsert
p1168
I43
VSimpleType: MessageEvent
p1169
tp1170
I1
s(Vinsert
p1171
I42
VSimpleName: DataOutputStream
p1172
tp1173
I2
s(Vinsert
p1174
I42
VSimpleName: _executorData
p1175
tp1176
I1
s(Vinsert
p1177
I42
VSimpleName: sortedNames
p1178
tp1179
I1
s(Vinsert
p1180
I42
VSimpleName: booleanValue
p1181
tp1182
I2
s(Vinsert
p1183
I43
VSimpleType: TrueFilter
p1184
tp1185
I1
s(Vinsert
p1186
I42
VSimpleName: init
p1187
tp1188
I8
s(Vinsert
p1189
I42
VSimpleName: TransactionAttempt
p1190
tp1191
I9
s(Vinsert
p1192
I42
VSimpleName: ValueUpdater
p1193
tp1194
I4
s(Vinsert
p1195
I42
VSimpleName: configuration
p1196
tp1197
I1
s(Vinsert
p1198
I43
VSimpleType: SchedulerAssignmentImpl
p1199
tp1200
I3
s(Vinsert
p1201
I42
VSimpleName: longValue
p1202
tp1203
I2
s(Vinsert
p1204
I42
VSimpleName: NioServerSocketChannelFactory
p1205
tp1206
I1
s(Vinsert
p1207
I42
VSimpleName: storm_conf
p1208
tp1209
I4
s(Vinsert
p1210
I42
VSimpleName: size
p1211
tp1212
I34
s(Vinsert
p1213
I42
VSimpleName: queue
p1214
tp1215
I3
s(Vinsert
p1216
I42
VSimpleName: req_context
p1217
tp1218
I1
s(Vinsert
p1219
I42
VSimpleName: handleNameCallback
p1220
tp1221
I1
s(Vinsert
p1222
I42
VSimpleName: _clients
p1223
tp1224
I2
s(Vinsert
p1225
I42
VSimpleName: BasicOutputCollector
p1226
tp1227
I4
s(Vinsert
p1228
I74
VParameterizedType: List<FixedTuple>
p1229
tp1230
I2
s(Vinsert
p1231
I42
VSimpleName: Iterator
p1232
tp1233
I2
s(Vinsert
p1234
I43
VSimpleType: JSONObject
p1235
tp1236
I2
s(Vinsert
p1237
I42
VSimpleName: _filter
p1238
tp1239
I1
s(Vinsert
p1240
I42
VSimpleName: MemoryTransactionalSpoutMeta
p1241
tp1242
I1
s(Vinsert
p1243
I40
VQualifiedName: org.slf4j.Logger
p1244
tp1245
I1
s(Vinsert
p1246
I42
VSimpleName: _subprocess
p1247
tp1248
I1
s(Vinsert
p1249
I42
VSimpleName: getData
p1250
tp1251
I2
s(Vinsert
p1252
I42
VSimpleName: getStateIndex
p1253
tp1254
I1
s(Vinsert
p1255
I42
VSimpleName: removeSlot
p1256
tp1257
I1
s(Vinsert
p1258
I42
VSimpleName: hof
p1259
tp1260
I2
s(Vinsert
p1261
I27
VInfixExpression: ||
p1262
tp1263
I5
s(Vinsert
p1264
I42
VSimpleName: batchList
p1265
tp1266
I1
s(Vinsert
p1267
I43
VSimpleType: PersistentArrayMap
p1268
tp1269
I2
s(Vinsert
p1270
I42
VSimpleName: reset
p1271
tp1272
I1
s(Vinsert
p1273
I43
VSimpleType: FreshCollector
p1274
tp1275
I2
s(Vinsert
p1276
I43
VSimpleType: IAnchorableImpl
p1277
tp1278
I1
s(Vinsert
p1279
I34
VNumberLiteral: 5
p1280
tp1281
I1
s(Vinsert
p1282
I42
VSimpleName: LinearDRPCInputDeclarer
p1283
tp1284
I1
s(Vinsert
p1285
I42
VSimpleName: ArrayList
p1286
tp1287
I21
s(Vinsert
p1288
I42
VSimpleName: getBufferFactory
p1289
tp1290
I1
s(Vinsert
p1291
I42
VSimpleName: builder
p1292
tp1293
I3
s(Vinsert
p1294
I42
VSimpleName: bolt
p1295
tp1296
I5
s(Vinsert
p1297
I42
VSimpleName: _lock
p1298
tp1299
I3
s(Vinsert
p1300
I42
VSimpleName: newCachedThreadPool
p1301
tp1302
I2
s(Vinsert
p1303
I42
VSimpleName: oos
p1304
tp1305
I2
s(Vinsert
p1306
I43
VSimpleType: TransactionalBolt
p1307
tp1308
I1
s(Vinsert
p1309
I43
VSimpleType: ByteArrayOutputStream
p1310
tp1311
I4
s(Vinsert
p1312
I42
VSimpleName: sleep
p1313
tp1314
I3
s(Vinsert
p1315
I42
VSimpleName: isEmpty
p1316
tp1317
I7
s(Vinsert
p1318
I42
VSimpleName: functionFields
p1319
tp1320
I3
s(Vinsert
p1321
I42
VSimpleName: k
p1322
tp1323
I10
s(Vinsert
p1324
I42
VSimpleName: minWorkerThreads
p1325
tp1326
I1
s(Vinsert
p1327
I42
VSimpleName: getValueAndReset
p1328
tp1329
I1
s(Vinsert
p1330
I42
VSimpleName: ByteArrayOutputStream
p1331
tp1332
I4
s(Vinsert
p1333
I42
VSimpleName: OpaqueMap
p1334
tp1335
I1
s(Vinsert
p1336
I42
VSimpleName: ReducedMetric
p1337
tp1338
I1
s(Vinsert
p1339
I40
VQualifiedName: TupleType.REGULAR
p1340
tp1341
I1
s(Vinsert
p1342
I45
VStringLiteral: " Could not load class in class path: "
p1343
tp1344
I1
s(Vinsert
p1345
I74
VParameterizedType: Set<WorkerSlot>
p1346
tp1347
I1
s(Vinsert
p1348
I42
VSimpleName: server
p1349
tp1350
I1
s(Vinsert
p1351
I42
VSimpleName: operation
p1352
tp1353
I4
s(Vinsert
p1354
I42
VSimpleName: getMap
p1355
tp1356
I1
s(Vinsert
p1357
I42
VSimpleName: newTransactionalBolt
p1358
tp1359
I2
s(Vinsert
p1360
I43
VSimpleType: IMetric
p1361
tp1362
I1
s(Vinsert
p1363
I43
VSimpleType: Short
p1364
tp1365
I2
s(Vinsert
p1366
I42
VSimpleName: total
p1367
tp1368
I1
s(Vinsert
p1369
I42
VSimpleName: spec
p1370
tp1371
I1
s(Vinsert
p1372
I42
VSimpleName: parent
p1373
tp1374
I1
s(Vinsert
p1375
I42
VSimpleName: partitions
p1376
tp1377
I4
s(Vinsert
p1378
I42
VSimpleName: getInt
p1379
tp1380
I2
s(Vinsert
p1381
I27
VInfixExpression: ==
p1382
tp1383
I37
s(Vinsert
p1384
I9
VBooleanLiteral: true
p1385
tp1386
I29
s(Vinsert
p1387
I42
VSimpleName: callback
p1388
tp1389
I3
s(Vinsert
p1390
I74
VParameterizedType: List<ValueUpdater>
p1391
tp1392
I1
s(Vinsert
p1393
I58
VVariableDeclarationExpression
p1394
tp1395
I12
s(Vinsert
p1396
I74
VParameterizedType: Map<Number,Number>
p1397
tp1398
I1
s(Vinsert
p1399
I42
VSimpleName: OutputFieldsDeclarer
p1400
tp1401
I5
s(Vinsert
p1402
I42
VSimpleName: count
p1403
tp1404
I1
s(Vinsert
p1405
I42
VSimpleName: blackListedHosts
p1406
tp1407
I5
s(Vinsert
p1408
I42
VSimpleName: IllegalStateException
p1409
tp1410
I1
s(Vinsert
p1411
I42
VSimpleName: _maxTransactionActive
p1412
tp1413
I1
s(Vinsert
p1414
I42
VSimpleName: intCast
p1415
tp1416
I1
s(Vinsert
p1417
I42
VSimpleName: T
p1418
tp1419
I15
s(Vinsert
p1420
I42
VSimpleName: PartitionNode
p1421
tp1422
I2
s(Vinsert
p1423
I45
VStringLiteral: "Field must be an Iterable of "
p1424
tp1425
I1
s(Vinsert
p1426
I42
VSimpleName: TridentTuple
p1427
tp1428
I21
s(Vinsert
p1429
I42
VSimpleName: RebalanceOptions
p1430
tp1431
I1
s(Vinsert
p1432
I42
VSimpleName: NullStruct
p1433
tp1434
I2
s(Vinsert
p1435
I42
VSimpleName: K
p1436
tp1437
I3
s(Vinsert
p1438
I42
VSimpleName: login_conf
p1439
tp1440
I3
s(Vinsert
p1441
I42
VSimpleName: Login
p1442
tp1443
I1
s(Vinsert
p1444
I42
VSimpleName: idsMap
p1445
tp1446
I1
s(Vinsert
p1447
I43
VSimpleType: Callback
p1448
tp1449
I1
s(Vinsert
p1450
I43
VSimpleType: BigInteger
p1451
tp1452
I4
s(Vinsert
p1453
I42
VSimpleName: State
p1454
tp1455
I1
s(Vinsert
p1456
I40
VQualifiedName: java.util.Map.Entry
p1457
tp1458
I1
s(Vinsert
p1459
I43
VSimpleType: Keyword
p1460
tp1461
I4
s(Vinsert
p1462
I42
VSimpleName: readPos
p1463
tp1464
I1
s(Vinsert
p1465
I42
VSimpleName: isExecutorAssigned
p1466
tp1467
I1
s(Vinsert
p1468
I43
VSimpleType: BlowfishSerializer
p1469
tp1470
I1
s(Vinsert
p1471
I42
VSimpleName: EXECUTE_MS_AVG
p1472
tp1473
I1
s(Vinsert
p1474
I42
VSimpleName: _maxAmt
p1475
tp1476
I1
s(Vinsert
p1477
I42
VSimpleName: that_present_json_conf
p1478
tp1479
I1
s(Vinsert
p1480
I42
VSimpleName: parentStreams
p1481
tp1482
I1
s(Vinsert
p1483
I42
VSimpleName: DRPCExecutionException
p1484
tp1485
I2
s(Vinsert
p1486
I42
VSimpleName: writePos
p1487
tp1488
I1
s(Vinsert
p1489
I43
VSimpleType: SpoutOutputCollector
p1490
tp1491
I1
s(Vinsert
p1492
I42
VSimpleName: commit
p1493
tp1494
I3
s(Vinsert
p1495
I42
VSimpleName: is_set_transactional_bolts
p1496
tp1497
I1
s(Vinsert
p1498
I43
VSimpleType: TransactionalBoltExecutor
p1499
tp1500
I1
s(Vinsert
p1501
I42
VSimpleName: _map22
p1502
tp1503
I1
s(Vinsert
p1504
I43
VSimpleType: ReadOnlyMapState
p1505
tp1506
I1
s(Vinsert
p1507
I42
VSimpleName: IBatchID
p1508
tp1509
I1
s(Vinsert
p1510
I42
VSimpleName: parse
p1511
tp1512
I4
s(Vinsert
p1513
I43
VSimpleType: ValuePointer
p1514
tp1515
I3
s(Vinsert
p1516
I40
VQualifiedName: DistributedRPC.Iface
p1517
tp1518
I1
s(Vinsert
p1519
I42
VSimpleName: getServerTransportFactory
p1520
tp1521
I1
s(Vinsert
p1522
I34
VNumberLiteral: 2000000000
p1523
tp1524
I1
s(Vinsert
p1525
I42
VSimpleName: _coordSpecs
p1526
tp1527
I1
s(Vinsert
p1528
I42
VSimpleName: setDaemonConf
p1529
tp1530
I1
s(Vinsert
p1531
I42
VSimpleName: headMap
p1532
tp1533
I1
s(Vinsert
p1534
I42
VSimpleName: getInstance
p1535
tp1536
I1
s(Vinsert
p1537
I42
VSimpleName: _outputs
p1538
tp1539
I2
s(Vinsert
p1540
I42
VSimpleName: result
p1541
tp1542
I1
s(Vinsert
p1543
I9
VBooleanLiteral: false
p1544
tp1545
I14
s(Vinsert
p1546
I42
VSimpleName: processor
p1547
tp1548
I1
s(Vinsert
p1549
I42
VSimpleName: NameCallback
p1550
tp1551
I2
s(Vinsert
p1552
I42
VSimpleName: readString
p1553
tp1554
I3
s(Vinsert
p1555
I43
VSimpleType: OutputFieldsDeclarer
p1556
tp1557
I5
s(Vinsert
p1558
I42
VSimpleName: getComponentConfiguration
p1559
tp1560
I11
s(Vinsert
p1561
I42
VSimpleName: servers
p1562
tp1563
I2
s(Vinsert
p1564
I42
VSimpleName: error
p1565
tp1566
I5
s(Vinsert
p1567
I42
VSimpleName: sers
p1568
tp1569
I1
s(Vinsert
p1570
I65
VTagElement
p1571
tp1572
I4
s(Vinsert
p1573
I40
VQualifiedName: ControlMessage.CLOSE_MESSAGE
p1574
tp1575
I1
s(Vinsert
p1576
I42
VSimpleName: kryo
p1577
tp1578
I1
s(Vinsert
p1579
I42
VSimpleName: Pointer
p1580
tp1581
I1
s(Vinsert
p1582
I42
VSimpleName: _agg
p1583
tp1584
I3
s(Vinsert
p1585
I42
VSimpleName: pid
p1586
tp1587
I1
s(Vinsert
p1588
I43
VSimpleType: InputDeclarer
p1589
tp1590
I8
s(Vinsert
p1591
I43
VSimpleType: AtomicInteger
p1592
tp1593
I2
s(Vinsert
p1594
I42
VSimpleName: _vs
p1595
tp1596
I1
s(Vinsert
p1597
I42
VSimpleName: success
p1598
tp1599
I3
s(Vinsert
p1600
I42
VSimpleName: waitFor
p1601
tp1602
I1
s(Vinsert
p1603
I42
VSimpleName: transportPlugin
p1604
tp1605
I1
s(Vinsert
p1606
I42
VSimpleName: attempts
p1607
tp1608
I1
s(Vinsert
p1609
I42
VSimpleName: getErrorsString
p1610
tp1611
I2
s(Vinsert
p1612
I42
VSimpleName: graph
p1613
tp1614
I2
s(Vinsert
p1615
I43
VSimpleType: StringBuffer
p1616
tp1617
I4
s(Vinsert
p1618
I42
VSimpleName: tasks
p1619
tp1620
I3
s(Vinsert
p1621
I42
VSimpleName: superClass
p1622
tp1623
I1
s(Vinsert
p1624
I45
VStringLiteral: "!/"
p1625
tp1626
I1
s(Vinsert
p1627
I42
VSimpleName: doubleValue
p1628
tp1629
I1
s(Vinsert
p1630
I42
VSimpleName: dead
p1631
tp1632
I3
s(Vinsert
p1633
I45
VStringLiteral: "send/recv time (ms):"
p1634
tp1635
I1
s(Vinsert
p1636
I42
VSimpleName: bind
p1637
tp1638
I2
s(Vinsert
p1639
I42
VSimpleName: _backing
p1640
tp1641
I2
s(Vinsert
p1642
I42
VSimpleName: java_object
p1643
tp1644
I3
s(Vinsert
p1645
I42
VSimpleName: clctn
p1646
tp1647
I1
s(Vinsert
p1648
I42
VSimpleName: _node
p1649
tp1650
I1
s(Vinsert
p1651
I40
VQualifiedName: CuratorFrameworkFactory.Builder
p1652
tp1653
I1
s(Vinsert
p1654
I42
VSimpleName: tuplesIterator
p1655
tp1656
I1
s(Vinsert
p1657
I42
VSimpleName: prepare
p1658
tp1659
I7
s(Vinsert
p1660
I42
VSimpleName: getSourceStreamId
p1661
tp1662
I3
s(Vinsert
p1663
I43
VSimpleType: State
p1664
tp1665
I1
s(Vinsert
p1666
I74
VParameterizedType: List<List<Object>>
p1667
tp1668
I1
s(Vinsert
p1669
I42
VSimpleName: RetryNTimes
p1670
tp1671
I1
s(Vinsert
p1672
I74
VParameterizedType: Class<? extends IKryoFactory>
p1673
tp1674
I1
s(Vinsert
p1675
I42
VSimpleName: bootstrap
p1676
tp1677
I2
s(Vinsert
p1678
I42
VSimpleName: parseLong
p1679
tp1680
I1
s(Vinsert
p1681
I42
VSimpleName: stream
p1682
tp1683
I11
s(Vinsert
p1684
I42
VSimpleName: message
p1685
tp1686
I5
s(Vinsert
p1687
I42
VSimpleName: File
p1688
tp1689
I2
s(Vinsert
p1690
I42
VSimpleName: containsKey
p1691
tp1692
I15
s(Vinsert
p1693
I74
VParameterizedType: Collection<? extends Object>
p1694
tp1695
I1
s(Vinsert
p1696
I43
VSimpleType: RebalanceOptions
p1697
tp1698
I1
s(Vinsert
p1699
I43
VSimpleType: Subject
p1700
tp1701
I1
s(Vinsert
p1702
I42
VSimpleName: getChannel
p1703
tp1704
I1
s(Vinsert
p1705
I42
VSimpleName: LRUMemoryMapState
p1706
tp1707
I1
s(Vinsert
p1708
I42
VSimpleName: taskId
p1709
tp1710
I4
s(Vinsert
p1711
I42
VSimpleName: transportFactory
p1712
tp1713
I1
s(Vinsert
p1714
I43
VSimpleType: TridentCollector
p1715
tp1716
I12
s(Vinsert
p1717
I42
VSimpleName: this_present_num_workers
p1718
tp1719
I1
s(Vinsert
p1720
I42
VSimpleName: FreshCollector
p1721
tp1722
I2
s(Vinsert
p1723
I42
VSimpleName: _kryoOut
p1724
tp1725
I3
s(Vinsert
p1726
I42
VSimpleName: summary
p1727
tp1728
I1
s(Vinsert
p1729
I42
VSimpleName: append
p1730
tp1731
I6
s(Vinsert
p1732
I42
VSimpleName: currGroup
p1733
tp1734
I1
s(Vinsert
p1735
I42
VSimpleName: eobMessage
p1736
tp1737
I1
s(Vinsert
p1738
I40
VQualifiedName: org.apache.commons.codec.DecoderException
p1739
tp1740
I1
s(Vinsert
p1741
I70
VEnhancedForStatement
p1742
tp1743
I28
s(Vinsert
p1744
I42
VSimpleName: _openTransactions
p1745
tp1746
I4
s(Vinsert
p1747
I42
VSimpleName: n
p1748
tp1749
I3
s(Vinsert
p1750
I40
VQualifiedName: track.failed
p1751
tp1752
I2
s(Vinsert
p1753
I42
VSimpleName: secureRandomLong
p1754
tp1755
I1
s(Vinsert
p1756
I42
VSimpleName: getSourceComponent
p1757
tp1758
I3
s(Vinsert
p1759
I42
VSimpleName: m3
p1760
tp1761
I2
s(Vinsert
p1762
I42
VSimpleName: JSONObject
p1763
tp1764
I2
s(Vinsert
p1765
I43
VSimpleType: Number
p1766
tp1767
I12
s(Vinsert
p1768
I42
VSimpleName: deactivate
p1769
tp1770
I2
s(Vinsert
p1771
I42
VSimpleName: action
p1772
tp1773
I5
s(Vinsert
p1774
I42
VSimpleName: execute
p1775
tp1776
I10
s(Vinsert
p1777
I42
VSimpleName: bolts
p1778
tp1779
I1
s(Vinsert
p1780
I43
VSimpleType: StormServerPipelineFactory
p1781
tp1782
I1
s(Vinsert
p1783
I42
VSimpleName: getPortsPerSupervisor
p1784
tp1785
I1
s(Vinsert
p1786
I42
VSimpleName: pidDir
p1787
tp1788
I2
s(Vinsert
p1789
I42
VSimpleName: writeShort
p1790
tp1791
I1
s(Vinsert
p1792
I43
VSimpleType: DistributedRPC.Iface
p1793
tp1794
I1
s(Vinsert
p1795
I42
VSimpleName: bout
p1796
tp1797
I7
s(Vinsert
p1798
I42
VSimpleName: server_connections
p1799
tp1800
I1
s(Vinsert
p1801
I42
VSimpleName: this_present_json_conf
p1802
tp1803
I1
s(Vinsert
p1804
I42
VSimpleName: component
p1805
tp1806
I2
s(Vinsert
p1807
I40
VQualifiedName: org.slf4j.LoggerFactory
p1808
tp1809
I1
s(Vinsert
p1810
I42
VSimpleName: length
p1811
tp1812
I4
s(Vinsert
p1813
I43
VSimpleType: PartitionNode
p1814
tp1815
I2
s(Vinsert
p1816
I42
VSimpleName: slot
p1817
tp1818
I3
s(Vinsert
p1819
I42
VSimpleName: scheme
p1820
tp1821
I1
s(Vinsert
p1822
I42
VSimpleName: _groupFactories
p1823
tp1824
I1
s(Vinsert
p1825
I42
VSimpleName: get_ite
p1826
tp1827
I1
s(Vinsert
p1828
I42
VSimpleName: _boltSer
p1829
tp1830
I1
s(Vinsert
p1831
I40
VQualifiedName: Config.STORM_ZOOKEEPER_RETRY_INTERVAL
p1832
tp1833
I1
s(Vinsert
p1834
I34
VNumberLiteral: 15000
p1835
tp1836
I1
s(Vinsert
p1837
I42
VSimpleName: getMethod
p1838
tp1839
I1
s(Vinsert
p1840
I42
VSimpleName: okResponse
p1841
tp1842
I1
s(Vinsert
p1843
I42
VSimpleName: _serializations
p1844
tp1845
I1
s(Vinsert
p1846
I42
VSimpleName: compareTo
p1847
tp1848
I3
s(Vinsert
p1849
I42
VSimpleName: prevMap
p1850
tp1851
I3
s(Vinsert
p1852
I42
VSimpleName: ChannelPipeline
p1853
tp1854
I4
s(Vinsert
p1855
I42
VSimpleName: this_present_executed
p1856
tp1857
I1
s(Vinsert
p1858
I42
VSimpleName: failedAmt
p1859
tp1860
I1
s(Vinsert
p1861
I40
VQualifiedName: backtype.storm.utils.Utils
p1862
tp1863
I1
s(Vinsert
p1864
I42
VSimpleName: warn
p1865
tp1866
I8
s(Vinsert
p1867
I42
VSimpleName: format
p1868
tp1869
I2
s(Vinsert
p1870
I42
VSimpleName: getContext
p1871
tp1872
I1
s(Vinsert
p1873
I42
VSimpleName: Exception
p1874
tp1875
I7
s(Vinsert
p1876
I74
VParameterizedType: EventHandler<Object>
p1877
tp1878
I1
s(Vinsert
p1879
I42
VSimpleName: OK_RESPONSE
p1880
tp1881
I1
s(Vinsert
p1882
I42
VSimpleName: getKryo
p1883
tp1884
I3
s(Vinsert
p1885
I42
VSimpleName: errorMessage
p1886
tp1887
I2
s(Vinsert
p1888
I43
VSimpleType: Thread
p1889
tp1890
I2
s(Vinsert
p1891
I42
VSimpleName: batchGroup
p1892
tp1893
I1
s(Vinsert
p1894
I43
VSimpleType: KryoSerializableDefault
p1895
tp1896
I2
s(Vinsert
p1897
I42
VSimpleName: Channel
p1898
tp1899
I1
s(Vinsert
p1900
I42
VSimpleName: _reqID
p1901
tp1902
I1
s(Vinsert
p1903
I42
VSimpleName: _readerThread
p1904
tp1905
I3
s(Vinsert
p1906
I74
VParameterizedType: ArrayList<WorkerSlot>
p1907
tp1908
I1
s(Vinsert
p1909
I43
VSimpleType: ZookeeperAuthInfo
p1910
tp1911
I1
s(Vinsert
p1912
I42
VSimpleName: _fail
p1913
tp1914
I1
s(Vinsert
p1915
I40
VQualifiedName: CUSTOM_SERIALIZED_FIELD_DESC.type
p1916
tp1917
I1
s(Vinsert
p1918
I42
VSimpleName: start
p1919
tp1920
I4
s(Vinsert
p1921
I42
VSimpleName: fieldsUnion
p1922
tp1923
I1
s(Vinsert
p1924
I42
VSimpleName: Throwable
p1925
tp1926
I2
s(Vinsert
p1927
I43
VSimpleType: Configuration
p1928
tp1929
I1
s(Vinsert
p1930
I42
VSimpleName: namespace
p1931
tp1932
I1
s(Vinsert
p1933
I42
VSimpleName: projected
p1934
tp1935
I1
s(Vinsert
p1936
I42
VSimpleName: login
p1937
tp1938
I2
s(Vinsert
p1939
I42
VSimpleName: ReqContext
p1940
tp1941
I4
s(Vinsert
p1942
I42
VSimpleName: IReducer
p1943
tp1944
I1
s(Vinsert
p1945
I28
VInitializer
p1946
tp1947
I4
s(Vinsert
p1948
I43
VSimpleType: InterruptedException
p1949
tp1950
I1
s(Vinsert
p1951
I42
VSimpleName: hasProvidedInitialResponse
p1952
tp1953
I1
s(Vinsert
p1954
I42
VSimpleName: g
p1955
tp1956
I2
s(Vinsert
p1957
I42
VSimpleName: amap
p1958
tp1959
I1
s(Vinsert
p1960
I42
VSimpleName: getPipeline
p1961
tp1962
I2
s(Vinsert
p1963
I42
VSimpleName: tridentContext
p1964
tp1965
I5
s(Vinsert
p1966
I42
VSimpleName: mkPacket
p1967
tp1968
I1
s(Vinsert
p1969
I40
VQualifiedName: AttemptStatus.COMMITTING
p1970
tp1971
I1
s(Vinsert
p1972
I42
VSimpleName: Values
p1973
tp1974
I2
s(Vinsert
p1975
I42
VSimpleName: ObjectOutputStream
p1976
tp1977
I2
s(Vinsert
p1978
I42
VSimpleName: isKeep
p1979
tp1980
I4
s(Vinsert
p1981
I42
VSimpleName: _process
p1982
tp1983
I1
s(Vinsert
p1984
I42
VSimpleName: SourceArgs
p1985
tp1986
I4
s(Vinsert
p1987
I43
VSimpleType: ITransportPlugin
p1988
tp1989
I1
s(Vinsert
p1990
I42
VSimpleName: sb
p1991
tp1992
I1
s(Vinsert
p1993
I42
VSimpleName: Cluster
p1994
tp1995
I2
s(Vinsert
p1996
I42
VSimpleName: localOrShuffleGrouping
p1997
tp1998
I2
s(Vinsert
p1999
I43
VSimpleType: T
p2000
tp2001
I13
s(Vinsert
p2002
I42
VSimpleName: tailMap
p2003
tp2004
I1
s(Vinsert
p2005
I42
VSimpleName: thisBatchSize
p2006
tp2007
I2
s(Vinsert
p2008
I42
VSimpleName: TransactionalBolt
p2009
tp2010
I1
s(Vinsert
p2011
I42
VSimpleName: create
p2012
tp2013
I5
s(Vinsert
p2014
I42
VSimpleName: SupervisorDetails
p2015
tp2016
I1
s(Vinsert
p2017
I42
VSimpleName: toMap
p2018
tp2019
I2
s(Vinsert
p2020
I40
VQualifiedName: AuthUtils.LOGIN_CONTEXT_CLIENT
p2021
tp2022
I1
s(Vinsert
p2023
I38
VPrefixExpression: -
p2024
tp2025
I1
s(Vinsert
p2026
I42
VSimpleName: ctrl_msg
p2027
tp2028
I1
s(Vinsert
p2029
I42
VSimpleName: agg
p2030
tp2031
I4
s(Vinsert
p2032
I42
VSimpleName: fieldsConcat
p2033
tp2034
I1
s(Vinsert
p2035
I42
VSimpleName: valAt
p2036
tp2037
I1
s(Vinsert
p2038
I40
VQualifiedName: status.status
p2039
tp2040
I3
s(Vinsert
p2041
I42
VSimpleName: RetVal
p2042
tp2043
I2
s(Vinsert
p2044
I42
VSimpleName: field
p2045
tp2046
I10
s(Vinsert
p2047
I42
VSimpleName: _rand
p2048
tp2049
I2
s(Vinsert
p2050
I43
VSimpleType: SubmitOptions
p2051
tp2052
I1
s(Vinsert
p2053
I45
VStringLiteral: "<Single: "
p2054
tp2055
I1
s(Vinsert
p2056
I42
VSimpleName: setupInfo
p2057
tp2058
I2
s(Vinsert
p2059
I42
VSimpleName: addConfigurations
p2060
tp2061
I3
s(Vinsert
p2062
I85
VDimension
p2063
tp2064
I21
s(Vinsert
p2065
I34
VNumberLiteral: 1000L
p2066
tp2067
I1
s(Vinsert
p2068
I42
VSimpleName: query
p2069
tp2070
I1
s(Vinsert
p2071
I40
VQualifiedName: g.nodes
p2072
tp2073
I1
s(Vinsert
p2074
I42
VSimpleName: iprot
p2075
tp2076
I5
s(Vinsert
p2077
I42
VSimpleName: _server
p2078
tp2079
I3
s(Vinsert
p2080
I42
VSimpleName: t1
p2081
tp2082
I1
s(Vinsert
p2083
I42
VSimpleName: rightSize
p2084
tp2085
I1
s(Vinsert
p2086
I42
VSimpleName: tracked
p2087
tp2088
I1
s(Vinsert
p2089
I40
VQualifiedName: field.type
p2090
tp2091
I4
s(Vinsert
p2092
I42
VSimpleName: _resources
p2093
tp2094
I1
s(Vinsert
p2095
I42
VSimpleName: hook
p2096
tp2097
I1
s(Vinsert
p2098
I42
VSimpleName: registerKryoDecorator
p2099
tp2100
I1
s(Vinsert
p2101
I42
VSimpleName: allPorts
p2102
tp2103
I2
s(Vinsert
p2104
I42
VSimpleName: AppendCollector
p2105
tp2106
I1
s(Vinsert
p2107
I42
VSimpleName: metas
p2108
tp2109
I2
s(Vinsert
p2110
I42
VSimpleName: _Fields
p2111
tp2112
I6
s(Vinsert
p2113
I42
VSimpleName: config_uri
p2114
tp2115
I1
s(Vinsert
p2116
I42
VSimpleName: getOutputFields
p2117
tp2118
I1
s(Vinsert
p2119
I43
VSimpleType: MapCombinerAggStateUpdater
p2120
tp2121
I1
s(Vinsert
p2122
I42
VSimpleName: code
p2123
tp2124
I2
s(Vinsert
p2125
I42
VSimpleName: MkClusterParam
p2126
tp2127
I2
s(Vinsert
p2128
I42
VSimpleName: future
p2129
tp2130
I1
s(Vinsert
p2131
I42
VSimpleName: Output
p2132
tp2133
I3
s(Vinsert
p2134
I42
VSimpleName: auth
p2135
tp2136
I1
s(Vinsert
p2137
I42
VSimpleName: factory
p2138
tp2139
I8
s(Vinsert
p2140
I42
VSimpleName: changed
p2141
tp2142
I3
s(Vinsert
p2143
I78
VMarkerAnnotation
p2144
tp2145
I32
s(Vinsert
p2146
I42
VSimpleName: FailedException
p2147
tp2148
I3
s(Vinsert
p2149
I43
VSimpleType: submitTopologyWithOpts_args
p2150
tp2151
I2
s(Vinsert
p2152
I42
VSimpleName: JoinType
p2153
tp2154
I2
s(Vinsert
p2155
I83
VModifier: public
p2156
tp2157
I103
s(Vinsert
p2158
I42
VSimpleName: prevComponent
p2159
tp2160
I3
s(Vinsert
p2161
I43
VSimpleType: ISpout
p2162
tp2163
I1
s(Vinsert
p2164
I43
VSimpleType: MkClusterParam
p2165
tp2166
I2
s(Vinsert
p2167
I42
VSimpleName: getMessageId
p2168
tp2169
I2
s(Vinsert
p2170
I42
VSimpleName: getQueue
p2171
tp2172
I1
s(Vinsert
p2173
I42
VSimpleName: is_set_num_workers
p2174
tp2175
I2
s(Vinsert
p2176
I40
VQualifiedName: AttemptStatus.PROCESSING
p2177
tp2178
I1
s(Vinsert
p2179
I42
VSimpleName: newChannel
p2180
tp2181
I1
s(Vinsert
p2182
I42
VSimpleName: callback_handler
p2183
tp2184
I1
s(Vinsert
p2185
I42
VSimpleName: _confSpec
p2186
tp2187
I4
s(Vinsert
p2188
I42
VSimpleName: executor
p2189
tp2190
I4
s(Vinsert
p2191
I7
VAssignment: +=
p2192
tp2193
I5
s(Vinsert
p2194
I42
VSimpleName: connect
p2195
tp2196
I2
s(Vinsert
p2197
I40
VQualifiedName: other.port
p2198
tp2199
I1
s(Vinsert
p2200
I42
VSimpleName: handler
p2201
tp2202
I2
s(Vinsert
p2203
I27
VInfixExpression: -
p2204
tp2205
I4
s(Vinsert
p2206
I42
VSimpleName: values
p2207
tp2208
I17
s(Vinsert
p2209
I42
VSimpleName: getBooleanByField
p2210
tp2211
I1
s(Vinsert
p2212
I42
VSimpleName: getCanonicalPath
p2213
tp2214
I1
s(Vinsert
p2215
I42
VSimpleName: MemoryMapState
p2216
tp2217
I1
s(Vinsert
p2218
I42
VSimpleName: _n
p2219
tp2220
I1
s(Vinsert
p2221
I42
VSimpleName: channel
p2222
tp2223
I2
s(Vinsert
p2224
I42
VSimpleName: _projection
p2225
tp2226
I2
s(Vinsert
p2227
I42
VSimpleName: Thread
p2228
tp2229
I4
s(Vinsert
p2230
I42
VSimpleName: Integer
p2231
tp2232
I30
s(Vinsert
p2233
I43
VSimpleType: WindowedTimeThrottler
p2234
tp2235
I2
s(Vinsert
p2236
I42
VSimpleName: TopologyBuilder
p2237
tp2238
I1
s(Vinsert
p2239
I40
VQualifiedName: org.apache.thrift7.protocol.TType.STRING
p2240
tp2241
I1
s(Vinsert
p2242
I42
VSimpleName: getComponentCommon
p2243
tp2244
I2
s(Vinsert
p2245
I43
VSimpleType: TSaslServerTransport.Factory
p2246
tp2247
I4
s(Vinsert
p2248
I40
VQualifiedName: objects.length
p2249
tp2250
I1
s(Vinsert
p2251
I42
VSimpleName: reduce
p2252
tp2253
I2
s(Vinsert
p2254
I42
VSimpleName: metric
p2255
tp2256
I1
s(Vinsert
p2257
I42
VSimpleName: finishedId
p2258
tp2259
I3
s(Vinsert
p2260
I43
VSimpleType: ICommittable
p2261
tp2262
I1
s(Vinsert
p2263
I42
VSimpleName: nc
p2264
tp2265
I2
s(Vinsert
p2266
I42
VSimpleName: FailedBatchException
p2267
tp2268
I1
s(Vinsert
p2269
I42
VSimpleName: AccessControlContext
p2270
tp2271
I1
s(Vinsert
p2272
I42
VSimpleName: sleepTime
p2273
tp2274
I1
s(Vinsert
p2275
I42
VSimpleName: FailedTransactionException
p2276
tp2277
I5
s(Vinsert
p2278
I42
VSimpleName: getConfiguredClient
p2279
tp2280
I1
s(Vinsert
p2281
I42
VSimpleName: getConstructor
p2282
tp2283
I1
s(Vinsert
p2284
I42
VSimpleName: userName
p2285
tp2286
I1
s(Vinsert
p2287
I42
VSimpleName: set_chunk
p2288
tp2289
I1
s(Vinsert
p2290
I42
VSimpleName: ITE
p2291
tp2292
I1
s(Vinsert
p2293
I42
VSimpleName: is_set_executor_info
p2294
tp2295
I1
s(Vinsert
p2296
I42
VSimpleName: timeout
p2297
tp2298
I2
s(Vinsert
p2299
I42
VSimpleName: Map
p2300
tp2301
I34
s(Vinsert
p2302
I42
VSimpleName: System
p2303
tp2304
I7
s(Vinsert
p2305
I43
VSimpleType: FailedBatchException
p2306
tp2307
I1
s(Vinsert
p2308
I42
VSimpleName: task
p2309
tp2310
I3
s(Vinsert
p2311
I42
VSimpleName: full
p2312
tp2313
I1
s(Vinsert
p2314
I43
VSimpleType: TreeMap
p2315
tp2316
I1
s(Vinsert
p2317
I42
VSimpleName: getName
p2318
tp2319
I8
s(Vinsert
p2320
I42
VSimpleName: maxWorkerThreads
p2321
tp2322
I1
s(Vinsert
p2323
I42
VSimpleName: configs
p2324
tp2325
I1
s(Vinsert
p2326
I42
VSimpleName: TRANSACTIONAL_BOLTS
p2327
tp2328
I1
s(Vinsert
p2329
I42
VSimpleName: types
p2330
tp2331
I1
s(Vinsert
p2332
I42
VSimpleName: stormConf
p2333
tp2334
I2
s(Vinsert
p2335
I42
VSimpleName: tracker
p2336
tp2337
I2
s(Vinsert
p2338
I24
VForStatement
p2339
tp2340
I12
s(Vinsert
p2341
I43
VSimpleType: _Fields
p2342
tp2343
I5
s(Vinsert
p2344
I42
VSimpleName: _attemptId
p2345
tp2346
I1
s(Vinsert
p2347
I43
VSimpleType: SingleEmitAggregator
p2348
tp2349
I1
s(Vinsert
p2350
I42
VSimpleName: ser
p2351
tp2352
I5
s(Vinsert
p2353
I43
VSimpleType: RichSpoutBatchId
p2354
tp2355
I1
s(Vinsert
p2356
I42
VSimpleName: ChannelBuffer
p2357
tp2358
I1
s(Vinsert
p2359
I42
VSimpleName: getComponentTasks
p2360
tp2361
I1
s(Vinsert
p2362
I43
VSimpleType: LinkedBlockingQueue
p2363
tp2364
I1
s(Vinsert
p2365
I42
VSimpleName: toByteArray
p2366
tp2367
I2
s(Vinsert
p2368
I42
VSimpleName: TopologyDetails
p2369
tp2370
I1
s(Vinsert
p2371
I42
VSimpleName: serve
p2372
tp2373
I1
s(Vinsert
p2374
I34
VNumberLiteral: 4
p2375
tp2376
I2
s(Vinsert
p2377
I42
VSimpleName: start_time
p2378
tp2379
I1
s(Vinsert
p2380
I42
VSimpleName: block
p2381
tp2382
I2
s(Vinsert
p2383
I42
VSimpleName: txid
p2384
tp2385
I7
s(Vinsert
p2386
I42
VSimpleName: sorted
p2387
tp2388
I1
s(Vinsert
p2389
I45
VStringLiteral: "argument"
p2390
tp2391
I1
s(Vinsert
p2392
I74
VParameterizedType: HashMap<V,K>
p2393
tp2394
I1
s(Vinsert
p2395
I43
VSimpleType: TestSerObject
p2396
tp2397
I1
s(Vinsert
p2398
I74
VParameterizedType: Map<String,Object>
p2399
tp2400
I6
s(Vinsert
p2401
I42
VSimpleName: sleepMillis
p2402
tp2403
I1
s(Vinsert
p2404
I43
VSimpleType: IdStreamSpec
p2405
tp2406
I2
s(Vinsert
p2407
I42
VSimpleName: Number
p2408
tp2409
I13
s(Vinsert
p2410
I42
VSimpleName: projFields
p2411
tp2412
I2
s(Vinsert
p2413
I42
VSimpleName: ChannelBufferOutputStream
p2414
tp2415
I5
s(Vinsert
p2416
I42
VSimpleName: streamId
p2417
tp2418
I14
s(Vinsert
p2419
I43
VSimpleType: File
p2420
tp2421
I2
s(Vinsert
p2422
I40
VQualifiedName: fields.length
p2423
tp2424
I1
s(Vinsert
p2425
I40
VQualifiedName: ControlMessage.BASE_CODE
p2426
tp2427
I1
s(Vinsert
p2428
I42
VSimpleName: ClusterSummary
p2429
tp2430
I1
s(Vinsert
p2431
I43
VSimpleType: SourceArgs
p2432
tp2433
I4
s(Vinsert
p2434
I42
VSimpleName: DataInputStream
p2435
tp2436
I2
s(Vinsert
p2437
I42
VSimpleName: timeBucketSizeInSecs
p2438
tp2439
I3
s(Vinsert
p2440
I42
VSimpleName: Group
p2441
tp2442
I1
s(Vinsert
p2443
I42
VSimpleName: si
p2444
tp2445
I2
s(Vinsert
p2446
I42
VSimpleName: startBatch
p2447
tp2448
I1
s(Vinsert
p2449
I42
VSimpleName: ERRORS
p2450
tp2451
I1
s(Vinsert
p2452
I42
VSimpleName: channelRef
p2453
tp2454
I1
s(Vinsert
p2455
I42
VSimpleName: NUM_EXECUTORS
p2456
tp2457
I1
s(Vinsert
p2458
I42
VSimpleName: getQueues
p2459
tp2460
I1
s(Vinsert
p2461
I43
VSimpleType: TopologyDetails
p2462
tp2463
I1
s(Vinsert
p2464
I60
VVariableDeclarationStatement
p2465
tp2466
I156
s(Vinsert
p2467
I74
VParameterizedType: Map<Integer,Boolean>
p2468
tp2469
I1
s(Vinsert
p2470
I42
VSimpleName: sourceTasks
p2471
tp2472
I2
s(Vinsert
p2473
I42
VSimpleName: objectToIndex
p2474
tp2475
I2
s(Vinsert
p2476
I40
VQualifiedName: Config.STORM_MESSAGING_NETTY_SERVER_WORKER_THREADS
p2477
tp2478
I1
s(Vinsert
p2479
I42
VSimpleName: declarer
p2480
tp2481
I27
s(Vinsert
p2482
I42
VSimpleName: getResource
p2483
tp2484
I1
s(Vinsert
p2485
I43
VSimpleType: Set
p2486
tp2487
I3
s(Vinsert
p2488
I42
VSimpleName: LinkedBlockingQueue
p2489
tp2490
I1
s(Vinsert
p2491
I42
VSimpleName: groups
p2492
tp2493
I1
s(Vinsert
p2494
I42
VSimpleName: get_output_fields
p2495
tp2496
I2
s(Vinsert
p2497
I43
VSimpleType: Kryo
p2498
tp2499
I2
s(Vinsert
p2500
I42
VSimpleName: _taskData
p2501
tp2502
I1
s(Vinsert
p2503
I43
VSimpleType: SaslServerCallbackHandler
p2504
tp2505
I1
s(Vinsert
p2506
I42
VSimpleName: _idStreamSpec
p2507
tp2508
I1
s(Vinsert
p2509
I42
VSimpleName: Set
p2510
tp2511
I4
s(Vinsert
p2512
I42
VSimpleName: is_set_options
p2513
tp2514
I2
s(Vinsert
p2515
I42
VSimpleName: TProtocol
p2516
tp2517
I1
s(Vinsert
p2518
I42
VSimpleName: _spout
p2519
tp2520
I10
s(Vinsert
p2521
I22
VFieldAccess
p2522
tp2523
I26
s(Vinsert
p2524
I42
VSimpleName: transport_klassName
p2525
tp2526
I1
s(Vinsert
p2527
I42
VSimpleName: Worker
p2528
tp2529
I2
s(Vinsert
p2530
I43
VSimpleType: ArrayList
p2531
tp2532
I19
s(Vinsert
p2533
I43
VSimpleType: TFramedTransport
p2534
tp2535
I1
s(Vinsert
p2536
I43
VSimpleType: Server
p2537
tp2538
I1
s(Vinsert
p2539
I43
VSimpleType: RetVal
p2540
tp2541
I2
s(Vinsert
p2542
I42
VSimpleName: daemonConf
p2543
tp2544
I2
s(Vinsert
p2545
I42
VSimpleName: setTimeout
p2546
tp2547
I1
s(Vinsert
p2548
I40
VQualifiedName: track.receivedId
p2549
tp2550
I1
s(Vinsert
p2551
I42
VSimpleName: collectors
p2552
tp2553
I1
s(Vinsert
p2554
I42
VSimpleName: available
p2555
tp2556
I2
s(Vinsert
p2557
I43
VSimpleType: Map
p2558
tp2559
I33
s(Vinsert
p2560
I42
VSimpleName: is_set_execute_ms_avg
p2561
tp2562
I1
s(Vinsert
p2563
I42
VSimpleName: getParent
p2564
tp2565
I1
s(Vinsert
p2566
I42
VSimpleName: conn
p2567
tp2568
I2
s(Vinsert
p2569
I5
VArrayType: Object[]
p2570
tp2571
I2
s(Vinsert
p2572
I42
VSimpleName: removeLast
p2573
tp2574
I1
s(Vinsert
p2575
I42
VSimpleName: String
p2576
tp2577
I111
s(Vinsert
p2578
I42
VSimpleName: CustomStreamGrouping
p2579
tp2580
I1
s(Vinsert
p2581
I42
VSimpleName: partition
p2582
tp2583
I3
s(Vinsert
p2584
I42
VSimpleName: Kryo
p2585
tp2586
I2
s(Vinsert
p2587
I42
VSimpleName: host
p2588
tp2589
I2
s(Vinsert
p2590
I42
VSimpleName: entrySet
p2591
tp2592
I1
s(Vinsert
p2593
I42
VSimpleName: assocEx
p2594
tp2595
I4
s(Vinsert
p2596
I42
VSimpleName: get_errors
p2597
tp2598
I1
s(Vinsert
p2599
I42
VSimpleName: getFieldName
p2600
tp2601
I1
s(Vinsert
p2602
I42
VSimpleName: that
p2603
tp2604
I21
s(Vinsert
p2605
I42
VSimpleName: c
p2606
tp2607
I5
s(Vinsert
p2608
I42
VSimpleName: Method
p2609
tp2610
I1
s(Vinsert
p2611
I42
VSimpleName: clear
p2612
tp2613
I3
s(Vinsert
p2614
I42
VSimpleName: _groupFactory
p2615
tp2616
I2
s(Vinsert
p2617
I43
VSimpleType: ControlMessage
p2618
tp2619
I2
s(Vinsert
p2620
I42
VSimpleName: setPortsPerSupervisor
p2621
tp2622
I1
s(Vinsert
p2623
I34
VNumberLiteral: 1000
p2624
tp2625
I1
s(Vinsert
p2626
I42
VSimpleName: Serializable
p2627
tp2628
I1
s(Vinsert
p2629
I25
VIfStatement
p2630
tp2631
I123
s(Vinsert
p2632
I42
VSimpleName: topology_conf
p2633
tp2634
I2
s(Vinsert
p2635
I42
VSimpleName: applyTo
p2636
tp2637
I1
s(Vinsert
p2638
I42
VSimpleName: getSubject
p2639
tp2640
I2
s(Vinsert
p2641
I42
VSimpleName: _hooks
p2642
tp2643
I1
s(Vinsert
p2644
I42
VSimpleName: is_set_inputs
p2645
tp2646
I2
s(Vinsert
p2647
I42
VSimpleName: delayed
p2648
tp2649
I1
s(Vinsert
p2650
I83
VModifier: synchronized
p2651
tp2652
I2
s(Vinsert
p2653
I74
VParameterizedType: Map.Entry<List<Object>,T>
p2654
tp2655
I2
s(Vinsert
p2656
I42
VSimpleName: wp
p2657
tp2658
I1
s(Vinsert
p2659
I42
VSimpleName: amt
p2660
tp2661
I1
s(Vinsert
p2662
I38
VPrefixExpression: !
p2663
tp2664
I32
s(Vinsert
p2665
I42
VSimpleName: collectorMap
p2666
tp2667
I2
s(Vinsert
p2668
I42
VSimpleName: in
p2669
tp2670
I1
s(Vinsert
p2671
I42
VSimpleName: getValueByField
p2672
tp2673
I1
s(Vinsert
p2674
I43
VSimpleType: Boolean
p2675
tp2676
I6
s(Vinsert
p2677
I42
VSimpleName: setPipelineFactory
p2678
tp2679
I1
s(Vinsert
p2680
I42
VSimpleName: notAllAcked
p2681
tp2682
I2
s(Vinsert
p2683
I42
VSimpleName: getCluster
p2684
tp2685
I1
s(Vinsert
p2686
I42
VSimpleName: outProt
p2687
tp2688
I1
s(Vinsert
p2689
I42
VSimpleName: resources
p2690
tp2691
I2
s(Vinsert
p2692
I42
VSimpleName: Callback
p2693
tp2694
I1
s(Vinsert
p2695
I42
VSimpleName: being_closed
p2696
tp2697
I3
s(Vinsert
p2698
I42
VSimpleName: getUnderlyingTuple
p2699
tp2700
I1
s(Vinsert
p2701
I42
VSimpleName: getSourceGlobalStreamid
p2702
tp2703
I1
s(Vinsert
p2704
I42
VSimpleName: url
p2705
tp2706
I1
s(Vinsert
p2707
I42
VSimpleName: transport_plugin_jar
p2708
tp2709
I1
s(Vinsert
p2710
I43
VSimpleType: FailedException
p2711
tp2712
I2
s(Vinsert
p2713
I42
VSimpleName: multiGet
p2714
tp2715
I3
s(Vinsert
p2716
I42
VSimpleName: getAssignedNumWorkers
p2717
tp2718
I1
s(Vinsert
p2719
I43
VSimpleType: Output
p2720
tp2721
I3
s(Vinsert
p2722
I42
VSimpleName: SchedulerAssignment
p2723
tp2724
I5
s(Vinsert
p2725
I42
VSimpleName: _spoutConfs
p2726
tp2727
I1
s(Vinsert
p2728
I42
VSimpleName: Channels
p2729
tp2730
I2
s(Vinsert
p2731
I42
VSimpleName: setData
p2732
tp2733
I1
s(Vinsert
p2734
I74
VParameterizedType: Collection<Number>
p2735
tp2736
I1
s(Vinsert
p2737
I42
VSimpleName: this_present_supervisor_id
p2738
tp2739
I1
s(Vinsert
p2740
I43
VSimpleType: JoinType
p2741
tp2742
I2
s(Vinsert
p2743
I40
VQualifiedName: val.received
p2744
tp2745
I1
s(Vinsert
p2746
I42
VSimpleName: _groupFields
p2747
tp2748
I2
s(Vinsert
p2749
I40
VQualifiedName: org.apache.thrift.TBaseHelper
p2750
tp2751
I1
s(Vinsert
p2752
I43
VSimpleType: NullStruct
p2753
tp2754
I2
s(Vinsert
p2755
I42
VSimpleName: UnsupportedEncodingException
p2756
tp2757
I1
s(Vinsert
p2758
I43
VSimpleType: URL
p2759
tp2760
I5
s(Vinsert
p2761
I74
VParameterizedType: ArrayList<?>
p2762
tp2763
I1
s(Vinsert
p2764
I40
VQualifiedName: backtype.storm.ILocalDRPC
p2765
tp2766
I1
s(Vinsert
p2767
I42
VSimpleName: _componentToStreamToFields
p2768
tp2769
I1
s(Vinsert
p2770
I42
VSimpleName: acl_ctxt
p2771
tp2772
I2
s(Vinsert
p2773
I42
VSimpleName: StringBuilder
p2774
tp2775
I4
s(Vinsert
p2776
I40
VQualifiedName: org.apache.thrift7.protocol.TType.MAP
p2777
tp2778
I1
s(Vinsert
p2779
I42
VSimpleName: emit
p2780
tp2781
I15
s(Vinsert
p2782
I45
VStringLiteral: "Pipe to subprocess seems to be broken!"
p2783
tp2784
I1
s(Vinsert
p2785
I43
VSimpleType: org.apache.commons.codec.DecoderException
p2786
tp2787
I1
s(Vinsert
p2788
I43
VSimpleType: TBinaryProtocol.Factory
p2789
tp2790
I1
s(Vinsert
p2791
I42
VSimpleName: decorator
p2792
tp2793
I2
s(Vinsert
p2794
I42
VSimpleName: local_or_shuffle
p2795
tp2796
I4
s(Vinsert
p2797
I43
VSimpleType: List
p2798
tp2799
I49
s(Vinsert
p2800
I34
VNumberLiteral: 3
p2801
tp2802
I1
s(Vinsert
p2803
I42
VSimpleName: _maxBatchSize
p2804
tp2805
I1
s(Vinsert
p2806
I42
VSimpleName: SaslServerCallbackHandler
p2807
tp2808
I1
s(Vinsert
p2809
I42
VSimpleName: elapsedMs
p2810
tp2811
I1
s(Vinsert
p2812
I42
VSimpleName: _factory
p2813
tp2814
I5
s(Vinsert
p2815
I42
VSimpleName: get_inputs
p2816
tp2817
I1
s(Vinsert
p2818
I42
VSimpleName: passTupleThrough
p2819
tp2820
I1
s(Vinsert
p2821
I42
VSimpleName: getKey
p2822
tp2823
I2
s(Vinsert
p2824
I42
VSimpleName: get_task_start
p2825
tp2826
I1
s(Vinsert
p2827
I42
VSimpleName: maxWorkers
p2828
tp2829
I2
s(Vinsert
p2830
I42
VSimpleName: multiPut
p2831
tp2832
I2
s(Vinsert
p2833
I42
VSimpleName: EnumSet
p2834
tp2835
I3
s(Vinsert
p2836
I42
VSimpleName: take
p2837
tp2838
I1
s(Vinsert
p2839
I45
VStringLiteral: "makeContext"
p2840
tp2841
I1
s(Vinsert
p2842
I45
VStringLiteral: "Received commit for different transaction attempt"
p2843
tp2844
I1
s(Vinsert
p2845
I43
VSimpleType: InsufficientCapacityException
p2846
tp2847
I1
s(Vinsert
p2848
I42
VSimpleName: getNumAcks
p2849
tp2850
I1
s(Vinsert
p2851
I42
VSimpleName: updaters
p2852
tp2853
I3
s(Vinsert
p2854
I42
VSimpleName: set_serialized_java
p2855
tp2856
I2
s(Vinsert
p2857
I42
VSimpleName: serialize
p2858
tp2859
I4
s(Vinsert
p2860
I42
VSimpleName: registrations
p2861
tp2862
I1
s(Vinsert
p2863
I43
VSimpleType: Integer
p2864
tp2865
I23
s(Vinsert
p2866
I42
VSimpleName: type
p2867
tp2868
I1
s(Vinsert
p2869
I74
VParameterizedType: List<TridentTuple>
p2870
tp2871
I2
s(Vinsert
p2872
I42
VSimpleName: remaining
p2873
tp2874
I1
s(Vinsert
p2875
I43
VSimpleType: FailedTransactionException
p2876
tp2877
I5
s(Vinsert
p2878
I42
VSimpleName: limit
p2879
tp2880
I3
s(Vinsert
p2881
I42
VSimpleName: getService
p2882
tp2883
I1
s(Vinsert
p2884
I54
VTryStatement
p2885
tp2886
I26
s(Vinsert
p2887
I43
VSimpleType: IOException
p2888
tp2889
I8
s(Vinsert
p2890
I42
VSimpleName: string_arg
p2891
tp2892
I2
s(Vinsert
p2893
I42
VSimpleName: group
p2894
tp2895
I2
s(Vinsert
p2896
I42
VSimpleName: component_id
p2897
tp2898
I1
s(Vinsert
p2899
I42
VSimpleName: orig_loginConfigurationFile
p2900
tp2901
I3
s(Vinsert
p2902
I42
VSimpleName: CountMetric
p2903
tp2904
I1
s(Vinsert
p2905
I42
VSimpleName: windowMillis
p2906
tp2907
I1
s(Vinsert
p2908
I42
VSimpleName: Object
p2909
tp2910
I93
s(Vinsert
p2911
I43
VSimpleType: IllegalStateException
p2912
tp2913
I1
s(Vinsert
p2914
I42
VSimpleName: _pendingWrites
p2915
tp2916
I1
s(Vinsert
p2917
I42
VSimpleName: readShort
p2918
tp2919
I1
s(Vinsert
p2920
I42
VSimpleName: ports
p2921
tp2922
I1
s(Vinsert
p2923
I43
VSimpleType: ProcessorContext
p2924
tp2925
I2
s(Vinsert
p2926
I42
VSimpleName: executorToSlot
p2927
tp2928
I1
s(Vinsert
p2929
I40
VQualifiedName: System.out
p2930
tp2931
I2
s(Vinsert
p2932
I42
VSimpleName: entry
p2933
tp2934
I3
s(Vinsert
p2935
I43
VSimpleType: Logger
p2936
tp2937
I2
s(Vinsert
p2938
I43
VSimpleType: CustomStreamGrouping
p2939
tp2940
I1
s(Vinsert
p2941
I42
VSimpleName: getOrderedPartitions
p2942
tp2943
I1
s(Vinsert
p2944
I42
VSimpleName: setExecutorData
p2945
tp2946
I1
s(Vinsert
p2947
I43
VSimpleType: FinishedCallback
p2948
tp2949
I3
s(Vinsert
p2950
I42
VSimpleName: grouping
p2951
tp2952
I8
s(Vinsert
p2953
I74
VParameterizedType: Entry<Object,Number>
p2954
tp2955
I1
s(Vinsert
p2956
I42
VSimpleName: _count
p2957
tp2958
I2
s(Vinsert
p2959
I43
VSimpleType: Pointer
p2960
tp2961
I1
s(Vinsert
p2962
I36
VParenthesizedExpression
p2963
tp2964
I29
s(Vinsert
p2965
I42
VSimpleName: ByteBuffer
p2966
tp2967
I6
s(Vinsert
p2968
I52
VThisExpression
p2969
tp2970
I56
s(Vinsert
p2971
I42
VSimpleName: checker
p2972
tp2973
I1
s(Vinsert
p2974
I74
VParameterizedType: ArrayList<ExecutorDetails>
p2975
tp2976
I1
s(Vinsert
p2977
I40
VQualifiedName: state.results
p2978
tp2979
I1
s(Vinsert
p2980
I42
VSimpleName: fail
p2981
tp2982
I4
s(Vinsert
p2983
I42
VSimpleName: primary
p2984
tp2985
I1
s(Vinsert
p2986
I42
VSimpleName: Arrays
p2987
tp2988
I4
s(Vinsert
p2989
I42
VSimpleName: setSupervisors
p2990
tp2991
I2
s(Vinsert
p2992
I42
VSimpleName: FixedTuple
p2993
tp2994
I3
s(Vinsert
p2995
I6
VAssertStatement
p2996
tp2997
I2
s(Vinsert
p2998
I42
VSimpleName: f
p2999
tp3000
I2
s(Vinsert
p3001
I43
VSimpleType: Iterator
p3002
tp3003
I2
s(Vinsert
p3004
I42
VSimpleName: _barrier
p3005
tp3006
I2
s(Vinsert
p3007
I45
VStringLiteral: "Current batch ("
p3008
tp3009
I1
s(Vinsert
p3010
I42
VSimpleName: hasNext
p3011
tp3012
I1
s(Vinsert
p3013
I42
VSimpleName: targets
p3014
tp3015
I3
s(Vinsert
p3016
I42
VSimpleName: SubmitOptions
p3017
tp3018
I1
s(Vinsert
p3019
I42
VSimpleName: iterator
p3020
tp3021
I1
s(Vinsert
p3022
I74
VParameterizedType: HashSet<String>
p3023
tp3024
I1
s(Vinsert
p3025
I43
VSimpleType: TTransport
p3026
tp3027
I1
s(Vinsert
p3028
I42
VSimpleName: usedPorts
p3029
tp3030
I1
s(Vinsert
p3031
I42
VSimpleName: TreeMap
p3032
tp3033
I1
s(Vinsert
p3034
I42
VSimpleName: HashMap
p3035
tp3036
I23
s(Vinsert
p3037
I42
VSimpleName: conf
p3038
tp3039
I33
s(Vinsert
p3040
I42
VSimpleName: ITransportPlugin
p3041
tp3042
I1
s(Vinsert
p3043
I42
VSimpleName: delegate
p3044
tp3045
I3
s(Vinsert
p3046
I42
VSimpleName: getTxid
p3047
tp3048
I1
s(Vinsert
p3049
I83
VModifier: final
p3050
tp3051
I11
s(Vinsert
p3052
I42
VSimpleName: common
p3053
tp3054
I2
s(Vinsert
p3055
I42
VSimpleName: Coordinator
p3056
tp3057
I1
s(Vinsert
p3058
I42
VSimpleName: array
p3059
tp3060
I1
s(Vinsert
p3061
I42
VSimpleName: _strictOrder
p3062
tp3063
I1
s(Vinsert
p3064
I42
VSimpleName: taskToComponents
p3065
tp3066
I2
s(Vinsert
p3067
I83
VModifier: static
p3068
tp3069
I8
s(Vinsert
p3070
I42
VSimpleName: toString
p3071
tp3072
I12
s(Vinsert
p3073
I42
VSimpleName: _passTupleThrough
p3074
tp3075
I1
s(Vinsert
p3076
I42
VSimpleName: ReportedFailedException
p3077
tp3078
I1
s(Vinsert
p3079
I42
VSimpleName: _index
p3080
tp3081
I5
s(Vinsert
p3082
I42
VSimpleName: registerMetric
p3083
tp3084
I1
s(Vinsert
p3085
I42
VSimpleName: TransactionalOutputCollectorImpl
p3086
tp3087
I1
s(Vinsert
p3088
I42
VSimpleName: close
p3089
tp3090
I2
s(Vinsert
p3091
I42
VSimpleName: isInstance
p3092
tp3093
I1
s(Vinsert
p3094
I42
VSimpleName: num_executors
p3095
tp3096
I1
s(Vinsert
p3097
I74
VParameterizedType: ArrayList<TaskMessage>
p3098
tp3099
I1
s(Vinsert
p3100
I42
VSimpleName: readStormConfig
p3101
tp3102
I1
s(Vinsert
p3103
I42
VSimpleName: allocationsMap
p3104
tp3105
I2
s(Vinsert
p3106
I42
VSimpleName: contains
p3107
tp3108
I4
s(Vinsert
p3109
I42
VSimpleName: buildTopology
p3110
tp3111
I1
s(Vinsert
p3112
I40
VQualifiedName: stored.attempt
p3113
tp3114
I1
s(Vinsert
p3115
I37
VPostfixExpression: ++
p3116
tp3117
I13
s(Vinsert
p3118
I74
VParameterizedType: HashMap<String,Object>
p3119
tp3120
I6
s(Vinsert
p3121
I42
VSimpleName: backup
p3122
tp3123
I1
s(Vinsert
p3124
I42
VSimpleName: writeObject
p3125
tp3126
I4
s(Vinsert
p3127
I42
VSimpleName: _stream
p3128
tp3129
I3
s(Vinsert
p3130
I45
VStringLiteral: " with fully qualified name "
p3131
tp3132
I1
s(Vinsert
p3133
I42
VSimpleName: destroy
p3134
tp3135
I2
s(Vinsert
p3136
I45
VStringLiteral: "nathan"
p3137
tp3138
I1
s(Vinsert
p3139
I42
VSimpleName: ValuePointer
p3140
tp3141
I3
s(Vinsert
p3142
I42
VSimpleName: Time
p3143
tp3144
I1
s(Vinsert
p3145
I42
VSimpleName: publish
p3146
tp3147
I1
s(Vinsert
p3148
I42
VSimpleName: ProcessorContext
p3149
tp3150
I2
s(Vinsert
p3151
I42
VSimpleName: t2
p3152
tp3153
I2
s(Vinsert
p3154
I42
VSimpleName: confList
p3155
tp3156
I1
s(Vinsert
p3157
I42
VSimpleName: output
p3158
tp3159
I2
s(Vinsert
p3160
I42
VSimpleName: getResources
p3161
tp3162
I1
s(Vinsert
p3163
I42
VSimpleName: update
p3164
tp3165
I6
s(Vinsert
p3166
I43
VSimpleType: NameCallback
p3167
tp3168
I2
s(Vinsert
p3169
I40
VQualifiedName: ICommitterTransactionalSpout.ICommitterEmitter
p3170
tp3171
I1
s(Vinsert
p3172
I42
VSimpleName: _partitionStates
p3173
tp3174
I3
s(Vinsert
p3175
I42
VSimpleName: reducer
p3176
tp3177
I1
s(Vinsert
p3178
I42
VSimpleName: fetchRequest
p3179
tp3180
I2
s(Vinsert
p3181
I40
VQualifiedName: acc.sum
p3182
tp3183
I1
s(Vinsert
p3184
I42
VSimpleName: HashCodeBuilder
p3185
tp3186
I1
s(Vinsert
p3187
I42
VSimpleName: TTransportException
p3188
tp3189
I2
s(Vinsert
p3190
I43
VSimpleType: TopologyBuilder
p3191
tp3192
I1
s(Vinsert
p3193
I74
VParameterizedType: List<Integer>
p3194
tp3195
I1
s(Vinsert
p3196
I7
VAssignment: =
p3197
tp3198
I116
s(Vinsert
p3199
I42
VSimpleName: reconnect
p3200
tp3201
I1
s(Vinsert
p3202
I43
VSimpleType: IConnection
p3203
tp3204
I2
s(Vinsert
p3205
I42
VSimpleName: setProperty
p3206
tp3207
I1
s(Vinsert
p3208
I42
VSimpleName: AppConfigurationEntry
p3209
tp3210
I1
s(Vinsert
p3211
I42
VSimpleName: incomingGroups
p3212
tp3213
I3
s(Vinsert
p3214
I40
VQualifiedName: org.apache.thrift7.protocol.TMap
p3215
tp3216
I1
s(Vinsert
p3217
I42
VSimpleName: functionName
p3218
tp3219
I1
s(Vinsert
p3220
I43
VSimpleType: RetryNTimes
p3221
tp3222
I1
s(Vinsert
p3223
I42
VSimpleName: _activeTransactions
p3224
tp3225
I1
s(Vinsert
p3226
I42
VSimpleName: is_set_errors
p3227
tp3228
I2
s(Vinsert
p3229
I42
VSimpleName: cn
p3230
tp3231
I1
s(Vinsert
p3232
I45
VStringLiteral: "Coordinator got into a bad state: failed transaction "
p3233
tp3234
I1
s(Vinsert
p3235
I42
VSimpleName: Collection
p3236
tp3237
I7
s(Vinsert
p3238
I42
VSimpleName: removeState
p3239
tp3240
I1
s(Vinsert
p3241
I42
VSimpleName: hasMoreElements
p3242
tp3243
I1
s(Vinsert
p3244
I40
VQualifiedName: clojure.lang.Compiler
p3245
tp3246
I1
s(Vinsert
p3247
I45
VStringLiteral: "[req "
p3248
tp3249
I2
s(Vinsert
p3250
I43
VSimpleType: SpoutDeclarer
p3251
tp3252
I1
s(Vinsert
p3253
I42
VSimpleName: _first
p3254
tp3255
I1
s(Vinsert
p3256
I42
VSimpleName: FAILURE_RESPONSE
p3257
tp3258
I1
s(Vinsert
p3259
I74
VParameterizedType: List<Object>
p3260
tp3261
I20
s(Vinsert
p3262
I43
VSimpleType: TransactionalSpoutCoordinator
p3263
tp3264
I1
s(Vinsert
p3265
I43
VSimpleType: org.apache.thrift7.protocol.TMap
p3266
tp3267
I1
s(Vinsert
p3268
I42
VSimpleName: _buckets
p3269
tp3270
I1
s(Vinsert
p3271
I42
VSimpleName: intern
p3272
tp3273
I6
s(Vinsert
p3274
I40
VQualifiedName: field.id
p3275
tp3276
I1
s(Vinsert
p3277
I43
VSimpleType: Future
p3278
tp3279
I1
s(Vinsert
p3280
I42
VSimpleName: getValue
p3281
tp3282
I13
s(Vinsert
p3283
I42
VSimpleName: IFn
p3284
tp3285
I1
s(Vinsert
p3286
I43
VSimpleType: Channel
p3287
tp3288
I1
s(Vinsert
p3289
I42
VSimpleName: PersistentArrayMap
p3290
tp3291
I2
s(Vinsert
p3292
I40
VQualifiedName: SerializationFactory.SERIALIZATION_TOKEN_BOUNDARY
p3293
tp3294
I2
s(Vinsert
p3295
I42
VSimpleName: subdir
p3296
tp3297
I1
s(Vinsert
p3298
I42
VSimpleName: IdStreamSpec
p3299
tp3300
I2
s(Vinsert
p3301
I43
VSimpleType: StormTopology
p3302
tp3303
I1
s(Vinsert
p3304
I43
VSimpleType: AlreadyAliveException
p3305
tp3306
I1
s(Vinsert
p3307
I42
VSimpleName: tryNext
p3308
tp3309
I1
s(Vinsert
p3310
I42
VSimpleName: _ids
p3311
tp3312
I3
s(Vinsert
p3313
I42
VSimpleName: getDefaultName
p3314
tp3315
I1
s(Vinsert
p3316
I42
VSimpleName: partitionPersist
p3317
tp3318
I1
s(Vinsert
p3319
I42
VSimpleName: _useJavaSerialization
p3320
tp3321
I2
s(Vinsert
p3322
I8
VBlock
p3323
tp3324
I420
s(Vinsert
p3325
I42
VSimpleName: byName
p3326
tp3327
I1
s(Vinsert
p3328
I42
VSimpleName: portsPerSupervisor
p3329
tp3330
I1
s(Vinsert
p3331
I42
VSimpleName: ptr
p3332
tp3333
I1
s(Vinsert
p3334
I74
VParameterizedType: Collection<Group>
p3335
tp3336
I1
s(Vinsert
p3337
I42
VSimpleName: readVInt
p3338
tp3339
I1
s(Vinsert
p3340
I42
VSimpleName: getRuntime
p3341
tp3342
I1
s(Vinsert
p3343
I46
VSuperConstructorInvocation
p3344
tp3345
I3
s(Vinsert
p3346
I42
VSimpleName: key
p3347
tp3348
I8
s(Vinsert
p3349
I40
VQualifiedName: java.util.ArrayList
p3350
tp3351
I1
s(Vinsert
p3352
I42
VSimpleName: GlobalStreamId
p3353
tp3354
I4
s(Vinsert
p3355
I43
VSimpleType: CuratorFramework
p3356
tp3357
I1
s(Vinsert
p3358
I42
VSimpleName: isServing
p3359
tp3360
I2
s(Vinsert
p3361
I43
VSimpleType: IKryoDecorator
p3362
tp3363
I3
s(Vinsert
p3364
I42
VSimpleName: attempt
p3365
tp3366
I8
s(Vinsert
p3367
I43
VSimpleType: AppConfigurationEntry
p3368
tp3369
I1
s(Vinsert
p3370
I42
VSimpleName: KryoValuesSerializer
p3371
tp3372
I1
s(Vinsert
p3373
I42
VSimpleName: toGet
p3374
tp3375
I2
s(Vinsert
p3376
I5
VArrayType: byte[]
p3377
tp3378
I10
s(Vinsert
p3379
I42
VSimpleName: collector
p3380
tp3381
I37
s(Vinsert
p3382
I74
VParameterizedType: HashMap<Integer,String>
p3383
tp3384
I1
s(Vinsert
p3385
I43
VSimpleType: ValueUpdater
p3386
tp3387
I4
s(Vinsert
p3388
I40
VQualifiedName: ret.obj
p3389
tp3390
I2
s(Vinsert
p3391
I42
VSimpleName: Random
p3392
tp3393
I2
s(Vinsert
p3394
I42
VSimpleName: combined
p3395
tp3396
I1
s(Vinsert
p3397
I42
VSimpleName: outFields
p3398
tp3399
I1
s(Vinsert
p3400
I42
VSimpleName: IMetric
p3401
tp3402
I1
s(Vinsert
p3403
I43
VSimpleType: Bolt
p3404
tp3405
I2
s(Vinsert
p3406
I42
VSimpleName: _coordConditions
p3407
tp3408
I1
s(Vinsert
p3409
I42
VSimpleName: drainErrorStream
p3410
tp3411
I1
s(Vinsert
p3412
I43
VSimpleType: IllegalArgumentException
p3413
tp3414
I4
s(Vinsert
p3415
I42
VSimpleName: t
p3416
tp3417
I7
s(Vinsert
p3418
I40
VQualifiedName: bytes.length
p3419
tp3420
I1
s(Vinsert
p3421
I42
VSimpleName: protocolFactory
p3422
tp3423
I1
s(Vinsert
p3424
I42
VSimpleName: nextTuple
p3425
tp3426
I1
s(Vinsert
p3427
I42
VSimpleName: forName
p3428
tp3429
I1
s(Vinsert
p3430
I42
VSimpleName: ICommittable
p3431
tp3432
I1
s(Vinsert
p3433
I43
VSimpleType: Exception
p3434
tp3435
I6
s(Vinsert
p3436
I66
VTextElement: (3) configuration of targeted topology 
p3437
tp3438
I1
s(Vinsert
p3439
I42
VSimpleName: fields
p3440
tp3441
I6
s(Vinsert
p3442
I43
VSimpleType: GlobalStreamId
p3443
tp3444
I4
s(Vinsert
p3445
I66
VTextElement: Is ThriftServer listening to requests?
p3446
tp3447
I1
s(Vinsert
p3448
I42
VSimpleName: Executors
p3449
tp3450
I2
s(Vinsert
p3451
I43
VSimpleType: NioServerSocketChannelFactory
p3452
tp3453
I1
s(Vinsert
p3454
I42
VSimpleName: _manager
p3455
tp3456
I2
s(Vinsert
p3457
I39
VPrimitiveType: int
p3458
tp3459
I51
s(Vinsert
p3460
I42
VSimpleName: get
p3461
tp3462
I61
s(Vinsert
p3463
I42
VSimpleName: typedOther
p3464
tp3465
I1
s(Vinsert
p3466
I34
VNumberLiteral: 64
p3467
tp3468
I2
s(Vinsert
p3469
I44
VSingleVariableDeclaration
p3470
tp3471
I243
s(Vinsert
p3472
I42
VSimpleName: InputDeclarer
p3473
tp3474
I8
s(Vinsert
p3475
I42
VSimpleName: is_set_executed
p3476
tp3477
I2
s(Vinsert
p3478
I42
VSimpleName: m
p3479
tp3480
I1
s(Vinsert
p3481
I40
VQualifiedName: _idStreamSpec._passTupleThrough
p3482
tp3483
I1
s(Vinsert
p3484
I42
VSimpleName: IndifferentAccessMap
p3485
tp3486
I1
s(Vinsert
p3487
I43
VSimpleType: TransactionalSpoutSpec
p3488
tp3489
I1
s(Vinsert
p3490
I42
VSimpleName: OpaqueValue
p3491
tp3492
I2
s(Vinsert
p3493
I42
VSimpleName: toEmit
p3494
tp3495
I5
s(Vinsert
p3496
I42
VSimpleName: failed
p3497
tp3498
I1
s(Vinsert
p3499
I43
VSimpleType: EventHandler
p3500
tp3501
I1
s(Vinsert
p3502
I42
VSimpleName: ICombiner
p3503
tp3504
I1
s(Vinsert
p3505
I74
VParameterizedType: HashMap<String,SourceArgs>
p3506
tp3507
I3
s(Vinsert
p3508
I42
VSimpleName: getString
p3509
tp3510
I4
s(Vinsert
p3511
I42
VSimpleName: RegisteredGlobalState
p3512
tp3513
I2
s(Vinsert
p3514
I42
VSimpleName: _windowMillis
p3515
tp3516
I1
s(Vinsert
p3517
I43
VSimpleType: CaptureCollector
p3518
tp3519
I1
s(Vinsert
p3520
I42
VSimpleName: _curr
p3521
tp3522
I4
s(Vinsert
p3523
I41
VReturnStatement
p3524
tp3525
I109
s(Vinsert
p3526
I40
VQualifiedName: _idStreamSpec._id
p3527
tp3528
I1
s(Vinsert
p3529
I42
VSimpleName: URL
p3530
tp3531
I4
s(Vinsert
p3532
I5
VArrayType: String[]
p3533
tp3534
I1
s(Vinsert
p3535
I42
VSimpleName: argument
p3536
tp3537
I1
s(Vinsert
p3538
I42
VSimpleName: TaskHook
p3539
tp3540
I2
s(Vinsert
p3541
I66
VTextElement: (2) operation
p3542
tp3543
I2
s(Vinsert
p3544
I42
VSimpleName: root
p3545
tp3546
I1
s(Vinsert
p3547
I27
VInfixExpression: <
p3548
tp3549
I20
s(Vinsert
p3550
I42
VSimpleName: permit
p3551
tp3552
I2
s(Vinsert
p3553
I42
VSimpleName: readClassAndObject
p3554
tp3555
I1
s(Vinsert
p3556
I42
VSimpleName: run
p3557
tp3558
I2
s(Vinsert
p3559
I42
VSimpleName: id
p3560
tp3561
I26
s(Vinsert
p3562
I42
VSimpleName: acquire
p3563
tp3564
I3
s(Vinsert
p3565
I42
VSimpleName: is_set_transactional_spouts
p3566
tp3567
I2
s(Vinsert
p3568
I74
VParameterizedType: Map<Object,Object>
p3569
tp3570
I1
s(Vinsert
p3571
I42
VSimpleName: BatchOutputCollector
p3572
tp3573
I3
s(Vinsert
p3574
I42
VSimpleName: Future
p3575
tp3576
I1
s(Vinsert
p3577
I43
VSimpleType: IBatchID
p3578
tp3579
I1
s(Vinsert
p3580
I45
VStringLiteral: "storm.conf.file"
p3581
tp3582
I1
s(Vinsert
p3583
I42
VSimpleName: JavaObject
p3584
tp3585
I3
s(Vinsert
p3586
I42
VSimpleName: complete
p3587
tp3588
I1
s(Vinsert
p3589
I42
VSimpleName: assignments
p3590
tp3591
I6
s(Vinsert
p3592
I42
VSimpleName: _coordinator
p3593
tp3594
I1
s(Vinsert
p3595
I42
VSimpleName: _buffer
p3596
tp3597
I1
s(Vinsert
p3598
I43
VSimpleType: TransactionalOutputCollectorImpl
p3599
tp3600
I1
s(Vinsert
p3601
I42
VSimpleName: maxAmt
p3602
tp3603
I1
s(Vinsert
p3604
I4
VArrayInitializer
p3605
tp3606
I2
s(Vinsert
p3607
I42
VSimpleName: declare
p3608
tp3609
I12
s(Vinsert
p3610
I42
VSimpleName: equals
p3611
tp3612
I25
s(Vinsert
p3613
I40
VQualifiedName: Config.STORM_ZOOKEEPER_SESSION_TIMEOUT
p3614
tp3615
I1
s(Vinsert
p3616
I42
VSimpleName: haltWithInterrupt
p3617
tp3618
I1
s(Vinsert
p3619
I12
VCatchClause
p3620
tp3621
I13
s(Vinsert
p3622
I42
VSimpleName: Input
p3623
tp3624
I4
s(Vinsert
p3625
I42
VSimpleName: defaultWriteObject
p3626
tp3627
I1
s(Vinsert
p3628
I42
VSimpleName: getComponentId
p3629
tp3630
I2
s(Vinsert
p3631
I42
VSimpleName: _id
p3632
tp3633
I3
s(Vinsert
p3634
I42
VSimpleName: _kryo
p3635
tp3636
I5
s(Vinsert
p3637
I42
VSimpleName: charAt
p3638
tp3639
I1
s(Vinsert
p3640
I42
VSimpleName: _bolt
p3641
tp3642
I5
s(Vinsert
p3643
I43
VSimpleType: Login
p3644
tp3645
I1
s(Vinsert
p3646
I42
VSimpleName: initializeTransaction
p3647
tp3648
I1
s(Vinsert
p3649
I42
VSimpleName: configurationEntries
p3650
tp3651
I1
s(Vinsert
p3652
I42
VSimpleName: _processor
p3653
tp3654
I1
s(Vinsert
p3655
I42
VSimpleName: Configuration
p3656
tp3657
I3
s(Vinsert
p3658
I42
VSimpleName: requestID
p3659
tp3660
I2
s(Vinsert
p3661
I42
VSimpleName: b
p3662
tp3663
I4
s(Vinsert
p3664
I42
VSimpleName: addServerDefinition
p3665
tp3666
I2
s(Vinsert
p3667
I42
VSimpleName: _topoContext
p3668
tp3669
I2
s(Vinsert
p3670
I42
VSimpleName: subject
p3671
tp3672
I1
s(Vinsert
p3673
I42
VSimpleName: get_java_object
p3674
tp3675
I1
s(Vinsert
p3676
I42
VSimpleName: _projectionFactories
p3677
tp3678
I1
s(Vinsert
p3679
I43
VSimpleType: Config
p3680
tp3681
I4
s(Vinsert
p3682
I42
VSimpleName: obj
p3683
tp3684
I3
s(Vinsert
p3685
I40
VQualifiedName: STRING_ARG_FIELD_DESC.type
p3686
tp3687
I1
s(Vinsert
p3688
I42
VSimpleName: maxBatchSize
p3689
tp3690
I1
s(Vinsert
p3691
I43
VSimpleType: SortedMap
p3692
tp3693
I1
s(Vinsert
p3694
I42
VSimpleName: nextElement
p3695
tp3696
I1
s(Vinsert
p3697
I42
VSimpleName: captured
p3698
tp3699
I1
s(Vinsert
p3700
I42
VSimpleName: _activeTx
p3701
tp3702
I2
s(Vinsert
p3703
I42
VSimpleName: _pidDir
p3704
tp3705
I1
s(Vinsert
p3706
I43
VSimpleType: OpaqueValue
p3707
tp3708
I2
s(Vinsert
p3709
I42
VSimpleName: _key119
p3710
tp3711
I2
s(Vinsert
p3712
I42
VSimpleName: getRawTopology
p3713
tp3714
I2
s(Vinsert
p3715
I42
VSimpleName: bucketSize
p3716
tp3717
I1
s(Vinsert
p3718
I42
VSimpleName: snapshot
p3719
tp3720
I1
s(Vinsert
p3721
I42
VSimpleName: workerTasks
p3722
tp3723
I2
s(Vinsert
p3724
I42
VSimpleName: singleEmit
p3725
tp3726
I1
s(Vinsert
p3727
I43
VSimpleType: Node
p3728
tp3729
I2
s(Vinsert
p3730
I43
VSimpleType: Fields
p3731
tp3732
I9
s(Vinsert
p3733
I42
VSimpleName: prevCached
p3734
tp3735
I2
s(Vinsert
p3736
I42
VSimpleName: deserialize
p3737
tp3738
I6
s(Vinsert
p3739
I43
VSimpleType: TridentTuple
p3740
tp3741
I20
s(Vinsert
p3742
I42
VSimpleName: inputFields
p3743
tp3744
I3
s(Vinsert
p3745
I42
VSimpleName: supervisor
p3746
tp3747
I1
s(Vinsert
p3748
I74
VParameterizedType: SortedMap<Long,Object>
p3749
tp3750
I1
s(Vinsert
p3751
I42
VSimpleName: executors
p3752
tp3753
I6
s(Vinsert
p3754
I40
VQualifiedName: TBinaryProtocol.Factory
p3755
tp3756
I1
s(Vinsert
p3757
I42
VSimpleName: getConfig
p3758
tp3759
I1
s(Vinsert
p3760
I42
VSimpleName: AbstractMethodError
p3761
tp3762
I1
s(Vinsert
p3763
I42
VSimpleName: spout
p3764
tp3765
I1
s(Vinsert
p3766
I74
VParameterizedType: ArrayList<Integer>
p3767
tp3768
I4
s(Vinsert
p3769
I42
VSimpleName: cleanupTransaction
p3770
tp3771
I1
s(Vinsert
p3772
I42
VSimpleName: msg
p3773
tp3774
I2
s(Vinsert
p3775
I43
VSimpleType: JavaObject
p3776
tp3777
I3
s(Vinsert
p3778
I42
VSimpleName: overrideState
p3779
tp3780
I1
s(Vinsert
p3781
I42
VSimpleName: cause
p3782
tp3783
I1
s(Vinsert
p3784
I42
VSimpleName: RuntimeException
p3785
tp3786
I10
s(Vinsert
p3787
I42
VSimpleName: checkFinish
p3788
tp3789
I1
s(Vinsert
p3790
I42
VSimpleName: getCause
p3791
tp3792
I2
s(Vinsert
p3793
I42
VSimpleName: retries
p3794
tp3795
I2
s(Vinsert
p3796
I42
VSimpleName: TridentUtils
p3797
tp3798
I3
s(Vinsert
p3799
I42
VSimpleName: requestId
p3800
tp3801
I2
s(Vinsert
p3802
I42
VSimpleName: querySubprocess
p3803
tp3804
I1
s(Vinsert
p3805
I42
VSimpleName: reflectionToString
p3806
tp3807
I2
s(Vinsert
p3808
I40
VQualifiedName: java.util.HashMap
p3809
tp3810
I1
s(Vinsert
p3811
I42
VSimpleName: source
p3812
tp3813
I2
s(Vinsert
p3814
I42
VSimpleName: _componentToTasks
p3815
tp3816
I2
s(Vinsert
p3817
I42
VSimpleName: _combiner
p3818
tp3819
I2
s(Vinsert
p3820
I42
VSimpleName: setNumWorkers
p3821
tp3822
I1
s(Vinsert
p3823
I42
VSimpleName: SaslException
p3824
tp3825
I1
s(Vinsert
p3826
I45
VStringLiteral: "Could not instantiate a class listed in config under section "
p3827
tp3828
I1
s(Vinsert
p3829
I42
VSimpleName: _fieldName
p3830
tp3831
I1
s(Vinsert
p3832
I42
VSimpleName: rp
p3833
tp3834
I1
s(Vinsert
p3835
I42
VSimpleName: payload
p3836
tp3837
I4
s(Vinsert
p3838
I42
VSimpleName: ITupleCollection
p3839
tp3840
I1
s(Vinsert
p3841
I40
VQualifiedName: backtype.storm.generated.DistributedRPC
p3842
tp3843
I1
s(Vinsert
p3844
I43
VSimpleType: DataOutputStream
p3845
tp3846
I2
s(Vinsert
p3847
I42
VSimpleName: StormServerPipelineFactory
p3848
tp3849
I1
s(Vinsert
p3850
I23
VFieldDeclaration
p3851
tp3852
I7
s(Vinsert
p3853
I45
VStringLiteral: "need_task_ids"
p3854
tp3855
I2
s(Vinsert
p3856
I42
VSimpleName: Entry
p3857
tp3858
I2
s(Vinsert
p3859
I42
VSimpleName: returnInfo
p3860
tp3861
I1
s(Vinsert
p3862
I42
VSimpleName: HashSet
p3863
tp3864
I4
s(Vinsert
p3865
I42
VSimpleName: m2
p3866
tp3867
I1
s(Vinsert
p3868
I43
VSimpleType: NimbusClient
p3869
tp3870
I1
s(Vinsert
p3871
I42
VSimpleName: first
p3872
tp3873
I1
s(Vinsert
p3874
I42
VSimpleName: topologies
p3875
tp3876
I2
s(Vinsert
p3877
I62
VInstanceofExpression
p3878
tp3879
I19
s(Vinsert
p3880
I45
VStringLiteral: ">"
p3881
tp3882
I1
s(Vinsert
p3883
I42
VSimpleName: newKeys
p3884
tp3885
I1
s(Vinsert
p3886
I42
VSimpleName: getAssignmentById
p3887
tp3888
I1
s(Vinsert
p3889
I40
VQualifiedName: StormTopology._Fields
p3890
tp3891
I2
s(Vinsert
p3892
I42
VSimpleName: keys
p3893
tp3894
I5
s(Vinsert
p3895
I42
VSimpleName: _numTasks
p3896
tp3897
I2
s(Vinsert
p3898
I42
VSimpleName: batchId
p3899
tp3900
I3
s(Vinsert
p3901
I76
VWildcardType: ? extends IKryoFactory
p3902
tp3903
I1
s(Vinsert
p3904
I34
VNumberLiteral: 2
p3905
tp3906
I2
s(Vinsert
p3907
I42
VSimpleName: submitTopologyWithOpts_args
p3908
tp3909
I2
s(Vinsert
p3910
I43
VSimpleType: Random
p3911
tp3912
I2
s(Vinsert
p3913
I74
VParameterizedType: Future<String>
p3914
tp3915
I1
s(Vinsert
p3916
I42
VSimpleName: buildTopologyBuilder
p3917
tp3918
I1
s(Vinsert
p3919
I42
VSimpleName: batchTxid
p3920
tp3921
I3
s(Vinsert
p3922
I43
VSimpleType: ByteBuffer
p3923
tp3924
I4
s(Vinsert
p3925
I42
VSimpleName: _updater
p3926
tp3927
I1
s(Vinsert
p3928
I65
VTagElement: @return
p3929
tp3930
I3
s(Vinsert
p3931
I42
VSimpleName: AtomicInteger
p3932
tp3933
I2
s(Vinsert
p3934
I42
VSimpleName: InsufficientCapacityException
p3935
tp3936
I1
s(Vinsert
p3937
I42
VSimpleName: ZookeeperAuthInfo
p3938
tp3939
I1
s(Vinsert
p3940
I42
VSimpleName: getSlots
p3941
tp3942
I1
s(Vinsert
p3943
I42
VSimpleName: out
p3944
tp3945
I4
s(Vinsert
p3946
I42
VSimpleName: data
p3947
tp3948
I3
s(Vinsert
p3949
I40
VQualifiedName: Config.TOPOLOGY_KRYO_FACTORY
p3950
tp3951
I1
s(Vinsert
p3952
I31
VMethodDeclaration
p3953
tp3954
I64
s(Vinsert
p3955
I42
VSimpleName: ackedAmt
p3956
tp3957
I2
s(Vinsert
p3958
I42
VSimpleName: val
p3959
tp3960
I19
s(Vinsert
p3961
I27
VInfixExpression: *
p3962
tp3963
I2
s(Vinsert
p3964
I42
VSimpleName: getCurr
p3965
tp3966
I1
s(Vinsert
p3967
I42
VSimpleName: addConfiguration
p3968
tp3969
I1
s(Vinsert
p3970
I39
VPrimitiveType: void
p3971
tp3972
I50
s(Vinsert
p3973
I42
VSimpleName: _registeredMetrics
p3974
tp3975
I1
s(Vinsert
p3976
I42
VSimpleName: _subject
p3977
tp3978
I1
s(Vinsert
p3979
I42
VSimpleName: callbacks
p3980
tp3981
I1
s(Vinsert
p3982
I43
VSimpleType: WorkerSlot
p3983
tp3984
I9
s(Vinsert
p3985
I42
VSimpleName: setRegistrationRequired
p3986
tp3987
I1
s(Vinsert
p3988
I42
VSimpleName: input
p3989
tp3990
I16
s(Vinsert
p3991
I45
VStringLiteral: "UTF-8"
p3992
tp3993
I2
s(Vinsert
p3994
I42
VSimpleName: registerSerialization
p3995
tp3996
I1
s(Vinsert
p3997
I42
VSimpleName: wrapper
p3998
tp3999
I2
s(Vinsert
p4000
I42
VSimpleName: _consumerClassName
p4001
tp4002
I1
s(Vinsert
p4003
I42
VSimpleName: getFinishedStatuses
p4004
tp4005
I1
s(Vinsert
p4006
I27
VInfixExpression: !=
p4007
tp4008
I33
s(Vinsert
p4009
I42
VSimpleName: KryoValuesDeserializer
p4010
tp4011
I1
s(Vinsert
p4012
I42
VSimpleName: ChannelBuffers
p4013
tp4014
I2
s(Vinsert
p4015
I42
VSimpleName: ame
p4016
tp4017
I1
s(Vinsert
p4018
I42
VSimpleName: TTransport
p4019
tp4020
I1
s(Vinsert
p4021
I39
VPrimitiveType: boolean
p4022
tp4023
I24
s(Vinsert
p4024
I42
VSimpleName: hashCode
p4025
tp4026
I7
s(Vinsert
p4027
I42
VSimpleName: setBuffer
p4028
tp4029
I2
s(Vinsert
p4030
I42
VSimpleName: topology_storm
p4031
tp4032
I2
s(Vinsert
p4033
I42
VSimpleName: numPartitions
p4034
tp4035
I3
s(Vinsert
p4036
I42
VSimpleName: wrap
p4037
tp4038
I3
s(Vinsert
p4039
I42
VSimpleName: setDelegate
p4040
tp4041
I1
s(Vinsert
p4042
I42
VSimpleName: replaceAll
p4043
tp4044
I1
s(Vinsert
p4045
I42
VSimpleName: this_present_errors
p4046
tp4047
I1
s(Vinsert
p4048
I42
VSimpleName: _value
p4049
tp4050
I5
s(Vinsert
p4051
I42
VSimpleName: cleanup
p4052
tp4053
I5
s(Vinsert
p4054
I42
VSimpleName: writeClassAndObject
p4055
tp4056
I1
s(Vinsert
p4057
I42
VSimpleName: _factories
p4058
tp4059
I1
s(Vinsert
p4060
I42
VSimpleName: keepVersions
p4061
tp4062
I1
s(Vinsert
p4063
I42
VSimpleName: declareStream
p4064
tp4065
I1
s(Vinsert
p4066
I42
VSimpleName: socket
p4067
tp4068
I3
s(Vinsert
p4069
I74
VParameterizedType: List<RetVal<T>>
p4070
tp4071
I1
s(Vinsert
p4072
I59
VVariableDeclarationFragment
p4073
tp4074
I243
s(Vinsert
p4075
I42
VSimpleName: _accumulator
p4076
tp4077
I1
s(Vinsert
p4078
I42
VSimpleName: executor_info
p4079
tp4080
I1
s(Vinsert
p4081
I42
VSimpleName: Utils
p4082
tp4083
I8
s(Vinsert
p4084
I42
VSimpleName: bos
p4085
tp4086
I1
s(Vinsert
p4087
I42
VSimpleName: loadClojureFn
p4088
tp4089
I3
s(Vinsert
p4090
I42
VSimpleName: IAnchorableImpl
p4091
tp4092
I1
s(Vinsert
p4093
I42
VSimpleName: p
p4094
tp4095
I2
s(Vinsert
p4096
I42
VSimpleName: hosts
p4097
tp4098
I2
s(Vinsert
p4099
I42
VSimpleName: CombinedMetric
p4100
tp4101
I1
s(Vinsert
p4102
I43
VSimpleType: ICombiner
p4103
tp4104
I1
s(Vinsert
p4105
I42
VSimpleName: writeInt
p4106
tp4107
I2
s(Vinsert
p4108
I42
VSimpleName: _savedCoordinatorMeta
p4109
tp4110
I1
s(Vinsert
p4111
I42
VSimpleName: allGrouping
p4112
tp4113
I2
s(Vinsert
p4114
I42
VSimpleName: eval
p4115
tp4116
I1
s(Vinsert
p4117
I42
VSimpleName: getClient
p4118
tp4119
I2
s(Vinsert
p4120
I42
VSimpleName: allFields
p4121
tp4122
I1
s(Vinsert
p4123
I51
VSynchronizedStatement
p4124
tp4125
I4
s(Vinsert
p4126
I42
VSimpleName: Timer
p4127
tp4128
I2
s(Vinsert
p4129
I42
VSimpleName: i
p4130
tp4131
I62
s(Vinsert
p4132
I42
VSimpleName: KryoFactory
p4133
tp4134
I2
s(Vinsert
p4135
I42
VSimpleName: feed
p4136
tp4137
I1
s(Vinsert
p4138
I42
VSimpleName: AlreadyAliveException
p4139
tp4140
I1
s(Vinsert
p4141
I42
VSimpleName: timeoutStr
p4142
tp4143
I1
s(Vinsert
p4144
I42
VSimpleName: isFailed
p4145
tp4146
I1
s(Vinsert
p4147
I42
VSimpleName: StreamInfo
p4148
tp4149
I2
s(Vinsert
p4150
I42
VSimpleName: event
p4151
tp4152
I1
s(Vinsert
p4153
I42
VSimpleName: bin
p4154
tp4155
I1
s(Vinsert
p4156
I42
VSimpleName: payloadSerializerName
p4157
tp4158
I1
s(Vinsert
p4159
I42
VSimpleName: cacheSize
p4160
tp4161
I1
s(Vinsert
p4162
I74
VParameterizedType: RetVal<T>
p4163
tp4164
I1
s(Vinsert
p4165
I42
VSimpleName: currentTimeMillis
p4166
tp4167
I5
s(Vinsert
p4168
I43
VSimpleType: V
p4169
tp4170
I2
s(Vinsert
p4171
I42
VSimpleName: globalGrouping
p4172
tp4173
I2
s(Vinsert
p4174
I42
VSimpleName: getAttemptId
p4175
tp4176
I2
s(Vinsert
p4177
I43
VSimpleType: HashCodeBuilder
p4178
tp4179
I1
s(Vinsert
p4180
I42
VSimpleName: FinishCondition
p4181
tp4182
I1
s(Vinsert
p4183
I42
VSimpleName: RichSpoutBatchId
p4184
tp4185
I1
s(Vinsert
p4186
I42
VSimpleName: requests
p4187
tp4188
I2
s(Vinsert
p4189
I42
VSimpleName: _delegate
p4190
tp4191
I23
s(Vinsert
p4192
I43
VSimpleType: CuratorFrameworkFactory.Builder
p4193
tp4194
I1
s(Vinsert
p4195
I42
VSimpleName: options
p4196
tp4197
I1
s(Vinsert
p4198
I43
VSimpleType: TaskHook
p4199
tp4200
I2
s(Vinsert
p4201
I42
VSimpleName: getProperty
p4202
tp4203
I1
s(Vinsert
p4204
I42
VSimpleName: lastPartitionMeta
p4205
tp4206
I1
s(Vinsert
p4207
I43
VSimpleType: SchedulerAssignment
p4208
tp4209
I5
s(Vinsert
p4210
I42
VSimpleName: committerBatches
p4211
tp4212
I2
s(Vinsert
p4213
I42
VSimpleName: streamToFields
p4214
tp4215
I2
s(Vinsert
p4216
I43
VSimpleType: TTransportException
p4217
tp4218
I2
s(Vinsert
p4219
I42
VSimpleName: ControlMessage
p4220
tp4221
I3
s(Vinsert
p4222
I74
VParameterizedType: HashMap<String,String>
p4223
tp4224
I1
s(Vinsert
p4225
I42
VSimpleName: _initializer
p4226
tp4227
I2
s(Vinsert
p4228
I42
VSimpleName: _reducer
p4229
tp4230
I1
s(Vinsert
p4231
I45
VStringLiteral: "Already complete!"
p4232
tp4233
I1
s(Vinsert
p4234
I42
VSimpleName: SYSTEM_TASK_ID
p4235
tp4236
I1
s(Vinsert
p4237
I42
VSimpleName: add
p4238
tp4239
I31
s(Vinsert
p4240
I42
VSimpleName: assertEquals
p4241
tp4242
I1
s(Vinsert
p4243
I43
VSimpleType: KillOptions
p4244
tp4245
I1
s(Vinsert
p4246
I42
VSimpleName: res
p4247
tp4248
I1
s(Vinsert
p4249
I42
VSimpleName: idComponent
p4250
tp4251
I2
s(Vinsert
p4252
I42
VSimpleName: readableBytes
p4253
tp4254
I1
s(Vinsert
p4255
I42
VSimpleName: TASK_END
p4256
tp4257
I1
s(Vinsert
p4258
I42
VSimpleName: availableSequence
p4259
tp4260
I1
s(Vinsert
p4261
I42
VSimpleName: getDelegate
p4262
tp4263
I1
s(Vinsert
p4264
I42
VSimpleName: get_streams
p4265
tp4266
I1
s(Vinsert
p4267
I42
VSimpleName: getBytes
p4268
tp4269
I3
s(Vinsert
p4270
I42
VSimpleName: coordinatorMeta
p4271
tp4272
I2
s(Vinsert
p4273
I43
VSimpleType: BasicBoltExecutor
p4274
tp4275
I1
s(Vinsert
p4276
I42
VSimpleName: stored
p4277
tp4278
I3
s(Vinsert
p4279
I42
VSimpleName: StringBuffer
p4280
tp4281
I4
s(Vinsert
p4282
I42
VSimpleName: freeSlot
p4283
tp4284
I1
s(Vinsert
p4285
I42
VSimpleName: this_present_status
p4286
tp4287
I2
s(Vinsert
p4288
I42
VSimpleName: NimbusClient
p4289
tp4290
I2
s(Vinsert
p4291
I27
VInfixExpression: &&
p4292
tp4293
I38
s(Vinsert
p4294
I42
VSimpleName: setObject
p4295
tp4296
I1
s(Vinsert
p4297
I42
VSimpleName: combiner
p4298
tp4299
I2
s(Vinsert
p4300
I42
VSimpleName: cursor
p4301
tp4302
I1
s(Vinsert
p4303
I42
VSimpleName: KryoSerializableDefault
p4304
tp4305
I2
s(Vinsert
p4306
I42
VSimpleName: _trackId
p4307
tp4308
I1
s(Vinsert
p4309
I40
VQualifiedName: outputs.length
p4310
tp4311
I1
s(Vinsert
p4312
I42
VSimpleName: _txid
p4313
tp4314
I1
s(Vinsert
p4315
I42
VSimpleName: sequence
p4316
tp4317
I1
s(Vinsert
p4318
I42
VSimpleName: anchors
p4319
tp4320
I2
s(Vinsert
p4321
I42
VSimpleName: chainedAgg
p4322
tp4323
I1
s(Vinsert
p4324
I42
VSimpleName: ack
p4325
tp4326
I5
s(Vinsert
p4327
I66
VTextElement: Returns true if this contains the specified name of the field.
p4328
tp4329
I1
s(Vinsert
p4330
I42
VSimpleName: min
p4331
tp4332
I2
s(Vinsert
p4333
I27
VInfixExpression: <=
p4334
tp4335
I1
s(Vinsert
p4336
I42
VSimpleName: zero
p4337
tp4338
I1
s(Vinsert
p4339
I42
VSimpleName: ProjectionFactory
p4340
tp4341
I7
s(Vinsert
p4342
I42
VSimpleName: serializerClass
p4343
tp4344
I1
s(Vinsert
p4345
I42
VSimpleName: arg
p4346
tp4347
I1
s(Vinsert
p4348
I42
VSimpleName: isReady
p4349
tp4350
I2
s(Vinsert
p4351
I42
VSimpleName: InterruptedException
p4352
tp4353
I1
s(Vinsert
p4354
I42
VSimpleName: _emitter
p4355
tp4356
I4
s(Vinsert
p4357
I42
VSimpleName: _idComponent
p4358
tp4359
I1
s(Vinsert
p4360
I42
VSimpleName: registerClojureCollections
p4361
tp4362
I1
s(Vinsert
p4363
I42
VSimpleName: debug
p4364
tp4365
I7
s(Vinsert
p4366
I42
VSimpleName: tx
p4367
tp4368
I7
s(Vinsert
p4369
I74
VParameterizedType: TreeMap<Integer,Integer>
p4370
tp4371
I1
s(Vinsert
p4372
I42
VSimpleName: trackId
p4373
tp4374
I1
s(Vinsert
p4375
I42
VSimpleName: ctx
p4376
tp4377
I1
s(Vinsert
p4378
I42
VSimpleName: IKryoFactory
p4379
tp4380
I1
s(Vinsert
p4381
I40
VQualifiedName: state.returnInfo
p4382
tp4383
I1
s(Vinsert
p4384
I42
VSimpleName: line
p4385
tp4386
I1
s(Vinsert
p4387
I42
VSimpleName: _finishConditions
p4388
tp4389
I1
s(Vinsert
p4390
I42
VSimpleName: getCursor
p4391
tp4392
I1
s(Vinsert
p4393
I42
VSimpleName: timer
p4394
tp4395
I2
s(Vinsert
p4396
I42
VSimpleName: word
p4397
tp4398
I3
s(Vinsert
p4399
I34
VNumberLiteral: 13
p4400
tp4401
I1
s(Vinsert
p4402
I65
VTagElement: @throws
p4403
tp4404
I1
s(Vinsert
p4405
I21
VExpressionStatement
p4406
tp4407
I320
s(Vinsert
p4408
I72
VEnumConstantDeclaration
p4409
tp4410
I2
s(Vinsert
p4411
I42
VSimpleName: getStateOrCreate
p4412
tp4413
I1
s(Vinsert
p4414
I42
VSimpleName: maxTopologyMessageTimeout
p4415
tp4416
I1
s(Vinsert
p4417
I42
VSimpleName: fetchedVals
p4418
tp4419
I1
s(Vinsert
p4420
I42
VSimpleName: scheduleAtFixedRate
p4421
tp4422
I1
s(Vinsert
p4423
I40
VQualifiedName: _component.componentConfs
p4424
tp4425
I1
s(Vinsert
p4426
I42
VSimpleName: ID_STREAM
p4427
tp4428
I2
s(Vinsert
p4429
I42
VSimpleName: _cachedMetas
p4430
tp4431
I2
s(Vinsert
p4432
I42
VSimpleName: incrementAndGet
p4433
tp4434
I1
s(Vinsert
p4435
I5
VArrayType: ValuePointer[]
p4436
tp4437
I3
s(Vinsert
p4438
I43
VSimpleType: ISpoutPartition
p4439
tp4440
I2
s(Vinsert
p4441
I43
VSimpleType: ITupleCollection
p4442
tp4443
I1
s(Vinsert
p4444
I43
VSimpleType: URI
p4445
tp4446
I1
s(Vinsert
p4447
I40
VQualifiedName: ptr.listIndex
p4448
tp4449
I1
s(Vinsert
p4450
I43
VSimpleType: StreamInfo
p4451
tp4452
I2
s(Vinsert
p4453
I43
VSimpleType: Comparable
p4454
tp4455
I2
s(Vinsert
p4456
I5
VArrayType: ProjectionFactory[]
p4457
tp4458
I1
s(Vinsert
p4459
I42
VSimpleName: asList
p4460
tp4461
I4
s(Vinsert
p4462
I42
VSimpleName: allOutputFields
p4463
tp4464
I1
s(Vinsert
p4465
I42
VSimpleName: _dbs
p4466
tp4467
I2
s(Vinsert
p4468
I45
VStringLiteral: ") is behind state's batch: "
p4469
tp4470
I1
s(Vinsert
p4471
I42
VSimpleName: Fields
p4472
tp4473
I9
s(Vinsert
p4474
I34
VNumberLiteral: 6
p4475
tp4476
I3
s(Vinsert
p4477
I42
VSimpleName: getRegisteredKryoDecorators
p4478
tp4479
I1
s(Vinsert
p4480
I42
VSimpleName: _fields
p4481
tp4482
I1
s(Vinsert
p4483
I45
VStringLiteral: "No output fields defined for component:stream "
p4484
tp4485
I1
s(Vinsert
p4486
I42
VSimpleName: Keyword
p4487
tp4488
I9
s(Vinsert
p4489
I42
VSimpleName: unassignByExecutors
p4490
tp4491
I1
s(Vinsert
p4492
I42
VSimpleName: IAnchorable
p4493
tp4494
I2
s(Vinsert
p4495
I42
VSimpleName: deserializeObject
p4496
tp4497
I1
s(Vinsert
p4498
I42
VSimpleName: l
p4499
tp4500
I4
s(Vinsert
p4501
I42
VSimpleName: partitionAggregate
p4502
tp4503
I2
s(Vinsert
p4504
I42
VSimpleName: write
p4505
tp4506
I2
s(Vinsert
p4507
I42
VSimpleName: KillOptions
p4508
tp4509
I1
s(Vinsert
p4510
I42
VSimpleName: service
p4511
tp4512
I1
s(Vinsert
p4513
I40
VQualifiedName: Config.TOPOLOGY_FALL_BACK_ON_JAVA_SERIALIZATION
p4514
tp4515
I1
s(Vinsert
p4516
I42
VSimpleName: Logger
p4517
tp4518
I3
s(Vinsert
p4519
I42
VSimpleName: is_set_ite
p4520
tp4521
I2
s(Vinsert
p4522
I42
VSimpleName: _inputFactories
p4523
tp4524
I1
s(Vinsert
p4525
I43
VSimpleType: Long
p4526
tp4527
I4
s(Vinsert
p4528
I42
VSimpleName: klassName
p4529
tp4530
I1
s(Vinsert
p4531
I42
VSimpleName: _val116
p4532
tp4533
I1
s(Vinsert
p4534
I42
VSimpleName: isFull
p4535
tp4536
I1
s(Vinsert
p4537
I42
VSimpleName: _curator
p4538
tp4539
I1
s(Vinsert
p4540
I42
VSimpleName: transport_plugin_klassName
p4541
tp4542
I1
s(Vinsert
p4543
I45
VStringLiteral: "local"
p4544
tp4545
I1
s(Vinsert
p4546
I42
VSimpleName: StormTopology
p4547
tp4548
I1
s(Vinsert
p4549
I42
VSimpleName: deser
p4550
tp4551
I2
s(Vinsert
p4552
I42
VSimpleName: FinishedCallback
p4553
tp4554
I3
s(Vinsert
p4555
I42
VSimpleName: context
p4556
tp4557
I16
s(Vinsert
p4558
I43
VSimpleType: ListDelegateSerializer
p4559
tp4560
I1
s(Vinsert
p4561
I42
VSimpleName: batches
p4562
tp4563
I1
s(Vinsert
p4564
I42
VSimpleName: markReaderIndex
p4565
tp4566
I1
s(Vinsert
p4567
I42
VSimpleName: EventHandler
p4568
tp4569
I1
s(Vinsert
p4570
I42
VSimpleName: _collector
p4571
tp4572
I17
s(Vinsert
p4573
I42
VSimpleName: setAnchor
p4574
tp4575
I1
s(Vinsert
p4576
I43
VSimpleType: Timer
p4577
tp4578
I2
s(Vinsert
p4579
I43
VSimpleType: IAnchorable
p4580
tp4581
I2
s(Vinsert
p4582
I42
VSimpleName: now
p4583
tp4584
I1
s(Vinsert
p4585
I42
VSimpleName: LOG
p4586
tp4587
I24
s(Vinsert
p4588
I42
VSimpleName: port
p4589
tp4590
I10
s(Vinsert
p4591
I42
VSimpleName: _metricsConsumer
p4592
tp4593
I1
s(Vinsert
p4594
I42
VSimpleName: is_set_e
p4595
tp4596
I1
s(Vinsert
p4597
I40
VQualifiedName: com.esotericsoftware.minlog.Log
p4598
tp4599
I1
s(Vinsert
p4600
I42
VSimpleName: build
p4601
tp4602
I2
s(Vinsert
p4603
I42
VSimpleName: _userResources
p4604
tp4605
I2
s(Vinsert
p4606
I42
VSimpleName: _lastRotate
p4607
tp4608
I2
s(Vinsert
p4609
I42
VSimpleName: getCoordinator
p4610
tp4611
I1
s(Vinsert
p4612
I42
VSimpleName: ReadOnlyMapState
p4613
tp4614
I1
s(Vinsert
p4615
I43
VSimpleType: BasicOutputCollector
p4616
tp4617
I4
s(Vinsert
p4618
I42
VSimpleName: local
p4619
tp4620
I1
s(Vinsert
p4621
I42
VSimpleName: acked
p4622
tp4623
I2
s(Vinsert
p4624
I74
VParameterizedType: ArrayList<Object>
p4625
tp4626
I2
s(Vinsert
p4627
I42
VSimpleName: prev
p4628
tp4629
I5
s(Vinsert
p4630
I42
VSimpleName: TestKryoDecorator
p4631
tp4632
I1
s(Vinsert
p4633
I42
VSimpleName: serializeInto
p4634
tp4635
I1
s(Vinsert
p4636
I40
VQualifiedName: StormTopology.metaDataMap
p4637
tp4638
I2
s(Vinsert
p4639
I42
VSimpleName: IConnection
p4640
tp4641
I2
s(Vinsert
p4642
I42
VSimpleName: getTransactionId
p4643
tp4644
I6
s(Vinsert
p4645
I42
VSimpleName: NioClientSocketChannelFactory
p4646
tp4647
I1
s(Vinsert
p4648
I42
VSimpleName: AckTracker
p4649
tp4650
I1
s(Vinsert
p4651
I42
VSimpleName: username
p4652
tp4653
I1
s(Vinsert
p4654
I43
VSimpleType: TSocket
p4655
tp4656
I1
s(Vinsert
p4657
I42
VSimpleName: this_present_ite
p4658
tp4659
I1
s(Vinsert
p4660
I42
VSimpleName: fieldsGrouping
p4661
tp4662
I3
s(Vinsert
p4663
I42
VSimpleName: ret
p4664
tp4665
I44
s(Vinsert
p4666
I42
VSimpleName: TransactionalSpoutSpec
p4667
tp4668
I1
s(Vinsert
p4669
I42
VSimpleName: _sourceArgs
p4670
tp4671
I2
s(Vinsert
p4672
I42
VSimpleName: ToStringBuilder
p4673
tp4674
I2
s(Vinsert
p4675
I42
VSimpleName: Grouping
p4676
tp4677
I3
s(Vinsert
p4678
I74
VParameterizedType: Entry<K,V>
p4679
tp4680
I1
s(Vinsert
p4681
I42
VSimpleName: PREPARE_ID
p4682
tp4683
I1
s(Vinsert
p4684
I45
VStringLiteral: "Topology submission exception"
p4685
tp4686
I1
s(Vinsert
p4687
I42
VSimpleName: getId
p4688
tp4689
I4
s(Vinsert
p4690
I43
VSimpleType: String
p4691
tp4692
I103
s(Vinsert
p4693
I42
VSimpleName: streamInfo
p4694
tp4695
I1
s(Vinsert
p4696
I42
VSimpleName: c1
p4697
tp4698
I1
s(Vinsert
p4699
I42
VSimpleName: this_present_transactional_spouts
p4700
tp4701
I1
s(Vinsert
p4702
I45
VStringLiteral: "The same metric name `"
p4703
tp4704
I1
s(Vinsert
p4705
I42
VSimpleName: packet
p4706
tp4707
I3
s(Vinsert
p4708
I42
VSimpleName: toAgg
p4709
tp4710
I1
s(Vinsert
p4711
I42
VSimpleName: e
p4712
tp4713
I32
s(Vinsert
p4714
I43
VSimpleType: Object
p4715
tp4716
I91
s(Vinsert
p4717
I42
VSimpleName: setConfiguration
p4718
tp4719
I1
s(Vinsert
p4720
I42
VSimpleName: _ser
p4721
tp4722
I1
s(Vinsert
p4723
I40
VQualifiedName: java.util.Random
p4724
tp4725
I1
s(Vinsert
p4726
I42
VSimpleName: function
p4727
tp4728
I1
s(Vinsert
p4729
I43
VSimpleType: ClusterSummary
p4730
tp4731
I1
s(Vinsert
p4732
I42
VSimpleName: ExecutorDetails
p4733
tp4734
I6
s(Vinsert
p4735
I42
VSimpleName: updater
p4736
tp4737
I2
s(Vinsert
p4738
I42
VSimpleName: Long
p4739
tp4740
I5
s(Vinsert
p4741
I74
VParameterizedType: Map<String,SchedulerAssignment>
p4742
tp4743
I1
s(Vinsert
p4744
I42
VSimpleName: Class
p4745
tp4746
I4
s(Vinsert
p4747
I43
VSimpleType: IReducer
p4748
tp4749
I1
s(Vinsert
p4750
I42
VSimpleName: sort
p4751
tp4752
I4
s(Vinsert
p4753
I42
VSimpleName: Comparable
p4754
tp4755
I2
s(Vinsert
p4756
I42
VSimpleName: closeMessage
p4757
tp4758
I1
s(Vinsert
p4759
I42
VSimpleName: SYSTEM_EXECUTOR_ID
p4760
tp4761
I1
s(Vinsert
p4762
I42
VSimpleName: _messageTimeoutMs
p4763
tp4764
I1
s(Vinsert
p4765
I45
VStringLiteral: "User serialization tokens must be greater than "
p4766
tp4767
I1
s(Vinsert
p4768
I43
VSimpleType: DataInputStream
p4769
tp4770
I2
s(Vinsert
p4771
I42
VSimpleName: Override
p4772
tp4773
I39
s(Vinsert
p4774
I76
VWildcardType: ? extends Object
p4775
tp4776
I1
s(Vinsert
p4777
I42
VSimpleName: takeMessages
p4778
tp4779
I1
s(Vinsert
p4780
I42
VSimpleName: _coordinatorState
p4781
tp4782
I3
s(Vinsert
p4783
I74
VParameterizedType: ArrayList<String>
p4784
tp4785
I1
s(Vinsert
p4786
I42
VSimpleName: IOException
p4787
tp4788
I8
s(Vinsert
p4789
I42
VSimpleName: failure_count
p4790
tp4791
I2
s(Vinsert
p4792
I42
VSimpleName: userResources
p4793
tp4794
I1
s(Vinsert
p4795
I83
VModifier: private
p4796
tp4797
I6
s(Vinsert
p4798
I42
VSimpleName: inputs
p4799
tp4800
I1
s(Vinsert
p4801
I42
VSimpleName: TFramedTransport
p4802
tp4803
I1
s(Vinsert
p4804
I42
VSimpleName: TSocket
p4805
tp4806
I1
s(Vinsert
p4807
I42
VSimpleName: put
p4808
tp4809
I32
s(Vinsert
p4810
I42
VSimpleName: TransactionalSpoutBatchExecutor
p4811
tp4812
I1
s(Vinsert
p4813
I74
VParameterizedType: ArrayList<FixedTuple>
p4814
tp4815
I1
s(Vinsert
p4816
I42
VSimpleName: BlowfishSerializer
p4817
tp4818
I1
s(Vinsert
p4819
I42
VSimpleName: lastKey
p4820
tp4821
I2
s(Vinsert
p4822
I42
VSimpleName: throwable
p4823
tp4824
I1
s(Vinsert
p4825
I42
VSimpleName: allOf
p4826
tp4827
I3
s(Vinsert
p4828
I42
VSimpleName: TestSerObject
p4829
tp4830
I1
s(Vinsert
p4831
I42
VSimpleName: afn
p4832
tp4833
I1
s(Vinsert
p4834
I42
VSimpleName: bb
p4835
tp4836
I1
s(Vinsert
p4837
I53
VThrowStatement
p4838
tp4839
I15
s(Vinsert
p4840
I42
VSimpleName: serializeObject
p4841
tp4842
I1
s(Vinsert
p4843
I45
VStringLiteral: "` was registered twice."
p4844
tp4845
I1
s(Vinsert
p4846
I42
VSimpleName: Bolt
p4847
tp4848
I3
s(Vinsert
p4849
I42
VSimpleName: nodeId
p4850
tp4851
I2
s(Vinsert
p4852
I42
VSimpleName: client
p4853
tp4854
I8
s(Vinsert
p4855
I42
VSimpleName: TopologyContext
p4856
tp4857
I4
s(Vinsert
p4858
I42
VSimpleName: anchor
p4859
tp4860
I1
s(Vinsert
p4861
I42
VSimpleName: _elems
p4862
tp4863
I1
s(Vinsert
p4864
I42
VSimpleName: map
p4865
tp4866
I4
s(Vinsert
p4867
I42
VSimpleName: m1
p4868
tp4869
I1
s(Vinsert
p4870
I42
VSimpleName: BigInteger
p4871
tp4872
I3
s(Vinsert
p4873
I39
VPrimitiveType: short
p4874
tp4875
I3
s(Vinsert
p4876
I43
VSimpleType: StringBuilder
p4877
tp4878
I3
s(Vinsert
p4879
I42
VSimpleName: makeProjectionFactory
p4880
tp4881
I1
s(Vinsert
p4882
I43
VSimpleType: ProjectionFactory
p4883
tp4884
I7
s(Vinsert
p4885
I43
VSimpleType: HashSet
p4886
tp4887
I4
s(Vinsert
p4888
I26
VImportDeclaration
p4889
tp4890
I5
s(Vinsert
p4891
I45
VStringLiteral: "Trident does not support direct streams"
p4892
tp4893
I1
s(Vinsert
p4894
I42
VSimpleName: _activeBatches
p4895
tp4896
I1
s(Vinsert
p4897
I42
VSimpleName: cm
p4898
tp4899
I1
s.