(lp0
(Vinsert
p1
I42
VSimpleName: build
p2
tp3
a(Vinsert
p4
I42
VSimpleName: local_or_shuffle
p5
tp6
a(Vinsert
p7
I42
VSimpleName: is_set_num_workers
p8
tp9
a(Vinsert
p10
I42
VSimpleName: partitionAggregate
p11
tp12
a(Vinsert
p13
I42
VSimpleName: deserialize
p14
tp15
a(Vinsert
p16
I42
VSimpleName: getData
p17
tp18
a(Vinsert
p19
I42
VSimpleName: sort
p20
tp21
a(Vinsert
p22
I42
VSimpleName: contains
p23
tp24
a(Vinsert
p25
I42
VSimpleName: nextTuple
p26
tp27
a(Vinsert
p28
I42
VSimpleName: newChannel
p29
tp30
a(Vinsert
p31
I42
VSimpleName: getStateIndex
p32
tp33
a(Vinsert
p34
I42
VSimpleName: forName
p35
tp36
a(Vinsert
p37
I42
VSimpleName: ack
p38
tp39
a(Vinsert
p40
I42
VSimpleName: getCoordinator
p41
tp42
a(Vinsert
p43
I42
VSimpleName: next
p44
tp45
a(Vinsert
p46
I42
VSimpleName: take
p47
tp48
a(Vinsert
p49
I42
VSimpleName: getComponentConfiguration
p50
tp51
a(Vinsert
p52
I42
VSimpleName: min
p53
tp54
a(Vinsert
p55
I42
VSimpleName: addConfiguration
p56
tp57
a(Vinsert
p58
I42
VSimpleName: writeObject
p59
tp60
a(Vinsert
p61
I42
VSimpleName: isEmpty
p62
tp63
a(Vinsert
p64
I42
VSimpleName: setCollector
p65
tp66
a(Vinsert
p67
I42
VSimpleName: destroy
p68
tp69
a(Vinsert
p70
I42
VSimpleName: is_set_inputs
p71
tp72
a(Vinsert
p73
I42
VSimpleName: getAppConfigurationEntry
p74
tp75
a(Vinsert
p76
I42
VSimpleName: multiUpdate
p77
tp78
a(Vinsert
p79
I42
VSimpleName: add
p80
tp81
a(Vinsert
p82
I42
VSimpleName: makeDetectSpec
p83
tp84
a(Vinsert
p85
I42
VSimpleName: getContext
p86
tp87
a(Vinsert
p88
I42
VSimpleName: send
p89
tp90
a(Vinsert
p91
I42
VSimpleName: connect
p92
tp93
a(Vinsert
p94
I42
VSimpleName: allGrouping
p95
tp96
a(Vinsert
p97
I42
VSimpleName: isReady
p98
tp99
a(Vinsert
p100
I42
VSimpleName: rightSize
p101
tp102
a(Vinsert
p103
I42
VSimpleName: eval
p104
tp105
a(Vinsert
p106
I42
VSimpleName: setTimeout
p107
tp108
a(Vinsert
p109
I42
VSimpleName: reset
p110
tp111
a(Vinsert
p112
I42
VSimpleName: get
p113
tp114
a(Vinsert
p115
I42
VSimpleName: getClient
p116
tp117
a(Vinsert
p118
I42
VSimpleName: getKey
p119
tp120
a(Vinsert
p121
I42
VSimpleName: deactivate
p122
tp123
a(Vinsert
p124
I42
VSimpleName: getObject
p125
tp126
a(Vinsert
p127
I42
VSimpleName: values
p128
tp129
a(Vinsert
p130
I42
VSimpleName: setBuffer
p131
tp132
a(Vinsert
p133
I42
VSimpleName: submit
p134
tp135
a(Vinsert
p136
I42
VSimpleName: newCachedThreadPool
p137
tp138
a(Vinsert
p139
I42
VSimpleName: read
p140
tp141
a(Vinsert
p142
I42
VSimpleName: available
p143
tp144
a(Vinsert
p145
I42
VSimpleName: is_set_executed
p146
tp147
a(Vinsert
p148
I42
VSimpleName: sleep
p149
tp150
a(Vinsert
p151
I42
VSimpleName: start
p152
tp153
a(Vinsert
p154
I42
VSimpleName: debug
p155
tp156
a(Vinsert
p157
I42
VSimpleName: name
p158
tp159
a(Vinsert
p160
I42
VSimpleName: update
p161
tp162
a(Vinsert
p163
I42
VSimpleName: getParent
p164
tp165
a(Vinsert
p166
I42
VSimpleName: success
p167
tp168
a(Vinsert
p169
I42
VSimpleName: waitFor
p170
tp171
a(Vinsert
p172
I42
VSimpleName: getCause
p173
tp174
a(Vinsert
p175
I42
VSimpleName: removeLast
p176
tp177
a(Vinsert
p178
I42
VSimpleName: reportError
p179
tp180
a(Vinsert
p181
I42
VSimpleName: cleanupTransaction
p182
tp183
a(Vinsert
p184
I42
VSimpleName: getId
p185
tp186
a(Vinsert
p187
I42
VSimpleName: getAssignmentById
p188
tp189
a(Vinsert
p190
I42
VSimpleName: getErrorsString
p191
tp192
a(Vinsert
p193
I42
VSimpleName: getComponentCommon
p194
tp195
a(Vinsert
p196
I42
VSimpleName: randomUUID
p197
tp198
a(Vinsert
p199
I42
VSimpleName: getAttemptId
p200
tp201
a(Vinsert
p202
I42
VSimpleName: partition
p203
tp204
a(Vinsert
p205
I42
VSimpleName: poll
p206
tp207
a(Vinsert
p208
I42
VSimpleName: reflectionToString
p209
tp210
a(Vinsert
p211
I42
VSimpleName: println
p212
tp213
a(Vinsert
p214
I42
VSimpleName: finishedId
p215
tp216
a(Vinsert
p217
I42
VSimpleName: feed
p218
tp219
a(Vinsert
p220
I42
VSimpleName: getCursor
p221
tp222
a(Vinsert
p223
I42
VSimpleName: entrySet
p224
tp225
a(Vinsert
p226
I42
VSimpleName: doubleValue
p227
tp228
a(Vinsert
p229
I42
VSimpleName: setNumWorkers
p230
tp231
a(Vinsert
p232
I42
VSimpleName: getString
p233
tp234
a(Vinsert
p235
I42
VSimpleName: getFieldName
p236
tp237
a(Vinsert
p238
I42
VSimpleName: setConfiguration
p239
tp240
a(Vinsert
p241
I42
VSimpleName: remaining
p242
tp243
a(Vinsert
p244
I42
VSimpleName: error
p245
tp246
a(Vinsert
p247
I42
VSimpleName: bind
p248
tp249
a(Vinsert
p250
I42
VSimpleName: limit
p251
tp252
a(Vinsert
p253
I42
VSimpleName: getService
p254
tp255
a(Vinsert
p256
I42
VSimpleName: getConstructor
p257
tp258
a(Vinsert
p259
I42
VSimpleName: setAnchor
p260
tp261
a(Vinsert
p262
I42
VSimpleName: readI32
p263
tp264
a(Vinsert
p265
I42
VSimpleName: setProperty
p266
tp267
a(Vinsert
p268
I42
VSimpleName: intern
p269
tp270
a(Vinsert
p271
I42
VSimpleName: is_set_executor_info
p272
tp273
a(Vinsert
p274
I42
VSimpleName: isKeep
p275
tp276
a(Vinsert
p277
I42
VSimpleName: is_set_component_id
p278
tp279
a(Vinsert
p280
I42
VSimpleName: emitDirect
p281
tp282
a(Vinsert
p283
I42
VSimpleName: getAssignments
p284
tp285
a(Vinsert
p286
I42
VSimpleName: prepare
p287
tp288
a(Vinsert
p289
I42
VSimpleName: currentTimeMillis
p290
tp291
a(Vinsert
p292
I42
VSimpleName: setPortsPerSupervisor
p293
tp294
a(Vinsert
p295
I42
VSimpleName: scheduleAtFixedRate
p296
tp297
a(Vinsert
p298
I42
VSimpleName: isAlive
p299
tp300
a(Vinsert
p301
I42
VSimpleName: getSourceStreamId
p302
tp303
a(Vinsert
p304
I42
VSimpleName: setReferences
p305
tp306
a(Vinsert
p307
I42
VSimpleName: is_set_supervisor_id
p308
tp309
a(Vinsert
p310
I42
VSimpleName: clear
p311
tp312
a(Vinsert
p313
I42
VSimpleName: size
p314
tp315
a(Vinsert
p316
I42
VSimpleName: valueOf
p317
tp318
a(Vinsert
p319
I42
VSimpleName: applyTo
p320
tp321
a(Vinsert
p322
I42
VSimpleName: customGrouping
p323
tp324
a(Vinsert
p325
I42
VSimpleName: is_set_errors
p326
tp327
a(Vinsert
p328
I42
VSimpleName: incrementAndGet
p329
tp330
a(Vinsert
p331
I42
VSimpleName: globalGrouping
p332
tp333
a(Vinsert
p334
I42
VSimpleName: getKryo
p335
tp336
a(Vinsert
p337
I42
VSimpleName: parseLong
p338
tp339
a(Vinsert
p340
I42
VSimpleName: getNumAcks
p341
tp342
a(Vinsert
p343
I42
VSimpleName: get_streamId
p344
tp345
a(Vinsert
p346
I42
VSimpleName: getTuples
p347
tp348
a(Vinsert
p349
I42
VSimpleName: message
p350
tp351
a(Vinsert
p352
I42
VSimpleName: tailMap
p353
tp354
a(Vinsert
p355
I42
VSimpleName: getSubject
p356
tp357
a(Vinsert
p358
I42
VSimpleName: getName
p359
tp360
a(Vinsert
p361
I42
VSimpleName: readShort
p362
tp363
a(Vinsert
p364
I42
VSimpleName: hasCache
p365
tp366
a(Vinsert
p367
I42
VSimpleName: getRawTopology
p368
tp369
a(Vinsert
p370
I42
VSimpleName: run
p371
tp372
a(Vinsert
p373
I42
VSimpleName: fetchRequest
p374
tp375
a(Vinsert
p376
I42
VSimpleName: closeMessage
p377
tp378
a(Vinsert
p379
I42
VSimpleName: getComponentTasks
p380
tp381
a(Vinsert
p382
I42
VSimpleName: custom_serialized
p383
tp384
a(Vinsert
p385
I42
VSimpleName: containsKey
p386
tp387
a(Vinsert
p388
I42
VSimpleName: create
p389
tp390
a(Vinsert
p391
I42
VSimpleName: drainErrorStream
p392
tp393
a(Vinsert
p394
I42
VSimpleName: decorate
p395
tp396
a(Vinsert
p397
I42
VSimpleName: pipeline
p398
tp399
a(Vinsert
p400
I42
VSimpleName: zero
p401
tp402
a(Vinsert
p403
I42
VSimpleName: is_set_transactional_spouts
p404
tp405
a(Vinsert
p406
I42
VSimpleName: getOrderedPartitions
p407
tp408
a(Vinsert
p409
I42
VSimpleName: is_set_json_conf
p410
tp411
a(Vinsert
p412
I42
VSimpleName: remove
p413
tp414
a(Vinsert
p415
I42
VSimpleName: asList
p416
tp417
a(Vinsert
p418
I42
VSimpleName: grouping
p419
tp420
a(Vinsert
p421
I42
VSimpleName: multiPut
p422
tp423
a(Vinsert
p424
I42
VSimpleName: intCast
p425
tp426
a(Vinsert
p427
I42
VSimpleName: registerSerialization
p428
tp429
a(Vinsert
p430
I42
VSimpleName: reduce
p431
tp432
a(Vinsert
p433
I42
VSimpleName: takeMessages
p434
tp435
a(Vinsert
p436
I42
VSimpleName: toString
p437
tp438
a(Vinsert
p439
I42
VSimpleName: fieldsConcat
p440
tp441
a(Vinsert
p442
I42
VSimpleName: set
p443
tp444
a(Vinsert
p445
I42
VSimpleName: combine
p446
tp447
a(Vinsert
p448
I42
VSimpleName: allOf
p449
tp450
a(Vinsert
p451
I42
VSimpleName: append
p452
tp453
a(Vinsert
p454
I42
VSimpleName: getLogger
p455
tp456
a(Vinsert
p457
I42
VSimpleName: toByteArray
p458
tp459
a(Vinsert
p460
I42
VSimpleName: readClassAndObject
p461
tp462
a(Vinsert
p463
I42
VSimpleName: serve
p464
tp465
a(Vinsert
p466
I42
VSimpleName: replaceAll
p467
tp468
a(Vinsert
p469
I42
VSimpleName: cleanup
p470
tp471
a(Vinsert
p472
I42
VSimpleName: eobMessage
p473
tp474
a(Vinsert
p475
I42
VSimpleName: get_componentId
p476
tp477
a(Vinsert
p478
I42
VSimpleName: writeLong
p479
tp480
a(Vinsert
p481
I42
VSimpleName: getValue
p482
tp483
a(Vinsert
p484
I42
VSimpleName: declare
p485
tp486
a(Vinsert
p487
I42
VSimpleName: getValueByField
p488
tp489
a(Vinsert
p490
I42
VSimpleName: intValue
p491
tp492
a(Vinsert
p493
I42
VSimpleName: equals
p494
tp495
a(Vinsert
p496
I42
VSimpleName: info
p497
tp498
a(Vinsert
p499
I42
VSimpleName: getParentTupleFactories
p500
tp501
a(Vinsert
p502
I42
VSimpleName: getSourceComponent
p503
tp504
a(Vinsert
p505
I42
VSimpleName: getInt
p506
tp507
a(Vinsert
p508
I42
VSimpleName: fail
p509
tp510
a(Vinsert
p511
I42
VSimpleName: tryNext
p512
tp513
a(Vinsert
p514
I42
VSimpleName: write
p515
tp516
a(Vinsert
p517
I42
VSimpleName: getUnderlyingTuple
p518
tp519
a(Vinsert
p520
I42
VSimpleName: checkExists
p521
tp522
a(Vinsert
p523
I42
VSimpleName: put
p524
tp525
a(Vinsert
p526
I42
VSimpleName: defaultWriteObject
p527
tp528
a(Vinsert
p529
I42
VSimpleName: getDefaultName
p530
tp531
a(Vinsert
p532
I42
VSimpleName: getCanonicalPath
p533
tp534
a(Vinsert
p535
I42
VSimpleName: assocEx
p536
tp537
a(Vinsert
p538
I42
VSimpleName: result
p539
tp540
a(Vinsert
p541
I42
VSimpleName: is_set_ite
p542
tp543
a(Vinsert
p544
I42
VSimpleName: execute
p545
tp546
a(Vinsert
p547
I42
VSimpleName: register
p548
tp549
a(Vinsert
p550
I42
VSimpleName: multiGet
p551
tp552
a(Vinsert
p553
I42
VSimpleName: split
p554
tp555
a(Vinsert
p556
I42
VSimpleName: open
p557
tp558
a(Vinsert
p559
I42
VSimpleName: setRegistrationRequired
p560
tp561
a(Vinsert
p562
I42
VSimpleName: connectString
p563
tp564
a(Vinsert
p565
I42
VSimpleName: writeShort
p566
tp567
a(Vinsert
p568
I42
VSimpleName: charAt
p569
tp570
a(Vinsert
p571
I42
VSimpleName: makePassThroughSpec
p572
tp573
a(Vinsert
p574
I42
VSimpleName: nextElement
p575
tp576
a(Vinsert
p577
I42
VSimpleName: readVInt
p578
tp579
a(Vinsert
p580
I42
VSimpleName: getRuntime
p581
tp582
a(Vinsert
p583
I42
VSimpleName: readBinary
p584
tp585
a(Vinsert
p586
I42
VSimpleName: initializeTransaction
p587
tp588
a(Vinsert
p589
I42
VSimpleName: getDelegate
p590
tp591
a(Vinsert
p592
I42
VSimpleName: hasNext
p593
tp594
a(Vinsert
p595
I42
VSimpleName: isFull
p596
tp597
a(Vinsert
p598
I42
VSimpleName: length
p599
tp600
a(Vinsert
p601
I42
VSimpleName: get_streams
p602
tp603
a(Vinsert
p604
I42
VSimpleName: getBytes
p605
tp606
a(Vinsert
p607
I42
VSimpleName: iterator
p608
tp609
a(Vinsert
p610
I42
VSimpleName: requestID
p611
tp612
a(Vinsert
p613
I42
VSimpleName: commit
p614
tp615
a(Vinsert
p616
I42
VSimpleName: addServerDefinition
p617
tp618
a(Vinsert
p619
I42
VSimpleName: getOutputFields
p620
tp621
a(Vinsert
p622
I42
VSimpleName: serializeObject
p623
tp624
a(Vinsert
p625
I42
VSimpleName: setData
p626
tp627
a(Vinsert
p628
I42
VSimpleName: secureRandomLong
p629
tp630
a(Vinsert
p631
I42
VSimpleName: booleanValue
p632
tp633
a(Vinsert
p634
I42
VSimpleName: get_output_fields
p635
tp636
a(Vinsert
p637
I42
VSimpleName: getSourceGlobalStreamid
p638
tp639
a(Vinsert
p640
I42
VSimpleName: isServing
p641
tp642
a(Vinsert
p643
I42
VSimpleName: getComponentId
p644
tp645
a(Vinsert
p646
I42
VSimpleName: get_java_object
p647
tp648
a(Vinsert
p649
I42
VSimpleName: objectToIndex
p650
tp651
a(Vinsert
p652
I42
VSimpleName: init
p653
tp654
a(Vinsert
p655
I42
VSimpleName: abs
p656
tp657
a(Vinsert
p658
I42
VSimpleName: freeSlot
p659
tp660
a(Vinsert
p661
I42
VSimpleName: writeInt
p662
tp663
a(Vinsert
p664
I42
VSimpleName: is_set_componentId
p665
tp666
a(Vinsert
p667
I42
VSimpleName: longValue
p668
tp669
a(Vinsert
p670
I42
VSimpleName: createTopology
p671
tp672
a(Vinsert
p673
I42
VSimpleName: parse
p674
tp675
a(Vinsert
p676
I42
VSimpleName: hashCode
p677
tp678
a(Vinsert
p679
I42
VSimpleName: context
p680
tp681
a(Vinsert
p682
I42
VSimpleName: serialize
p683
tp684
a(Vinsert
p685
I42
VSimpleName: numPartitions
p686
tp687
a(Vinsert
p688
I42
VSimpleName: acquire
p689
tp690
a(Vinsert
p691
I42
VSimpleName: localOrShuffleGrouping
p692
tp693
a(Vinsert
p694
I42
VSimpleName: wrap
p695
tp696
a(Vinsert
p697
I42
VSimpleName: setObject
p698
tp699
a(Vinsert
p700
I42
VSimpleName: task
p701
tp702
a(Vinsert
p703
I42
VSimpleName: okResponse
p704
tp705
a(Vinsert
p706
I42
VSimpleName: getMessage
p707
tp708
a(Vinsert
p709
I42
VSimpleName: isSystemComponent
p710
tp711
a(Vinsert
p712
I42
VSimpleName: addAll
p713
tp714
a(Vinsert
p715
I42
VSimpleName: keySet
p716
tp717
a(Vinsert
p718
I42
VSimpleName: putAll
p719
tp720
a(Vinsert
p721
I42
VSimpleName: getState
p722
tp723
a(Vinsert
p724
I42
VSimpleName: setDaemonConf
p725
tp726
a(Vinsert
p727
I42
VSimpleName: fieldsGrouping
p728
tp729
a(Vinsert
p730
I42
VSimpleName: headMap
p731
tp732
a(Vinsert
p733
I42
VSimpleName: writeClassAndObject
p734
tp735
a(Vinsert
p736
I42
VSimpleName: getInstance
p737
tp738
a(Vinsert
p739
I42
VSimpleName: registerClojureCollections
p740
tp741
a(Vinsert
p742
I42
VSimpleName: getCurr
p743
tp744
a(Vinsert
p745
I42
VSimpleName: is_set_status
p746
tp747
a(Vinsert
p748
I42
VSimpleName: registerMetric
p749
tp750
a(Vinsert
p751
I42
VSimpleName: emit
p752
tp753
a(Vinsert
p754
I42
VSimpleName: dynamicBuffer
p755
tp756
a(Vinsert
p757
I42
VSimpleName: declareStream
p758
tp759
a(Vinsert
p760
I42
VSimpleName: unassignByExecutor
p761
tp762
a(Vinsert
p763
I42
VSimpleName: close
p764
tp765
a(Vinsert
p766
I42
VSimpleName: readString
p767
tp768
a(Vinsert
p769
I42
VSimpleName: getMessageId
p770
tp771
a(Vinsert
p772
I42
VSimpleName: isInstance
p773
tp774
a(Vinsert
p775
I42
VSimpleName: warn
p776
tp777
a(Vinsert
p778
I42
VSimpleName: compareTo
p779
tp780
a(Vinsert
p781
I42
VSimpleName: format
p782
tp783
a(Vinsert
p784
I42
VSimpleName: identity
p785
tp786
a.