(lp0
(Vinsert
p1
I42
VSimpleName: decl
p2
tp3
a(Vinsert
p4
I42
VSimpleName: newBeanOrEBean
p5
tp6
a(Vinsert
p7
I42
VSimpleName: createFindNativeFragmentByTag
p8
tp9
a(Vinsert
p10
I42
VSimpleName: backgroundThreadIgnored
p11
tp12
a(Vinsert
p13
I42
VSimpleName: getMessager
p14
tp15
a(Vinsert
p16
I42
VSimpleName: extendsProvider
p17
tp18
a(Vinsert
p19
I42
VSimpleName: isAbstractOrHasEmptyConstructor
p20
tp21
a(Vinsert
p22
I42
VSimpleName: exchange
p23
tp24
a(Vinsert
p25
I42
VSimpleName: resetPreviousNotifier
p26
tp27
a(Vinsert
p28
I42
VSimpleName: hasOneOrTwoParametersAndFirstIsDb
p29
tp30
a(Vinsert
p31
I42
VSimpleName: setInitBody
p32
tp33
a(Vinsert
p34
I42
VSimpleName: getChildAt
p35
tp36
a(Vinsert
p37
I42
VSimpleName: extendsAppWidgetProvider
p38
tp39
a(Vinsert
p40
I42
VSimpleName: enclosingElementHasEnhancedViewSupportAnnotation
p41
tp42
a(Vinsert
p43
I42
VSimpleName: removeBody
p44
tp45
a(Vinsert
p46
I42
VSimpleName: builder
p47
tp48
a(Vinsert
p49
I42
VSimpleName: newCachedThreadPool
p50
tp51
a(Vinsert
p52
I42
VSimpleName: enclosingElementHasEActivity
p53
tp54
a(Vinsert
p55
I42
VSimpleName: getInterfaces
p56
tp57
a(Vinsert
p58
I42
VSimpleName: getNamedItem
p59
tp60
a(Vinsert
p61
I42
VSimpleName: getInflatedInstance
p62
tp63
a(Vinsert
p64
I42
VSimpleName: sleep
p65
tp66
a(Vinsert
p67
I42
VSimpleName: isEmpty
p68
tp69
a(Vinsert
p70
I42
VSimpleName: addSerializedBackgroundMethod
p71
tp72
a(Vinsert
p73
I42
VSimpleName: noReturnStringParam
p74
tp75
a(Vinsert
p76
I42
VSimpleName: group
p77
tp78
a(Vinsert
p79
I42
VSimpleName: getTarget
p80
tp81
a(Vinsert
p82
I42
VSimpleName: getCause
p83
tp84
a(Vinsert
p85
I42
VSimpleName: getDefaultPort
p86
tp87
a(Vinsert
p88
I42
VSimpleName: getParentFile
p89
tp90
a(Vinsert
p91
I42
VSimpleName: setOnStart
p92
tp93
a(Vinsert
p94
I42
VSimpleName: isAndroidAnnotation
p95
tp96
a(Vinsert
p97
I42
VSimpleName: isNotPrivate
p98
tp99
a(Vinsert
p100
I42
VSimpleName: println
p101
tp102
a(Vinsert
p103
I42
VSimpleName: setBaseApplicationInjector
p104
tp105
a(Vinsert
p106
I42
VSimpleName: entrySet
p107
tp108
a(Vinsert
p109
I42
VSimpleName: parseClass
p110
tp111
a(Vinsert
p112
I42
VSimpleName: getTypeArguments
p113
tp114
a(Vinsert
p115
I42
VSimpleName: ne
p116
tp117
a(Vinsert
p118
I42
VSimpleName: staticInvoke
p119
tp120
a(Vinsert
p121
I42
VSimpleName: isTopLevel
p122
tp123
a(Vinsert
p124
I42
VSimpleName: newArrayList
p125
tp126
a(Vinsert
p127
I42
VSimpleName: setModule
p128
tp129
a(Vinsert
p130
I42
VSimpleName: getX
p131
tp132
a(Vinsert
p133
I42
VSimpleName: getOptionBooleanValue
p134
tp135
a(Vinsert
p136
I42
VSimpleName: array
p137
tp138
a(Vinsert
p139
I42
VSimpleName: anyOfTypes
p140
tp141
a(Vinsert
p142
I42
VSimpleName: setAccessible
p143
tp144
a(Vinsert
p145
I42
VSimpleName: openStream
p146
tp147
a(Vinsert
p148
I42
VSimpleName: plus
p149
tp150
a(Vinsert
p151
I42
VSimpleName: emptySet
p152
tp153
a(Vinsert
p154
I42
VSimpleName: getFloat
p155
tp156
a(Vinsert
p157
I42
VSimpleName: delete
p158
tp159
a(Vinsert
p160
I42
VSimpleName: getContextRef
p161
tp162
a(Vinsert
p163
I42
VSimpleName: makeText
p164
tp165
a(Vinsert
p166
I42
VSimpleName: annotate
p167
tp168
a(Vinsert
p169
I42
VSimpleName: matches
p170
tp171
a(Vinsert
p172
I42
VSimpleName: javadoc
p173
tp174
a(Vinsert
p175
I42
VSimpleName: camelCaseToUpperSnakeCase
p176
tp177
a(Vinsert
p178
I42
VSimpleName: invalidate
p179
tp180
a(Vinsert
p181
I42
VSimpleName: invoke
p182
tp183
a(Vinsert
p184
I42
VSimpleName: getOnDestroyBeforeSuperBlock
p185
tp186
a(Vinsert
p187
I42
VSimpleName: overridePendingTransition
p188
tp189
a(Vinsert
p190
I42
VSimpleName: clearInjectedView
p191
tp192
a(Vinsert
p193
I42
VSimpleName: getInt
p194
tp195
a(Vinsert
p196
I42
VSimpleName: idListenerMethod
p197
tp198
a(Vinsert
p199
I42
VSimpleName: canBePutInABundle
p200
tp201
a(Vinsert
p202
I42
VSimpleName: replacePreviousNotifierWithNull
p203
tp204
a(Vinsert
p205
I42
VSimpleName: getMemberInstructions
p206
tp207
a(Vinsert
p208
I42
VSimpleName: getOnKeyLongPressSwitchBody
p209
tp210
a(Vinsert
p211
I42
VSimpleName: replacePreviousNotifier
p212
tp213
a(Vinsert
p214
I42
VSimpleName: getOnStartTrackingTouchBody
p215
tp216
a(Vinsert
p217
I42
VSimpleName: typeParams
p218
tp219
a(Vinsert
p220
I42
VSimpleName: isTrue
p221
tp222
a(Vinsert
p223
I42
VSimpleName: assertThat
p224
tp225
a(Vinsert
p226
I42
VSimpleName: getRuntime
p227
tp228
a(Vinsert
p229
I42
VSimpleName: writeLock
p230
tp231
a(Vinsert
p232
I42
VSimpleName: enclosingElementHasEnhanced
p233
tp234
a(Vinsert
p235
I42
VSimpleName: unmodifiableList
p236
tp237
a(Vinsert
p238
I42
VSimpleName: hasUrlVariables
p239
tp240
a(Vinsert
p241
I42
VSimpleName: set
p242
tp243
a(Vinsert
p244
I42
VSimpleName: getMinSdkVersion
p245
tp246
a(Vinsert
p247
I42
VSimpleName: hasCorrectDefaultAnnotation
p248
tp249
a(Vinsert
p250
I42
VSimpleName: startsWith
p251
tp252
a(Vinsert
p253
I42
VSimpleName: anonymousClass
p254
tp255
a(Vinsert
p256
I42
VSimpleName: doesNotHaveBodyAnnotatedParameter
p257
tp258
a(Vinsert
p259
I42
VSimpleName: extractAnnotationParameter
p260
tp261
a(Vinsert
p262
I42
VSimpleName: remove
p263
tp264
a(Vinsert
p265
I42
VSimpleName: in
p266
tp267
a(Vinsert
p268
I42
VSimpleName: getOnItemSelectedListener
p269
tp270
a(Vinsert
p271
I42
VSimpleName: getErrorMessage
p272
tp273
a(Vinsert
p274
I42
VSimpleName: getForEntity
p275
tp276
a(Vinsert
p277
I42
VSimpleName: printElements
p278
tp279
a(Vinsert
p280
I42
VSimpleName: narrow
p281
tp282
a(Vinsert
p283
I42
VSimpleName: sort
p284
tp285
a(Vinsert
p286
I42
VSimpleName: refClass
p287
tp288
a(Vinsert
p289
I42
VSimpleName: setGeneratedReturnType
p290
tp291
a(Vinsert
p292
I42
VSimpleName: schedule
p293
tp294
a(Vinsert
p295
I42
VSimpleName: getStaticImports
p296
tp297
a(Vinsert
p298
I42
VSimpleName: getDefaultUncaughtExceptionHandler
p299
tp300
a(Vinsert
p301
I42
VSimpleName: parseType
p302
tp303
a(Vinsert
p304
I42
VSimpleName: constructor
p305
tp306
a(Vinsert
p307
I42
VSimpleName: bracesRequired
p308
tp309
a(Vinsert
p310
I42
VSimpleName: onKeyUp
p311
tp312
a(Vinsert
p313
I42
VSimpleName: getAnnotation
p314
tp315
a(Vinsert
p316
I42
VSimpleName: _if
p317
tp318
a(Vinsert
p319
I42
VSimpleName: extractOneAnnotationFieldRef
p320
tp321
a(Vinsert
p322
I42
VSimpleName: activityRegistered
p323
tp324
a(Vinsert
p325
I42
VSimpleName: staticRef
p326
tp327
a(Vinsert
p328
I42
VSimpleName: doesNotHaveBodyAnnotation
p329
tp330
a(Vinsert
p331
I42
VSimpleName: getValidatedElements
p332
tp333
a(Vinsert
p334
I42
VSimpleName: getRestErrorHandlerField
p335
tp336
a(Vinsert
p337
I42
VSimpleName: extractAnnotationClassValue
p338
tp339
a(Vinsert
p340
I42
VSimpleName: commit
p341
tp342
a(Vinsert
p343
I42
VSimpleName: hasASqlLiteOpenHelperParameterizedType
p344
tp345
a(Vinsert
p346
I42
VSimpleName: value
p347
tp348
a(Vinsert
p349
I42
VSimpleName: setData
p350
tp351
a(Vinsert
p352
I42
VSimpleName: asType
p353
tp354
a(Vinsert
p355
I42
VSimpleName: getLong
p356
tp357
a(Vinsert
p358
I42
VSimpleName: _implements
p359
tp360
a(Vinsert
p361
I42
VSimpleName: usesSherlock
p362
tp363
a(Vinsert
p364
I42
VSimpleName: extendsType
p365
tp366
a(Vinsert
p367
I42
VSimpleName: getSharedPreferences
p368
tp369
a(Vinsert
p370
I42
VSimpleName: isEqualTo
p371
tp372
a(Vinsert
p373
I42
VSimpleName: overrideAnnotatedMethod
p374
tp375
a(Vinsert
p376
I42
VSimpleName: getInstance
p377
tp378
a(Vinsert
p379
I42
VSimpleName: parse
p380
tp381
a(Vinsert
p382
I42
VSimpleName: hashCode
p383
tp384
a(Vinsert
p385
I42
VSimpleName: getAnnotatedElement
p386
tp387
a(Vinsert
p388
I42
VSimpleName: copyOf
p389
tp390
a(Vinsert
p391
I42
VSimpleName: ids
p392
tp393
a(Vinsert
p394
I42
VSimpleName: getRestoreStateMethodBody
p395
tp396
a(Vinsert
p397
I42
VSimpleName: hasViewByIdAnnotation
p398
tp399
a(Vinsert
p400
I42
VSimpleName: isPrivate
p401
tp402
a(Vinsert
p403
I42
VSimpleName: getMetaActivities
p404
tp405
a(Vinsert
p406
I42
VSimpleName: _return
p407
tp408
a(Vinsert
p409
I42
VSimpleName: replaceAll
p410
tp411
a(Vinsert
p412
I42
VSimpleName: onLongClick
p413
tp414
a(Vinsert
p415
I42
VSimpleName: getEditor
p416
tp417
a(Vinsert
p418
I42
VSimpleName: keySet
p419
tp420
a(Vinsert
p421
I42
VSimpleName: getClasses
p422
tp423
a(Vinsert
p424
I42
VSimpleName: isSynchronized
p425
tp426
a(Vinsert
p427
I42
VSimpleName: iterator
p428
tp429
a(Vinsert
p430
I42
VSimpleName: toUpperCase
p431
tp432
a(Vinsert
p433
I42
VSimpleName: _catch
p434
tp435
a(Vinsert
p436
I42
VSimpleName: constructorsIn
p437
tp438
a(Vinsert
p439
I42
VSimpleName: edit
p440
tp441
a(Vinsert
p442
I42
VSimpleName: processingEnvironment
p443
tp444
a(Vinsert
p445
I42
VSimpleName: getDefaultDisplay
p446
tp447
a(Vinsert
p448
I42
VSimpleName: hasExtraValue
p449
tp450
a(Vinsert
p451
I42
VSimpleName: isName
p452
tp453
a(Vinsert
p454
I42
VSimpleName: lastIndexOf
p455
tp456
a(Vinsert
p457
I42
VSimpleName: doesNotHaveFieldAnnotatedParameter
p458
tp459
a(Vinsert
p460
I42
VSimpleName: isNested
p461
tp462
a(Vinsert
p463
I42
VSimpleName: getFoundViewHolder
p464
tp465
a(Vinsert
p466
I42
VSimpleName: getAnnotationMirrors
p467
tp468
a(Vinsert
p469
I42
VSimpleName: printError
p470
tp471
a(Vinsert
p472
I42
VSimpleName: getOnStartAfterSuperBlock
p473
tp474
a(Vinsert
p475
I42
VSimpleName: setUseAnnotationDatabases
p476
tp477
a(Vinsert
p478
I42
VSimpleName: blockSimple
p479
tp480
a(Vinsert
p481
I42
VSimpleName: onCall
p482
tp483
a(Vinsert
p484
I42
VSimpleName: setType
p485
tp486
a(Vinsert
p487
I42
VSimpleName: findPreference
p488
tp489
a(Vinsert
p490
I42
VSimpleName: error
p491
tp492
a(Vinsert
p493
I42
VSimpleName: getAttributes
p494
tp495
a(Vinsert
p496
I42
VSimpleName: getOptions
p497
tp498
a(Vinsert
p499
I42
VSimpleName: findViewById
p500
tp501
a(Vinsert
p502
I42
VSimpleName: typeIsValid
p503
tp504
a(Vinsert
p505
I42
VSimpleName: addAll
p506
tp507
a(Vinsert
p508
I42
VSimpleName: endDocument
p509
tp510
a(Vinsert
p511
I42
VSimpleName: getPath
p512
tp513
a(Vinsert
p514
I42
VSimpleName: hasInternetPermission
p515
tp516
a(Vinsert
p517
I42
VSimpleName: getText
p518
tp519
a(Vinsert
p520
I42
VSimpleName: getRootAnnotatedElements
p521
tp522
a(Vinsert
p523
I42
VSimpleName: addAnnotation
p524
tp525
a(Vinsert
p526
I42
VSimpleName: getEnclosingElement
p527
tp528
a(Vinsert
p529
I42
VSimpleName: addError
p530
tp531
a(Vinsert
p532
I42
VSimpleName: hasZeroOrOneViewOrTwoViewBooleanParameters
p533
tp534
a(Vinsert
p535
I42
VSimpleName: getClass
p536
tp537
a(Vinsert
p538
I42
VSimpleName: setRestTemplate
p539
tp540
a(Vinsert
p541
I42
VSimpleName: getIntentBuilderClass
p542
tp543
a(Vinsert
p544
I42
VSimpleName: getTypeMirror
p545
tp546
a(Vinsert
p547
I42
VSimpleName: typeBoundsToJClass
p548
tp549
a(Vinsert
p550
I42
VSimpleName: currentThread
p551
tp552
a(Vinsert
p553
I42
VSimpleName: addBackground
p554
tp555
a(Vinsert
p556
I42
VSimpleName: fromHtml
p557
tp558
a(Vinsert
p559
I42
VSimpleName: isSameAs
p560
tp561
a(Vinsert
p562
I42
VSimpleName: getAddPreferencesFromResourceAfterInjectionBlock
p563
tp564
a(Vinsert
p565
I42
VSimpleName: getOnReceiveBody
p566
tp567
a(Vinsert
p568
I42
VSimpleName: primitiveOrWrapper
p569
tp570
a(Vinsert
p571
I42
VSimpleName: putParcelableArray
p572
tp573
a(Vinsert
p574
I42
VSimpleName: getOnOptionsItemSelectedMiddleBlock
p575
tp576
a(Vinsert
p577
I42
VSimpleName: isAbstract
p578
tp579
a(Vinsert
p580
I42
VSimpleName: ensureApiClassIsGenerated
p581
tp582
a(Vinsert
p583
I42
VSimpleName: startFragment
p584
tp585
a(Vinsert
p586
I42
VSimpleName: hasNotMultipleAnnotatedMethodWithSameName
p587
tp588
a(Vinsert
p589
I42
VSimpleName: createFromResource
p590
tp591
a(Vinsert
p592
I42
VSimpleName: extractAndroidManifest
p593
tp594
a(Vinsert
p595
I42
VSimpleName: getJClass
p596
tp597
a(Vinsert
p598
I42
VSimpleName: asElement
p599
tp600
a(Vinsert
p601
I42
VSimpleName: enclosingElementHasEnhancedAnnotation
p602
tp603
a(Vinsert
p604
I42
VSimpleName: getOriginatingElementsByGeneratedClassQualifiedName
p605
tp606
a(Vinsert
p607
I42
VSimpleName: currentTimeMillis
p608
tp609
a(Vinsert
p610
I42
VSimpleName: getIdStaticRef
p611
tp612
a(Vinsert
p613
I42
VSimpleName: stop
p614
tp615
a(Vinsert
p616
I42
VSimpleName: restoreCallNeedCastStatement
p617
tp618
a(Vinsert
p619
I42
VSimpleName: clear
p620
tp621
a(Vinsert
p622
I42
VSimpleName: getElementUtils
p623
tp624
a(Vinsert
p625
I42
VSimpleName: hasEActivityOrEFragment
p626
tp627
a(Vinsert
p628
I42
VSimpleName: urlVariableNamesExistInParameters
p629
tp630
a(Vinsert
p631
I42
VSimpleName: getSetContentViewBlock
p632
tp633
a(Vinsert
p634
I42
VSimpleName: validate
p635
tp636
a(Vinsert
p637
I42
VSimpleName: intent
p638
tp639
a(Vinsert
p640
I42
VSimpleName: createTable
p641
tp642
a(Vinsert
p643
I42
VSimpleName: toArray
p644
tp645
a(Vinsert
p646
I42
VSimpleName: parseLong
p647
tp648
a(Vinsert
p649
I42
VSimpleName: process
p650
tp651
a(Vinsert
p652
I42
VSimpleName: getReturnType
p653
tp654
a(Vinsert
p655
I42
VSimpleName: getIntentFilterField
p656
tp657
a(Vinsert
p658
I42
VSimpleName: containsKey
p659
tp660
a(Vinsert
p661
I42
VSimpleName: getGeneratedClassHolder
p662
tp663
a(Vinsert
p664
I42
VSimpleName: afterSetContentView
p665
tp666
a(Vinsert
p667
I42
VSimpleName: isEnabled
p668
tp669
a(Vinsert
p670
I42
VSimpleName: enclosingElementHasOneOfAnnotations
p671
tp672
a(Vinsert
p673
I42
VSimpleName: isSubtype
p674
tp675
a(Vinsert
p676
I42
VSimpleName: getActivity
p677
tp678
a(Vinsert
p679
I42
VSimpleName: age
p680
tp681
a(Vinsert
p682
I42
VSimpleName: addServiceIntentBuilder
p683
tp684
a(Vinsert
p685
I42
VSimpleName: annotationName
p686
tp687
a(Vinsert
p688
I42
VSimpleName: boxify
p689
tp690
a(Vinsert
p691
I42
VSimpleName: putExtra
p692
tp693
a(Vinsert
p694
I42
VSimpleName: getExtendsBound
p695
tp696
a(Vinsert
p697
I42
VSimpleName: getExpressionToSaveFromField
p698
tp699
a(Vinsert
p700
I42
VSimpleName: getAdapter
p701
tp702
a(Vinsert
p703
I42
VSimpleName: getPermissionQualifiedNames
p704
tp705
a(Vinsert
p706
I42
VSimpleName: addDontImportClass
p707
tp708
a(Vinsert
p709
I42
VSimpleName: getEnclosingActivityHolder
p710
tp711
a(Vinsert
p712
I42
VSimpleName: generateApiClass
p713
tp714
a(Vinsert
p715
I42
VSimpleName: typeElementFromQualifiedName
p716
tp717
a(Vinsert
p718
I42
VSimpleName: getProperty
p719
tp720
a(Vinsert
p721
I42
VSimpleName: append
p722
tp723
a(Vinsert
p724
I42
VSimpleName: onCreate
p725
tp726
a(Vinsert
p727
I42
VSimpleName: erasure
p728
tp729
a(Vinsert
p730
I42
VSimpleName: absent
p731
tp732
a(Vinsert
p733
I42
VSimpleName: _finally
p734
tp735
a(Vinsert
p736
I42
VSimpleName: getSaveStateBundleParam
p737
tp738
a(Vinsert
p739
I42
VSimpleName: hasOrmLiteJars
p740
tp741
a(Vinsert
p742
I42
VSimpleName: hasEActivity
p743
tp744
a(Vinsert
p745
I42
VSimpleName: isVarArgs
p746
tp747
a(Vinsert
p748
I42
VSimpleName: isInterface
p749
tp750
a(Vinsert
p751
I42
VSimpleName: enclosingMethodHasAnnotation
p752
tp753
a(Vinsert
p754
I42
VSimpleName: enclosingElementHasEBeanAnnotation
p755
tp756
a(Vinsert
p757
I42
VSimpleName: setFile
p758
tp759
a(Vinsert
p760
I42
VSimpleName: getSdkIntInternal
p761
tp762
a(Vinsert
p763
I42
VSimpleName: replaceSuperCall
p764
tp765
a(Vinsert
p766
I42
VSimpleName: assertEquals
p767
tp768
a(Vinsert
p769
I42
VSimpleName: createViewChangedHolder
p770
tp771
a(Vinsert
p772
I42
VSimpleName: getAnnotationType
p773
tp774
a(Vinsert
p775
I42
VSimpleName: getInputStream
p776
tp777
a(Vinsert
p778
I42
VSimpleName: execute
p779
tp780
a(Vinsert
p781
I42
VSimpleName: setValidatedModel
p782
tp783
a(Vinsert
p784
I42
VSimpleName: _extends
p785
tp786
a(Vinsert
p787
I42
VSimpleName: stringResKeyPref
p788
tp789
a(Vinsert
p790
I42
VSimpleName: isAbsent
p791
tp792
a(Vinsert
p793
I42
VSimpleName: getOnKeyLongPressKeyEventParam
p794
tp795
a(Vinsert
p796
I42
VSimpleName: getOnKeyDownSwitchBody
p797
tp798
a(Vinsert
p799
I42
VSimpleName: doesNotHavePartAnnotation
p800
tp801
a(Vinsert
p802
I42
VSimpleName: isNull
p803
tp804
a(Vinsert
p805
I42
VSimpleName: getThrownTypes
p806
tp807
a(Vinsert
p808
I42
VSimpleName: getDateInstance
p809
tp810
a(Vinsert
p811
I42
VSimpleName: hasNext
p812
tp813
a(Vinsert
p814
I42
VSimpleName: length
p815
tp816
a(Vinsert
p817
I42
VSimpleName: onDestroyView
p818
tp819
a(Vinsert
p820
I42
VSimpleName: getConnectionManager
p821
tp822
a(Vinsert
p823
I42
VSimpleName: hasSetOfHttpMethodReturnType
p824
tp825
a(Vinsert
p826
I42
VSimpleName: setExtractedElements
p827
tp828
a(Vinsert
p829
I42
VSimpleName: getSuperclass
p830
tp831
a(Vinsert
p832
I42
VSimpleName: getClassLoader
p833
tp834
a(Vinsert
p835
I42
VSimpleName: getRestTemplate
p836
tp837
a(Vinsert
p838
I42
VSimpleName: setAdapter
p839
tp840
a(Vinsert
p841
I42
VSimpleName: find
p842
tp843
a(Vinsert
p844
I42
VSimpleName: resume
p845
tp846
a(Vinsert
p847
I42
VSimpleName: params
p848
tp849
a(Vinsert
p850
I42
VSimpleName: hasSize
p851
tp852
a(Vinsert
p853
I42
VSimpleName: getAnnotatedElements
p854
tp855
a(Vinsert
p856
I42
VSimpleName: singletonList
p857
tp858
a(Vinsert
p859
I42
VSimpleName: getGeneratingAnnotations
p860
tp861
a(Vinsert
p862
I42
VSimpleName: onFinishInflate
p863
tp864
a(Vinsert
p865
I42
VSimpleName: getLength
p866
tp867
a(Vinsert
p868
I42
VSimpleName: directClass
p869
tp870
a(Vinsert
p871
I42
VSimpleName: getCanonicalName
p872
tp873
a(Vinsert
p874
I42
VSimpleName: setProcessHolder
p875
tp876
a(Vinsert
p877
I42
VSimpleName: isLibraryProject
p878
tp879
a(Vinsert
p880
I42
VSimpleName: replace
p881
tp882
a(Vinsert
p883
I42
VSimpleName: processToStringModel
p884
tp885
a(Vinsert
p886
I42
VSimpleName: getStringSet
p887
tp888
a(Vinsert
p889
I42
VSimpleName: isPrimitive
p890
tp891
a(Vinsert
p892
I42
VSimpleName: getMethod
p893
tp894
a(Vinsert
p895
I42
VSimpleName: getApiClassesToGenerate
p896
tp897
a(Vinsert
p898
I42
VSimpleName: getOptionsConstants
p899
tp900
a(Vinsert
p901
I42
VSimpleName: toString
p902
tp903
a(Vinsert
p904
I42
VSimpleName: getOnRestartBeforeSuperBlock
p905
tp906
a(Vinsert
p907
I42
VSimpleName: planetsStringSet
p908
tp909
a(Vinsert
p910
I42
VSimpleName: setupActivity
p911
tp912
a(Vinsert
p913
I42
VSimpleName: charAt
p914
tp915
a(Vinsert
p916
I42
VSimpleName: getTypeParameters
p917
tp918
a(Vinsert
p919
I42
VSimpleName: copy
p920
tp921
a(Vinsert
p922
I42
VSimpleName: format
p923
tp924
a(Vinsert
p925
I42
VSimpleName: notAlreadyValidated
p926
tp927
a(Vinsert
p928
I42
VSimpleName: getEntitySentToServer
p929
tp930
a(Vinsert
p931
I42
VSimpleName: enclosingElementHasEnhancedComponentAnnotation
p932
tp933
a(Vinsert
p934
I42
VSimpleName: contains
p935
tp936
a(Vinsert
p937
I42
VSimpleName: emptyList
p938
tp939
a(Vinsert
p940
I42
VSimpleName: zeroOrOneBundleParameter
p941
tp942
a(Vinsert
p943
I42
VSimpleName: printMessage
p944
tp945
a(Vinsert
p946
I42
VSimpleName: getMetaViews
p947
tp948
a(Vinsert
p949
I42
VSimpleName: getInstance_
p950
tp951
a(Vinsert
p952
I42
VSimpleName: arg
p953
tp954
a(Vinsert
p955
I42
VSimpleName: add
p956
tp957
a(Vinsert
p958
I42
VSimpleName: setScopeField
p959
tp960
a(Vinsert
p961
I42
VSimpleName: getExpressionToRestoreFromIntentOrBundle
p962
tp963
a(Vinsert
p964
I42
VSimpleName: createGeneratedClassHolder
p965
tp966
a(Vinsert
p967
I42
VSimpleName: enclosingElementHasEFragment
p968
tp969
a(Vinsert
p970
I42
VSimpleName: hasSeekBarTouchTrackingMethodParameters
p971
tp972
a(Vinsert
p973
I42
VSimpleName: getProcessHolder
p974
tp975
a(Vinsert
p976
I42
VSimpleName: unmodifiableMap
p977
tp978
a(Vinsert
p979
I42
VSimpleName: setText
p980
tp981
a(Vinsert
p982
I42
VSimpleName: getGeneratedClass
p983
tp984
a(Vinsert
p985
I42
VSimpleName: setForTesting
p986
tp987
a(Vinsert
p988
I42
VSimpleName: assignFindPreferenceByKey
p989
tp990
a(Vinsert
p991
I42
VSimpleName: getParameterHandlers
p992
tp993
a(Vinsert
p994
I42
VSimpleName: owner
p995
tp996
a(Vinsert
p997
I42
VSimpleName: getTypeVariables
p998
tp999
a(Vinsert
p1000
I42
VSimpleName: propagation
p1001
tp1002
a(Vinsert
p1003
I42
VSimpleName: methods
p1004
tp1005
a(Vinsert
p1006
I42
VSimpleName: extraDataSet
p1007
tp1008
a(Vinsert
p1009
I42
VSimpleName: definedClass
p1010
tp1011
a(Vinsert
p1012
I42
VSimpleName: readLine
p1013
tp1014
a(Vinsert
p1015
I42
VSimpleName: generify
p1016
tp1017
a(Vinsert
p1018
I42
VSimpleName: createResource
p1019
tp1020
a(Vinsert
p1021
I42
VSimpleName: g
p1022
tp1023
a(Vinsert
p1024
I42
VSimpleName: validateInterceptors
p1025
tp1026
a(Vinsert
p1027
I42
VSimpleName: getSimpleName
p1028
tp1029
a(Vinsert
p1030
I42
VSimpleName: idExists
p1031
tp1032
a(Vinsert
p1033
I42
VSimpleName: usesSpringAndroid2
p1034
tp1035
a(Vinsert
p1036
I42
VSimpleName: cast
p1037
tp1038
a(Vinsert
p1039
I42
VSimpleName: typeHasAnnotation
p1040
tp1041
a(Vinsert
p1042
I42
VSimpleName: doesNotHaveFieldAnnotation
p1043
tp1044
a(Vinsert
p1045
I42
VSimpleName: hasDataBindingOnClasspath
p1046
tp1047
a(Vinsert
p1048
I42
VSimpleName: blockVirtual
p1049
tp1050
a(Vinsert
p1051
I42
VSimpleName: _else
p1052
tp1053
a(Vinsert
p1054
I42
VSimpleName: withIntent
p1055
tp1056
a(Vinsert
p1057
I42
VSimpleName: _this
p1058
tp1059
a(Vinsert
p1060
I42
VSimpleName: dataSchemes
p1061
tp1062
a(Vinsert
p1063
I42
VSimpleName: typeMirrorToJClass
p1064
tp1065
a(Vinsert
p1066
I42
VSimpleName: extractAnnotationClassArrayParameter
p1067
tp1068
a(Vinsert
p1069
I42
VSimpleName: parseInt
p1070
tp1071
a(Vinsert
p1072
I42
VSimpleName: getActivityQualifiedNames
p1073
tp1074
a(Vinsert
p1075
I42
VSimpleName: getOptionValue
p1076
tp1077
a(Vinsert
p1078
I42
VSimpleName: notifyViewChanged
p1079
tp1080
a(Vinsert
p1081
I42
VSimpleName: w
p1082
tp1083
a(Vinsert
p1084
I42
VSimpleName: putInt
p1085
tp1086
a(Vinsert
p1087
I42
VSimpleName: create
p1088
tp1089
a(Vinsert
p1090
I42
VSimpleName: to
p1091
tp1092
a(Vinsert
p1093
I42
VSimpleName: onActivityResult
p1094
tp1095
a(Vinsert
p1096
I42
VSimpleName: lit
p1097
tp1098
a(Vinsert
p1099
I42
VSimpleName: codeModel
p1100
tp1101
a(Vinsert
p1102
I42
VSimpleName: asList
p1103
tp1104
a(Vinsert
p1105
I42
VSimpleName: getDeclaredField
p1106
tp1107
a(Vinsert
p1108
I42
VSimpleName: getComponentType
p1109
tp1110
a(Vinsert
p1111
I42
VSimpleName: _class
p1112
tp1113
a(Vinsert
p1114
I42
VSimpleName: extendsOneOfTypes
p1115
tp1116
a(Vinsert
p1117
I42
VSimpleName: field
p1118
tp1119
a(Vinsert
p1120
I42
VSimpleName: execSQL
p1121
tp1122
a(Vinsert
p1123
I42
VSimpleName: startActivity
p1124
tp1125
a(Vinsert
p1126
I42
VSimpleName: getLogger
p1127
tp1128
a(Vinsert
p1129
I42
VSimpleName: putString
p1130
tp1131
a(Vinsert
p1132
I42
VSimpleName: printAnnotationWarning
p1133
tp1134
a(Vinsert
p1135
I42
VSimpleName: list
p1136
tp1137
a(Vinsert
p1138
I42
VSimpleName: getFormatter
p1139
tp1140
a(Vinsert
p1141
I42
VSimpleName: block
p1142
tp1143
a(Vinsert
p1144
I42
VSimpleName: getView
p1145
tp1146
a(Vinsert
p1147
I42
VSimpleName: getRelativeEBeanHolder
p1148
tp1149
a(Vinsert
p1150
I42
VSimpleName: notify
p1151
tp1152
a(Vinsert
p1153
I42
VSimpleName: extractAnnotationQualifiedIds
p1154
tp1155
a(Vinsert
p1156
I42
VSimpleName: getWindow
p1157
tp1158
a(Vinsert
p1159
I42
VSimpleName: extractFieldAndPartParameters
p1160
tp1161
a(Vinsert
p1162
I42
VSimpleName: getOnBuildHeadersTargetParam
p1163
tp1164
a(Vinsert
p1165
I42
VSimpleName: isParcelType
p1166
tp1167
a(Vinsert
p1168
I42
VSimpleName: verify
p1169
tp1170
a(Vinsert
p1171
I42
VSimpleName: writeApiClasses
p1172
tp1173
a(Vinsert
p1174
I42
VSimpleName: ignoreWhenViewDestroyed
p1175
tp1176
a(Vinsert
p1177
I42
VSimpleName: newFixedThreadPool
p1178
tp1179
a(Vinsert
p1180
I42
VSimpleName: of
p1181
tp1182
a(Vinsert
p1183
I42
VSimpleName: buildActivity
p1184
tp1185
a(Vinsert
p1186
I42
VSimpleName: getRClass
p1187
tp1188
a(Vinsert
p1189
I42
VSimpleName: annotations
p1190
tp1191
a(Vinsert
p1192
I42
VSimpleName: isValid
p1193
tp1194
a(Vinsert
p1195
I42
VSimpleName: getEnclosingHolder
p1196
tp1197
a(Vinsert
p1198
I42
VSimpleName: responseContent
p1199
tp1200
a(Vinsert
p1201
I42
VSimpleName: enclosingElementIsGenerated
p1202
tp1203
a(Vinsert
p1204
I42
VSimpleName: register
p1205
tp1206
a(Vinsert
p1207
I42
VSimpleName: classes
p1208
tp1209
a(Vinsert
p1210
I42
VSimpleName: shouldUseFileAppender
p1211
tp1212
a(Vinsert
p1213
I42
VSimpleName: when
p1214
tp1215
a(Vinsert
p1216
I42
VSimpleName: param
p1217
tp1218
a(Vinsert
p1219
I42
VSimpleName: onCreateOptionsMenu
p1220
tp1221
a(Vinsert
p1222
I42
VSimpleName: setAction
p1223
tp1224
a(Vinsert
p1225
I42
VSimpleName: getAndSet
p1226
tp1227
a(Vinsert
p1228
I42
VSimpleName: d
p1229
tp1230
a(Vinsert
p1231
I42
VSimpleName: elementHasOneOfRestMethodAnnotations
p1232
tp1233
a(Vinsert
p1234
I42
VSimpleName: type
p1235
tp1236
a(Vinsert
p1237
I42
VSimpleName: getRInnerClass
p1238
tp1239
a(Vinsert
p1240
I42
VSimpleName: getPackage
p1241
tp1242
a(Vinsert
p1243
I42
VSimpleName: getAbsolutePath
p1244
tp1245
a(Vinsert
p1246
I42
VSimpleName: setIntent
p1247
tp1248
a(Vinsert
p1249
I42
VSimpleName: getOnAttachAfterSuperBlock
p1250
tp1251
a(Vinsert
p1252
I42
VSimpleName: getOnPreferenceChangeListener
p1253
tp1254
a(Vinsert
p1255
I42
VSimpleName: canBeSavedAsInstanceState
p1256
tp1257
a(Vinsert
p1258
I42
VSimpleName: isNotSynchronized
p1259
tp1260
a(Vinsert
p1261
I42
VSimpleName: hasKey
p1262
tp1263
a(Vinsert
p1264
I42
VSimpleName: load
p1265
tp1266
a(Vinsert
p1267
I42
VSimpleName: extendsService
p1268
tp1269
a(Vinsert
p1270
I42
VSimpleName: getMessage
p1271
tp1272
a(Vinsert
p1273
I42
VSimpleName: dotclass
p1274
tp1275
a(Vinsert
p1276
I42
VSimpleName: returnTypeIsVoid
p1277
tp1278
a(Vinsert
p1279
I42
VSimpleName: getConstantValue
p1280
tp1281
a(Vinsert
p1282
I42
VSimpleName: shouldEnsureThreadControl
p1283
tp1284
a(Vinsert
p1285
I42
VSimpleName: getCodeModel
p1286
tp1287
a(Vinsert
p1288
I42
VSimpleName: extractUrlVariableNames
p1289
tp1290
a(Vinsert
p1291
I42
VSimpleName: getOnActivityResultDataParam
p1292
tp1293
a(Vinsert
p1294
I42
VSimpleName: validateConverters
p1295
tp1296
a(Vinsert
p1297
I42
VSimpleName: printAnnotationError
p1298
tp1299
a(Vinsert
p1300
I42
VSimpleName: getHandlers
p1301
tp1302
a(Vinsert
p1303
I42
VSimpleName: exists
p1304
tp1305
a(Vinsert
p1306
I42
VSimpleName: extendsPreferenceActivity
p1307
tp1308
a(Vinsert
p1309
I42
VSimpleName: startService
p1310
tp1311
a(Vinsert
p1312
I42
VSimpleName: isParameterized
p1313
tp1314
a(Vinsert
p1315
I42
VSimpleName: getBoolean
p1316
tp1317
a(Vinsert
p1318
I42
VSimpleName: build
p1319
tp1320
a(Vinsert
p1321
I42
VSimpleName: getParameterElement
p1322
tp1323
a(Vinsert
p1324
I42
VSimpleName: extendsReceiver
p1325
tp1326
a(Vinsert
p1327
I42
VSimpleName: substring
p1328
tp1329
a(Vinsert
p1330
I42
VSimpleName: isGreaterOrEquals
p1331
tp1332
a(Vinsert
p1333
I42
VSimpleName: forName
p1334
tp1335
a(Vinsert
p1336
I42
VSimpleName: latest
p1337
tp1338
a(Vinsert
p1339
I42
VSimpleName: onUiExpected
p1340
tp1341
a(Vinsert
p1342
I42
VSimpleName: getStackTrace
p1343
tp1344
a(Vinsert
p1345
I42
VSimpleName: getPluginHolder
p1346
tp1347
a(Vinsert
p1348
I42
VSimpleName: runTask
p1349
tp1350
a(Vinsert
p1351
I42
VSimpleName: getActualType
p1352
tp1353
a(Vinsert
p1354
I42
VSimpleName: getResultExtras
p1355
tp1356
a(Vinsert
p1357
I42
VSimpleName: setTextColor
p1358
tp1359
a(Vinsert
p1360
I42
VSimpleName: addTrimmedDocComment
p1361
tp1362
a(Vinsert
p1363
I42
VSimpleName: injectReleaseInDestroy
p1364
tp1365
a(Vinsert
p1366
I42
VSimpleName: getTypeElement
p1367
tp1368
a(Vinsert
p1369
I42
VSimpleName: getSuperNonConfigurationInstanceField
p1370
tp1371
a(Vinsert
p1372
I42
VSimpleName: wildcard
p1373
tp1374
a(Vinsert
p1375
I42
VSimpleName: method
p1376
tp1377
a(Vinsert
p1378
I42
VSimpleName: getParameters
p1379
tp1380
a(Vinsert
p1381
I42
VSimpleName: get
p1382
tp1383
a(Vinsert
p1384
I42
VSimpleName: doesntThrowException
p1385
tp1386
a(Vinsert
p1387
I42
VSimpleName: getKind
p1388
tp1389
a(Vinsert
p1390
I42
VSimpleName: values
p1391
tp1392
a(Vinsert
p1393
I42
VSimpleName: usingSupportV7Preference
p1394
tp1395
a(Vinsert
p1396
I42
VSimpleName: getOnNewIntent
p1397
tp1398
a(Vinsert
p1399
I42
VSimpleName: setContentText
p1400
tp1401
a(Vinsert
p1402
I42
VSimpleName: getItemId
p1403
tp1404
a(Vinsert
p1405
I42
VSimpleName: trace
p1406
tp1407
a(Vinsert
p1408
I42
VSimpleName: i
p1409
tp1410
a(Vinsert
p1411
I42
VSimpleName: methodsIn
p1412
tp1413
a(Vinsert
p1414
I42
VSimpleName: getNestingKind
p1415
tp1416
a(Vinsert
p1417
I42
VSimpleName: hasId
p1418
tp1419
a(Vinsert
p1420
I42
VSimpleName: getRef
p1421
tp1422
a(Vinsert
p1423
I42
VSimpleName: bindShadowClass
p1424
tp1425
a(Vinsert
p1426
I42
VSimpleName: getId
p1427
tp1428
a(Vinsert
p1429
I42
VSimpleName: getAction
p1430
tp1431
a(Vinsert
p1432
I42
VSimpleName: getTypedDao
p1433
tp1434
a(Vinsert
p1435
I42
VSimpleName: parseFloat
p1436
tp1437
a(Vinsert
p1438
I42
VSimpleName: setChecked
p1439
tp1440
a(Vinsert
p1441
I42
VSimpleName: getAndroidManifest
p1442
tp1443
a(Vinsert
p1444
I42
VSimpleName: getString
p1445
tp1446
a(Vinsert
p1447
I42
VSimpleName: checkDataBoundAnnotation
p1448
tp1449
a(Vinsert
p1450
I42
VSimpleName: isFalse
p1451
tp1452
a(Vinsert
p1453
I42
VSimpleName: enclosingElementHasEActivityOrEFragment
p1454
tp1455
a(Vinsert
p1456
I42
VSimpleName: usesHoloEverywhere
p1457
tp1458
a(Vinsert
p1459
I42
VSimpleName: getIdQualifiedName
p1460
tp1461
a(Vinsert
p1462
I42
VSimpleName: setValue
p1463
tp1464
a(Vinsert
p1465
I42
VSimpleName: createSourceFile
p1466
tp1467
a(Vinsert
p1468
I42
VSimpleName: replaceNotifier
p1469
tp1470
a(Vinsert
p1471
I42
VSimpleName: isDirectory
p1472
tp1473
a(Vinsert
p1474
I42
VSimpleName: toLowerCase
p1475
tp1476
a(Vinsert
p1477
I42
VSimpleName: addSuppressWarnings
p1478
tp1479
a(Vinsert
p1480
I42
VSimpleName: uiThreadWithId
p1481
tp1482
a(Vinsert
p1483
I42
VSimpleName: getEnvironment
p1484
tp1485
a(Vinsert
p1486
I42
VSimpleName: enclosingElementHasEnhance
p1487
tp1488
a(Vinsert
p1489
I42
VSimpleName: onPageScrollStateChanged
p1490
tp1491
a(Vinsert
p1492
I42
VSimpleName: name
p1493
tp1494
a(Vinsert
p1495
I42
VSimpleName: body
p1496
tp1497
a(Vinsert
p1498
I42
VSimpleName: isSmaller
p1499
tp1500
a(Vinsert
p1501
I42
VSimpleName: enclosingElementHasOneOfRestMethodAnnotations
p1502
tp1503
a(Vinsert
p1504
I42
VSimpleName: getAnnotationClass
p1505
tp1506
a(Vinsert
p1507
I42
VSimpleName: var
p1508
tp1509
a(Vinsert
p1510
I42
VSimpleName: indentRequired
p1511
tp1512
a(Vinsert
p1513
I42
VSimpleName: extendsApplication
p1514
tp1515
a(Vinsert
p1516
I42
VSimpleName: getBeforeCreateInstructions
p1517
tp1518
a(Vinsert
p1519
I42
VSimpleName: onViewChanged
p1520
tp1521
a(Vinsert
p1522
I42
VSimpleName: getFoundPreferenceHolder
p1523
tp1524
a(Vinsert
p1525
I42
VSimpleName: inOrder
p1526
tp1527
a(Vinsert
p1528
I42
VSimpleName: getName
p1529
tp1530
a(Vinsert
p1531
I42
VSimpleName: onReceive
p1532
tp1533
a(Vinsert
p1534
I42
VSimpleName: run
p1535
tp1536
a(Vinsert
p1537
I42
VSimpleName: getPreferenceScreen
p1538
tp1539
a(Vinsert
p1540
I42
VSimpleName: getInit
p1541
tp1542
a(Vinsert
p1543
I42
VSimpleName: getResourcesRef
p1544
tp1545
a(Vinsert
p1546
I42
VSimpleName: extractAnnotationClassParameter
p1547
tp1548
a(Vinsert
p1549
I42
VSimpleName: getCurrentLevel
p1550
tp1551
a(Vinsert
p1552
I42
VSimpleName: getInjectExtras
p1553
tp1554
a(Vinsert
p1555
I42
VSimpleName: isSatisfied
p1556
tp1557
a(Vinsert
p1558
I42
VSimpleName: _new
p1559
tp1560
a(Vinsert
p1561
I42
VSimpleName: getKeyCode
p1562
tp1563
a(Vinsert
p1564
I42
VSimpleName: enclosingElementExtendsPreferenceActivityOrPreferenceFragment
p1565
tp1566
a(Vinsert
p1567
I42
VSimpleName: isNotNull
p1568
tp1569
a(Vinsert
p1570
I42
VSimpleName: containsValue
p1571
tp1572
a(Vinsert
p1573
I42
VSimpleName: _case
p1574
tp1575
a(Vinsert
p1576
I42
VSimpleName: ofType
p1577
tp1578
a(Vinsert
p1579
I42
VSimpleName: getExpectedClass
p1580
tp1581
a(Vinsert
p1582
I42
VSimpleName: fieldsIn
p1583
tp1584
a(Vinsert
p1585
I42
VSimpleName: createFindNativeFragmentById
p1586
tp1587
a(Vinsert
p1588
I42
VSimpleName: getRequestCodeParam
p1589
tp1590
a(Vinsert
p1591
I42
VSimpleName: optional
p1592
tp1593
a(Vinsert
p1594
I42
VSimpleName: putParcelableArrayList
p1595
tp1596
a(Vinsert
p1597
I42
VSimpleName: acceptedHeaders
p1598
tp1599
a(Vinsert
p1600
I42
VSimpleName: extendsMenu
p1601
tp1602
a(Vinsert
p1603
I42
VSimpleName: updateEvent
p1604
tp1605
a(Vinsert
p1606
I42
VSimpleName: doesNotReturnArray
p1607
tp1608
a(Vinsert
p1609
I42
VSimpleName: getOnReceiveIntent
p1610
tp1611
a(Vinsert
p1612
I42
VSimpleName: extractAnnotationValue
p1613
tp1614
a(Vinsert
p1615
I42
VSimpleName: equals
p1616
tp1617
a(Vinsert
p1618
I42
VSimpleName: getNodeValue
p1619
tp1620
a(Vinsert
p1621
I42
VSimpleName: getProcessingEnvironment
p1622
tp1623
a(Vinsert
p1624
I42
VSimpleName: resIdsExist
p1625
tp1626
a(Vinsert
p1627
I42
VSimpleName: zeroParameter
p1628
tp1629
a(Vinsert
p1630
I42
VSimpleName: getEnclosingEBeanHolder
p1631
tp1632
a(Vinsert
p1633
I42
VSimpleName: multipart
p1634
tp1635
a(Vinsert
p1636
I42
VSimpleName: put
p1637
tp1638
a(Vinsert
p1639
I42
VSimpleName: getInitIfNonConfigurationNotNullBlock
p1640
tp1641
a(Vinsert
p1642
I42
VSimpleName: backgroundThrowException
p1643
tp1644
a(Vinsert
p1645
I42
VSimpleName: environment
p1646
tp1647
a(Vinsert
p1648
I42
VSimpleName: getQualifiedName
p1649
tp1650
a(Vinsert
p1651
I42
VSimpleName: state
p1652
tp1653
a(Vinsert
p1654
I42
VSimpleName: getValue
p1655
tp1656
a(Vinsert
p1657
I42
VSimpleName: anyString
p1658
tp1659
a(Vinsert
p1660
I42
VSimpleName: assign
p1661
tp1662
a(Vinsert
p1663
I42
VSimpleName: getDeclaredMethod
p1664
tp1665
a(Vinsert
p1666
I42
VSimpleName: extractAnnotationFieldRefs
p1667
tp1668
a(Vinsert
p1669
I42
VSimpleName: fullName
p1670
tp1671
a(Vinsert
p1672
I42
VSimpleName: getOnKeyUpSwitchBody
p1673
tp1674
a(Vinsert
p1675
I42
VSimpleName: enclosingElementIsNotAbstractIfNotAbstract
p1676
tp1677
a(Vinsert
p1678
I42
VSimpleName: printStackTrace
p1679
tp1680
a(Vinsert
p1681
I42
VSimpleName: _then
p1682
tp1683
a(Vinsert
p1684
I42
VSimpleName: serial
p1685
tp1686
a(Vinsert
p1687
I42
VSimpleName: processingOver
p1688
tp1689
a(Vinsert
p1690
I42
VSimpleName: extendsActivity
p1691
tp1692
a(Vinsert
p1693
I42
VSimpleName: hasEnhance
p1694
tp1695
a(Vinsert
p1696
I42
VSimpleName: getResourceMethodName
p1697
tp1698
a(Vinsert
p1699
I42
VSimpleName: init
p1700
tp1701
a(Vinsert
p1702
I42
VSimpleName: getSupportedAnnotationTypes
p1703
tp1704
a(Vinsert
p1705
I42
VSimpleName: extendsViewGroup
p1706
tp1707
a(Vinsert
p1708
I42
VSimpleName: declareHttpHeaders
p1709
tp1710
a(Vinsert
p1711
I42
VSimpleName: getParcelableArray
p1712
tp1713
a(Vinsert
p1714
I42
VSimpleName: _try
p1715
tp1716
a(Vinsert
p1717
I42
VSimpleName: matcher
p1718
tp1719
a(Vinsert
p1720
I42
VSimpleName: size
p1721
tp1722
a(Vinsert
p1723
I42
VSimpleName: extendsView
p1724
tp1725
a(Vinsert
p1726
I42
VSimpleName: getTypeUtils
p1727
tp1728
a(Vinsert
p1729
I42
VSimpleName: warn
p1730
tp1731
a(Vinsert
p1732
I42
VSimpleName: getResource
p1733
tp1734
a(Vinsert
p1735
I42
VSimpleName: isNotFinal
p1736
tp1737
a(Vinsert
p1738
I42
VSimpleName: createDelegatingAnonymousRunnableClass
p1739
tp1740
a(Vinsert
p1741
I42
VSimpleName: getCaseBlock
p1742
tp1743
a(Vinsert
p1744
I42
VSimpleName: getDataBindingField
p1745
tp1746
a(Vinsert
p1747
I42
VSimpleName: getOnStopTrackingTouchBody
p1748
tp1749
a(Vinsert
p1750
I42
VSimpleName: ref
p1751
tp1752
a(Vinsert
p1753
I42
VSimpleName: elementHasRestAnnotationOrEnclosingElementHasRestAnnotationAndElementHasMethodRestAnnotation
p1754
tp1755
a(Vinsert
p1756
I42
VSimpleName: item
p1757
tp1758
a(Vinsert
p1759
I42
VSimpleName: getModifiers
p1760
tp1761
a(Vinsert
p1762
I42
VSimpleName: getIdStringFromIdFieldRef
p1763
tp1764
a(Vinsert
p1765
I42
VSimpleName: getUpperBound
p1766
tp1767
a.