(lp0
(Vinsert
p1
I42
VSimpleName: rawQuery
p2
tp3
a(Vinsert
p4
I42
VSimpleName: deserialize
p5
tp6
a(Vinsert
p7
I42
VSimpleName: getData
p8
tp9
a(Vinsert
p10
I42
VSimpleName: removeWeakChangeListener
p11
tp12
a(Vinsert
p13
I42
VSimpleName: neq
p14
tp15
a(Vinsert
p16
I42
VSimpleName: write
p17
tp18
a(Vinsert
p19
I42
VSimpleName: getPrivateSession
p20
tp21
a(Vinsert
p22
I42
VSimpleName: setEmail
p23
tp24
a(Vinsert
p25
I42
VSimpleName: getDeclaredConstructor
p26
tp27
a(Vinsert
p28
I42
VSimpleName: realmOpened
p29
tp30
a(Vinsert
p31
I42
VSimpleName: removeChangeListeners
p32
tp33
a(Vinsert
p34
I42
VSimpleName: userRefresh
p35
tp36
a(Vinsert
p37
I42
VSimpleName: addLink
p38
tp39
a(Vinsert
p40
I42
VSimpleName: getVotes
p41
tp42
a(Vinsert
p43
I42
VSimpleName: schemaVersion
p44
tp45
a(Vinsert
p46
I42
VSimpleName: startSyncServer
p47
tp48
a(Vinsert
p49
I42
VSimpleName: onSuccess
p50
tp51
a(Vinsert
p52
I42
VSimpleName: registerReceiver
p53
tp54
a(Vinsert
p55
I42
VSimpleName: contains
p56
tp57
a(Vinsert
p58
I42
VSimpleName: reset
p59
tp60
a(Vinsert
p61
I42
VSimpleName: addNull
p62
tp63
a(Vinsert
p64
I42
VSimpleName: listIterator
p65
tp66
a(Vinsert
p67
I42
VSimpleName: isRecoveryConfiguration
p68
tp69
a(Vinsert
p70
I42
VSimpleName: modules
p71
tp72
a(Vinsert
p73
I42
VSimpleName: insertRow
p74
tp75
a(Vinsert
p76
I42
VSimpleName: lookup
p77
tp78
a(Vinsert
p79
I42
VSimpleName: getCount
p80
tp81
a(Vinsert
p82
I42
VSimpleName: getAssets
p83
tp84
a(Vinsert
p85
I42
VSimpleName: downloadAllServerChanges
p86
tp87
a(Vinsert
p88
I42
VSimpleName: createRealmObjectSchema
p89
tp90
a(Vinsert
p91
I42
VSimpleName: getUserToken
p92
tp93
a(Vinsert
p94
I42
VSimpleName: getColumnBinary
p95
tp96
a(Vinsert
p97
I42
VSimpleName: getAccessToken
p98
tp99
a(Vinsert
p100
I42
VSimpleName: range
p101
tp102
a(Vinsert
p103
I42
VSimpleName: observeOn
p104
tp105
a(Vinsert
p106
I42
VSimpleName: expect
p107
tp108
a(Vinsert
p109
I42
VSimpleName: sleep
p110
tp111
a(Vinsert
p112
I42
VSimpleName: subscribe
p113
tp114
a(Vinsert
p115
I42
VSimpleName: executeTransactionAsync
p116
tp117
a(Vinsert
p118
I42
VSimpleName: peek
p119
tp120
a(Vinsert
p121
I42
VSimpleName: isEmpty
p122
tp123
a(Vinsert
p124
I42
VSimpleName: getTargetTable
p125
tp126
a(Vinsert
p127
I42
VSimpleName: createQueryFromList
p128
tp129
a(Vinsert
p130
I42
VSimpleName: createStandardFieldDescriptor
p131
tp132
a(Vinsert
p133
I42
VSimpleName: getTargetException
p134
tp135
a(Vinsert
p136
I42
VSimpleName: getCause
p137
tp138
a(Vinsert
p139
I42
VSimpleName: getByValue
p140
tp141
a(Vinsert
p142
I42
VSimpleName: getLinkList
p143
tp144
a(Vinsert
p145
I42
VSimpleName: onLooperThread
p146
tp147
a(Vinsert
p148
I42
VSimpleName: realmGet$columnRealmList
p149
tp150
a(Vinsert
p151
I42
VSimpleName: autoUpdateNotification
p152
tp153
a(Vinsert
p154
I42
VSimpleName: getServerUrl
p155
tp156
a(Vinsert
p157
I42
VSimpleName: GetTimeInMicroSec
p158
tp159
a(Vinsert
p160
I42
VSimpleName: asyncDisposeRow
p161
tp162
a(Vinsert
p163
I42
VSimpleName: populateUsingJsonStream
p164
tp165
a(Vinsert
p166
I42
VSimpleName: randomUUID
p167
tp168
a(Vinsert
p169
I42
VSimpleName: addLong
p170
tp171
a(Vinsert
p172
I42
VSimpleName: next
p173
tp174
a(Vinsert
p175
I42
VSimpleName: getParentFile
p176
tp177
a(Vinsert
p178
I42
VSimpleName: createFromDynamicClass
p179
tp180
a(Vinsert
p181
I42
VSimpleName: setUserStore
p182
tp183
a(Vinsert
p184
I42
VSimpleName: getDogs
p185
tp186
a(Vinsert
p187
I42
VSimpleName: getDefaultConfiguration
p188
tp189
a(Vinsert
p190
I42
VSimpleName: getRow
p191
tp192
a(Vinsert
p193
I42
VSimpleName: removeChangeListener
p194
tp195
a(Vinsert
p196
I42
VSimpleName: isInterrupted
p197
tp198
a(Vinsert
p199
I42
VSimpleName: entrySet
p200
tp201
a(Vinsert
p202
I42
VSimpleName: printTable
p203
tp204
a(Vinsert
p205
I42
VSimpleName: setObjects
p206
tp207
a(Vinsert
p208
I42
VSimpleName: getSubTable
p209
tp210
a(Vinsert
p211
I42
VSimpleName: setColumnLong
p212
tp213
a(Vinsert
p214
I42
VSimpleName: beginInitializer
p215
tp216
a(Vinsert
p217
I42
VSimpleName: isNull
p218
tp219
a(Vinsert
p220
I42
VSimpleName: nativeSetLong
p221
tp222
a(Vinsert
p223
I42
VSimpleName: copyColumnInfoFrom
p224
tp225
a(Vinsert
p226
I42
VSimpleName: unmodifiableSet
p227
tp228
a(Vinsert
p229
I42
VSimpleName: convertColumnToNullable
p230
tp231
a(Vinsert
p232
I42
VSimpleName: getFieldNames
p233
tp234
a(Vinsert
p235
I42
VSimpleName: min
p236
tp237
a(Vinsert
p238
I42
VSimpleName: addPrimaryKey
p239
tp240
a(Vinsert
p241
I42
VSimpleName: getDouble
p242
tp243
a(Vinsert
p244
I42
VSimpleName: getDeclaredConstructors
p245
tp246
a(Vinsert
p247
I42
VSimpleName: setColumnRealmList
p248
tp249
a(Vinsert
p250
I42
VSimpleName: equalsIgnoreCase
p251
tp252
a(Vinsert
p253
I42
VSimpleName: checkImmutable
p254
tp255
a(Vinsert
p256
I42
VSimpleName: setFieldId
p257
tp258
a(Vinsert
p259
I42
VSimpleName: getFloat
p260
tp261
a(Vinsert
p262
I42
VSimpleName: delete
p263
tp264
a(Vinsert
p265
I42
VSimpleName: userLogin
p266
tp267
a(Vinsert
p268
I42
VSimpleName: random
p269
tp270
a(Vinsert
p271
I42
VSimpleName: getSharedRealm
p272
tp273
a(Vinsert
p274
I42
VSimpleName: asObservable
p275
tp276
a(Vinsert
p277
I42
VSimpleName: eq
p278
tp279
a(Vinsert
p280
I42
VSimpleName: minimum
p281
tp282
a(Vinsert
p283
I42
VSimpleName: setConnectTimeout
p284
tp285
a(Vinsert
p286
I42
VSimpleName: makeText
p287
tp288
a(Vinsert
p289
I42
VSimpleName: getRealmResults
p290
tp291
a(Vinsert
p292
I42
VSimpleName: getAllTypesRealmModel
p293
tp294
a(Vinsert
p295
I42
VSimpleName: setCurrentItem
p296
tp297
a(Vinsert
p298
I42
VSimpleName: matches
p299
tp300
a(Vinsert
p301
I42
VSimpleName: createConfiguration
p302
tp303
a(Vinsert
p304
I42
VSimpleName: addPendingRow
p305
tp306
a(Vinsert
p307
I42
VSimpleName: compactRealm
p308
tp309
a(Vinsert
p310
I42
VSimpleName: isRealmObject
p311
tp312
a(Vinsert
p313
I42
VSimpleName: distinct
p314
tp315
a(Vinsert
p316
I42
VSimpleName: invoke
p317
tp318
a(Vinsert
p319
I42
VSimpleName: getTempReference
p320
tp321
a(Vinsert
p322
I42
VSimpleName: findFirst
p323
tp324
a(Vinsert
p325
I42
VSimpleName: openWriter
p326
tp327
a(Vinsert
p328
I42
VSimpleName: realmGetRow
p329
tp330
a(Vinsert
p331
I42
VSimpleName: addPersistedProperty
p332
tp333
a(Vinsert
p334
I42
VSimpleName: getDefaultInstance
p335
tp336
a(Vinsert
p337
I42
VSimpleName: createQuery
p338
tp339
a(Vinsert
p340
I42
VSimpleName: setNull
p341
tp342
a(Vinsert
p343
I42
VSimpleName: getModuleClasses
p344
tp345
a(Vinsert
p346
I42
VSimpleName: usernamePassword
p347
tp348
a(Vinsert
p349
I42
VSimpleName: getColumnIndex
p350
tp351
a(Vinsert
p352
I42
VSimpleName: setDefaultDurability
p353
tp354
a(Vinsert
p355
I42
VSimpleName: newList
p356
tp357
a(Vinsert
p358
I42
VSimpleName: setEndDate
p359
tp360
a(Vinsert
p361
I42
VSimpleName: print
p362
tp363
a(Vinsert
p364
I42
VSimpleName: not
p365
tp366
a(Vinsert
p367
I42
VSimpleName: toJson
p368
tp369
a(Vinsert
p370
I42
VSimpleName: notifyCommit
p371
tp372
a(Vinsert
p373
I42
VSimpleName: firstUncheckedRow
p374
tp375
a(Vinsert
p376
I42
VSimpleName: getTargetRowIndex
p377
tp378
a(Vinsert
p379
I42
VSimpleName: getSubtableSpec
p380
tp381
a(Vinsert
p382
I42
VSimpleName: createRealmOrGetFromCache
p383
tp384
a(Vinsert
p385
I42
VSimpleName: keys
p386
tp387
a(Vinsert
p388
I42
VSimpleName: user
p389
tp390
a(Vinsert
p391
I42
VSimpleName: errorHandler
p392
tp393
a(Vinsert
p394
I42
VSimpleName: realmSetRowIndex
p395
tp396
a(Vinsert
p397
I42
VSimpleName: hasSearchIndex
p398
tp399
a(Vinsert
p400
I42
VSimpleName: setColumnString
p401
tp402
a(Vinsert
p403
I42
VSimpleName: removeByObserver
p404
tp405
a(Vinsert
p406
I42
VSimpleName: setColumnFloat
p407
tp408
a(Vinsert
p409
I42
VSimpleName: deleteRealm
p410
tp411
a(Vinsert
p412
I42
VSimpleName: doClose
p413
tp414
a(Vinsert
p415
I42
VSimpleName: decrementAndGet
p416
tp417
a(Vinsert
p418
I42
VSimpleName: getObjectSchemaInfo
p419
tp420
a(Vinsert
p421
I42
VSimpleName: getRealm$realm
p422
tp423
a(Vinsert
p424
I42
VSimpleName: isClosed
p425
tp426
a(Vinsert
p427
I42
VSimpleName: set
p428
tp429
a(Vinsert
p430
I42
VSimpleName: startsWith
p431
tp432
a(Vinsert
p433
I42
VSimpleName: isInTransaction
p434
tp435
a(Vinsert
p436
I42
VSimpleName: isUnsubscribed
p437
tp438
a(Vinsert
p439
I42
VSimpleName: initialize
p440
tp441
a(Vinsert
p442
I42
VSimpleName: at
p443
tp444
a(Vinsert
p445
I42
VSimpleName: getReadableValue
p446
tp447
a(Vinsert
p448
I42
VSimpleName: private_debug_close
p449
tp450
a(Vinsert
p451
I42
VSimpleName: w
p452
tp453
a(Vinsert
p454
I42
VSimpleName: expiresMs
p455
tp456
a(Vinsert
p457
I42
VSimpleName: setId
p458
tp459
a(Vinsert
p460
I42
VSimpleName: emulateMainThread
p461
tp462
a(Vinsert
p463
I42
VSimpleName: remove
p464
tp465
a(Vinsert
p466
I42
VSimpleName: setThreadPriority
p467
tp468
a(Vinsert
p469
I42
VSimpleName: getColumnRealmList
p470
tp471
a(Vinsert
p472
I42
VSimpleName: getExtra
p473
tp474
a(Vinsert
p475
I42
VSimpleName: getErrorMessage
p476
tp477
a(Vinsert
p478
I42
VSimpleName: getSystemService
p479
tp480
a(Vinsert
p481
I42
VSimpleName: addView
p482
tp483
a(Vinsert
p484
I42
VSimpleName: sort
p485
tp486
a(Vinsert
p487
I42
VSimpleName: getStringExtra
p488
tp489
a(Vinsert
p490
I42
VSimpleName: removeAllTargetRows
p491
tp492
a(Vinsert
p493
I42
VSimpleName: bindService
p494
tp495
a(Vinsert
p496
I42
VSimpleName: emitField
p497
tp498
a(Vinsert
p499
I42
VSimpleName: getPosition
p500
tp501
a(Vinsert
p502
I42
VSimpleName: setIndexString
p503
tp504
a(Vinsert
p505
I42
VSimpleName: createInstance
p506
tp507
a(Vinsert
p508
I42
VSimpleName: containsString
p509
tp510
a(Vinsert
p511
I42
VSimpleName: nativeGetRow
p512
tp513
a(Vinsert
p514
I42
VSimpleName: indexOf
p515
tp516
a(Vinsert
p517
I42
VSimpleName: isAssignable
p518
tp519
a(Vinsert
p520
I42
VSimpleName: getReturnType
p521
tp522
a(Vinsert
p523
I42
VSimpleName: url
p524
tp525
a(Vinsert
p526
I42
VSimpleName: setVisibility
p527
tp528
a(Vinsert
p529
I42
VSimpleName: createConfigurationBuilder
p530
tp531
a(Vinsert
p532
I42
VSimpleName: matchObject
p533
tp534
a(Vinsert
p535
I42
VSimpleName: postDelayed
p536
tp537
a(Vinsert
p538
I42
VSimpleName: split
p539
tp540
a(Vinsert
p541
I42
VSimpleName: getAnnotation
p542
tp543
a(Vinsert
p544
I42
VSimpleName: insertBinary
p545
tp546
a(Vinsert
p547
I42
VSimpleName: capitalize
p548
tp549
a(Vinsert
p550
I42
VSimpleName: cancelTransaction
p551
tp552
a(Vinsert
p553
I42
VSimpleName: realmSet$fieldDoubleNull
p554
tp555
a(Vinsert
p556
I42
VSimpleName: hasMessages
p557
tp558
a(Vinsert
p559
I42
VSimpleName: nativeClose
p560
tp561
a(Vinsert
p562
I42
VSimpleName: getInstrumentation
p563
tp564
a(Vinsert
p565
I42
VSimpleName: buildTable
p566
tp567
a(Vinsert
p568
I42
VSimpleName: commit
p569
tp570
a(Vinsert
p571
I42
VSimpleName: fromRefreshToken
p572
tp573
a(Vinsert
p574
I42
VSimpleName: beginTransaction
p575
tp576
a(Vinsert
p577
I42
VSimpleName: setColumnRealmObject
p578
tp579
a(Vinsert
p580
I42
VSimpleName: setRealm
p581
tp582
a(Vinsert
p583
I42
VSimpleName: transformerApplied
p584
tp585
a(Vinsert
p586
I42
VSimpleName: createQueryFromResult
p587
tp588
a(Vinsert
p589
I42
VSimpleName: getAuthenticationUrl
p590
tp591
a(Vinsert
p592
I42
VSimpleName: logout
p593
tp594
a(Vinsert
p595
I42
VSimpleName: writeCopy
p596
tp597
a(Vinsert
p598
I42
VSimpleName: findAllDate
p599
tp600
a(Vinsert
p601
I42
VSimpleName: value
p602
tp603
a(Vinsert
p604
I42
VSimpleName: asType
p605
tp606
a(Vinsert
p607
I42
VSimpleName: insertSubTable
p608
tp609
a(Vinsert
p610
I42
VSimpleName: getLong
p611
tp612
a(Vinsert
p613
I42
VSimpleName: onChange
p614
tp615
a(Vinsert
p616
I42
VSimpleName: emitPackage
p617
tp618
a(Vinsert
p619
I42
VSimpleName: keepStrongReference
p620
tp621
a(Vinsert
p622
I42
VSimpleName: or
p623
tp624
a(Vinsert
p625
I42
VSimpleName: getFloatValue
p626
tp627
a(Vinsert
p628
I42
VSimpleName: minDate
p629
tp630
a(Vinsert
p631
I42
VSimpleName: getRealmListType
p632
tp633
a(Vinsert
p634
I42
VSimpleName: executeRealmVersionUpdate
p635
tp636
a(Vinsert
p637
I42
VSimpleName: parse
p638
tp639
a(Vinsert
p640
I42
VSimpleName: hashCode
p641
tp642
a(Vinsert
p643
I42
VSimpleName: about
p644
tp645
a(Vinsert
p646
I42
VSimpleName: beginRead
p647
tp648
a(Vinsert
p649
I42
VSimpleName: getTableSpec
p650
tp651
a(Vinsert
p652
I42
VSimpleName: deleteAll
p653
tp654
a(Vinsert
p655
I42
VSimpleName: copyOf
p656
tp657
a(Vinsert
p658
I42
VSimpleName: maximumInt
p659
tp660
a(Vinsert
p661
I42
VSimpleName: getColumnDate
p662
tp663
a(Vinsert
p664
I42
VSimpleName: mkdir
p665
tp666
a(Vinsert
p667
I42
VSimpleName: checkThread
p668
tp669
a(Vinsert
p670
I42
VSimpleName: removeSearchIndex
p671
tp672
a(Vinsert
p673
I42
VSimpleName: setAutoRefresh
p674
tp675
a(Vinsert
p676
I42
VSimpleName: getColumnCount
p677
tp678
a(Vinsert
p679
I42
VSimpleName: findNext
p680
tp681
a(Vinsert
p682
I42
VSimpleName: getNativeMemUsage
p683
tp684
a(Vinsert
p685
I42
VSimpleName: all
p686
tp687
a(Vinsert
p688
I42
VSimpleName: lock
p689
tp690
a(Vinsert
p691
I42
VSimpleName: accessToken
p692
tp693
a(Vinsert
p694
I42
VSimpleName: replaceAll
p695
tp696
a(Vinsert
p697
I42
VSimpleName: copyToRealmOrUpdate
p698
tp699
a(Vinsert
p700
I42
VSimpleName: keySet
p701
tp702
a(Vinsert
p703
I42
VSimpleName: getState
p704
tp705
a(Vinsert
p706
I42
VSimpleName: toUpperCase
p707
tp708
a(Vinsert
p709
I42
VSimpleName: testComplete
p710
tp711
a(Vinsert
p712
I42
VSimpleName: lessThan
p713
tp714
a(Vinsert
p715
I42
VSimpleName: currentUser
p716
tp717
a(Vinsert
p718
I42
VSimpleName: getInstance
p719
tp720
a(Vinsert
p721
I42
VSimpleName: isEmptyString
p722
tp723
a(Vinsert
p724
I42
VSimpleName: edit
p725
tp726
a(Vinsert
p727
I42
VSimpleName: waitRealmThreadExecutorFinish
p728
tp729
a(Vinsert
p730
I42
VSimpleName: fromUsernamePassword
p731
tp732
a(Vinsert
p733
I42
VSimpleName: setFieldBinary
p734
tp735
a(Vinsert
p736
I42
VSimpleName: interrupt
p737
tp738
a(Vinsert
p739
I42
VSimpleName: getBinaryData
p740
tp741
a(Vinsert
p742
I42
VSimpleName: getClassName
p743
tp744
a(Vinsert
p745
I42
VSimpleName: setAge
p746
tp747
a(Vinsert
p748
I42
VSimpleName: thenReturn
p749
tp750
a(Vinsert
p751
I42
VSimpleName: waitForChange
p752
tp753
a(Vinsert
p754
I42
VSimpleName: compareTo
p755
tp756
a(Vinsert
p757
I42
VSimpleName: setLong
p758
tp759
a(Vinsert
p760
I42
VSimpleName: onError
p761
tp762
a(Vinsert
p763
I42
VSimpleName: isRuleUsed
p764
tp765
a(Vinsert
p766
I42
VSimpleName: getDog
p767
tp768
a(Vinsert
p769
I42
VSimpleName: getAnnotationMirrors
p770
tp771
a(Vinsert
p772
I42
VSimpleName: getIndex
p773
tp774
a(Vinsert
p775
I42
VSimpleName: errorCode
p776
tp777
a(Vinsert
p778
I42
VSimpleName: onCall
p779
tp780
a(Vinsert
p781
I42
VSimpleName: maximum
p782
tp783
a(Vinsert
p784
I42
VSimpleName: plant
p785
tp786
a(Vinsert
p787
I42
VSimpleName: nextState
p788
tp789
a(Vinsert
p790
I42
VSimpleName: restartLoader
p791
tp792
a(Vinsert
p793
I42
VSimpleName: getFieldBooleanList
p794
tp795
a(Vinsert
p796
I42
VSimpleName: setFieldBytesNotNull
p797
tp798
a(Vinsert
p799
I42
VSimpleName: error
p800
tp801
a(Vinsert
p802
I42
VSimpleName: getProxyClassName
p803
tp804
a(Vinsert
p805
I42
VSimpleName: debug
p806
tp807
a(Vinsert
p808
I42
VSimpleName: allocateDirect
p809
tp810
a(Vinsert
p811
I42
VSimpleName: getIndicesMap
p812
tp813
a(Vinsert
p814
I42
VSimpleName: getColumnName
p815
tp816
a(Vinsert
p817
I42
VSimpleName: getPath
p818
tp819
a(Vinsert
p820
I42
VSimpleName: getViewClass
p821
tp822
a(Vinsert
p823
I42
VSimpleName: shouldCompact
p824
tp825
a(Vinsert
p826
I42
VSimpleName: setIgnoreString
p827
tp828
a(Vinsert
p829
I42
VSimpleName: getDesc
p830
tp831
a(Vinsert
p832
I42
VSimpleName: getText
p833
tp834
a(Vinsert
p835
I42
VSimpleName: getColumnDouble
p836
tp837
a(Vinsert
p838
I42
VSimpleName: getKey
p839
tp840
a(Vinsert
p841
I42
VSimpleName: sync
p842
tp843
a(Vinsert
p844
I42
VSimpleName: getEnclosingElement
p845
tp846
a(Vinsert
p847
I42
VSimpleName: processSubtables
p848
tp849
a(Vinsert
p850
I42
VSimpleName: getTable
p851
tp852
a(Vinsert
p853
I42
VSimpleName: checkCanDeliverNotification
p854
tp855
a(Vinsert
p856
I42
VSimpleName: insertString
p857
tp858
a(Vinsert
p859
I42
VSimpleName: getRootTable
p860
tp861
a(Vinsert
p862
I42
VSimpleName: isNotNull
p863
tp864
a(Vinsert
p865
I42
VSimpleName: none
p866
tp867
a(Vinsert
p868
I42
VSimpleName: emitStatement
p869
tp870
a(Vinsert
p871
I42
VSimpleName: hasTable
p872
tp873
a(Vinsert
p874
I42
VSimpleName: containsHashCode
p875
tp876
a(Vinsert
p877
I42
VSimpleName: addColumn
p878
tp879
a(Vinsert
p880
I42
VSimpleName: populateForMultiSort
p881
tp882
a(Vinsert
p883
I42
VSimpleName: getTargetContext
p884
tp885
a(Vinsert
p886
I42
VSimpleName: closeTestRealms
p887
tp888
a(Vinsert
p889
I42
VSimpleName: newCall
p890
tp891
a(Vinsert
p892
I42
VSimpleName: leak
p893
tp894
a(Vinsert
p895
I42
VSimpleName: i
p896
tp897
a(Vinsert
p898
I42
VSimpleName: getTestInstance
p899
tp900
a(Vinsert
p901
I42
VSimpleName: notEqualTo
p902
tp903
a(Vinsert
p904
I42
VSimpleName: insertDone
p905
tp906
a(Vinsert
p907
I42
VSimpleName: callWithLock
p908
tp909
a(Vinsert
p910
I42
VSimpleName: getTargetFieldType
p911
tp912
a(Vinsert
p913
I42
VSimpleName: validateMultiSortParameters
p914
tp915
a(Vinsert
p916
I42
VSimpleName: getSchemeSpecificPart
p917
tp918
a(Vinsert
p919
I42
VSimpleName: realmGet$proxyState
p920
tp921
a(Vinsert
p922
I42
VSimpleName: createDog
p923
tp924
a(Vinsert
p925
I42
VSimpleName: doubleValue
p926
tp927
a(Vinsert
p928
I42
VSimpleName: type
p929
tp930
a(Vinsert
p931
I42
VSimpleName: findFirstString
p932
tp933
a(Vinsert
p934
I42
VSimpleName: isDetached
p935
tp936
a(Vinsert
p937
I42
VSimpleName: updateList
p938
tp939
a(Vinsert
p940
I42
VSimpleName: setRequired
p941
tp942
a(Vinsert
p943
I42
VSimpleName: remaining
p944
tp945
a(Vinsert
p946
I42
VSimpleName: networkInUse
p947
tp948
a(Vinsert
p949
I42
VSimpleName: checkNotInSync
p950
tp951
a(Vinsert
p952
I42
VSimpleName: haveColumnInfo
p953
tp954
a(Vinsert
p955
I42
VSimpleName: streamToString
p956
tp957
a(Vinsert
p958
I42
VSimpleName: writeToMem
p959
tp960
a(Vinsert
p961
I42
VSimpleName: removeListener
p962
tp963
a(Vinsert
p964
I42
VSimpleName: findViewById
p965
tp966
a(Vinsert
p967
I42
VSimpleName: deleteRealmBeforeOpening
p968
tp969
a(Vinsert
p970
I42
VSimpleName: getFieldType
p971
tp972
a(Vinsert
p973
I42
VSimpleName: wrap
p974
tp975
a(Vinsert
p976
I42
VSimpleName: getMainLooper
p977
tp978
a(Vinsert
p979
I42
VSimpleName: prepare
p980
tp981
a(Vinsert
p982
I42
VSimpleName: currentTimeMillis
p983
tp984
a(Vinsert
p985
I42
VSimpleName: group
p986
tp987
a(Vinsert
p988
I42
VSimpleName: emitSingleLineComment
p989
tp990
a(Vinsert
p991
I42
VSimpleName: capacity
p992
tp993
a(Vinsert
p994
I42
VSimpleName: clear
p995
tp996
a(Vinsert
p997
I42
VSimpleName: nextBytes
p998
tp999
a(Vinsert
p1000
I42
VSimpleName: removeDefaultConfiguration
p1001
tp1002
a(Vinsert
p1003
I42
VSimpleName: getModelClasses
p1004
tp1005
a(Vinsert
p1006
I42
VSimpleName: populateFromJsonObject
p1007
tp1008
a(Vinsert
p1009
I42
VSimpleName: useDelimiter
p1010
tp1011
a(Vinsert
p1012
I42
VSimpleName: createTable
p1013
tp1014
a(Vinsert
p1015
I42
VSimpleName: insertBoolean
p1016
tp1017
a(Vinsert
p1018
I42
VSimpleName: toArray
p1019
tp1020
a(Vinsert
p1021
I42
VSimpleName: parseLong
p1022
tp1023
a(Vinsert
p1024
I42
VSimpleName: getNativePtr
p1025
tp1026
a(Vinsert
p1027
I42
VSimpleName: setDefaultConfiguration
p1028
tp1029
a(Vinsert
p1030
I42
VSimpleName: setTabListener
p1031
tp1032
a(Vinsert
p1033
I42
VSimpleName: averageDouble
p1034
tp1035
a(Vinsert
p1036
I42
VSimpleName: setChild
p1037
tp1038
a(Vinsert
p1039
I42
VSimpleName: setTimeZone
p1040
tp1041
a(Vinsert
p1042
I42
VSimpleName: getServerCertificateFilePath
p1043
tp1044
a(Vinsert
p1045
I42
VSimpleName: insertLong
p1046
tp1047
a(Vinsert
p1048
I42
VSimpleName: myLooper
p1049
tp1050
a(Vinsert
p1051
I42
VSimpleName: getFromRow
p1052
tp1053
a(Vinsert
p1054
I42
VSimpleName: calculateExponentialDelay
p1055
tp1056
a(Vinsert
p1057
I42
VSimpleName: fromInt
p1058
tp1059
a(Vinsert
p1060
I42
VSimpleName: poll
p1061
tp1062
a(Vinsert
p1063
I42
VSimpleName: getProtocol
p1064
tp1065
a(Vinsert
p1066
I42
VSimpleName: parentClassLoader
p1067
tp1068
a(Vinsert
p1069
I42
VSimpleName: experiment
p1070
tp1071
a(Vinsert
p1072
I42
VSimpleName: writeToFile
p1073
tp1074
a(Vinsert
p1075
I42
VSimpleName: waitForEnter
p1076
tp1077
a(Vinsert
p1078
I42
VSimpleName: transform
p1079
tp1080
a(Vinsert
p1081
I42
VSimpleName: cleanRows
p1082
tp1083
a(Vinsert
p1084
I42
VSimpleName: getActiveCount
p1085
tp1086
a(Vinsert
p1087
I42
VSimpleName: copyRealmFromAssets
p1088
tp1089
a(Vinsert
p1090
I42
VSimpleName: containsKey
p1091
tp1092
a(Vinsert
p1093
I42
VSimpleName: getFieldRandomPrimaryKey
p1094
tp1095
a(Vinsert
p1096
I42
VSimpleName: disableSnapshot
p1097
tp1098
a(Vinsert
p1099
I42
VSimpleName: setFieldInt
p1100
tp1101
a(Vinsert
p1102
I42
VSimpleName: createFieldDescriptor
p1103
tp1104
a(Vinsert
p1105
I42
VSimpleName: getCompactOnLaunchCallback
p1106
tp1107
a(Vinsert
p1108
I42
VSimpleName: tableNameToClassName
p1109
tp1110
a(Vinsert
p1111
I42
VSimpleName: nextName
p1112
tp1113
a(Vinsert
p1114
I42
VSimpleName: putExtra
p1115
tp1116
a(Vinsert
p1117
I42
VSimpleName: mapLibraryName
p1118
tp1119
a(Vinsert
p1120
I42
VSimpleName: println
p1121
tp1122
a(Vinsert
p1123
I42
VSimpleName: getSessionStopPolicy
p1124
tp1125
a(Vinsert
p1126
I42
VSimpleName: isSyncConfiguration
p1127
tp1128
a(Vinsert
p1129
I42
VSimpleName: isRequired
p1130
tp1131
a(Vinsert
p1132
I42
VSimpleName: getProperty
p1133
tp1134
a(Vinsert
p1135
I42
VSimpleName: append
p1136
tp1137
a(Vinsert
p1138
I42
VSimpleName: onRealmClosed
p1139
tp1140
a(Vinsert
p1141
I42
VSimpleName: last
p1142
tp1143
a(Vinsert
p1144
I42
VSimpleName: getColumnIndices
p1145
tp1146
a(Vinsert
p1147
I42
VSimpleName: getAll
p1148
tp1149
a(Vinsert
p1150
I42
VSimpleName: SECONDARY_FIELD_VALUE
p1151
tp1152
a(Vinsert
p1153
I42
VSimpleName: nextControlFlow
p1154
tp1155
a(Vinsert
p1156
I42
VSimpleName: newBuilder
p1157
tp1158
a(Vinsert
p1159
I42
VSimpleName: versionCompatible
p1160
tp1161
a(Vinsert
p1162
I42
VSimpleName: like
p1163
tp1164
a(Vinsert
p1165
I42
VSimpleName: beginsWith
p1166
tp1167
a(Vinsert
p1168
I42
VSimpleName: resetRealmThreadExecutor
p1169
tp1170
a(Vinsert
p1171
I42
VSimpleName: intValue
p1172
tp1173
a(Vinsert
p1174
I42
VSimpleName: getAllSessions
p1175
tp1176
a(Vinsert
p1177
I42
VSimpleName: render
p1178
tp1179
a(Vinsert
p1180
I42
VSimpleName: contentEquals
p1181
tp1182
a(Vinsert
p1183
I42
VSimpleName: info
p1184
tp1185
a(Vinsert
p1186
I42
VSimpleName: fail
p1187
tp1188
a(Vinsert
p1189
I42
VSimpleName: buffer
p1190
tp1191
a(Vinsert
p1192
I42
VSimpleName: setName
p1193
tp1194
a(Vinsert
p1195
I42
VSimpleName: assertEquals
p1196
tp1197
a(Vinsert
p1198
I42
VSimpleName: TestJavaArray
p1199
tp1200
a(Vinsert
p1201
I42
VSimpleName: getCanonicalPath
p1202
tp1203
a(Vinsert
p1204
I42
VSimpleName: getTimeZone
p1205
tp1206
a(Vinsert
p1207
I42
VSimpleName: generatedAutoCode
p1208
tp1209
a(Vinsert
p1210
I42
VSimpleName: isAssignableFrom
p1211
tp1212
a(Vinsert
p1213
I42
VSimpleName: setDone
p1214
tp1215
a(Vinsert
p1216
I42
VSimpleName: getRealm
p1217
tp1218
a(Vinsert
p1219
I42
VSimpleName: maximumDouble
p1220
tp1221
a(Vinsert
p1222
I42
VSimpleName: hasIndex
p1223
tp1224
a(Vinsert
p1225
I42
VSimpleName: execute
p1226
tp1227
a(Vinsert
p1228
I42
VSimpleName: getEncryptionKey
p1229
tp1230
a(Vinsert
p1231
I42
VSimpleName: lessThanEqualTo
p1232
tp1233
a(Vinsert
p1234
I42
VSimpleName: updateSchemaCache
p1235
tp1236
a(Vinsert
p1237
I42
VSimpleName: createSubtable
p1238
tp1239
a(Vinsert
p1240
I42
VSimpleName: insertFloat
p1241
tp1242
a(Vinsert
p1243
I42
VSimpleName: getAndIncrement
p1244
tp1245
a(Vinsert
p1246
I42
VSimpleName: permitAll
p1247
tp1248
a(Vinsert
p1249
I42
VSimpleName: getQualifiedName
p1250
tp1251
a(Vinsert
p1252
I42
VSimpleName: getAge
p1253
tp1254
a(Vinsert
p1255
I42
VSimpleName: getTimeInMillis
p1256
tp1257
a(Vinsert
p1258
I42
VSimpleName: getSubTableDefinition
p1259
tp1260
a(Vinsert
p1261
I42
VSimpleName: getMode
p1262
tp1263
a(Vinsert
p1264
I42
VSimpleName: removeAllChangeListeners
p1265
tp1266
a(Vinsert
p1267
I42
VSimpleName: inflate
p1268
tp1269
a(Vinsert
p1270
I42
VSimpleName: readFileToString
p1271
tp1272
a(Vinsert
p1273
I42
VSimpleName: GetTimeInMs
p1274
tp1275
a(Vinsert
p1276
I42
VSimpleName: isAutoRefresh
p1277
tp1278
a(Vinsert
p1279
I42
VSimpleName: getGenericType
p1280
tp1281
a(Vinsert
p1282
I42
VSimpleName: emitEmptyLine
p1283
tp1284
a(Vinsert
p1285
I42
VSimpleName: hasNext
p1286
tp1287
a(Vinsert
p1288
I42
VSimpleName: getNumber
p1289
tp1290
a(Vinsert
p1291
I42
VSimpleName: length
p1292
tp1293
a(Vinsert
p1294
I42
VSimpleName: isValid
p1295
tp1296
a(Vinsert
p1297
I42
VSimpleName: getBytes
p1298
tp1299
a(Vinsert
p1300
I42
VSimpleName: iterator
p1301
tp1302
a(Vinsert
p1303
I42
VSimpleName: getSuperclass
p1304
tp1305
a(Vinsert
p1306
I42
VSimpleName: setColumnBoolean
p1307
tp1308
a(Vinsert
p1309
I42
VSimpleName: foreach
p1310
tp1311
a(Vinsert
p1312
I42
VSimpleName: setPhoto
p1313
tp1314
a(Vinsert
p1315
I42
VSimpleName: getClassLoader
p1316
tp1317
a(Vinsert
p1318
I42
VSimpleName: find
p1319
tp1320
a(Vinsert
p1321
I42
VSimpleName: isAttached
p1322
tp1323
a(Vinsert
p1324
I42
VSimpleName: getGenericTypeQualifiedName
p1325
tp1326
a(Vinsert
p1327
I42
VSimpleName: isAutoRefreshEnabled
p1328
tp1329
a(Vinsert
p1330
I42
VSimpleName: syncIfNeeded
p1331
tp1332
a(Vinsert
p1333
I42
VSimpleName: findAllLong
p1334
tp1335
a(Vinsert
p1336
I42
VSimpleName: getFilesDir
p1337
tp1338
a(Vinsert
p1339
I42
VSimpleName: getFields
p1340
tp1341
a(Vinsert
p1342
I42
VSimpleName: is_keystore_unlocked
p1343
tp1344
a(Vinsert
p1345
I42
VSimpleName: submit
p1346
tp1347
a(Vinsert
p1348
I42
VSimpleName: getPrimaryKey
p1349
tp1350
a(Vinsert
p1351
I42
VSimpleName: getCanonicalName
p1352
tp1353
a(Vinsert
p1354
I42
VSimpleName: insert
p1355
tp1356
a(Vinsert
p1357
I42
VSimpleName: createFromTableOrView
p1358
tp1359
a(Vinsert
p1360
I42
VSimpleName: newInstance
p1361
tp1362
a(Vinsert
p1363
I42
VSimpleName: getLooper
p1364
tp1365
a(Vinsert
p1366
I42
VSimpleName: replace
p1367
tp1368
a(Vinsert
p1369
I42
VSimpleName: getIndexedFields
p1370
tp1371
a(Vinsert
p1372
I42
VSimpleName: migrateRealm
p1373
tp1374
a(Vinsert
p1375
I42
VSimpleName: nativeSetBoolean
p1376
tp1377
a(Vinsert
p1378
I42
VSimpleName: setObject
p1379
tp1380
a(Vinsert
p1381
I42
VSimpleName: getMethod
p1382
tp1383
a(Vinsert
p1384
I42
VSimpleName: getMixed
p1385
tp1386
a(Vinsert
p1387
I42
VSimpleName: upperBoundLong
p1388
tp1389
a(Vinsert
p1390
I42
VSimpleName: category
p1391
tp1392
a(Vinsert
p1393
I42
VSimpleName: invokeWithGlobalRefCount
p1394
tp1395
a(Vinsert
p1396
I42
VSimpleName: addEmptyRowWithPrimaryKey
p1397
tp1398
a(Vinsert
p1399
I42
VSimpleName: setUserSession
p1400
tp1401
a(Vinsert
p1402
I42
VSimpleName: compile
p1403
tp1404
a(Vinsert
p1405
I42
VSimpleName: cleanNativeReferences
p1406
tp1407
a(Vinsert
p1408
I42
VSimpleName: toString
p1409
tp1410
a(Vinsert
p1411
I42
VSimpleName: getAuthServer
p1412
tp1413
a(Vinsert
p1414
I42
VSimpleName: migration
p1415
tp1416
a(Vinsert
p1417
I42
VSimpleName: setAll
p1418
tp1419
a(Vinsert
p1420
I42
VSimpleName: getTableWithAllColumnTypes
p1421
tp1422
a(Vinsert
p1423
I42
VSimpleName: inject
p1424
tp1425
a(Vinsert
p1426
I42
VSimpleName: charAt
p1427
tp1428
a(Vinsert
p1429
I42
VSimpleName: endRead
p1430
tp1431
a(Vinsert
p1432
I42
VSimpleName: processedWith
p1433
tp1434
a(Vinsert
p1435
I42
VSimpleName: close
p1436
tp1437
a(Vinsert
p1438
I42
VSimpleName: closeRowHandover
p1439
tp1440
a(Vinsert
p1441
I42
VSimpleName: getCollection
p1442
tp1443
a(Vinsert
p1444
I42
VSimpleName: warn
p1445
tp1446
a(Vinsert
p1447
I42
VSimpleName: promoteToWrite
p1448
tp1449
a(Vinsert
p1450
I42
VSimpleName: format
p1451
tp1452
a(Vinsert
p1453
I42
VSimpleName: setAccessible
p1454
tp1455
a(Vinsert
p1456
I42
VSimpleName: GetName
p1457
tp1458
a(Vinsert
p1459
I42
VSimpleName: getTime
p1460
tp1461
a(Vinsert
p1462
I42
VSimpleName: insertBinaryData
p1463
tp1464
a(Vinsert
p1465
I42
VSimpleName: getContext
p1466
tp1467
a(Vinsert
p1468
I42
VSimpleName: rollbackAndContinueAsRead
p1469
tp1470
a(Vinsert
p1471
I42
VSimpleName: insertDate
p1472
tp1473
a(Vinsert
p1474
I42
VSimpleName: getCursorClass
p1475
tp1476
a(Vinsert
p1477
I42
VSimpleName: linkingObjects
p1478
tp1479
a(Vinsert
p1480
I42
VSimpleName: disableCollectionSnapshot
p1481
tp1482
a(Vinsert
p1483
I42
VSimpleName: getTransaction
p1484
tp1485
a(Vinsert
p1486
I42
VSimpleName: checkCanBeAutoRefreshed
p1487
tp1488
a(Vinsert
p1489
I42
VSimpleName: optInt
p1490
tp1491
a(Vinsert
p1492
I42
VSimpleName: getRealmType
p1493
tp1494
a(Vinsert
p1495
I42
VSimpleName: getMetadata
p1496
tp1497
a(Vinsert
p1498
I42
VSimpleName: getTemplate
p1499
tp1500
a(Vinsert
p1501
I42
VSimpleName: getLastFieldType
p1502
tp1503
a(Vinsert
p1504
I42
VSimpleName: averageFloat
p1505
tp1506
a(Vinsert
p1507
I42
VSimpleName: printMessage
p1508
tp1509
a(Vinsert
p1510
I42
VSimpleName: equal
p1511
tp1512
a(Vinsert
p1513
I42
VSimpleName: compact
p1514
tp1515
a(Vinsert
p1516
I42
VSimpleName: shutdownNow
p1517
tp1518
a(Vinsert
p1519
I42
VSimpleName: first
p1520
tp1521
a(Vinsert
p1522
I42
VSimpleName: realmGetRowIndex
p1523
tp1524
a(Vinsert
p1525
I42
VSimpleName: findSortedLong
p1526
tp1527
a(Vinsert
p1528
I42
VSimpleName: substring
p1529
tp1530
a(Vinsert
p1531
I42
VSimpleName: add
p1532
tp1533
a(Vinsert
p1534
I42
VSimpleName: sessionStopPolicy
p1535
tp1536
a(Vinsert
p1537
I42
VSimpleName: getBinaryByteBuffer
p1538
tp1539
a(Vinsert
p1540
I42
VSimpleName: allUsers
p1541
tp1542
a(Vinsert
p1543
I42
VSimpleName: synchronizedSet
p1544
tp1545
a(Vinsert
p1546
I42
VSimpleName: updateFromSpec
p1547
tp1548
a(Vinsert
p1549
I42
VSimpleName: ofNull
p1550
tp1551
a(Vinsert
p1552
I42
VSimpleName: getIdentity
p1553
tp1554
a(Vinsert
p1555
I42
VSimpleName: removeCallbacksAndMessages
p1556
tp1557
a(Vinsert
p1558
I42
VSimpleName: unmodifiableMap
p1559
tp1560
a(Vinsert
p1561
I42
VSimpleName: encodeToString
p1562
tp1563
a(Vinsert
p1564
I42
VSimpleName: post
p1565
tp1566
a(Vinsert
p1567
I42
VSimpleName: handleMessage
p1568
tp1569
a(Vinsert
p1570
I42
VSimpleName: getNativeValue
p1571
tp1572
a(Vinsert
p1573
I42
VSimpleName: getRefreshToken
p1574
tp1575
a(Vinsert
p1576
I42
VSimpleName: getTableNameForClass
p1577
tp1578
a(Vinsert
p1579
I42
VSimpleName: initNullTypesTableExcludes
p1580
tp1581
a(Vinsert
p1582
I42
VSimpleName: setOnRefreshListener
p1583
tp1584
a(Vinsert
p1585
I42
VSimpleName: getError
p1586
tp1587
a(Vinsert
p1588
I42
VSimpleName: createCursor
p1589
tp1590
a(Vinsert
p1591
I42
VSimpleName: start
p1592
tp1593
a(Vinsert
p1594
I42
VSimpleName: greaterThanOrEqualTo
p1595
tp1596
a(Vinsert
p1597
I42
VSimpleName: addRealmListField
p1598
tp1599
a(Vinsert
p1600
I42
VSimpleName: where
p1601
tp1602
a(Vinsert
p1603
I42
VSimpleName: getResources
p1604
tp1605
a(Vinsert
p1606
I42
VSimpleName: hasChanged
p1607
tp1608
a(Vinsert
p1609
I42
VSimpleName: findLongInt
p1610
tp1611
a(Vinsert
p1612
I42
VSimpleName: cancel
p1613
tp1614
a(Vinsert
p1615
I42
VSimpleName: setRealm$realm
p1616
tp1617
a(Vinsert
p1618
I42
VSimpleName: beginWrite
p1619
tp1620
a(Vinsert
p1621
I42
VSimpleName: login
p1622
tp1623
a(Vinsert
p1624
I42
VSimpleName: await
p1625
tp1626
a(Vinsert
p1627
I42
VSimpleName: readLine
p1628
tp1629
a(Vinsert
p1630
I42
VSimpleName: isObjectIdColumn
p1631
tp1632
a(Vinsert
p1633
I42
VSimpleName: getOriginalModelClass
p1634
tp1635
a(Vinsert
p1636
I42
VSimpleName: osIsWindows
p1637
tp1638
a(Vinsert
p1639
I42
VSimpleName: setLogLevel
p1640
tp1641
a(Vinsert
p1642
I42
VSimpleName: fromJson
p1643
tp1644
a(Vinsert
p1645
I42
VSimpleName: createView
p1646
tp1647
a(Vinsert
p1648
I42
VSimpleName: forRecovery
p1649
tp1650
a(Vinsert
p1651
I42
VSimpleName: addIfAbsent
p1652
tp1653
a(Vinsert
p1654
I42
VSimpleName: findFirstLong
p1655
tp1656
a(Vinsert
p1657
I42
VSimpleName: getSourceRowIndex
p1658
tp1659
a(Vinsert
p1660
I42
VSimpleName: setSharedRealm
p1661
tp1662
a(Vinsert
p1663
I42
VSimpleName: mkdirs
p1664
tp1665
a(Vinsert
p1666
I42
VSimpleName: encryptionKey
p1667
tp1668
a(Vinsert
p1669
I42
VSimpleName: getSimpleName
p1670
tp1671
a(Vinsert
p1672
I42
VSimpleName: isISOControl
p1673
tp1674
a(Vinsert
p1675
I42
VSimpleName: read
p1676
tp1677
a(Vinsert
p1678
I42
VSimpleName: cast
p1679
tp1680
a(Vinsert
p1681
I42
VSimpleName: TestTightdb
p1682
tp1683
a(Vinsert
p1684
I42
VSimpleName: addToRealmResults
p1685
tp1686
a(Vinsert
p1687
I42
VSimpleName: isNullLink
p1688
tp1689
a(Vinsert
p1690
I42
VSimpleName: getExtras
p1691
tp1692
a(Vinsert
p1693
I42
VSimpleName: getSubtableSchema
p1694
tp1695
a(Vinsert
p1696
I42
VSimpleName: getByteCol
p1697
tp1698
a(Vinsert
p1699
I42
VSimpleName: getCodec
p1700
tp1701
a(Vinsert
p1702
I42
VSimpleName: awaitOrFail
p1703
tp1704
a(Vinsert
p1705
I42
VSimpleName: log10
p1706
tp1707
a(Vinsert
p1708
I42
VSimpleName: asyncDisposeGroup
p1709
tp1710
a(Vinsert
p1711
I42
VSimpleName: yield
p1712
tp1713
a(Vinsert
p1714
I42
VSimpleName: getRandomString
p1715
tp1716
a(Vinsert
p1717
I42
VSimpleName: assertStringValueIsLegal
p1718
tp1719
a(Vinsert
p1720
I42
VSimpleName: setFloat
p1721
tp1722
a(Vinsert
p1723
I42
VSimpleName: fatal
p1724
tp1725
a(Vinsert
p1726
I42
VSimpleName: getDistinctView
p1727
tp1728
a(Vinsert
p1729
I42
VSimpleName: findAllBoolean
p1730
tp1731
a(Vinsert
p1732
I42
VSimpleName: greaterThan
p1733
tp1734
a(Vinsert
p1735
I42
VSimpleName: getCategory
p1736
tp1737
a(Vinsert
p1738
I42
VSimpleName: getSortedView
p1739
tp1740
a(Vinsert
p1741
I42
VSimpleName: toCharArray
p1742
tp1743
a(Vinsert
p1744
I42
VSimpleName: setMixed
p1745
tp1746
a(Vinsert
p1747
I42
VSimpleName: executeDelayedDisposal
p1748
tp1749
a(Vinsert
p1750
I42
VSimpleName: deleteLast
p1751
tp1752
a(Vinsert
p1753
I42
VSimpleName: incrementAndGet
p1754
tp1755
a(Vinsert
p1756
I42
VSimpleName: addChangeListener
p1757
tp1758
a(Vinsert
p1759
I42
VSimpleName: getPrimaryKeyForObject
p1760
tp1761
a(Vinsert
p1762
I42
VSimpleName: sumDouble
p1763
tp1764
a(Vinsert
p1765
I42
VSimpleName: setInsertCount
p1766
tp1767
a(Vinsert
p1768
I42
VSimpleName: getActualTypeArguments
p1769
tp1770
a(Vinsert
p1771
I42
VSimpleName: getDisplayName
p1772
tp1773
a(Vinsert
p1774
I42
VSimpleName: createWithPrimaryKeyField
p1775
tp1776
a(Vinsert
p1777
I42
VSimpleName: onNext
p1778
tp1779
a(Vinsert
p1780
I42
VSimpleName: gc
p1781
tp1782
a(Vinsert
p1783
I42
VSimpleName: notifyDataSetChanged
p1784
tp1785
a(Vinsert
p1786
I42
VSimpleName: getApplicationContext
p1787
tp1788
a(Vinsert
p1789
I42
VSimpleName: realmSet$columnBinaryList
p1790
tp1791
a(Vinsert
p1792
I42
VSimpleName: putInt
p1793
tp1794
a(Vinsert
p1795
I42
VSimpleName: emitFillRealmObjectWithJsonValue
p1796
tp1797
a(Vinsert
p1798
I42
VSimpleName: arrayEquals
p1799
tp1800
a(Vinsert
p1801
I42
VSimpleName: create
p1802
tp1803
a(Vinsert
p1804
I42
VSimpleName: realmSet$done
p1805
tp1806
a(Vinsert
p1807
I42
VSimpleName: advanceRead
p1808
tp1809
a(Vinsert
p1810
I42
VSimpleName: setSchema
p1811
tp1812
a(Vinsert
p1813
I42
VSimpleName: getQueryClass
p1814
tp1815
a(Vinsert
p1816
I42
VSimpleName: convertColumnToNotNullable
p1817
tp1818
a(Vinsert
p1819
I42
VSimpleName: setString
p1820
tp1821
a(Vinsert
p1822
I42
VSimpleName: executeTransaction
p1823
tp1824
a(Vinsert
p1825
I42
VSimpleName: getFractionTransferred
p1826
tp1827
a(Vinsert
p1828
I42
VSimpleName: addSearchIndex
p1829
tp1830
a(Vinsert
p1831
I42
VSimpleName: getDeclaredField
p1832
tp1833
a(Vinsert
p1834
I42
VSimpleName: nativeCreatePersistedLinkProperty
p1835
tp1836
a(Vinsert
p1837
I42
VSimpleName: runAfterTest
p1838
tp1839
a(Vinsert
p1840
I42
VSimpleName: getRxFactory
p1841
tp1842
a(Vinsert
p1843
I42
VSimpleName: updateAsyncEmptyRealmObject
p1844
tp1845
a(Vinsert
p1846
I42
VSimpleName: isString
p1847
tp1848
a(Vinsert
p1849
I42
VSimpleName: getColumnInfo
p1850
tp1851
a(Vinsert
p1852
I42
VSimpleName: setDebugLevel
p1853
tp1854
a(Vinsert
p1855
I42
VSimpleName: isLoaded
p1856
tp1857
a(Vinsert
p1858
I42
VSimpleName: findFirstNull
p1859
tp1860
a(Vinsert
p1861
I42
VSimpleName: getMessager
p1862
tp1863
a(Vinsert
p1864
I42
VSimpleName: onQueryFinished
p1865
tp1866
a(Vinsert
p1867
I42
VSimpleName: setDouble
p1868
tp1869
a(Vinsert
p1870
I42
VSimpleName: setTag
p1871
tp1872
a(Vinsert
p1873
I42
VSimpleName: isImmutable
p1874
tp1875
a(Vinsert
p1876
I42
VSimpleName: endGroup
p1877
tp1878
a(Vinsert
p1879
I42
VSimpleName: list
p1880
tp1881
a(Vinsert
p1882
I42
VSimpleName: setBinary
p1883
tp1884
a(Vinsert
p1885
I42
VSimpleName: getSubtable
p1886
tp1887
a(Vinsert
p1888
I42
VSimpleName: beginMethod
p1889
tp1890
a(Vinsert
p1891
I42
VSimpleName: setModules
p1892
tp1893
a(Vinsert
p1894
I42
VSimpleName: getValue
p1895
tp1896
a(Vinsert
p1897
I42
VSimpleName: newSetFromMap
p1898
tp1899
a(Vinsert
p1900
I42
VSimpleName: findAsync
p1901
tp1902
a(Vinsert
p1903
I42
VSimpleName: printStackTrace
p1904
tp1905
a(Vinsert
p1906
I42
VSimpleName: getExpectedObjectSchemaInfoMap
p1907
tp1908
a(Vinsert
p1909
I42
VSimpleName: getSyncFacadeIfPossible
p1910
tp1911
a(Vinsert
p1912
I42
VSimpleName: query
p1913
tp1914
a(Vinsert
p1915
I42
VSimpleName: optimize
p1916
tp1917
a(Vinsert
p1918
I42
VSimpleName: getHandler
p1919
tp1920
a(Vinsert
p1921
I42
VSimpleName: endMethod
p1922
tp1923
a(Vinsert
p1924
I42
VSimpleName: Start
p1925
tp1926
a(Vinsert
p1927
I42
VSimpleName: findFirstDate
p1928
tp1929
a(Vinsert
p1930
I42
VSimpleName: getVersionID
p1931
tp1932
a(Vinsert
p1933
I42
VSimpleName: getBlob
p1934
tp1935
a(Vinsert
p1936
I42
VSimpleName: of
p1937
tp1938
a(Vinsert
p1939
I42
VSimpleName: getBinaryByteArray
p1940
tp1941
a(Vinsert
p1942
I42
VSimpleName: getUserStore
p1943
tp1944
a(Vinsert
p1945
I42
VSimpleName: getFieldTypeSimpleName
p1946
tp1947
a(Vinsert
p1948
I42
VSimpleName: toMillis
p1949
tp1950
a(Vinsert
p1951
I42
VSimpleName: getDurability
p1952
tp1953
a(Vinsert
p1954
I42
VSimpleName: fromNativeValue
p1955
tp1956
a(Vinsert
p1957
I42
VSimpleName: removeAccessToken
p1958
tp1959
a(Vinsert
p1960
I42
VSimpleName: getGlobalInstanceCount
p1961
tp1962
a(Vinsert
p1963
I42
VSimpleName: evaluate
p1964
tp1965
a(Vinsert
p1966
I42
VSimpleName: getInstanceAsync
p1967
tp1968
a(Vinsert
p1969
I42
VSimpleName: setPrimaryKey
p1970
tp1971
a(Vinsert
p1972
I42
VSimpleName: getMigration
p1973
tp1974
a(Vinsert
p1975
I42
VSimpleName: when
p1976
tp1977
a(Vinsert
p1978
I42
VSimpleName: getRoot
p1979
tp1980
a(Vinsert
p1981
I42
VSimpleName: is
p1982
tp1983
a(Vinsert
p1984
I42
VSimpleName: commitTransaction
p1985
tp1986
a(Vinsert
p1987
I42
VSimpleName: createBacklinksCollection
p1988
tp1989
a(Vinsert
p1990
I42
VSimpleName: swapTableViewPointer
p1991
tp1992
a(Vinsert
p1993
I42
VSimpleName: getAndSet
p1994
tp1995
a(Vinsert
p1996
I42
VSimpleName: resolve
p1997
tp1998
a(Vinsert
p1999
I42
VSimpleName: d
p2000
tp2001
a(Vinsert
p2002
I42
VSimpleName: getRealmConfiguration
p2003
tp2004
a(Vinsert
p2005
I42
VSimpleName: latestSupported
p2006
tp2007
a(Vinsert
p2008
I42
VSimpleName: createSnapshot
p2009
tp2010
a(Vinsert
p2011
I42
VSimpleName: floatValue
p2012
tp2013
a(Vinsert
p2014
I42
VSimpleName: removeFromRealm
p2015
tp2016
a(Vinsert
p2017
I42
VSimpleName: getSyncUser
p2018
tp2019
a(Vinsert
p2020
I42
VSimpleName: addEmptyRow
p2021
tp2022
a(Vinsert
p2023
I42
VSimpleName: directory
p2024
tp2025
a(Vinsert
p2026
I42
VSimpleName: round
p2027
tp2028
a(Vinsert
p2029
I42
VSimpleName: realmSet$fieldBinaryListNotNull
p2030
tp2031
a(Vinsert
p2032
I42
VSimpleName: request
p2033
tp2034
a(Vinsert
p2035
I42
VSimpleName: code
p2036
tp2037
a(Vinsert
p2038
I42
VSimpleName: notifyChangeListeners$realm
p2039
tp2040
a(Vinsert
p2041
I42
VSimpleName: getAbsolutePath
p2042
tp2043
a(Vinsert
p2044
I42
VSimpleName: listFiles
p2045
tp2046
a(Vinsert
p2047
I42
VSimpleName: compilesWithoutError
p2048
tp2049
a(Vinsert
p2050
I42
VSimpleName: populateSimpleAllTypesPrimaryKey
p2051
tp2052
a(Vinsert
p2053
I42
VSimpleName: join
p2054
tp2055
a(Vinsert
p2056
I42
VSimpleName: subList
p2057
tp2058
a(Vinsert
p2059
I42
VSimpleName: setDate
p2060
tp2061
a(Vinsert
p2062
I42
VSimpleName: replaceRealmThreadExecutor
p2063
tp2064
a(Vinsert
p2065
I42
VSimpleName: lowerBoundLong
p2066
tp2067
a(Vinsert
p2068
I42
VSimpleName: endControlFlow
p2069
tp2070
a(Vinsert
p2071
I42
VSimpleName: getType
p2072
tp2073
a(Vinsert
p2074
I42
VSimpleName: getMixedType
p2075
tp2076
a(Vinsert
p2077
I42
VSimpleName: average
p2078
tp2079
a(Vinsert
p2080
I42
VSimpleName: load
p2081
tp2082
a(Vinsert
p2083
I42
VSimpleName: subTable
p2084
tp2085
a(Vinsert
p2086
I42
VSimpleName: main
p2087
tp2088
a(Vinsert
p2089
I42
VSimpleName: getMessage
p2090
tp2091
a(Vinsert
p2092
I42
VSimpleName: private_close
p2093
tp2094
a(Vinsert
p2095
I42
VSimpleName: getNativeReplicationPointer
p2096
tp2097
a(Vinsert
p2098
I42
VSimpleName: lessThanOrEqual
p2099
tp2100
a(Vinsert
p2101
I42
VSimpleName: move
p2102
tp2103
a(Vinsert
p2104
I42
VSimpleName: addAll
p2105
tp2106
a(Vinsert
p2107
I42
VSimpleName: getTableClass
p2108
tp2109
a(Vinsert
p2110
I42
VSimpleName: getFieldDate
p2111
tp2112
a(Vinsert
p2113
I42
VSimpleName: lastUncheckedRow
p2114
tp2115
a(Vinsert
p2116
I42
VSimpleName: getColumnType
p2117
tp2118
a(Vinsert
p2119
I42
VSimpleName: realmIsInStore
p2120
tp2121
a(Vinsert
p2122
I42
VSimpleName: getSharedGroupPointer
p2123
tp2124
a(Vinsert
p2125
I42
VSimpleName: getClass
p2126
tp2127
a(Vinsert
p2128
I42
VSimpleName: getSimpleClassName
p2129
tp2130
a(Vinsert
p2131
I42
VSimpleName: setBoolean
p2132
tp2133
a(Vinsert
p2134
I42
VSimpleName: getFiler
p2135
tp2136
a(Vinsert
p2137
I42
VSimpleName: arraycopy
p2138
tp2139
a(Vinsert
p2140
I42
VSimpleName: createOrUpdateAllFromJson
p2141
tp2142
a(Vinsert
p2143
I42
VSimpleName: generate
p2144
tp2145
a(Vinsert
p2146
I42
VSimpleName: setDog
p2147
tp2148
a(Vinsert
p2149
I42
VSimpleName: exists
p2150
tp2151
a(Vinsert
p2152
I42
VSimpleName: realmSet$columnRealmList
p2153
tp2154
a(Vinsert
p2155
I42
VSimpleName: getSerializableExtra
p2156
tp2157
a(Vinsert
p2158
I42
VSimpleName: identity
p2159
tp2160
a(Vinsert
p2161
I42
VSimpleName: build
p2162
tp2163
a(Vinsert
p2164
I42
VSimpleName: isManaged
p2165
tp2166
a(Vinsert
p2167
I42
VSimpleName: getSchemaInfo
p2168
tp2169
a(Vinsert
p2170
I42
VSimpleName: isColumnNullable
p2171
tp2172
a(Vinsert
p2173
I42
VSimpleName: forName
p2174
tp2175
a(Vinsert
p2176
I42
VSimpleName: forResource
p2177
tp2178
a(Vinsert
p2179
I42
VSimpleName: WriteAndRead
p2180
tp2181
a(Vinsert
p2182
I42
VSimpleName: validateQuery
p2183
tp2184
a(Vinsert
p2185
I42
VSimpleName: count
p2186
tp2187
a(Vinsert
p2188
I42
VSimpleName: getSession
p2189
tp2190
a(Vinsert
p2191
I42
VSimpleName: isDirect
p2192
tp2193
a(Vinsert
p2194
I42
VSimpleName: nextInt
p2195
tp2196
a(Vinsert
p2197
I42
VSimpleName: has
p2198
tp2199
a(Vinsert
p2200
I42
VSimpleName: sslVerifyCallback
p2201
tp2202
a(Vinsert
p2203
I42
VSimpleName: newWriter
p2204
tp2205
a(Vinsert
p2206
I42
VSimpleName: getOriginalFile
p2207
tp2208
a(Vinsert
p2209
I42
VSimpleName: deleteRealmFile
p2210
tp2211
a(Vinsert
p2212
I42
VSimpleName: isColumnBoolean
p2213
tp2214
a(Vinsert
p2215
I42
VSimpleName: from
p2216
tp2217
a(Vinsert
p2218
I42
VSimpleName: getPhones
p2219
tp2220
a(Vinsert
p2221
I42
VSimpleName: getReferenceQueue
p2222
tp2223
a(Vinsert
p2224
I42
VSimpleName: schema
p2225
tp2226
a(Vinsert
p2227
I42
VSimpleName: stringToDate
p2228
tp2229
a(Vinsert
p2230
I42
VSimpleName: getFacade
p2231
tp2232
a(Vinsert
p2233
I42
VSimpleName: get
p2234
tp2235
a(Vinsert
p2236
I42
VSimpleName: asList
p2237
tp2238
a(Vinsert
p2239
I42
VSimpleName: setIndex
p2240
tp2241
a(Vinsert
p2242
I42
VSimpleName: getKind
p2243
tp2244
a(Vinsert
p2245
I42
VSimpleName: values
p2246
tp2247
a(Vinsert
p2248
I42
VSimpleName: setAdapter
p2249
tp2250
a(Vinsert
p2251
I42
VSimpleName: getItemId
p2252
tp2253
a(Vinsert
p2254
I42
VSimpleName: greaterThanOrEqual
p2255
tp2256
a(Vinsert
p2257
I42
VSimpleName: checkServerTrusted
p2258
tp2259
a(Vinsert
p2260
I42
VSimpleName: assertThread
p2261
tp2262
a(Vinsert
p2263
I42
VSimpleName: getUncheckedRow
p2264
tp2265
a(Vinsert
p2266
I42
VSimpleName: beginImplicitTransaction
p2267
tp2268
a(Vinsert
p2269
I42
VSimpleName: handoverQuery
p2270
tp2271
a(Vinsert
p2272
I42
VSimpleName: currentThread
p2273
tp2274
a(Vinsert
p2275
I42
VSimpleName: notEqual
p2276
tp2277
a(Vinsert
p2278
I42
VSimpleName: columns
p2279
tp2280
a(Vinsert
p2281
I42
VSimpleName: setVersion
p2282
tp2283
a(Vinsert
p2284
I42
VSimpleName: getAccounts
p2285
tp2286
a(Vinsert
p2287
I42
VSimpleName: findAllString
p2288
tp2289
a(Vinsert
p2290
I42
VSimpleName: getId
p2291
tp2292
a(Vinsert
p2293
I42
VSimpleName: prepareDatabaseFromAssets
p2294
tp2295
a(Vinsert
p2296
I42
VSimpleName: getVersion
p2297
tp2298
a(Vinsert
p2299
I42
VSimpleName: realmGet$mCompleted
p2300
tp2301
a(Vinsert
p2302
I42
VSimpleName: getByRowPointer
p2303
tp2304
a(Vinsert
p2305
I42
VSimpleName: getTablePrefix
p2306
tp2307
a(Vinsert
p2308
I42
VSimpleName: logoutAllUsers
p2309
tp2310
a(Vinsert
p2311
I42
VSimpleName: findFirstAsync
p2312
tp2313
a(Vinsert
p2314
I42
VSimpleName: setApiSection
p2315
tp2316
a(Vinsert
p2317
I42
VSimpleName: getDataStore
p2318
tp2319
a(Vinsert
p2320
I42
VSimpleName: getUserInfo
p2321
tp2322
a(Vinsert
p2323
I42
VSimpleName: setSalary
p2324
tp2325
a(Vinsert
p2326
I42
VSimpleName: check
p2327
tp2328
a(Vinsert
p2329
I42
VSimpleName: createUniqueUser
p2330
tp2331
a(Vinsert
p2332
I42
VSimpleName: e
p2333
tp2334
a(Vinsert
p2335
I42
VSimpleName: addComputedLinkProperty
p2336
tp2337
a(Vinsert
p2338
I42
VSimpleName: getString
p2339
tp2340
a(Vinsert
p2341
I42
VSimpleName: setList
p2342
tp2343
a(Vinsert
p2344
I42
VSimpleName: getBoolean
p2345
tp2346
a(Vinsert
p2347
I42
VSimpleName: removeAuthenticationListener
p2348
tp2349
a(Vinsert
p2350
I42
VSimpleName: endsWith
p2351
tp2352
a(Vinsert
p2353
I42
VSimpleName: addNativeLibraryPath
p2354
tp2355
a(Vinsert
p2356
I42
VSimpleName: getConstructor
p2357
tp2358
a(Vinsert
p2359
I42
VSimpleName: copyFromRealm
p2360
tp2361
a(Vinsert
p2362
I42
VSimpleName: clearSubTable
p2363
tp2364
a(Vinsert
p2365
I42
VSimpleName: isDirectory
p2366
tp2367
a(Vinsert
p2368
I42
VSimpleName: findAll
p2369
tp2370
a(Vinsert
p2371
I42
VSimpleName: createObject
p2372
tp2373
a(Vinsert
p2374
I42
VSimpleName: addColumnTable
p2375
tp2376
a(Vinsert
p2377
I42
VSimpleName: name
p2378
tp2379
a(Vinsert
p2380
I42
VSimpleName: printf
p2381
tp2382
a(Vinsert
p2383
I42
VSimpleName: moveLastOver
p2384
tp2385
a(Vinsert
p2386
I42
VSimpleName: setTextColor
p2387
tp2388
a(Vinsert
p2389
I42
VSimpleName: beginArray
p2390
tp2391
a(Vinsert
p2392
I42
VSimpleName: getSingleFieldInstance
p2393
tp2394
a(Vinsert
p2395
I42
VSimpleName: valueOf
p2396
tp2397
a(Vinsert
p2398
I42
VSimpleName: callSuper
p2399
tp2400
a(Vinsert
p2401
I42
VSimpleName: onStop
p2402
tp2403
a(Vinsert
p2404
I42
VSimpleName: countDown
p2405
tp2406
a(Vinsert
p2407
I42
VSimpleName: getLinkTarget
p2408
tp2409
a(Vinsert
p2410
I42
VSimpleName: readOnly
p2411
tp2412
a(Vinsert
p2413
I42
VSimpleName: getFieldObject
p2414
tp2415
a(Vinsert
p2416
I42
VSimpleName: between
p2417
tp2418
a(Vinsert
p2419
I42
VSimpleName: dog1
p2420
tp2421
a(Vinsert
p2422
I42
VSimpleName: getDriver
p2423
tp2424
a(Vinsert
p2425
I42
VSimpleName: getDeclaringClass
p2426
tp2427
a(Vinsert
p2428
I42
VSimpleName: realmGet$columnString
p2429
tp2430
a(Vinsert
p2431
I42
VSimpleName: getName
p2432
tp2433
a(Vinsert
p2434
I42
VSimpleName: loadLibrary
p2435
tp2436
a(Vinsert
p2437
I42
VSimpleName: run
p2438
tp2439
a(Vinsert
p2440
I42
VSimpleName: removeAllViews
p2441
tp2442
a(Vinsert
p2443
I42
VSimpleName: createRealmOrGetFromCacheAsync
p2444
tp2445
a(Vinsert
p2446
I42
VSimpleName: setStyle
p2447
tp2448
a(Vinsert
p2449
I42
VSimpleName: addReference
p2450
tp2451
a(Vinsert
p2452
I42
VSimpleName: getConfiguration
p2453
tp2454
a(Vinsert
p2455
I42
VSimpleName: getFirstName
p2456
tp2457
a(Vinsert
p2458
I42
VSimpleName: getSchemaMediator
p2459
tp2460
a(Vinsert
p2461
I42
VSimpleName: removeLast
p2462
tp2463
a(Vinsert
p2464
I42
VSimpleName: copyToRealm
p2465
tp2466
a(Vinsert
p2467
I42
VSimpleName: endWith
p2468
tp2469
a(Vinsert
p2470
I42
VSimpleName: allObjects
p2471
tp2472
a(Vinsert
p2473
I42
VSimpleName: array
p2474
tp2475
a(Vinsert
p2476
I42
VSimpleName: getRealmListElementTypeMirror
p2477
tp2478
a(Vinsert
p2479
I42
VSimpleName: getRuntime
p2480
tp2481
a(Vinsert
p2482
I42
VSimpleName: userId
p2483
tp2484
a(Vinsert
p2485
I42
VSimpleName: addSubtableColumn
p2486
tp2487
a(Vinsert
p2488
I42
VSimpleName: custom
p2489
tp2490
a(Vinsert
p2491
I42
VSimpleName: getInstanceForSort
p2492
tp2493
a(Vinsert
p2494
I42
VSimpleName: hasPrimaryKey
p2495
tp2496
a(Vinsert
p2497
I42
VSimpleName: createTestAdminUser
p2498
tp2499
a(Vinsert
p2500
I42
VSimpleName: isUnderConstruction
p2501
tp2502
a(Vinsert
p2503
I42
VSimpleName: getSubTableSize
p2504
tp2505
a(Vinsert
p2506
I42
VSimpleName: rollback
p2507
tp2508
a(Vinsert
p2509
I42
VSimpleName: createSyncConfigurationBuilder
p2510
tp2511
a(Vinsert
p2512
I42
VSimpleName: getDefault
p2513
tp2514
a(Vinsert
p2515
I42
VSimpleName: addAuthenticationListener
p2516
tp2517
a(Vinsert
p2518
I42
VSimpleName: writeLong
p2519
tp2520
a(Vinsert
p2521
I42
VSimpleName: getLevel
p2522
tp2523
a(Vinsert
p2524
I42
VSimpleName: removeRow
p2525
tp2526
a(Vinsert
p2527
I42
VSimpleName: getClassNameForTable
p2528
tp2529
a(Vinsert
p2530
I42
VSimpleName: sum
p2531
tp2532
a(Vinsert
p2533
I42
VSimpleName: greaterEqual
p2534
tp2535
a(Vinsert
p2536
I42
VSimpleName: findAllWithHandover
p2537
tp2538
a(Vinsert
p2539
I42
VSimpleName: equals
p2540
tp2541
a(Vinsert
p2542
I42
VSimpleName: beginControlFlow
p2543
tp2544
a(Vinsert
p2545
I42
VSimpleName: postAtFrontOfQueue
p2546
tp2547
a(Vinsert
p2548
I42
VSimpleName: obtain
p2549
tp2550
a(Vinsert
p2551
I42
VSimpleName: put
p2552
tp2553
a(Vinsert
p2554
I42
VSimpleName: setRealmResults
p2555
tp2556
a(Vinsert
p2557
I42
VSimpleName: mark
p2558
tp2559
a(Vinsert
p2560
I42
VSimpleName: isMainThread
p2561
tp2562
a(Vinsert
p2563
I42
VSimpleName: emitAnnotation
p2564
tp2565
a(Vinsert
p2566
I42
VSimpleName: commitAsyncTransaction
p2567
tp2568
a(Vinsert
p2569
I42
VSimpleName: doCreateRealmOrGetFromCache
p2570
tp2571
a(Vinsert
p2572
I42
VSimpleName: setSchemaVersion
p2573
tp2574
a(Vinsert
p2575
I42
VSimpleName: isPrimaryKey
p2576
tp2577
a(Vinsert
p2578
I42
VSimpleName: myPid
p2579
tp2580
a(Vinsert
p2581
I42
VSimpleName: addToRealmObjects
p2582
tp2583
a(Vinsert
p2584
I42
VSimpleName: distinctAsync
p2585
tp2586
a(Vinsert
p2587
I42
VSimpleName: nativeSetString
p2588
tp2589
a(Vinsert
p2590
I42
VSimpleName: realmSet$mCompleted
p2591
tp2592
a(Vinsert
p2593
I42
VSimpleName: validateTable
p2594
tp2595
a(Vinsert
p2596
I42
VSimpleName: equalTo
p2597
tp2598
a(Vinsert
p2599
I42
VSimpleName: findFirstBoolean
p2600
tp2601
a(Vinsert
p2602
I42
VSimpleName: isNullable
p2603
tp2604
a(Vinsert
p2605
I42
VSimpleName: allOf
p2606
tp2607
a(Vinsert
p2608
I42
VSimpleName: isReadOnly
p2609
tp2610
a(Vinsert
p2611
I42
VSimpleName: getSchema
p2612
tp2613
a(Vinsert
p2614
I42
VSimpleName: getColumnString
p2615
tp2616
a(Vinsert
p2617
I42
VSimpleName: getDate
p2618
tp2619
a(Vinsert
p2620
I42
VSimpleName: getOwner
p2621
tp2622
a(Vinsert
p2623
I42
VSimpleName: completeAsyncObject
p2624
tp2625
a(Vinsert
p2626
I42
VSimpleName: isAdmin
p2627
tp2628
a(Vinsert
p2629
I42
VSimpleName: getErrorCode
p2630
tp2631
a(Vinsert
p2632
I42
VSimpleName: max
p2633
tp2634
a(Vinsert
p2635
I42
VSimpleName: unsubscribe
p2636
tp2637
a(Vinsert
p2638
I42
VSimpleName: mayRead
p2639
tp2640
a(Vinsert
p2641
I42
VSimpleName: init
p2642
tp2643
a(Vinsert
p2644
I42
VSimpleName: getUser
p2645
tp2646
a(Vinsert
p2647
I42
VSimpleName: getTag
p2648
tp2649
a(Vinsert
p2650
I42
VSimpleName: showList
p2651
tp2652
a(Vinsert
p2653
I42
VSimpleName: addListener
p2654
tp2655
a(Vinsert
p2656
I42
VSimpleName: optString
p2657
tp2658
a(Vinsert
p2659
I42
VSimpleName: version
p2660
tp2661
a(Vinsert
p2662
I42
VSimpleName: longValue
p2663
tp2664
a(Vinsert
p2665
I42
VSimpleName: checkIfValid
p2666
tp2667
a(Vinsert
p2668
I42
VSimpleName: mixedValue
p2669
tp2670
a(Vinsert
p2671
I42
VSimpleName: getExpectedObjectSchemaInfo
p2672
tp2673
a(Vinsert
p2674
I42
VSimpleName: setNumber
p2675
tp2676
a(Vinsert
p2677
I42
VSimpleName: size
p2678
tp2679
a(Vinsert
p2680
I42
VSimpleName: getTypeUtils
p2681
tp2682
a(Vinsert
p2683
I42
VSimpleName: clone
p2684
tp2685
a(Vinsert
p2686
I42
VSimpleName: getUncheckedRowByPointer
p2687
tp2688
a(Vinsert
p2689
I42
VSimpleName: map
p2690
tp2691
a(Vinsert
p2692
I42
VSimpleName: populateUsingJsonObject
p2693
tp2694
a(Vinsert
p2695
I42
VSimpleName: expectedResult
p2696
tp2697
a(Vinsert
p2698
I42
VSimpleName: refresh
p2699
tp2700
a(Vinsert
p2701
I42
VSimpleName: onMigrationNeeded
p2702
tp2703
a(Vinsert
p2704
I42
VSimpleName: getNativeSortOrderValues
p2705
tp2706
a(Vinsert
p2707
I42
VSimpleName: emitGetObjectWithPrimaryKeyValue
p2708
tp2709
a(Vinsert
p2710
I42
VSimpleName: getSchemaVersion
p2711
tp2712
a(Vinsert
p2713
I42
VSimpleName: importHandoverTableView
p2714
tp2715
a(Vinsert
p2716
I42
VSimpleName: getInternalMethods
p2717
tp2718
a(Vinsert
p2719
I42
VSimpleName: getPackageManager
p2720
tp2721
a(Vinsert
p2722
I42
VSimpleName: newSingleThreadExecutor
p2723
tp2724
a(Vinsert
p2725
I42
VSimpleName: findAllSorted
p2726
tp2727
a(Vinsert
p2728
I42
VSimpleName: getModifiers
p2729
tp2730
a(Vinsert
p2731
I42
VSimpleName: getStory
p2732
tp2733
a(Vinsert
p2734
I42
VSimpleName: addJob
p2735
tp2736
a(Vinsert
p2737
I42
VSimpleName: getRow$realm
p2738
tp2739
a(Vinsert
p2740
I42
VSimpleName: getDogOwner
p2741
tp2742
a(Vinsert
p2743
I42
VSimpleName: loop
p2744
tp2745
a.