(dp0
(Vinsert
p1
I42
VSimpleName: unwield
p2
tp3
I1
s(Vinsert
p4
I45
VStringLiteral: "producer"
p5
tp6
I2
s(Vinsert
p7
I34
VNumberLiteral: 100L
p8
tp9
I1
s(Vinsert
p10
I42
VSimpleName: GWeather
p11
tp12
I3
s(Vinsert
p13
I66
VTextElement: Device class (adaptee in the pattern). We want to reuse this class
p14
tp15
I1
s(Vinsert
p16
I42
VSimpleName: FlyingMagicWeaponImp
p17
tp18
I1
s(Vinsert
p19
I42
VSimpleName: threadSafeIvoryTower1
p20
tp21
I1
s(Vinsert
p22
I42
VSimpleName: menuView
p23
tp24
I1
s(Vinsert
p25
I43
VSimpleType: FileWriter
p26
tp27
I3
s(Vinsert
p28
I43
VSimpleType: CakeLayer
p29
tp30
I2
s(Vinsert
p31
I42
VSimpleName: createCriteria
p32
tp33
I3
s(Vinsert
p34
I45
VStringLiteral: "comes to listen"
p35
tp36
I1
s(Vinsert
p37
I42
VSimpleName: ParseException
p38
tp39
I1
s(Vinsert
p40
I74
VParameterizedType: Map<LotteryTicketId,LotteryTicket>
p41
tp42
I1
s(Vinsert
p43
I43
VSimpleType: FileSelectorPresenter
p44
tp45
I2
s(Vinsert
p46
I42
VSimpleName: LazyLoadedIvoryTower
p47
tp48
I2
s(Vinsert
p49
I42
VSimpleName: CakeToppingInfo
p50
tp51
I6
s(Vinsert
p52
I27
VInfixExpression: +
p53
tp54
I20
s(Vinsert
p55
I43
VSimpleType: SessionFactory
p56
tp57
I1
s(Vinsert
p58
I42
VSimpleName: Account
p59
tp60
I6
s(Vinsert
p61
I43
VSimpleType: Session
p62
tp63
I1
s(Vinsert
p64
I40
VQualifiedName: Stats.AGILITY
p65
tp66
I1
s(Vinsert
p67
I42
VSimpleName: LinkedList
p68
tp69
I2
s(Vinsert
p70
I42
VSimpleName: isisJdoSupport
p71
tp72
I1
s(Vinsert
p73
I43
VSimpleType: Throwable
p74
tp75
I1
s(Vinsert
p76
I43
VSimpleType: GuiceWizard
p77
tp78
I1
s(Vinsert
p79
I42
VSimpleName: letters
p80
tp81
I2
s(Vinsert
p82
I42
VSimpleName: instance
p83
tp84
I3
s(Vinsert
p85
I42
VSimpleName: printErrorString
p86
tp87
I1
s(Vinsert
p88
I42
VSimpleName: addCustomer
p89
tp90
I1
s(Vinsert
p91
I40
VQualifiedName: org.junit.After
p92
tp93
I1
s(Vinsert
p94
I42
VSimpleName: println
p95
tp96
I153
s(Vinsert
p97
I43
VSimpleType: Properties
p98
tp99
I4
s(Vinsert
p100
I40
VQualifiedName: cakeToppingInfo.calories
p101
tp102
I1
s(Vinsert
p103
I74
VParameterizedType: List<Potion>
p104
tp105
I2
s(Vinsert
p106
I45
VStringLiteral: "file:src/main/resources/beans.xml"
p107
tp108
I1
s(Vinsert
p109
I83
VModifier: protected
p110
tp111
I8
s(Vinsert
p112
I43
VSimpleType: Producer
p113
tp114
I4
s(Vinsert
p115
I42
VSimpleName: Objects
p116
tp117
I2
s(Vinsert
p118
I42
VSimpleName: glider
p119
tp120
I4
s(Vinsert
p121
I42
VSimpleName: openSession
p122
tp123
I1
s(Vinsert
p124
I42
VSimpleName: flip
p125
tp126
I2
s(Vinsert
p127
I40
VQualifiedName: com.iluwatar.adapter
p128
tp129
I1
s(Vinsert
p130
I42
VSimpleName: PoisonPotion
p131
tp132
I1
s(Vinsert
p133
I34
VNumberLiteral: 17
p134
tp135
I1
s(Vinsert
p136
I45
VStringLiteral: "foobar.com"
p137
tp138
I1
s(Vinsert
p139
I42
VSimpleName: promise
p140
tp141
I1
s(Vinsert
p142
I74
VParameterizedType: Optional<LotteryTicket>
p143
tp144
I1
s(Vinsert
p145
I42
VSimpleName: mapper
p146
tp147
I3
s(Vinsert
p148
I42
VSimpleName: eatSoul
p149
tp150
I1
s(Vinsert
p151
I42
VSimpleName: AppClient
p152
tp153
I5
s(Vinsert
p154
I42
VSimpleName: inventorySize
p155
tp156
I1
s(Vinsert
p157
I66
VTextElement:  if main thread is interruped.
p158
tp159
I1
s(Vinsert
p160
I49
VSwitchCase
p161
tp162
I10
s(Vinsert
p163
I55
VTypeDeclaration
p164
tp165
I22
s(Vinsert
p166
I42
VSimpleName: account
p167
tp168
I7
s(Vinsert
p169
I42
VSimpleName: thief
p170
tp171
I5
s(Vinsert
p172
I42
VSimpleName: expression
p173
tp174
I1
s(Vinsert
p175
I43
VSimpleType: Character
p176
tp177
I1
s(Vinsert
p178
I66
VTextElement: NOTE: The results are posted back in the context of background thread in this implementation.
p179
tp180
I1
s(Vinsert
p181
I42
VSimpleName: isDamaged
p182
tp183
I4
s(Vinsert
p184
I45
VStringLiteral: "}"
p185
tp186
I1
s(Vinsert
p187
I42
VSimpleName: actionPerformed
p188
tp189
I1
s(Vinsert
p190
I42
VSimpleName: setOut
p191
tp192
I19
s(Vinsert
p193
I42
VSimpleName: getAllSubmittedTickets
p194
tp195
I1
s(Vinsert
p196
I74
VParameterizedType: Map<String,String>
p197
tp198
I1
s(Vinsert
p199
I42
VSimpleName: s
p200
tp201
I3
s(Vinsert
p202
I42
VSimpleName: mockContainer
p203
tp204
I1
s(Vinsert
p205
I42
VSimpleName: tested
p206
tp207
I2
s(Vinsert
p208
I42
VSimpleName: enter
p209
tp210
I8
s(Vinsert
p211
I42
VSimpleName: set
p212
tp213
I7
s(Vinsert
p214
I45
VStringLiteral: "Fetching promise should result in exception if the task threw an exception"
p215
tp216
I1
s(Vinsert
p217
I66
VTextElement:  again from the 
p218
tp219
I3
s(Vinsert
p220
I42
VSimpleName: setHorizontalScrollBarPolicy
p221
tp222
I1
s(Vinsert
p223
I42
VSimpleName: remove
p224
tp225
I5
s(Vinsert
p226
I42
VSimpleName: cb
p227
tp228
I2
s(Vinsert
p229
I43
VSimpleType: Document
p230
tp231
I2
s(Vinsert
p232
I42
VSimpleName: enhancedWelcome
p233
tp234
I1
s(Vinsert
p235
I42
VSimpleName: spellbook
p236
tp237
I1
s(Vinsert
p238
I42
VSimpleName: args
p239
tp240
I144
s(Vinsert
p241
I42
VSimpleName: getAllToppingEntities
p242
tp243
I1
s(Vinsert
p244
I43
VSimpleType: Result
p245
tp246
I3
s(Vinsert
p247
I42
VSimpleName: DwarvenMineWorker
p248
tp249
I4
s(Vinsert
p250
I43
VSimpleType: AccessDeniedException
p251
tp252
I1
s(Vinsert
p253
I42
VSimpleName: getAuthorByUsername
p254
tp255
I1
s(Vinsert
p256
I42
VSimpleName: giveWine
p257
tp258
I1
s(Vinsert
p259
I43
VSimpleType: FileSelectorJFrame
p260
tp261
I1
s(Vinsert
p262
I43
VSimpleType: FilePrinterModule
p263
tp264
I1
s(Vinsert
p265
I42
VSimpleName: winningNumbers
p266
tp267
I1
s(Vinsert
p268
I43
VSimpleType: Customer
p269
tp270
I3
s(Vinsert
p271
I42
VSimpleName: setVisibility
p272
tp273
I3
s(Vinsert
p274
I42
VSimpleName: split
p275
tp276
I2
s(Vinsert
p277
I42
VSimpleName: Assert
p278
tp279
I2
s(Vinsert
p280
I43
VSimpleType: CoffeeMakingTask
p281
tp282
I1
s(Vinsert
p283
I66
VTextElement: runtime.
p284
tp285
I1
s(Vinsert
p286
I43
VSimpleType: PotatoPeelingTask
p287
tp288
I1
s(Vinsert
p289
I42
VSimpleName: CakeLayer
p290
tp291
I2
s(Vinsert
p292
I42
VSimpleName: imp
p293
tp294
I3
s(Vinsert
p295
I43
VSimpleType: Cake
p296
tp297
I2
s(Vinsert
p298
I42
VSimpleName: value
p299
tp300
I2
s(Vinsert
p301
I66
VTextElement:  returns the correct Nazgul multiton instance
p302
tp303
I1
s(Vinsert
p304
I42
VSimpleName: producer
p305
tp306
I3
s(Vinsert
p307
I42
VSimpleName: heroStatB
p308
tp309
I1
s(Vinsert
p310
I74
VParameterizedType: List<SimpleObject>
p311
tp312
I1
s(Vinsert
p313
I42
VSimpleName: KEY
p314
tp315
I2
s(Vinsert
p316
I43
VSimpleType: Class
p317
tp318
I2
s(Vinsert
p319
I42
VSimpleName: smoke
p320
tp321
I13
s(Vinsert
p322
I42
VSimpleName: addRoutes
p323
tp324
I1
s(Vinsert
p325
I42
VSimpleName: frontController
p326
tp327
I2
s(Vinsert
p328
I42
VSimpleName: giveCompliments
p329
tp330
I1
s(Vinsert
p331
I42
VSimpleName: DefaultCamelContext
p332
tp333
I1
s(Vinsert
p334
I43
VSimpleType: OrcKing
p335
tp336
I3
s(Vinsert
p337
I42
VSimpleName: SimpleObject
p338
tp339
I1
s(Vinsert
p340
I42
VSimpleName: welcomeMessage
p341
tp342
I1
s(Vinsert
p343
I42
VSimpleName: serviceJndiName
p344
tp345
I2
s(Vinsert
p346
I43
VSimpleType: GHobbits
p347
tp348
I1
s(Vinsert
p349
I42
VSimpleName: OldTobyTobacco
p350
tp351
I5
s(Vinsert
p352
I42
VSimpleName: Hostile
p353
tp354
I1
s(Vinsert
p355
I45
VStringLiteral: "AKHORAHIL="
p356
tp357
I1
s(Vinsert
p358
I42
VSimpleName: Server
p359
tp360
I3
s(Vinsert
p361
I42
VSimpleName: futureResult
p362
tp363
I4
s(Vinsert
p364
I43
VSimpleType: Hostile
p365
tp366
I1
s(Vinsert
p367
I42
VSimpleName: keySet
p368
tp369
I1
s(Vinsert
p370
I11
VCastExpression
p371
tp372
I30
s(Vinsert
p373
I42
VSimpleName: dcl1
p374
tp375
I1
s(Vinsert
p376
I42
VSimpleName: iterator
p377
tp378
I10
s(Vinsert
p379
I42
VSimpleName: setPreferredSize
p380
tp381
I1
s(Vinsert
p382
I42
VSimpleName: day
p383
tp384
I6
s(Vinsert
p385
I43
VSimpleType: FileLoader
p386
tp387
I2
s(Vinsert
p388
I42
VSimpleName: testConfiguration
p389
tp390
I3
s(Vinsert
p391
I42
VSimpleName: SmartTroll
p392
tp393
I1
s(Vinsert
p394
I42
VSimpleName: steal
p395
tp396
I6
s(Vinsert
p397
I42
VSimpleName: thenReturn
p398
tp399
I2
s(Vinsert
p400
I42
VSimpleName: contentType
p401
tp402
I2
s(Vinsert
p403
I42
VSimpleName: compareTo
p404
tp405
I1
s(Vinsert
p406
I66
VTextElement:  save new customer to list.
p407
tp408
I1
s(Vinsert
p409
I40
VQualifiedName: WeaponType.SPEAR
p410
tp411
I1
s(Vinsert
p412
I65
VTagElement: @see
p413
tp414
I4
s(Vinsert
p415
I43
VSimpleType: SoldierVisitor
p416
tp417
I2
s(Vinsert
p418
I42
VSimpleName: Collections
p419
tp420
I3
s(Vinsert
p421
I42
VSimpleName: character
p422
tp423
I3
s(Vinsert
p424
I42
VSimpleName: wakeup
p425
tp426
I1
s(Vinsert
p427
I42
VSimpleName: addRegisterEntitiesPackagePrefix
p428
tp429
I1
s(Vinsert
p430
I42
VSimpleName: AppManager
p431
tp432
I5
s(Vinsert
p433
I42
VSimpleName: setEjbService
p434
tp435
I2
s(Vinsert
p436
I34
VNumberLiteral: 120
p437
tp438
I2
s(Vinsert
p439
I42
VSimpleName: details2
p440
tp441
I1
s(Vinsert
p442
I43
VSimpleType: LotteryTicketId
p443
tp444
I1
s(Vinsert
p445
I42
VSimpleName: output2
p446
tp447
I1
s(Vinsert
p448
I42
VSimpleName: Criteria
p449
tp450
I3
s(Vinsert
p451
I42
VSimpleName: addItem
p452
tp453
I1
s(Vinsert
p454
I61
VWhileStatement
p455
tp456
I6
s(Vinsert
p457
I42
VSimpleName: Wizard
p458
tp459
I15
s(Vinsert
p460
I42
VSimpleName: other
p461
tp462
I2
s(Vinsert
p463
I42
VSimpleName: leftExpression
p464
tp465
I3
s(Vinsert
p466
I42
VSimpleName: KingsHand
p467
tp468
I1
s(Vinsert
p469
I42
VSimpleName: Content
p470
tp471
I2
s(Vinsert
p472
I42
VSimpleName: callingCount
p473
tp474
I1
s(Vinsert
p475
I42
VSimpleName: getClass
p476
tp477
I11
s(Vinsert
p478
I42
VSimpleName: freeGroup
p479
tp480
I1
s(Vinsert
p481
I43
VSimpleType: CriteriaBuilder
p482
tp483
I1
s(Vinsert
p484
I42
VSimpleName: CakeLayerDao
p485
tp486
I1
s(Vinsert
p487
I42
VSimpleName: topping2
p488
tp489
I1
s(Vinsert
p490
I42
VSimpleName: INVENTORY_SIZE
p491
tp492
I1
s(Vinsert
p493
I42
VSimpleName: DwarvenGoldDigger
p494
tp495
I1
s(Vinsert
p496
I43
VSimpleType: ExecutionContext
p497
tp498
I1
s(Vinsert
p499
I43
VSimpleType: UserUpdatedEvent
p500
tp501
I5
s(Vinsert
p502
I43
VSimpleType: Messenger
p503
tp504
I3
s(Vinsert
p505
I42
VSimpleName: obs
p506
tp507
I7
s(Vinsert
p508
I42
VSimpleName: senderName
p509
tp510
I2
s(Vinsert
p511
I42
VSimpleName: FishingBoat
p512
tp513
I6
s(Vinsert
p514
I42
VSimpleName: InetSocketAddress
p515
tp516
I1
s(Vinsert
p517
I74
VParameterizedType: Stream<DocumentImplementation>
p518
tp519
I1
s(Vinsert
p520
I43
VSimpleType: Request
p521
tp522
I7
s(Vinsert
p523
I80
VMemberValuePair
p524
tp525
I7
s(Vinsert
p526
I42
VSimpleName: createInjector
p527
tp528
I2
s(Vinsert
p529
I42
VSimpleName: LoggingHandler
p530
tp531
I2
s(Vinsert
p532
I42
VSimpleName: ItemIterator
p533
tp534
I2
s(Vinsert
p535
I43
VSimpleType: Reader
p536
tp537
I3
s(Vinsert
p538
I43
VSimpleType: PersonRepository
p539
tp540
I1
s(Vinsert
p541
I42
VSimpleName: soldierUnit
p542
tp543
I1
s(Vinsert
p544
I43
VSimpleType: ArrayList
p545
tp546
I4
s(Vinsert
p547
I42
VSimpleName: mix
p548
tp549
I6
s(Vinsert
p550
I42
VSimpleName: useReadAndWriteThroughStrategy
p551
tp552
I1
s(Vinsert
p553
I42
VSimpleName: attack
p554
tp555
I2
s(Vinsert
p556
I74
VParameterizedType: List<CakeLayerInfo>
p557
tp558
I1
s(Vinsert
p559
I45
VStringLiteral: "Sword"
p560
tp561
I1
s(Vinsert
p562
I42
VSimpleName: Weapon
p563
tp564
I2
s(Vinsert
p565
I42
VSimpleName: filters
p566
tp567
I1
s(Vinsert
p568
I43
VSimpleType: Nazgul
p569
tp570
I2
s(Vinsert
p571
I42
VSimpleName: getAccountNo
p572
tp573
I1
s(Vinsert
p574
I42
VSimpleName: consoleLoggerModule
p575
tp576
I4
s(Vinsert
p577
I43
VSimpleType: FileOutputStream
p578
tp579
I1
s(Vinsert
p580
I42
VSimpleName: process
p581
tp582
I8
s(Vinsert
p583
I34
VNumberLiteral: 8
p584
tp585
I2
s(Vinsert
p586
I45
VStringLiteral: "All customers:-"
p587
tp588
I1
s(Vinsert
p589
I42
VSimpleName: any
p590
tp591
I2
s(Vinsert
p592
I43
VSimpleType: AbstractNioChannel
p593
tp594
I4
s(Vinsert
p595
I42
VSimpleName: doDraw
p596
tp597
I1
s(Vinsert
p598
I42
VSimpleName: cakeToppingInfo
p599
tp600
I3
s(Vinsert
p601
I42
VSimpleName: SimpleObjects
p602
tp603
I1
s(Vinsert
p604
I42
VSimpleName: outputStream
p605
tp606
I1
s(Vinsert
p607
I42
VSimpleName: Word
p608
tp609
I3
s(Vinsert
p610
I42
VSimpleName: last
p611
tp612
I5
s(Vinsert
p613
I43
VSimpleType: LinkedList
p614
tp615
I1
s(Vinsert
p616
I42
VSimpleName: sessionFactory
p617
tp618
I3
s(Vinsert
p619
I42
VSimpleName: memberSupplier
p620
tp621
I1
s(Vinsert
p622
I43
VSimpleType: Spellbook
p623
tp624
I4
s(Vinsert
p625
I42
VSimpleName: testObserver
p626
tp627
I2
s(Vinsert
p628
I42
VSimpleName: beans
p629
tp630
I1
s(Vinsert
p631
I43
VSimpleType: King
p632
tp633
I3
s(Vinsert
p634
I42
VSimpleName: AbilityStep
p635
tp636
I1
s(Vinsert
p637
I42
VSimpleName: userDto
p638
tp639
I2
s(Vinsert
p640
I42
VSimpleName: epsonPrinter
p641
tp642
I2
s(Vinsert
p643
I57
VTypeLiteral
p644
tp645
I36
s(Vinsert
p646
I42
VSimpleName: FileLoader
p647
tp648
I2
s(Vinsert
p649
I43
VSimpleType: MenuItem
p650
tp651
I2
s(Vinsert
p652
I42
VSimpleName: GoblinGlider
p653
tp654
I2
s(Vinsert
p655
I42
VSimpleName: newBuilder
p656
tp657
I1
s(Vinsert
p658
I42
VSimpleName: consumer
p659
tp660
I2
s(Vinsert
p661
I43
VSimpleType: SpellbookDao
p662
tp663
I1
s(Vinsert
p664
I66
VTextElement: Create a new test instance for the given visitor
p665
tp666
I3
s(Vinsert
p667
I42
VSimpleName: ITEM_COUNT
p668
tp669
I1
s(Vinsert
p670
I42
VSimpleName: semantics
p671
tp672
I1
s(Vinsert
p673
I42
VSimpleName: queen
p674
tp675
I3
s(Vinsert
p676
I42
VSimpleName: nonExistingId
p677
tp678
I1
s(Vinsert
p679
I42
VSimpleName: prototype
p680
tp681
I3
s(Vinsert
p682
I42
VSimpleName: info
p683
tp684
I1
s(Vinsert
p685
I45
VStringLiteral: "length"
p686
tp687
I1
s(Vinsert
p688
I42
VSimpleName: SergeantVisitor
p689
tp690
I2
s(Vinsert
p691
I42
VSimpleName: l
p692
tp693
I1
s(Vinsert
p694
I42
VSimpleName: ofNullable
p695
tp696
I4
s(Vinsert
p697
I42
VSimpleName: guard
p698
tp699
I3
s(Vinsert
p700
I45
VStringLiteral: "Client 2"
p701
tp702
I1
s(Vinsert
p703
I43
VSimpleType: BigDecimal
p704
tp705
I3
s(Vinsert
p706
I43
VSimpleType: LotteryTicket
p707
tp708
I2
s(Vinsert
p709
I42
VSimpleName: GuiceWizard
p710
tp711
I1
s(Vinsert
p712
I42
VSimpleName: getConnection
p713
tp714
I1
s(Vinsert
p715
I42
VSimpleName: withHairColor
p716
tp717
I1
s(Vinsert
p718
I43
VSimpleType: Closeable
p719
tp720
I1
s(Vinsert
p721
I42
VSimpleName: addFilter
p722
tp723
I1
s(Vinsert
p724
I42
VSimpleName: Inventory
p725
tp726
I4
s(Vinsert
p727
I70
VEnhancedForStatement
p728
tp729
I20
s(Vinsert
p730
I42
VSimpleName: newLastname
p731
tp732
I3
s(Vinsert
p733
I65
VTagElement: @param
p734
tp735
I6
s(Vinsert
p736
I50
VSwitchStatement
p737
tp738
I4
s(Vinsert
p739
I42
VSimpleName: HttpClients
p740
tp741
I2
s(Vinsert
p742
I42
VSimpleName: SimpleObjectsTearDown
p743
tp744
I1
s(Vinsert
p745
I43
VSimpleType: JLabel
p746
tp747
I1
s(Vinsert
p748
I42
VSimpleName: times
p749
tp750
I2
s(Vinsert
p751
I66
VTextElement: mainly used for JUnit testing since one test should not influence the other
p752
tp753
I1
s(Vinsert
p754
I42
VSimpleName: index
p755
tp756
I1
s(Vinsert
p757
I42
VSimpleName: List
p758
tp759
I24
s(Vinsert
p760
I45
VStringLiteral: "%s hits %s"
p761
tp762
I2
s(Vinsert
p763
I43
VSimpleType: FilterChain
p764
tp765
I1
s(Vinsert
p766
I43
VSimpleType: ArgumentCaptor
p767
tp768
I1
s(Vinsert
p769
I42
VSimpleName: testSave
p770
tp771
I2
s(Vinsert
p772
I42
VSimpleName: find
p773
tp774
I4
s(Vinsert
p775
I42
VSimpleName: FileSelectorPresenter
p776
tp777
I2
s(Vinsert
p778
I45
VStringLiteral: "["
p779
tp780
I1
s(Vinsert
p781
I42
VSimpleName: blacksmith
p782
tp783
I2
s(Vinsert
p784
I45
VStringLiteral: "Donald"
p785
tp786
I1
s(Vinsert
p787
I45
VStringLiteral: "Java Puzzlers"
p788
tp789
I1
s(Vinsert
p790
I42
VSimpleName: getOutputStream
p791
tp792
I1
s(Vinsert
p793
I39
VPrimitiveType: int
p794
tp795
I19
s(Vinsert
p796
I42
VSimpleName: submit
p797
tp798
I8
s(Vinsert
p799
I43
VSimpleType: Oliphaunt
p800
tp801
I1
s(Vinsert
p802
I42
VSimpleName: startNewDay
p803
tp804
I2
s(Vinsert
p805
I42
VSimpleName: pendingWrite
p806
tp807
I1
s(Vinsert
p808
I43
VSimpleType: Unit
p809
tp810
I8
s(Vinsert
p811
I42
VSimpleName: GiantModelObserver
p812
tp813
I1
s(Vinsert
p814
I45
VStringLiteral: "@integration"
p815
tp816
I2
s(Vinsert
p817
I42
VSimpleName: findNextIdx
p818
tp819
I1
s(Vinsert
p820
I42
VSimpleName: tobaccoClass
p821
tp822
I1
s(Vinsert
p823
I42
VSimpleName: DatagramChannel
p824
tp825
I1
s(Vinsert
p826
I45
VStringLiteral: "Writer 1 finish"
p827
tp828
I1
s(Vinsert
p829
I42
VSimpleName: getStdOutMock
p830
tp831
I12
s(Vinsert
p832
I42
VSimpleName: abilities
p833
tp834
I1
s(Vinsert
p835
I42
VSimpleName: elfArmy
p836
tp837
I1
s(Vinsert
p838
I42
VSimpleName: I
p839
tp840
I1
s(Vinsert
p841
I43
VSimpleType: LazyLoadedIvoryTower
p842
tp843
I1
s(Vinsert
p844
I42
VSimpleName: heroStatC
p845
tp846
I1
s(Vinsert
p847
I40
VQualifiedName: Content.COMPANY
p848
tp849
I1
s(Vinsert
p850
I42
VSimpleName: intersectsWith
p851
tp852
I2
s(Vinsert
p853
I42
VSimpleName: response
p854
tp855
I2
s(Vinsert
p856
I45
VStringLiteral: "Red dragon emerges."
p857
tp858
I1
s(Vinsert
p859
I66
VTextElement: This class simply returns one instance of 
p860
tp861
I1
s(Vinsert
p862
I42
VSimpleName: AccessDeniedException
p863
tp864
I2
s(Vinsert
p865
I42
VSimpleName: createFluentIterable
p866
tp867
I2
s(Vinsert
p868
I42
VSimpleName: next
p869
tp870
I11
s(Vinsert
p871
I45
VStringLiteral: "Potion of rust"
p872
tp873
I1
s(Vinsert
p874
I42
VSimpleName: WINDY
p875
tp876
I1
s(Vinsert
p877
I34
VNumberLiteral: 1
p878
tp879
I25
s(Vinsert
p880
I42
VSimpleName: displayGiant
p881
tp882
I2
s(Vinsert
p883
I43
VSimpleType: HolderNaive
p884
tp885
I1
s(Vinsert
p886
I42
VSimpleName: holderField
p887
tp888
I2
s(Vinsert
p889
I42
VSimpleName: Weekday
p890
tp891
I5
s(Vinsert
p892
I43
VSimpleType: RainbowFish
p893
tp894
I1
s(Vinsert
p895
I42
VSimpleName: send
p896
tp897
I2
s(Vinsert
p898
I42
VSimpleName: words
p899
tp900
I4
s(Vinsert
p901
I66
VTextElement: . We will use the
p902
tp903
I2
s(Vinsert
p904
I42
VSimpleName: SoulEatingMagicWeaponImp
p905
tp906
I1
s(Vinsert
p907
I42
VSimpleName: o
p908
tp909
I8
s(Vinsert
p910
I42
VSimpleName: domainEvent
p911
tp912
I2
s(Vinsert
p913
I42
VSimpleName: createDefault
p914
tp915
I2
s(Vinsert
p916
I42
VSimpleName: SocketChannel
p917
tp918
I1
s(Vinsert
p919
I42
VSimpleName: AddressFilter
p920
tp921
I1
s(Vinsert
p922
I43
VSimpleType: CatapultView
p923
tp924
I1
s(Vinsert
p925
I42
VSimpleName: executeService
p926
tp927
I2
s(Vinsert
p928
I45
VStringLiteral: "SergeantUnitTest"
p929
tp930
I1
s(Vinsert
p931
I45
VStringLiteral: "Japanese"
p932
tp933
I2
s(Vinsert
p934
I42
VSimpleName: checkParam
p935
tp936
I1
s(Vinsert
p937
I42
VSimpleName: getOrder
p938
tp939
I1
s(Vinsert
p940
I43
VSimpleType: Star
p941
tp942
I1
s(Vinsert
p943
I42
VSimpleName: Before
p944
tp945
I19
s(Vinsert
p946
I42
VSimpleName: InOrder
p947
tp948
I2
s(Vinsert
p949
I42
VSimpleName: executionContext
p950
tp951
I1
s(Vinsert
p952
I43
VSimpleType: Optional
p953
tp954
I6
s(Vinsert
p955
I42
VSimpleName: Converter
p956
tp957
I1
s(Vinsert
p958
I42
VSimpleName: userCreatedEvent
p959
tp960
I9
s(Vinsert
p961
I42
VSimpleName: children
p962
tp963
I9
s(Vinsert
p964
I66
VTextElement:  customer id which is randomly generated
p965
tp966
I1
s(Vinsert
p967
I42
VSimpleName: Promise
p968
tp969
I2
s(Vinsert
p970
I43
VSimpleType: BlindingMagicWeapon
p971
tp972
I1
s(Vinsert
p973
I42
VSimpleName: excalibur
p974
tp975
I2
s(Vinsert
p976
I42
VSimpleName: runnableDf
p977
tp978
I4
s(Vinsert
p979
I42
VSimpleName: Star
p980
tp981
I1
s(Vinsert
p982
I43
VSimpleType: Army
p983
tp984
I1
s(Vinsert
p985
I43
VSimpleType: Item
p986
tp987
I7
s(Vinsert
p988
I43
VSimpleType: LocalDateTime
p989
tp990
I1
s(Vinsert
p991
I42
VSimpleName: fromCopyOf
p992
tp993
I1
s(Vinsert
p994
I42
VSimpleName: worker
p995
tp996
I4
s(Vinsert
p997
I45
VStringLiteral: "topping"
p998
tp999
I1
s(Vinsert
p1000
I40
VQualifiedName: Stats.ARMOR
p1001
tp1002
I1
s(Vinsert
p1003
I42
VSimpleName: SpellStrategy
p1004
tp1005
I1
s(Vinsert
p1006
I42
VSimpleName: stew
p1007
tp1008
I4
s(Vinsert
p1009
I27
VInfixExpression: >
p1010
tp1011
I2
s(Vinsert
p1012
I42
VSimpleName: assertSame
p1013
tp1014
I1
s(Vinsert
p1015
I42
VSimpleName: getPrice
p1016
tp1017
I2
s(Vinsert
p1018
I43
VSimpleType: ParseException
p1019
tp1020
I1
s(Vinsert
p1021
I43
VSimpleType: LoggingClient
p1022
tp1023
I2
s(Vinsert
p1024
I42
VSimpleName: Goblin
p1025
tp1026
I4
s(Vinsert
p1027
I42
VSimpleName: withArmor
p1028
tp1029
I1
s(Vinsert
p1030
I43
VSimpleType: Sword
p1031
tp1032
I1
s(Vinsert
p1033
I66
VTextElement: Developer/Tester is able to choose whether the application should use MongoDB as its underlying
p1034
tp1035
I1
s(Vinsert
p1036
I42
VSimpleName: UnitVisitor
p1037
tp1038
I7
s(Vinsert
p1039
I42
VSimpleName: ErrorView
p1040
tp1041
I1
s(Vinsert
p1042
I43
VSimpleType: Stew
p1043
tp1044
I2
s(Vinsert
p1045
I42
VSimpleName: Stew
p1046
tp1047
I2
s(Vinsert
p1048
I42
VSimpleName: hpPrinterController
p1049
tp1050
I2
s(Vinsert
p1051
I43
VSimpleType: Content
p1052
tp1053
I1
s(Vinsert
p1054
I42
VSimpleName: soldier
p1055
tp1056
I2
s(Vinsert
p1057
I42
VSimpleName: LotteryTicketId
p1058
tp1059
I1
s(Vinsert
p1060
I42
VSimpleName: spell17
p1061
tp1062
I1
s(Vinsert
p1063
I74
VParameterizedType: List<User>
p1064
tp1065
I1
s(Vinsert
p1066
I42
VSimpleName: to
p1067
tp1068
I4
s(Vinsert
p1069
I43
VSimpleType: Worker
p1070
tp1071
I2
s(Vinsert
p1072
I42
VSimpleName: getDeclaredField
p1073
tp1074
I1
s(Vinsert
p1075
I66
VTextElement: .
p1076
tp1077
I2
s(Vinsert
p1078
I43
VSimpleType: DragonSlayingStrategy
p1079
tp1080
I4
s(Vinsert
p1081
I43
VSimpleType: Store
p1082
tp1083
I1
s(Vinsert
p1084
I42
VSimpleName: getLogger
p1085
tp1086
I10
s(Vinsert
p1087
I42
VSimpleName: O
p1088
tp1089
I5
s(Vinsert
p1090
I42
VSimpleName: addUserToPaidGroup
p1091
tp1092
I1
s(Vinsert
p1093
I43
VSimpleType: UnitExtension
p1094
tp1095
I3
s(Vinsert
p1096
I83
VModifier: abstract
p1097
tp1098
I3
s(Vinsert
p1099
I42
VSimpleName: members
p1100
tp1101
I1
s(Vinsert
p1102
I43
VSimpleType: Handler
p1103
tp1104
I2
s(Vinsert
p1105
I74
VParameterizedType: Converter<>
p1106
tp1107
I1
s(Vinsert
p1108
I42
VSimpleName: GiantController
p1109
tp1110
I4
s(Vinsert
p1111
I42
VSimpleName: publishedEventIsReceivedBySubscribedMember
p1112
tp1113
I1
s(Vinsert
p1114
I42
VSimpleName: serviceName
p1115
tp1116
I7
s(Vinsert
p1117
I42
VSimpleName: topShelf
p1118
tp1119
I4
s(Vinsert
p1120
I42
VSimpleName: CommanderVisitor
p1121
tp1122
I2
s(Vinsert
p1123
I43
VSimpleType: DesktopProduct
p1124
tp1125
I5
s(Vinsert
p1126
I43
VSimpleType: StandardServiceRegistryBuilder
p1127
tp1128
I1
s(Vinsert
p1129
I42
VSimpleName: setMoney
p1130
tp1131
I1
s(Vinsert
p1132
I66
VTextElement: main method.
p1133
tp1134
I1
s(Vinsert
p1135
I42
VSimpleName: RainbowFishSerializer
p1136
tp1137
I1
s(Vinsert
p1138
I42
VSimpleName: redoLastSpell
p1139
tp1140
I1
s(Vinsert
p1141
I42
VSimpleName: LoggerFactory
p1142
tp1143
I1
s(Vinsert
p1144
I2
VArrayAccess
p1145
tp1146
I16
s(Vinsert
p1147
I45
VStringLiteral: "fish1.out"
p1148
tp1149
I1
s(Vinsert
p1150
I74
VParameterizedType: List<Spellbook>
p1151
tp1152
I2
s(Vinsert
p1153
I42
VSimpleName: hero
p1154
tp1155
I1
s(Vinsert
p1156
I45
VStringLiteral: "A simple looking troll approaches."
p1157
tp1158
I1
s(Vinsert
p1159
I42
VSimpleName: findAllWizards
p1160
tp1161
I2
s(Vinsert
p1162
I43
VSimpleType: ImageController
p1163
tp1164
I2
s(Vinsert
p1165
I42
VSimpleName: walkingCreatures
p1166
tp1167
I1
s(Vinsert
p1168
I42
VSimpleName: createPotion
p1169
tp1170
I4
s(Vinsert
p1171
I42
VSimpleName: Command
p1172
tp1173
I6
s(Vinsert
p1174
I42
VSimpleName: UnsupportedOperationException
p1175
tp1176
I1
s(Vinsert
p1177
I1
VAnonymousClassDeclaration
p1178
tp1179
I6
s(Vinsert
p1180
I42
VSimpleName: testSmoke
p1181
tp1182
I1
s(Vinsert
p1183
I45
VStringLiteral: "George"
p1184
tp1185
I1
s(Vinsert
p1186
I42
VSimpleName: executeUpdate
p1187
tp1188
I1
s(Vinsert
p1189
I86
VLambdaExpression
p1190
tp1191
I8
s(Vinsert
p1192
I45
VStringLiteral: "Sliding door opens."
p1193
tp1194
I1
s(Vinsert
p1195
I42
VSimpleName: getLengthMeters
p1196
tp1197
I3
s(Vinsert
p1198
I42
VSimpleName: Math
p1199
tp1200
I1
s(Vinsert
p1201
I43
VSimpleType: EventEmitter
p1202
tp1203
I1
s(Vinsert
p1204
I43
VSimpleType: ApplicationException
p1205
tp1206
I1
s(Vinsert
p1207
I42
VSimpleName: request
p1208
tp1209
I14
s(Vinsert
p1210
I34
VNumberLiteral: 6666
p1211
tp1212
I1
s(Vinsert
p1213
I42
VSimpleName: idx
p1214
tp1215
I2
s(Vinsert
p1216
I42
VSimpleName: testAxeWeapon
p1217
tp1218
I1
s(Vinsert
p1219
I43
VSimpleType: SmartTroll
p1220
tp1221
I1
s(Vinsert
p1222
I42
VSimpleName: print
p1223
tp1224
I10
s(Vinsert
p1225
I43
VSimpleType: CamelContext
p1226
tp1227
I5
s(Vinsert
p1228
I42
VSimpleName: doTask
p1229
tp1230
I4
s(Vinsert
p1231
I45
VStringLiteral: "Meteoroid at [1,2,3,4] damaged=false onFire=false"
p1232
tp1233
I1
s(Vinsert
p1234
I42
VSimpleName: getType
p1235
tp1236
I3
s(Vinsert
p1237
I45
VStringLiteral: "Writer 1 begin"
p1238
tp1239
I2
s(Vinsert
p1240
I42
VSimpleName: withAbility
p1241
tp1242
I1
s(Vinsert
p1243
I42
VSimpleName: criteria
p1244
tp1245
I4
s(Vinsert
p1246
I42
VSimpleName: getMessage
p1247
tp1248
I1
s(Vinsert
p1249
I42
VSimpleName: queuingLayer
p1250
tp1251
I1
s(Vinsert
p1252
I43
VSimpleType: TreasureChest
p1253
tp1254
I4
s(Vinsert
p1255
I42
VSimpleName: accountTo
p1256
tp1257
I2
s(Vinsert
p1258
I74
VParameterizedType: List<Map<String,Object>>
p1259
tp1260
I1
s(Vinsert
p1261
I42
VSimpleName: fly
p1262
tp1263
I1
s(Vinsert
p1264
I42
VSimpleName: statement
p1265
tp1266
I4
s(Vinsert
p1267
I42
VSimpleName: uname
p1268
tp1269
I2
s(Vinsert
p1270
I43
VSimpleType: U
p1271
tp1272
I1
s(Vinsert
p1273
I74
VParameterizedType: List<EventEmitter>
p1274
tp1275
I1
s(Vinsert
p1276
I42
VSimpleName: DragonSlayer
p1277
tp1278
I4
s(Vinsert
p1279
I42
VSimpleName: getHandlers
p1280
tp1281
I2
s(Vinsert
p1282
I42
VSimpleName: onPostCall
p1283
tp1284
I2
s(Vinsert
p1285
I40
VQualifiedName: Profession.WARRIOR
p1286
tp1287
I2
s(Vinsert
p1288
I39
VPrimitiveType: byte
p1289
tp1290
I2
s(Vinsert
p1291
I42
VSimpleName: newExchange
p1292
tp1293
I2
s(Vinsert
p1294
I42
VSimpleName: FilePrinterModule
p1295
tp1296
I3
s(Vinsert
p1297
I42
VSimpleName: Mammoth
p1298
tp1299
I4
s(Vinsert
p1300
I43
VSimpleType: SQLException
p1301
tp1302
I3
s(Vinsert
p1303
I42
VSimpleName: terry
p1304
tp1305
I3
s(Vinsert
p1306
I42
VSimpleName: outputFile
p1307
tp1308
I2
s(Vinsert
p1309
I42
VSimpleName: SoldierVisitorTest
p1310
tp1311
I1
s(Vinsert
p1312
I42
VSimpleName: findOne
p1313
tp1314
I1
s(Vinsert
p1315
I42
VSimpleName: user
p1316
tp1317
I9
s(Vinsert
p1318
I42
VSimpleName: RainbowFishV2
p1319
tp1320
I1
s(Vinsert
p1321
I42
VSimpleName: CharacterStepBuilder
p1322
tp1323
I1
s(Vinsert
p1324
I42
VSimpleName: wizard2
p1325
tp1326
I2
s(Vinsert
p1327
I42
VSimpleName: createKing
p1328
tp1329
I1
s(Vinsert
p1330
I42
VSimpleName: DirtiesContext
p1331
tp1332
I3
s(Vinsert
p1333
I42
VSimpleName: WRONG_NAME
p1334
tp1335
I1
s(Vinsert
p1336
I42
VSimpleName: testedPrototype
p1337
tp1338
I1
s(Vinsert
p1339
I42
VSimpleName: from
p1340
tp1341
I7
s(Vinsert
p1342
I42
VSimpleName: gnomeEngineer
p1343
tp1344
I1
s(Vinsert
p1345
I43
VSimpleType: Royalty
p1346
tp1347
I3
s(Vinsert
p1348
I42
VSimpleName: container
p1349
tp1350
I2
s(Vinsert
p1351
I42
VSimpleName: flyGoblinGlider
p1352
tp1353
I2
s(Vinsert
p1354
I76
VWildcardType: ? extends Tobacco
p1355
tp1356
I1
s(Vinsert
p1357
I42
VSimpleName: testFields
p1358
tp1359
I1
s(Vinsert
p1360
I40
VQualifiedName: com.iluwatar.eda.model.User
p1361
tp1362
I1
s(Vinsert
p1363
I74
VParameterizedType: Queue<Object>
p1364
tp1365
I1
s(Vinsert
p1366
I43
VSimpleType: PrinterController
p1367
tp1368
I6
s(Vinsert
p1369
I42
VSimpleName: MenuItem
p1370
tp1371
I4
s(Vinsert
p1372
I40
VQualifiedName: f.length
p1373
tp1374
I1
s(Vinsert
p1375
I42
VSimpleName: testWireTap
p1376
tp1377
I1
s(Vinsert
p1378
I42
VSimpleName: getWelcomeMessage
p1379
tp1380
I2
s(Vinsert
p1381
I42
VSimpleName: simpleTroll
p1382
tp1383
I1
s(Vinsert
p1384
I42
VSimpleName: setTwin
p1385
tp1386
I3
s(Vinsert
p1387
I42
VSimpleName: EjbService
p1388
tp1389
I2
s(Vinsert
p1390
I42
VSimpleName: findAllSpellbooks
p1391
tp1392
I1
s(Vinsert
p1393
I42
VSimpleName: wieldImp
p1394
tp1395
I3
s(Vinsert
p1396
I42
VSimpleName: chest
p1397
tp1398
I5
s(Vinsert
p1399
I42
VSimpleName: setVerticalScrollBarPolicy
p1400
tp1401
I1
s(Vinsert
p1402
I42
VSimpleName: FileOutputStream
p1403
tp1404
I1
s(Vinsert
p1405
I74
VParameterizedType: Future<O>
p1406
tp1407
I1
s(Vinsert
p1408
I42
VSimpleName: CommanderVisitorTest
p1409
tp1410
I1
s(Vinsert
p1411
I42
VSimpleName: Letter
p1412
tp1413
I3
s(Vinsert
p1414
I45
VStringLiteral: "Godzilla Resurgence"
p1415
tp1416
I2
s(Vinsert
p1417
I42
VSimpleName: setFlirtiness
p1418
tp1419
I1
s(Vinsert
p1420
I42
VSimpleName: extensionName
p1421
tp1422
I6
s(Vinsert
p1423
I42
VSimpleName: filterChain
p1424
tp1425
I1
s(Vinsert
p1426
I42
VSimpleName: loaded
p1427
tp1428
I1
s(Vinsert
p1429
I43
VSimpleType: Supplier
p1430
tp1431
I3
s(Vinsert
p1432
I43
VSimpleType: SergeantVisitor
p1433
tp1434
I2
s(Vinsert
p1435
I42
VSimpleName: Rogue
p1436
tp1437
I1
s(Vinsert
p1438
I43
VSimpleType: PriceController
p1439
tp1440
I2
s(Vinsert
p1441
I42
VSimpleName: stat
p1442
tp1443
I1
s(Vinsert
p1444
I42
VSimpleName: name
p1445
tp1446
I19
s(Vinsert
p1447
I42
VSimpleName: UserGroup
p1448
tp1449
I3
s(Vinsert
p1450
I45
VStringLiteral: "Creating Heavy ..."
p1451
tp1452
I1
s(Vinsert
p1453
I42
VSimpleName: valueOf
p1454
tp1455
I6
s(Vinsert
p1456
I43
VSimpleType: Order
p1457
tp1458
I4
s(Vinsert
p1459
I42
VSimpleName: mas
p1460
tp1461
I1
s(Vinsert
p1462
I42
VSimpleName: testBasicWeaponActions
p1463
tp1464
I3
s(Vinsert
p1465
I27
VInfixExpression: %
p1466
tp1467
I1
s(Vinsert
p1468
I42
VSimpleName: EnumIvoryTower
p1469
tp1470
I2
s(Vinsert
p1471
I42
VSimpleName: initMocks
p1472
tp1473
I1
s(Vinsert
p1474
I32
VMethodInvocation
p1475
tp1476
I1435
s(Vinsert
p1477
I42
VSimpleName: soldierResponse
p1478
tp1479
I2
s(Vinsert
p1480
I43
VSimpleType: User
p1481
tp1482
I6
s(Vinsert
p1483
I42
VSimpleName: blind
p1484
tp1485
I1
s(Vinsert
p1486
I42
VSimpleName: AbstractModule
p1487
tp1488
I1
s(Vinsert
p1489
I42
VSimpleName: f
p1490
tp1491
I1
s(Vinsert
p1492
I42
VSimpleName: getCustomerById
p1493
tp1494
I1
s(Vinsert
p1495
I45
VStringLiteral: "15.12.2015"
p1496
tp1497
I2
s(Vinsert
p1498
I16
VConditionalExpression
p1499
tp1500
I6
s(Vinsert
p1501
I42
VSimpleName: optionalCaptor
p1502
tp1503
I1
s(Vinsert
p1504
I42
VSimpleName: getFirstName
p1505
tp1506
I2
s(Vinsert
p1507
I42
VSimpleName: studentToBeInserted
p1508
tp1509
I2
s(Vinsert
p1510
I42
VSimpleName: oliphaunt3
p1511
tp1512
I2
s(Vinsert
p1513
I42
VSimpleName: messenger
p1514
tp1515
I2
s(Vinsert
p1516
I42
VSimpleName: menuStore
p1517
tp1518
I2
s(Vinsert
p1519
I42
VSimpleName: requireNonNull
p1520
tp1521
I2
s(Vinsert
p1522
I42
VSimpleName: awaitTermination
p1523
tp1524
I2
s(Vinsert
p1525
I43
VSimpleType: OrcBlacksmith
p1526
tp1527
I1
s(Vinsert
p1528
I42
VSimpleName: handleRequest
p1529
tp1530
I8
s(Vinsert
p1531
I42
VSimpleName: Troll
p1532
tp1533
I2
s(Vinsert
p1534
I42
VSimpleName: loadBalancer2
p1535
tp1536
I1
s(Vinsert
p1537
I43
VSimpleType: AddressFilter
p1538
tp1539
I1
s(Vinsert
p1540
I42
VSimpleName: MessageCollectorMember
p1541
tp1542
I2
s(Vinsert
p1543
I43
VSimpleType: HolderThreadSafe
p1544
tp1545
I3
s(Vinsert
p1546
I45
VStringLiteral: "tom@foo.bar"
p1547
tp1548
I1
s(Vinsert
p1549
I42
VSimpleName: priceClient
p1550
tp1551
I1
s(Vinsert
p1552
I42
VSimpleName: containsValue
p1553
tp1554
I1
s(Vinsert
p1555
I43
VSimpleType: WizardTower
p1556
tp1557
I1
s(Vinsert
p1558
I43
VSimpleType: SimpleWizard
p1559
tp1560
I2
s(Vinsert
p1561
I42
VSimpleName: TobaccoModule
p1562
tp1563
I1
s(Vinsert
p1564
I3
VArrayCreation
p1565
tp1566
I6
s(Vinsert
p1567
I45
VStringLiteral: "The happy hobbits bade in the warm sun."
p1568
tp1569
I2
s(Vinsert
p1570
I42
VSimpleName: BusinessService
p1571
tp1572
I3
s(Vinsert
p1573
I42
VSimpleName: testFedDrunkUncomplimentedKing
p1574
tp1575
I1
s(Vinsert
p1576
I42
VSimpleName: sergeant
p1577
tp1578
I3
s(Vinsert
p1579
I43
VSimpleType: Rogue
p1580
tp1581
I1
s(Vinsert
p1582
I66
VTextElement:  hongshuwei@gmail.com
p1583
tp1584
I1
s(Vinsert
p1585
I42
VSimpleName: Result
p1586
tp1587
I3
s(Vinsert
p1588
I42
VSimpleName: swimmingCreature
p1589
tp1590
I2
s(Vinsert
p1591
I43
VSimpleType: Task
p1592
tp1593
I3
s(Vinsert
p1594
I42
VSimpleName: test
p1595
tp1596
I116
s(Vinsert
p1597
I42
VSimpleName: TreasureChest
p1598
tp1599
I6
s(Vinsert
p1600
I42
VSimpleName: pendingWrites
p1601
tp1602
I2
s(Vinsert
p1603
I43
VSimpleType: HashMap
p1604
tp1605
I2
s(Vinsert
p1606
I42
VSimpleName: Item
p1607
tp1608
I9
s(Vinsert
p1609
I42
VSimpleName: getStudentId
p1610
tp1611
I2
s(Vinsert
p1612
I42
VSimpleName: lookupService
p1613
tp1614
I1
s(Vinsert
p1615
I42
VSimpleName: InvisibilityPotion
p1616
tp1617
I2
s(Vinsert
p1618
I42
VSimpleName: getWizardClass
p1619
tp1620
I1
s(Vinsert
p1621
I42
VSimpleName: IllegalArgumentException
p1622
tp1623
I1
s(Vinsert
p1624
I45
VStringLiteral: "old goblin woman"
p1625
tp1626
I1
s(Vinsert
p1627
I42
VSimpleName: Tobacco
p1628
tp1629
I3
s(Vinsert
p1630
I42
VSimpleName: wakeUp
p1631
tp1632
I1
s(Vinsert
p1633
I42
VSimpleName: open
p1634
tp1635
I2
s(Vinsert
p1636
I42
VSimpleName: getBean
p1637
tp1638
I6
s(Vinsert
p1639
I42
VSimpleName: state
p1640
tp1641
I5
s(Vinsert
p1642
I42
VSimpleName: ex
p1643
tp1644
I1
s(Vinsert
p1645
I43
VSimpleType: UserAccount
p1646
tp1647
I3
s(Vinsert
p1648
I43
VSimpleType: HitAndRunMethod
p1649
tp1650
I1
s(Vinsert
p1651
I42
VSimpleName: rectangle
p1652
tp1653
I3
s(Vinsert
p1654
I42
VSimpleName: accountCreateEvent
p1655
tp1656
I1
s(Vinsert
p1657
I42
VSimpleName: isSuspended
p1658
tp1659
I1
s(Vinsert
p1660
I43
VSimpleType: SimpleObject
p1661
tp1662
I1
s(Vinsert
p1663
I42
VSimpleName: configure
p1664
tp1665
I9
s(Vinsert
p1666
I43
VSimpleType: Student
p1667
tp1668
I3
s(Vinsert
p1669
I43
VSimpleType: CakeLayerDao
p1670
tp1671
I1
s(Vinsert
p1672
I42
VSimpleName: dao
p1673
tp1674
I12
s(Vinsert
p1675
I42
VSimpleName: GnomeEngineer
p1676
tp1677
I3
s(Vinsert
p1678
I42
VSimpleName: getArmy
p1679
tp1680
I2
s(Vinsert
p1681
I42
VSimpleName: enumValues
p1682
tp1683
I3
s(Vinsert
p1684
I43
VSimpleType: InetSocketAddress
p1685
tp1686
I1
s(Vinsert
p1687
I42
VSimpleName: getDeclaredFields
p1688
tp1689
I1
s(Vinsert
p1690
I40
VQualifiedName: PotionType.HEALING
p1691
tp1692
I1
s(Vinsert
p1693
I45
VStringLiteral: "+12323425"
p1694
tp1695
I1
s(Vinsert
p1696
I43
VSimpleType: Action
p1697
tp1698
I2
s(Vinsert
p1699
I66
VTextElement: which can fire and move. The spec is in 
p1700
tp1701
I2
s(Vinsert
p1702
I42
VSimpleName: contentStore
p1703
tp1704
I4
s(Vinsert
p1705
I42
VSimpleName: guiceWizard
p1706
tp1707
I1
s(Vinsert
p1708
I42
VSimpleName: Stats
p1709
tp1710
I1
s(Vinsert
p1711
I42
VSimpleName: title
p1712
tp1713
I2
s(Vinsert
p1714
I42
VSimpleName: getAddress
p1715
tp1716
I1
s(Vinsert
p1717
I42
VSimpleName: size
p1718
tp1719
I10
s(Vinsert
p1720
I42
VSimpleName: queue
p1721
tp1722
I9
s(Vinsert
p1723
I42
VSimpleName: testGetInstance
p1724
tp1725
I1
s(Vinsert
p1726
I42
VSimpleName: setAgeYears
p1727
tp1728
I1
s(Vinsert
p1729
I42
VSimpleName: member
p1730
tp1731
I4
s(Vinsert
p1732
I42
VSimpleName: imagePath
p1733
tp1734
I1
s(Vinsert
p1735
I45
VStringLiteral: "Green dragon spotted ahead!"
p1736
tp1737
I1
s(Vinsert
p1738
I42
VSimpleName: format
p1739
tp1740
I21
s(Vinsert
p1741
I42
VSimpleName: readFromDB
p1742
tp1743
I1
s(Vinsert
p1744
I42
VSimpleName: Iterator
p1745
tp1746
I3
s(Vinsert
p1747
I45
VStringLiteral: "test"
p1748
tp1749
I2
s(Vinsert
p1750
I42
VSimpleName: setInt
p1751
tp1752
I1
s(Vinsert
p1753
I42
VSimpleName: item
p1754
tp1755
I5
s(Vinsert
p1756
I42
VSimpleName: dummyCustomerApi
p1757
tp1758
I2
s(Vinsert
p1759
I42
VSimpleName: getSessionFactory
p1760
tp1761
I2
s(Vinsert
p1762
I45
VStringLiteral: "JI_INDUR="
p1763
tp1764
I1
s(Vinsert
p1765
I42
VSimpleName: getData
p1766
tp1767
I1
s(Vinsert
p1768
I42
VSimpleName: ReaderWriterLock
p1769
tp1770
I2
s(Vinsert
p1771
I42
VSimpleName: getModel
p1772
tp1773
I1
s(Vinsert
p1774
I42
VSimpleName: states
p1775
tp1776
I1
s(Vinsert
p1777
I40
VQualifiedName: ItemType.POTION
p1778
tp1779
I2
s(Vinsert
p1780
I42
VSimpleName: assertNull
p1781
tp1782
I5
s(Vinsert
p1783
I43
VSimpleType: FixtureScriptsSpecification
p1784
tp1785
I1
s(Vinsert
p1786
I43
VSimpleType: Expectations
p1787
tp1788
I1
s(Vinsert
p1789
I42
VSimpleName: getEmail
p1790
tp1791
I1
s(Vinsert
p1792
I42
VSimpleName: Reader
p1793
tp1794
I4
s(Vinsert
p1795
I74
VParameterizedType: Optional<String>
p1796
tp1797
I1
s(Vinsert
p1798
I42
VSimpleName: wizardsWithSpellbook
p1799
tp1800
I2
s(Vinsert
p1801
I42
VSimpleName: BusinessDelegate
p1802
tp1803
I1
s(Vinsert
p1804
I42
VSimpleName: ParameterLayout
p1805
tp1806
I1
s(Vinsert
p1807
I42
VSimpleName: KingdomFactory
p1808
tp1809
I1
s(Vinsert
p1810
I42
VSimpleName: ballItem
p1811
tp1812
I4
s(Vinsert
p1813
I42
VSimpleName: Service
p1814
tp1815
I6
s(Vinsert
p1816
I34
VNumberLiteral: 5
p1817
tp1818
I6
s(Vinsert
p1819
I42
VSimpleName: lookup
p1820
tp1821
I1
s(Vinsert
p1822
I42
VSimpleName: LazyFluentIterable
p1823
tp1824
I1
s(Vinsert
p1825
I42
VSimpleName: pendingPacket
p1826
tp1827
I1
s(Vinsert
p1828
I42
VSimpleName: undoLastSpell
p1829
tp1830
I3
s(Vinsert
p1831
I42
VSimpleName: builder
p1832
tp1833
I5
s(Vinsert
p1834
I42
VSimpleName: getIn
p1835
tp1836
I2
s(Vinsert
p1837
I34
VNumberLiteral: 10000
p1838
tp1839
I1
s(Vinsert
p1840
I42
VSimpleName: newCachedThreadPool
p1841
tp1842
I2
s(Vinsert
p1843
I43
VSimpleType: AppClient
p1844
tp1845
I5
s(Vinsert
p1846
I42
VSimpleName: sleep
p1847
tp1848
I3
s(Vinsert
p1849
I42
VSimpleName: checkExtensionsForUnit
p1850
tp1851
I2
s(Vinsert
p1852
I42
VSimpleName: isEmpty
p1853
tp1854
I2
s(Vinsert
p1855
I42
VSimpleName: menuAction
p1856
tp1857
I2
s(Vinsert
p1858
I42
VSimpleName: View
p1859
tp1860
I8
s(Vinsert
p1861
I42
VSimpleName: mir
p1862
tp1863
I3
s(Vinsert
p1864
I42
VSimpleName: ApiGateway
p1865
tp1866
I3
s(Vinsert
p1867
I42
VSimpleName: unit
p1868
tp1869
I14
s(Vinsert
p1870
I42
VSimpleName: alchemistShop
p1871
tp1872
I2
s(Vinsert
p1873
I45
VStringLiteral: "Contact Number"
p1874
tp1875
I1
s(Vinsert
p1876
I42
VSimpleName: lowestFrequencyChar
p1877
tp1878
I1
s(Vinsert
p1879
I42
VSimpleName: Weather
p1880
tp1881
I2
s(Vinsert
p1882
I74
VParameterizedType: Callable<T>
p1883
tp1884
I1
s(Vinsert
p1885
I42
VSimpleName: getAge
p1886
tp1887
I3
s(Vinsert
p1888
I42
VSimpleName: array
p1889
tp1890
I1
s(Vinsert
p1891
I42
VSimpleName: setAccessible
p1892
tp1893
I1
s(Vinsert
p1894
I42
VSimpleName: menuItem
p1895
tp1896
I1
s(Vinsert
p1897
I42
VSimpleName: Creature
p1898
tp1899
I9
s(Vinsert
p1900
I42
VSimpleName: eq
p1901
tp1902
I1
s(Vinsert
p1903
I42
VSimpleName: total
p1904
tp1905
I2
s(Vinsert
p1906
I42
VSimpleName: students
p1907
tp1908
I4
s(Vinsert
p1909
I42
VSimpleName: happyCase
p1910
tp1911
I1
s(Vinsert
p1912
I42
VSimpleName: BattleShip
p1913
tp1914
I2
s(Vinsert
p1915
I42
VSimpleName: getBusinessService
p1916
tp1917
I2
s(Vinsert
p1918
I43
VSimpleType: CanonPrinter
p1919
tp1920
I1
s(Vinsert
p1921
I42
VSimpleName: testPartyAction
p1922
tp1923
I1
s(Vinsert
p1924
I43
VSimpleType: App
p1925
tp1926
I5
s(Vinsert
p1927
I42
VSimpleName: bottomShelf
p1928
tp1929
I1
s(Vinsert
p1930
I42
VSimpleName: Health
p1931
tp1932
I2
s(Vinsert
p1933
I27
VInfixExpression: ==
p1934
tp1935
I23
s(Vinsert
p1936
I43
VSimpleType: DwarvenGoldmineFacade
p1937
tp1938
I2
s(Vinsert
p1939
I42
VSimpleName: DBManager
p1940
tp1941
I2
s(Vinsert
p1942
I42
VSimpleName: getAbilities
p1943
tp1944
I1
s(Vinsert
p1945
I9
VBooleanLiteral: true
p1946
tp1947
I8
s(Vinsert
p1948
I42
VSimpleName: callback
p1949
tp1950
I6
s(Vinsert
p1951
I42
VSimpleName: testQuery
p1952
tp1953
I1
s(Vinsert
p1954
I58
VVariableDeclarationExpression
p1955
tp1956
I10
s(Vinsert
p1957
I42
VSimpleName: operator
p1958
tp1959
I1
s(Vinsert
p1960
I42
VSimpleName: count
p1961
tp1962
I1
s(Vinsert
p1963
I42
VSimpleName: requestDescription
p1964
tp1965
I1
s(Vinsert
p1966
I43
VSimpleType: ApiGateway
p1967
tp1968
I2
s(Vinsert
p1969
I42
VSimpleName: heroName
p1970
tp1971
I1
s(Vinsert
p1972
I42
VSimpleName: UnitExtension
p1973
tp1974
I3
s(Vinsert
p1975
I42
VSimpleName: IllegalStateException
p1976
tp1977
I1
s(Vinsert
p1978
I42
VSimpleName: writeLock
p1979
tp1980
I9
s(Vinsert
p1981
I42
VSimpleName: EXCEPTION_CAUSE
p1982
tp1983
I1
s(Vinsert
p1984
I42
VSimpleName: getSingleton
p1985
tp1986
I5
s(Vinsert
p1987
I40
VQualifiedName: TimeUnit.SECONDS
p1988
tp1989
I1
s(Vinsert
p1990
I42
VSimpleName: beast
p1991
tp1992
I3
s(Vinsert
p1993
I42
VSimpleName: StrengthPotion
p1994
tp1995
I1
s(Vinsert
p1996
I43
VSimpleType: LoadBalancer
p1997
tp1998
I5
s(Vinsert
p1999
I42
VSimpleName: resultSet
p2000
tp2001
I2
s(Vinsert
p2002
I42
VSimpleName: InetAddress
p2003
tp2004
I1
s(Vinsert
p2005
I45
VStringLiteral: "Foobar"
p2006
tp2007
I1
s(Vinsert
p2008
I42
VSimpleName: allMatches
p2009
tp2010
I1
s(Vinsert
p2011
I43
VSimpleType: Rectangle
p2012
tp2013
I2
s(Vinsert
p2014
I45
VStringLiteral: "----------"
p2015
tp2016
I1
s(Vinsert
p2017
I45
VStringLiteral: "11212-123434"
p2018
tp2019
I1
s(Vinsert
p2020
I34
VNumberLiteral: 39.99
p2021
tp2022
I1
s(Vinsert
p2023
I42
VSimpleName: Student
p2024
tp2025
I3
s(Vinsert
p2026
I42
VSimpleName: floor
p2027
tp2028
I1
s(Vinsert
p2029
I42
VSimpleName: handlers
p2030
tp2031
I4
s(Vinsert
p2032
I45
VStringLiteral: "user"
p2033
tp2034
I1
s(Vinsert
p2035
I42
VSimpleName: greenCreature
p2036
tp2037
I2
s(Vinsert
p2038
I42
VSimpleName: FileNotFoundException
p2039
tp2040
I5
s(Vinsert
p2041
I42
VSimpleName: properties
p2042
tp2043
I8
s(Vinsert
p2044
I40
VQualifiedName: NazgulName.AKHORAHIL
p2045
tp2046
I2
s(Vinsert
p2047
I42
VSimpleName: EventEmitter
p2048
tp2049
I1
s(Vinsert
p2050
I40
VQualifiedName: PotionType.STRENGTH
p2051
tp2052
I1
s(Vinsert
p2053
I42
VSimpleName: testMessage
p2054
tp2055
I1
s(Vinsert
p2056
I42
VSimpleName: req
p2057
tp2058
I8
s(Vinsert
p2059
I34
VNumberLiteral: 8085
p2060
tp2061
I1
s(Vinsert
p2062
I42
VSimpleName: ArcherView
p2063
tp2064
I2
s(Vinsert
p2065
I42
VSimpleName: servers
p2066
tp2067
I2
s(Vinsert
p2068
I42
VSimpleName: getMovement
p2069
tp2070
I2
s(Vinsert
p2071
I42
VSimpleName: getLocalHost
p2072
tp2073
I1
s(Vinsert
p2074
I42
VSimpleName: putAccount
p2075
tp2076
I1
s(Vinsert
p2077
I74
VParameterizedType: Supplier<Weapon>
p2078
tp2079
I1
s(Vinsert
p2080
I42
VSimpleName: DocumentImplementation
p2081
tp2082
I1
s(Vinsert
p2083
I42
VSimpleName: findWizardsWithSpellbook
p2084
tp2085
I1
s(Vinsert
p2086
I42
VSimpleName: TASK_COUNT
p2087
tp2088
I1
s(Vinsert
p2089
I42
VSimpleName: wield
p2090
tp2091
I4
s(Vinsert
p2092
I42
VSimpleName: beginTransaction
p2093
tp2094
I5
s(Vinsert
p2095
I43
VSimpleType: AnnotationConfigApplicationContext
p2096
tp2097
I1
s(Vinsert
p2098
I42
VSimpleName: gWeather
p2099
tp2100
I3
s(Vinsert
p2101
I42
VSimpleName: getTop
p2102
tp2103
I1
s(Vinsert
p2104
I43
VSimpleType: BlindingMagicWeaponImp
p2105
tp2106
I1
s(Vinsert
p2107
I42
VSimpleName: Oliphaunt
p2108
tp2109
I1
s(Vinsert
p2110
I43
VSimpleType: Heavy
p2111
tp2112
I6
s(Vinsert
p2113
I42
VSimpleName: simpleObject
p2114
tp2115
I2
s(Vinsert
p2116
I13
VCharacterLiteral: 'A'
p2117
tp2118
I1
s(Vinsert
p2119
I42
VSimpleName: MoneyWithdrawalEvent
p2120
tp2121
I2
s(Vinsert
p2122
I42
VSimpleName: onEvent
p2123
tp2124
I1
s(Vinsert
p2125
I43
VSimpleType: KingsHand
p2126
tp2127
I1
s(Vinsert
p2128
I40
VQualifiedName: SemanticsOf.SAFE
p2129
tp2130
I1
s(Vinsert
p2131
I42
VSimpleName: weatherType
p2132
tp2133
I4
s(Vinsert
p2134
I42
VSimpleName: Potion
p2135
tp2136
I7
s(Vinsert
p2137
I42
VSimpleName: MESSAGE
p2138
tp2139
I1
s(Vinsert
p2140
I42
VSimpleName: layer
p2141
tp2142
I2
s(Vinsert
p2143
I42
VSimpleName: undoStack
p2144
tp2145
I3
s(Vinsert
p2146
I42
VSimpleName: all
p2147
tp2148
I1
s(Vinsert
p2149
I43
VSimpleType: SoldierUnit
p2150
tp2151
I2
s(Vinsert
p2152
I43
VSimpleType: Queue
p2153
tp2154
I2
s(Vinsert
p2155
I42
VSimpleName: apiGateway
p2156
tp2157
I3
s(Vinsert
p2158
I45
VStringLiteral: "chocolate"
p2159
tp2160
I2
s(Vinsert
p2161
I42
VSimpleName: registerView
p2162
tp2163
I4
s(Vinsert
p2164
I43
VSimpleType: Client
p2165
tp2166
I2
s(Vinsert
p2167
I42
VSimpleName: handleEventA
p2168
tp2169
I1
s(Vinsert
p2170
I42
VSimpleName: layers
p2171
tp2172
I2
s(Vinsert
p2173
I42
VSimpleName: getInstance
p2174
tp2175
I14
s(Vinsert
p2176
I42
VSimpleName: result
p2177
tp2178
I25
s(Vinsert
p2179
I9
VBooleanLiteral: false
p2180
tp2181
I7
s(Vinsert
p2182
I42
VSimpleName: WizardTower
p2183
tp2184
I2
s(Vinsert
p2185
I42
VSimpleName: enumerate
p2186
tp2187
I1
s(Vinsert
p2188
I66
VTextElement: Implementation of task that need to be executed
p2189
tp2190
I1
s(Vinsert
p2191
I43
VSimpleType: GnomeEngineer
p2192
tp2193
I3
s(Vinsert
p2194
I42
VSimpleName: Permission
p2195
tp2196
I2
s(Vinsert
p2197
I42
VSimpleName: LOGGER
p2198
tp2199
I3
s(Vinsert
p2200
I42
VSimpleName: CloseableHttpClient
p2201
tp2202
I2
s(Vinsert
p2203
I40
VQualifiedName: WeaponType.SWORD
p2204
tp2205
I1
s(Vinsert
p2206
I42
VSimpleName: assertTrue
p2207
tp2208
I5
s(Vinsert
p2209
I45
VStringLiteral: "Book of Aras"
p2210
tp2211
I1
s(Vinsert
p2212
I45
VStringLiteral: "The hobbits are shivering in the cold weather."
p2213
tp2214
I1
s(Vinsert
p2215
I42
VSimpleName: businessDelegate
p2216
tp2217
I5
s(Vinsert
p2218
I42
VSimpleName: range
p2219
tp2220
I1
s(Vinsert
p2221
I42
VSimpleName: LotteryNumbers
p2222
tp2223
I3
s(Vinsert
p2224
I42
VSimpleName: cakes
p2225
tp2226
I1
s(Vinsert
p2227
I42
VSimpleName: OrcKing
p2228
tp2229
I3
s(Vinsert
p2230
I42
VSimpleName: ThreadSafeDoubleCheckLocking
p2231
tp2232
I2
s(Vinsert
p2233
I43
VSimpleType: Thief
p2234
tp2235
I2
s(Vinsert
p2236
I65
VTagElement
p2237
tp2238
I14
s(Vinsert
p2239
I42
VSimpleName: MenuStore
p2240
tp2241
I1
s(Vinsert
p2242
I42
VSimpleName: serverPort
p2243
tp2244
I1
s(Vinsert
p2245
I43
VSimpleType: FileNotFoundException
p2246
tp2247
I5
s(Vinsert
p2248
I42
VSimpleName: NodeImpl
p2249
tp2250
I1
s(Vinsert
p2251
I45
VStringLiteral: "Reader 1 finish"
p2252
tp2253
I1
s(Vinsert
p2254
I42
VSimpleName: Closeable
p2255
tp2256
I1
s(Vinsert
p2257
I42
VSimpleName: file1
p2258
tp2259
I2
s(Vinsert
p2260
I42
VSimpleName: selectedKeys
p2261
tp2262
I1
s(Vinsert
p2263
I42
VSimpleName: setJmsService
p2264
tp2265
I2
s(Vinsert
p2266
I42
VSimpleName: minFrequency
p2267
tp2268
I1
s(Vinsert
p2269
I42
VSimpleName: getLog
p2270
tp2271
I1
s(Vinsert
p2272
I66
VTextElement: Get a read-only list of all the items on the bottom shelf
p2273
tp2274
I1
s(Vinsert
p2275
I43
VSimpleType: MenuView
p2276
tp2277
I4
s(Vinsert
p2278
I42
VSimpleName: getRequestType
p2279
tp2280
I3
s(Vinsert
p2281
I42
VSimpleName: noAbilities
p2282
tp2283
I1
s(Vinsert
p2284
I42
VSimpleName: handleWithdrawal
p2285
tp2286
I1
s(Vinsert
p2287
I40
VQualifiedName: Type.WARRIOR
p2288
tp2289
I1
s(Vinsert
p2290
I43
VSimpleType: Configuration
p2291
tp2292
I1
s(Vinsert
p2293
I43
VSimpleType: CloneNotSupportedException
p2294
tp2295
I1
s(Vinsert
p2296
I42
VSimpleName: visitSoldier
p2297
tp2298
I2
s(Vinsert
p2299
I42
VSimpleName: testGetHeaders
p2300
tp2301
I1
s(Vinsert
p2302
I5
VArrayType: WeatherType[]
p2303
tp2304
I1
s(Vinsert
p2305
I42
VSimpleName: giveDrink
p2306
tp2307
I1
s(Vinsert
p2308
I42
VSimpleName: pane
p2309
tp2310
I3
s(Vinsert
p2311
I43
VSimpleType: DragonSlayer
p2312
tp2313
I4
s(Vinsert
p2314
I43
VSimpleType: RouteBuilder
p2315
tp2316
I1
s(Vinsert
p2317
I42
VSimpleName: changeStrategy
p2318
tp2319
I1
s(Vinsert
p2320
I42
VSimpleName: tasks
p2321
tp2322
I4
s(Vinsert
p2323
I42
VSimpleName: operateDevice
p2324
tp2325
I3
s(Vinsert
p2326
I34
VNumberLiteral: 11
p2327
tp2328
I1
s(Vinsert
p2329
I42
VSimpleName: numCarrots
p2330
tp2331
I1
s(Vinsert
p2332
I42
VSimpleName: file
p2333
tp2334
I2
s(Vinsert
p2335
I42
VSimpleName: precessorJournal
p2336
tp2337
I1
s(Vinsert
p2338
I40
VQualifiedName: CascadeType.ALL
p2339
tp2340
I1
s(Vinsert
p2341
I42
VSimpleName: bind
p2342
tp2343
I2
s(Vinsert
p2344
I42
VSimpleName: Guice
p2345
tp2346
I2
s(Vinsert
p2347
I42
VSimpleName: depositMoney
p2348
tp2349
I2
s(Vinsert
p2350
I42
VSimpleName: CommanderUnit
p2351
tp2352
I2
s(Vinsert
p2353
I43
VSimpleType: CommanderVisitor
p2354
tp2355
I2
s(Vinsert
p2356
I43
VSimpleType: Potion
p2357
tp2358
I7
s(Vinsert
p2359
I42
VSimpleName: converter
p2360
tp2361
I1
s(Vinsert
p2362
I74
VParameterizedType: ArrayList<Royalty>
p2363
tp2364
I1
s(Vinsert
p2365
I42
VSimpleName: userAccount2
p2366
tp2367
I1
s(Vinsert
p2368
I42
VSimpleName: prepare
p2369
tp2370
I2
s(Vinsert
p2371
I42
VSimpleName: getAllCustomers
p2372
tp2373
I3
s(Vinsert
p2374
I42
VSimpleName: setFileName
p2375
tp2376
I2
s(Vinsert
p2377
I43
VSimpleType: State
p2378
tp2379
I1
s(Vinsert
p2380
I66
VTextElement:  command line args
p2381
tp2382
I2
s(Vinsert
p2383
I42
VSimpleName: engineer
p2384
tp2385
I4
s(Vinsert
p2386
I45
VStringLiteral: "12231-213132"
p2387
tp2388
I1
s(Vinsert
p2389
I43
VSimpleType: SimpleFileWriter
p2390
tp2391
I1
s(Vinsert
p2392
I42
VSimpleName: Expectations
p2393
tp2394
I1
s(Vinsert
p2395
I43
VSimpleType: SimpleTask
p2396
tp2397
I3
s(Vinsert
p2398
I38
VPrefixExpression: -
p2399
tp2400
I3
s(Vinsert
p2401
I42
VSimpleName: twin
p2402
tp2403
I4
s(Vinsert
p2404
I42
VSimpleName: numCups
p2405
tp2406
I1
s(Vinsert
p2407
I74
VParameterizedType: Promise<>
p2408
tp2409
I1
s(Vinsert
p2410
I42
VSimpleName: message
p2411
tp2412
I22
s(Vinsert
p2413
I42
VSimpleName: Headers
p2414
tp2415
I1
s(Vinsert
p2416
I45
VStringLiteral: "The first even number is: %d"
p2417
tp2418
I1
s(Vinsert
p2419
I43
VSimpleType: TieredFeatureToggleVersion
p2420
tp2421
I1
s(Vinsert
p2422
I42
VSimpleName: readBytes
p2423
tp2424
I3
s(Vinsert
p2425
I42
VSimpleName: Writer
p2426
tp2427
I4
s(Vinsert
p2428
I42
VSimpleName: File
p2429
tp2430
I4
s(Vinsert
p2431
I42
VSimpleName: App
p2432
tp2433
I127
s(Vinsert
p2434
I89
VCreationReference
p2435
tp2436
I1
s(Vinsert
p2437
I42
VSimpleName: stub
p2438
tp2439
I1
s(Vinsert
p2440
I45
VStringLiteral: "Clinton"
p2441
tp2442
I1
s(Vinsert
p2443
I42
VSimpleName: containsKey
p2444
tp2445
I3
s(Vinsert
p2446
I42
VSimpleName: isDone
p2447
tp2448
I1
s(Vinsert
p2449
I40
VQualifiedName: MenuItem.HOME
p2450
tp2451
I1
s(Vinsert
p2452
I42
VSimpleName: setFatigue
p2453
tp2454
I2
s(Vinsert
p2455
I42
VSimpleName: getChannel
p2456
tp2457
I3
s(Vinsert
p2458
I42
VSimpleName: CloneNotSupportedException
p2459
tp2460
I1
s(Vinsert
p2461
I42
VSimpleName: getNoOfServers
p2462
tp2463
I1
s(Vinsert
p2464
I42
VSimpleName: Task
p2465
tp2466
I3
s(Vinsert
p2467
I42
VSimpleName: RainbowFish
p2468
tp2469
I1
s(Vinsert
p2470
I34
VNumberLiteral: 0
p2471
tp2472
I28
s(Vinsert
p2473
I42
VSimpleName: Spellbook
p2474
tp2475
I4
s(Vinsert
p2476
I43
VSimpleType: NodeImpl
p2477
tp2478
I1
s(Vinsert
p2479
I42
VSimpleName: append
p2480
tp2481
I12
s(Vinsert
p2482
I43
VSimpleType: CakeBakingException
p2483
tp2484
I1
s(Vinsert
p2485
I42
VSimpleName: line
p2486
tp2487
I1
s(Vinsert
p2488
I42
VSimpleName: threadSafeIvoryTower2
p2489
tp2490
I1
s(Vinsert
p2491
I42
VSimpleName: dataSource
p2492
tp2493
I1
s(Vinsert
p2494
I42
VSimpleName: ec
p2495
tp2496
I2
s(Vinsert
p2497
I42
VSimpleName: readerCount
p2498
tp2499
I2
s(Vinsert
p2500
I42
VSimpleName: store
p2501
tp2502
I5
s(Vinsert
p2503
I42
VSimpleName: getSpell
p2504
tp2505
I1
s(Vinsert
p2506
I42
VSimpleName: PrinterController
p2507
tp2508
I7
s(Vinsert
p2509
I42
VSimpleName: LotteryTestUtils
p2510
tp2511
I2
s(Vinsert
p2512
I43
VSimpleType: Number
p2513
tp2514
I1
s(Vinsert
p2515
I42
VSimpleName: action
p2516
tp2517
I10
s(Vinsert
p2518
I42
VSimpleName: King
p2519
tp2520
I3
s(Vinsert
p2521
I68
VMethodRef
p2522
tp2523
I3
s(Vinsert
p2524
I42
VSimpleName: JLabel
p2525
tp2526
I1
s(Vinsert
p2527
I42
VSimpleName: execute
p2528
tp2529
I29
s(Vinsert
p2530
I42
VSimpleName: potionIterator
p2531
tp2532
I2
s(Vinsert
p2533
I42
VSimpleName: getDao
p2534
tp2535
I3
s(Vinsert
p2536
I40
VQualifiedName: Size.NORMAL
p2537
tp2538
I1
s(Vinsert
p2539
I42
VSimpleName: createVirtualDB
p2540
tp2541
I1
s(Vinsert
p2542
I42
VSimpleName: commanderReady
p2543
tp2544
I2
s(Vinsert
p2545
I40
VQualifiedName: org.slf4j.LoggerFactory
p2546
tp2547
I1
s(Vinsert
p2548
I83
VModifier: default
p2549
tp2550
I2
s(Vinsert
p2551
I43
VSimpleType: O
p2552
tp2553
I5
s(Vinsert
p2554
I42
VSimpleName: BeforeClass
p2555
tp2556
I1
s(Vinsert
p2557
I43
VSimpleType: Field
p2558
tp2559
I1
s(Vinsert
p2560
I42
VSimpleName: DatagramPacket
p2561
tp2562
I7
s(Vinsert
p2563
I43
VSimpleType: Tobacco
p2564
tp2565
I3
s(Vinsert
p2566
I43
VSimpleType: HealingPotion
p2567
tp2568
I1
s(Vinsert
p2569
I45
VStringLiteral: "Amberjill"
p2570
tp2571
I2
s(Vinsert
p2572
I42
VSimpleName: bankAccountNumber
p2573
tp2574
I2
s(Vinsert
p2575
I43
VSimpleType: BusinessLookup
p2576
tp2577
I2
s(Vinsert
p2578
I40
VQualifiedName: javax.persistence.FetchType
p2579
tp2580
I1
s(Vinsert
p2581
I42
VSimpleName: ArgumentCaptor
p2582
tp2583
I3
s(Vinsert
p2584
I42
VSimpleName: Hero
p2585
tp2586
I2
s(Vinsert
p2587
I42
VSimpleName: DataBus
p2588
tp2589
I2
s(Vinsert
p2590
I42
VSimpleName: getColor
p2591
tp2592
I2
s(Vinsert
p2593
I42
VSimpleName: SameThreadDispatcher
p2594
tp2595
I1
s(Vinsert
p2596
I42
VSimpleName: unit2
p2597
tp2598
I1
s(Vinsert
p2599
I42
VSimpleName: initCacheCapacity
p2600
tp2601
I2
s(Vinsert
p2602
I65
VTagElement: @link
p2603
tp2604
I45
s(Vinsert
p2605
I40
VQualifiedName: org.junit.Assert.assertTrue
p2606
tp2607
I1
s(Vinsert
p2608
I42
VSimpleName: serviceType
p2609
tp2610
I4
s(Vinsert
p2611
I42
VSimpleName: wizardDao
p2612
tp2613
I1
s(Vinsert
p2614
I42
VSimpleName: cakeBakingService
p2615
tp2616
I5
s(Vinsert
p2617
I42
VSimpleName: allWizards
p2618
tp2619
I1
s(Vinsert
p2620
I42
VSimpleName: initializeData
p2621
tp2622
I1
s(Vinsert
p2623
I42
VSimpleName: setAll
p2624
tp2625
I1
s(Vinsert
p2626
I42
VSimpleName: model
p2627
tp2628
I3
s(Vinsert
p2629
I43
VSimpleType: UserUpdatedEventHandler
p2630
tp2631
I2
s(Vinsert
p2632
I42
VSimpleName: integers
p2633
tp2634
I3
s(Vinsert
p2635
I42
VSimpleName: initDB
p2636
tp2637
I1
s(Vinsert
p2638
I43
VSimpleType: ItemIterator
p2639
tp2640
I2
s(Vinsert
p2641
I42
VSimpleName: getSpellbooks
p2642
tp2643
I1
s(Vinsert
p2644
I43
VSimpleType: ClassPathXmlApplicationContext
p2645
tp2646
I1
s(Vinsert
p2647
I42
VSimpleName: Exception
p2648
tp2649
I47
s(Vinsert
p2650
I74
VParameterizedType: HashMap<>
p2651
tp2652
I1
s(Vinsert
p2653
I42
VSimpleName: Object
p2654
tp2655
I14
s(Vinsert
p2656
I42
VSimpleName: readV1
p2657
tp2658
I1
s(Vinsert
p2659
I42
VSimpleName: getHeavy
p2660
tp2661
I1
s(Vinsert
p2662
I40
VQualifiedName: java.io.IOException
p2663
tp2664
I1
s(Vinsert
p2665
I42
VSimpleName: fromIterator
p2666
tp2667
I1
s(Vinsert
p2668
I42
VSimpleName: FixtureScript
p2669
tp2670
I2
s(Vinsert
p2671
I42
VSimpleName: RecreateSimpleObjects
p2672
tp2673
I1
s(Vinsert
p2674
I45
VStringLiteral: "Barf!"
p2675
tp2676
I1
s(Vinsert
p2677
I42
VSimpleName: TALE
p2678
tp2679
I1
s(Vinsert
p2680
I43
VSimpleType: Thread
p2681
tp2682
I8
s(Vinsert
p2683
I42
VSimpleName: partyAction
p2684
tp2685
I1
s(Vinsert
p2686
I45
VStringLiteral: "non-existing-file"
p2687
tp2688
I1
s(Vinsert
p2689
I74
VParameterizedType: List<Item>
p2690
tp2691
I1
s(Vinsert
p2692
I42
VSimpleName: ConsoleLoggerModule
p2693
tp2694
I2
s(Vinsert
p2695
I42
VSimpleName: Channel
p2696
tp2697
I5
s(Vinsert
p2698
I42
VSimpleName: Hunter
p2699
tp2700
I2
s(Vinsert
p2701
I34
VNumberLiteral: 30
p2702
tp2703
I1
s(Vinsert
p2704
I42
VSimpleName: ejbService
p2705
tp2706
I1
s(Vinsert
p2707
I42
VSimpleName: SoldierUnit
p2708
tp2709
I2
s(Vinsert
p2710
I45
VStringLiteral: "Writer 2 begin"
p2711
tp2712
I1
s(Vinsert
p2713
I43
VSimpleType: HeavyFactory
p2714
tp2715
I1
s(Vinsert
p2716
I42
VSimpleName: ItemQueue
p2717
tp2718
I1
s(Vinsert
p2719
I42
VSimpleName: start
p2720
tp2721
I13
s(Vinsert
p2722
I42
VSimpleName: fish
p2723
tp2724
I4
s(Vinsert
p2725
I42
VSimpleName: Throwable
p2726
tp2727
I2
s(Vinsert
p2728
I45
VStringLiteral: "Dwarven tunnel digger wakes up."
p2729
tp2730
I1
s(Vinsert
p2731
I73
VTypeParameter
p2732
tp2733
I1
s(Vinsert
p2734
I42
VSimpleName: await
p2735
tp2736
I1
s(Vinsert
p2737
I45
VStringLiteral: "hoi"
p2738
tp2739
I1
s(Vinsert
p2740
I42
VSimpleName: CamelContext
p2741
tp2742
I5
s(Vinsert
p2743
I74
VParameterizedType: Queue<ByteBuffer>
p2744
tp2745
I1
s(Vinsert
p2746
I42
VSimpleName: contentAction
p2747
tp2748
I2
s(Vinsert
p2749
I42
VSimpleName: customer
p2750
tp2751
I9
s(Vinsert
p2752
I42
VSimpleName: addSpell
p2753
tp2754
I1
s(Vinsert
p2755
I42
VSimpleName: method
p2756
tp2757
I3
s(Vinsert
p2758
I43
VSimpleType: InterruptedException
p2759
tp2760
I10
s(Vinsert
p2761
I42
VSimpleName: g
p2762
tp2763
I2
s(Vinsert
p2764
I43
VSimpleType: Hunter
p2765
tp2766
I2
s(Vinsert
p2767
I42
VSimpleName: walk
p2768
tp2769
I1
s(Vinsert
p2770
I42
VSimpleName: customerResource
p2771
tp2772
I3
s(Vinsert
p2773
I42
VSimpleName: BlindingMagicWeapon
p2774
tp2775
I2
s(Vinsert
p2776
I42
VSimpleName: verifyGoblin
p2777
tp2778
I1
s(Vinsert
p2779
I42
VSimpleName: testReadAndWriteThroughStrategy
p2780
tp2781
I1
s(Vinsert
p2782
I42
VSimpleName: produce
p2783
tp2784
I1
s(Vinsert
p2785
I42
VSimpleName: testData
p2786
tp2787
I9
s(Vinsert
p2788
I42
VSimpleName: FileLoggerModule
p2789
tp2790
I2
s(Vinsert
p2791
I34
VNumberLiteral: 6667
p2792
tp2793
I1
s(Vinsert
p2794
I42
VSimpleName: simpleObjectWrapped
p2795
tp2796
I1
s(Vinsert
p2797
I42
VSimpleName: stormbringer
p2798
tp2799
I2
s(Vinsert
p2800
I43
VSimpleType: NazgulName
p2801
tp2802
I1
s(Vinsert
p2803
I43
VSimpleType: Mjollnir
p2804
tp2805
I1
s(Vinsert
p2806
I42
VSimpleName: TIME_PER_CUP
p2807
tp2808
I1
s(Vinsert
p2809
I66
VTextElement:  in case of exception during configuration
p2810
tp2811
I1
s(Vinsert
p2812
I42
VSimpleName: bottom
p2813
tp2814
I1
s(Vinsert
p2815
I42
VSimpleName: testFromString
p2816
tp2817
I1
s(Vinsert
p2818
I42
VSimpleName: getWizards
p2819
tp2820
I1
s(Vinsert
p2821
I42
VSimpleName: MeleeStrategy
p2822
tp2823
I2
s(Vinsert
p2824
I42
VSimpleName: sb
p2825
tp2826
I5
s(Vinsert
p2827
I42
VSimpleName: canonPrinter
p2828
tp2829
I2
s(Vinsert
p2830
I42
VSimpleName: virtualDB
p2831
tp2832
I1
s(Vinsert
p2833
I43
VSimpleType: OutputStream
p2834
tp2835
I1
s(Vinsert
p2836
I43
VSimpleType: Runnable
p2837
tp2838
I1
s(Vinsert
p2839
I45
VStringLiteral: "cherry"
p2840
tp2841
I1
s(Vinsert
p2842
I43
VSimpleType: JScrollPane
p2843
tp2844
I2
s(Vinsert
p2845
I45
VStringLiteral: "title"
p2846
tp2847
I1
s(Vinsert
p2848
I42
VSimpleName: SoulEatingMagicWeapon
p2849
tp2850
I2
s(Vinsert
p2851
I42
VSimpleName: JmsService
p2852
tp2853
I1
s(Vinsert
p2854
I42
VSimpleName: V1
p2855
tp2856
I2
s(Vinsert
p2857
I42
VSimpleName: getTimeMs
p2858
tp2859
I1
s(Vinsert
p2860
I42
VSimpleName: loggingHandler
p2861
tp2862
I1
s(Vinsert
p2863
I42
VSimpleName: dragonSlayer
p2864
tp2865
I6
s(Vinsert
p2866
I42
VSimpleName: create
p2867
tp2868
I7
s(Vinsert
p2869
I42
VSimpleName: HibernateUtil
p2870
tp2871
I1
s(Vinsert
p2872
I42
VSimpleName: Transaction
p2873
tp2874
I1
s(Vinsert
p2875
I42
VSimpleName: Field
p2876
tp2877
I1
s(Vinsert
p2878
I42
VSimpleName: channelToPendingWrites
p2879
tp2880
I2
s(Vinsert
p2881
I43
VSimpleType: Command
p2882
tp2883
I6
s(Vinsert
p2884
I42
VSimpleName: Author
p2885
tp2886
I3
s(Vinsert
p2887
I45
VStringLiteral: "UserCreatedEvent must return the UserCreatedEventHandler"
p2888
tp2889
I1
s(Vinsert
p2890
I42
VSimpleName: balancer
p2891
tp2892
I2
s(Vinsert
p2893
I42
VSimpleName: getBottom
p2894
tp2895
I1
s(Vinsert
p2896
I42
VSimpleName: charProto
p2897
tp2898
I1
s(Vinsert
p2899
I42
VSimpleName: aggregate
p2900
tp2901
I2
s(Vinsert
p2902
I42
VSimpleName: firstStudent
p2903
tp2904
I2
s(Vinsert
p2905
I42
VSimpleName: configureBlocking
p2906
tp2907
I1
s(Vinsert
p2908
I42
VSimpleName: identityHashCode
p2909
tp2910
I5
s(Vinsert
p2911
I43
VSimpleType: T
p2912
tp2913
I5
s(Vinsert
p2914
I42
VSimpleName: UserDAO
p2915
tp2916
I3
s(Vinsert
p2917
I42
VSimpleName: color
p2918
tp2919
I2
s(Vinsert
p2920
I42
VSimpleName: call
p2921
tp2922
I6
s(Vinsert
p2923
I42
VSimpleName: notify
p2924
tp2925
I1
s(Vinsert
p2926
I42
VSimpleName: accept
p2927
tp2928
I10
s(Vinsert
p2929
I42
VSimpleName: Collectors
p2930
tp2931
I1
s(Vinsert
p2932
I85
VDimension
p2933
tp2934
I158
s(Vinsert
p2935
I42
VSimpleName: query
p2936
tp2937
I2
s(Vinsert
p2938
I42
VSimpleName: verifyZeroInteractions
p2939
tp2940
I5
s(Vinsert
p2941
I42
VSimpleName: of
p2942
tp2943
I9
s(Vinsert
p2944
I42
VSimpleName: t1
p2945
tp2946
I2
s(Vinsert
p2947
I42
VSimpleName: getContent
p2948
tp2949
I3
s(Vinsert
p2950
I42
VSimpleName: slidingDoor
p2951
tp2952
I1
s(Vinsert
p2953
I42
VSimpleName: Person
p2954
tp2955
I7
s(Vinsert
p2956
I42
VSimpleName: ImageController
p2957
tp2958
I2
s(Vinsert
p2959
I42
VSimpleName: empty
p2960
tp2961
I6
s(Vinsert
p2962
I34
VNumberLiteral: 20
p2963
tp2964
I3
s(Vinsert
p2965
I42
VSimpleName: servant
p2966
tp2967
I2
s(Vinsert
p2968
I42
VSimpleName: cakeLayerInfos
p2969
tp2970
I2
s(Vinsert
p2971
I42
VSimpleName: SQLException
p2972
tp2973
I3
s(Vinsert
p2974
I42
VSimpleName: LetterComposite
p2975
tp2976
I1
s(Vinsert
p2977
I42
VSimpleName: getStudents
p2978
tp2979
I12
s(Vinsert
p2980
I42
VSimpleName: Supplier
p2981
tp2982
I3
s(Vinsert
p2983
I42
VSimpleName: SpellbookDao
p2984
tp2985
I1
s(Vinsert
p2986
I42
VSimpleName: Filter
p2987
tp2988
I5
s(Vinsert
p2989
I45
VStringLiteral: " wakes up."
p2990
tp2991
I1
s(Vinsert
p2992
I40
VQualifiedName: org.apache.log4j.PropertyConfigurator
p2993
tp2994
I2
s(Vinsert
p2995
I42
VSimpleName: getDescription
p2996
tp2997
I2
s(Vinsert
p2998
I42
VSimpleName: StandardServiceRegistry
p2999
tp3000
I1
s(Vinsert
p3001
I40
VQualifiedName: Size.SMALL
p3002
tp3003
I1
s(Vinsert
p3004
I42
VSimpleName: done
p3005
tp3006
I2
s(Vinsert
p3007
I42
VSimpleName: factory
p3008
tp3009
I13
s(Vinsert
p3010
I43
VSimpleType: GiantController
p3011
tp3012
I4
s(Vinsert
p3013
I78
VMarkerAnnotation
p3014
tp3015
I172
s(Vinsert
p3016
I42
VSimpleName: guests
p3017
tp3018
I2
s(Vinsert
p3019
I42
VSimpleName: byId
p3020
tp3021
I1
s(Vinsert
p3022
I42
VSimpleName: main
p3023
tp3024
I137
s(Vinsert
p3025
I42
VSimpleName: drink
p3026
tp3027
I5
s(Vinsert
p3028
I42
VSimpleName: move
p3029
tp3030
I1
s(Vinsert
p3031
I42
VSimpleName: ContentStore
p3032
tp3033
I5
s(Vinsert
p3034
I42
VSimpleName: selector
p3035
tp3036
I1
s(Vinsert
p3037
I83
VModifier: public
p3038
tp3039
I405
s(Vinsert
p3040
I34
VNumberLiteral: 20000
p3041
tp3042
I1
s(Vinsert
p3043
I43
VSimpleType: MoneyWithdrawalEvent
p3044
tp3045
I2
s(Vinsert
p3046
I42
VSimpleName: exists
p3047
tp3048
I1
s(Vinsert
p3049
I43
VSimpleType: ContentStore
p3050
tp3051
I4
s(Vinsert
p3052
I42
VSimpleName: registerStore
p3053
tp3054
I2
s(Vinsert
p3055
I42
VSimpleName: FrontController
p3056
tp3057
I2
s(Vinsert
p3058
I42
VSimpleName: cache
p3059
tp3060
I2
s(Vinsert
p3061
I42
VSimpleName: loadBalancer1
p3062
tp3063
I2
s(Vinsert
p3064
I42
VSimpleName: getParameter
p3065
tp3066
I1
s(Vinsert
p3067
I42
VSimpleName: positiveTestFileErrorMessage
p3068
tp3069
I1
s(Vinsert
p3070
I42
VSimpleName: printStatus
p3071
tp3072
I4
s(Vinsert
p3073
I42
VSimpleName: validation
p3074
tp3075
I1
s(Vinsert
p3076
I40
VQualifiedName: java.util.concurrent.Callable
p3077
tp3078
I1
s(Vinsert
p3079
I45
VStringLiteral: "Daniel"
p3080
tp3081
I1
s(Vinsert
p3082
I42
VSimpleName: executor
p3083
tp3084
I9
s(Vinsert
p3085
I43
VSimpleType: WeatherType
p3086
tp3087
I3
s(Vinsert
p3088
I7
VAssignment: +=
p3089
tp3090
I3
s(Vinsert
p3091
I42
VSimpleName: isOnFire
p3092
tp3093
I4
s(Vinsert
p3094
I42
VSimpleName: channels
p3095
tp3096
I1
s(Vinsert
p3097
I43
VSimpleType: Letter
p3098
tp3099
I3
s(Vinsert
p3100
I42
VSimpleName: connect
p3101
tp3102
I1
s(Vinsert
p3103
I42
VSimpleName: Socket
p3104
tp3105
I1
s(Vinsert
p3106
I42
VSimpleName: ap
p3107
tp3108
I1
s(Vinsert
p3109
I42
VSimpleName: handler
p3110
tp3111
I2
s(Vinsert
p3112
I27
VInfixExpression: -
p3113
tp3114
I1
s(Vinsert
p3115
I42
VSimpleName: values
p3116
tp3117
I10
s(Vinsert
p3118
I42
VSimpleName: setAddress
p3119
tp3120
I1
s(Vinsert
p3121
I42
VSimpleName: CakeTopping
p3122
tp3123
I2
s(Vinsert
p3124
I42
VSimpleName: BigDecimal
p3125
tp3126
I3
s(Vinsert
p3127
I66
VTextElement:  the dispatcher that will be used to dispatch events.
p3128
tp3129
I1
s(Vinsert
p3130
I42
VSimpleName: channel
p3131
tp3132
I17
s(Vinsert
p3133
I43
VSimpleType: View
p3134
tp3135
I8
s(Vinsert
p3136
I42
VSimpleName: Thread
p3137
tp3138
I12
s(Vinsert
p3139
I42
VSimpleName: Integer
p3140
tp3141
I11
s(Vinsert
p3142
I42
VSimpleName: session
p3143
tp3144
I10
s(Vinsert
p3145
I42
VSimpleName: SergeantUnit
p3146
tp3147
I2
s(Vinsert
p3148
I43
VSimpleType: AccountCreateEvent
p3149
tp3150
I2
s(Vinsert
p3151
I42
VSimpleName: nourishment
p3152
tp3153
I3
s(Vinsert
p3154
I42
VSimpleName: getItems
p3155
tp3156
I2
s(Vinsert
p3157
I42
VSimpleName: views
p3158
tp3159
I1
s(Vinsert
p3160
I42
VSimpleName: RAINY
p3161
tp3162
I3
s(Vinsert
p3163
I42
VSimpleName: mock
p3164
tp3165
I11
s(Vinsert
p3166
I42
VSimpleName: rainbowFish
p3167
tp3168
I2
s(Vinsert
p3169
I42
VSimpleName: getUnitExtension
p3170
tp3171
I6
s(Vinsert
p3172
I42
VSimpleName: endProcess
p3173
tp3174
I4
s(Vinsert
p3175
I45
VStringLiteral: "jndi/serviceA"
p3176
tp3177
I1
s(Vinsert
p3178
I42
VSimpleName: inventory
p3179
tp3180
I2
s(Vinsert
p3181
I4
VArrayInitializer
p3182
tp3183
I124
s(Vinsert
p3184
I42
VSimpleName: fileLoggerModule
p3185
tp3186
I2
s(Vinsert
p3187
I42
VSimpleName: obj
p3188
tp3189
I4
s(Vinsert
p3190
I34
VNumberLiteral: 15
p3191
tp3192
I3
s(Vinsert
p3193
I66
VTextElement: Application test.
p3194
tp3195
I1
s(Vinsert
p3196
I42
VSimpleName: findAll
p3197
tp3198
I9
s(Vinsert
p3199
I42
VSimpleName: timeout
p3200
tp3201
I1
s(Vinsert
p3202
I42
VSimpleName: Map
p3203
tp3204
I3
s(Vinsert
p3205
I42
VSimpleName: eventString
p3206
tp3207
I1
s(Vinsert
p3208
I42
VSimpleName: printf
p3209
tp3210
I3
s(Vinsert
p3211
I5
VArrayType: Unit[]
p3212
tp3213
I2
s(Vinsert
p3214
I42
VSimpleName: body
p3215
tp3216
I1
s(Vinsert
p3217
I43
VSimpleType: ThreadSafeDoubleCheckLocking
p3218
tp3219
I1
s(Vinsert
p3220
I42
VSimpleName: System
p3221
tp3222
I38
s(Vinsert
p3223
I42
VSimpleName: task
p3224
tp3225
I13
s(Vinsert
p3226
I42
VSimpleName: ServiceLocator
p3227
tp3228
I2
s(Vinsert
p3229
I43
VSimpleType: Filter
p3230
tp3231
I5
s(Vinsert
p3232
I42
VSimpleName: collision
p3233
tp3234
I2
s(Vinsert
p3235
I43
VSimpleType: Inventory
p3236
tp3237
I3
s(Vinsert
p3238
I42
VSimpleName: removeObserver
p3239
tp3240
I3
s(Vinsert
p3241
I45
VStringLiteral: "The orcs are freezing cold."
p3242
tp3243
I1
s(Vinsert
p3244
I42
VSimpleName: getDeclaringClass
p3245
tp3246
I1
s(Vinsert
p3247
I45
VStringLiteral: "002"
p3248
tp3249
I1
s(Vinsert
p3250
I42
VSimpleName: wizards
p3251
tp3252
I4
s(Vinsert
p3253
I42
VSimpleName: getName
p3254
tp3255
I16
s(Vinsert
p3256
I42
VSimpleName: commands
p3257
tp3258
I3
s(Vinsert
p3259
I42
VSimpleName: jl
p3260
tp3261
I1
s(Vinsert
p3262
I45
VStringLiteral: "One field only in HolderThreadSafe"
p3263
tp3264
I1
s(Vinsert
p3265
I42
VSimpleName: ClassPathXmlApplicationContext
p3266
tp3267
I1
s(Vinsert
p3268
I42
VSimpleName: decorated
p3269
tp3270
I2
s(Vinsert
p3271
I42
VSimpleName: PreparedStatement
p3272
tp3273
I2
s(Vinsert
p3274
I42
VSimpleName: document
p3275
tp3276
I3
s(Vinsert
p3277
I40
VQualifiedName: java.io.Closeable
p3278
tp3279
I1
s(Vinsert
p3280
I42
VSimpleName: socket
p3281
tp3282
I3
s(Vinsert
p3283
I24
VForStatement
p3284
tp3285
I6
s(Vinsert
p3286
I45
VStringLiteral: "SpaceStationMir at [1,2,3,4] damaged=false onFire=false"
p3287
tp3288
I1
s(Vinsert
p3289
I42
VSimpleName: Target
p3290
tp3291
I4
s(Vinsert
p3292
I45
VStringLiteral: "enumIvoryTower1="
p3293
tp3294
I1
s(Vinsert
p3295
I42
VSimpleName: testToString
p3296
tp3297
I4
s(Vinsert
p3298
I42
VSimpleName: jsonElement
p3299
tp3300
I1
s(Vinsert
p3301
I42
VSimpleName: troll
p3302
tp3303
I2
s(Vinsert
p3304
I42
VSimpleName: serve
p3305
tp3306
I1
s(Vinsert
p3307
I34
VNumberLiteral: 4
p3308
tp3309
I7
s(Vinsert
p3310
I42
VSimpleName: getCake
p3311
tp3312
I1
s(Vinsert
p3313
I43
VSimpleType: Guard
p3314
tp3315
I1
s(Vinsert
p3316
I42
VSimpleName: in1
p3317
tp3318
I1
s(Vinsert
p3319
I42
VSimpleName: SergeantVisitorTest
p3320
tp3321
I1
s(Vinsert
p3322
I42
VSimpleName: getLast
p3323
tp3324
I1
s(Vinsert
p3325
I45
VStringLiteral: "testhost"
p3326
tp3327
I1
s(Vinsert
p3328
I74
VParameterizedType: Map<String,Object>
p3329
tp3330
I1
s(Vinsert
p3331
I42
VSimpleName: eventType
p3332
tp3333
I2
s(Vinsert
p3334
I43
VSimpleType: MeleeStrategy
p3335
tp3336
I1
s(Vinsert
p3337
I42
VSimpleName: objects
p3338
tp3339
I2
s(Vinsert
p3340
I45
VStringLiteral: ","
p3341
tp3342
I1
s(Vinsert
p3343
I48
VSuperMethodInvocation
p3344
tp3345
I7
s(Vinsert
p3346
I42
VSimpleName: weapon
p3347
tp3348
I5
s(Vinsert
p3349
I42
VSimpleName: Number
p3350
tp3351
I1
s(Vinsert
p3352
I42
VSimpleName: Book
p3353
tp3354
I2
s(Vinsert
p3355
I43
VSimpleType: File
p3356
tp3357
I4
s(Vinsert
p3358
I40
VQualifiedName: fields.length
p3359
tp3360
I1
s(Vinsert
p3361
I42
VSimpleName: businessLookup
p3362
tp3363
I6
s(Vinsert
p3364
I42
VSimpleName: businessService
p3365
tp3366
I1
s(Vinsert
p3367
I42
VSimpleName: CakeInfo
p3368
tp3369
I5
s(Vinsert
p3370
I42
VSimpleName: command
p3371
tp3372
I3
s(Vinsert
p3373
I45
VStringLiteral: "wielding Stormbringer"
p3374
tp3375
I1
s(Vinsert
p3376
I65
VTagElement: @author
p3377
tp3378
I1
s(Vinsert
p3379
I42
VSimpleName: UserCreatedEventHandler
p3380
tp3381
I1
s(Vinsert
p3382
I40
VQualifiedName: toppingInfo.calories
p3383
tp3384
I1
s(Vinsert
p3385
I42
VSimpleName: getSpells
p3386
tp3387
I1
s(Vinsert
p3388
I42
VSimpleName: andThen
p3389
tp3390
I1
s(Vinsert
p3391
I42
VSimpleName: currentReaderCount
p3392
tp3393
I2
s(Vinsert
p3394
I43
VSimpleType: PartyMember
p3395
tp3396
I3
s(Vinsert
p3397
I42
VSimpleName: globalMutex
p3398
tp3399
I2
s(Vinsert
p3400
I42
VSimpleName: GnomeEngineerAdapter
p3401
tp3402
I2
s(Vinsert
p3403
I42
VSimpleName: updateCustomer
p3404
tp3405
I2
s(Vinsert
p3406
I42
VSimpleName: writer1
p3407
tp3408
I1
s(Vinsert
p3409
I42
VSimpleName: SpringApplication
p3410
tp3411
I3
s(Vinsert
p3412
I60
VVariableDeclarationStatement
p3413
tp3414
I351
s(Vinsert
p3415
I42
VSimpleName: jtFields
p3416
tp3417
I1
s(Vinsert
p3418
I42
VSimpleName: Customer
p3419
tp3420
I4
s(Vinsert
p3421
I42
VSimpleName: U
p3422
tp3423
I1
s(Vinsert
p3424
I42
VSimpleName: isStopped
p3425
tp3426
I1
s(Vinsert
p3427
I43
VSimpleType: Set
p3428
tp3429
I1
s(Vinsert
p3430
I45
VStringLiteral: "n is less than 0"
p3431
tp3432
I2
s(Vinsert
p3433
I42
VSimpleName: printStackTrace
p3434
tp3435
I2
s(Vinsert
p3436
I43
VSimpleType: UserCreatedEventHandler
p3437
tp3438
I1
s(Vinsert
p3439
I42
VSimpleName: userID
p3440
tp3441
I2
s(Vinsert
p3442
I42
VSimpleName: br
p3443
tp3444
I1
s(Vinsert
p3445
I42
VSimpleName: consumedPromise
p3446
tp3447
I1
s(Vinsert
p3448
I42
VSimpleName: Set
p3449
tp3450
I1
s(Vinsert
p3451
I45
VStringLiteral: "john@qwe.bar"
p3452
tp3453
I1
s(Vinsert
p3454
I42
VSimpleName: DesktopProduct
p3455
tp3456
I5
s(Vinsert
p3457
I42
VSimpleName: testDisplay
p3458
tp3459
I2
s(Vinsert
p3460
I42
VSimpleName: fighterClass
p3461
tp3462
I1
s(Vinsert
p3463
I42
VSimpleName: OrcSoldier
p3464
tp3465
I1
s(Vinsert
p3466
I43
VSimpleType: Target
p3467
tp3468
I4
s(Vinsert
p3469
I22
VFieldAccess
p3470
tp3471
I69
s(Vinsert
p3472
I42
VSimpleName: Character
p3473
tp3474
I3
s(Vinsert
p3475
I42
VSimpleName: Worker
p3476
tp3477
I2
s(Vinsert
p3478
I42
VSimpleName: storeChanged
p3479
tp3480
I1
s(Vinsert
p3481
I42
VSimpleName: r
p3482
tp3483
I5
s(Vinsert
p3484
I43
VSimpleType: Person
p3485
tp3486
I7
s(Vinsert
p3487
I42
VSimpleName: named
p3488
tp3489
I1
s(Vinsert
p3490
I43
VSimpleType: Server
p3491
tp3492
I3
s(Vinsert
p3493
I42
VSimpleName: Stream
p3494
tp3495
I1
s(Vinsert
p3496
I42
VSimpleName: consume
p3497
tp3498
I3
s(Vinsert
p3499
I43
VSimpleType: MessageCollectorMember
p3500
tp3501
I2
s(Vinsert
p3502
I42
VSimpleName: realTime
p3503
tp3504
I1
s(Vinsert
p3505
I42
VSimpleName: jsonFieldResponse
p3506
tp3507
I1
s(Vinsert
p3508
I43
VSimpleType: PartyImpl
p3509
tp3510
I2
s(Vinsert
p3511
I42
VSimpleName: unmodifiableList
p3512
tp3513
I2
s(Vinsert
p3514
I43
VSimpleType: EventObserver
p3515
tp3516
I2
s(Vinsert
p3517
I43
VSimpleType: GiantModel
p3518
tp3519
I3
s(Vinsert
p3520
I43
VSimpleType: Message
p3521
tp3522
I2
s(Vinsert
p3523
I42
VSimpleName: wireTap
p3524
tp3525
I1
s(Vinsert
p3526
I42
VSimpleName: available
p3527
tp3528
I2
s(Vinsert
p3529
I43
VSimpleType: Map
p3530
tp3531
I3
s(Vinsert
p3532
I45
VStringLiteral: "age"
p3533
tp3534
I1
s(Vinsert
p3535
I42
VSimpleName: dbStatement
p3536
tp3537
I4
s(Vinsert
p3538
I5
VArrayType: Object[]
p3539
tp3540
I5
s(Vinsert
p3541
I42
VSimpleName: NumberExpression
p3542
tp3543
I3
s(Vinsert
p3544
I42
VSimpleName: HolyWaterPotion
p3545
tp3546
I1
s(Vinsert
p3547
I42
VSimpleName: String
p3548
tp3549
I246
s(Vinsert
p3550
I42
VSimpleName: GO_TO_MINE
p3551
tp3552
I1
s(Vinsert
p3553
I42
VSimpleName: After
p3554
tp3555
I4
s(Vinsert
p3556
I66
VTextElement: There is other variant possible where the result is posted back in the queue of caller thread
p3557
tp3558
I1
s(Vinsert
p3559
I45
VStringLiteral: "Name"
p3560
tp3561
I1
s(Vinsert
p3562
I45
VStringLiteral: "jBloch"
p3563
tp3564
I2
s(Vinsert
p3565
I45
VStringLiteral: "weightTons"
p3566
tp3567
I1
s(Vinsert
p3568
I42
VSimpleName: entrySet
p3569
tp3570
I1
s(Vinsert
p3571
I42
VSimpleName: getMemento
p3572
tp3573
I3
s(Vinsert
p3574
I42
VSimpleName: onEnterState
p3575
tp3576
I1
s(Vinsert
p3577
I42
VSimpleName: money
p3578
tp3579
I3
s(Vinsert
p3580
I42
VSimpleName: c
p3581
tp3582
I3
s(Vinsert
p3583
I42
VSimpleName: header
p3584
tp3585
I1
s(Vinsert
p3586
I42
VSimpleName: clear
p3587
tp3588
I1
s(Vinsert
p3589
I42
VSimpleName: getTopping
p3590
tp3591
I1
s(Vinsert
p3592
I43
VSimpleType: CakeInfo
p3593
tp3594
I4
s(Vinsert
p3595
I45
VStringLiteral: " - Log request: "
p3596
tp3597
I1
s(Vinsert
p3598
I42
VSimpleName: delete
p3599
tp3600
I2
s(Vinsert
p3601
I42
VSimpleName: MessageData
p3602
tp3603
I1
s(Vinsert
p3604
I42
VSimpleName: getCommandClass
p3605
tp3606
I1
s(Vinsert
p3607
I43
VSimpleType: FrontController
p3608
tp3609
I2
s(Vinsert
p3610
I42
VSimpleName: shouldRetrieveEmptyStreamForNonExistinChildren
p3611
tp3612
I1
s(Vinsert
p3613
I43
VSimpleType: Long
p3614
tp3615
I4
s(Vinsert
p3616
I42
VSimpleName: FluentIterable
p3617
tp3618
I3
s(Vinsert
p3619
I25
VIfStatement
p3620
tp3621
I53
s(Vinsert
p3622
I42
VSimpleName: AppConfig
p3623
tp3624
I1
s(Vinsert
p3625
I42
VSimpleName: timePasses
p3626
tp3627
I7
s(Vinsert
p3628
I42
VSimpleName: FilterChain
p3629
tp3630
I1
s(Vinsert
p3631
I42
VSimpleName: imageController
p3632
tp3633
I2
s(Vinsert
p3634
I42
VSimpleName: bookAddedToAuthor
p3635
tp3636
I3
s(Vinsert
p3637
I42
VSimpleName: externalEventListener
p3638
tp3639
I2
s(Vinsert
p3640
I42
VSimpleName: ResultSet
p3641
tp3642
I2
s(Vinsert
p3643
I42
VSimpleName: AbstractNioChannel
p3644
tp3645
I6
s(Vinsert
p3646
I42
VSimpleName: isEqualTo
p3647
tp3648
I1
s(Vinsert
p3649
I43
VSimpleType: CakeToppingDao
p3650
tp3651
I1
s(Vinsert
p3652
I66
VTextElement: View for errors.
p3653
tp3654
I1
s(Vinsert
p3655
I42
VSimpleName: EventDispatcher
p3656
tp3657
I6
s(Vinsert
p3658
I42
VSimpleName: tempout
p3659
tp3660
I2
s(Vinsert
p3661
I42
VSimpleName: tower
p3662
tp3663
I7
s(Vinsert
p3664
I74
VParameterizedType: Iterable<Integer>
p3665
tp3666
I2
s(Vinsert
p3667
I42
VSimpleName: toJson
p3668
tp3669
I3
s(Vinsert
p3670
I42
VSimpleName: VALUE
p3671
tp3672
I2
s(Vinsert
p3673
I74
VParameterizedType: Optional<Exception>
p3674
tp3675
I1
s(Vinsert
p3676
I42
VSimpleName: messageFromOrcs
p3677
tp3678
I2
s(Vinsert
p3679
I42
VSimpleName: FixtureScriptsSpecification
p3680
tp3681
I2
s(Vinsert
p3682
I42
VSimpleName: ProjectileStrategy
p3683
tp3684
I1
s(Vinsert
p3685
I40
VQualifiedName: NazgulName.JI_INDUR
p3686
tp3687
I2
s(Vinsert
p3688
I42
VSimpleName: GiantModel
p3689
tp3690
I4
s(Vinsert
p3691
I42
VSimpleName: addSpellbook
p3692
tp3693
I2
s(Vinsert
p3694
I42
VSimpleName: DwarvenCartOperator
p3695
tp3696
I1
s(Vinsert
p3697
I42
VSimpleName: getFatigue
p3698
tp3699
I1
s(Vinsert
p3700
I42
VSimpleName: getMoney
p3701
tp3702
I1
s(Vinsert
p3703
I42
VSimpleName: ballThread
p3704
tp3705
I3
s(Vinsert
p3706
I42
VSimpleName: Iterable
p3707
tp3708
I2
s(Vinsert
p3709
I38
VPrefixExpression: !
p3710
tp3711
I9
s(Vinsert
p3712
I43
VSimpleType: AsyncTask
p3713
tp3714
I2
s(Vinsert
p3715
I42
VSimpleName: testVisitCommander
p3716
tp3717
I1
s(Vinsert
p3718
I42
VSimpleName: abstractController
p3719
tp3720
I1
s(Vinsert
p3721
I42
VSimpleName: getLayers
p3722
tp3723
I1
s(Vinsert
p3724
I42
VSimpleName: newState
p3725
tp3726
I2
s(Vinsert
p3727
I42
VSimpleName: StarMemento
p3728
tp3729
I2
s(Vinsert
p3730
I66
VTextElement: and then the result is processed in context of caller thread.
p3731
tp3732
I1
s(Vinsert
p3733
I42
VSimpleName: beforeScenarioIntegrationScope
p3734
tp3735
I1
s(Vinsert
p3736
I66
VTextElement: <p>
p3737
tp3738
I1
s(Vinsert
p3739
I42
VSimpleName: Callback
p3740
tp3741
I3
s(Vinsert
p3742
I42
VSimpleName: text
p3743
tp3744
I1
s(Vinsert
p3745
I74
VParameterizedType: Optional<Number>
p3746
tp3747
I1
s(Vinsert
p3748
I42
VSimpleName: supplier
p3749
tp3750
I1
s(Vinsert
p3751
I45
VStringLiteral: "Book of Idores"
p3752
tp3753
I1
s(Vinsert
p3754
I43
VSimpleType: Stats
p3755
tp3756
I1
s(Vinsert
p3757
I42
VSimpleName: getPartner
p3758
tp3759
I1
s(Vinsert
p3760
I74
VParameterizedType: ArrayList<>
p3761
tp3762
I3
s(Vinsert
p3763
I42
VSimpleName: pool
p3764
tp3765
I3
s(Vinsert
p3766
I42
VSimpleName: Servant
p3767
tp3768
I2
s(Vinsert
p3769
I40
VQualifiedName: Stats.RAGE
p3770
tp3771
I1
s(Vinsert
p3772
I42
VSimpleName: cake
p3773
tp3774
I5
s(Vinsert
p3775
I42
VSimpleName: server
p3776
tp3777
I2
s(Vinsert
p3778
I43
VSimpleType: BallItem
p3779
tp3780
I3
s(Vinsert
p3781
I42
VSimpleName: interpret
p3782
tp3783
I8
s(Vinsert
p3784
I43
VSimpleType: CakeTopping
p3785
tp3786
I2
s(Vinsert
p3787
I74
VParameterizedType: List<CustomerDto>
p3788
tp3789
I1
s(Vinsert
p3790
I42
VSimpleName: doProcessing
p3791
tp3792
I2
s(Vinsert
p3793
I43
VSimpleType: SoulEatingMagicWeaponImp
p3794
tp3795
I1
s(Vinsert
p3796
I34
VNumberLiteral: 10
p3797
tp3798
I6
s(Vinsert
p3799
I66
VTextElement: Create a new request of the given type and accompanied description.
p3800
tp3801
I1
s(Vinsert
p3802
I45
VStringLiteral: "poison"
p3803
tp3804
I1
s(Vinsert
p3805
I40
VQualifiedName: JScrollPane.HORIZONTAL_SCROLLBAR_AS_NEEDED
p3806
tp3807
I1
s(Vinsert
p3808
I42
VSimpleName: dropSession
p3809
tp3810
I1
s(Vinsert
p3811
I40
VQualifiedName: System.out
p3812
tp3813
I136
s(Vinsert
p3814
I42
VSimpleName: Thief
p3815
tp3816
I3
s(Vinsert
p3817
I42
VSimpleName: Properties
p3818
tp3819
I4
s(Vinsert
p3820
I74
VParameterizedType: Supplier<Heavy>
p3821
tp3822
I2
s(Vinsert
p3823
I42
VSimpleName: fishV1
p3824
tp3825
I3
s(Vinsert
p3826
I42
VSimpleName: PartyImpl
p3827
tp3828
I2
s(Vinsert
p3829
I42
VSimpleName: stream
p3830
tp3831
I3
s(Vinsert
p3832
I42
VSimpleName: presenter
p3833
tp3834
I2
s(Vinsert
p3835
I43
VSimpleType: DefaultCamelContext
p3836
tp3837
I1
s(Vinsert
p3838
I42
VSimpleName: Callable
p3839
tp3840
I1
s(Vinsert
p3841
I42
VSimpleName: setWizard
p3842
tp3843
I1
s(Vinsert
p3844
I42
VSimpleName: fetch
p3845
tp3846
I1
s(Vinsert
p3847
I42
VSimpleName: StringBuilder
p3848
tp3849
I2
s(Vinsert
p3850
I42
VSimpleName: heroStatA
p3851
tp3852
I1
s(Vinsert
p3853
I43
VSimpleType: Event
p3854
tp3855
I15
s(Vinsert
p3856
I42
VSimpleName: getMenuItem
p3857
tp3858
I1
s(Vinsert
p3859
I42
VSimpleName: actor
p3860
tp3861
I1
s(Vinsert
p3862
I42
VSimpleName: FileWriter
p3863
tp3864
I3
s(Vinsert
p3865
I42
VSimpleName: getBottomShelf
p3866
tp3867
I1
s(Vinsert
p3868
I45
VStringLiteral: "FlamingAsteroid at [1,2,3,4] damaged=false onFire=true"
p3869
tp3870
I1
s(Vinsert
p3871
I42
VSimpleName: spellbookDao
p3872
tp3873
I4
s(Vinsert
p3874
I43
VSimpleType: StealingMethod
p3875
tp3876
I1
s(Vinsert
p3877
I43
VSimpleType: Troll
p3878
tp3879
I2
s(Vinsert
p3880
I43
VSimpleType: List
p3881
tp3882
I22
s(Vinsert
p3883
I42
VSimpleName: createProducerTemplate
p3884
tp3885
I1
s(Vinsert
p3886
I74
VParameterizedType: Handler<?>
p3887
tp3888
I2
s(Vinsert
p3889
I42
VSimpleName: party
p3890
tp3891
I3
s(Vinsert
p3892
I34
VNumberLiteral: 3
p3893
tp3894
I10
s(Vinsert
p3895
I42
VSimpleName: epsonPrinterController
p3896
tp3897
I2
s(Vinsert
p3898
I45
VStringLiteral: "Account not found"
p3899
tp3900
I1
s(Vinsert
p3901
I42
VSimpleName: visitSergeant
p3902
tp3903
I3
s(Vinsert
p3904
I42
VSimpleName: DwarvenTunnelDigger
p3905
tp3906
I1
s(Vinsert
p3907
I42
VSimpleName: SpellbookDaoImpl
p3908
tp3909
I1
s(Vinsert
p3910
I42
VSimpleName: moneyTransactionService
p3911
tp3912
I2
s(Vinsert
p3913
I42
VSimpleName: injectServicesInto
p3914
tp3915
I1
s(Vinsert
p3916
I42
VSimpleName: Store
p3917
tp3918
I1
s(Vinsert
p3919
I43
VSimpleType: Headers
p3920
tp3921
I1
s(Vinsert
p3922
I42
VSimpleName: preExecute
p3923
tp3924
I1
s(Vinsert
p3925
I43
VSimpleType: AlchemistShop
p3926
tp3927
I2
s(Vinsert
p3928
I43
VSimpleType: TYPE
p3929
tp3930
I2
s(Vinsert
p3931
I42
VSimpleName: onAction
p3932
tp3933
I1
s(Vinsert
p3934
I42
VSimpleName: testApp
p3935
tp3936
I1
s(Vinsert
p3937
I42
VSimpleName: ExecutorService
p3938
tp3939
I5
s(Vinsert
p3940
I43
VSimpleType: DwarvenMineWorker
p3941
tp3942
I4
s(Vinsert
p3943
I74
VParameterizedType: Channel<? extends Event>
p3944
tp3945
I1
s(Vinsert
p3946
I43
VSimpleType: ServiceType
p3947
tp3948
I1
s(Vinsert
p3949
I42
VSimpleName: take
p3950
tp3951
I2
s(Vinsert
p3952
I42
VSimpleName: cachedService
p3953
tp3954
I1
s(Vinsert
p3955
I43
VSimpleType: Mammoth
p3956
tp3957
I4
s(Vinsert
p3958
I43
VSimpleType: CakeView
p3959
tp3960
I2
s(Vinsert
p3961
I45
VStringLiteral: "@SimpleObjectsFixture"
p3962
tp3963
I1
s(Vinsert
p3964
I42
VSimpleName: createMage
p3965
tp3966
I2
s(Vinsert
p3967
I42
VSimpleName: attachGlider
p3968
tp3969
I3
s(Vinsert
p3970
I45
VStringLiteral: "122"
p3971
tp3972
I1
s(Vinsert
p3973
I42
VSimpleName: panel
p3974
tp3975
I2
s(Vinsert
p3976
I42
VSimpleName: findById
p3977
tp3978
I1
s(Vinsert
p3979
I42
VSimpleName: top
p3980
tp3981
I1
s(Vinsert
p3982
I40
VQualifiedName: StarType.SUN
p3983
tp3984
I1
s(Vinsert
p3985
I43
VSimpleType: Integer
p3986
tp3987
I10
s(Vinsert
p3988
I42
VSimpleName: type
p3989
tp3990
I2
s(Vinsert
p3991
I42
VSimpleName: layer2
p3992
tp3993
I1
s(Vinsert
p3994
I45
VStringLiteral: "direct:greetings"
p3995
tp3996
I1
s(Vinsert
p3997
I42
VSimpleName: getService
p3998
tp3999
I4
s(Vinsert
p4000
I42
VSimpleName: AppTest
p4001
tp4002
I4
s(Vinsert
p4003
I42
VSimpleName: dispatch
p4004
tp4005
I3
s(Vinsert
p4006
I54
VTryStatement
p4007
tp4008
I26
s(Vinsert
p4009
I43
VSimpleType: UnitVisitor
p4010
tp4011
I7
s(Vinsert
p4012
I42
VSimpleName: WizardTowerProxy
p4013
tp4014
I2
s(Vinsert
p4015
I42
VSimpleName: prime
p4016
tp4017
I2
s(Vinsert
p4018
I42
VSimpleName: Message
p4019
tp4020
I2
s(Vinsert
p4021
I42
VSimpleName: otherCustomer
p4022
tp4023
I2
s(Vinsert
p4024
I43
VSimpleType: IOException
p4025
tp4026
I7
s(Vinsert
p4027
I42
VSimpleName: fulfillInAsync
p4028
tp4029
I1
s(Vinsert
p4030
I74
VParameterizedType: List<Person>
p4031
tp4032
I4
s(Vinsert
p4033
I42
VSimpleName: capacity
p4034
tp4035
I1
s(Vinsert
p4036
I42
VSimpleName: CriteriaQuery
p4037
tp4038
I1
s(Vinsert
p4039
I66
VTextElement: bean(client), it is internally calling move method on the battleship
p4040
tp4041
I1
s(Vinsert
p4042
I42
VSimpleName: sergeantUnit
p4043
tp4044
I1
s(Vinsert
p4045
I42
VSimpleName: Commander
p4046
tp4047
I4
s(Vinsert
p4048
I43
VSimpleType: IllegalStateException
p4049
tp4050
I1
s(Vinsert
p4051
I42
VSimpleName: cake2
p4052
tp4053
I1
s(Vinsert
p4054
I42
VSimpleName: validate
p4055
tp4056
I3
s(Vinsert
p4057
I42
VSimpleName: StewData
p4058
tp4059
I1
s(Vinsert
p4060
I43
VSimpleType: ResultSet
p4061
tp4062
I2
s(Vinsert
p4063
I43
VSimpleType: InvisibilityPotion
p4064
tp4065
I1
s(Vinsert
p4066
I43
VSimpleType: DocumentImplementation
p4067
tp4068
I1
s(Vinsert
p4069
I42
VSimpleName: Messenger
p4070
tp4071
I3
s(Vinsert
p4072
I42
VSimpleName: withWeapon
p4073
tp4074
I1
s(Vinsert
p4075
I42
VSimpleName: allBooks
p4076
tp4077
I1
s(Vinsert
p4078
I42
VSimpleName: LotteryTicket
p4079
tp4080
I2
s(Vinsert
p4081
I43
VSimpleType: InOrder
p4082
tp4083
I2
s(Vinsert
p4084
I42
VSimpleName: entry
p4085
tp4086
I4
s(Vinsert
p4087
I42
VSimpleName: fire
p4088
tp4089
I5
s(Vinsert
p4090
I43
VSimpleType: Logger
p4091
tp4092
I2
s(Vinsert
p4093
I42
VSimpleName: filename
p4094
tp4095
I1
s(Vinsert
p4096
I42
VSimpleName: pickTarget
p4097
tp4098
I1
s(Vinsert
p4099
I43
VSimpleType: SpellbookDaoImpl
p4100
tp4101
I2
s(Vinsert
p4102
I42
VSimpleName: HolderNaive
p4103
tp4104
I3
s(Vinsert
p4105
I42
VSimpleName: actuals
p4106
tp4107
I2
s(Vinsert
p4108
I42
VSimpleName: testMain
p4109
tp4110
I4
s(Vinsert
p4111
I43
VSimpleType: StandardServiceRegistry
p4112
tp4113
I1
s(Vinsert
p4114
I42
VSimpleName: number
p4115
tp4116
I6
s(Vinsert
p4117
I42
VSimpleName: boat
p4118
tp4119
I1
s(Vinsert
p4120
I42
VSimpleName: setLastName
p4121
tp4122
I2
s(Vinsert
p4123
I42
VSimpleName: offerLast
p4124
tp4125
I1
s(Vinsert
p4126
I45
VStringLiteral: "With your Excalibur you severe the dragon's head!"
p4127
tp4128
I1
s(Vinsert
p4129
I36
VParenthesizedExpression
p4130
tp4131
I8
s(Vinsert
p4132
I42
VSimpleName: ByteBuffer
p4133
tp4134
I12
s(Vinsert
p4135
I42
VSimpleName: numbers
p4136
tp4137
I1
s(Vinsert
p4138
I42
VSimpleName: onResult
p4139
tp4140
I1
s(Vinsert
p4141
I43
VSimpleType: CustomerResource
p4142
tp4143
I2
s(Vinsert
p4144
I66
VTextElement: Verify if every event has a non-null, non-empty description
p4145
tp4146
I1
s(Vinsert
p4147
I42
VSimpleName: dataBus
p4148
tp4149
I1
s(Vinsert
p4150
I42
VSimpleName: accounts
p4151
tp4152
I1
s(Vinsert
p4153
I52
VThisExpression
p4154
tp4155
I96
s(Vinsert
p4156
I45
VStringLiteral: "lengthMeters"
p4157
tp4158
I1
s(Vinsert
p4159
I42
VSimpleName: FileSelectorJFrame
p4160
tp4161
I1
s(Vinsert
p4162
I42
VSimpleName: servletRequest
p4163
tp4164
I2
s(Vinsert
p4165
I45
VStringLiteral: "email1"
p4166
tp4167
I1
s(Vinsert
p4168
I42
VSimpleName: SimpleTask
p4169
tp4170
I4
s(Vinsert
p4171
I42
VSimpleName: filter
p4172
tp4173
I4
s(Vinsert
p4174
I42
VSimpleName: handleChannelRead
p4175
tp4176
I1
s(Vinsert
p4177
I42
VSimpleName: Royalty
p4178
tp4179
I3
s(Vinsert
p4180
I43
VSimpleType: Video
p4181
tp4182
I3
s(Vinsert
p4183
I43
VSimpleType: Permission
p4184
tp4185
I2
s(Vinsert
p4186
I42
VSimpleName: errorFile
p4187
tp4188
I1
s(Vinsert
p4189
I42
VSimpleName: orcMessage
p4190
tp4191
I1
s(Vinsert
p4192
I42
VSimpleName: fail
p4193
tp4194
I1
s(Vinsert
p4195
I45
VStringLiteral: "Message from the orcs: "
p4196
tp4197
I1
s(Vinsert
p4198
I42
VSimpleName: setName
p4199
tp4200
I1
s(Vinsert
p4201
I42
VSimpleName: flyingMagicWeapon
p4202
tp4203
I5
s(Vinsert
p4204
I42
VSimpleName: Arrays
p4205
tp4206
I5
s(Vinsert
p4207
I42
VSimpleName: User
p4208
tp4209
I7
s(Vinsert
p4210
I42
VSimpleName: getInternalHeavyValue
p4211
tp4212
I1
s(Vinsert
p4213
I42
VSimpleName: ImmutableStew
p4214
tp4215
I2
s(Vinsert
p4216
I42
VSimpleName: entity
p4217
tp4218
I1
s(Vinsert
p4219
I42
VSimpleName: setSize
p4220
tp4221
I1
s(Vinsert
p4222
I42
VSimpleName: messageCaptor
p4223
tp4224
I1
s(Vinsert
p4225
I40
VQualifiedName: Nourishment.SATURATED
p4226
tp4227
I1
s(Vinsert
p4228
I42
VSimpleName: newCustomer
p4229
tp4230
I1
s(Vinsert
p4231
I42
VSimpleName: registry
p4232
tp4233
I1
s(Vinsert
p4234
I42
VSimpleName: getHeader
p4235
tp4236
I2
s(Vinsert
p4237
I42
VSimpleName: spellDao
p4238
tp4239
I3
s(Vinsert
p4240
I74
VParameterizedType: Class<? extends Event>
p4241
tp4242
I1
s(Vinsert
p4243
I43
VSimpleType: NullNode
p4244
tp4245
I4
s(Vinsert
p4246
I42
VSimpleName: observer
p4247
tp4248
I7
s(Vinsert
p4249
I43
VSimpleType: KingdomFactory
p4250
tp4251
I1
s(Vinsert
p4252
I66
VTextElement:  http://www.javadoc.io/doc/com.google.guava/guava-testlib/19.0
p4253
tp4254
I1
s(Vinsert
p4255
I45
VStringLiteral: "dd/MM/yyyy"
p4256
tp4257
I2
s(Vinsert
p4258
I42
VSimpleName: hasNext
p4259
tp4260
I3
s(Vinsert
p4261
I42
VSimpleName: fileConfirmationWhenNameIsNull
p4262
tp4263
I1
s(Vinsert
p4264
I42
VSimpleName: repository
p4265
tp4266
I11
s(Vinsert
p4267
I42
VSimpleName: Axe
p4268
tp4269
I1
s(Vinsert
p4270
I14
VClassInstanceCreation
p4271
tp4272
I239
s(Vinsert
p4273
I13
VCharacterLiteral: 'B'
p4274
tp4275
I1
s(Vinsert
p4276
I27
VInfixExpression: ||
p4277
tp4278
I13
s(Vinsert
p4279
I42
VSimpleName: after
p4280
tp4281
I1
s(Vinsert
p4282
I42
VSimpleName: futureResult2
p4283
tp4284
I3
s(Vinsert
p4285
I42
VSimpleName: iss
p4286
tp4287
I3
s(Vinsert
p4288
I42
VSimpleName: HashMap
p4289
tp4290
I2
s(Vinsert
p4291
I43
VSimpleType: SelectionKey
p4292
tp4293
I7
s(Vinsert
p4294
I43
VSimpleType: TranslatableString
p4295
tp4296
I1
s(Vinsert
p4297
I42
VSimpleName: expectedValue
p4298
tp4299
I1
s(Vinsert
p4300
I42
VSimpleName: then
p4301
tp4302
I1
s(Vinsert
p4303
I42
VSimpleName: validateUpdateName
p4304
tp4305
I1
s(Vinsert
p4306
I43
VSimpleType: HeroStat
p4307
tp4308
I3
s(Vinsert
p4309
I45
VStringLiteral: "foo@bar.com"
p4310
tp4311
I1
s(Vinsert
p4312
I83
VModifier: final
p4313
tp4314
I103
s(Vinsert
p4315
I43
VSimpleType: IsisConfigurationForJdoIntegTests
p4316
tp4317
I2
s(Vinsert
p4318
I42
VSimpleName: getCanonicalName
p4319
tp4320
I1
s(Vinsert
p4321
I42
VSimpleName: StealingMethod
p4322
tp4323
I1
s(Vinsert
p4324
I42
VSimpleName: writeFile
p4325
tp4326
I2
s(Vinsert
p4327
I42
VSimpleName: nazguls
p4328
tp4329
I2
s(Vinsert
p4330
I45
VStringLiteral: "SoldierUnitTest"
p4331
tp4332
I1
s(Vinsert
p4333
I43
VSimpleType: RecreateSimpleObjects
p4334
tp4335
I1
s(Vinsert
p4336
I42
VSimpleName: another
p4337
tp4338
I1
s(Vinsert
p4339
I42
VSimpleName: findWizardsWithSpell
p4340
tp4341
I1
s(Vinsert
p4342
I43
VSimpleType: SimpleObjects
p4343
tp4344
I1
s(Vinsert
p4345
I83
VModifier: static
p4346
tp4347
I25
s(Vinsert
p4348
I74
VParameterizedType: Promise<Integer>
p4349
tp4350
I1
s(Vinsert
p4351
I74
VParameterizedType: Optional<TYPE>
p4352
tp4353
I1
s(Vinsert
p4354
I42
VSimpleName: toString
p4355
tp4356
I25
s(Vinsert
p4357
I42
VSimpleName: IntStream
p4358
tp4359
I1
s(Vinsert
p4360
I42
VSimpleName: asyncResult2
p4361
tp4362
I2
s(Vinsert
p4363
I42
VSimpleName: never
p4364
tp4365
I1
s(Vinsert
p4366
I42
VSimpleName: executeWith
p4367
tp4368
I2
s(Vinsert
p4369
I42
VSimpleName: REQUESTS
p4370
tp4371
I1
s(Vinsert
p4372
I42
VSimpleName: close
p4373
tp4374
I3
s(Vinsert
p4375
I45
VStringLiteral: "Reader 2"
p4376
tp4377
I2
s(Vinsert
p4378
I42
VSimpleName: MenuAction
p4379
tp4380
I2
s(Vinsert
p4381
I42
VSimpleName: goHome
p4382
tp4383
I1
s(Vinsert
p4384
I42
VSimpleName: isInstance
p4385
tp4386
I1
s(Vinsert
p4387
I42
VSimpleName: SoldierVisitor
p4388
tp4389
I2
s(Vinsert
p4390
I42
VSimpleName: contains
p4391
tp4392
I3
s(Vinsert
p4393
I37
VPostfixExpression: ++
p4394
tp4395
I10
s(Vinsert
p4396
I42
VSimpleName: datagram
p4397
tp4398
I2
s(Vinsert
p4399
I43
VSimpleType: GiantModelObserver
p4400
tp4401
I1
s(Vinsert
p4402
I40
VQualifiedName: Hero.HeroBuilder
p4403
tp4404
I1
s(Vinsert
p4405
I42
VSimpleName: HitAndRunMethod
p4406
tp4407
I1
s(Vinsert
p4408
I42
VSimpleName: ApplicationException
p4409
tp4410
I1
s(Vinsert
p4411
I42
VSimpleName: getLeft
p4412
tp4413
I1
s(Vinsert
p4414
I42
VSimpleName: ExecutionContext
p4415
tp4416
I1
s(Vinsert
p4417
I42
VSimpleName: getContactNumber
p4418
tp4419
I1
s(Vinsert
p4420
I42
VSimpleName: first
p4421
tp4422
I1
s(Vinsert
p4423
I42
VSimpleName: weaponImpl
p4424
tp4425
I2
s(Vinsert
p4426
I42
VSimpleName: CustomerDto
p4427
tp4428
I2
s(Vinsert
p4429
I42
VSimpleName: oneOf
p4430
tp4431
I1
s(Vinsert
p4432
I42
VSimpleName: byteCount
p4433
tp4434
I1
s(Vinsert
p4435
I13
VCharacterLiteral: 'a'
p4436
tp4437
I1
s(Vinsert
p4438
I42
VSimpleName: syncLayer
p4439
tp4440
I3
s(Vinsert
p4441
I43
VSimpleType: ExecutorService
p4442
tp4443
I5
s(Vinsert
p4444
I42
VSimpleName: simpleObjects
p4445
tp4446
I1
s(Vinsert
p4447
I42
VSimpleName: warrior
p4448
tp4449
I2
s(Vinsert
p4450
I42
VSimpleName: owner
p4451
tp4452
I3
s(Vinsert
p4453
I43
VSimpleType: PriceClient
p4454
tp4455
I1
s(Vinsert
p4456
I42
VSimpleName: output
p4457
tp4458
I3
s(Vinsert
p4459
I43
VSimpleType: Hero.HeroBuilder
p4460
tp4461
I1
s(Vinsert
p4462
I43
VSimpleType: OrcSoldier
p4463
tp4464
I1
s(Vinsert
p4465
I42
VSimpleName: UserAccount
p4466
tp4467
I3
s(Vinsert
p4468
I42
VSimpleName: transformedList
p4469
tp4470
I1
s(Vinsert
p4471
I42
VSimpleName: resultExpression
p4472
tp4473
I1
s(Vinsert
p4474
I42
VSimpleName: checking
p4475
tp4476
I1
s(Vinsert
p4477
I42
VSimpleName: CanonPrinter
p4478
tp4479
I1
s(Vinsert
p4480
I42
VSimpleName: synchronizedList
p4481
tp4482
I1
s(Vinsert
p4483
I42
VSimpleName: atLeastOnce
p4484
tp4485
I1
s(Vinsert
p4486
I42
VSimpleName: createBeast
p4487
tp4488
I1
s(Vinsert
p4489
I43
VSimpleType: LoggingHandler
p4490
tp4491
I2
s(Vinsert
p4492
I43
VSimpleType: NumberExpression
p4493
tp4494
I2
s(Vinsert
p4495
I42
VSimpleName: objIn
p4496
tp4497
I1
s(Vinsert
p4498
I42
VSimpleName: getImagePath
p4499
tp4500
I1
s(Vinsert
p4501
I42
VSimpleName: itemId
p4502
tp4503
I1
s(Vinsert
p4504
I42
VSimpleName: tempin
p4505
tp4506
I1
s(Vinsert
p4507
I74
VParameterizedType: List<Integer>
p4508
tp4509
I1
s(Vinsert
p4510
I42
VSimpleName: emitter
p4511
tp4512
I1
s(Vinsert
p4513
I7
VAssignment: =
p4514
tp4515
I79
s(Vinsert
p4516
I42
VSimpleName: getDenials
p4517
tp4518
I1
s(Vinsert
p4519
I42
VSimpleName: Sergeant
p4520
tp4521
I5
s(Vinsert
p4522
I42
VSimpleName: NullNode
p4523
tp4524
I5
s(Vinsert
p4525
I42
VSimpleName: executorService
p4526
tp4527
I8
s(Vinsert
p4528
I42
VSimpleName: setProperty
p4529
tp4530
I2
s(Vinsert
p4531
I40
VQualifiedName: fs.NAMES
p4532
tp4533
I1
s(Vinsert
p4534
I42
VSimpleName: observe
p4535
tp4536
I4
s(Vinsert
p4537
I45
VStringLiteral: "SoldierUnitName"
p4538
tp4539
I1
s(Vinsert
p4540
I42
VSimpleName: timeMs
p4541
tp4542
I1
s(Vinsert
p4543
I42
VSimpleName: display
p4544
tp4545
I7
s(Vinsert
p4546
I42
VSimpleName: testPrototype
p4547
tp4548
I1
s(Vinsert
p4549
I42
VSimpleName: confuseTarget
p4550
tp4551
I2
s(Vinsert
p4552
I42
VSimpleName: Nazgul
p4553
tp4554
I4
s(Vinsert
p4555
I42
VSimpleName: setHealth
p4556
tp4557
I4
s(Vinsert
p4558
I42
VSimpleName: requestBuffer
p4559
tp4560
I1
s(Vinsert
p4561
I42
VSimpleName: commandClass
p4562
tp4563
I2
s(Vinsert
p4564
I43
VSimpleType: Creature
p4565
tp4566
I9
s(Vinsert
p4567
I42
VSimpleName: getAllToppings
p4568
tp4569
I1
s(Vinsert
p4570
I42
VSimpleName: getHeaders
p4571
tp4572
I2
s(Vinsert
p4573
I42
VSimpleName: testIsEnhancedAlwaysTrueAsTiered
p4574
tp4575
I1
s(Vinsert
p4576
I42
VSimpleName: observers
p4577
tp4578
I4
s(Vinsert
p4579
I42
VSimpleName: desktopProduct
p4580
tp4581
I5
s(Vinsert
p4582
I42
VSimpleName: initCapacity
p4583
tp4584
I1
s(Vinsert
p4585
I42
VSimpleName: getSpellbook
p4586
tp4587
I1
s(Vinsert
p4588
I42
VSimpleName: result2
p4589
tp4590
I2
s(Vinsert
p4591
I42
VSimpleName: impl
p4592
tp4593
I4
s(Vinsert
p4594
I42
VSimpleName: allCustomers
p4595
tp4596
I1
s(Vinsert
p4597
I42
VSimpleName: swingImp
p4598
tp4599
I3
s(Vinsert
p4600
I42
VSimpleName: cakeView
p4601
tp4602
I2
s(Vinsert
p4603
I42
VSimpleName: king
p4604
tp4605
I7
s(Vinsert
p4606
I65
VTagElement: @inheritDoc
p4607
tp4608
I1
s(Vinsert
p4609
I42
VSimpleName: setLoader
p4610
tp4611
I1
s(Vinsert
p4612
I42
VSimpleName: Handler
p4613
tp4614
I2
s(Vinsert
p4615
I43
VSimpleType: EventDispatcher
p4616
tp4617
I6
s(Vinsert
p4618
I42
VSimpleName: testFolder
p4619
tp4620
I1
s(Vinsert
p4621
I42
VSimpleName: Predicate
p4622
tp4623
I1
s(Vinsert
p4624
I43
VSimpleType: Stream
p4625
tp4626
I1
s(Vinsert
p4627
I42
VSimpleName: PlayerDetails
p4628
tp4629
I4
s(Vinsert
p4630
I45
VStringLiteral: "Writer 2"
p4631
tp4632
I2
s(Vinsert
p4633
I43
VSimpleType: Future
p4634
tp4635
I1
s(Vinsert
p4636
I42
VSimpleName: Injector
p4637
tp4638
I1
s(Vinsert
p4639
I42
VSimpleName: asteroid
p4640
tp4641
I3
s(Vinsert
p4642
I43
VSimpleType: Weekday
p4643
tp4644
I4
s(Vinsert
p4645
I43
VSimpleType: Channel
p4646
tp4647
I2
s(Vinsert
p4648
I42
VSimpleName: advancedWizard
p4649
tp4650
I2
s(Vinsert
p4651
I42
VSimpleName: workers
p4652
tp4653
I1
s(Vinsert
p4654
I42
VSimpleName: verify
p4655
tp4656
I16
s(Vinsert
p4657
I74
VParameterizedType: CriteriaQuery<?>
p4658
tp4659
I1
s(Vinsert
p4660
I43
VSimpleType: FlyingMagicWeaponImp
p4661
tp4662
I1
s(Vinsert
p4663
I42
VSimpleName: Document
p4664
tp4665
I2
s(Vinsert
p4666
I42
VSimpleName: isValid
p4667
tp4668
I1
s(Vinsert
p4669
I42
VSimpleName: student
p4670
tp4671
I3
s(Vinsert
p4672
I8
VBlock
p4673
tp4674
I630
s(Vinsert
p4675
I42
VSimpleName: ViewModel
p4676
tp4677
I1
s(Vinsert
p4678
I42
VSimpleName: warProto
p4679
tp4680
I3
s(Vinsert
p4681
I43
VSimpleType: E
p4682
tp4683
I4
s(Vinsert
p4684
I42
VSimpleName: when
p4685
tp4686
I12
s(Vinsert
p4687
I34
VNumberLiteral: 1000
p4688
tp4689
I4
s(Vinsert
p4690
I42
VSimpleName: expectedToString
p4691
tp4692
I1
s(Vinsert
p4693
I66
VTextElement:  and our captain. We have no time to make up a new ship!
p4694
tp4695
I1
s(Vinsert
p4696
I76
VWildcardType: ?
p4697
tp4698
I4
s(Vinsert
p4699
I42
VSimpleName: IvoryTower
p4700
tp4701
I2
s(Vinsert
p4702
I46
VSuperConstructorInvocation
p4703
tp4704
I5
s(Vinsert
p4705
I74
VParameterizedType: List<CakeTopping>
p4706
tp4707
I1
s(Vinsert
p4708
I42
VSimpleName: key
p4709
tp4710
I17
s(Vinsert
p4711
I45
VStringLiteral: "Reader 1 begin"
p4712
tp4713
I1
s(Vinsert
p4714
I45
VStringLiteral: "]"
p4715
tp4716
I1
s(Vinsert
p4717
I45
VStringLiteral: " and wielding "
p4718
tp4719
I1
s(Vinsert
p4720
I42
VSimpleName: readLock
p4721
tp4722
I9
s(Vinsert
p4723
I66
VTextElement: the beans Map.
p4724
tp4725
I1
s(Vinsert
p4726
I42
VSimpleName: userAccount
p4727
tp4728
I2
s(Vinsert
p4729
I43
VSimpleType: PreparedStatement
p4730
tp4731
I2
s(Vinsert
p4732
I42
VSimpleName: getImp
p4733
tp4734
I4
s(Vinsert
p4735
I42
VSimpleName: pollLast
p4736
tp4737
I1
s(Vinsert
p4738
I42
VSimpleName: clearCache
p4739
tp4740
I1
s(Vinsert
p4741
I5
VArrayType: byte[]
p4742
tp4743
I1
s(Vinsert
p4744
I42
VSimpleName: collector
p4745
tp4746
I2
s(Vinsert
p4747
I42
VSimpleName: oldExchange
p4748
tp4749
I2
s(Vinsert
p4750
I45
VStringLiteral: "CommanderUnitTest"
p4751
tp4752
I1
s(Vinsert
p4753
I43
VSimpleType: StewData
p4754
tp4755
I1
s(Vinsert
p4756
I42
VSimpleName: updateView
p4757
tp4758
I2
s(Vinsert
p4759
I42
VSimpleName: order
p4760
tp4761
I25
s(Vinsert
p4762
I42
VSimpleName: HomePage
p4763
tp4764
I1
s(Vinsert
p4765
I42
VSimpleName: numMeat
p4766
tp4767
I2
s(Vinsert
p4768
I42
VSimpleName: details
p4769
tp4770
I1
s(Vinsert
p4771
I42
VSimpleName: JScrollPane
p4772
tp4773
I3
s(Vinsert
p4774
I43
VSimpleType: IllegalArgumentException
p4775
tp4776
I1
s(Vinsert
p4777
I42
VSimpleName: nextSequenceId
p4778
tp4779
I2
s(Vinsert
p4780
I42
VSimpleName: t
p4781
tp4782
I7
s(Vinsert
p4783
I42
VSimpleName: Heavy
p4784
tp4785
I9
s(Vinsert
p4786
I42
VSimpleName: isRunning
p4787
tp4788
I1
s(Vinsert
p4789
I42
VSimpleName: moneyWithdrawalEvent
p4790
tp4791
I1
s(Vinsert
p4792
I42
VSimpleName: ServiceType
p4793
tp4794
I1
s(Vinsert
p4795
I42
VSimpleName: battleship
p4796
tp4797
I3
s(Vinsert
p4798
I42
VSimpleName: apply
p4799
tp4800
I1
s(Vinsert
p4801
I42
VSimpleName: runFixtureScript
p4802
tp4803
I1
s(Vinsert
p4804
I43
VSimpleType: Exception
p4805
tp4806
I42
s(Vinsert
p4807
I43
VSimpleType: Converter
p4808
tp4809
I1
s(Vinsert
p4810
I43
VSimpleType: ReaderWriterLock
p4811
tp4812
I2
s(Vinsert
p4813
I42
VSimpleName: fields
p4814
tp4815
I1
s(Vinsert
p4816
I42
VSimpleName: orcArmy
p4817
tp4818
I1
s(Vinsert
p4819
I42
VSimpleName: yield
p4820
tp4821
I1
s(Vinsert
p4822
I43
VSimpleType: FixtureResult
p4823
tp4824
I1
s(Vinsert
p4825
I34
VNumberLiteral: 7
p4826
tp4827
I1
s(Vinsert
p4828
I42
VSimpleName: getValue
p4829
tp4830
I2
s(Vinsert
p4831
I42
VSimpleName: attachment
p4832
tp4833
I1
s(Vinsert
p4834
I42
VSimpleName: Executors
p4835
tp4836
I7
s(Vinsert
p4837
I40
VQualifiedName: BorderLayout.SOUTH
p4838
tp4839
I1
s(Vinsert
p4840
I42
VSimpleName: LoadBalancer
p4841
tp4842
I5
s(Vinsert
p4843
I42
VSimpleName: get
p4844
tp4845
I33
s(Vinsert
p4846
I43
VSimpleType: Mage
p4847
tp4848
I1
s(Vinsert
p4849
I42
VSimpleName: tom
p4850
tp4851
I1
s(Vinsert
p4852
I42
VSimpleName: AnnotationConfigApplicationContext
p4853
tp4854
I1
s(Vinsert
p4855
I42
VSimpleName: CriteriaBuilder
p4856
tp4857
I1
s(Vinsert
p4858
I44
VSingleVariableDeclaration
p4859
tp4860
I167
s(Vinsert
p4861
I42
VSimpleName: bakeNewCake
p4862
tp4863
I2
s(Vinsert
p4864
I42
VSimpleName: captain
p4865
tp4866
I2
s(Vinsert
p4867
I45
VStringLiteral: "SELECT * FROM CUSTOMERS WHERE ID = ?"
p4868
tp4869
I1
s(Vinsert
p4870
I42
VSimpleName: videos
p4871
tp4872
I6
s(Vinsert
p4873
I42
VSimpleName: potion
p4874
tp4875
I2
s(Vinsert
p4876
I42
VSimpleName: CakeLayerInfo
p4877
tp4878
I4
s(Vinsert
p4879
I42
VSimpleName: LocalDateTime
p4880
tp4881
I2
s(Vinsert
p4882
I42
VSimpleName: setUp
p4883
tp4884
I17
s(Vinsert
p4885
I42
VSimpleName: getFileName
p4886
tp4887
I1
s(Vinsert
p4888
I66
VTextElement:  in case of en exception during the test
p4889
tp4890
I3
s(Vinsert
p4891
I42
VSimpleName: setFirstName
p4892
tp4893
I2
s(Vinsert
p4894
I42
VSimpleName: BookDTO
p4895
tp4896
I1
s(Vinsert
p4897
I42
VSimpleName: HasPrice
p4898
tp4899
I1
s(Vinsert
p4900
I43
VSimpleType: CakeLayerInfo
p4901
tp4902
I3
s(Vinsert
p4903
I42
VSimpleName: readObject
p4904
tp4905
I5
s(Vinsert
p4906
I66
VTextElement:  class before each test
p4907
tp4908
I16
s(Vinsert
p4909
I43
VSimpleType: SlidingDoor
p4910
tp4911
I2
s(Vinsert
p4912
I42
VSimpleName: save
p4913
tp4914
I8
s(Vinsert
p4915
I42
VSimpleName: BlindingMagicWeaponImp
p4916
tp4917
I1
s(Vinsert
p4918
I42
VSimpleName: redo
p4919
tp4920
I1
s(Vinsert
p4921
I42
VSimpleName: initialStrategy
p4922
tp4923
I1
s(Vinsert
p4924
I66
VTextElement: data storage or a simple Java data structure to (temporarily) store the data/objects during
p4925
tp4926
I1
s(Vinsert
p4927
I42
VSimpleName: BusinessLookup
p4928
tp4929
I3
s(Vinsert
p4930
I43
VSimpleType: WeatherObserver
p4931
tp4932
I1
s(Vinsert
p4933
I42
VSimpleName: put
p4934
tp4935
I26
s(Vinsert
p4936
I42
VSimpleName: createKingdom
p4937
tp4938
I1
s(Vinsert
p4939
I42
VSimpleName: addAnnotatedClass
p4940
tp4941
I3
s(Vinsert
p4942
I42
VSimpleName: SlidingDoor
p4943
tp4944
I3
s(Vinsert
p4945
I42
VSimpleName: Mage
p4946
tp4947
I1
s(Vinsert
p4948
I42
VSimpleName: ArrayList
p4949
tp4950
I4
s(Vinsert
p4951
I43
VSimpleType: String
p4952
tp4953
I215
s(Vinsert
p4954
I42
VSimpleName: initClass
p4955
tp4956
I1
s(Vinsert
p4957
I42
VSimpleName: writer2
p4958
tp4959
I2
s(Vinsert
p4960
I41
VReturnStatement
p4961
tp4962
I64
s(Vinsert
p4963
I42
VSimpleName: previousSpell
p4964
tp4965
I1
s(Vinsert
p4966
I42
VSimpleName: warlord
p4967
tp4968
I2
s(Vinsert
p4969
I42
VSimpleName: UserUpdatedEvent
p4970
tp4971
I5
s(Vinsert
p4972
I5
VArrayType: String[]
p4973
tp4974
I136
s(Vinsert
p4975
I42
VSimpleName: wizard
p4976
tp4977
I12
s(Vinsert
p4978
I42
VSimpleName: root
p4979
tp4980
I2
s(Vinsert
p4981
I42
VSimpleName: between
p4982
tp4983
I1
s(Vinsert
p4984
I27
VInfixExpression: <
p4985
tp4986
I10
s(Vinsert
p4987
I42
VSimpleName: T
p4988
tp4989
I6
s(Vinsert
p4990
I43
VSimpleType: ByteBuffer
p4991
tp4992
I6
s(Vinsert
p4993
I42
VSimpleName: run
p4994
tp4995
I22
s(Vinsert
p4996
I42
VSimpleName: commander
p4997
tp4998
I4
s(Vinsert
p4999
I42
VSimpleName: PartyMember
p5000
tp5001
I3
s(Vinsert
p5002
I42
VSimpleName: CopyOnWriteArrayList
p5003
tp5004
I1
s(Vinsert
p5005
I42
VSimpleName: id
p5006
tp5007
I15
s(Vinsert
p5008
I42
VSimpleName: getPrinter
p5009
tp5010
I1
s(Vinsert
p5011
I42
VSimpleName: headers
p5012
tp5013
I1
s(Vinsert
p5014
I42
VSimpleName: registerObserver
p5015
tp5016
I2
s(Vinsert
p5017
I74
VParameterizedType: List<FixtureResult>
p5018
tp5019
I1
s(Vinsert
p5020
I42
VSimpleName: draw
p5021
tp5022
I2
s(Vinsert
p5023
I42
VSimpleName: view
p5024
tp5025
I11
s(Vinsert
p5026
I42
VSimpleName: hunter
p5027
tp5028
I1
s(Vinsert
p5029
I42
VSimpleName: currentIndex
p5030
tp5031
I1
s(Vinsert
p5032
I42
VSimpleName: scenarioExecution
p5033
tp5034
I1
s(Vinsert
p5035
I42
VSimpleName: rightExpression
p5036
tp5037
I6
s(Vinsert
p5038
I43
VSimpleType: Promise
p5039
tp5040
I2
s(Vinsert
p5041
I42
VSimpleName: serviceObj
p5042
tp5043
I1
s(Vinsert
p5044
I42
VSimpleName: Future
p5045
tp5046
I2
s(Vinsert
p5047
I42
VSimpleName: output1
p5048
tp5049
I1
s(Vinsert
p5050
I42
VSimpleName: numPotatoes
p5051
tp5052
I2
s(Vinsert
p5053
I42
VSimpleName: unprepare
p5054
tp5055
I3
s(Vinsert
p5056
I42
VSimpleName: stores
p5057
tp5058
I2
s(Vinsert
p5059
I42
VSimpleName: goToBattle
p5060
tp5061
I4
s(Vinsert
p5062
I43
VSimpleType: StarMementoInternal
p5063
tp5064
I2
s(Vinsert
p5065
I42
VSimpleName: Army
p5066
tp5067
I1
s(Vinsert
p5068
I45
VStringLiteral: "Do some money operations............"
p5069
tp5070
I1
s(Vinsert
p5071
I40
VQualifiedName: com.iluwatar.servicelayer.hibernate.HibernateUtil
p5072
tp5073
I1
s(Vinsert
p5074
I10
VBreakStatement
p5075
tp5076
I8
s(Vinsert
p5077
I42
VSimpleName: getPort
p5078
tp5079
I1
s(Vinsert
p5080
I42
VSimpleName: thenThrow
p5081
tp5082
I1
s(Vinsert
p5083
I34
VNumberLiteral: 50
p5084
tp5085
I1
s(Vinsert
p5086
I42
VSimpleName: equals
p5087
tp5088
I20
s(Vinsert
p5089
I76
VWildcardType: ? extends Event
p5090
tp5091
I4
s(Vinsert
p5092
I12
VCatchClause
p5093
tp5094
I4
s(Vinsert
p5095
I42
VSimpleName: isPaid
p5096
tp5097
I2
s(Vinsert
p5098
I42
VSimpleName: mage
p5099
tp5100
I3
s(Vinsert
p5101
I42
VSimpleName: copy
p5102
tp5103
I1
s(Vinsert
p5104
I42
VSimpleName: replyPacket
p5105
tp5106
I1
s(Vinsert
p5107
I43
VSimpleType: LetterComposite
p5108
tp5109
I1
s(Vinsert
p5110
I45
VStringLiteral: "number"
p5111
tp5112
I1
s(Vinsert
p5113
I42
VSimpleName: bot
p5114
tp5115
I1
s(Vinsert
p5116
I43
VSimpleType: SameThreadDispatcher
p5117
tp5118
I1
s(Vinsert
p5119
I42
VSimpleName: threadObjects
p5120
tp5121
I3
s(Vinsert
p5122
I43
VSimpleType: ExecutionException
p5123
tp5124
I5
s(Vinsert
p5125
I42
VSimpleName: testPositiveErrorMessage
p5126
tp5127
I1
s(Vinsert
p5128
I43
VSimpleType: BallThread
p5129
tp5130
I4
s(Vinsert
p5131
I43
VSimpleType: SergeantUnit
p5132
tp5133
I2
s(Vinsert
p5134
I43
VSimpleType: Socket
p5135
tp5136
I1
s(Vinsert
p5137
I42
VSimpleName: Event
p5138
tp5139
I19
s(Vinsert
p5140
I42
VSimpleName: facade
p5141
tp5142
I2
s(Vinsert
p5143
I42
VSimpleName: registerChannel
p5144
tp5145
I9
s(Vinsert
p5146
I45
VStringLiteral: ""
p5147
tp5148
I5
s(Vinsert
p5149
I66
VTextElement: command line args
p5150
tp5151
I2
s(Vinsert
p5152
I42
VSimpleName: readFirstLine
p5153
tp5154
I1
s(Vinsert
p5155
I66
VTextElement:  if interrupted while stopping pool of workers.
p5156
tp5157
I1
s(Vinsert
p5158
I42
VSimpleName: SequenceIdGenerator
p5159
tp5160
I2
s(Vinsert
p5161
I42
VSimpleName: OutputStream
p5162
tp5163
I1
s(Vinsert
p5164
I42
VSimpleName: Configuration
p5165
tp5166
I1
s(Vinsert
p5167
I42
VSimpleName: paidGroup
p5168
tp5169
I1
s(Vinsert
p5170
I42
VSimpleName: testInterpret
p5171
tp5172
I1
s(Vinsert
p5173
I66
VTextElement:  All the items of the inventory, as an unmodifiable list
p5174
tp5175
I1
s(Vinsert
p5176
I43
VSimpleType: OldTobyTobacco
p5177
tp5178
I4
s(Vinsert
p5179
I42
VSimpleName: enumIvoryTower1
p5180
tp5181
I1
s(Vinsert
p5182
I42
VSimpleName: getUser
p5183
tp5184
I2
s(Vinsert
p5185
I43
VSimpleType: Injector
p5186
tp5187
I1
s(Vinsert
p5188
I42
VSimpleName: longValue
p5189
tp5190
I1
s(Vinsert
p5191
I42
VSimpleName: ability
p5192
tp5193
I1
s(Vinsert
p5194
I42
VSimpleName: HomePageViewModel
p5195
tp5196
I2
s(Vinsert
p5197
I66
VTextElement: . The captain needs a battleship
p5198
tp5199
I1
s(Vinsert
p5200
I66
VTextElement: Created by Alexis on 29-Apr-17.
p5201
tp5202
I1
s(Vinsert
p5203
I42
VSimpleName: NUM_WIZARDS_ALLOWED
p5204
tp5205
I1
s(Vinsert
p5206
I42
VSimpleName: clone
p5207
tp5208
I3
s(Vinsert
p5209
I42
VSimpleName: getHealth
p5210
tp5211
I2
s(Vinsert
p5212
I43
VSimpleType: Callback
p5213
tp5214
I3
s(Vinsert
p5215
I43
VSimpleType: DateFormatCallable
p5216
tp5217
I2
s(Vinsert
p5218
I66
VTextElement: Tests if we receive a confirmation when we attempt to open a file
p5219
tp5220
I1
s(Vinsert
p5221
I42
VSimpleName: getAuthorBooks
p5222
tp5223
I1
s(Vinsert
p5224
I34
VNumberLiteral: 100
p5225
tp5226
I3
s(Vinsert
p5227
I42
VSimpleName: HalflingThief
p5228
tp5229
I4
s(Vinsert
p5230
I66
VTextElement: Drop the current connection, resulting in a create-drop clean database next time. This is
p5231
tp5232
I1
s(Vinsert
p5233
I45
VStringLiteral: "SpaceStationIss at [1,2,3,4] damaged=false onFire=false"
p5234
tp5235
I1
s(Vinsert
p5236
I42
VSimpleName: deserializedFishV1
p5237
tp5238
I4
s(Vinsert
p5239
I43
VSimpleType: Criteria
p5240
tp5241
I3
s(Vinsert
p5242
I66
VTextElement: that it's name is null or an empty string.
p5243
tp5244
I1
s(Vinsert
p5245
I45
VStringLiteral: "shop keeper"
p5246
tp5247
I1
s(Vinsert
p5248
I42
VSimpleName: nonExistingFile
p5249
tp5250
I2
s(Vinsert
p5251
I42
VSimpleName: strategy
p5252
tp5253
I3
s(Vinsert
p5254
I42
VSimpleName: allocate
p5255
tp5256
I3
s(Vinsert
p5257
I43
VSimpleType: ContentAction
p5258
tp5259
I2
s(Vinsert
p5260
I42
VSimpleName: book
p5261
tp5262
I1
s(Vinsert
p5263
I42
VSimpleName: newTransientInstance
p5264
tp5265
I1
s(Vinsert
p5266
I42
VSimpleName: CakeView
p5267
tp5268
I2
s(Vinsert
p5269
I66
VTextElement:  if any I/O error occurs
p5270
tp5271
I1
s(Vinsert
p5272
I45
VStringLiteral: "100000"
p5273
tp5274
I1
s(Vinsert
p5275
I42
VSimpleName: testEquals
p5276
tp5277
I1
s(Vinsert
p5278
I42
VSimpleName: State
p5279
tp5280
I1
s(Vinsert
p5281
I66
VTextElement: Adapter pattern to reuse 
p5282
tp5283
I2
s(Vinsert
p5284
I29
VJavadoc
p5285
tp5286
I17
s(Vinsert
p5287
I42
VSimpleName: getCastle
p5288
tp5289
I1
s(Vinsert
p5290
I45
VStringLiteral: "Java Concurrency in Practice"
p5291
tp5292
I1
s(Vinsert
p5293
I42
VSimpleName: right
p5294
tp5295
I3
s(Vinsert
p5296
I42
VSimpleName: msg
p5297
tp5298
I3
s(Vinsert
p5299
I42
VSimpleName: addLayer
p5300
tp5301
I1
s(Vinsert
p5302
I42
VSimpleName: cause
p5303
tp5304
I3
s(Vinsert
p5305
I42
VSimpleName: RuntimeException
p5306
tp5307
I2
s(Vinsert
p5308
I42
VSimpleName: install
p5309
tp5310
I1
s(Vinsert
p5311
I45
VStringLiteral: "deserializedFishV1 name=%s age=%d length=%d weight=%d"
p5312
tp5313
I1
s(Vinsert
p5314
I40
VQualifiedName: java.lang.Runnable
p5315
tp5316
I2
s(Vinsert
p5317
I42
VSimpleName: GOBLIN
p5318
tp5319
I1
s(Vinsert
p5320
I42
VSimpleName: manufactureWeapon
p5321
tp5322
I1
s(Vinsert
p5323
I42
VSimpleName: setPresenter
p5324
tp5325
I1
s(Vinsert
p5326
I42
VSimpleName: getCause
p5327
tp5328
I2
s(Vinsert
p5329
I42
VSimpleName: receiveCompliments
p5330
tp5331
I1
s(Vinsert
p5332
I66
VTextElement: Created by Alexis on 02-May-17.
p5333
tp5334
I1
s(Vinsert
p5335
I42
VSimpleName: CakeBakingException
p5336
tp5337
I1
s(Vinsert
p5338
I42
VSimpleName: Client
p5339
tp5340
I2
s(Vinsert
p5341
I43
VSimpleType: UserDAO
p5342
tp5343
I3
s(Vinsert
p5344
I42
VSimpleName: newFirstname
p5345
tp5346
I2
s(Vinsert
p5347
I42
VSimpleName: health
p5348
tp5349
I2
s(Vinsert
p5350
I90
VExpressionMethodReference
p5351
tp5352
I2
s(Vinsert
p5353
I42
VSimpleName: printThisBefore
p5354
tp5355
I1
s(Vinsert
p5356
I45
VStringLiteral: "20"
p5357
tp5358
I1
s(Vinsert
p5359
I42
VSimpleName: sergeantReady
p5360
tp5361
I2
s(Vinsert
p5362
I42
VSimpleName: numWizards
p5363
tp5364
I2
s(Vinsert
p5365
I43
VSimpleType: Goblin
p5366
tp5367
I2
s(Vinsert
p5368
I42
VSimpleName: AccountAggregate
p5369
tp5370
I3
s(Vinsert
p5371
I74
VParameterizedType: List<Wizard>
p5372
tp5373
I2
s(Vinsert
p5374
I42
VSimpleName: john
p5375
tp5376
I1
s(Vinsert
p5377
I43
VSimpleType: Wizard
p5378
tp5379
I15
s(Vinsert
p5380
I42
VSimpleName: Queue
p5381
tp5382
I2
s(Vinsert
p5383
I42
VSimpleName: setLastname
p5384
tp5385
I1
s(Vinsert
p5386
I23
VFieldDeclaration
p5387
tp5388
I4
s(Vinsert
p5389
I42
VSimpleName: accountFrom
p5390
tp5391
I1
s(Vinsert
p5392
I42
VSimpleName: HeavyFactory
p5393
tp5394
I1
s(Vinsert
p5395
I42
VSimpleName: WeaponType
p5396
tp5397
I1
s(Vinsert
p5398
I43
VSimpleType: HalflingThief
p5399
tp5400
I4
s(Vinsert
p5401
I42
VSimpleName: smartTroll
p5402
tp5403
I2
s(Vinsert
p5404
I66
VTextElement:         The type of request
p5405
tp5406
I1
s(Vinsert
p5407
I42
VSimpleName: WeatherObserver
p5408
tp5409
I1
s(Vinsert
p5410
I42
VSimpleName: notifyObservers
p5411
tp5412
I1
s(Vinsert
p5413
I45
VStringLiteral: "testfile.txt"
p5414
tp5415
I1
s(Vinsert
p5416
I42
VSimpleName: Spell
p5417
tp5418
I4
s(Vinsert
p5419
I42
VSimpleName: persons
p5420
tp5421
I2
s(Vinsert
p5422
I42
VSimpleName: fieldJsonMapper
p5423
tp5424
I4
s(Vinsert
p5425
I42
VSimpleName: child
p5426
tp5427
I2
s(Vinsert
p5428
I43
VSimpleType: IvoryTower
p5429
tp5430
I1
s(Vinsert
p5431
I42
VSimpleName: fieldsLength
p5432
tp5433
I1
s(Vinsert
p5434
I42
VSimpleName: events
p5435
tp5436
I2
s(Vinsert
p5437
I42
VSimpleName: COLD
p5438
tp5439
I5
s(Vinsert
p5440
I45
VStringLiteral: "Canon Printer : Test Message Printed\u005cn"
p5441
tp5442
I1
s(Vinsert
p5443
I42
VSimpleName: forClass
p5444
tp5445
I2
s(Vinsert
p5446
I62
VInstanceofExpression
p5447
tp5448
I1
s(Vinsert
p5449
I43
VSimpleType: LotteryNumbers
p5450
tp5451
I2
s(Vinsert
p5452
I42
VSimpleName: POISON_PILL
p5453
tp5454
I1
s(Vinsert
p5455
I42
VSimpleName: Meteoroid
p5456
tp5457
I3
s(Vinsert
p5458
I42
VSimpleName: keys
p5459
tp5460
I2
s(Vinsert
p5461
I45
VStringLiteral: "UTF-8"
p5462
tp5463
I1
s(Vinsert
p5464
I34
VNumberLiteral: 2
p5465
tp5466
I15
s(Vinsert
p5467
I42
VSimpleName: getRight
p5468
tp5469
I1
s(Vinsert
p5470
I42
VSimpleName: assertThat
p5471
tp5472
I2
s(Vinsert
p5473
I42
VSimpleName: TYPE
p5474
tp5475
I2
s(Vinsert
p5476
I42
VSimpleName: IsisConfiguration
p5477
tp5478
I1
s(Vinsert
p5479
I45
VStringLiteral: "Student already ["
p5480
tp5481
I2
s(Vinsert
p5482
I42
VSimpleName: persistentClass
p5483
tp5484
I1
s(Vinsert
p5485
I42
VSimpleName: goblin
p5486
tp5487
I5
s(Vinsert
p5488
I42
VSimpleName: heavy
p5489
tp5490
I2
s(Vinsert
p5491
I45
VStringLiteral: "Initial calling count of 0"
p5492
tp5493
I2
s(Vinsert
p5494
I43
VSimpleType: Author
p5495
tp5496
I3
s(Vinsert
p5497
I65
VTagElement: @return
p5498
tp5499
I5
s(Vinsert
p5500
I42
VSimpleName: DateFormatCallable
p5501
tp5502
I4
s(Vinsert
p5503
I42
VSimpleName: SimpleAppIntegTest
p5504
tp5505
I1
s(Vinsert
p5506
I42
VSimpleName: tobaccos
p5507
tp5508
I2
s(Vinsert
p5509
I42
VSimpleName: blindingMagicWeapon
p5510
tp5511
I3
s(Vinsert
p5512
I42
VSimpleName: ThreadSafeLazyLoadedIvoryTower
p5513
tp5514
I4
s(Vinsert
p5515
I42
VSimpleName: OutputStreamWriter
p5516
tp5517
I1
s(Vinsert
p5518
I45
VStringLiteral: "The sun hurts the orcs' eyes."
p5519
tp5520
I2
s(Vinsert
p5521
I42
VSimpleName: FlyingMagicWeapon
p5522
tp5523
I4
s(Vinsert
p5524
I42
VSimpleName: Fatigue
p5525
tp5526
I1
s(Vinsert
p5527
I42
VSimpleName: data
p5528
tp5529
I2
s(Vinsert
p5530
I42
VSimpleName: HeroStat
p5531
tp5532
I7
s(Vinsert
p5533
I31
VMethodDeclaration
p5534
tp5535
I205
s(Vinsert
p5536
I42
VSimpleName: NazgulName
p5537
tp5538
I2
s(Vinsert
p5539
I27
VInfixExpression: *
p5540
tp5541
I5
s(Vinsert
p5542
I42
VSimpleName: isEqual
p5543
tp5544
I2
s(Vinsert
p5545
I39
VPrimitiveType: void
p5546
tp5547
I337
s(Vinsert
p5548
I42
VSimpleName: input
p5549
tp5550
I1
s(Vinsert
p5551
I43
VSimpleType: WizardTowerProxy
p5552
tp5553
I2
s(Vinsert
p5554
I42
VSimpleName: Video
p5555
tp5556
I3
s(Vinsert
p5557
I42
VSimpleName: prepareStatement
p5558
tp5559
I2
s(Vinsert
p5560
I42
VSimpleName: outputBody
p5561
tp5562
I1
s(Vinsert
p5563
I42
VSimpleName: CoffeeMakingTask
p5564
tp5565
I1
s(Vinsert
p5566
I42
VSimpleName: fileLoader
p5567
tp5568
I2
s(Vinsert
p5569
I42
VSimpleName: isPresent
p5570
tp5571
I1
s(Vinsert
p5572
I43
VSimpleType: I
p5573
tp5574
I1
s(Vinsert
p5575
I42
VSimpleName: getTestedObject
p5576
tp5577
I2
s(Vinsert
p5578
I43
VSimpleType: HeroBuilder
p5579
tp5580
I1
s(Vinsert
p5581
I40
VQualifiedName: Visibility.INVISIBLE
p5582
tp5583
I1
s(Vinsert
p5584
I43
VSimpleType: SoulEatingMagicWeapon
p5585
tp5586
I1
s(Vinsert
p5587
I27
VInfixExpression: !=
p5588
tp5589
I14
s(Vinsert
p5590
I42
VSimpleName: fs
p5591
tp5592
I1
s(Vinsert
p5593
I45
VStringLiteral: "name"
p5594
tp5595
I5
s(Vinsert
p5596
I42
VSimpleName: connection
p5597
tp5598
I2
s(Vinsert
p5599
I43
VSimpleType: DatagramPacket
p5600
tp5601
I7
s(Vinsert
p5602
I39
VPrimitiveType: boolean
p5603
tp5604
I10
s(Vinsert
p5605
I42
VSimpleName: hashCode
p5606
tp5607
I5
s(Vinsert
p5608
I43
VSimpleType: GoblinGlider
p5609
tp5610
I2
s(Vinsert
p5611
I40
VQualifiedName: Message.Headers.SENDER
p5612
tp5613
I1
s(Vinsert
p5614
I45
VStringLiteral: "wielding Mjollnir"
p5615
tp5616
I1
s(Vinsert
p5617
I42
VSimpleName: requestType
p5618
tp5619
I1
s(Vinsert
p5620
I42
VSimpleName: actionCaptor
p5621
tp5622
I1
s(Vinsert
p5623
I43
VSimpleType: Servant
p5624
tp5625
I2
s(Vinsert
p5626
I43
VSimpleType: CommanderUnit
p5627
tp5628
I2
s(Vinsert
p5629
I42
VSimpleName: wrap
p5630
tp5631
I3
s(Vinsert
p5632
I42
VSimpleName: lock
p5633
tp5634
I15
s(Vinsert
p5635
I42
VSimpleName: read
p5636
tp5637
I1
s(Vinsert
p5638
I42
VSimpleName: initialMethod
p5639
tp5640
I1
s(Vinsert
p5641
I40
VQualifiedName: PotionType.INVISIBILITY
p5642
tp5643
I2
s(Vinsert
p5644
I42
VSimpleName: stack
p5645
tp5646
I1
s(Vinsert
p5647
I42
VSimpleName: cleanup
p5648
tp5649
I2
s(Vinsert
p5650
I66
VTextElement: we need to reuse this 
p5651
tp5652
I2
s(Vinsert
p5653
I40
VQualifiedName: Sex.MALE
p5654
tp5655
I1
s(Vinsert
p5656
I42
VSimpleName: AccountCreateEvent
p5657
tp5658
I2
s(Vinsert
p5659
I45
VStringLiteral: "Producer_"
p5660
tp5661
I1
s(Vinsert
p5662
I42
VSimpleName: systemOutRule
p5663
tp5664
I1
s(Vinsert
p5665
I42
VSimpleName: addHeader
p5666
tp5667
I1
s(Vinsert
p5668
I43
VSimpleType: Hero
p5669
tp5670
I2
s(Vinsert
p5671
I42
VSimpleName: getAccount
p5672
tp5673
I3
s(Vinsert
p5674
I42
VSimpleName: setup
p5675
tp5676
I2
s(Vinsert
p5677
I42
VSimpleName: getDepositNumber
p5678
tp5679
I1
s(Vinsert
p5680
I43
VSimpleType: UnsupportedOperationException
p5681
tp5682
I1
s(Vinsert
p5683
I42
VSimpleName: p
p5684
tp5685
I1
s(Vinsert
p5686
I42
VSimpleName: getProductDesktop
p5687
tp5688
I3
s(Vinsert
p5689
I42
VSimpleName: SessionFactory
p5690
tp5691
I2
s(Vinsert
p5692
I43
VSimpleType: CloseableHttpClient
p5693
tp5694
I2
s(Vinsert
p5695
I45
VStringLiteral: "localhost"
p5696
tp5697
I2
s(Vinsert
p5698
I42
VSimpleName: price
p5699
tp5700
I1
s(Vinsert
p5701
I42
VSimpleName: CustomerResource
p5702
tp5703
I2
s(Vinsert
p5704
I42
VSimpleName: getPath
p5705
tp5706
I2
s(Vinsert
p5707
I42
VSimpleName: update
p5708
tp5709
I2
s(Vinsert
p5710
I42
VSimpleName: FAILED
p5711
tp5712
I1
s(Vinsert
p5713
I42
VSimpleName: addObserver
p5714
tp5715
I4
s(Vinsert
p5716
I42
VSimpleName: assertNotEquals
p5717
tp5718
I1
s(Vinsert
p5719
I45
VStringLiteral: "SergeantUnitName"
p5720
tp5721
I1
s(Vinsert
p5722
I43
VSimpleType: ArcherView
p5723
tp5724
I1
s(Vinsert
p5725
I42
VSimpleName: socketChannel
p5726
tp5727
I1
s(Vinsert
p5728
I42
VSimpleName: star
p5729
tp5730
I5
s(Vinsert
p5731
I42
VSimpleName: giant
p5732
tp5733
I6
s(Vinsert
p5734
I42
VSimpleName: node
p5735
tp5736
I1
s(Vinsert
p5737
I42
VSimpleName: work
p5738
tp5739
I6
s(Vinsert
p5740
I45
VStringLiteral: "Book of Kritior"
p5741
tp5742
I1
s(Vinsert
p5743
I43
VSimpleType: Weather
p5744
tp5745
I2
s(Vinsert
p5746
I42
VSimpleName: FixtureResult
p5747
tp5748
I1
s(Vinsert
p5749
I42
VSimpleName: Runnable
p5750
tp5751
I2
s(Vinsert
p5752
I42
VSimpleName: fileIn
p5753
tp5754
I1
s(Vinsert
p5755
I42
VSimpleName: setImagePath
p5756
tp5757
I1
s(Vinsert
p5758
I42
VSimpleName: userUpdatedEvent
p5759
tp5760
I3
s(Vinsert
p5761
I51
VSynchronizedStatement
p5762
tp5763
I3
s(Vinsert
p5764
I42
VSimpleName: Rectangle
p5765
tp5766
I2
s(Vinsert
p5767
I42
VSimpleName: Printer
p5768
tp5769
I3
s(Vinsert
p5770
I42
VSimpleName: chain
p5771
tp5772
I1
s(Vinsert
p5773
I42
VSimpleName: i
p5774
tp5775
I22
s(Vinsert
p5776
I42
VSimpleName: stdOutMock
p5777
tp5778
I2
s(Vinsert
p5779
I42
VSimpleName: PriceController
p5780
tp5781
I2
s(Vinsert
p5782
I42
VSimpleName: soulEatingMagicWeapon
p5783
tp5784
I3
s(Vinsert
p5785
I42
VSimpleName: feed
p5786
tp5787
I1
s(Vinsert
p5788
I42
VSimpleName: persist
p5789
tp5790
I3
s(Vinsert
p5791
I43
VSimpleType: RuntimeException
p5792
tp5793
I2
s(Vinsert
p5794
I42
VSimpleName: futureResult1
p5795
tp5796
I3
s(Vinsert
p5797
I43
VSimpleType: FixtureScript
p5798
tp5799
I1
s(Vinsert
p5800
I42
VSimpleName: event
p5801
tp5802
I2
s(Vinsert
p5803
I42
VSimpleName: AsyncTask
p5804
tp5805
I1
s(Vinsert
p5806
I42
VSimpleName: getTopShelf
p5807
tp5808
I1
s(Vinsert
p5809
I42
VSimpleName: json
p5810
tp5811
I3
s(Vinsert
p5812
I42
VSimpleName: getNext
p5813
tp5814
I1
s(Vinsert
p5815
I43
VSimpleType: FileLoggerModule
p5816
tp5817
I1
s(Vinsert
p5818
I45
VStringLiteral: "Patton"
p5819
tp5820
I1
s(Vinsert
p5821
I42
VSimpleName: setSpellbook
p5822
tp5823
I1
s(Vinsert
p5824
I42
VSimpleName: isEnhanced
p5825
tp5826
I2
s(Vinsert
p5827
I42
VSimpleName: receive
p5828
tp5829
I1
s(Vinsert
p5830
I45
VStringLiteral: "CommanderUnitName"
p5831
tp5832
I1
s(Vinsert
p5833
I42
VSimpleName: stop
p5834
tp5835
I5
s(Vinsert
p5836
I45
VStringLiteral: "Hello"
p5837
tp5838
I1
s(Vinsert
p5839
I42
VSimpleName: RouteBuilder
p5840
tp5841
I1
s(Vinsert
p5842
I42
VSimpleName: toList
p5843
tp5844
I1
s(Vinsert
p5845
I45
VStringLiteral: "Pool available=0 inUse=0"
p5846
tp5847
I1
s(Vinsert
p5848
I42
VSimpleName: EventObserver
p5849
tp5850
I3
s(Vinsert
p5851
I42
VSimpleName: executeQuery
p5852
tp5853
I1
s(Vinsert
p5854
I42
VSimpleName: sail
p5855
tp5856
I1
s(Vinsert
p5857
I42
VSimpleName: holderThreadSafe
p5858
tp5859
I2
s(Vinsert
p5860
I45
VStringLiteral: "1"
p5861
tp5862
I2
s(Vinsert
p5863
I42
VSimpleName: area
p5864
tp5865
I1
s(Vinsert
p5866
I42
VSimpleName: verifyVisit
p5867
tp5868
I3
s(Vinsert
p5869
I42
VSimpleName: spell
p5870
tp5871
I3
s(Vinsert
p5872
I42
VSimpleName: findByName
p5873
tp5874
I6
s(Vinsert
p5875
I42
VSimpleName: normalCreature
p5876
tp5877
I2
s(Vinsert
p5878
I42
VSimpleName: expectedDetails
p5879
tp5880
I1
s(Vinsert
p5881
I77
VNormalAnnotation
p5882
tp5883
I2
s(Vinsert
p5884
I42
VSimpleName: NAMES
p5885
tp5886
I1
s(Vinsert
p5887
I42
VSimpleName: left
p5888
tp5889
I1
s(Vinsert
p5890
I42
VSimpleName: AlchemistShop
p5891
tp5892
I2
s(Vinsert
p5893
I42
VSimpleName: writer
p5894
tp5895
I3
s(Vinsert
p5896
I66
VTextElement:  The bottom shelf potions
p5897
tp5898
I1
s(Vinsert
p5899
I42
VSimpleName: Queen
p5900
tp5901
I2
s(Vinsert
p5902
I43
VSimpleType: AdvancedWizard
p5903
tp5904
I2
s(Vinsert
p5905
I42
VSimpleName: surname
p5906
tp5907
I2
s(Vinsert
p5908
I42
VSimpleName: details1
p5909
tp5910
I1
s(Vinsert
p5911
I42
VSimpleName: jFrame
p5912
tp5913
I1
s(Vinsert
p5914
I42
VSimpleName: getUsername
p5915
tp5916
I1
s(Vinsert
p5917
I42
VSimpleName: Guard
p5918
tp5919
I3
s(Vinsert
p5920
I42
VSimpleName: getSize
p5921
tp5922
I3
s(Vinsert
p5923
I42
VSimpleName: defaultParam
p5924
tp5925
I1
s(Vinsert
p5926
I42
VSimpleName: makeRequest
p5927
tp5928
I3
s(Vinsert
p5929
I42
VSimpleName: onPreCall
p5930
tp5931
I1
s(Vinsert
p5932
I33
VNullLiteral
p5933
tp5934
I32
s(Vinsert
p5935
I42
VSimpleName: render
p5936
tp5937
I3
s(Vinsert
p5938
I45
VStringLiteral: "wielding Excalibur"
p5939
tp5940
I1
s(Vinsert
p5941
I43
VSimpleType: AppConfig
p5942
tp5943
I1
s(Vinsert
p5944
I45
VStringLiteral: "User all ready member of paid group."
p5945
tp5946
I1
s(Vinsert
p5947
I42
VSimpleName: HealingPotion
p5948
tp5949
I2
s(Vinsert
p5950
I42
VSimpleName: add
p5951
tp5952
I52
s(Vinsert
p5953
I42
VSimpleName: assertEquals
p5954
tp5955
I37
s(Vinsert
p5956
I43
VSimpleType: Meteoroid
p5957
tp5958
I2
s(Vinsert
p5959
I42
VSimpleName: addServer
p5960
tp5961
I2
s(Vinsert
p5962
I42
VSimpleName: TIME_PER_POTATO
p5963
tp5964
I1
s(Vinsert
p5965
I42
VSimpleName: heavyInstance
p5966
tp5967
I1
s(Vinsert
p5968
I66
VTextElement: Tests that Mute idiom example runs without errors.
p5969
tp5970
I1
s(Vinsert
p5971
I42
VSimpleName: bean
p5972
tp5973
I3
s(Vinsert
p5974
I42
VSimpleName: firstMemento
p5975
tp5976
I1
s(Vinsert
p5977
I42
VSimpleName: projection
p5978
tp5979
I1
s(Vinsert
p5980
I42
VSimpleName: inputObject
p5981
tp5982
I1
s(Vinsert
p5983
I40
VQualifiedName: Content.PRODUCTS
p5984
tp5985
I1
s(Vinsert
p5986
I42
VSimpleName: statB
p5987
tp5988
I1
s(Vinsert
p5989
I42
VSimpleName: assertFalse
p5990
tp5991
I6
s(Vinsert
p5992
I42
VSimpleName: firstSameStudent
p5993
tp5994
I1
s(Vinsert
p5995
I42
VSimpleName: getBytes
p5996
tp5997
I1
s(Vinsert
p5998
I42
VSimpleName: getFirst
p5999
tp6000
I1
s(Vinsert
p6001
I42
VSimpleName: filePrinterModule
p6002
tp6003
I3
s(Vinsert
p6004
I42
VSimpleName: aFile
p6005
tp6006
I1
s(Vinsert
p6007
I42
VSimpleName: getAttackPower
p6008
tp6009
I2
s(Vinsert
p6010
I43
VSimpleType: FishingBoat
p6011
tp6012
I1
s(Vinsert
p6013
I42
VSimpleName: shutdown
p6014
tp6015
I2
s(Vinsert
p6016
I42
VSimpleName: getSelected
p6017
tp6018
I1
s(Vinsert
p6019
I42
VSimpleName: simpleWizard
p6020
tp6021
I2
s(Vinsert
p6022
I42
VSimpleName: Order
p6023
tp6024
I5
s(Vinsert
p6025
I42
VSimpleName: weather
p6026
tp6027
I7
s(Vinsert
p6028
I42
VSimpleName: singletonList
p6029
tp6030
I1
s(Vinsert
p6031
I27
VInfixExpression: &&
p6032
tp6033
I4
s(Vinsert
p6034
I43
VSimpleType: RainbowFishV2
p6035
tp6036
I1
s(Vinsert
p6037
I42
VSimpleName: HolderThreadSafe
p6038
tp6039
I5
s(Vinsert
p6040
I42
VSimpleName: customers
p6041
tp6042
I3
s(Vinsert
p6043
I43
VSimpleType: Health
p6044
tp6045
I2
s(Vinsert
p6046
I42
VSimpleName: serverequest
p6047
tp6048
I1
s(Vinsert
p6049
I42
VSimpleName: Soldier
p6050
tp6051
I6
s(Vinsert
p6052
I42
VSimpleName: forEach
p6053
tp6054
I6
s(Vinsert
p6055
I43
VSimpleType: Writer
p6056
tp6057
I3
s(Vinsert
p6058
I42
VSimpleName: addMember
p6059
tp6060
I2
s(Vinsert
p6061
I42
VSimpleName: dispatchEvent
p6062
tp6063
I1
s(Vinsert
p6064
I59
VVariableDeclarationFragment
p6065
tp6066
I456
s(Vinsert
p6067
I43
VSimpleType: ThreadSafeLazyLoadedIvoryTower
p6068
tp6069
I2
s(Vinsert
p6070
I34
VNumberLiteral: 9
p6071
tp6072
I2
s(Vinsert
p6073
I42
VSimpleName: result3
p6074
tp6075
I2
s(Vinsert
p6076
I45
VStringLiteral: "name1"
p6077
tp6078
I1
s(Vinsert
p6079
I42
VSimpleName: TieredFeatureToggleVersion
p6080
tp6081
I1
s(Vinsert
p6082
I42
VSimpleName: getAllCakes
p6083
tp6084
I1
s(Vinsert
p6085
I42
VSimpleName: Producer
p6086
tp6087
I4
s(Vinsert
p6088
I42
VSimpleName: Mjollnir
p6089
tp6090
I1
s(Vinsert
p6091
I42
VSimpleName: app
p6092
tp6093
I6
s(Vinsert
p6094
I42
VSimpleName: ContentAction
p6095
tp6096
I2
s(Vinsert
p6097
I42
VSimpleName: UnknownCommand
p6098
tp6099
I1
s(Vinsert
p6100
I43
VSimpleType: Word
p6101
tp6102
I3
s(Vinsert
p6103
I42
VSimpleName: meteoroid
p6104
tp6105
I7
s(Vinsert
p6106
I43
VSimpleType: CriteriaQuery
p6107
tp6108
I1
s(Vinsert
p6109
I42
VSimpleName: shutdownNow
p6110
tp6111
I2
s(Vinsert
p6112
I42
VSimpleName: GiantView
p6113
tp6114
I4
s(Vinsert
p6115
I42
VSimpleName: listAll
p6116
tp6117
I1
s(Vinsert
p6118
I45
VStringLiteral: "{{endpoint}}"
p6119
tp6120
I1
s(Vinsert
p6121
I42
VSimpleName: InterruptedException
p6122
tp6123
I11
s(Vinsert
p6124
I42
VSimpleName: soldierReady
p6125
tp6126
I2
s(Vinsert
p6127
I42
VSimpleName: log
p6128
tp6129
I1
s(Vinsert
p6130
I42
VSimpleName: setText
p6131
tp6132
I1
s(Vinsert
p6133
I42
VSimpleName: immutableStew
p6134
tp6135
I2
s(Vinsert
p6136
I42
VSimpleName: StarMementoInternal
p6137
tp6138
I2
s(Vinsert
p6139
I42
VSimpleName: emitters
p6140
tp6141
I2
s(Vinsert
p6142
I45
VStringLiteral: "Hideaki Anno"
p6143
tp6144
I2
s(Vinsert
p6145
I42
VSimpleName: PotatoPeelingTask
p6146
tp6147
I1
s(Vinsert
p6148
I42
VSimpleName: debug
p6149
tp6150
I2
s(Vinsert
p6151
I42
VSimpleName: wizardNames
p6152
tp6153
I1
s(Vinsert
p6154
I40
VQualifiedName: Visibility.VISIBLE
p6155
tp6156
I1
s(Vinsert
p6157
I42
VSimpleName: tx
p6158
tp6159
I4
s(Vinsert
p6160
I42
VSimpleName: content
p6161
tp6162
I3
s(Vinsert
p6163
I43
VSimpleType: Queen
p6164
tp6165
I2
s(Vinsert
p6166
I42
VSimpleName: getId
p6167
tp6168
I3
s(Vinsert
p6169
I42
VSimpleName: numPeppers
p6170
tp6171
I3
s(Vinsert
p6172
I42
VSimpleName: jsp
p6173
tp6174
I2
s(Vinsert
p6175
I43
VSimpleType: HomePageViewModel
p6176
tp6177
I1
s(Vinsert
p6178
I42
VSimpleName: weekday
p6179
tp6180
I1
s(Vinsert
p6181
I42
VSimpleName: Request
p6182
tp6183
I8
s(Vinsert
p6184
I42
VSimpleName: getSimpleName
p6185
tp6186
I1
s(Vinsert
p6187
I42
VSimpleName: Action
p6188
tp6189
I3
s(Vinsert
p6190
I42
VSimpleName: currentWeather
p6191
tp6192
I3
s(Vinsert
p6193
I42
VSimpleName: mammoth
p6194
tp6195
I8
s(Vinsert
p6196
I43
VSimpleType: MenuAction
p6197
tp6198
I2
s(Vinsert
p6199
I42
VSimpleName: buffer
p6200
tp6201
I3
s(Vinsert
p6202
I34
VNumberLiteral: 29.40
p6203
tp6204
I1
s(Vinsert
p6205
I42
VSimpleName: tobacco
p6206
tp6207
I11
s(Vinsert
p6208
I65
VTagElement: @throws
p6209
tp6210
I2
s(Vinsert
p6211
I42
VSimpleName: collisionResolve
p6212
tp6213
I2
s(Vinsert
p6214
I42
VSimpleName: loadBalancer
p6215
tp6216
I2
s(Vinsert
p6217
I42
VSimpleName: cust
p6218
tp6219
I1
s(Vinsert
p6220
I42
VSimpleName: PriceClient
p6221
tp6222
I1
s(Vinsert
p6223
I72
VEnumConstantDeclaration
p6224
tp6225
I2
s(Vinsert
p6226
I42
VSimpleName: author
p6227
tp6228
I5
s(Vinsert
p6229
I45
VStringLiteral: "%d"
p6230
tp6231
I2
s(Vinsert
p6232
I42
VSimpleName: WORK
p6233
tp6234
I1
s(Vinsert
p6235
I42
VSimpleName: GHobbits
p6236
tp6237
I1
s(Vinsert
p6238
I43
VSimpleType: IntegrationTestAbstract
p6239
tp6240
I1
s(Vinsert
p6241
I42
VSimpleName: CakeToppingDao
p6242
tp6243
I1
s(Vinsert
p6244
I42
VSimpleName: incrementAndGet
p6245
tp6246
I1
s(Vinsert
p6247
I45
VStringLiteral: "John"
p6248
tp6249
I1
s(Vinsert
p6250
I42
VSimpleName: wait
p6251
tp6252
I1
s(Vinsert
p6253
I42
VSimpleName: ExecutionException
p6254
tp6255
I5
s(Vinsert
p6256
I42
VSimpleName: WeatherType
p6257
tp6258
I5
s(Vinsert
p6259
I42
VSimpleName: parseInt
p6260
tp6261
I1
s(Vinsert
p6262
I42
VSimpleName: ordinal
p6263
tp6264
I1
s(Vinsert
p6265
I66
VTextElement:  class
p6266
tp6267
I3
s(Vinsert
p6268
I42
VSimpleName: w
p6269
tp6270
I5
s(Vinsert
p6271
I42
VSimpleName: LoggingClient
p6272
tp6273
I2
s(Vinsert
p6274
I45
VStringLiteral: "+99324554"
p6275
tp6276
I1
s(Vinsert
p6277
I43
VSimpleType: Book
p6278
tp6279
I2
s(Vinsert
p6280
I42
VSimpleName: logger
p6281
tp6282
I1
s(Vinsert
p6283
I45
VStringLiteral: "Client 1"
p6284
tp6285
I1
s(Vinsert
p6286
I42
VSimpleName: asList
p6287
tp6288
I6
s(Vinsert
p6289
I45
VStringLiteral: "Sword of silver +1"
p6290
tp6291
I1
s(Vinsert
p6292
I42
VSimpleName: StandardServiceRegistryBuilder
p6293
tp6294
I1
s(Vinsert
p6295
I74
VParameterizedType: ArgumentCaptor<Optional<Exception>>
p6296
tp6297
I1
s(Vinsert
p6298
I42
VSimpleName: createWarlord
p6299
tp6300
I1
s(Vinsert
p6301
I34
VNumberLiteral: 6
p6302
tp6303
I2
s(Vinsert
p6304
I66
VTextElement: Template method, do some common logic before draw
p6305
tp6306
I1
s(Vinsert
p6307
I42
VSimpleName: expected
p6308
tp6309
I1
s(Vinsert
p6310
I43
VSimpleType: GiantView
p6311
tp6312
I2
s(Vinsert
p6313
I42
VSimpleName: list
p6314
tp6315
I1
s(Vinsert
p6316
I42
VSimpleName: TranslatableString
p6317
tp6318
I1
s(Vinsert
p6319
I43
VSimpleType: PlayerDetails
p6320
tp6321
I1
s(Vinsert
p6322
I42
VSimpleName: spy
p6323
tp6324
I8
s(Vinsert
p6325
I42
VSimpleName: statusRecordsTheStopTime
p6326
tp6327
I1
s(Vinsert
p6328
I42
VSimpleName: doThrow
p6329
tp6330
I1
s(Vinsert
p6331
I43
VSimpleType: CustomerDto
p6332
tp6333
I2
s(Vinsert
p6334
I42
VSimpleName: serviceNames
p6335
tp6336
I1
s(Vinsert
p6337
I42
VSimpleName: Session
p6338
tp6339
I1
s(Vinsert
p6340
I40
VQualifiedName: ElfArmy.DESCRIPTION
p6341
tp6342
I1
s(Vinsert
p6343
I42
VSimpleName: testLastCount
p6344
tp6345
I1
s(Vinsert
p6346
I42
VSimpleName: useMongoDB
p6347
tp6348
I4
s(Vinsert
p6349
I42
VSimpleName: newFixedThreadPool
p6350
tp6351
I3
s(Vinsert
p6352
I42
VSimpleName: setNext
p6353
tp6354
I1
s(Vinsert
p6355
I42
VSimpleName: write
p6356
tp6357
I4
s(Vinsert
p6358
I42
VSimpleName: service
p6359
tp6360
I18
s(Vinsert
p6361
I34
VNumberLiteral: 1024
p6362
tp6363
I2
s(Vinsert
p6364
I42
VSimpleName: Logger
p6365
tp6366
I3
s(Vinsert
p6367
I42
VSimpleName: GameItem
p6368
tp6369
I1
s(Vinsert
p6370
I42
VSimpleName: allSpells
p6371
tp6372
I1
s(Vinsert
p6373
I40
VQualifiedName: WeatherType.SUNNY
p6374
tp6375
I5
s(Vinsert
p6376
I42
VSimpleName: dependentPromise
p6377
tp6378
I1
s(Vinsert
p6379
I42
VSimpleName: getRoot
p6380
tp6381
I1
s(Vinsert
p6382
I43
VSimpleType: BookDTO
p6383
tp6384
I1
s(Vinsert
p6385
I42
VSimpleName: HeroBuilder
p6386
tp6387
I1
s(Vinsert
p6388
I42
VSimpleName: CatapultView
p6389
tp6390
I2
s(Vinsert
p6391
I45
VStringLiteral: "title 1"
p6392
tp6393
I1
s(Vinsert
p6394
I42
VSimpleName: IntegrationTestAbstract
p6395
tp6396
I1
s(Vinsert
p6397
I42
VSimpleName: testSplitter
p6398
tp6399
I2
s(Vinsert
p6400
I42
VSimpleName: demandHolderIdiom2
p6401
tp6402
I1
s(Vinsert
p6403
I40
VQualifiedName: Health.HEALTHY
p6404
tp6405
I1
s(Vinsert
p6406
I42
VSimpleName: Optional
p6407
tp6408
I22
s(Vinsert
p6409
I42
VSimpleName: OrcBlacksmith
p6410
tp6411
I1
s(Vinsert
p6412
I42
VSimpleName: testedCreature
p6413
tp6414
I1
s(Vinsert
p6415
I42
VSimpleName: items
p6416
tp6417
I3
s(Vinsert
p6418
I43
VSimpleType: DataBus
p6419
tp6420
I1
s(Vinsert
p6421
I42
VSimpleName: sendBody
p6422
tp6423
I3
s(Vinsert
p6424
I42
VSimpleName: layer1
p6425
tp6426
I1
s(Vinsert
p6427
I42
VSimpleName: mjollnir
p6428
tp6429
I2
s(Vinsert
p6430
I42
VSimpleName: Test
p6431
tp6432
I35
s(Vinsert
p6433
I42
VSimpleName: potions
p6434
tp6435
I3
s(Vinsert
p6436
I42
VSimpleName: userCreatedEventHandler
p6437
tp6438
I3
s(Vinsert
p6439
I42
VSimpleName: context
p6440
tp6441
I10
s(Vinsert
p6442
I42
VSimpleName: MenuView
p6443
tp6444
I4
s(Vinsert
p6445
I45
VStringLiteral: "Action & drama movie|"
p6446
tp6447
I2
s(Vinsert
p6448
I42
VSimpleName: EventHandler
p6449
tp6450
I1
s(Vinsert
p6451
I42
VSimpleName: SimpleWizard
p6452
tp6453
I2
s(Vinsert
p6454
I45
VStringLiteral: "# Cache Miss!"
p6455
tp6456
I1
s(Vinsert
p6457
I45
VStringLiteral: "Paladin"
p6458
tp6459
I1
s(Vinsert
p6460
I43
VSimpleType: UserCreatedEvent
p6461
tp6462
I13
s(Vinsert
p6463
I42
VSimpleName: integrationFixtures
p6464
tp6465
I1
s(Vinsert
p6466
I42
VSimpleName: rogue
p6467
tp6468
I1
s(Vinsert
p6469
I42
VSimpleName: DragonSlayingStrategy
p6470
tp6471
I4
s(Vinsert
p6472
I42
VSimpleName: AdvancedWizard
p6473
tp6474
I2
s(Vinsert
p6475
I42
VSimpleName: controller
p6476
tp6477
I4
s(Vinsert
p6478
I40
VQualifiedName: com.iluwatar.eda.event.UserCreatedEvent
p6479
tp6480
I1
s(Vinsert
p6481
I42
VSimpleName: port
p6482
tp6483
I2
s(Vinsert
p6484
I40
VQualifiedName: toppingInfo.name
p6485
tp6486
I1
s(Vinsert
p6487
I43
VSimpleType: SimpleObjectsTearDown
p6488
tp6489
I1
s(Vinsert
p6490
I42
VSimpleName: dispatchAction
p6491
tp6492
I1
s(Vinsert
p6493
I42
VSimpleName: namedParameterJDBCTemplate
p6494
tp6495
I1
s(Vinsert
p6496
I42
VSimpleName: newInstance
p6497
tp6498
I1
s(Vinsert
p6499
I45
VStringLiteral: "\u005cn"
p6500
tp6501
I1
s(Vinsert
p6502
I42
VSimpleName: Dispatcher
p6503
tp6504
I1
s(Vinsert
p6505
I43
VSimpleType: SoldierExtension
p6506
tp6507
I1
s(Vinsert
p6508
I42
VSimpleName: findFixtureScriptFor
p6509
tp6510
I1
s(Vinsert
p6511
I42
VSimpleName: InitializingOnDemandHolderIdiom
p6512
tp6513
I1
s(Vinsert
p6514
I42
VSimpleName: getSession
p6515
tp6516
I1
s(Vinsert
p6517
I45
VStringLiteral: "collector"
p6518
tp6519
I1
s(Vinsert
p6520
I42
VSimpleName: BallItem
p6521
tp6522
I4
s(Vinsert
p6523
I42
VSimpleName: PrintStream
p6524
tp6525
I19
s(Vinsert
p6526
I42
VSimpleName: HasModel
p6527
tp6528
I1
s(Vinsert
p6529
I42
VSimpleName: oldSize
p6530
tp6531
I1
s(Vinsert
p6532
I42
VSimpleName: testGetName
p6533
tp6534
I1
s(Vinsert
p6535
I42
VSimpleName: exception
p6536
tp6537
I7
s(Vinsert
p6538
I42
VSimpleName: Sword
p6539
tp6540
I1
s(Vinsert
p6541
I45
VStringLiteral: "Red wizard"
p6542
tp6543
I1
s(Vinsert
p6544
I42
VSimpleName: DwarvenGoldmineFacade
p6545
tp6546
I2
s(Vinsert
p6547
I42
VSimpleName: username
p6548
tp6549
I3
s(Vinsert
p6550
I45
VStringLiteral: "Danielson"
p6551
tp6552
I1
s(Vinsert
p6553
I42
VSimpleName: SimpleFluentIterable
p6554
tp6555
I1
s(Vinsert
p6556
I40
VQualifiedName: FetchType.EAGER
p6557
tp6558
I1
s(Vinsert
p6559
I43
VSimpleType: TobaccoModule
p6560
tp6561
I1
s(Vinsert
p6562
I40
VQualifiedName: Fatigue.ALERT
p6563
tp6564
I2
s(Vinsert
p6565
I43
VSimpleType: CakeToppingInfo
p6566
tp6567
I5
s(Vinsert
p6568
I42
VSimpleName: createLotteryTicket
p6569
tp6570
I2
s(Vinsert
p6571
I42
VSimpleName: ArcherCommand
p6572
tp6573
I1
s(Vinsert
p6574
I42
VSimpleName: setServiceType
p6575
tp6576
I1
s(Vinsert
p6577
I42
VSimpleName: MockitoAnnotations
p6578
tp6579
I1
s(Vinsert
p6580
I74
VParameterizedType: AsyncTask<T>
p6581
tp6582
I1
s(Vinsert
p6583
I42
VSimpleName: setFilter
p6584
tp6585
I1
s(Vinsert
p6586
I74
VParameterizedType: List<Spell>
p6587
tp6588
I1
s(Vinsert
p6589
I42
VSimpleName: SoldierExtension
p6590
tp6591
I1
s(Vinsert
p6592
I42
VSimpleName: getHost
p6593
tp6594
I1
s(Vinsert
p6595
I66
VTextElement: Get all the items in the inventory
p6596
tp6597
I1
s(Vinsert
p6598
I42
VSimpleName: packet
p6599
tp6600
I1
s(Vinsert
p6601
I42
VSimpleName: assertNotSame
p6602
tp6603
I1
s(Vinsert
p6604
I42
VSimpleName: setString
p6605
tp6606
I2
s(Vinsert
p6607
I42
VSimpleName: reactorService
p6608
tp6609
I2
s(Vinsert
p6610
I42
VSimpleName: e
p6611
tp6612
I7
s(Vinsert
p6613
I43
VSimpleType: ImmutableStew
p6614
tp6615
I2
s(Vinsert
p6616
I43
VSimpleType: Object
p6617
tp6618
I14
s(Vinsert
p6619
I42
VSimpleName: Cake
p6620
tp6621
I2
s(Vinsert
p6622
I42
VSimpleName: dispatcher
p6623
tp6624
I16
s(Vinsert
p6625
I42
VSimpleName: enumIvoryTower2
p6626
tp6627
I1
s(Vinsert
p6628
I28
VInitializer
p6629
tp6630
I1
s(Vinsert
p6631
I45
VStringLiteral: "UDP Client"
p6632
tp6633
I1
s(Vinsert
p6634
I43
VSimpleType: FlyingMagicWeapon
p6635
tp6636
I3
s(Vinsert
p6637
I42
VSimpleName: toLowerCase
p6638
tp6639
I5
s(Vinsert
p6640
I42
VSimpleName: target
p6641
tp6642
I11
s(Vinsert
p6643
I43
VSimpleType: Callable
p6644
tp6645
I1
s(Vinsert
p6646
I42
VSimpleName: UserUpdatedEventHandler
p6647
tp6648
I2
s(Vinsert
p6649
I42
VSimpleName: PersonRepository
p6650
tp6651
I1
s(Vinsert
p6652
I74
VParameterizedType: AsyncTask<?>
p6653
tp6654
I1
s(Vinsert
p6655
I42
VSimpleName: assertNotNull
p6656
tp6657
I7
s(Vinsert
p6658
I42
VSimpleName: goToMine
p6659
tp6660
I1
s(Vinsert
p6661
I42
VSimpleName: fixtureScripts
p6662
tp6663
I1
s(Vinsert
p6664
I42
VSimpleName: Long
p6665
tp6666
I4
s(Vinsert
p6667
I42
VSimpleName: visitor
p6668
tp6669
I8
s(Vinsert
p6670
I42
VSimpleName: exectorService
p6671
tp6672
I1
s(Vinsert
p6673
I42
VSimpleName: Class
p6674
tp6675
I5
s(Vinsert
p6676
I42
VSimpleName: injector
p6677
tp6678
I3
s(Vinsert
p6679
I42
VSimpleName: inOrder
p6680
tp6681
I18
s(Vinsert
p6682
I42
VSimpleName: t4
p6683
tp6684
I2
s(Vinsert
p6685
I42
VSimpleName: ObjectInputStream
p6686
tp6687
I1
s(Vinsert
p6688
I42
VSimpleName: gainSpeed
p6689
tp6690
I1
s(Vinsert
p6691
I42
VSimpleName: push
p6692
tp6693
I1
s(Vinsert
p6694
I42
VSimpleName: accountNo
p6695
tp6696
I3
s(Vinsert
p6697
I74
VParameterizedType: List<String>
p6698
tp6699
I1
s(Vinsert
p6700
I42
VSimpleName: castSpell
p6701
tp6702
I1
s(Vinsert
p6703
I43
VSimpleType: StarMemento
p6704
tp6705
I2
s(Vinsert
p6706
I42
VSimpleName: callableDf
p6707
tp6708
I4
s(Vinsert
p6709
I45
VStringLiteral: "{\u005c"id\u005c": \u005c"1\u005c",\u005c"title\u005c": \u005c"Avatar\u005c",\u005c"length\u005c": 178}"
p6710
tp6711
I1
s(Vinsert
p6712
I42
VSimpleName: Override
p6713
tp6714
I126
s(Vinsert
p6715
I43
VSimpleType: Commander
p6716
tp6717
I4
s(Vinsert
p6718
I66
VTextElement:  The description of the request
p6719
tp6720
I1
s(Vinsert
p6721
I42
VSimpleName: Validator
p6722
tp6723
I2
s(Vinsert
p6724
I43
VSimpleType: Sergeant
p6725
tp6726
I5
s(Vinsert
p6727
I43
VSimpleType: Service
p6728
tp6729
I6
s(Vinsert
p6730
I43
VSimpleType: Spell
p6731
tp6732
I4
s(Vinsert
p6733
I42
VSimpleName: flush
p6734
tp6735
I1
s(Vinsert
p6736
I42
VSimpleName: markHandled
p6737
tp6738
I3
s(Vinsert
p6739
I42
VSimpleName: visitCommander
p6740
tp6741
I4
s(Vinsert
p6742
I42
VSimpleName: customerDao
p6743
tp6744
I1
s(Vinsert
p6745
I38
VPrefixExpression: ++
p6746
tp6747
I1
s(Vinsert
p6748
I42
VSimpleName: IOException
p6749
tp6750
I9
s(Vinsert
p6751
I43
VSimpleType: Soldier
p6752
tp6753
I6
s(Vinsert
p6754
I42
VSimpleName: jt
p6755
tp6756
I1
s(Vinsert
p6757
I43
VSimpleType: SocketChannel
p6758
tp6759
I1
s(Vinsert
p6760
I42
VSimpleName: homePage
p6761
tp6762
I1
s(Vinsert
p6763
I42
VSimpleName: SimpleFileWriter
p6764
tp6765
I1
s(Vinsert
p6766
I43
VSimpleType: Account
p6767
tp6768
I6
s(Vinsert
p6769
I42
VSimpleName: getWeightTons
p6770
tp6771
I2
s(Vinsert
p6772
I42
VSimpleName: optional
p6773
tp6774
I1
s(Vinsert
p6775
I43
VSimpleType: AbilityStep
p6776
tp6777
I1
s(Vinsert
p6778
I43
VSimpleType: GnomeEngineerAdapter
p6779
tp6780
I2
s(Vinsert
p6781
I42
VSimpleName: printCacheContent
p6782
tp6783
I1
s(Vinsert
p6784
I83
VModifier: private
p6785
tp6786
I9
s(Vinsert
p6787
I42
VSimpleName: getTreeSize
p6788
tp6789
I2
s(Vinsert
p6790
I42
VSimpleName: BallThread
p6791
tp6792
I5
s(Vinsert
p6793
I42
VSimpleName: firstOliphaunt
p6794
tp6795
I1
s(Vinsert
p6796
I42
VSimpleName: httpClient
p6797
tp6798
I2
s(Vinsert
p6799
I42
VSimpleName: camelContext
p6800
tp6801
I2
s(Vinsert
p6802
I45
VStringLiteral: "glider attached"
p6803
tp6804
I1
s(Vinsert
p6805
I42
VSimpleName: getSpecification
p6806
tp6807
I1
s(Vinsert
p6808
I66
VTextElement: Starts the presenter.
p6809
tp6810
I1
s(Vinsert
p6811
I42
VSimpleName: setCalories
p6812
tp6813
I2
s(Vinsert
p6814
I42
VSimpleName: priceController
p6815
tp6816
I2
s(Vinsert
p6817
I66
VTextElement:  
p6818
tp6819
I1
s(Vinsert
p6820
I42
VSimpleName: fatigue
p6821
tp6822
I2
s(Vinsert
p6823
I42
VSimpleName: selected
p6824
tp6825
I2
s(Vinsert
p6826
I42
VSimpleName: letter
p6827
tp6828
I2
s(Vinsert
p6829
I40
VQualifiedName: ItemType.WEAPON
p6830
tp6831
I1
s(Vinsert
p6832
I42
VSimpleName: mockedVisitor
p6833
tp6834
I6
s(Vinsert
p6835
I42
VSimpleName: reader2
p6836
tp6837
I2
s(Vinsert
p6838
I42
VSimpleName: E
p6839
tp6840
I4
s(Vinsert
p6841
I42
VSimpleName: SelectionKey
p6842
tp6843
I10
s(Vinsert
p6844
I42
VSimpleName: getFed
p6845
tp6846
I1
s(Vinsert
p6847
I43
VSimpleType: Iterable
p6848
tp6849
I2
s(Vinsert
p6850
I42
VSimpleName: buildSessionFactory
p6851
tp6852
I1
s(Vinsert
p6853
I42
VSimpleName: getObjects
p6854
tp6855
I1
s(Vinsert
p6856
I42
VSimpleName: checkOut
p6857
tp6858
I2
s(Vinsert
p6859
I53
VThrowStatement
p6860
tp6861
I5
s(Vinsert
p6862
I34
VNumberLiteral: 8083
p6863
tp6864
I1
s(Vinsert
p6865
I42
VSimpleName: evenNumber
p6866
tp6867
I1
s(Vinsert
p6868
I45
VStringLiteral: "String["
p6869
tp6870
I1
s(Vinsert
p6871
I43
VSimpleType: GWeather
p6872
tp6873
I3
s(Vinsert
p6874
I42
VSimpleName: CatapultCommand
p6875
tp6876
I1
s(Vinsert
p6877
I74
VParameterizedType: Set<Wizard>
p6878
tp6879
I1
s(Vinsert
p6880
I42
VSimpleName: IsisConfigurationForJdoIntegTests
p6881
tp6882
I2
s(Vinsert
p6883
I42
VSimpleName: client
p6884
tp6885
I6
s(Vinsert
p6886
I42
VSimpleName: reactor
p6887
tp6888
I2
s(Vinsert
p6889
I42
VSimpleName: getHandler
p6890
tp6891
I3
s(Vinsert
p6892
I66
VTextElement:  into the 
p6893
tp6894
I16
s(Vinsert
p6895
I37
VPostfixExpression: --
p6896
tp6897
I2
s(Vinsert
p6898
I42
VSimpleName: CacheStore
p6899
tp6900
I2
s(Vinsert
p6901
I43
VSimpleType: EjbService
p6902
tp6903
I1
s(Vinsert
p6904
I42
VSimpleName: map
p6905
tp6906
I6
s(Vinsert
p6907
I45
VStringLiteral: "Checked out "
p6908
tp6909
I1
s(Vinsert
p6910
I42
VSimpleName: Unit
p6911
tp6912
I9
s(Vinsert
p6913
I43
VSimpleType: Weapon
p6914
tp6915
I2
s(Vinsert
p6916
I42
VSimpleName: ivoryTower1
p6917
tp6918
I1
s(Vinsert
p6919
I43
VSimpleType: StringBuilder
p6920
tp6921
I2
s(Vinsert
p6922
I66
VTextElement:  when the limit is reached
p6923
tp6924
I1
s(Vinsert
p6925
I21
VExpressionStatement
p6926
tp6927
I800
s(Vinsert
p6928
I26
VImportDeclaration
p6929
tp6930
I3
s(Vinsert
p6931
I42
VSimpleName: UserCreatedEvent
p6932
tp6933
I16
s(Vinsert
p6934
I42
VSimpleName: newSingleThreadExecutor
p6935
tp6936
I2
s(Vinsert
p6937
I42
VSimpleName: serviceCache
p6938
tp6939
I2
s(Vinsert
p6940
I42
VSimpleName: tearDown
p6941
tp6942
I4
s(Vinsert
p6943
I45
VStringLiteral: "{{entry}}"
p6944
tp6945
I3
s(Vinsert
p6946
I43
VSimpleType: BusinessService
p6947
tp6948
I3
s(Vinsert
p6949
I42
VSimpleName: factoryWithoutDefaultObserver
p6950
tp6951
I1
s(Vinsert
p6952
I42
VSimpleName: shop
p6953
tp6954
I1
s.