(lp0
(Vinsert
p1
I42
VSimpleName: findDrawableByLayerId
p2
tp3
a(Vinsert
p4
I42
VSimpleName: getAlpha
p5
tp6
a(Vinsert
p7
I42
VSimpleName: startActionMode
p8
tp9
a(Vinsert
p10
I42
VSimpleName: addIntentOptions
p11
tp12
a(Vinsert
p13
I42
VSimpleName: setSelected
p14
tp15
a(Vinsert
p16
I42
VSimpleName: onRequestSendAccessibilityEvent
p17
tp18
a(Vinsert
p19
I42
VSimpleName: dispatchOptionsItemSelected
p20
tp21
a(Vinsert
p22
I42
VSimpleName: union
p23
tp24
a(Vinsert
p25
I42
VSimpleName: getChildAt
p26
tp27
a(Vinsert
p28
I42
VSimpleName: appendEncodedPath
p29
tp30
a(Vinsert
p31
I42
VSimpleName: getCount
p32
tp33
a(Vinsert
p34
I42
VSimpleName: emptyList
p35
tp36
a(Vinsert
p37
I42
VSimpleName: getActionBar
p38
tp39
a(Vinsert
p40
I42
VSimpleName: canScrollHorizontally
p41
tp42
a(Vinsert
p43
I42
VSimpleName: isEmpty
p44
tp45
a(Vinsert
p46
I42
VSimpleName: setItemView
p47
tp48
a(Vinsert
p49
I42
VSimpleName: getParent
p50
tp51
a(Vinsert
p52
I42
VSimpleName: setScale
p53
tp54
a(Vinsert
p55
I42
VSimpleName: addCategory
p56
tp57
a(Vinsert
p58
I42
VSimpleName: setFlags
p59
tp60
a(Vinsert
p61
I42
VSimpleName: sendAccessibilityEvent
p62
tp63
a(Vinsert
p64
I42
VSimpleName: makeMeasureSpec
p65
tp66
a(Vinsert
p67
I42
VSimpleName: clear
p68
tp69
a(Vinsert
p70
I42
VSimpleName: setExclusiveItemChecked
p71
tp72
a(Vinsert
p73
I42
VSimpleName: countTokens
p74
tp75
a(Vinsert
p76
I42
VSimpleName: getFloat
p77
tp78
a(Vinsert
p79
I42
VSimpleName: ensureSupportActionBarAttached
p80
tp81
a(Vinsert
p82
I42
VSimpleName: normalizeMetaState
p83
tp84
a(Vinsert
p85
I42
VSimpleName: setOnItemClickListener
p86
tp87
a(Vinsert
p88
I42
VSimpleName: jumpDrawablesToCurrentState
p89
tp90
a(Vinsert
p91
I42
VSimpleName: setGroupCheckable
p92
tp93
a(Vinsert
p94
I42
VSimpleName: invoke
p95
tp96
a(Vinsert
p97
I42
VSimpleName: overridePendingTransition
p98
tp99
a(Vinsert
p100
I42
VSimpleName: getMax
p101
tp102
a(Vinsert
p103
I42
VSimpleName: getInt
p104
tp105
a(Vinsert
p106
I42
VSimpleName: removeAccessibilityStateChangeListener
p107
tp108
a(Vinsert
p109
I42
VSimpleName: setHomeAsUpEnabled
p110
tp111
a(Vinsert
p112
I42
VSimpleName: hasFeature
p113
tp114
a(Vinsert
p115
I42
VSimpleName: executeOnExecutor
p116
tp117
a(Vinsert
p118
I42
VSimpleName: stopDispatchingItemsChanged
p119
tp120
a(Vinsert
p121
I42
VSimpleName: print
p122
tp123
a(Vinsert
p124
I42
VSimpleName: dispatchDestroy
p125
tp126
a(Vinsert
p127
I42
VSimpleName: setMenuResourceId
p128
tp129
a(Vinsert
p130
I42
VSimpleName: reloadDisplay
p131
tp132
a(Vinsert
p133
I42
VSimpleName: restoreState
p134
tp135
a(Vinsert
p136
I42
VSimpleName: onClick
p137
tp138
a(Vinsert
p139
I42
VSimpleName: isClosed
p140
tp141
a(Vinsert
p142
I42
VSimpleName: startsWith
p143
tp144
a(Vinsert
p145
I42
VSimpleName: initialize
p146
tp147
a(Vinsert
p148
I42
VSimpleName: setItemChecked
p149
tp150
a(Vinsert
p151
I42
VSimpleName: isFinishing
p152
tp153
a(Vinsert
p154
I42
VSimpleName: getCallback
p155
tp156
a(Vinsert
p157
I42
VSimpleName: handleCustom
p158
tp159
a(Vinsert
p160
I42
VSimpleName: loadAnimation
p161
tp162
a(Vinsert
p163
I42
VSimpleName: setIcon
p164
tp165
a(Vinsert
p166
I42
VSimpleName: setDropDownViewResource
p167
tp168
a(Vinsert
p169
I42
VSimpleName: getMeasuredWidth
p170
tp171
a(Vinsert
p172
I42
VSimpleName: addView
p173
tp174
a(Vinsert
p175
I42
VSimpleName: setMenuVisibility
p176
tp177
a(Vinsert
p178
I42
VSimpleName: setShowDefaultActivity
p179
tp180
a(Vinsert
p181
I42
VSimpleName: floor
p182
tp183
a(Vinsert
p184
I42
VSimpleName: getWasMenuCreatedOnActivityCreation
p185
tp186
a(Vinsert
p187
I42
VSimpleName: getMeasuredHeight
p188
tp189
a(Vinsert
p190
I42
VSimpleName: getResourceMenuItem
p191
tp192
a(Vinsert
p193
I42
VSimpleName: setVisibility
p194
tp195
a(Vinsert
p196
I42
VSimpleName: finalize
p197
tp198
a(Vinsert
p199
I42
VSimpleName: postDelayed
p200
tp201
a(Vinsert
p202
I42
VSimpleName: recycle
p203
tp204
a(Vinsert
p205
I42
VSimpleName: beginTransaction
p206
tp207
a(Vinsert
p208
I42
VSimpleName: commit
p209
tp210
a(Vinsert
p211
I42
VSimpleName: setTitleResource
p212
tp213
a(Vinsert
p214
I42
VSimpleName: findItem
p215
tp216
a(Vinsert
p217
I42
VSimpleName: bindOverflowToNative
p218
tp219
a(Vinsert
p220
I42
VSimpleName: getSubMenuItemParent
p221
tp222
a(Vinsert
p223
I42
VSimpleName: isEqualTo
p224
tp225
a(Vinsert
p226
I42
VSimpleName: setBackgroundColor
p227
tp228
a(Vinsert
p229
I42
VSimpleName: measure
p230
tp231
a(Vinsert
p232
I42
VSimpleName: wrap
p233
tp234
a(Vinsert
p235
I42
VSimpleName: setColor
p236
tp237
a(Vinsert
p238
I42
VSimpleName: keySet
p239
tp240
a(Vinsert
p241
I42
VSimpleName: getSystemService
p242
tp243
a(Vinsert
p244
I42
VSimpleName: setCustomView
p245
tp246
a(Vinsert
p247
I42
VSimpleName: getInstance
p248
tp249
a(Vinsert
p250
I42
VSimpleName: resolveSize
p251
tp252
a(Vinsert
p253
I42
VSimpleName: draw
p254
tp255
a(Vinsert
p256
I42
VSimpleName: unwrap
p257
tp258
a(Vinsert
p259
I42
VSimpleName: setType
p260
tp261
a(Vinsert
p262
I42
VSimpleName: isLongPress
p263
tp264
a(Vinsert
p265
I42
VSimpleName: showOverflowMenu
p266
tp267
a(Vinsert
p268
I42
VSimpleName: getHomeMenuItem
p269
tp270
a(Vinsert
p271
I42
VSimpleName: getRepeatCount
p272
tp273
a(Vinsert
p274
I42
VSimpleName: findViewById
p275
tp276
a(Vinsert
p277
I42
VSimpleName: getMenu
p278
tp279
a(Vinsert
p280
I42
VSimpleName: setActionItemTextEnabled
p281
tp282
a(Vinsert
p283
I42
VSimpleName: setHomeButtonEnabled
p284
tp285
a(Vinsert
p286
I42
VSimpleName: prefersCondensedTitle
p287
tp288
a(Vinsert
p289
I42
VSimpleName: setBuiltInZoomControls
p290
tp291
a(Vinsert
p292
I42
VSimpleName: getText
p293
tp294
a(Vinsert
p295
I42
VSimpleName: onSubUiVisibilityChanged
p296
tp297
a(Vinsert
p298
I42
VSimpleName: getInternalCallbacks
p299
tp300
a(Vinsert
p301
I42
VSimpleName: ensureActionBar
p302
tp303
a(Vinsert
p304
I42
VSimpleName: getChildCount
p305
tp306
a(Vinsert
p307
I42
VSimpleName: isPassword
p308
tp309
a(Vinsert
p310
I42
VSimpleName: dispatchPause
p311
tp312
a(Vinsert
p313
I42
VSimpleName: invalidateOptionsMenu
p314
tp315
a(Vinsert
p316
I42
VSimpleName: getShowAsAction
p317
tp318
a(Vinsert
p319
I42
VSimpleName: onViewDetachedFromWindow
p320
tp321
a(Vinsert
p322
I42
VSimpleName: searchText
p323
tp324
a(Vinsert
p325
I42
VSimpleName: getLoaderManager
p326
tp327
a(Vinsert
p328
I42
VSimpleName: onContentChanged
p329
tp330
a(Vinsert
p331
I42
VSimpleName: getEventType
p332
tp333
a(Vinsert
p334
I42
VSimpleName: getNonActionItems
p335
tp336
a(Vinsert
p337
I42
VSimpleName: i
p338
tp339
a(Vinsert
p340
I42
VSimpleName: getActionView
p341
tp342
a(Vinsert
p343
I42
VSimpleName: findActionBar
p344
tp345
a(Vinsert
p346
I42
VSimpleName: getEnabledAccessibilityServiceList
p347
tp348
a(Vinsert
p349
I42
VSimpleName: getShowsActionItemText
p350
tp351
a(Vinsert
p352
I42
VSimpleName: onMenuItemClick
p353
tp354
a(Vinsert
p355
I42
VSimpleName: select
p356
tp357
a(Vinsert
p358
I42
VSimpleName: createFromResource
p359
tp360
a(Vinsert
p361
I42
VSimpleName: setGravity
p362
tp363
a(Vinsert
p364
I42
VSimpleName: setTitle
p365
tp366
a(Vinsert
p367
I42
VSimpleName: getAttributeValue
p368
tp369
a(Vinsert
p370
I42
VSimpleName: setProgressBarIndeterminateVisibility
p371
tp372
a(Vinsert
p373
I42
VSimpleName: requestFeature
p374
tp375
a(Vinsert
p376
I42
VSimpleName: addTab
p377
tp378
a(Vinsert
p379
I42
VSimpleName: performPendingDeferredStart
p380
tp381
a(Vinsert
p382
I42
VSimpleName: getX
p383
tp384
a(Vinsert
p385
I42
VSimpleName: setTranslationX
p386
tp387
a(Vinsert
p388
I42
VSimpleName: invalidate
p389
tp390
a(Vinsert
p391
I42
VSimpleName: setOnQueryTextListener
p392
tp393
a(Vinsert
p394
I42
VSimpleName: onQueryTextSubmit
p395
tp396
a(Vinsert
p397
I42
VSimpleName: setId
p398
tp399
a(Vinsert
p400
I42
VSimpleName: detachFragment
p401
tp402
a(Vinsert
p403
I42
VSimpleName: createFromParcel
p404
tp405
a(Vinsert
p406
I42
VSimpleName: fire
p407
tp408
a(Vinsert
p409
I42
VSimpleName: getTabAt
p410
tp411
a(Vinsert
p412
I42
VSimpleName: getActivity
p413
tp414
a(Vinsert
p415
I42
VSimpleName: getWindowToken
p416
tp417
a(Vinsert
p418
I42
VSimpleName: setMinimumWidth
p419
tp420
a(Vinsert
p421
I42
VSimpleName: ensureActionBarAttached
p422
tp423
a(Vinsert
p424
I42
VSimpleName: appendRecord
p425
tp426
a(Vinsert
p427
I42
VSimpleName: updateSelectedState
p428
tp429
a(Vinsert
p430
I42
VSimpleName: append
p431
tp432
a(Vinsert
p433
I42
VSimpleName: getTitleCondensed
p434
tp435
a(Vinsert
p436
I42
VSimpleName: dispatchOpenOptionsMenu
p437
tp438
a(Vinsert
p439
I42
VSimpleName: putInt
p440
tp441
a(Vinsert
p442
I42
VSimpleName: getSupportFragmentManager
p443
tp444
a(Vinsert
p445
I42
VSimpleName: cleanActivityName
p446
tp447
a(Vinsert
p448
I42
VSimpleName: add
p449
tp450
a(Vinsert
p451
I42
VSimpleName: isAssignableFrom
p452
tp453
a(Vinsert
p454
I42
VSimpleName: getOrder
p455
tp456
a(Vinsert
p457
I42
VSimpleName: setBackgroundDrawable
p458
tp459
a(Vinsert
p460
I42
VSimpleName: ofFloat
p461
tp462
a(Vinsert
p463
I42
VSimpleName: getMode
p464
tp465
a(Vinsert
p466
I42
VSimpleName: getInterpolation
p467
tp468
a(Vinsert
p469
I42
VSimpleName: inflate
p470
tp471
a(Vinsert
p472
I42
VSimpleName: addSubMenu
p473
tp474
a(Vinsert
p475
I42
VSimpleName: length
p476
tp477
a(Vinsert
p478
I42
VSimpleName: dispatchCreateOptionsMenu
p479
tp480
a(Vinsert
p481
I42
VSimpleName: getClass
p482
tp483
a(Vinsert
p484
I42
VSimpleName: setCallback
p485
tp486
a(Vinsert
p487
I42
VSimpleName: overridingErrorMessage
p488
tp489
a(Vinsert
p490
I42
VSimpleName: hasSubMenu
p491
tp492
a(Vinsert
p493
I42
VSimpleName: dispatchKeyUp
p494
tp495
a(Vinsert
p496
I42
VSimpleName: setLayoutParams
p497
tp498
a(Vinsert
p499
I42
VSimpleName: getTitles
p500
tp501
a(Vinsert
p502
I42
VSimpleName: getMenuInflater
p503
tp504
a(Vinsert
p505
I42
VSimpleName: saveRecentQuery
p506
tp507
a(Vinsert
p508
I42
VSimpleName: addTo
p509
tp510
a(Vinsert
p511
I42
VSimpleName: newInstance
p512
tp513
a(Vinsert
p514
I42
VSimpleName: metaStateHasModifiers
p515
tp516
a(Vinsert
p517
I42
VSimpleName: replace
p518
tp519
a(Vinsert
p520
I42
VSimpleName: performFindItem
p521
tp522
a(Vinsert
p523
I42
VSimpleName: getLayoutParams
p524
tp525
a(Vinsert
p526
I42
VSimpleName: toString
p527
tp528
a(Vinsert
p529
I42
VSimpleName: getPointerId
p530
tp531
a(Vinsert
p532
I42
VSimpleName: obtainStyledAttributes
p533
tp534
a(Vinsert
p535
I42
VSimpleName: getInputType
p536
tp537
a(Vinsert
p538
I42
VSimpleName: v
p539
tp540
a(Vinsert
p541
I42
VSimpleName: dump
p542
tp543
a(Vinsert
p544
I42
VSimpleName: enableCustomView
p545
tp546
a(Vinsert
p547
I42
VSimpleName: onPrepareActionMode
p548
tp549
a(Vinsert
p550
I42
VSimpleName: getProgress
p551
tp552
a(Vinsert
p553
I42
VSimpleName: getContext
p554
tp555
a(Vinsert
p556
I42
VSimpleName: setShowAsAction
p557
tp558
a(Vinsert
p559
I42
VSimpleName: onOptionsMenuCreated
p560
tp561
a(Vinsert
p562
I42
VSimpleName: getMenuItemSubMenu
p563
tp564
a(Vinsert
p565
I42
VSimpleName: setHeaderIcon
p566
tp567
a(Vinsert
p568
I42
VSimpleName: onDataSetChanged
p569
tp570
a(Vinsert
p571
I42
VSimpleName: setText
p572
tp573
a(Vinsert
p574
I42
VSimpleName: findMenuItem
p575
tp576
a(Vinsert
p577
I42
VSimpleName: moveToPosition
p578
tp579
a(Vinsert
p580
I42
VSimpleName: getResources
p581
tp582
a(Vinsert
p583
I42
VSimpleName: notifyChanged
p584
tp585
a(Vinsert
p586
I42
VSimpleName: cancel
p587
tp588
a(Vinsert
p589
I42
VSimpleName: dispatchResume
p590
tp591
a(Vinsert
p592
I42
VSimpleName: getDrawable
p593
tp594
a(Vinsert
p595
I42
VSimpleName: makeText
p596
tp597
a(Vinsert
p598
I42
VSimpleName: getSimpleName
p599
tp600
a(Vinsert
p601
I42
VSimpleName: getWritableDatabase
p602
tp603
a(Vinsert
p604
I42
VSimpleName: isFinished
p605
tp606
a(Vinsert
p607
I42
VSimpleName: setStackedBackgroundDrawable
p608
tp609
a(Vinsert
p610
I42
VSimpleName: setMeasureWithLargestChildEnabled
p611
tp612
a(Vinsert
p613
I42
VSimpleName: getLayoutInflater
p614
tp615
a(Vinsert
p616
I42
VSimpleName: dispatchPrepareOptionsMenu
p617
tp618
a(Vinsert
p619
I42
VSimpleName: onCreateActionView
p620
tp621
a(Vinsert
p622
I42
VSimpleName: getStringArray
p623
tp624
a(Vinsert
p625
I42
VSimpleName: inflateMenu
p626
tp627
a(Vinsert
p628
I42
VSimpleName: setDisplayOptions
p629
tp630
a(Vinsert
p631
I42
VSimpleName: getAttributeResourceValue
p632
tp633
a(Vinsert
p634
I42
VSimpleName: getItemData
p635
tp636
a(Vinsert
p637
I42
VSimpleName: w
p638
tp639
a(Vinsert
p640
I42
VSimpleName: addFlags
p641
tp642
a(Vinsert
p643
I42
VSimpleName: setImageDrawable
p644
tp645
a(Vinsert
p646
I42
VSimpleName: setAlpha
p647
tp648
a(Vinsert
p649
I42
VSimpleName: onConfigurationChanged
p650
tp651
a(Vinsert
p652
I42
VSimpleName: addItem
p653
tp654
a(Vinsert
p655
I42
VSimpleName: addDetached
p656
tp657
a(Vinsert
p658
I42
VSimpleName: setUserVisibleHint
p659
tp660
a(Vinsert
p661
I42
VSimpleName: setDisplayShowTitleEnabled
p662
tp663
a(Vinsert
p664
I42
VSimpleName: onPopulateAccessibilityEvent
p665
tp666
a(Vinsert
p667
I42
VSimpleName: setTag
p668
tp669
a(Vinsert
p670
I42
VSimpleName: unregisterReceiver
p671
tp672
a(Vinsert
p673
I42
VSimpleName: isChecked
p674
tp675
a(Vinsert
p676
I42
VSimpleName: getView
p677
tp678
a(Vinsert
p679
I42
VSimpleName: clicked
p680
tp681
a(Vinsert
p682
I42
VSimpleName: getWindow
p683
tp684
a(Vinsert
p685
I42
VSimpleName: setActivated
p686
tp687
a(Vinsert
p688
I42
VSimpleName: asActivity
p689
tp690
a(Vinsert
p691
I42
VSimpleName: startDispatchingItemsChanged
p692
tp693
a(Vinsert
p694
I42
VSimpleName: dispatchContextItemSelected
p695
tp696
a(Vinsert
p697
I42
VSimpleName: setCustomAnimations
p698
tp699
a(Vinsert
p700
I42
VSimpleName: dispatchPostCreate
p701
tp702
a(Vinsert
p703
I42
VSimpleName: onCreateOptionsMenu
p704
tp705
a(Vinsert
p706
I42
VSimpleName: show
p707
tp708
a(Vinsert
p709
I42
VSimpleName: setSubtitle
p710
tp711
a(Vinsert
p712
I42
VSimpleName: d
p713
tp714
a(Vinsert
p715
I42
VSimpleName: onItemsChanged
p716
tp717
a(Vinsert
p718
I42
VSimpleName: floatValue
p719
tp720
a(Vinsert
p721
I42
VSimpleName: setAccessibilityDelegate
p722
tp723
a(Vinsert
p724
I42
VSimpleName: getEditText
p725
tp726
a(Vinsert
p727
I42
VSimpleName: getActivityIcon
p728
tp729
a(Vinsert
p730
I42
VSimpleName: addMenuPresenter
p731
tp732
a(Vinsert
p733
I42
VSimpleName: setIntent
p734
tp735
a(Vinsert
p736
I42
VSimpleName: getLogo
p737
tp738
a(Vinsert
p739
I42
VSimpleName: invokeMenuActionSync
p740
tp741
a(Vinsert
p742
I42
VSimpleName: bindNativeOverflow
p743
tp744
a(Vinsert
p745
I42
VSimpleName: setOnItemSelectedListener
p746
tp747
a(Vinsert
p748
I42
VSimpleName: setDisplayShowCustomEnabled
p749
tp750
a(Vinsert
p751
I42
VSimpleName: getRecordCount
p752
tp753
a(Vinsert
p754
I42
VSimpleName: getApplicationInfo
p755
tp756
a(Vinsert
p757
I42
VSimpleName: arraycopy
p758
tp759
a(Vinsert
p760
I42
VSimpleName: setClickable
p761
tp762
a(Vinsert
p763
I42
VSimpleName: getActivityInfo
p764
tp765
a(Vinsert
p766
I42
VSimpleName: removeView
p767
tp768
a(Vinsert
p769
I42
VSimpleName: getBoolean
p770
tp771
a(Vinsert
p772
I42
VSimpleName: runQueryOnBackgroundThread
p773
tp774
a(Vinsert
p775
I42
VSimpleName: dispatchRestoreInstanceState
p776
tp777
a(Vinsert
p778
I42
VSimpleName: forName
p779
tp780
a(Vinsert
p781
I42
VSimpleName: getOverScrollMode
p782
tp783
a(Vinsert
p784
I42
VSimpleName: loadIcon
p785
tp786
a(Vinsert
p787
I42
VSimpleName: setInputMethodMode
p788
tp789
a(Vinsert
p790
I42
VSimpleName: setOnSystemUiVisibilityChangeListener
p791
tp792
a(Vinsert
p793
I42
VSimpleName: from
p794
tp795
a(Vinsert
p796
I42
VSimpleName: setItems
p797
tp798
a(Vinsert
p799
I42
VSimpleName: getParameters
p800
tp801
a(Vinsert
p802
I42
VSimpleName: get
p803
tp804
a(Vinsert
p805
I42
VSimpleName: getYVelocity
p806
tp807
a(Vinsert
p808
I42
VSimpleName: values
p809
tp810
a(Vinsert
p811
I42
VSimpleName: setAdapter
p812
tp813
a(Vinsert
p814
I42
VSimpleName: getItemId
p815
tp816
a(Vinsert
p817
I42
VSimpleName: dismiss
p818
tp819
a(Vinsert
p820
I42
VSimpleName: getHomeIcon
p821
tp822
a(Vinsert
p823
I42
VSimpleName: setVisible
p824
tp825
a(Vinsert
p826
I42
VSimpleName: addOnGlobalLayoutListener
p827
tp828
a(Vinsert
p829
I42
VSimpleName: getId
p830
tp831
a(Vinsert
p832
I42
VSimpleName: getXVelocity
p833
tp834
a(Vinsert
p835
I42
VSimpleName: getAction
p836
tp837
a(Vinsert
p838
I42
VSimpleName: setChecked
p839
tp840
a(Vinsert
p841
I42
VSimpleName: getTheme
p842
tp843
a(Vinsert
p844
I42
VSimpleName: e
p845
tp846
a(Vinsert
p847
I42
VSimpleName: getString
p848
tp849
a(Vinsert
p850
I42
VSimpleName: getConstructor
p851
tp852
a(Vinsert
p853
I42
VSimpleName: getItems
p854
tp855
a(Vinsert
p856
I42
VSimpleName: setSelection
p857
tp858
a(Vinsert
p859
I42
VSimpleName: setOnClickListener
p860
tp861
a(Vinsert
p862
I42
VSimpleName: setScaleType
p863
tp864
a(Vinsert
p865
I42
VSimpleName: newSearchView
p866
tp867
a(Vinsert
p868
I42
VSimpleName: setImageResource
p869
tp870
a(Vinsert
p871
I42
VSimpleName: valueOf
p872
tp873
a(Vinsert
p874
I42
VSimpleName: getVisibility
p875
tp876
a(Vinsert
p877
I42
VSimpleName: buildShortClassTag
p878
tp879
a(Vinsert
p880
I42
VSimpleName: countDown
p881
tp882
a(Vinsert
p883
I42
VSimpleName: getTitle
p884
tp885
a(Vinsert
p886
I42
VSimpleName: dismissPopupMenus
p887
tp888
a(Vinsert
p889
I42
VSimpleName: dispatchLowMemory
p890
tp891
a(Vinsert
p892
I42
VSimpleName: removeAllViews
p893
tp894
a(Vinsert
p895
I42
VSimpleName: getInstalledApplications
p896
tp897
a(Vinsert
p898
I42
VSimpleName: saveActionViewStates
p899
tp900
a(Vinsert
p901
I42
VSimpleName: getConfiguration
p902
tp903
a(Vinsert
p904
I42
VSimpleName: unregisterDataSetObserver
p905
tp906
a(Vinsert
p907
I42
VSimpleName: onActionModeFinished
p908
tp909
a(Vinsert
p910
I42
VSimpleName: setProgress
p911
tp912
a(Vinsert
p913
I42
VSimpleName: setCheckable
p914
tp915
a(Vinsert
p916
I42
VSimpleName: expandItemActionView
p917
tp918
a(Vinsert
p919
I42
VSimpleName: getIcon
p920
tp921
a(Vinsert
p922
I42
VSimpleName: hasVisibleItems
p923
tp924
a(Vinsert
p925
I42
VSimpleName: isVisible
p926
tp927
a(Vinsert
p928
I42
VSimpleName: getThemedContext
p929
tp930
a(Vinsert
p931
I42
VSimpleName: getDisplayOptions
p932
tp933
a(Vinsert
p934
I42
VSimpleName: remove
p935
tp936
a(Vinsert
p937
I42
VSimpleName: setExclusiveCheckable
p938
tp939
a(Vinsert
p940
I42
VSimpleName: setActivity
p941
tp942
a(Vinsert
p943
I42
VSimpleName: getTabCount
p944
tp945
a(Vinsert
p946
I42
VSimpleName: equals
p947
tp948
a(Vinsert
p949
I42
VSimpleName: put
p950
tp951
a(Vinsert
p952
I42
VSimpleName: getSupportActionBar
p953
tp954
a(Vinsert
p955
I42
VSimpleName: supportInvalidateOptionsMenu
p956
tp957
a(Vinsert
p958
I42
VSimpleName: setActionView
p959
tp960
a(Vinsert
p961
I42
VSimpleName: setOnEditorActionListener
p962
tp963
a(Vinsert
p964
I42
VSimpleName: getResourceId
p965
tp966
a(Vinsert
p967
I42
VSimpleName: finish
p968
tp969
a(Vinsert
p970
I42
VSimpleName: onOptionsItemSelected
p971
tp972
a(Vinsert
p973
I42
VSimpleName: setContentView
p974
tp975
a(Vinsert
p976
I42
VSimpleName: setDuration
p977
tp978
a(Vinsert
p979
I42
VSimpleName: isCancelled
p980
tp981
a(Vinsert
p982
I42
VSimpleName: max
p983
tp984
a(Vinsert
p985
I42
VSimpleName: getSubtitle
p986
tp987
a(Vinsert
p988
I42
VSimpleName: attach
p989
tp990
a(Vinsert
p991
I42
VSimpleName: getScaledPagingTouchSlop
p992
tp993
a(Vinsert
p994
I42
VSimpleName: getTag
p995
tp996
a(Vinsert
p997
I42
VSimpleName: getAttributeName
p998
tp999
a(Vinsert
p1000
I42
VSimpleName: onNavigationItemSelected
p1001
tp1002
a(Vinsert
p1003
I42
VSimpleName: getDescendantFocusability
p1004
tp1005
a(Vinsert
p1006
I42
VSimpleName: title
p1007
tp1008
a(Vinsert
p1009
I42
VSimpleName: size
p1010
tp1011
a(Vinsert
p1012
I42
VSimpleName: getItem
p1013
tp1014
a(Vinsert
p1015
I42
VSimpleName: onActionModeStarted
p1016
tp1017
a(Vinsert
p1018
I42
VSimpleName: isOverflowMenuShowing
p1019
tp1020
a(Vinsert
p1021
I42
VSimpleName: getIntent
p1022
tp1023
a(Vinsert
p1024
I42
VSimpleName: performClick
p1025
tp1026
a(Vinsert
p1027
I42
VSimpleName: setInterpolator
p1028
tp1029
a(Vinsert
p1030
I42
VSimpleName: getPackageManager
p1031
tp1032
a(Vinsert
p1033
I42
VSimpleName: newSingleThreadExecutor
p1034
tp1035
a(Vinsert
p1036
I42
VSimpleName: newTab
p1037
tp1038
a(Vinsert
p1039
I42
VSimpleName: onPull
p1040
tp1041
a.