(dp0
(Vinsert
p1
I42
VSimpleName: format
p2
Vinsert
p3
I42
VSimpleName: size
p4
tp5
I1
s(Vinsert
p6
I42
VSimpleName: entrySet
p7
Vinsert
p8
I21
VExpressionStatement
p9
tp10
I1
s(Vinsert
p11
I42
VSimpleName: remove
p12
Vinsert
p13
I66
VTextElement: Remove header from all requests this client makes (before sending).
p14
tp15
I1
s(Vinsert
p16
I42
VSimpleName: trim
p17
Vinsert
p18
I32
VMethodInvocation
p19
tp20
I2
s(Vinsert
p21
I42
VSimpleName: append
p22
Vinsert
p23
I85
VDimension
p24
tp25
I1
s(Vinsert
p26
I42
VSimpleName: get
p27
Vinsert
p28
I42
VSimpleName: nestedValueIndex
p29
tp30
I4
s(Vinsert
p31
I42
VSimpleName: getCredentialsProvider
p32
Vinsert
p33
I42
VSimpleName: user
p34
tp35
I1
s(Vinsert
p36
I42
VSimpleName: onPostProcessResponse
p37
Vinsert
p38
I32
VMethodInvocation
p39
tp40
I3
s(Vinsert
p41
I42
VSimpleName: get
p42
Vinsert
p43
I78
VMarkerAnnotation
p44
tp45
I1
s(Vinsert
p46
I42
VSimpleName: length
p47
Vinsert
p48
I42
VSimpleName: getName
p49
tp50
I1
s(Vinsert
p51
I42
VSimpleName: iterator
p52
Vinsert
p53
I21
VExpressionStatement
p54
tp55
I1
s(Vinsert
p56
I42
VSimpleName: prepare
p57
Vinsert
p58
I8
VBlock
p59
tp60
I2
s(Vinsert
p61
I42
VSimpleName: get
p62
Vinsert
p63
I42
VSimpleName: AsyncHttpRequest
p64
tp65
I2
s(Vinsert
p66
I42
VSimpleName: setTitle
p67
Vinsert
p68
I59
VVariableDeclarationFragment
p69
tp70
I1
s(Vinsert
p71
I42
VSimpleName: getStatusCode
p72
Vinsert
p73
I5
VArrayType: Header[]
p74
tp75
I3
s(Vinsert
p76
I42
VSimpleName: getIntExtra
p77
Vinsert
p78
I42
VSimpleName: intent
p79
tp80
I2
s(Vinsert
p81
I42
VSimpleName: read
p82
Vinsert
p83
I27
VInfixExpression: &&
p84
tp85
I1
s(Vinsert
p86
I42
VSimpleName: get
p87
Vinsert
p88
I39
VPrimitiveType: boolean
p89
tp90
I3
s(Vinsert
p91
I42
VSimpleName: min
p92
Vinsert
p93
I42
VSimpleName: Math
p94
tp95
I2
s(g76
I42
g77
Vinsert
p96
I21
VExpressionStatement
p97
tp98
I1
s(Vinsert
p99
I42
VSimpleName: start
p100
Vinsert
p101
I43
VSimpleType: Runnable
p102
tp103
I4
s(g99
I42
g100
Vinsert
p104
I21
VExpressionStatement
p105
tp106
I6
s(g16
I42
g17
Vinsert
p107
I42
VSimpleName: getResponseString
p108
tp109
I1
s(Vinsert
p110
I42
VSimpleName: d
p111
Vinsert
p112
I27
VInfixExpression: !=
p113
tp114
I2
s(Vinsert
p115
I42
VSimpleName: close
p116
Vinsert
p117
I40
VQualifiedName: Base64.NO_CLOSE
p118
tp119
I1
s(Vinsert
p120
I42
VSimpleName: nextValue
p121
Vinsert
p122
I60
VVariableDeclarationStatement
p123
tp124
I1
s(Vinsert
p125
I42
VSimpleName: asserts
p126
Vinsert
p127
I42
VSimpleName: isDirectory
p128
tp129
I1
s(Vinsert
p130
I42
VSimpleName: addRequestInterceptor
p131
Vinsert
p132
I39
VPrimitiveType: void
p133
tp134
I1
s(Vinsert
p135
I42
VSimpleName: write
p136
Vinsert
p137
I8
VBlock
p138
tp139
I2
s(Vinsert
p140
I42
VSimpleName: i
p141
Vinsert
p142
I45
VStringLiteral: "Authentication type is invalid."
p143
tp144
I1
s(Vinsert
p145
I42
VSimpleName: put
p146
Vinsert
p147
I39
VPrimitiveType: void
p148
tp149
I1
s(Vinsert
p150
I42
VSimpleName: setRequestTag
p151
Vinsert
p152
I42
VSimpleName: _request
p153
tp154
I3
s(Vinsert
p155
I42
VSimpleName: retryRequest
p156
Vinsert
p157
I14
VClassInstanceCreation
p158
tp159
I1
s(g120
I42
g121
Vinsert
p160
I42
VSimpleName: JSONTokener
p161
tp162
I1
s(Vinsert
p163
I42
VSimpleName: addHeader
p164
Vinsert
p165
I42
VSimpleName: contentType
p166
tp167
I3
s(Vinsert
p168
I42
VSimpleName: makeText
p169
Vinsert
p170
I42
VSimpleName: headers
p171
tp172
I1
s(Vinsert
p173
I42
VSimpleName: d
p174
Vinsert
p175
I42
VSimpleName: Override
p176
tp177
I2
s(Vinsert
p178
I42
VSimpleName: currentThread
p179
Vinsert
p180
I85
VDimension
p181
tp182
I1
s(Vinsert
p183
I42
VSimpleName: getText
p184
Vinsert
p185
I44
VSingleVariableDeclaration
p186
tp187
I1
s(g51
I42
g52
Vinsert
p188
I42
VSimpleName: iterator
p189
tp190
I1
s(g16
I42
g17
Vinsert
p191
I21
VExpressionStatement
p192
tp193
I1
s(g36
I42
g37
Vinsert
p194
I42
VSimpleName: response
p195
tp196
I1
s(Vinsert
p197
I42
VSimpleName: get
p198
Vinsert
p199
I42
VSimpleName: List
p200
tp201
I1
s(g163
I42
g164
Vinsert
p202
I33
VNullLiteral
p203
tp204
I2
s(g183
I42
g184
Vinsert
p205
I27
VInfixExpression: !=
p206
tp207
I2
s(Vinsert
p208
I42
VSimpleName: execute
p209
Vinsert
p210
I42
VSimpleName: AsyncHttpResponseHandler
p211
tp212
I4
s(Vinsert
p213
I42
VSimpleName: sendFailureMessage
p214
Vinsert
p215
I40
VQualifiedName: java.net.SocketTimeoutException
p216
tp217
I1
s(Vinsert
p218
I42
VSimpleName: d
p219
Vinsert
p220
I42
VSimpleName: LOG_TAG
p221
tp222
I2
s(Vinsert
p223
I42
VSimpleName: format
p224
Vinsert
p225
I42
VSimpleName: LIGHTRED
p226
tp227
I1
s(Vinsert
p228
I42
VSimpleName: setHeaders
p229
Vinsert
p230
I43
VSimpleType: HttpDelete
p231
tp232
I1
s(g173
I42
g174
Vinsert
p233
I39
VPrimitiveType: int
p234
tp235
I1
s(g183
I42
g184
Vinsert
p236
I16
VConditionalExpression
p237
tp238
I1
s(g208
I42
g209
Vinsert
p239
I42
VSimpleName: prefetchCache
p240
tp241
I1
s(Vinsert
p242
I42
VSimpleName: addHeader
p243
Vinsert
p244
I42
VSimpleName: post
p245
tp246
I1
s(Vinsert
p247
I42
VSimpleName: cancelAllRequests
p248
Vinsert
p249
I42
VSimpleName: CancelAllRequests
p250
tp251
I1
s(Vinsert
p252
I42
VSimpleName: e
p253
Vinsert
p254
I83
VModifier: final
p255
tp256
I1
s(Vinsert
p257
I42
VSimpleName: process
p258
Vinsert
p259
I34
VNumberLiteral: 2
p260
tp261
I1
s(g46
I42
g47
Vinsert
p262
I42
VSimpleName: bytesWritten
p263
tp264
I1
s(Vinsert
p265
I42
VSimpleName: isCheckable
p266
Vinsert
p267
I42
VSimpleName: onOptionsItemSelected
p268
tp269
I1
s(Vinsert
p270
I42
VSimpleName: add
p271
Vinsert
p272
I42
VSimpleName: Menu
p273
tp274
I1
s(Vinsert
p275
I42
VSimpleName: iterator
p276
Vinsert
p277
I42
VSimpleName: list
p278
tp279
I1
s(Vinsert
p280
I42
VSimpleName: start
p281
Vinsert
p282
I33
VNullLiteral
p283
tp284
I1
s(Vinsert
p285
I42
VSimpleName: length
p286
Vinsert
p287
I42
VSimpleName: statusCode
p288
tp289
I2
s(Vinsert
p290
I42
VSimpleName: setText
p291
Vinsert
p292
I42
VSimpleName: urlEditText
p293
tp294
I1
s(Vinsert
p295
I42
VSimpleName: getAttribute
p296
Vinsert
p297
I42
VSimpleName: ATTR_PRE_PROCESSED
p298
tp299
I1
s(Vinsert
p300
I42
VSimpleName: parseColor
p301
Vinsert
p302
I39
VPrimitiveType: void
p303
tp304
I1
s(Vinsert
p305
I42
VSimpleName: v
p306
Vinsert
p307
I33
VNullLiteral
p308
tp309
I1
s(Vinsert
p310
I42
VSimpleName: e
p311
Vinsert
p312
I42
VSimpleName: start
p313
tp314
I1
s(Vinsert
p315
I42
VSimpleName: getStatusLine
p316
Vinsert
p317
I42
VSimpleName: status
p318
tp319
I1
s(Vinsert
p320
I42
VSimpleName: getMessage
p321
Vinsert
p322
I42
VSimpleName: e
p323
tp324
I3
s(Vinsert
p325
I42
VSimpleName: exists
p326
Vinsert
p327
I8
VBlock
p328
tp329
I3
s(Vinsert
p330
I42
VSimpleName: onPreProcess
p331
Vinsert
p332
I42
VSimpleName: isRequestPreProcessed
p333
tp334
I1
s(Vinsert
p335
I42
VSimpleName: getAttribute
p336
Vinsert
p337
I39
VPrimitiveType: boolean
p338
tp339
I1
s(g178
I42
g179
Vinsert
p340
I27
VInfixExpression: ||
p341
tp342
I1
s(g140
I42
g141
Vinsert
p343
I21
VExpressionStatement
p344
tp345
I5
s(g330
I42
g331
Vinsert
p346
I9
VBooleanLiteral: true
p347
tp348
I1
s(g110
I42
g111
Vinsert
p349
I42
VSimpleName: encoding
p350
tp351
I3
s(Vinsert
p352
I42
VSimpleName: setCredentials
p353
Vinsert
p354
I33
VNullLiteral
p355
tp356
I1
s(g81
I42
g82
Vinsert
p357
I36
VParenthesizedExpression
p358
tp359
I1
s(Vinsert
p360
I42
VSimpleName: append
p361
Vinsert
p362
I34
VNumberLiteral: 0
p363
tp364
I1
s(Vinsert
p365
I42
VSimpleName: getClass
p366
Vinsert
p367
I32
VMethodInvocation
p368
tp369
I3
s(Vinsert
p370
I42
VSimpleName: get
p371
Vinsert
p372
I42
VSimpleName: urlParams
p373
tp374
I1
s(g168
I42
g169
Vinsert
p375
I33
VNullLiteral
p376
tp377
I1
s(Vinsert
p378
I42
VSimpleName: getStatusCode
p379
Vinsert
p380
I44
VSingleVariableDeclaration
p381
tp382
I1
s(Vinsert
p383
I42
VSimpleName: cancelAllRequests
p384
Vinsert
p385
I40
VQualifiedName: R.string.title_cancel_all
p386
tp387
I1
s(Vinsert
p388
I42
VSimpleName: put
p389
Vinsert
p390
I42
VSimpleName: String
p391
tp392
I4
s(Vinsert
p393
I42
VSimpleName: getParams
p394
Vinsert
p395
I42
VSimpleName: httpClient
p396
tp397
I4
s(g285
I42
g286
Vinsert
p398
I33
VNullLiteral
p399
tp400
I3
s(g320
I42
g321
Vinsert
p401
I45
VStringLiteral: "NPE in HttpClient: "
p402
tp403
I3
s(Vinsert
p404
I42
VSimpleName: create
p405
Vinsert
p406
I43
VSimpleType: HttpDelete
p407
tp408
I1
s(Vinsert
p409
I42
VSimpleName: getMessage
p410
Vinsert
p411
I38
VPrefixExpression: ++
p412
tp413
I1
s(Vinsert
p414
I42
VSimpleName: sendFailureMessage
p415
Vinsert
p416
I33
VNullLiteral
p417
tp418
I8
s(Vinsert
p419
I42
VSimpleName: start
p420
Vinsert
p421
I42
VSimpleName: responseBytes
p422
tp423
I1
s(g6
I42
g7
Vinsert
p424
I43
VSimpleType: Map.Entry
p425
tp426
I1
s(Vinsert
p427
I42
VSimpleName: getCacheDir
p428
Vinsert
p429
I54
VTryStatement
p430
tp431
I1
s(Vinsert
p432
I42
VSimpleName: entrySet
p433
Vinsert
p434
I40
VQualifiedName: ConcurrentHashMap.Entry
p435
tp436
I1
s(Vinsert
p437
I42
VSimpleName: getName
p438
Vinsert
p439
I8
VBlock
p440
tp441
I3
s(g228
I42
g229
Vinsert
p442
I42
VSimpleName: headers
p443
tp444
I4
s(g393
I42
g394
Vinsert
p445
I27
VInfixExpression: <
p446
tp447
I1
s(g183
I42
g184
Vinsert
p448
I42
VSimpleName: headersEditText
p449
tp450
I2
s(Vinsert
p451
I42
VSimpleName: getStatusCode
p452
Vinsert
p453
I42
VSimpleName: getHeaders
p454
tp455
I1
s(Vinsert
p456
I42
VSimpleName: post
p457
Vinsert
p458
I42
VSimpleName: HttpEntity
p459
tp460
I1
s(Vinsert
p461
I42
VSimpleName: i
p462
Vinsert
p463
I42
VSimpleName: missingLooper
p464
tp465
I1
s(g150
I42
g151
Vinsert
p466
I25
VIfStatement
p467
tp468
I1
s(Vinsert
p469
I42
VSimpleName: create
p470
Vinsert
p471
I66
VTextElement:  if the uri is invalid.
p472
tp473
I3
s(Vinsert
p474
I42
VSimpleName: d
p475
Vinsert
p476
I42
VSimpleName: response
p477
tp478
I2
s(g305
I42
g306
Vinsert
p479
I21
VExpressionStatement
p480
tp481
I4
s(Vinsert
p482
I42
VSimpleName: add
p483
Vinsert
p484
I42
VSimpleName: ArrayList
p485
tp486
I1
s(Vinsert
p487
I42
VSimpleName: d
p488
Vinsert
p489
I43
VSimpleType: Header
p490
tp491
I2
s(Vinsert
p492
I42
VSimpleName: setRedirectHandler
p493
Vinsert
p494
I66
VTextElement:  RedirectHandler instance
p495
tp496
I1
s(Vinsert
p497
I42
VSimpleName: split
p498
Vinsert
p499
I42
VSimpleName: pairs
p500
tp501
I1
s(g41
I42
g42
Vinsert
p502
I32
VMethodInvocation
p503
tp504
I21
s(g81
I42
g82
Vinsert
p505
I32
VMethodInvocation
p506
tp507
I1
s(g252
I42
g253
Vinsert
p508
I59
VVariableDeclarationFragment
p509
tp510
I1
s(g31
I42
g32
Vinsert
p511
I52
VThisExpression
p512
tp513
I1
s(g305
I42
g306
Vinsert
p514
I42
VSimpleName: current
p515
tp516
I1
s(g370
I42
g371
Vinsert
p517
I43
VSimpleType: String
p518
tp519
I7
s(g218
I42
g219
Vinsert
p520
I45
VStringLiteral: "IOException in encodeCookie"
p521
tp522
I1
s(Vinsert
p523
I42
VSimpleName: synchronizedList
p524
Vinsert
p525
I42
VSimpleName: urlParams
p526
tp527
I2
s(g419
I42
g420
Vinsert
p528
I42
VSimpleName: postRunnable
p529
tp530
I3
s(g99
I42
g100
Vinsert
p531
I83
VModifier: public
p532
tp533
I7
s(g469
I42
g470
Vinsert
p534
I42
VSimpleName: String
p535
tp536
I3
s(Vinsert
p537
I42
VSimpleName: getXMLReader
p538
Vinsert
p539
I43
VSimpleType: SAXParser
p540
tp541
I1
s(Vinsert
p542
I42
VSimpleName: get
p543
Vinsert
p544
I42
VSimpleName: ArrayList
p545
tp546
I1
s(Vinsert
p547
I42
VSimpleName: addToBlacklist
p548
Vinsert
p549
I44
VSingleVariableDeclaration
p550
tp551
I1
s(g320
I42
g321
Vinsert
p552
I12
VCatchClause
p553
tp554
I2
s(Vinsert
p555
I42
VSimpleName: startsWith
p556
Vinsert
p557
I21
VExpressionStatement
p558
tp559
I1
s(Vinsert
p560
I42
VSimpleName: setIsRepeatable
p561
Vinsert
p562
I44
VSingleVariableDeclaration
p563
tp564
I1
s(g81
I42
g82
Vinsert
p565
I7
VAssignment: =
p566
tp567
I1
s(g183
I42
g184
Vinsert
p568
I42
VSimpleName: defaultText
p569
tp570
I1
s(Vinsert
p571
I42
VSimpleName: setOrientation
p572
Vinsert
p573
I32
VMethodInvocation
p574
tp575
I2
s(Vinsert
p576
I42
VSimpleName: values
p577
Vinsert
p578
I42
VSimpleName: log
p579
tp580
I1
s(g409
I42
g410
Vinsert
p581
I42
VSimpleName: IOException
p582
tp583
I1
s(g492
I42
g493
Vinsert
p584
I65
VTagElement
p585
tp586
I1
s(g492
I42
g493
Vinsert
p587
I65
VTagElement: @see
p588
tp589
I1
s(Vinsert
p590
I42
VSimpleName: setUseSynchronousMode
p591
Vinsert
p592
I21
VExpressionStatement
p593
tp594
I1
s(Vinsert
p595
I42
VSimpleName: myLooper
p596
Vinsert
p597
I25
VIfStatement
p598
tp599
I2
s(g365
I42
g366
Vinsert
p600
I42
VSimpleName: statusCode
p601
tp602
I1
s(g31
I42
g32
Vinsert
p603
I42
VSimpleName: pass
p604
tp605
I1
s(Vinsert
p606
I42
VSimpleName: e
p607
Vinsert
p608
I27
VInfixExpression: ==
p609
tp610
I1
s(Vinsert
p611
I42
VSimpleName: e
p612
Vinsert
p613
I42
VSimpleName: Error
p614
tp615
I1
s(Vinsert
p616
I42
VSimpleName: clear
p617
Vinsert
p618
I42
VSimpleName: removeAllHeaders
p619
tp620
I1
s(Vinsert
p621
I42
VSimpleName: put
p622
Vinsert
p623
I45
VStringLiteral: "fileThree"
p624
tp625
I1
s(g432
I42
g433
Vinsert
p626
I42
VSimpleName: getValue
p627
tp628
I1
s(Vinsert
p629
I42
VSimpleName: getSocketFactory
p630
Vinsert
p631
I44
VSingleVariableDeclaration
p632
tp633
I2
s(Vinsert
p634
I42
VSimpleName: put
p635
Vinsert
p636
I42
VSimpleName: responseHandler
p637
tp638
I1
s(Vinsert
p639
I42
VSimpleName: getParams
p640
Vinsert
p641
I42
VSimpleName: response
p642
tp643
I1
s(g383
I42
g384
Vinsert
p644
I78
VMarkerAnnotation
p645
tp646
I2
s(Vinsert
p647
I42
VSimpleName: write
p648
Vinsert
p649
I83
VModifier: static
p650
tp651
I1
s(Vinsert
p652
I42
VSimpleName: e
p653
Vinsert
p654
I46
VSuperConstructorInvocation
p655
tp656
I2
s(Vinsert
p657
I42
VSimpleName: parse
p658
Vinsert
p659
I42
VSimpleName: DEFAULT_CHARSET
p660
tp661
I1
s(g56
I42
g57
Vinsert
p662
I39
VPrimitiveType: boolean
p663
tp664
I1
s(Vinsert
p665
I42
VSimpleName: post
p666
Vinsert
p667
I39
VPrimitiveType: void
p668
tp669
I2
s(g482
I42
g483
Vinsert
p670
I74
VParameterizedType: ArrayList<String>
p671
tp672
I1
s(Vinsert
p673
I42
VSimpleName: cancel
p674
Vinsert
p675
I8
VBlock
p676
tp677
I2
s(g383
I42
g384
Vinsert
p678
I32
VMethodInvocation
p679
tp680
I4
s(g383
I42
g384
Vinsert
p681
I42
VSimpleName: getSampleTitle
p682
tp683
I1
s(Vinsert
p684
I42
VSimpleName: isEmpty
p685
Vinsert
p686
I42
VSimpleName: type
p687
tp688
I1
s(Vinsert
p689
I42
VSimpleName: isEmpty
p690
Vinsert
p691
I43
VSimpleType: AsyncHttpResponseHandler
p692
tp693
I1
s(g26
I42
g27
Vinsert
p694
I39
VPrimitiveType: int
p695
tp696
I1
s(g689
I42
g690
Vinsert
p697
I42
VSimpleName: progressHandler
p698
tp699
I1
s(Vinsert
p700
I42
VSimpleName: setOnClickListener
p701
Vinsert
p702
I8
VBlock
p703
tp704
I1
s(Vinsert
p705
I42
VSimpleName: booleanValue
p706
Vinsert
p707
I42
VSimpleName: write
p708
tp709
I1
s(g370
I42
g371
Vinsert
p710
I42
VSimpleName: has
p711
tp712
I1
s(Vinsert
p713
I42
VSimpleName: blockRetryExceptionClass
p714
Vinsert
p715
I43
VSimpleType: SocketTimeoutException
p716
tp717
I1
s(g383
I42
g384
Vinsert
p718
I42
VSimpleName: Override
p719
tp720
I2
s(Vinsert
p721
I42
VSimpleName: get
p722
Vinsert
p723
I29
VJavadoc
p724
tp725
I1
s(Vinsert
p726
I42
VSimpleName: valueOf
p727
Vinsert
p728
I42
VSimpleName: install
p729
tp730
I1
s(Vinsert
p731
I42
VSimpleName: setHttpRequestRetryHandler
p732
Vinsert
p733
I83
VModifier: public
p734
tp735
I1
s(g634
I42
g635
Vinsert
p736
I42
VSimpleName: rParams
p737
tp738
I2
s(Vinsert
p739
I42
VSimpleName: readValues
p740
Vinsert
p741
I42
VSimpleName: String
p742
tp743
I1
s(Vinsert
p744
I42
VSimpleName: getAllHeaders
p745
Vinsert
p746
I43
VSimpleType: Header
p747
tp748
I4
s(Vinsert
p749
I42
VSimpleName: intValue
p750
Vinsert
p751
I21
VExpressionStatement
p752
tp753
I3
s(g497
I42
g498
Vinsert
p754
I32
VMethodInvocation
p755
tp756
I3
s(g647
I42
g648
Vinsert
p757
I5
VArrayType: byte[]
p758
tp759
I1
s(Vinsert
p760
I42
VSimpleName: close
p761
Vinsert
p762
I11
VCastExpression
p763
tp764
I2
s(g228
I42
g229
Vinsert
p765
I21
VExpressionStatement
p766
tp767
I4
s(Vinsert
p768
I42
VSimpleName: unread
p769
Vinsert
p770
I39
VPrimitiveType: byte
p771
tp772
I1
s(Vinsert
p773
I42
VSimpleName: sendMessage
p774
Vinsert
p775
I42
VSimpleName: msg
p776
tp777
I2
s(g595
I42
g596
Vinsert
p778
I42
VSimpleName: setUsePoolThread
p779
tp780
I1
s(g427
I42
g428
Vinsert
p781
I41
VReturnStatement
p782
tp783
I1
s(Vinsert
p784
I42
VSimpleName: format
p785
Vinsert
p786
I43
VSimpleType: String
p787
tp788
I1
s(g700
I42
g701
Vinsert
p789
I33
VNullLiteral
p790
tp791
I1
s(g634
I42
g635
Vinsert
p792
I14
VClassInstanceCreation
p793
tp794
I1
s(g130
I42
g131
Vinsert
p795
I42
VSimpleName: httpClient
p796
tp797
I1
s(Vinsert
p798
I42
VSimpleName: toString
p799
Vinsert
p800
I42
VSimpleName: EntityUtils
p801
tp802
I1
s(g275
I42
g276
Vinsert
p803
I74
VParameterizedType: Class<?>
p804
tp805
I1
s(g497
I42
g498
Vinsert
p806
I42
VSimpleName: pair
p807
tp808
I2
s(Vinsert
p809
I42
VSimpleName: get
p810
Vinsert
p811
I85
VDimension
p812
tp813
I2
s(Vinsert
p814
I42
VSimpleName: addPart
p815
Vinsert
p816
I8
VBlock
p817
tp818
I2
s(Vinsert
p819
I42
VSimpleName: e
p820
Vinsert
p821
I42
VSimpleName: url
p822
tp823
I1
s(g265
I42
g266
Vinsert
p824
I42
VSimpleName: menu
p825
tp826
I1
s(g487
I42
g488
Vinsert
p827
I42
VSimpleName: overwritten
p828
tp829
I1
s(Vinsert
p830
I42
VSimpleName: length
p831
Vinsert
p832
I42
VSimpleName: file
p833
tp834
I3
s(g404
I42
g405
Vinsert
p835
I32
VMethodInvocation
p836
tp837
I20
s(Vinsert
p838
I42
VSimpleName: getProtocol
p839
Vinsert
p840
I60
VVariableDeclarationStatement
p841
tp842
I1
s(g86
I42
g87
Vinsert
p843
I42
VSimpleName: cancelled
p844
tp845
I1
s(Vinsert
p846
I42
VSimpleName: getName
p847
Vinsert
p848
I42
VSimpleName: put
p849
tp850
I1
s(Vinsert
p851
I42
VSimpleName: create
p852
Vinsert
p853
I42
VSimpleName: normalize
p854
tp855
I2
s(Vinsert
p856
I42
VSimpleName: exists
p857
Vinsert
p858
I37
VPostfixExpression: ++
p859
tp860
I1
s(g330
I42
g331
Vinsert
p861
I32
VMethodInvocation
p862
tp863
I3
s(g773
I42
g774
Vinsert
p864
I21
VExpressionStatement
p865
tp866
I2
s(Vinsert
p867
I42
VSimpleName: e
p868
Vinsert
p869
I43
VSimpleType: Throwable
p870
tp871
I1
s(g560
I42
g561
Vinsert
p872
I39
VPrimitiveType: void
p873
tp874
I1
s(g497
I42
g498
Vinsert
p875
I8
VBlock
p876
tp877
I2
s(g657
I42
g658
Vinsert
p878
I14
VClassInstanceCreation
p879
tp880
I1
s(g456
I42
g457
Vinsert
p881
I52
VThisExpression
p882
tp883
I1
s(Vinsert
p884
I42
VSimpleName: put
p885
Vinsert
p886
I39
VPrimitiveType: int
p887
tp888
I1
s(g611
I42
g612
Vinsert
p889
I42
VSimpleName: s
p890
tp891
I1
s(g437
I42
g438
Vinsert
p892
I33
VNullLiteral
p893
tp894
I1
s(Vinsert
p895
I42
VSimpleName: setTag
p896
Vinsert
p897
I32
VMethodInvocation
p898
tp899
I1
s(g130
I42
g131
Vinsert
p900
I66
VTextElement:  whether the authorization is processed in preemtive way
p901
tp902
I1
s(g99
I42
g100
Vinsert
p903
I42
VSimpleName: Override
p904
tp905
I5
s(g895
I42
g896
Vinsert
p906
I42
VSimpleName: AsyncHttpRequest
p907
tp908
I1
s(Vinsert
p909
I42
VSimpleName: get
p910
Vinsert
p911
I42
VSimpleName: timeline
p912
tp913
I2
s(g130
I42
g131
Vinsert
p914
I8
VBlock
p915
tp916
I2
s(g657
I42
g658
Vinsert
p917
I42
VSimpleName: instream
p918
tp919
I1
s(Vinsert
p920
I42
VSimpleName: getParams
p921
Vinsert
p922
I7
VAssignment: =
p923
tp924
I1
s(g388
I42
g389
Vinsert
p925
I43
VSimpleType: String
p926
tp927
I4
s(g223
I42
g224
Vinsert
p928
I44
VSingleVariableDeclaration
p929
tp930
I3
s(g606
I42
g607
Vinsert
p931
I40
VQualifiedName: response.length
p932
tp933
I2
s(g731
I42
g732
Vinsert
p934
I39
VPrimitiveType: int
p935
tp936
I1
s(g731
I42
g732
Vinsert
p937
I39
VPrimitiveType: void
p938
tp939
I1
s(g611
I42
g612
Vinsert
p940
I42
VSimpleName: next
p941
tp942
I1
s(g352
I42
g353
Vinsert
p943
I27
VInfixExpression: ==
p944
tp945
I1
s(g36
I42
g37
Vinsert
p946
I42
VSimpleName: isCancelled
p947
tp948
I2
s(g409
I42
g410
Vinsert
p949
I42
VSimpleName: context
p950
tp951
I1
s(Vinsert
p952
I42
VSimpleName: getBytes
p953
Vinsert
p954
I44
VSingleVariableDeclaration
p955
tp956
I1
s(Vinsert
p957
I42
VSimpleName: obtain
p958
Vinsert
p959
I43
VSimpleType: Message
p960
tp961
I1
s(g537
I42
g538
Vinsert
p962
I42
VSimpleName: XMLReader
p963
tp964
I1
s(g726
I42
g727
Vinsert
p965
I42
VSimpleName: setStrictMode
p966
tp967
I2
s(g652
I42
g653
Vinsert
p968
I42
VSimpleName: looper
p969
tp970
I1
s(Vinsert
p971
I42
VSimpleName: d
p972
Vinsert
p973
I45
VStringLiteral: "Return Headers:"
p974
tp975
I1
s(g71
I42
g72
Vinsert
p976
I2
VArrayAccess
p977
tp978
I6
s(g81
I42
g82
Vinsert
p979
I61
VWhileStatement
p980
tp981
I1
s(g378
I42
g379
Vinsert
p982
I34
VNumberLiteral: 0
p983
tp984
I2
s(Vinsert
p985
I42
VSimpleName: putExtra
p986
Vinsert
p987
I14
VClassInstanceCreation
p988
tp989
I1
s(g295
I42
g296
Vinsert
p990
I42
VSimpleName: isPreProcessed
p991
tp992
I1
s(Vinsert
p993
I42
VSimpleName: endsWith
p994
Vinsert
p995
I32
VMethodInvocation
p996
tp997
I2
s(Vinsert
p998
I42
VSimpleName: setHeaders
p999
Vinsert
p1000
I42
VSimpleName: addEntityToRequestBase
p1001
tp1002
I2
s(g721
I42
g722
Vinsert
p1003
I66
VTextElement:  Object TAG, can be null
p1004
tp1005
I1
s(g616
I42
g617
Vinsert
p1006
I39
VPrimitiveType: void
p1007
tp1008
I1
s(g749
I42
g750
Vinsert
p1009
I42
VSimpleName: Object
p1010
tp1011
I3
s(g957
I42
g958
Vinsert
p1012
I25
VIfStatement
p1013
tp1014
I1
s(g150
I42
g151
Vinsert
p1015
I27
VInfixExpression: !=
p1016
tp1017
I1
s(Vinsert
p1018
I42
VSimpleName: makeText
p1019
Vinsert
p1020
I42
VSimpleName: Override
p1021
tp1022
I1
s(g957
I42
g958
Vinsert
p1023
I27
VInfixExpression: ==
p1024
tp1025
I1
s(Vinsert
p1026
I42
VSimpleName: myLooper
p1027
Vinsert
p1028
I60
VVariableDeclarationStatement
p1029
tp1030
I1
s(g168
I42
g169
Vinsert
p1031
I42
VSimpleName: debugStatusCode
p1032
tp1033
I1
s(g432
I42
g433
Vinsert
p1034
I42
VSimpleName: Object
p1035
tp1036
I1
s(Vinsert
p1037
I42
VSimpleName: getName
p1038
Vinsert
p1039
I42
VSimpleName: cookie
p1040
tp1041
I2
s(g437
I42
g438
Vinsert
p1042
I42
VSimpleName: header
p1043
tp1044
I2
s(Vinsert
p1045
I42
VSimpleName: isEmpty
p1046
Vinsert
p1047
I34
VNumberLiteral: 1
p1048
tp1049
I1
s(Vinsert
p1050
I42
VSimpleName: get
p1051
Vinsert
p1052
I42
VSimpleName: responseHandler
p1053
tp1054
I4
s(g393
I42
g394
Vinsert
p1055
I42
VSimpleName: value
p1056
tp1057
I2
s(g555
I42
g556
Vinsert
p1058
I42
VSimpleName: startsWith
p1059
tp1060
I1
s(g41
I42
g42
Vinsert
p1061
I43
VSimpleType: Object
p1062
tp1063
I2
s(g414
I42
g415
Vinsert
p1064
I42
VSimpleName: e
p1065
tp1066
I6
s(g773
I42
g774
Vinsert
p1067
I42
VSimpleName: sendMessage
p1068
tp1069
I2
s(Vinsert
p1070
I42
VSimpleName: addView
p1071
Vinsert
p1072
I21
VExpressionStatement
p1073
tp1074
I2
s(Vinsert
p1075
I42
VSimpleName: run
p1076
Vinsert
p1077
I43
VSimpleType: Runnable
p1078
tp1079
I2
s(Vinsert
p1080
I42
VSimpleName: setLoggingLevel
p1081
Vinsert
p1082
I32
VMethodInvocation
p1083
tp1084
I1
s(Vinsert
p1085
I42
VSimpleName: startsWith
p1086
Vinsert
p1087
I45
VStringLiteral: "Response cannot be parsed as JSON data"
p1088
tp1089
I1
s(g784
I42
g785
Vinsert
p1090
I39
VPrimitiveType: int
p1091
tp1092
I2
s(g270
I42
g271
Vinsert
p1093
I8
VBlock
p1094
tp1095
I6
s(g1070
I42
g1071
Vinsert
p1096
I40
VQualifiedName: LinearLayout.LayoutParams
p1097
tp1098
I1
s(g265
I42
g266
Vinsert
p1099
I42
VSimpleName: MenuItem
p1100
tp1101
I1
s(g91
I42
g92
Vinsert
p1102
I43
VSimpleType: ArrayIndexOutOfBoundsException
p1103
tp1104
I2
s(g700
I42
g701
Vinsert
p1105
I27
VInfixExpression: &&
p1106
tp1107
I1
s(g66
I42
g67
Vinsert
p1108
I43
VSimpleType: AlertDialog
p1109
tp1110
I1
s(g252
I42
g253
Vinsert
p1111
I83
VModifier: static
p1112
tp1113
I1
s(g257
I42
g258
Vinsert
p1114
I42
VSimpleName: output_len
p1115
tp1116
I1
s(Vinsert
p1117
I42
VSimpleName: d
p1118
Vinsert
p1119
I34
VNumberLiteral: 1
p1120
tp1121
I1
s(Vinsert
p1122
I42
VSimpleName: keySet
p1123
Vinsert
p1124
I32
VMethodInvocation
p1125
tp1126
I1
s(Vinsert
p1127
I42
VSimpleName: getEntity
p1128
Vinsert
p1129
I27
VInfixExpression: !=
p1130
tp1131
I2
s(g76
I42
g77
Vinsert
p1132
I49
VSwitchCase
p1133
tp1134
I1
s(g365
I42
g366
Vinsert
p1135
I8
VBlock
p1136
tp1137
I1
s(g474
I42
g475
Vinsert
p1138
I42
VSimpleName: TAG
p1139
tp1140
I2
s(Vinsert
p1141
I42
VSimpleName: e
p1142
Vinsert
p1143
I42
VSimpleName: response
p1144
tp1145
I6
s(g125
I42
g126
Vinsert
p1146
I42
VSimpleName: asserts
p1147
tp1148
I1
s(g315
I42
g316
Vinsert
p1149
I42
VSimpleName: handleResponseMessage
p1150
tp1151
I1
s(g257
I42
g258
Vinsert
p1152
I42
VSimpleName: encoder
p1153
tp1154
I1
s(Vinsert
p1155
I42
VSimpleName: hasNext
p1156
Vinsert
p1157
I32
VMethodInvocation
p1158
tp1159
I3
s(Vinsert
p1160
I42
VSimpleName: write
p1161
Vinsert
p1162
I27
VInfixExpression: +
p1163
tp1164
I1
s(g689
I42
g690
Vinsert
p1165
I42
VSimpleName: IOException
p1166
tp1167
I2
s(g1155
I42
g1156
Vinsert
p1168
I42
VSimpleName: keys
p1169
tp1170
I3
s(Vinsert
p1171
I42
VSimpleName: d
p1172
Vinsert
p1173
I83
VModifier: static
p1174
tp1175
I1
s(g99
I42
g100
Vinsert
p1176
I43
VSimpleType: Thread
p1177
tp1178
I2
s(g616
I42
g617
Vinsert
p1179
I8
VBlock
p1180
tp1181
I1
s(g21
I42
g22
Vinsert
p1182
I45
VStringLiteral: "Content-Disposition: form-data; name=\u005c""
p1183
tp1184
I1
s(g537
I42
g538
Vinsert
p1185
I32
VMethodInvocation
p1186
tp1187
I2
s(Vinsert
p1188
I42
VSimpleName: getEntity
p1189
Vinsert
p1190
I60
VVariableDeclarationStatement
p1191
tp1192
I2
s(g523
I42
g524
Vinsert
p1193
I42
VSimpleName: pair
p1194
tp1195
I2
s(Vinsert
p1196
I42
VSimpleName: getAttribute
p1197
Vinsert
p1198
I42
VSimpleName: getAttribute
p1199
tp1200
I1
s(g437
I42
g438
Vinsert
p1201
I42
VSimpleName: headerName
p1202
tp1203
I1
s(g56
I42
g57
Vinsert
p1204
I60
VVariableDeclarationStatement
p1205
tp1206
I1
s(g173
I42
g174
Vinsert
p1207
I31
VMethodDeclaration
p1208
tp1209
I2
s(g985
I42
g986
Vinsert
p1210
I60
VVariableDeclarationStatement
p1211
tp1212
I1
s(g673
I42
g674
Vinsert
p1213
I52
VThisExpression
p1214
tp1215
I1
s(g1075
I42
g1076
Vinsert
p1216
I42
VSimpleName: parser
p1217
tp1218
I6
s(g295
I42
g296
Vinsert
p1219
I33
VNullLiteral
p1220
tp1221
I1
s(g731
I42
g732
Vinsert
p1222
I32
VMethodInvocation
p1223
tp1224
I1
s(g393
I42
g394
Vinsert
p1225
I42
VSimpleName: HttpParams
p1226
tp1227
I4
s(Vinsert
p1228
I42
VSimpleName: equalsIgnoreCase
p1229
Vinsert
p1230
I42
VSimpleName: getContentEncoding
p1231
tp1232
I1
s(g378
I42
g379
Vinsert
p1233
I42
VSimpleName: e
p1234
tp1235
I1
s(Vinsert
p1236
I42
VSimpleName: append
p1237
Vinsert
p1238
I43
VSimpleType: CharArrayBuffer
p1239
tp1240
I2
s(g819
I42
g820
Vinsert
p1241
I43
VSimpleType: UnsupportedEncodingException
p1242
tp1243
I2
s(g571
I42
g572
Vinsert
p1244
I21
VExpressionStatement
p1245
tp1246
I1
s(Vinsert
p1247
I42
VSimpleName: setUserAgent
p1248
Vinsert
p1249
I32
VMethodInvocation
p1250
tp1251
I1
s(g325
I42
g326
Vinsert
p1252
I27
VInfixExpression: ||
p1253
tp1254
I3
s(g325
I42
g326
Vinsert
p1255
I42
VSimpleName: debugFile
p1256
tp1257
I2
s(Vinsert
p1258
I42
VSimpleName: setHeaders
p1259
Vinsert
p1260
I42
VSimpleName: HttpHead
p1261
tp1262
I1
s(g285
I42
g286
Vinsert
p1263
I42
VSimpleName: destFile
p1264
tp1265
I1
s(g639
I42
g640
Vinsert
p1266
I42
VSimpleName: params
p1267
tp1268
I1
s(g437
I42
g438
Vinsert
p1269
I42
VSimpleName: headers
p1270
tp1271
I1
s(g560
I42
g561
Vinsert
p1272
I22
VFieldAccess
p1273
tp1274
I1
s(g684
I42
g685
Vinsert
p1275
I42
VSimpleName: key
p1276
tp1277
I1
s(Vinsert
p1278
I42
VSimpleName: get
p1279
Vinsert
p1280
I74
VParameterizedType: WeakReference<Future>
p1281
tp1282
I1
s(g183
I42
g184
Vinsert
p1283
I41
VReturnStatement
p1284
tp1285
I1
s(g178
I42
g179
Vinsert
p1286
I42
VSimpleName: handleRetryMessage
p1287
tp1288
I1
s(g576
I42
g577
Vinsert
p1289
I42
VSimpleName: List
p1290
tp1291
I2
s(Vinsert
p1292
I42
VSimpleName: split
p1293
Vinsert
p1294
I27
VInfixExpression: !=
p1295
tp1296
I1
s(g1196
I42
g1197
Vinsert
p1297
I11
VCastExpression
p1298
tp1299
I2
s(g537
I42
g538
Vinsert
p1300
I42
VSimpleName: rssReader
p1301
tp1302
I1
s(g310
I42
g311
Vinsert
p1303
I42
VSimpleName: LOG_TAG
p1304
tp1305
I3
s(Vinsert
p1306
I42
VSimpleName: equals
p1307
Vinsert
p1308
I42
VSimpleName: ACTION_RETRY
p1309
tp1310
I1
s(Vinsert
p1311
I42
VSimpleName: add
p1312
Vinsert
p1313
I42
VSimpleName: handle
p1314
tp1315
I2
s(g91
I42
g92
Vinsert
p1316
I60
VVariableDeclarationStatement
p1317
tp1318
I4
s(g163
I42
g164
Vinsert
p1319
I42
VSimpleName: httpClient
p1320
tp1321
I1
s(g265
I42
g266
Vinsert
p1322
I32
VMethodInvocation
p1323
tp1324
I1
s(g629
I42
g630
Vinsert
p1325
I32
VMethodInvocation
p1326
tp1327
I2
s(g1085
I42
g1086
Vinsert
p1328
I42
VSimpleName: jsonResponse
p1329
tp1330
I1
s(g120
I42
g121
Vinsert
p1331
I32
VMethodInvocation
p1332
tp1333
I2
s(g482
I42
g483
Vinsert
p1334
I39
VPrimitiveType: int
p1335
tp1336
I1
s(g71
I42
g72
Vinsert
p1337
I42
VSimpleName: Header
p1338
tp1339
I3
s(Vinsert
p1340
I42
VSimpleName: sendFailureMessage
p1341
Vinsert
p1342
I42
VSimpleName: Throwable
p1343
tp1344
I1
s(g576
I42
g577
Vinsert
p1345
I42
VSimpleName: requestMap
p1346
tp1347
I2
s(g726
I42
g727
Vinsert
p1348
I42
VSimpleName: Integer
p1349
tp1350
I4
s(g115
I42
g116
Vinsert
p1351
I42
VSimpleName: thrown
p1352
tp1353
I1
s(g634
I42
g635
Vinsert
p1354
I8
VBlock
p1355
tp1356
I6
s(Vinsert
p1357
I42
VSimpleName: size
p1358
Vinsert
p1359
I42
VSimpleName: Object
p1360
tp1361
I2
s(g46
I42
g47
Vinsert
p1362
I60
VVariableDeclarationStatement
p1363
tp1364
I1
s(g213
I42
g214
Vinsert
p1365
I43
VSimpleType: SocketTimeoutException
p1366
tp1367
I1
s(g798
I42
g799
Vinsert
p1368
I7
VAssignment: =
p1369
tp1370
I1
s(g145
I42
g146
Vinsert
p1371
I83
VModifier: public
p1372
tp1373
I1
s(g492
I42
g493
Vinsert
p1374
I21
VExpressionStatement
p1375
tp1376
I2
s(Vinsert
p1377
I42
VSimpleName: readValues
p1378
Vinsert
p1379
I42
VSimpleName: SampleJSON
p1380
tp1381
I1
s(g86
I42
g87
Vinsert
p1382
I42
VSimpleName: isFinished
p1383
tp1384
I1
s(g110
I42
g111
Vinsert
p1385
I42
VSimpleName: contentEncoding
p1386
tp1387
I1
s(g590
I42
g591
Vinsert
p1388
I46
VSuperConstructorInvocation
p1389
tp1390
I2
s(Vinsert
p1391
I42
VSimpleName: add
p1392
Vinsert
p1393
I42
VSimpleName: LinkedList
p1394
tp1395
I1
s(g320
I42
g321
Vinsert
p1396
I27
VInfixExpression: +
p1397
tp1398
I3
s(g819
I42
g820
Vinsert
p1399
I42
VSimpleName: e
p1400
tp1401
I6
s(g305
I42
g306
Vinsert
p1402
I9
VBooleanLiteral: false
p1403
tp1404
I1
s(g985
I42
g986
Vinsert
p1405
I8
VBlock
p1406
tp1407
I1
s(g469
I42
g470
Vinsert
p1408
I21
VExpressionStatement
p1409
tp1410
I3
s(g81
I42
g82
Vinsert
p1411
I42
VSimpleName: instream
p1412
tp1413
I1
s(g1085
I42
g1086
Vinsert
p1414
I32
VMethodInvocation
p1415
tp1416
I4
s(g482
I42
g483
Vinsert
p1417
I43
VSimpleType: ArrayList
p1418
tp1419
I1
s(g957
I42
g958
Vinsert
p1420
I42
VSimpleName: Message
p1421
tp1422
I2
s(Vinsert
p1423
I42
VSimpleName: intValue
p1424
Vinsert
p1425
I42
VSimpleName: statusCode
p1426
tp1427
I3
s(g173
I42
g174
Vinsert
p1428
I42
VSimpleName: Log
p1429
tp1430
I12
s(g56
I42
g57
Vinsert
p1431
I59
VVariableDeclarationFragment
p1432
tp1433
I1
s(Vinsert
p1434
I42
VSimpleName: isCancelled
p1435
Vinsert
p1436
I42
VSimpleName: onCancelButtonPressed
p1437
tp1438
I1
s(Vinsert
p1439
I42
VSimpleName: start
p1440
Vinsert
p1441
I12
VCatchClause
p1442
tp1443
I1
s(Vinsert
p1444
I42
VSimpleName: setText
p1445
Vinsert
p1446
I42
VSimpleName: setChecked
p1447
tp1448
I1
s(g492
I42
g493
Vinsert
p1449
I42
VSimpleName: setRedirectHandler
p1450
tp1451
I1
s(g1018
I42
g1019
Vinsert
p1452
I39
VPrimitiveType: void
p1453
tp1454
I1
s(g1391
I42
g1392
Vinsert
p1455
I42
VSimpleName: List
p1456
tp1457
I1
s(g673
I42
g674
Vinsert
p1458
I42
VSimpleName: request
p1459
tp1460
I2
s(g684
I42
g685
Vinsert
p1461
I42
VSimpleName: createHeader
p1462
tp1463
I1
s(g1377
I42
g1378
Vinsert
p1464
I32
VMethodInvocation
p1465
tp1466
I4
s(g41
I42
g42
Vinsert
p1467
I31
VMethodDeclaration
p1468
tp1469
I3
s(Vinsert
p1470
I42
VSimpleName: valueOf
p1471
Vinsert
p1472
I34
VNumberLiteral: 2
p1473
tp1474
I1
s(g1026
I42
g1027
Vinsert
p1475
I42
VSimpleName: r
p1476
tp1477
I1
s(g41
I42
g42
Vinsert
p1478
I22
VFieldAccess
p1479
tp1480
I1
s(g270
I42
g271
Vinsert
p1481
I43
VSimpleType: Menu
p1482
tp1483
I1
s(g1075
I42
g1076
Vinsert
p1484
I32
VMethodInvocation
p1485
tp1486
I4
s(g451
I42
g452
Vinsert
p1487
I43
VSimpleType: HttpResponseException
p1488
tp1489
I1
s(Vinsert
p1490
I42
VSimpleName: d
p1491
Vinsert
p1492
I43
VSimpleType: ResponseHandlerInterface
p1493
tp1494
I1
s(g1236
I42
g1237
Vinsert
p1495
I8
VBlock
p1496
tp1497
I1
s(g971
I42
g972
Vinsert
p1498
I70
VEnhancedForStatement
p1499
tp1500
I1
s(g993
I42
g994
Vinsert
p1501
I27
VInfixExpression: &&
p1502
tp1503
I1
s(Vinsert
p1504
I42
VSimpleName: sendFailureMessage
p1505
Vinsert
p1506
I42
VSimpleName: isImageResponseHandler
p1507
tp1508
I1
s(Vinsert
p1509
I42
VSimpleName: getFixedSocketFactory
p1510
Vinsert
p1511
I32
VMethodInvocation
p1512
tp1513
I1
s(Vinsert
p1514
I42
VSimpleName: replace
p1515
Vinsert
p1516
I66
VTextElement:  RequestParams to be appended on the end of URL
p1517
tp1518
I1
s(g1160
I42
g1161
Vinsert
p1519
I45
VStringLiteral: "Content-Type: "
p1520
tp1521
I1
s(g665
I42
g666
Vinsert
p1522
I42
VSimpleName: handler
p1523
tp1524
I2
s(g621
I42
g622
Vinsert
p1525
I42
VSimpleName: params
p1526
tp1527
I2
s(g1075
I42
g1076
Vinsert
p1528
I42
VSimpleName: getUseSynchronousMode
p1529
tp1530
I2
s(Vinsert
p1531
I42
VSimpleName: sendCancelMessage
p1532
Vinsert
p1533
I42
VSimpleName: isFinished
p1534
tp1535
I1
s(g705
I42
g706
Vinsert
p1536
I42
VSimpleName: value
p1537
tp1538
I2
s(g197
I42
g198
Vinsert
p1539
I74
VParameterizedType: List<Future>
p1540
tp1541
I1
s(g838
I42
g839
Vinsert
p1542
I32
VMethodInvocation
p1543
tp1544
I1
s(g1045
I42
g1046
Vinsert
p1545
I37
VPostfixExpression: ++
p1546
tp1547
I1
s(g404
I42
g405
Vinsert
p1548
I42
VSimpleName: sendRequest
p1549
tp1550
I2
s(Vinsert
p1551
I42
VSimpleName: keyAt
p1552
Vinsert
p1553
I42
VSimpleName: get
p1554
tp1555
I1
s(Vinsert
p1556
I42
VSimpleName: d
p1557
Vinsert
p1558
I42
VSimpleName: file
p1559
tp1560
I2
s(g838
I42
g839
Vinsert
p1561
I42
VSimpleName: URL
p1562
tp1563
I1
s(g1551
I42
g1552
Vinsert
p1564
I45
VStringLiteral: ": "
p1565
tp1566
I1
s(g1377
I42
g1378
Vinsert
p1567
I42
VSimpleName: parseResponse
p1568
tp1569
I1
s(g66
I42
g67
Vinsert
p1570
I14
VClassInstanceCreation
p1571
tp1572
I1
s(g11
I42
g12
Vinsert
p1573
I65
VTagElement: @param
p1574
tp1575
I1
s(Vinsert
p1576
I42
VSimpleName: create
p1577
Vinsert
p1578
I42
VSimpleName: HttpPatch
p1579
tp1580
I2
s(g1236
I42
g1237
Vinsert
p1581
I42
VSimpleName: AuthenticationException
p1582
tp1583
I1
s(g140
I42
g141
Vinsert
p1584
I8
VBlock
p1585
tp1586
I3
s(g1514
I42
g1515
Vinsert
p1587
I7
VAssignment: =
p1588
tp1589
I1
s(Vinsert
p1590
I42
VSimpleName: getParams
p1591
Vinsert
p1592
I8
VBlock
p1593
tp1594
I1
s(g1470
I42
g1471
Vinsert
p1595
I7
VAssignment: +=
p1596
tp1597
I1
s(g120
I42
g121
Vinsert
p1598
I42
VSimpleName: responseBody
p1599
tp1600
I2
s(g1080
I42
g1081
Vinsert
p1601
I42
VSimpleName: log
p1602
tp1603
I1
s(g414
I42
g415
Vinsert
p1604
I27
VInfixExpression: !=
p1605
tp1606
I7
s(g1075
I42
g1076
Vinsert
p1607
I42
VSimpleName: run
p1608
tp1609
I2
s(g920
I42
g921
Vinsert
p1610
I42
VSimpleName: maxConnections
p1611
tp1612
I2
s(g310
I42
g311
Vinsert
p1613
I42
VSimpleName: URL
p1614
tp1615
I1
s(Vinsert
p1616
I42
VSimpleName: e
p1617
Vinsert
p1618
I27
VInfixExpression: >=
p1619
tp1620
I1
s(g91
I42
g92
Vinsert
p1621
I42
VSimpleName: start
p1622
tp1623
I2
s(g726
I42
g727
Vinsert
p1624
I42
VSimpleName: TargetApi
p1625
tp1626
I3
s(g110
I42
g111
Vinsert
p1627
I7
VAssignment: =
p1628
tp1629
I2
s(Vinsert
p1630
I42
VSimpleName: add
p1631
Vinsert
p1632
I42
VSimpleName: Class
p1633
tp1634
I1
s(g547
I42
g548
Vinsert
p1635
I32
VMethodInvocation
p1636
tp1637
I1
s(g1423
I42
g1424
Vinsert
p1638
I60
VVariableDeclarationStatement
p1639
tp1640
I2
s(g993
I42
g994
Vinsert
p1641
I43
VSimpleType: String
p1642
tp1643
I1
s(g168
I42
g169
Vinsert
p1644
I42
VSimpleName: statusCode
p1645
tp1646
I1
s(g11
I42
g12
Vinsert
p1647
I42
VSimpleName: String
p1648
tp1649
I1
s(g388
I42
g389
Vinsert
p1650
I44
VSingleVariableDeclaration
p1651
tp1652
I4
s(g163
I42
g164
Vinsert
p1653
I42
VSimpleName: context
p1654
tp1655
I1
s(g71
I42
g72
Vinsert
p1656
I42
VSimpleName: Integer
p1657
tp1658
I3
s(g634
I42
g635
Vinsert
p1659
I42
VSimpleName: ResponseHandlerInterface
p1660
tp1661
I1
s(g178
I42
g179
Vinsert
p1662
I42
VSimpleName: forceSynchronous
p1663
tp1664
I1
s(g183
I42
g184
Vinsert
p1665
I8
VBlock
p1666
tp1667
I1
s(g325
I42
g326
Vinsert
p1668
I39
VPrimitiveType: void
p1669
tp1670
I2
s(g1630
I42
g1631
Vinsert
p1671
I42
VSimpleName: addClassToBlacklist
p1672
tp1673
I1
s(g155
I42
g156
Vinsert
p1674
I21
VExpressionStatement
p1675
tp1676
I4
s(g1340
I42
g1341
Vinsert
p1677
I43
VSimpleType: Throwable
p1678
tp1679
I1
s(g838
I42
g839
Vinsert
p1680
I42
VSimpleName: _uri
p1681
tp1682
I1
s(Vinsert
p1683
I42
VSimpleName: write
p1684
Vinsert
p1685
I42
VSimpleName: BUFFER_SIZE
p1686
tp1687
I1
s(g1
I42
g2
Vinsert
p1688
I42
VSimpleName: counter
p1689
tp1690
I1
s(Vinsert
p1691
I42
VSimpleName: values
p1692
Vinsert
p1693
I42
VSimpleName: cancelAllRequests
p1694
tp1695
I1
s(g1080
I42
g1081
Vinsert
p1696
I65
VTagElement: @link
p1697
tp1698
I1
s(g1434
I42
g1435
Vinsert
p1699
I8
VBlock
p1700
tp1701
I2
s(g744
I42
g745
Vinsert
p1702
I11
VCastExpression
p1703
tp1704
I2
s(g1247
I42
g1248
Vinsert
p1705
I66
VTextElement: Sets the User-Agent header to be sent with each request. By default,
p1706
tp1707
I1
s(g115
I42
g116
Vinsert
p1708
I42
VSimpleName: flags
p1709
tp1710
I1
s(g414
I42
g415
Vinsert
p1711
I42
VSimpleName: ClientProtocolException
p1712
tp1713
I2
s(g665
I42
g666
Vinsert
p1714
I44
VSingleVariableDeclaration
p1715
tp1716
I4
s(g611
I42
g612
Vinsert
p1717
I42
VSimpleName: Exception
p1718
tp1719
I1
s(g1630
I42
g1631
Vinsert
p1720
I43
VSimpleType: Class
p1721
tp1722
I1
s(g689
I42
g690
Vinsert
p1723
I42
VSimpleName: AsyncHttpResponseHandler
p1724
tp1725
I1
s(g1228
I42
g1229
Vinsert
p1726
I43
VSimpleType: Header
p1727
tp1728
I1
s(Vinsert
p1729
I42
VSimpleName: length
p1730
Vinsert
p1731
I25
VIfStatement
p1732
tp1733
I1
s(g66
I42
g67
Vinsert
p1734
I42
VSimpleName: ad
p1735
tp1736
I1
s(g1188
I42
g1189
Vinsert
p1737
I8
VBlock
p1738
tp1739
I2
s(Vinsert
p1740
I42
VSimpleName: e
p1741
Vinsert
p1742
I40
VQualifiedName: java.util.regex.PatternSyntaxException
p1743
tp1744
I1
s(g1377
I42
g1378
Vinsert
p1745
I44
VSingleVariableDeclaration
p1746
tp1747
I3
s(g689
I42
g690
Vinsert
p1748
I43
VSimpleType: HttpEntity
p1749
tp1750
I1
s(g56
I42
g57
Vinsert
p1751
I33
VNullLiteral
p1752
tp1753
I1
s(g1514
I42
g1515
Vinsert
p1754
I21
VExpressionStatement
p1755
tp1756
I1
s(g388
I42
g389
Vinsert
p1757
I42
VSimpleName: urlParams
p1758
tp1759
I2
s(g393
I42
g394
Vinsert
p1760
I32
VMethodInvocation
p1761
tp1762
I5
s(g909
I42
g910
Vinsert
p1763
I42
VSimpleName: JSONArray
p1764
tp1765
I1
s(g1045
I42
g1046
Vinsert
p1766
I21
VExpressionStatement
p1767
tp1768
I2
s(g768
I42
g769
Vinsert
p1769
I32
VMethodInvocation
p1770
tp1771
I2
s(g280
I42
g281
Vinsert
p1772
I43
VSimpleType: JSON_TYPE
p1773
tp1774
I1
s(g414
I42
g415
Vinsert
p1775
I8
VBlock
p1776
tp1777
I18
s(g11
I42
g12
Vinsert
p1778
I44
VSingleVariableDeclaration
p1779
tp1780
I1
s(g1122
I42
g1123
Vinsert
p1781
I42
VSimpleName: value
p1782
tp1783
I1
s(g1037
I42
g1038
Vinsert
p1784
I43
VSimpleType: Cookie
p1785
tp1786
I1
s(Vinsert
p1787
I42
VSimpleName: valueOf
p1788
Vinsert
p1789
I85
VDimension
p1790
tp1791
I1
s(g657
I42
g658
Vinsert
p1792
I42
VSimpleName: rssReader
p1793
tp1794
I2
s(g705
I42
g706
Vinsert
p1795
I8
VBlock
p1796
tp1797
I1
s(g1531
I42
g1532
Vinsert
p1798
I32
VMethodInvocation
p1799
tp1800
I1
s(g537
I42
g538
Vinsert
p1801
I42
VSimpleName: sparser
p1802
tp1803
I2
s(g140
I42
g141
Vinsert
p1804
I42
VSimpleName: error
p1805
tp1806
I1
s(g1729
I42
g1730
Vinsert
p1807
I83
VModifier: public
p1808
tp1809
I1
s(g673
I42
g674
Vinsert
p1810
I42
VSimpleName: mayInterruptIfRunning
p1811
tp1812
I1
s(g705
I42
g706
Vinsert
p1813
I42
VSimpleName: upload
p1814
tp1815
I1
s(g1490
I42
g1491
Vinsert
p1816
I42
VSimpleName: call
p1817
tp1818
I1
s(g330
I42
g331
Vinsert
p1819
I42
VSimpleName: responseHandler
p1820
tp1821
I1
s(g300
I42
g301
Vinsert
p1822
I42
VSimpleName: statusCode
p1823
tp1824
I1
s(g150
I42
g151
Vinsert
p1825
I21
VExpressionStatement
p1826
tp1827
I1
s(g223
I42
g224
Vinsert
p1828
I42
VSimpleName: getColoredView
p1829
tp1830
I1
s(g21
I42
g22
Vinsert
p1831
I42
VSimpleName: createContentDisposition
p1832
tp1833
I1
s(g365
I42
g366
Vinsert
p1834
I42
VSimpleName: jsonResponse
p1835
tp1836
I2
s(g547
I42
g548
Vinsert
p1837
I42
VSimpleName: Class
p1838
tp1839
I1
s(g352
I42
g353
Vinsert
p1840
I42
VSimpleName: Log
p1841
tp1842
I1
s(g895
I42
g896
Vinsert
p1843
I42
VSimpleName: Object
p1844
tp1845
I1
s(g1787
I42
g1788
Vinsert
p1846
I42
VSimpleName: Object
p1847
tp1848
I1
s(g1729
I42
g1730
Vinsert
p1849
I42
VSimpleName: sendNextRangeRequest
p1850
tp1851
I1
s(g744
I42
g745
Vinsert
p1852
I34
VNumberLiteral: 2
p1853
tp1854
I2
s(g814
I42
g815
Vinsert
p1855
I33
VNullLiteral
p1856
tp1857
I2
s(g1141
I42
g1142
Vinsert
p1858
I2
VArrayAccess
p1859
tp1860
I3
s(g432
I42
g433
Vinsert
p1861
I74
VParameterizedType: ConcurrentHashMap.Entry<String,Object>
p1862
tp1863
I1
s(g71
I42
g72
Vinsert
p1864
I34
VNumberLiteral: 2
p1865
tp1866
I3
s(g365
I42
g366
Vinsert
p1867
I14
VClassInstanceCreation
p1868
tp1869
I1
s(g1434
I42
g1435
Vinsert
p1870
I38
VPrefixExpression: !
p1871
tp1872
I1
s(g168
I42
g169
Vinsert
p1873
I27
VInfixExpression: !=
p1874
tp1875
I1
s(g665
I42
g666
Vinsert
p1876
I43
VSimpleType: Runnable
p1877
tp1878
I2
s(g437
I42
g438
Vinsert
p1879
I43
VSimpleType: Header
p1880
tp1881
I1
s(Vinsert
p1882
I42
VSimpleName: format
p1883
Vinsert
p1884
I42
VSimpleName: LOG_TAG
p1885
tp1886
I3
s(g571
I42
g572
Vinsert
p1887
I60
VVariableDeclarationStatement
p1888
tp1889
I1
s(g320
I42
g321
Vinsert
p1890
I42
VSimpleName: cause
p1891
tp1892
I3
s(g487
I42
g488
Vinsert
p1893
I59
VVariableDeclarationFragment
p1894
tp1895
I2
s(g11
I42
g12
Vinsert
p1896
I32
VMethodInvocation
p1897
tp1898
I1
s(g665
I42
g666
Vinsert
p1899
I25
VIfStatement
p1900
tp1901
I2
s(g1075
I42
g1076
Vinsert
p1902
I42
VSimpleName: Runnable
p1903
tp1904
I2
s(Vinsert
p1905
I42
VSimpleName: printStackTrace
p1906
Vinsert
p1907
I43
VSimpleType: IOException
p1908
tp1909
I1
s(Vinsert
p1910
I42
VSimpleName: write
p1911
Vinsert
p1912
I42
VSimpleName: out
p1913
tp1914
I2
s(g91
I42
g92
Vinsert
p1915
I42
VSimpleName: end
p1916
tp1917
I2
s(g739
I42
g740
Vinsert
p1918
I43
VSimpleType: String
p1919
tp1920
I1
s(g547
I42
g548
Vinsert
p1921
I8
VBlock
p1922
tp1923
I2
s(g469
I42
g470
Vinsert
p1924
I83
VModifier: public
p1925
tp1926
I3
s(g1117
I42
g1118
Vinsert
p1927
I34
VNumberLiteral: 80
p1928
tp1929
I1
s(g325
I42
g326
Vinsert
p1930
I32
VMethodInvocation
p1931
tp1932
I3
s(g393
I42
g394
Vinsert
p1933
I16
VConditionalExpression
p1934
tp1935
I1
s(g145
I42
g146
Vinsert
p1936
I42
VSimpleName: addHeader
p1937
tp1938
I1
s(g330
I42
g331
Vinsert
p1939
I42
VSimpleName: onPreProcess
p1940
tp1941
I1
s(g1018
I42
g1019
Vinsert
p1942
I40
VQualifiedName: android.widget.Toast
p1943
tp1944
I1
s(g71
I42
g72
Vinsert
p1945
I11
VCastExpression
p1946
tp1947
I6
s(g1377
I42
g1378
Vinsert
p1948
I42
VSimpleName: ObjectMapper
p1949
tp1950
I2
s(Vinsert
p1951
I42
VSimpleName: v
p1952
Vinsert
p1953
I78
VMarkerAnnotation
p1954
tp1955
I1
s(g71
I42
g72
Vinsert
p1956
I42
VSimpleName: response
p1957
tp1958
I6
s(g952
I42
g953
Vinsert
p1959
I21
VExpressionStatement
p1960
tp1961
I1
s(g1070
I42
g1071
Vinsert
p1962
I9
VBooleanLiteral: true
p1963
tp1964
I1
s(g1504
I42
g1505
Vinsert
p1965
I11
VCastExpression
p1966
tp1967
I1
s(g1188
I42
g1189
Vinsert
p1968
I54
VTryStatement
p1969
tp1970
I1
s(g1228
I42
g1229
Vinsert
p1971
I27
VInfixExpression: ||
p1972
tp1973
I1
s(g163
I42
g164
Vinsert
p1974
I42
VSimpleName: responseHandler
p1975
tp1976
I2
s(g1951
I42
g1952
Vinsert
p1977
I31
VMethodDeclaration
p1978
tp1979
I1
s(g1236
I42
g1237
Vinsert
p1980
I34
VNumberLiteral: 32
p1981
tp1982
I1
s(g120
I42
g121
Vinsert
p1983
I59
VVariableDeclarationFragment
p1984
tp1985
I1
s(g414
I42
g415
Vinsert
p1986
I12
VCatchClause
p1987
tp1988
I7
s(g427
I42
g428
Vinsert
p1989
I32
VMethodInvocation
p1990
tp1991
I2
s(g378
I42
g379
Vinsert
p1992
I42
VSimpleName: data
p1993
tp1994
I1
s(g629
I42
g630
Vinsert
p1995
I41
VReturnStatement
p1996
tp1997
I1
s(g590
I42
g591
Vinsert
p1998
I66
VTextElement: Creates a new SyncHttpClient.
p1999
tp2000
I1
s(g1357
I42
g1358
Vinsert
p2001
I25
VIfStatement
p2002
tp2003
I1
s(g1122
I42
g1123
Vinsert
p2004
I74
VParameterizedType: Map<String,Object>
p2005
tp2006
I1
s(g657
I42
g658
Vinsert
p2007
I42
VSimpleName: setContentHandler
p2008
tp2009
I1
s(g295
I42
g296
Vinsert
p2010
I27
VInfixExpression: !=
p2011
tp2012
I1
s(g16
I42
g17
Vinsert
p2013
I33
VNullLiteral
p2014
tp2015
I1
s(g1311
I42
g1312
Vinsert
p2016
I27
VInfixExpression: !=
p2017
tp2018
I1
s(g652
I42
g653
Vinsert
p2019
I42
VSimpleName: Log
p2020
tp2021
I14
s(g300
I42
g301
Vinsert
p2022
I8
VBlock
p2023
tp2024
I1
s(Vinsert
p2025
I42
VSimpleName: readLine
p2026
Vinsert
p2027
I42
VSimpleName: reader
p2028
tp2029
I1
s(g768
I42
g769
Vinsert
p2030
I42
VSimpleName: readStatus
p2031
tp2032
I1
s(g163
I42
g164
Vinsert
p2033
I42
VSimpleName: uriRequest
p2034
tp2035
I1
s(g280
I42
g281
Vinsert
p2036
I11
VCastExpression
p2037
tp2038
I1
s(g218
I42
g219
Vinsert
p2039
I42
VSimpleName: e
p2040
tp2041
I2
s(g555
I42
g556
Vinsert
p2042
I45
VStringLiteral: "{"
p2043
tp2044
I1
s(g985
I42
g986
Vinsert
p2045
I21
VExpressionStatement
p2046
tp2047
I1
s(g155
I42
g156
Vinsert
p2048
I42
VSimpleName: retry
p2049
tp2050
I2
s(g1127
I42
g1128
Vinsert
p2051
I25
VIfStatement
p2052
tp2053
I1
s(g56
I42
g57
Vinsert
p2054
I42
VSimpleName: Looper
p2055
tp2056
I1
s(g1070
I42
g1071
Vinsert
p2057
I42
VSimpleName: content_wrapper
p2058
tp2059
I1
s(g1444
I42
g1445
Vinsert
p2060
I42
VSimpleName: CheckBox
p2061
tp2062
I1
s(g242
I42
g243
Vinsert
p2063
I42
VSimpleName: entity
p2064
tp2065
I1
s(g523
I42
g524
Vinsert
p2066
I42
VSimpleName: key
p2067
tp2068
I1
s(g497
I42
g498
Vinsert
p2069
I42
VSimpleName: kv
p2070
tp2071
I1
s(g1155
I42
g1156
Vinsert
p2072
I42
VSimpleName: String
p2073
tp2074
I1
s(g952
I42
g953
Vinsert
p2075
I42
VSimpleName: out
p2076
tp2077
I1
s(g140
I42
g141
Vinsert
p2078
I7
VAssignment: =
p2079
tp2080
I2
s(g1787
I42
g1788
Vinsert
p2081
I43
VSimpleType: Object
p2082
tp2083
I1
s(g285
I42
g286
Vinsert
p2084
I32
VMethodInvocation
p2085
tp2086
I8
s(g1228
I42
g1229
Vinsert
p2087
I32
VMethodInvocation
p2088
tp2089
I2
s(g1306
I42
g1307
Vinsert
p2090
I42
VSimpleName: ACTION_CANCEL
p2091
tp2092
I1
s(g1514
I42
g1515
Vinsert
p2093
I42
VSimpleName: isUrlEncodingEnabled
p2094
tp2095
I2
s(g542
I42
g543
Vinsert
p2096
I43
VSimpleType: ArrayList
p2097
tp2098
I1
s(g713
I42
g714
Vinsert
p2099
I42
VSimpleName: SocketTimeoutException
p2100
tp2101
I1
s(g1470
I42
g1471
Vinsert
p2102
I42
VSimpleName: len
p2103
tp2104
I1
s(g1444
I42
g1445
Vinsert
p2105
I52
VThisExpression
p2106
tp2107
I1
s(g846
I42
g847
Vinsert
p2108
I43
VSimpleType: FileNotFoundException
p2109
tp2110
I1
s(Vinsert
p2111
I42
VSimpleName: close
p2112
Vinsert
p2113
I54
VTryStatement
p2114
tp2115
I2
s(g155
I42
g156
Vinsert
p2116
I8
VBlock
p2117
tp2118
I2
s(g647
I42
g648
Vinsert
p2119
I83
VModifier: private
p2120
tp2121
I1
s(g173
I42
g174
Vinsert
p2122
I41
VReturnStatement
p2123
tp2124
I1
s(g993
I42
g994
Vinsert
p2125
I36
VParenthesizedExpression
p2126
tp2127
I1
s(g726
I42
g727
Vinsert
p2128
I27
VInfixExpression: >
p2129
tp2130
I2
s(g99
I42
g100
Vinsert
p2131
I39
VPrimitiveType: void
p2132
tp2133
I7
s(g1085
I42
g1086
Vinsert
p2134
I8
VBlock
p2135
tp2136
I1
s(g616
I42
g617
Vinsert
p2137
I66
VTextElement:   the contents of the header
p2138
tp2139
I1
s(g1683
I42
g1684
Vinsert
p2140
I42
VSimpleName: HEADER_GZIP_ENCODING
p2141
tp2142
I1
s(g1045
I42
g1046
Vinsert
p2143
I27
VInfixExpression: ||
p2144
tp2145
I1
s(Vinsert
p2146
I42
VSimpleName: sendFailureMessage
p2147
Vinsert
p2148
I43
VSimpleType: SocketException
p2149
tp2150
I1
s(g2111
I42
g2112
Vinsert
p2151
I44
VSingleVariableDeclaration
p2152
tp2153
I1
s(g1080
I42
g1081
Vinsert
p2154
I83
VModifier: public
p2155
tp2156
I1
s(g1905
I42
g1906
Vinsert
p2157
I42
VSimpleName: close
p2158
tp2159
I1
s(g652
I42
g653
Vinsert
p2160
I27
VInfixExpression: !=
p2161
tp2162
I3
s(Vinsert
p2163
I42
VSimpleName: add
p2164
Vinsert
p2165
I59
VVariableDeclarationFragment
p2166
tp2167
I1
s(g629
I42
g630
Vinsert
p2168
I39
VPrimitiveType: int
p2169
tp2170
I1
s(g1085
I42
g1086
Vinsert
p2171
I38
VPrefixExpression: !
p2172
tp2173
I1
s(g739
I42
g740
Vinsert
p2174
I8
VBlock
p2175
tp2176
I1
s(Vinsert
p2177
I42
VSimpleName: getCredentialsProvider
p2178
Vinsert
p2179
I39
VPrimitiveType: int
p2180
tp2181
I1
s(g993
I42
g994
Vinsert
p2182
I42
VSimpleName: jsonString
p2183
tp2184
I1
s(g784
I42
g785
Vinsert
p2185
I42
VSimpleName: color
p2186
tp2187
I1
s(g315
I42
g316
Vinsert
p2188
I60
VVariableDeclarationStatement
p2189
tp2190
I1
s(g1306
I42
g1307
Vinsert
p2191
I8
VBlock
p2192
tp2193
I2
s(g365
I42
g366
Vinsert
p2194
I27
VInfixExpression: +
p2195
tp2196
I1
s(g1729
I42
g1730
Vinsert
p2197
I52
VThisExpression
p2198
tp2199
I1
s(g56
I42
g57
Vinsert
p2200
I25
VIfStatement
p2201
tp2202
I1
s(g713
I42
g714
Vinsert
p2203
I21
VExpressionStatement
p2204
tp2205
I2
s(g285
I42
g286
Vinsert
p2206
I45
VStringLiteral: "): (bytes="
p2207
tp2208
I2
s(g208
I42
g209
Vinsert
p2209
I42
VSimpleName: AsyncHttpRequest
p2210
tp2211
I1
s(g1127
I42
g1128
Vinsert
p2212
I42
VSimpleName: getEntity
p2213
tp2214
I1
s(g86
I42
g87
Vinsert
p2215
I42
VSimpleName: AtomicBoolean
p2216
tp2217
I1
s(g809
I42
g810
Vinsert
p2218
I42
VSimpleName: Header
p2219
tp2220
I2
s(g700
I42
g701
Vinsert
p2221
I42
VSimpleName: cancelButton
p2222
tp2223
I3
s(g731
I42
g732
Vinsert
p2224
I8
VBlock
p2225
tp2226
I1
s(g285
I42
g286
Vinsert
p2227
I42
VSimpleName: addView
p2228
tp2229
I2
s(g140
I42
g141
Vinsert
p2230
I32
VMethodInvocation
p2231
tp2232
I4
s(g223
I42
g224
Vinsert
p2233
I39
VPrimitiveType: long
p2234
tp2235
I2
s(g1951
I42
g1952
Vinsert
p2236
I44
VSingleVariableDeclaration
p2237
tp2238
I1
s(g295
I42
g296
Vinsert
p2239
I42
VSimpleName: removeAttribute
p2240
tp2241
I1
s(g120
I42
g121
Vinsert
p2242
I21
VExpressionStatement
p2243
tp2244
I1
s(g713
I42
g714
Vinsert
p2245
I57
VTypeLiteral
p2246
tp2247
I2
s(g300
I42
g301
Vinsert
p2248
I32
VMethodInvocation
p2249
tp2250
I2
s(g178
I42
g179
Vinsert
p2251
I27
VInfixExpression: ==
p2252
tp2253
I1
s(g1787
I42
g1788
Vinsert
p2254
I42
VSimpleName: sendMessage
p2255
tp2256
I1
s(g1470
I42
g1471
Vinsert
p2257
I34
VNumberLiteral: 0
p2258
tp2259
I1
s(g773
I42
g774
Vinsert
p2260
I42
VSimpleName: handler
p2261
tp2262
I4
s(g325
I42
g326
Vinsert
p2263
I27
VInfixExpression: ==
p2264
tp2265
I3
s(g2111
I42
g2112
Vinsert
p2266
I27
VInfixExpression: !=
p2267
tp2268
I3
s(g629
I42
g630
Vinsert
p2269
I42
VSimpleName: autoClose
p2270
tp2271
I1
s(g689
I42
g690
Vinsert
p2272
I43
VSimpleType: IOException
p2273
tp2274
I1
s(Vinsert
p2275
I42
VSimpleName: sendFailureMessage
p2276
Vinsert
p2277
I43
VSimpleType: UnknownHostException
p2278
tp2279
I1
s(g208
I42
g209
Vinsert
p2280
I14
VClassInstanceCreation
p2281
tp2282
I1
s(g1278
I42
g1279
Vinsert
p2283
I42
VSimpleName: Future
p2284
tp2285
I2
s(g1160
I42
g1161
Vinsert
p2286
I7
VAssignment: =
p2287
tp2288
I1
s(g1188
I42
g1189
Vinsert
p2289
I42
VSimpleName: temp
p2290
tp2291
I1
s(g487
I42
g488
Vinsert
p2292
I42
VSimpleName: getFirstHeader
p2293
tp2294
I1
s(g1018
I42
g1019
Vinsert
p2295
I31
VMethodDeclaration
p2296
tp2297
I1
s(g629
I42
g630
Vinsert
p2298
I8
VBlock
p2299
tp2300
I1
s(g744
I42
g745
Vinsert
p2301
I42
VSimpleName: response
p2302
tp2303
I4
s(g760
I42
g761
Vinsert
p2304
I38
VPrefixExpression: !
p2305
tp2306
I2
s(g1905
I42
g1906
Vinsert
p2307
I42
VSimpleName: e
p2308
tp2309
I2
s(g492
I42
g493
Vinsert
p2310
I83
VModifier: public
p2311
tp2312
I2
s(g135
I42
g136
Vinsert
p2313
I40
VQualifiedName: org.json.JSONArray
p2314
tp2315
I1
s(g665
I42
g666
Vinsert
p2316
I42
VSimpleName: Runnable
p2317
tp2318
I2
s(g616
I42
g617
Vinsert
p2319
I42
VSimpleName: clientHeaderMap
p2320
tp2321
I1
s(g700
I42
g701
Vinsert
p2322
I32
VMethodInvocation
p2323
tp2324
I3
s(g590
I42
g591
Vinsert
p2325
I42
VSimpleName: httpPort
p2326
tp2327
I1
s(g1509
I42
g1510
Vinsert
p2328
I21
VExpressionStatement
p2329
tp2330
I1
s(g41
I42
g42
Vinsert
p2331
I42
VSimpleName: Override
p2332
tp2333
I1
s(g576
I42
g577
Vinsert
p2334
I42
VSimpleName: LOG_TAG
p2335
tp2336
I1
s(g2177
I42
g2178
Vinsert
p2337
I42
VSimpleName: String
p2338
tp2339
I2
s(g1306
I42
g1307
Vinsert
p2340
I42
VSimpleName: equals
p2341
tp2342
I2
s(g629
I42
g630
Vinsert
p2343
I42
VSimpleName: UnknownHostException
p2344
tp2345
I1
s(g451
I42
g452
Vinsert
p2346
I42
VSimpleName: HttpResponseException
p2347
tp2348
I1
s(g110
I42
g111
Vinsert
p2349
I33
VNullLiteral
p2350
tp2351
I2
s(g616
I42
g617
Vinsert
p2352
I21
VExpressionStatement
p2353
tp2354
I1
s(g1247
I42
g1248
Vinsert
p2355
I65
VTagElement: @param
p2356
tp2357
I1
s(g378
I42
g379
Vinsert
p2358
I12
VCatchClause
p2359
tp2360
I1
s(g451
I42
g452
Vinsert
p2361
I40
VQualifiedName: contentTypeHeaders.length
p2362
tp2363
I1
s(g275
I42
g276
Vinsert
p2364
I43
VSimpleType: Class
p2365
tp2366
I1
s(g265
I42
g266
Vinsert
p2367
I44
VSingleVariableDeclaration
p2368
tp2369
I1
s(g469
I42
g470
Vinsert
p2370
I43
VSimpleType: String
p2371
tp2372
I3
s(g290
I42
g291
Vinsert
p2373
I40
VQualifiedName: R.id.layout_custom
p2374
tp2375
I1
s(g46
I42
g47
Vinsert
p2376
I40
VQualifiedName: wrapper.contentType
p2377
tp2378
I1
s(g41
I42
g42
Vinsert
p2379
I52
VThisExpression
p2380
tp2381
I4
s(g773
I42
g774
Vinsert
p2382
I25
VIfStatement
p2383
tp2384
I2
s(g492
I42
g493
Vinsert
p2385
I39
VPrimitiveType: void
p2386
tp2387
I2
s(g819
I42
g820
Vinsert
p2388
I40
VQualifiedName: java.net.URLEncoder
p2389
tp2390
I1
s(g456
I42
g457
Vinsert
p2391
I43
VSimpleType: HttpEntity
p2392
tp2393
I1
s(Vinsert
p2394
I42
VSimpleName: e
p2395
Vinsert
p2396
I43
VSimpleType: KeyStoreException
p2397
tp2398
I1
s(g537
I42
g538
Vinsert
p2399
I43
VSimpleType: XMLReader
p2400
tp2401
I1
s(g228
I42
g229
Vinsert
p2402
I27
VInfixExpression: !=
p2403
tp2404
I4
s(g427
I42
g428
Vinsert
p2405
I45
VStringLiteral: "temp_"
p2406
tp2407
I1
s(g705
I42
g706
Vinsert
p2408
I36
VParenthesizedExpression
p2409
tp2410
I1
s(g140
I42
g141
Vinsert
p2411
I42
VSimpleName: authType
p2412
tp2413
I1
s(g895
I42
g896
Vinsert
p2414
I8
VBlock
p2415
tp2416
I1
s(g1470
I42
g1471
Vinsert
p2417
I42
VSimpleName: String
p2418
tp2419
I2
s(g1171
I42
g1172
Vinsert
p2420
I83
VModifier: final
p2421
tp2422
I1
s(g242
I42
g243
Vinsert
p2423
I27
VInfixExpression: !=
p2424
tp2425
I1
s(g469
I42
g470
Vinsert
p2426
I42
VSimpleName: setURI
p2427
tp2428
I3
s(g393
I42
g394
Vinsert
p2429
I42
VSimpleName: httpParams
p2430
tp2431
I4
s(g768
I42
g769
Vinsert
p2432
I60
VVariableDeclarationStatement
p2433
tp2434
I1
s(g427
I42
g428
Vinsert
p2435
I42
VSimpleName: createTempFile
p2436
tp2437
I1
s(g257
I42
g258
Vinsert
p2438
I21
VExpressionStatement
p2439
tp2440
I2
s(g320
I42
g321
Vinsert
p2441
I27
VInfixExpression: >
p2442
tp2443
I2
s(g689
I42
g690
Vinsert
p2444
I42
VSimpleName: streamParams
p2445
tp2446
I1
s(g1910
I42
g1911
Vinsert
p2447
I44
VSingleVariableDeclaration
p2448
tp2449
I2
s(g46
I42
g47
Vinsert
p2450
I59
VVariableDeclarationFragment
p2451
tp2452
I3
s(g218
I42
g219
Vinsert
p2453
I44
VSingleVariableDeclaration
p2454
tp2455
I3
s(g1391
I42
g1392
Vinsert
p2456
I41
VReturnStatement
p2457
tp2458
I1
s(g1691
I42
g1692
Vinsert
p2459
I39
VPrimitiveType: boolean
p2460
tp2461
I1
s(g1236
I42
g1237
Vinsert
p2462
I60
VVariableDeclarationStatement
p2463
tp2464
I1
s(g300
I42
g301
Vinsert
p2465
I42
VSimpleName: Color
p2466
tp2467
I1
s(g223
I42
g224
Vinsert
p2468
I42
VSimpleName: totalSize
p2469
tp2470
I1
s(g611
I42
g612
Vinsert
p2471
I43
VSimpleType: Exception
p2472
tp2473
I1
s(g798
I42
g799
Vinsert
p2474
I25
VIfStatement
p2475
tp2476
I1
s(g315
I42
g316
Vinsert
p2477
I42
VSimpleName: HttpResponse
p2478
tp2479
I1
s(g130
I42
g131
Vinsert
p2480
I32
VMethodInvocation
p2481
tp2482
I1
s(g621
I42
g622
Vinsert
p2483
I34
VNumberLiteral: 40
p2484
tp2485
I1
s(g560
I42
g561
Vinsert
p2486
I42
VSimpleName: isRepeatable
p2487
tp2488
I3
s(g86
I42
g87
Vinsert
p2489
I14
VClassInstanceCreation
p2490
tp2491
I1
s(Vinsert
p2492
I42
VSimpleName: setHeaders
p2493
Vinsert
p2494
I43
VSimpleType: HttpPut
p2495
tp2496
I1
s(g427
I42
g428
Vinsert
p2497
I42
VSimpleName: File
p2498
tp2499
I1
s(g1070
I42
g1071
Vinsert
p2500
I42
VSimpleName: setLayoutParams
p2501
tp2502
I1
s(g838
I42
g839
Vinsert
p2503
I43
VSimpleType: URL
p2504
tp2505
I1
s(g684
I42
g685
Vinsert
p2506
I42
VSimpleName: header
p2507
tp2508
I1
s(g2111
I42
g2112
Vinsert
p2509
I43
VSimpleType: OutputStream
p2510
tp2511
I1
s(g1188
I42
g1189
Vinsert
p2512
I42
VSimpleName: response
p2513
tp2514
I4
s(g542
I42
g543
Vinsert
p2515
I33
VNullLiteral
p2516
tp2517
I2
s(g652
I42
g653
Vinsert
p2518
I32
VMethodInvocation
p2519
tp2520
I14
s(g1037
I42
g1038
Vinsert
p2521
I83
VModifier: public
p2522
tp2523
I1
s(g1377
I42
g1378
Vinsert
p2524
I14
VClassInstanceCreation
p2525
tp2526
I2
s(g560
I42
g561
Vinsert
p2527
I42
VSimpleName: setHttpEntityIsRepeatable
p2528
tp2529
I1
s(g993
I42
g994
Vinsert
p2530
I21
VExpressionStatement
p2531
tp2532
I1
s(Vinsert
p2533
I42
VSimpleName: setRedirectHandler
p2534
Vinsert
p2535
I66
VTextElement: If you set manually RedirectHandler on underlying HttpClient, effects of this method will be canceled.
p2536
tp2537
I1
s(g749
I42
g750
Vinsert
p2538
I32
VMethodInvocation
p2539
tp2540
I7
s(g1050
I42
g1051
Vinsert
p2541
I42
VSimpleName: ResponseHandlerInterface
p2542
tp2543
I2
s(g998
I42
g999
Vinsert
p2544
I42
VSimpleName: HttpPost
p2545
tp2546
I1
s(g365
I42
g366
Vinsert
p2547
I42
VSimpleName: onFailure
p2548
tp2549
I1
s(g721
I42
g722
Vinsert
p2550
I65
VTagElement
p2551
tp2552
I1
s(g576
I42
g577
Vinsert
p2553
I43
VSimpleType: List
p2554
tp2555
I2
s(g295
I42
g296
Vinsert
p2556
I42
VSimpleName: Object
p2557
tp2558
I1
s(g492
I42
g493
Vinsert
p2559
I66
VTextElement: Allows you to set custom RedirectHandler implementation, if the default provided doesn't suit
p2560
tp2561
I1
s(g713
I42
g714
Vinsert
p2562
I42
VSimpleName: ConnectTimeoutException
p2563
tp2564
I1
s(g257
I42
g258
Vinsert
p2565
I16
VConditionalExpression
p2566
tp2567
I1
s(g2275
I42
g2276
Vinsert
p2568
I42
VSimpleName: UnknownHostException
p2569
tp2570
I1
s(g2533
I42
g2534
Vinsert
p2571
I42
VSimpleName: setEnableRedirects
p2572
tp2573
I1
s(g482
I42
g483
Vinsert
p2574
I70
VEnhancedForStatement
p2575
tp2576
I1
s(g1306
I42
g1307
Vinsert
p2577
I42
VSimpleName: action
p2578
tp2579
I2
s(g360
I42
g361
Vinsert
p2580
I25
VIfStatement
p2581
tp2582
I1
s(Vinsert
p2583
I42
VSimpleName: getParams
p2584
Vinsert
p2585
I42
VSimpleName: hostname
p2586
tp2587
I1
s(g305
I42
g306
Vinsert
p2588
I32
VMethodInvocation
p2589
tp2590
I2
s(g1444
I42
g1445
Vinsert
p2591
I42
VSimpleName: cbRename
p2592
tp2593
I2
s(g365
I42
g366
Vinsert
p2594
I42
VSimpleName: onSuccess
p2595
tp2596
I1
s(g547
I42
g548
Vinsert
p2597
I21
VExpressionStatement
p2598
tp2599
I1
s(g1531
I42
g1532
Vinsert
p2600
I42
VSimpleName: cancelIsNotified
p2601
tp2602
I2
s(g634
I42
g635
Vinsert
p2603
I43
VSimpleType: ResponseHandlerInterface
p2604
tp2605
I1
s(g616
I42
g617
Vinsert
p2606
I66
VTextElement: which applies on all requests this client makes
p2607
tp2608
I1
s(g1509
I42
g1510
Vinsert
p2609
I42
VSimpleName: SSLSocketFactory
p2610
tp2611
I1
s(g2177
I42
g2178
Vinsert
p2612
I42
VSimpleName: port
p2613
tp2614
I1
s(g590
I42
g591
Vinsert
p2615
I42
VSimpleName: schemeRegistry
p2616
tp2617
I2
s(g1531
I42
g1532
Vinsert
p2618
I25
VIfStatement
p2619
tp2620
I1
s(g404
I42
g405
Vinsert
p2621
I41
VReturnStatement
p2622
tp2623
I2
s(g1018
I42
g1019
Vinsert
p2624
I32
VMethodInvocation
p2625
tp2626
I5
s(g652
I42
g653
Vinsert
p2627
I21
VExpressionStatement
p2628
tp2629
I18
s(g1882
I42
g1883
Vinsert
p2630
I45
VStringLiteral: "SampleParentActivity"
p2631
tp2632
I1
s(g713
I42
g714
Vinsert
p2633
I42
VSimpleName: allowRetryExceptionClass
p2634
tp2635
I2
s(g393
I42
g394
Vinsert
p2636
I43
VSimpleType: HttpParams
p2637
tp2638
I4
s(g731
I42
g732
Vinsert
p2639
I42
VSimpleName: setMaxRetries
p2640
tp2641
I1
s(Vinsert
p2642
I42
VSimpleName: get
p2643
Vinsert
p2644
I43
VSimpleType: RequestParams
p2645
tp2646
I2
s(g1045
I42
g1046
Vinsert
p2647
I32
VMethodInvocation
p2648
tp2649
I4
s(g1122
I42
g1123
Vinsert
p2650
I42
VSimpleName: list
p2651
tp2652
I1
s(g560
I42
g561
Vinsert
p2653
I52
VThisExpression
p2654
tp2655
I1
s(g197
I42
g198
Vinsert
p2656
I42
VSimpleName: mayInterruptIfRunning
p2657
tp2658
I1
s(g150
I42
g151
Vinsert
p2659
I32
VMethodInvocation
p2660
tp2661
I2
s(g1905
I42
g1906
Vinsert
p2662
I42
VSimpleName: caInput
p2663
tp2664
I1
s(g285
I42
g286
Vinsert
p2665
I27
VInfixExpression: +
p2666
tp2667
I2
s(g280
I42
g281
Vinsert
p2668
I42
VSimpleName: statusCode
p2669
tp2670
I1
s(g1509
I42
g1510
Vinsert
p2671
I43
VSimpleType: SSLSocketFactory
p2672
tp2673
I1
s(g1423
I42
g1424
Vinsert
p2674
I39
VPrimitiveType: int
p2675
tp2676
I1
s(g1155
I42
g1156
Vinsert
p2677
I42
VSimpleName: d
p2678
tp2679
I1
s(g135
I42
g136
Vinsert
p2680
I42
VSimpleName: os
p2681
tp2682
I1
s(g846
I42
g847
Vinsert
p2683
I43
VSimpleType: FileInputStream
p2684
tp2685
I1
s(g41
I42
g42
Vinsert
p2686
I42
VSimpleName: Object
p2687
tp2688
I3
s(g300
I42
g301
Vinsert
p2689
I42
VSimpleName: printStatusCode
p2690
tp2691
I1
s(g523
I42
g524
Vinsert
p2692
I32
VMethodInvocation
p2693
tp2694
I1
s(g1531
I42
g1532
Vinsert
p2695
I42
VSimpleName: responseHandler
p2696
tp2697
I1
s(g461
I42
g462
Vinsert
p2698
I25
VIfStatement
p2699
tp2700
I1
s(g957
I42
g958
Vinsert
p2701
I42
VSimpleName: handler
p2702
tp2703
I1
s(g749
I42
g750
Vinsert
p2704
I34
VNumberLiteral: 0
p2705
tp2706
I4
s(g1951
I42
g1952
Vinsert
p2707
I39
VPrimitiveType: void
p2708
tp2709
I1
s(g11
I42
g12
Vinsert
p2710
I42
VSimpleName: removeHeader
p2711
tp2712
I1
s(g150
I42
g151
Vinsert
p2713
I59
VVariableDeclarationFragment
p2714
tp2715
I1
s(g228
I42
g229
Vinsert
p2716
I32
VMethodInvocation
p2717
tp2718
I8
s(g2177
I42
g2178
Vinsert
p2719
I21
VExpressionStatement
p2720
tp2721
I2
s(g576
I42
g577
Vinsert
p2722
I32
VMethodInvocation
p2723
tp2724
I2
s(g2275
I42
g2276
Vinsert
p2725
I40
VQualifiedName: java.net.UnknownHostException
p2726
tp2727
I1
s(g378
I42
g379
Vinsert
p2728
I27
VInfixExpression: !=
p2729
tp2730
I2
s(g673
I42
g674
Vinsert
p2731
I9
VBooleanLiteral: false
p2732
tp2733
I1
s(g370
I42
g371
Vinsert
p2734
I27
VInfixExpression: !=
p2735
tp2736
I2
s(g647
I42
g648
Vinsert
p2737
I85
VDimension
p2738
tp2739
I1
s(g1122
I42
g1123
Vinsert
p2740
I42
VSimpleName: Map
p2741
tp2742
I1
s(g305
I42
g306
Vinsert
p2743
I42
VSimpleName: append
p2744
tp2745
I1
s(g257
I42
g258
Vinsert
p2746
I40
VQualifiedName: encoder.do_cr
p2747
tp2748
I1
s(g76
I42
g77
Vinsert
p2749
I40
VQualifiedName: ExampleIntentService.INTENT_THROWABLE
p2750
tp2751
I1
s(g1122
I42
g1123
Vinsert
p2752
I11
VCastExpression
p2753
tp2754
I1
s(g909
I42
g910
Vinsert
p2755
I43
VSimpleType: JSONObject
p2756
tp2757
I1
s(g1018
I42
g1019
Vinsert
p2758
I8
VBlock
p2759
tp2760
I2
s(g11
I42
g12
Vinsert
p2761
I42
VSimpleName: clientHeaderMap
p2762
tp2763
I1
s(g1514
I42
g1515
Vinsert
p2764
I65
VTagElement: @param
p2765
tp2766
I1
s(g365
I42
g366
Vinsert
p2767
I42
VSimpleName: headers
p2768
tp2769
I1
s(g768
I42
g769
Vinsert
p2770
I5
VArrayType: byte[]
p2771
tp2772
I1
s(g1683
I42
g1684
Vinsert
p2773
I14
VClassInstanceCreation
p2774
tp2775
I1
s(g652
I42
g653
Vinsert
p2776
I25
VIfStatement
p2777
tp2778
I3
s(g2025
I42
g2026
Vinsert
p2779
I36
VParenthesizedExpression
p2780
tp2781
I1
s(g2533
I42
g2534
Vinsert
p2782
I39
VPrimitiveType: boolean
p2783
tp2784
I1
s(g1026
I42
g1027
Vinsert
p2785
I78
VMarkerAnnotation
p2786
tp2787
I1
s(g1026
I42
g1027
Vinsert
p2788
I1
VAnonymousClassDeclaration
p2789
tp2790
I1
s(g66
I42
g67
Vinsert
p2791
I42
VSimpleName: AlertDialog
p2792
tp2793
I1
s(g1228
I42
g1229
Vinsert
p2794
I59
VVariableDeclarationFragment
p2795
tp2796
I1
s(g16
I42
g17
Vinsert
p2797
I27
VInfixExpression: !=
p2798
tp2799
I1
s(g404
I42
g405
Vinsert
p2800
I14
VClassInstanceCreation
p2801
tp2802
I2
s(g985
I42
g986
Vinsert
p2803
I43
VSimpleType: Intent
p2804
tp2805
I2
s(g1070
I42
g1071
Vinsert
p2806
I43
VSimpleType: LinearLayout.LayoutParams
p2807
tp2808
I1
s(g1247
I42
g1248
Vinsert
p2809
I31
VMethodDeclaration
p2810
tp2811
I1
s(g456
I42
g457
Vinsert
p2812
I42
VSimpleName: post
p2813
tp2814
I1
s(g895
I42
g896
Vinsert
p2815
I42
VSimpleName: setRequestTag
p2816
tp2817
I1
s(g295
I42
g296
Vinsert
p2818
I59
VVariableDeclarationFragment
p2819
tp2820
I4
s(g135
I42
g136
Vinsert
p2821
I25
VIfStatement
p2822
tp2823
I2
s(g798
I42
g799
Vinsert
p2824
I21
VExpressionStatement
p2825
tp2826
I1
s(g155
I42
g156
Vinsert
p2827
I42
VSimpleName: cause
p2828
tp2829
I2
s(g21
I42
g22
Vinsert
p2830
I41
VReturnStatement
p2831
tp2832
I1
s(g383
I42
g384
Vinsert
p2833
I42
VSimpleName: onCancelButtonPressed
p2834
tp2835
I2
s(g1531
I42
g1532
Vinsert
p2836
I27
VInfixExpression: &&
p2837
tp2838
I1
s(g99
I42
g100
Vinsert
p2839
I1
VAnonymousClassDeclaration
p2840
tp2841
I5
s(g365
I42
g366
Vinsert
p2842
I45
VStringLiteral: "Unexpected type "
p2843
tp2844
I1
s(g145
I42
g146
Vinsert
p2845
I42
VSimpleName: headerMap
p2846
tp2847
I1
s(g2025
I42
g2026
Vinsert
p2848
I42
VSimpleName: String
p2849
tp2850
I1
s(g1026
I42
g1027
Vinsert
p2851
I59
VVariableDeclarationFragment
p2852
tp2853
I1
s(g487
I42
g488
Vinsert
p2854
I42
VSimpleName: Header
p2855
tp2856
I2
s(g731
I42
g732
Vinsert
p2857
I52
VThisExpression
p2858
tp2859
I1
s(Vinsert
p2860
I42
VSimpleName: e
p2861
Vinsert
p2862
I42
VSimpleName: responseBody
p2863
tp2864
I1
s(g560
I42
g561
Vinsert
p2865
I42
VSimpleName: entity
p2866
tp2867
I1
s(g595
I42
g596
Vinsert
p2868
I52
VThisExpression
p2869
tp2870
I1
s(g275
I42
g276
Vinsert
p2871
I43
VSimpleType: Iterator
p2872
tp2873
I1
s(g66
I42
g67
Vinsert
p2874
I8
VBlock
p2875
tp2876
I1
s(g523
I42
g524
Vinsert
p2877
I26
VImportDeclaration
p2878
tp2879
I1
s(g213
I42
g214
Vinsert
p2880
I42
VSimpleName: SocketTimeoutException
p2881
tp2882
I1
s(g365
I42
g366
Vinsert
p2883
I11
VCastExpression
p2884
tp2885
I1
s(g768
I42
g769
Vinsert
p2886
I34
VNumberLiteral: 2
p2887
tp2888
I1
s(g86
I42
g87
Vinsert
p2889
I43
VSimpleType: AtomicBoolean
p2890
tp2891
I1
s(g130
I42
g131
Vinsert
p2892
I25
VIfStatement
p2893
tp2894
I1
s(g537
I42
g538
Vinsert
p2895
I60
VVariableDeclarationStatement
p2896
tp2897
I2
s(g1729
I42
g1730
Vinsert
p2898
I42
VSimpleName: head
p2899
tp2900
I1
s(g26
I42
g27
Vinsert
p2901
I34
VNumberLiteral: 0
p2902
tp2903
I1
s(g2111
I42
g2112
Vinsert
p2904
I42
VSimpleName: os
p2905
tp2906
I3
s(g1196
I42
g1197
Vinsert
p2907
I43
VSimpleType: CredentialsProvider
p2908
tp2909
I2
s(g616
I42
g617
Vinsert
p2910
I65
VTagElement: @param
p2911
tp2912
I2
s(g1188
I42
g1189
Vinsert
p2913
I32
VMethodInvocation
p2914
tp2915
I4
s(g684
I42
g685
Vinsert
p2916
I42
VSimpleName: customFileName
p2917
tp2918
I1
s(g1470
I42
g1471
Vinsert
p2919
I27
VInfixExpression: <
p2920
tp2921
I1
s(g46
I42
g47
Vinsert
p2922
I40
VQualifiedName: wrapper.file
p2923
tp2924
I1
s(g749
I42
g750
Vinsert
p2925
I42
VSimpleName: Integer
p2926
tp2927
I5
s(g469
I42
g470
Vinsert
p2928
I83
VModifier: final
p2929
tp2930
I3
s(g726
I42
g727
Vinsert
p2931
I83
VModifier: private
p2932
tp2933
I3
s(Vinsert
p2934
I42
VSimpleName: asserts
p2935
Vinsert
p2936
I7
VAssignment: =
p2937
tp2938
I1
s(g1127
I42
g1128
Vinsert
p2939
I27
VInfixExpression: &&
p2940
tp2941
I1
s(g437
I42
g438
Vinsert
p2942
I44
VSingleVariableDeclaration
p2943
tp2944
I2
s(g1228
I42
g1229
Vinsert
p2945
I42
VSimpleName: Header
p2946
tp2947
I1
s(g99
I42
g100
Vinsert
p2948
I31
VMethodDeclaration
p2949
tp2950
I5
s(g629
I42
g630
Vinsert
p2951
I43
VSimpleType: IOException
p2952
tp2953
I1
s(g120
I42
g121
Vinsert
p2954
I43
VSimpleType: JSONTokener
p2955
tp2956
I1
s(g275
I42
g276
Vinsert
p2957
I42
VSimpleName: error
p2958
tp2959
I1
s(g1141
I42
g1142
Vinsert
p2960
I34
VNumberLiteral: 1
p2961
tp2962
I2
s(g768
I42
g769
Vinsert
p2963
I39
VPrimitiveType: int
p2964
tp2965
I1
s(g616
I42
g617
Vinsert
p2966
I83
VModifier: public
p2967
tp2968
I1
s(g265
I42
g266
Vinsert
p2969
I43
VSimpleType: MenuItem
p2970
tp2971
I1
s(g1236
I42
g1237
Vinsert
p2972
I32
VMethodInvocation
p2973
tp2974
I11
s(g16
I42
g17
Vinsert
p2975
I8
VBlock
p2976
tp2977
I1
s(g155
I42
g156
Vinsert
p2978
I7
VAssignment: =
p2979
tp2980
I4
s(g1787
I42
g1788
Vinsert
p2981
I3
VArrayCreation
p2982
tp2983
I1
s(g393
I42
g394
Vinsert
p2984
I83
VModifier: final
p2985
tp2986
I4
s(g71
I42
g72
Vinsert
p2987
I85
VDimension
p2988
tp2989
I3
s(g993
I42
g994
Vinsert
p2990
I42
VSimpleName: onFailure
p2991
tp2992
I1
s(g497
I42
g498
Vinsert
p2993
I60
VVariableDeclarationStatement
p2994
tp2995
I2
s(g242
I42
g243
Vinsert
p2996
I43
VSimpleType: HttpEntity
p2997
tp2998
I1
s(g11
I42
g12
Vinsert
p2999
I83
VModifier: public
p3000
tp3001
I1
s(g1278
I42
g1279
Vinsert
p3002
I43
VSimpleType: Future
p3003
tp3004
I2
s(g280
I42
g281
Vinsert
p3005
I42
VSimpleName: onFailure
p3006
tp3007
I1
s(g590
I42
g591
Vinsert
p3008
I29
VJavadoc
p3009
tp3010
I1
s(g731
I42
g732
Vinsert
p3011
I42
VSimpleName: httpClient
p3012
tp3013
I1
s(g595
I42
g596
Vinsert
p3014
I42
VSimpleName: looper
p3015
tp3016
I1
s(g952
I42
g953
Vinsert
p3017
I42
VSimpleName: String
p3018
tp3019
I1
s(g456
I42
g457
Vinsert
p3020
I43
VSimpleType: String
p3021
tp3022
I2
s(g1740
I42
g1741
Vinsert
p3023
I26
VImportDeclaration
p3024
tp3025
I1
s(g1228
I42
g1229
Vinsert
p3026
I27
VInfixExpression: !=
p3027
tp3028
I1
s(g1045
I42
g1046
Vinsert
p3029
I42
VSimpleName: keysProcessed
p3030
tp3031
I2
s(g86
I42
g87
Vinsert
p3032
I9
VBooleanLiteral: true
p3033
tp3034
I2
s(g1470
I42
g1471
Vinsert
p3035
I42
VSimpleName: i
p3036
tp3037
I2
s(g1117
I42
g1118
Vinsert
p3038
I42
VSimpleName: getDefaultSchemeRegistry
p3039
tp3040
I1
s(g257
I42
g258
Vinsert
p3041
I39
VPrimitiveType: byte
p3042
tp3043
I1
s(g393
I42
g394
Vinsert
p3044
I42
VSimpleName: DEFAULT_SOCKET_TIMEOUT
p3045
tp3046
I1
s(g798
I42
g799
Vinsert
p3047
I27
VInfixExpression: !=
p3048
tp3049
I1
s(g492
I42
g493
Vinsert
p3050
I42
VSimpleName: customRedirectHandler
p3051
tp3052
I1
s(g846
I42
g847
Vinsert
p3053
I42
VSimpleName: FileInputStream
p3054
tp3055
I1
s(g2163
I42
g2164
Vinsert
p3056
I42
VSimpleName: line
p3057
tp3058
I1
s(g1556
I42
g1557
Vinsert
p3059
I38
VPrefixExpression: !
p3060
tp3061
I1
s(g2177
I42
g2178
Vinsert
p3062
I32
VMethodInvocation
p3063
tp3064
I4
s(g1188
I42
g1189
Vinsert
p3065
I42
VSimpleName: HttpEntity
p3066
tp3067
I2
s(g684
I42
g685
Vinsert
p3068
I44
VSingleVariableDeclaration
p3069
tp3070
I2
s(g168
I42
g169
Vinsert
p3071
I42
VSimpleName: LOG_TAG
p3072
tp3073
I1
s(g482
I42
g483
Vinsert
p3074
I42
VSimpleName: samples
p3075
tp3076
I1
s(g851
I42
g852
Vinsert
p3077
I42
VSimpleName: url
p3078
tp3079
I2
s(g1311
I42
g1312
Vinsert
p3080
I42
VSimpleName: addRequestHandle
p3081
tp3082
I1
s(g814
I42
g815
Vinsert
p3083
I45
VStringLiteral: "nofilename"
p3084
tp3085
I1
s(g846
I42
g847
Vinsert
p3086
I21
VExpressionStatement
p3087
tp3088
I1
s(g315
I42
g316
Vinsert
p3089
I83
VModifier: protected
p3090
tp3091
I1
s(g56
I42
g57
Vinsert
p3092
I42
VSimpleName: postRunnable
p3093
tp3094
I1
s(g2163
I42
g2164
Vinsert
p3095
I42
VSimpleName: equalSignPos
p3096
tp3097
I1
s(g1576
I42
g1577
Vinsert
p3098
I43
VSimpleType: HttpPatch
p3099
tp3100
I1
s(g2533
I42
g2534
Vinsert
p3101
I8
VBlock
p3102
tp3103
I1
s(g726
I42
g727
Vinsert
p3104
I8
VBlock
p3105
tp3106
I5
s(g31
I42
g32
Vinsert
p3107
I42
VSimpleName: UsernamePasswordCredentials
p3108
tp3109
I2
s(g952
I42
g953
Vinsert
p3110
I45
VStringLiteral: "\u005cr\u005cn\u005cr\u005cn"
p3111
tp3112
I1
s(g6
I42
g7
Vinsert
p3113
I42
VSimpleName: init
p3114
tp3115
I1
s(g178
I42
g179
Vinsert
p3116
I10
VBreakStatement
p3117
tp3118
I1
s(g1444
I42
g1445
Vinsert
p3119
I14
VClassInstanceCreation
p3120
tp3121
I1
s(g590
I42
g591
Vinsert
p3122
I42
VSimpleName: responseHandler
p3123
tp3124
I1
s(g1951
I42
g1952
Vinsert
p3125
I43
VSimpleType: String
p3126
tp3127
I1
s(g1910
I42
g1911
Vinsert
p3128
I42
VSimpleName: isLast
p3129
tp3130
I4
s(g1357
I42
g1358
Vinsert
p3131
I43
VSimpleType: BasicNameValuePair
p3132
tp3133
I2
s(g419
I42
g420
Vinsert
p3134
I42
VSimpleName: parseResponse
p3135
tp3136
I1
s(g300
I42
g301
Vinsert
p3137
I21
VExpressionStatement
p3138
tp3139
I1
s(g721
I42
g722
Vinsert
p3140
I65
VTagElement: @return
p3141
tp3142
I1
s(g325
I42
g326
Vinsert
p3143
I43
VSimpleType: File
p3144
tp3145
I2
s(g208
I42
g209
Vinsert
p3146
I42
VSimpleName: httpClient
p3147
tp3148
I1
s(g1236
I42
g1237
Vinsert
p3149
I42
VSimpleName: CharArrayBuffer
p3150
tp3151
I2
s(g731
I42
g732
Vinsert
p3152
I21
VExpressionStatement
p3153
tp3154
I1
s(g819
I42
g820
Vinsert
p3155
I54
VTryStatement
p3156
tp3157
I4
s(g1050
I42
g1051
Vinsert
p3158
I42
VSimpleName: URL
p3159
tp3160
I1
s(g1683
I42
g1684
Vinsert
p3161
I34
VNumberLiteral: 1.35f
p3162
tp3163
I1
s(g305
I42
g306
Vinsert
p3164
I42
VSimpleName: header
p3165
tp3166
I1
s(g275
I42
g276
Vinsert
p3167
I74
VParameterizedType: Iterator<Class<?>>
p3168
tp3169
I1
s(g16
I42
g17
Vinsert
p3170
I39
VPrimitiveType: byte
p3171
tp3172
I1
s(g595
I42
g596
Vinsert
p3173
I21
VExpressionStatement
p3174
tp3175
I1
s(g2111
I42
g2112
Vinsert
p3176
I42
VSimpleName: OutputStream
p3177
tp3178
I1
s(g1905
I42
g1906
Vinsert
p3179
I8
VBlock
p3180
tp3181
I2
s(g1026
I42
g1027
Vinsert
p3182
I42
VSimpleName: Runnable
p3183
tp3184
I2
s(g1509
I42
g1510
Vinsert
p3185
I59
VVariableDeclarationFragment
p3186
tp3187
I1
s(g265
I42
g266
Vinsert
p3188
I39
VPrimitiveType: boolean
p3189
tp3190
I1
s(g1037
I42
g1038
Vinsert
p3191
I42
VSimpleName: deleteCookie
p3192
tp3193
I1
s(g378
I42
g379
Vinsert
p3194
I32
VMethodInvocation
p3195
tp3196
I7
s(g957
I42
g958
Vinsert
p3197
I59
VVariableDeclarationFragment
p3198
tp3199
I1
s(g2111
I42
g2112
Vinsert
p3200
I32
VMethodInvocation
p3201
tp3202
I6
s(g1551
I42
g1552
Vinsert
p3203
I32
VMethodInvocation
p3204
tp3205
I4
s(g76
I42
g77
Vinsert
p3206
I42
VSimpleName: LOG_TAG
p3207
tp3208
I1
s(g497
I42
g498
Vinsert
p3209
I59
VVariableDeclarationFragment
p3210
tp3211
I2
s(g378
I42
g379
Vinsert
p3212
I8
VBlock
p3213
tp3214
I2
s(g2163
I42
g2164
Vinsert
p3215
I43
VSimpleType: String
p3216
tp3217
I2
s(g461
I42
g462
Vinsert
p3218
I42
VSimpleName: setUseSynchronousMode
p3219
tp3220
I1
s(g325
I42
g326
Vinsert
p3221
I42
VSimpleName: file
p3222
tp3223
I6
s(g1444
I42
g1445
Vinsert
p3224
I42
VSimpleName: cbAppend
p3225
tp3226
I1
s(g223
I42
g224
Vinsert
p3227
I8
VBlock
p3228
tp3229
I2
s(g909
I42
g910
Vinsert
p3230
I43
VSimpleType: JSONArray
p3231
tp3232
I1
s(g330
I42
g331
Vinsert
p3233
I25
VIfStatement
p3234
tp3235
I1
s(g352
I42
g353
Vinsert
p3236
I42
VSimpleName: d
p3237
tp3238
I1
s(g2533
I42
g2534
Vinsert
p3239
I42
VSimpleName: enableRedirects
p3240
tp3241
I2
s(g451
I42
g452
Vinsert
p3242
I45
VStringLiteral: "Content-Type"
p3243
tp3244
I1
s(g1236
I42
g1237
Vinsert
p3245
I42
VSimpleName: buffer
p3246
tp3247
I2
s(g1951
I42
g1952
Vinsert
p3248
I45
VStringLiteral: "onStart"
p3249
tp3250
I1
s(g6
I42
g7
Vinsert
p3251
I74
VParameterizedType: Map.Entry<String,String>
p3252
tp3253
I1
s(g330
I42
g331
Vinsert
p3254
I8
VBlock
p3255
tp3256
I1
s(g814
I42
g815
Vinsert
p3257
I7
VAssignment: =
p3258
tp3259
I1
s(g16
I42
g17
Vinsert
p3260
I85
VDimension
p3261
tp3262
I1
s(g265
I42
g266
Vinsert
p3263
I83
VModifier: public
p3264
tp3265
I1
s(g383
I42
g384
Vinsert
p3266
I31
VMethodDeclaration
p3267
tp3268
I2
s(g1141
I42
g1142
Vinsert
p3269
I5
VArrayType: byte[]
p3270
tp3271
I1
s(g404
I42
g405
Vinsert
p3272
I42
VSimpleName: URI
p3273
tp3274
I8
s(g91
I42
g92
Vinsert
p3275
I39
VPrimitiveType: int
p3276
tp3277
I4
s(g1085
I42
g1086
Vinsert
p3278
I27
VInfixExpression: &&
p3279
tp3280
I1
s(g749
I42
g750
Vinsert
p3281
I42
VSimpleName: response
p3282
tp3283
I9
s(g1377
I42
g1378
Vinsert
p3284
I42
VSimpleName: Throwable
p3285
tp3286
I2
s(g1080
I42
g1081
Vinsert
p3287
I42
VSimpleName: setLoggingLevel
p3288
tp3289
I1
s(g2394
I42
g2395
Vinsert
p3290
I42
VSimpleName: silentCloseInputStream
p3291
tp3292
I1
s(g2163
I42
g2164
Vinsert
p3293
I60
VVariableDeclarationStatement
p3294
tp3295
I1
s(g31
I42
g32
Vinsert
p3296
I59
VVariableDeclarationFragment
p3297
tp3298
I1
s(g819
I42
g820
Vinsert
p3299
I42
VSimpleName: UnsupportedEncodingException
p3300
tp3301
I1
s(g1951
I42
g1952
Vinsert
p3302
I42
VSimpleName: response
p3303
tp3304
I1
s(g2025
I42
g2026
Vinsert
p3305
I7
VAssignment: =
p3306
tp3307
I1
s(g2111
I42
g2112
Vinsert
p3308
I8
VBlock
p3309
tp3310
I9
s(g310
I42
g311
Vinsert
p3311
I42
VSimpleName: responseHandler
p3312
tp3313
I1
s(g223
I42
g224
Vinsert
p3314
I42
VSimpleName: bytesWritten
p3315
tp3316
I1
s(g1155
I42
g1156
Vinsert
p3317
I45
VStringLiteral: "JSON data:"
p3318
tp3319
I1
s(g290
I42
g291
Vinsert
p3320
I59
VVariableDeclarationFragment
p3321
tp3322
I1
s(g257
I42
g258
Vinsert
p3323
I34
VNumberLiteral: 1
p3324
tp3325
I1
s(g1155
I42
g1156
Vinsert
p3326
I42
VSimpleName: body
p3327
tp3328
I1
s(g1590
I42
g1591
Vinsert
p3329
I43
VSimpleType: BasicHttpParams
p3330
tp3331
I1
s(g611
I42
g612
Vinsert
p3332
I45
VStringLiteral: ""
p3333
tp3334
I1
s(g140
I42
g141
Vinsert
p3335
I42
VSimpleName: length
p3336
tp3337
I1
s(g2934
I42
g2935
Vinsert
p3338
I42
VSimpleName: Utils
p3339
tp3340
I3
s(g555
I42
g556
Vinsert
p3341
I33
VNullLiteral
p3342
tp3343
I1
s(g1444
I42
g1445
Vinsert
p3344
I43
VSimpleType: CheckBox
p3345
tp3346
I1
s(g155
I42
g156
Vinsert
p3347
I42
VSimpleName: InterruptedException
p3348
tp3349
I1
s(g571
I42
g572
Vinsert
p3350
I8
VBlock
p3351
tp3352
I1
s(g1196
I42
g1197
Vinsert
p3353
I42
VSimpleName: credsProvider
p3354
tp3355
I1
s(g2163
I42
g2164
Vinsert
p3356
I42
VSimpleName: headerValue
p3357
tp3358
I1
s(g325
I42
g326
Vinsert
p3359
I25
VIfStatement
p3360
tp3361
I3
s(g155
I42
g156
Vinsert
p3362
I42
VSimpleName: IOException
p3363
tp3364
I2
s(g155
I42
g156
Vinsert
p3365
I32
VMethodInvocation
p3366
tp3367
I2
s(g1122
I42
g1123
Vinsert
p3368
I14
VClassInstanceCreation
p3369
tp3370
I1
s(g1556
I42
g1557
Vinsert
p3371
I27
VInfixExpression: +
p3372
tp3373
I1
s(g99
I42
g100
Vinsert
p3374
I8
VBlock
p3375
tp3376
I5
s(g76
I42
g77
Vinsert
p3377
I11
VCastExpression
p3378
tp3379
I1
s(g1258
I42
g1259
Vinsert
p3380
I42
VSimpleName: request
p3381
tp3382
I6
s(g571
I42
g572
Vinsert
p3383
I14
VClassInstanceCreation
p3384
tp3385
I1
s(Vinsert
p3386
I42
VSimpleName: valueOf
p3387
Vinsert
p3388
I41
VReturnStatement
p3389
tp3390
I1
s(g135
I42
g136
Vinsert
p3391
I11
VCastExpression
p3392
tp3393
I2
s(g1377
I42
g1378
Vinsert
p3394
I43
VSimpleType: ObjectMapper
p3395
tp3396
I2
s(g705
I42
g706
Vinsert
p3397
I21
VExpressionStatement
p3398
tp3399
I1
s(g571
I42
g572
Vinsert
p3400
I42
VSimpleName: LinearLayout
p3401
tp3402
I2
s(g657
I42
g658
Vinsert
p3403
I42
VSimpleName: inputStreamReader
p3404
tp3405
I1
s(g173
I42
g174
Vinsert
p3406
I8
VBlock
p3407
tp3408
I13
s(g482
I42
g483
Vinsert
p3409
I42
VSimpleName: titles
p3410
tp3411
I1
s(g576
I42
g577
Vinsert
p3412
I42
VSimpleName: d
p3413
tp3414
I1
s(g634
I42
g635
Vinsert
p3415
I42
VSimpleName: RequestParams
p3416
tp3417
I2
s(g223
I42
g224
Vinsert
p3418
I42
VSimpleName: String
p3419
tp3420
I6
s(g1729
I42
g1730
Vinsert
p3421
I42
VSimpleName: URL
p3422
tp3423
I1
s(g208
I42
g209
Vinsert
p3424
I43
VSimpleType: AsyncHttpRequest
p3425
tp3426
I1
s(g280
I42
g281
Vinsert
p3427
I42
VSimpleName: headers
p3428
tp3429
I1
s(g895
I42
g896
Vinsert
p3430
I44
VSingleVariableDeclaration
p3431
tp3432
I1
s(g1905
I42
g1906
Vinsert
p3433
I42
VSimpleName: IOException
p3434
tp3435
I1
s(g290
I42
g291
Vinsert
p3436
I11
VCastExpression
p3437
tp3438
I1
s(g1951
I42
g1952
Vinsert
p3439
I83
VModifier: public
p3440
tp3441
I1
s(g427
I42
g428
Vinsert
p3442
I8
VBlock
p3443
tp3444
I2
s(g2025
I42
g2026
Vinsert
p3445
I43
VSimpleType: String
p3446
tp3447
I1
s(g673
I42
g674
Vinsert
p3448
I33
VNullLiteral
p3449
tp3450
I1
s(g639
I42
g640
Vinsert
p3451
I14
VClassInstanceCreation
p3452
tp3453
I2
s(g437
I42
g438
Vinsert
p3454
I60
VVariableDeclarationStatement
p3455
tp3456
I2
s(g1085
I42
g1086
Vinsert
p3457
I43
VSimpleType: JSONException
p3458
tp3459
I1
s(g1278
I42
g1279
Vinsert
p3460
I42
VSimpleName: requestRef
p3461
tp3462
I2
s(g1357
I42
g1358
Vinsert
p3463
I74
VParameterizedType: LinkedList<BasicNameValuePair>
p3464
tp3465
I2
s(g135
I42
g136
Vinsert
p3466
I40
VQualifiedName: org.json.JSONObject
p3467
tp3468
I1
s(g1188
I42
g1189
Vinsert
p3469
I42
VSimpleName: entity
p3470
tp3471
I1
s(g1590
I42
g1591
Vinsert
p3472
I42
VSimpleName: setTimeout
p3473
tp3474
I1
s(g547
I42
g548
Vinsert
p3475
I27
VInfixExpression: !=
p3476
tp3477
I1
s(g731
I42
g732
Vinsert
p3478
I44
VSingleVariableDeclaration
p3479
tp3480
I1
s(g985
I42
g986
Vinsert
p3481
I42
VSimpleName: responseBody
p3482
tp3483
I1
s(g270
I42
g271
Vinsert
p3484
I42
VSimpleName: Override
p3485
tp3486
I1
s(g1228
I42
g1229
Vinsert
p3487
I45
VStringLiteral: "gzip"
p3488
tp3489
I1
s(g81
I42
g82
Vinsert
p3490
I39
VPrimitiveType: int
p3491
tp3492
I1
s(g1377
I42
g1378
Vinsert
p3493
I42
VSimpleName: isFailure
p3494
tp3495
I2
s(g432
I42
g433
Vinsert
p3496
I32
VMethodInvocation
p3497
tp3498
I4
s(g547
I42
g548
Vinsert
p3499
I42
VSimpleName: RetryHandler
p3500
tp3501
I1
s(g1434
I42
g1435
Vinsert
p3502
I42
VSimpleName: RequestHandle
p3503
tp3504
I1
s(g492
I42
g493
Vinsert
p3505
I83
VModifier: final
p3506
tp3507
I2
s(g773
I42
g774
Vinsert
p3508
I27
VInfixExpression: !=
p3509
tp3510
I2
s(g673
I42
g674
Vinsert
p3511
I22
VFieldAccess
p3512
tp3513
I1
s(g993
I42
g994
Vinsert
p3514
I42
VSimpleName: String
p3515
tp3516
I1
s(Vinsert
p3517
I42
VSimpleName: create
p3518
Vinsert
p3519
I42
VSimpleName: HttpGet
p3520
tp3521
I1
s(g700
I42
g701
Vinsert
p3522
I21
VExpressionStatement
p3523
tp3524
I2
s(g173
I42
g174
Vinsert
p3525
I42
VSimpleName: getSampleTitle
p3526
tp3527
I1
s(g125
I42
g126
Vinsert
p3528
I42
VSimpleName: File
p3529
tp3530
I1
s(g814
I42
g815
Vinsert
p3531
I42
VSimpleName: filename
p3532
tp3533
I2
s(g469
I42
g470
Vinsert
p3534
I44
VSingleVariableDeclaration
p3535
tp3536
I3
s(g647
I42
g648
Vinsert
p3537
I23
VFieldDeclaration
p3538
tp3539
I1
s(Vinsert
p3540
I42
VSimpleName: getVideoWidth
p3541
Vinsert
p3542
I43
VSimpleType: MediaPlayer
p3543
tp3544
I1
s(g228
I42
g229
Vinsert
p3545
I25
VIfStatement
p3546
tp3547
I4
s(g846
I42
g847
Vinsert
p3548
I42
VSimpleName: file
p3549
tp3550
I3
s(g388
I42
g389
Vinsert
p3551
I33
VNullLiteral
p3552
tp3553
I2
s(g1377
I42
g1378
Vinsert
p3554
I43
VSimpleType: SampleJSON
p3555
tp3556
I1
s(g378
I42
g379
Vinsert
p3557
I34
VNumberLiteral: 16384
p3558
tp3559
I1
s(g814
I42
g815
Vinsert
p3560
I32
VMethodInvocation
p3561
tp3562
I1
s(g115
I42
g116
Vinsert
p3563
I42
VSimpleName: out
p3564
tp3565
I1
s(Vinsert
p3566
I42
VSimpleName: w
p3567
Vinsert
p3568
I45
VStringLiteral: "onFailure(int, Header[], Throwable, JSONObject) was not overriden, but callback was received"
p3569
tp3570
I1
s(g469
I42
g470
Vinsert
p3571
I46
VSuperConstructorInvocation
p3572
tp3573
I3
s(g295
I42
g296
Vinsert
p3574
I43
VSimpleType: Object
p3575
tp3576
I1
s(g652
I42
g653
Vinsert
p3577
I42
VSimpleName: mAllowedContentTypes
p3578
tp3579
I1
s(g1590
I42
g1591
Vinsert
p3580
I44
VSingleVariableDeclaration
p3581
tp3582
I1
s(g360
I42
g361
Vinsert
p3583
I42
VSimpleName: append
p3584
tp3585
I1
s(g21
I42
g22
Vinsert
p3586
I39
VPrimitiveType: byte
p3587
tp3588
I1
s(g1434
I42
g1435
Vinsert
p3589
I44
VSingleVariableDeclaration
p3590
tp3591
I1
s(g91
I42
g92
Vinsert
p3592
I42
VSimpleName: ArrayIndexOutOfBoundsException
p3593
tp3594
I2
s(g178
I42
g179
Vinsert
p3595
I25
VIfStatement
p3596
tp3597
I1
s(g247
I42
g248
Vinsert
p3598
I83
VModifier: public
p3599
tp3600
I1
s(g1122
I42
g1123
Vinsert
p3601
I43
VSimpleType: Object
p3602
tp3603
I1
s(g270
I42
g271
Vinsert
p3604
I78
VMarkerAnnotation
p3605
tp3606
I1
s(g1247
I42
g1248
Vinsert
p3607
I21
VExpressionStatement
p3608
tp3609
I1
s(g993
I42
g994
Vinsert
p3610
I11
VCastExpression
p3611
tp3612
I1
s(g744
I42
g745
Vinsert
p3613
I42
VSimpleName: headers
p3614
tp3615
I4
s(g427
I42
g428
Vinsert
p3616
I43
VSimpleType: Context
p3617
tp3618
I1
s(g51
I42
g52
Vinsert
p3619
I42
VSimpleName: RequestHandle
p3620
tp3621
I1
s(g414
I42
g415
Vinsert
p3622
I44
VSingleVariableDeclaration
p3623
tp3624
I7
s(g3540
I42
g3541
Vinsert
p3625
I42
VSimpleName: height
p3626
tp3627
I1
s(g595
I42
g596
Vinsert
p3628
I22
VFieldAccess
p3629
tp3630
I1
s(g3566
I42
g3567
Vinsert
p3631
I42
VSimpleName: w
p3632
tp3633
I2
s(g909
I42
g910
Vinsert
p3634
I42
VSimpleName: JSONObject
p3635
tp3636
I1
s(g265
I42
g266
Vinsert
p3637
I25
VIfStatement
p3638
tp3639
I1
s(g86
I42
g87
Vinsert
p3640
I83
VModifier: volatile
p3641
tp3642
I1
s(g173
I42
g174
Vinsert
p3643
I78
VMarkerAnnotation
p3644
tp3645
I2
s(g325
I42
g326
Vinsert
p3646
I33
VNullLiteral
p3647
tp3648
I3
s(g135
I42
g136
Vinsert
p3649
I62
VInstanceofExpression
p3650
tp3651
I1
s(g731
I42
g732
Vinsert
p3652
I65
VTagElement: @param
p3653
tp3654
I1
s(g1292
I42
g1293
Vinsert
p3655
I42
VSimpleName: headersRaw
p3656
tp3657
I1
s(g547
I42
g548
Vinsert
p3658
I25
VIfStatement
p3659
tp3660
I1
s(g404
I42
g405
Vinsert
p3661
I42
VSimpleName: addEntityToRequestBase
p3662
tp3663
I2
s(g228
I42
g229
Vinsert
p3664
I42
VSimpleName: httpDelete
p3665
tp3666
I2
s(g86
I42
g87
Vinsert
p3667
I23
VFieldDeclaration
p3668
tp3669
I1
s(g1127
I42
g1128
Vinsert
p3670
I21
VExpressionStatement
p3671
tp3672
I1
s(g1080
I42
g1081
Vinsert
p3673
I8
VBlock
p3674
tp3675
I1
s(g1080
I42
g1081
Vinsert
p3676
I44
VSingleVariableDeclaration
p3677
tp3678
I1
s(g1740
I42
g1741
Vinsert
p3679
I66
VTextElement:  array of content-types or Pattern string templates (eg. '.*' to match every response)
p3680
tp3681
I1
s(g1050
I42
g1051
Vinsert
p3682
I21
VExpressionStatement
p3683
tp3684
I6
s(g2177
I42
g2178
Vinsert
p3685
I43
VSimpleType: String
p3686
tp3687
I2
s(g1228
I42
g1229
Vinsert
p3688
I42
VSimpleName: wrappedEntity
p3689
tp3690
I1
s(g6
I42
g7
Vinsert
p3691
I42
VSimpleName: source
p3692
tp3693
I1
s(g634
I42
g635
Vinsert
p3694
I43
VSimpleType: RequestParams
p3695
tp3696
I2
s(g228
I42
g229
Vinsert
p3697
I14
VClassInstanceCreation
p3698
tp3699
I4
s(g135
I42
g136
Vinsert
p3700
I42
VSimpleName: value
p3701
tp3702
I2
s(g2583
I42
g2584
Vinsert
p3703
I43
VSimpleType: HttpHost
p3704
tp3705
I1
s(g634
I42
g635
Vinsert
p3706
I60
VVariableDeclarationStatement
p3707
tp3708
I1
s(g290
I42
g291
Vinsert
p3709
I42
VSimpleName: LinearLayout
p3710
tp3711
I2
s(g895
I42
g896
Vinsert
p3712
I42
VSimpleName: TAG
p3713
tp3714
I1
s(g1080
I42
g1081
Vinsert
p3715
I39
VPrimitiveType: void
p3716
tp3717
I1
s(g1117
I42
g1118
Vinsert
p3718
I42
VSimpleName: httpPort
p3719
tp3720
I2
s(g1444
I42
g1445
Vinsert
p3721
I7
VAssignment: =
p3722
tp3723
I2
s(g315
I42
g316
Vinsert
p3724
I8
VBlock
p3725
tp3726
I1
s(g370
I42
g371
Vinsert
p3727
I43
VSimpleType: Boolean
p3728
tp3729
I1
s(g1018
I42
g1019
Vinsert
p3730
I83
VModifier: public
p3731
tp3732
I1
s(g838
I42
g839
Vinsert
p3733
I59
VVariableDeclarationFragment
p3734
tp3735
I1
s(g242
I42
g243
Vinsert
p3736
I42
VSimpleName: HttpEntity
p3737
tp3738
I1
s(g456
I42
g457
Vinsert
p3739
I42
VSimpleName: entity
p3740
tp3741
I1
s(g952
I42
g953
Vinsert
p3742
I43
VSimpleType: String
p3743
tp3744
I1
s(g744
I42
g745
Vinsert
p3745
I5
VArrayType: Header[]
p3746
tp3747
I2
s(g647
I42
g648
Vinsert
p3748
I45
VStringLiteral: "null"
p3749
tp3750
I1
s(g183
I42
g184
Vinsert
p3751
I42
VSimpleName: String
p3752
tp3753
I1
s(g427
I42
g428
Vinsert
p3754
I42
VSimpleName: Context
p3755
tp3756
I1
s(g647
I42
g648
Vinsert
p3757
I59
VVariableDeclarationFragment
p3758
tp3759
I2
s(g295
I42
g296
Vinsert
p3760
I32
VMethodInvocation
p3761
tp3762
I4
s(g547
I42
g548
Vinsert
p3763
I74
VParameterizedType: Class<?>
p3764
tp3765
I1
s(g2642
I42
g2643
Vinsert
p3766
I42
VSimpleName: RequestParams
p3767
tp3768
I2
s(g223
I42
g224
Vinsert
p3769
I21
VExpressionStatement
p3770
tp3771
I3
s(g895
I42
g896
Vinsert
p3772
I83
VModifier: public
p3773
tp3774
I1
s(g315
I42
g316
Vinsert
p3775
I43
VSimpleType: HttpResponse
p3776
tp3777
I1
s(g1196
I42
g1197
Vinsert
p3778
I40
VQualifiedName: ClientContext.TARGET_AUTH_STATE
p3779
tp3780
I1
s(g1292
I42
g1293
Vinsert
p3781
I42
VSimpleName: lines
p3782
tp3783
I1
s(g1080
I42
g1081
Vinsert
p3784
I40
VQualifiedName: android.util.Log
p3785
tp3786
I1
s(g1423
I42
g1424
Vinsert
p3787
I44
VSingleVariableDeclaration
p3788
tp3789
I1
s(g606
I42
g607
Vinsert
p3790
I43
VSimpleType: Integer
p3791
tp3792
I1
s(g647
I42
g648
Vinsert
p3793
I39
VPrimitiveType: byte
p3794
tp3795
I1
s(g335
I42
g336
Vinsert
p3796
I42
VSimpleName: Boolean
p3797
tp3798
I2
s(g1085
I42
g1086
Vinsert
p3799
I42
VSimpleName: useRFC5179CompatibilityMode
p3800
tp3801
I2
s(g2025
I42
g2026
Vinsert
p3802
I42
VSimpleName: StringBuilder
p3803
tp3804
I1
s(g993
I42
g994
Vinsert
p3805
I42
VSimpleName: statusCode
p3806
tp3807
I1
s(g285
I42
g286
Vinsert
p3808
I42
VSimpleName: responseBody
p3809
tp3810
I1
s(g1504
I42
g1505
Vinsert
p3811
I85
VDimension
p3812
tp3813
I1
s(g1882
I42
g1883
Vinsert
p3814
I42
VSimpleName: Log
p3815
tp3816
I2
s(g208
I42
g209
Vinsert
p3817
I42
VSimpleName: cache
p3818
tp3819
I1
s(g595
I42
g596
Vinsert
p3820
I42
VSimpleName: getUsePoolThread
p3821
tp3822
I1
s(g285
I42
g286
Vinsert
p3823
I42
VSimpleName: LIGHTGREEN
p3824
tp3825
I2
s(g1434
I42
g1435
Vinsert
p3826
I32
VMethodInvocation
p3827
tp3828
I2
s(g895
I42
g896
Vinsert
p3829
I43
VSimpleType: Object
p3830
tp3831
I1
s(g1247
I42
g1248
Vinsert
p3832
I42
VSimpleName: userAgent
p3833
tp3834
I1
s(g197
I42
g198
Vinsert
p3835
I42
VSimpleName: requestMap
p3836
tp3837
I1
s(g1292
I42
g1293
Vinsert
p3838
I34
VNumberLiteral: 3
p3839
tp3840
I1
s(g1882
I42
g1883
Vinsert
p3841
I42
VSimpleName: d
p3842
tp3843
I2
s(g275
I42
g276
Vinsert
p3844
I42
VSimpleName: Iterator
p3845
tp3846
I1
s(g437
I42
g438
Vinsert
p3847
I42
VSimpleName: Header
p3848
tp3849
I1
s(g99
I42
g100
Vinsert
p3850
I42
VSimpleName: Runnable
p3851
tp3852
I4
s(g183
I42
g184
Vinsert
p3853
I27
VInfixExpression: &&
p3854
tp3855
I1
s(g183
I42
g184
Vinsert
p3856
I42
VSimpleName: getHeadersText
p3857
tp3858
I1
s(g56
I42
g57
Vinsert
p3859
I21
VExpressionStatement
p3860
tp3861
I2
s(g665
I42
g666
Vinsert
p3862
I8
VBlock
p3863
tp3864
I5
s(g140
I42
g141
Vinsert
p3865
I14
VClassInstanceCreation
p3866
tp3867
I1
s(g265
I42
g266
Vinsert
p3868
I42
VSimpleName: item
p3869
tp3870
I2
s(g414
I42
g415
Vinsert
p3871
I32
VMethodInvocation
p3872
tp3873
I8
s(g700
I42
g701
Vinsert
p3874
I27
VInfixExpression: !=
p3875
tp3876
I1
s(g3386
I42
g3387
Vinsert
p3877
I42
VSimpleName: finish
p3878
tp3879
I1
s(g846
I42
g847
Vinsert
p3880
I42
VSimpleName: key
p3881
tp3882
I1
s(g265
I42
g266
Vinsert
p3883
I78
VMarkerAnnotation
p3884
tp3885
I1
s(g86
I42
g87
Vinsert
p3886
I7
VAssignment: =
p3887
tp3888
I1
s(g2025
I42
g2026
Vinsert
p3889
I27
VInfixExpression: !=
p3890
tp3891
I1
s(g335
I42
g336
Vinsert
p3892
I43
VSimpleType: Boolean
p3893
tp3894
I2
s(g487
I42
g488
Vinsert
p3895
I42
VSimpleName: header
p3896
tp3897
I2
s(g652
I42
g653
Vinsert
p3898
I8
VBlock
p3899
tp3900
I20
s(g814
I42
g815
Vinsert
p3901
I40
VQualifiedName: file.contentType
p3902
tp3903
I1
s(g125
I42
g126
Vinsert
p3904
I42
VSimpleName: getTargetFileByParsingURL
p3905
tp3906
I1
s(g1729
I42
g1730
Vinsert
p3907
I31
VMethodDeclaration
p3908
tp3909
I1
s(g895
I42
g896
Vinsert
p3910
I42
VSimpleName: responseHandler
p3911
tp3912
I1
s(g1045
I42
g1046
Vinsert
p3913
I38
VPrefixExpression: -
p3914
tp3915
I1
s(g2642
I42
g2643
Vinsert
p3916
I42
VSimpleName: params
p3917
tp3918
I2
s(g985
I42
g986
Vinsert
p3919
I59
VVariableDeclarationFragment
p3920
tp3921
I1
s(g838
I42
g839
Vinsert
p3922
I14
VClassInstanceCreation
p3923
tp3924
I2
s(g150
I42
g151
Vinsert
p3925
I33
VNullLiteral
p3926
tp3927
I1
s(g1509
I42
g1510
Vinsert
p3928
I42
VSimpleName: MySSLSocketFactory
p3929
tp3930
I1
s(g228
I42
g229
Vinsert
p3931
I42
VSimpleName: getUrlWithQueryString
p3932
tp3933
I2
s(g809
I42
g810
Vinsert
p3934
I42
VSimpleName: headers
p3935
tp3936
I2
s(g2934
I42
g2935
Vinsert
p3937
I52
VThisExpression
p3938
tp3939
I2
s(g432
I42
g433
Vinsert
p3940
I70
VEnhancedForStatement
p3941
tp3942
I2
s(g798
I42
g799
Vinsert
p3943
I32
VMethodInvocation
p3944
tp3945
I1
s(g1531
I42
g1532
Vinsert
p3946
I8
VBlock
p3947
tp3948
I1
s(g2934
I42
g2935
Vinsert
p3949
I42
VSimpleName: handler
p3950
tp3951
I1
s(g315
I42
g316
Vinsert
p3952
I42
VSimpleName: response
p3953
tp3954
I2
s(g91
I42
g92
Vinsert
p3955
I32
VMethodInvocation
p3956
tp3957
I2
s(g1228
I42
g1229
Vinsert
p3958
I42
VSimpleName: enc
p3959
tp3960
I2
s(g130
I42
g131
Vinsert
p3961
I42
VSimpleName: setAuthenticationPreemptive
p3962
tp3963
I1
s(g705
I42
g706
Vinsert
p3964
I16
VConditionalExpression
p3965
tp3966
I1
s(g320
I42
g321
Vinsert
p3967
I42
VSimpleName: executionCount
p3968
tp3969
I3
s(g634
I42
g635
Vinsert
p3970
I59
VVariableDeclarationFragment
p3971
tp3972
I1
s(g1045
I42
g1046
Vinsert
p3973
I54
VTryStatement
p3974
tp3975
I1
s(g1278
I42
g1279
Vinsert
p3976
I42
VSimpleName: WeakReference
p3977
tp3978
I1
s(g652
I42
g653
Vinsert
p3979
I7
VAssignment: =
p3980
tp3981
I2
s(g1037
I42
g1038
Vinsert
p3982
I42
VSimpleName: name
p3983
tp3984
I1
s(g689
I42
g690
Vinsert
p3985
I83
VModifier: public
p3986
tp3987
I1
s(g798
I42
g799
Vinsert
p3988
I33
VNullLiteral
p3989
tp3990
I1
s(g150
I42
g151
Vinsert
p3991
I42
VSimpleName: AsyncHttpRequest
p3992
tp3993
I1
s(g773
I42
g774
Vinsert
p3994
I39
VPrimitiveType: void
p3995
tp3996
I2
s(g76
I42
g77
Vinsert
p3997
I42
VSimpleName: debugStatusCode
p3998
tp3999
I1
s(g1236
I42
g1237
Vinsert
p4000
I21
VExpressionStatement
p4001
tp4002
I3
s(g492
I42
g493
Vinsert
p4003
I40
VQualifiedName: com.loopj.android.http.MyRedirectHandler
p4004
tp4005
I1
s(g1531
I42
g1532
Vinsert
p4006
I7
VAssignment: =
p4007
tp4008
I1
s(g560
I42
g561
Vinsert
p4009
I32
VMethodInvocation
p4010
tp4011
I1
s(g952
I42
g953
Vinsert
p4012
I45
VStringLiteral: "Content-Type: "
p4013
tp4014
I1
s(g1787
I42
g1788
Vinsert
p4015
I5
VArrayType: Object[]
p4016
tp4017
I1
s(g197
I42
g198
Vinsert
p4018
I43
VSimpleType: List
p4019
tp4020
I1
s(g378
I42
g379
Vinsert
p4021
I42
VSimpleName: status
p4022
tp4023
I5
s(g414
I42
g415
Vinsert
p4024
I42
VSimpleName: responseHandler
p4025
tp4026
I16
s(g6
I42
g7
Vinsert
p4027
I40
VQualifiedName: Map.Entry
p4028
tp4029
I1
s(g1509
I42
g1510
Vinsert
p4030
I44
VSingleVariableDeclaration
p4031
tp4032
I1
s(g173
I42
g174
Vinsert
p4033
I32
VMethodInvocation
p4034
tp4035
I15
s(g178
I42
g179
Vinsert
p4036
I21
VExpressionStatement
p4037
tp4038
I1
s(g2394
I42
g2395
Vinsert
p4039
I42
VSimpleName: AsyncHttpClient
p4040
tp4041
I1
s(g700
I42
g701
Vinsert
p4042
I42
VSimpleName: setVisibility
p4043
tp4044
I1
s(g451
I42
g452
Vinsert
p4045
I42
VSimpleName: sendFailureMessage
p4046
tp4047
I1
s(g773
I42
g774
Vinsert
p4048
I42
VSimpleName: Message
p4049
tp4050
I2
s(g798
I42
g799
Vinsert
p4051
I42
VSimpleName: temp
p4052
tp4053
I3
s(g1278
I42
g1279
Vinsert
p4054
I42
VSimpleName: requestList
p4055
tp4056
I2
s(g168
I42
g169
Vinsert
p4057
I25
VIfStatement
p4058
tp4059
I1
s(g61
I42
g62
Vinsert
p4060
I42
VSimpleName: request
p4061
tp4062
I3
s(g895
I42
g896
Vinsert
p4063
I66
VTextElement:  this AsyncHttpRequest to allow fluid syntax
p4064
tp4065
I1
s(g2177
I42
g2178
Vinsert
p4066
I42
VSimpleName: password
p4067
tp4068
I1
s(g270
I42
g271
Vinsert
p4069
I32
VMethodInvocation
p4070
tp4071
I9
s(g2533
I42
g2534
Vinsert
p4072
I44
VSingleVariableDeclaration
p4073
tp4074
I1
s(g1080
I42
g1081
Vinsert
p4075
I65
VTagElement: @param
p4076
tp4077
I1
s(g1551
I42
g1552
Vinsert
p4078
I42
VSimpleName: debugResponse
p4079
tp4080
I1
s(g705
I42
g706
Vinsert
p4081
I32
VMethodInvocation
p4082
tp4083
I2
s(g183
I42
g184
Vinsert
p4084
I43
VSimpleType: String
p4085
tp4086
I1
s(g2934
I42
g2935
Vinsert
p4087
I8
VBlock
p4088
tp4089
I2
s(g1171
I42
g1172
Vinsert
p4090
I40
VQualifiedName: android.util.Log
p4091
tp4092
I1
s(g971
I42
g972
Vinsert
p4093
I42
VSimpleName: h
p4094
tp4095
I1
s(g247
I42
g248
Vinsert
p4096
I43
VSimpleType: ThreadingTimeoutSample
p4097
tp4098
I1
s(g2163
I42
g2164
Vinsert
p4099
I42
VSimpleName: substring
p4100
tp4101
I1
s(g11
I42
g12
Vinsert
p4102
I39
VPrimitiveType: void
p4103
tp4104
I1
s(g2934
I42
g2935
Vinsert
p4105
I21
VExpressionStatement
p4106
tp4107
I4
s(g576
I42
g577
Vinsert
p4108
I74
VParameterizedType: List<RequestHandle>
p4109
tp4110
I2
s(g86
I42
g87
Vinsert
p4111
I42
VSimpleName: isCancelled
p4112
tp4113
I1
s(g1292
I42
g1293
Vinsert
p4114
I27
VInfixExpression: >
p4115
tp4116
I1
s(g1616
I42
g1617
Vinsert
p4117
I45
VStringLiteral: "SUCCESS_MESSAGE didn't got enough params"
p4118
tp4119
I1
s(g2492
I42
g2493
Vinsert
p4120
I42
VSimpleName: HttpPut
p4121
tp4122
I1
s(g1075
I42
g1076
Vinsert
p4123
I38
VPrefixExpression: !
p4124
tp4125
I2
s(g744
I42
g745
Vinsert
p4126
I85
VDimension
p4127
tp4128
I4
s(g155
I42
g156
Vinsert
p4129
I45
VStringLiteral: "Request was interrupted while executing"
p4130
tp4131
I1
s(g31
I42
g32
Vinsert
p4132
I22
VFieldAccess
p4133
tp4134
I1
s(g731
I42
g732
Vinsert
p4135
I22
VFieldAccess
p4136
tp4137
I1
s(g957
I42
g958
Vinsert
p4138
I7
VAssignment: =
p4139
tp4140
I1
s(g26
I42
g27
Vinsert
p4141
I42
VSimpleName: size
p4142
tp4143
I1
s(g130
I42
g131
Vinsert
p4144
I42
VSimpleName: isPreemtive
p4145
tp4146
I3
s(g1117
I42
g1118
Vinsert
p4147
I27
VInfixExpression: <
p4148
tp4149
I1
s(g305
I42
g306
Vinsert
p4150
I42
VSimpleName: Log
p4151
tp4152
I2
s(g1729
I42
g1730
Vinsert
p4153
I27
VInfixExpression: <
p4154
tp4155
I1
s(g155
I42
g156
Vinsert
p4156
I42
VSimpleName: retryHandler
p4157
tp4158
I2
s(g208
I42
g209
Vinsert
p4159
I42
VSimpleName: execute
p4160
tp4161
I1
s(g223
I42
g224
Vinsert
p4162
I32
VMethodInvocation
p4163
tp4164
I12
s(g3540
I42
g3541
Vinsert
p4165
I32
VMethodInvocation
p4166
tp4167
I1
s(g1882
I42
g1883
Vinsert
p4168
I42
VSimpleName: getDefaultHeaders
p4169
tp4170
I1
s(g1616
I42
g1617
Vinsert
p4171
I34
VNumberLiteral: 4
p4172
tp4173
I1
s(g760
I42
g761
Vinsert
p4174
I27
VInfixExpression: &&
p4175
tp4176
I2
s(g1155
I42
g1156
Vinsert
p4177
I21
VExpressionStatement
p4178
tp4179
I1
s(g115
I42
g116
Vinsert
p4180
I27
VInfixExpression: ==
p4181
tp4182
I1
s(g51
I42
g52
Vinsert
p4183
I60
VVariableDeclarationStatement
p4184
tp4185
I3
s(g998
I42
g999
Vinsert
p4186
I42
VSimpleName: entity
p4187
tp4188
I2
s(g120
I42
g121
Vinsert
p4189
I43
VSimpleType: Object
p4190
tp4191
I1
s(g1490
I42
g1491
Vinsert
p4192
I43
VSimpleType: Exception
p4193
tp4194
I1
s(g320
I42
g321
Vinsert
p4195
I34
VNumberLiteral: 0
p4196
tp4197
I2
s(g523
I42
g524
Vinsert
p4198
I42
VSimpleName: value
p4199
tp4200
I1
s(g130
I42
g131
Vinsert
p4201
I44
VSingleVariableDeclaration
p4202
tp4203
I1
s(g1075
I42
g1076
Vinsert
p4204
I59
VVariableDeclarationFragment
p4205
tp4206
I2
s(g1377
I42
g1378
Vinsert
p4207
I42
VSimpleName: rawJsonData
p4208
tp4209
I2
s(g1787
I42
g1788
Vinsert
p4210
I42
VSimpleName: FAILURE_JSON_MESSAGE
p4211
tp4212
I1
s(g2177
I42
g2178
Vinsert
p4213
I8
VBlock
p4214
tp4215
I1
s(g335
I42
g336
Vinsert
p4216
I42
VSimpleName: retry
p4217
tp4218
I1
s(g310
I42
g311
Vinsert
p4219
I42
VSimpleName: d
p4220
tp4221
I1
s(g352
I42
g353
Vinsert
p4222
I41
VReturnStatement
p4223
tp4224
I1
s(g1306
I42
g1307
Vinsert
p4225
I42
VSimpleName: ACTION_FINISH
p4226
tp4227
I1
s(g352
I42
g353
Vinsert
p4228
I42
VSimpleName: credentials
p4229
tp4230
I1
s(g547
I42
g548
Vinsert
p4231
I76
VWildcardType: ?
p4232
tp4233
I1
s(g11
I42
g12
Vinsert
p4234
I66
VTextElement:  the name of the header
p4235
tp4236
I1
s(g1551
I42
g1552
Vinsert
p4237
I27
VInfixExpression: +
p4238
tp4239
I1
s(g595
I42
g596
Vinsert
p4240
I8
VBlock
p4241
tp4242
I1
s(g1247
I42
g1248
Vinsert
p4243
I65
VTagElement
p4244
tp4245
I1
s(g1075
I42
g1076
Vinsert
p4246
I21
VExpressionStatement
p4247
tp4248
I4
s(g320
I42
g321
Vinsert
p4249
I32
VMethodInvocation
p4250
tp4251
I6
s(g1026
I42
g1027
Vinsert
p4252
I14
VClassInstanceCreation
p4253
tp4254
I1
s(Vinsert
p4255
I42
VSimpleName: get
p4256
Vinsert
p4257
I43
VSimpleType: HttpEntity
p4258
tp4259
I4
s(Vinsert
p4260
I42
VSimpleName: valueOf
p4261
Vinsert
p4262
I48
VSuperMethodInvocation
p4263
tp4264
I1
s(g81
I42
g82
Vinsert
p4265
I42
VSimpleName: count
p4266
tp4267
I1
s(g1590
I42
g1591
Vinsert
p4268
I39
VPrimitiveType: int
p4269
tp4270
I1
s(g275
I42
g276
Vinsert
p4271
I42
VSimpleName: Throwable
p4272
tp4273
I1
s(g1171
I42
g1172
Vinsert
p4274
I42
VSimpleName: fixNoHttpResponseException
p4275
tp4276
I1
s(g218
I42
g219
Vinsert
p4277
I42
VSimpleName: ClassNotFoundException
p4278
tp4279
I1
s(g846
I42
g847
Vinsert
p4280
I14
VClassInstanceCreation
p4281
tp4282
I1
s(g26
I42
g27
Vinsert
p4283
I27
VInfixExpression: <
p4284
tp4285
I1
s(g749
I42
g750
Vinsert
p4286
I85
VDimension
p4287
tp4288
I3
s(g1630
I42
g1631
Vinsert
p4289
I76
VWildcardType: ?
p4290
tp4291
I1
s(g547
I42
g548
Vinsert
p4292
I43
VSimpleType: Class
p4293
tp4294
I1
s(g555
I42
g556
Vinsert
p4295
I7
VAssignment: =
p4296
tp4297
I1
s(g784
I42
g785
Vinsert
p4298
I42
VSimpleName: debugMessage
p4299
tp4300
I1
s(g920
I42
g921
Vinsert
p4301
I52
VThisExpression
p4302
tp4303
I4
s(g571
I42
g572
Vinsert
p4304
I52
VThisExpression
p4305
tp4306
I1
s(Vinsert
p4307
I42
VSimpleName: retryRequest
p4308
Vinsert
p4309
I44
VSingleVariableDeclaration
p4310
tp4311
I1
s(g1037
I42
g1038
Vinsert
p4312
I39
VPrimitiveType: void
p4313
tp4314
I1
s(g469
I42
g470
Vinsert
p4315
I42
VSimpleName: uri
p4316
tp4317
I3
s(g652
I42
g653
Vinsert
p4318
I33
VNullLiteral
p4319
tp4320
I5
s(g657
I42
g658
Vinsert
p4321
I42
VSimpleName: InputStreamReader
p4322
tp4323
I1
s(g3386
I42
g3387
Vinsert
p4324
I27
VInfixExpression: >=
p4325
tp4326
I1
s(g537
I42
g538
Vinsert
p4327
I42
VSimpleName: sfactory
p4328
tp4329
I1
s(g684
I42
g685
Vinsert
p4330
I7
VAssignment: =
p4331
tp4332
I1
s(g555
I42
g556
Vinsert
p4333
I42
VSimpleName: responseBody
p4334
tp4335
I4
s(g492
I42
g493
Vinsert
p4336
I42
VSimpleName: httpClient
p4337
tp4338
I2
s(g1228
I42
g1229
Vinsert
p4339
I33
VNullLiteral
p4340
tp4341
I1
s(g150
I42
g151
Vinsert
p4342
I60
VVariableDeclarationStatement
p4343
tp4344
I1
s(g2934
I42
g2935
Vinsert
p4345
I42
VSimpleName: looper
p4346
tp4347
I2
s(g178
I42
g179
Vinsert
p4348
I38
VPrefixExpression: !
p4349
tp4350
I1
s(g163
I42
g164
Vinsert
p4351
I25
VIfStatement
p4352
tp4353
I1
s(g135
I42
g136
Vinsert
p4354
I43
VSimpleType: org.json.JSONArray
p4355
tp4356
I1
s(g721
I42
g722
Vinsert
p4357
I66
VTextElement: Will return TAG of this RequestHandle
p4358
tp4359
I1
s(g830
I42
g831
Vinsert
p4360
I45
VStringLiteral: "Download interrupted ("
p4361
tp4362
I1
s(g99
I42
g100
Vinsert
p4363
I42
VSimpleName: run
p4364
tp4365
I6
s(g895
I42
g896
Vinsert
p4366
I22
VFieldAccess
p4367
tp4368
I1
s(g621
I42
g622
Vinsert
p4369
I45
VStringLiteral: "fileFour"
p4370
tp4371
I2
s(g1340
I42
g1341
Vinsert
p4372
I42
VSimpleName: t
p4373
tp4374
I1
s(g768
I42
g769
Vinsert
p4375
I59
VVariableDeclarationFragment
p4376
tp4377
I1
s(g998
I42
g999
Vinsert
p4378
I43
VSimpleType: HttpPost
p4379
tp4380
I1
s(g11
I42
g12
Vinsert
p4381
I43
VSimpleType: String
p4382
tp4383
I1
s(g2934
I42
g2935
Vinsert
p4384
I22
VFieldAccess
p4385
tp4386
I1
s(g300
I42
g301
Vinsert
p4387
I45
VStringLiteral: "Started"
p4388
tp4389
I1
s(g621
I42
g622
Vinsert
p4390
I42
VSimpleName: createTempFile
p4391
tp4392
I2
s(g360
I42
g361
Vinsert
p4393
I42
VSimpleName: value
p4394
tp4395
I1
s(g665
I42
g666
Vinsert
p4396
I27
VInfixExpression: !=
p4397
tp4398
I2
s(g432
I42
g433
Vinsert
p4399
I44
VSingleVariableDeclaration
p4400
tp4401
I2
s(g2177
I42
g2178
Vinsert
p4402
I44
VSingleVariableDeclaration
p4403
tp4404
I2
s(g257
I42
g258
Vinsert
p4405
I3
VArrayCreation
p4406
tp4407
I1
s(g3540
I42
g3541
Vinsert
p4408
I39
VPrimitiveType: int
p4409
tp4410
I2
s(g537
I42
g538
Vinsert
p4411
I59
VVariableDeclarationFragment
p4412
tp4413
I2
s(Vinsert
p4414
I42
VSimpleName: sendFailureMessage
p4415
Vinsert
p4416
I43
VSimpleType: ConnectTimeoutException
p4417
tp4418
I1
s(g1951
I42
g1952
Vinsert
p4419
I42
VSimpleName: Override
p4420
tp4421
I1
s(g1787
I42
g1788
Vinsert
p4422
I42
VSimpleName: obtainMessage
p4423
tp4424
I1
s(g744
I42
g745
Vinsert
p4425
I42
VSimpleName: Header
p4426
tp4427
I4
s(g257
I42
g258
Vinsert
p4428
I40
VQualifiedName: encoder.output
p4429
tp4430
I1
s(g352
I42
g353
Vinsert
p4431
I21
VExpressionStatement
p4432
tp4433
I2
s(g590
I42
g591
Vinsert
p4434
I42
VSimpleName: httpsPort
p4435
tp4436
I1
s(g1531
I42
g1532
Vinsert
p4437
I38
VPrefixExpression: !
p4438
tp4439
I2
s(g1691
I42
g1692
Vinsert
p4440
I8
VBlock
p4441
tp4442
I1
s(g270
I42
g271
Vinsert
p4443
I44
VSingleVariableDeclaration
p4444
tp4445
I4
s(g957
I42
g958
Vinsert
p4446
I32
VMethodInvocation
p4447
tp4448
I1
s(g1357
I42
g1358
Vinsert
p4449
I27
VInfixExpression: &&
p4450
tp4451
I1
s(g173
I42
g174
Vinsert
p4452
I21
VExpressionStatement
p4453
tp4454
I12
s(g178
I42
g179
Vinsert
p4455
I32
VMethodInvocation
p4456
tp4457
I3
s(g2111
I42
g2112
Vinsert
p4458
I25
VIfStatement
p4459
tp4460
I2
s(g1311
I42
g1312
Vinsert
p4461
I39
VPrimitiveType: void
p4462
tp4463
I2
s(g482
I42
g483
Vinsert
p4464
I42
VSimpleName: title
p4465
tp4466
I1
s(g1590
I42
g1591
Vinsert
p4467
I42
VSimpleName: timeout
p4468
tp4469
I1
s(g3566
I42
g3567
Vinsert
p4470
I21
VExpressionStatement
p4471
tp4472
I2
s(g2533
I42
g2534
Vinsert
p4473
I66
VTextElement:  boolean
p4474
tp4475
I1
s(g1590
I42
g1591
Vinsert
p4476
I42
VSimpleName: BasicHttpParams
p4477
tp4478
I1
s(g270
I42
g271
Vinsert
p4479
I42
VSimpleName: onCreateOptionsMenu
p4480
tp4481
I1
s(g838
I42
g839
Vinsert
p4482
I43
VSimpleType: URI
p4483
tp4484
I2
s(g1630
I42
g1631
Vinsert
p4485
I42
VSimpleName: cls
p4486
tp4487
I2
s(g487
I42
g488
Vinsert
p4488
I60
VVariableDeclarationStatement
p4489
tp4490
I1
s(g700
I42
g701
Vinsert
p4491
I42
VSimpleName: isCancelButtonAllowed
p4492
tp4493
I1
s(g155
I42
g156
Vinsert
p4494
I42
VSimpleName: e
p4495
tp4496
I3
s(g952
I42
g953
Vinsert
p4497
I27
VInfixExpression: +
p4498
tp4499
I1
s(g867
I42
g868
Vinsert
p4500
I42
VSimpleName: t
p4501
tp4502
I1
s(g665
I42
g666
Vinsert
p4503
I33
VNullLiteral
p4504
tp4505
I2
s(g1155
I42
g1156
Vinsert
p4506
I42
VSimpleName: LOG_TAG
p4507
tp4508
I1
s(g310
I42
g311
Vinsert
p4509
I42
VSimpleName: headers
p4510
tp4511
I1
s(g492
I42
g493
Vinsert
p4512
I66
VTextElement: your needs
p4513
tp4514
I1
s(g1391
I42
g1392
Vinsert
p4515
I43
VSimpleType: LinkedList
p4516
tp4517
I1
s(g51
I42
g52
Vinsert
p4518
I42
VSimpleName: request
p4519
tp4520
I1
s(g1740
I42
g1741
Vinsert
p4521
I65
VTagElement: @return
p4522
tp4523
I1
s(g952
I42
g953
Vinsert
p4524
I83
VModifier: final
p4525
tp4526
I1
s(g61
I42
g62
Vinsert
p4527
I43
VSimpleType: AsyncHttpRequest
p4528
tp4529
I2
s(g1951
I42
g1952
Vinsert
p4530
I42
VSimpleName: onSuccess
p4531
tp4532
I1
s(g487
I42
g488
Vinsert
p4533
I42
VSimpleName: request
p4534
tp4535
I1
s(g183
I42
g184
Vinsert
p4536
I32
VMethodInvocation
p4537
tp4538
I1
s(g952
I42
g953
Vinsert
p4539
I42
VSimpleName: contentType
p4540
tp4541
I2
s(g36
I42
g37
Vinsert
p4542
I41
VReturnStatement
p4543
tp4544
I2
s(g798
I42
g799
Vinsert
p4545
I43
VSimpleType: BufferedHttpEntity
p4546
tp4547
I1
s(g99
I42
g100
Vinsert
p4548
I42
VSimpleName: Thread
p4549
tp4550
I2
s(g576
I42
g577
Vinsert
p4551
I41
VReturnStatement
p4552
tp4553
I1
s(g1551
I42
g1552
Vinsert
p4554
I42
VSimpleName: i
p4555
tp4556
I1
s(g639
I42
g640
Vinsert
p4557
I27
VInfixExpression: +
p4558
tp4559
I1
s(g639
I42
g640
Vinsert
p4560
I45
VStringLiteral: "Invalid redirect URI: "
p4561
tp4562
I1
s(g290
I42
g291
Vinsert
p4563
I42
VSimpleName: findViewById
p4564
tp4565
I1
s(g432
I42
g433
Vinsert
p4566
I43
VSimpleType: ConcurrentHashMap.Entry
p4567
tp4568
I1
s(g749
I42
g750
Vinsert
p4569
I11
VCastExpression
p4570
tp4571
I6
s(g461
I42
g462
Vinsert
p4572
I42
VSimpleName: handler
p4573
tp4574
I1
s(g1
I42
g2
Vinsert
p4575
I34
VNumberLiteral: 0
p4576
tp4577
I1
s(g218
I42
g219
Vinsert
p4578
I12
VCatchClause
p4579
tp4580
I1
s(g846
I42
g847
Vinsert
p4581
I42
VSimpleName: File
p4582
tp4583
I1
s(g3540
I42
g3541
Vinsert
p4584
I42
VSimpleName: width
p4585
tp4586
I1
s(g639
I42
g640
Vinsert
p4587
I43
VSimpleType: ProtocolException
p4588
tp4589
I1
s(g183
I42
g184
Vinsert
p4590
I33
VNullLiteral
p4591
tp4592
I1
s(g639
I42
g640
Vinsert
p4593
I42
VSimpleName: ex
p4594
tp4595
I1
s(g1247
I42
g1248
Vinsert
p4596
I39
VPrimitiveType: void
p4597
tp4598
I1
s(g1391
I42
g1392
Vinsert
p4599
I42
VSimpleName: getRequestHandles
p4600
tp4601
I1
s(g590
I42
g591
Vinsert
p4602
I32
VMethodInvocation
p4603
tp4604
I1
s(g290
I42
g291
Vinsert
p4605
I42
VSimpleName: customFieldsLayout
p4606
tp4607
I2
s(g280
I42
g281
Vinsert
p4608
I42
VSimpleName: t
p4609
tp4610
I1
s(g2934
I42
g2935
Vinsert
p4611
I32
VMethodInvocation
p4612
tp4613
I5
s(g451
I42
g452
Vinsert
p4614
I34
VNumberLiteral: 1
p4615
tp4616
I1
s(g1740
I42
g1741
Vinsert
p4617
I43
VSimpleType: PatternSyntaxException
p4618
tp4619
I1
s(g952
I42
g953
Vinsert
p4620
I42
VSimpleName: write
p4621
tp4622
I1
s(g739
I42
g740
Vinsert
p4623
I41
VReturnStatement
p4624
tp4625
I1
s(g1683
I42
g1684
Vinsert
p4626
I42
VSimpleName: BUILDER
p4627
tp4628
I1
s(g814
I42
g815
Vinsert
p4629
I25
VIfStatement
p4630
tp4631
I1
s(g705
I42
g706
Vinsert
p4632
I43
VSimpleType: Boolean
p4633
tp4634
I2
s(g228
I42
g229
Vinsert
p4635
I33
VNullLiteral
p4636
tp4637
I4
s(g285
I42
g286
Vinsert
p4638
I45
VStringLiteral: "Request succeeded ("
p4639
tp4640
I1
s(g1075
I42
g1076
Vinsert
p4641
I60
VVariableDeclarationStatement
p4642
tp4643
I2
s(g1075
I42
g1076
Vinsert
p4644
I25
VIfStatement
p4645
tp4646
I2
s(g437
I42
g438
Vinsert
p4647
I32
VMethodInvocation
p4648
tp4649
I4
s(g2025
I42
g2026
Vinsert
p4650
I43
VSimpleType: StringBuilder
p4651
tp4652
I1
s(Vinsert
p4653
I42
VSimpleName: intValue
p4654
Vinsert
p4655
I5
VArrayType: Object[]
p4656
tp4657
I1
s(g1551
I42
g1552
Vinsert
p4658
I42
VSimpleName: LOG_TAG
p4659
tp4660
I1
s(g487
I42
g488
Vinsert
p4661
I42
VSimpleName: containsHeader
p4662
tp4663
I1
s(g388
I42
g389
Vinsert
p4664
I27
VInfixExpression: !=
p4665
tp4666
I2
s(g36
I42
g37
Vinsert
p4667
I8
VBlock
p4668
tp4669
I2
s(g173
I42
g174
Vinsert
p4670
I40
VQualifiedName: R.string.title_cancel_tag
p4671
tp4672
I1
s(g3566
I42
g3567
Vinsert
p4673
I42
VSimpleName: throwable
p4674
tp4675
I1
s(g1247
I42
g1248
Vinsert
p4676
I29
VJavadoc
p4677
tp4678
I1
s(g61
I42
g62
Vinsert
p4679
I42
VSimpleName: _request
p4680
tp4681
I3
s(g634
I42
g635
Vinsert
p4682
I21
VExpressionStatement
p4683
tp4684
I6
s(g1247
I42
g1248
Vinsert
p4685
I8
VBlock
p4686
tp4687
I1
s(g46
I42
g47
Vinsert
p4688
I34
VNumberLiteral: 0
p4689
tp4690
I1
s(g1070
I42
g1071
Vinsert
p4691
I42
VSimpleName: contents_scroll
p4692
tp4693
I2
s(g784
I42
g785
Vinsert
p4694
I83
VModifier: final
p4695
tp4696
I2
s(g798
I42
g799
Vinsert
p4697
I42
VSimpleName: BufferedHttpEntity
p4698
tp4699
I1
s(g46
I42
g47
Vinsert
p4700
I42
VSimpleName: bytesRead
p4701
tp4702
I1
s(g163
I42
g164
Vinsert
p4703
I8
VBlock
p4704
tp4705
I1
s(g432
I42
g433
Vinsert
p4706
I42
VSimpleName: entry
p4707
tp4708
I3
s(g427
I42
g428
Vinsert
p4709
I42
VSimpleName: c
p4710
tp4711
I2
s(g280
I42
g281
Vinsert
p4712
I42
VSimpleName: JSON_TYPE
p4713
tp4714
I1
s(g657
I42
g658
Vinsert
p4715
I42
VSimpleName: handler
p4716
tp4717
I1
s(g370
I42
g371
Vinsert
p4718
I42
VSimpleName: Boolean
p4719
tp4720
I1
s(g76
I42
g77
Vinsert
p4721
I42
VSimpleName: getSerializableExtra
p4722
tp4723
I1
s(g713
I42
g714
Vinsert
p4724
I42
VSimpleName: AsyncHttpClient
p4725
tp4726
I3
s(g634
I42
g635
Vinsert
p4727
I32
VMethodInvocation
p4728
tp4729
I7
s(g257
I42
g258
Vinsert
p4730
I5
VArrayType: byte[]
p4731
tp4732
I1
s(g257
I42
g258
Vinsert
p4733
I7
VAssignment: =
p4734
tp4735
I1
s(g1683
I42
g1684
Vinsert
p4736
I27
VInfixExpression: *
p4737
tp4738
I1
s(g295
I42
g296
Vinsert
p4739
I8
VBlock
p4740
tp4741
I2
s(g228
I42
g229
Vinsert
p4742
I42
VSimpleName: HttpDelete
p4743
tp4744
I1
s(g1045
I42
g1046
Vinsert
p4745
I42
VSimpleName: TextUtils
p4746
tp4747
I2
s(g705
I42
g706
Vinsert
p4748
I42
VSimpleName: Boolean
p4749
tp4750
I2
s(g1423
I42
g1424
Vinsert
p4751
I42
VSimpleName: responseBody
p4752
tp4753
I1
s(g3540
I42
g3541
Vinsert
p4754
I42
VSimpleName: mVideoWidth
p4755
tp4756
I1
s(g4255
I42
g4256
Vinsert
p4757
I42
VSimpleName: setAccessible
p4758
tp4759
I1
s(g629
I42
g630
Vinsert
p4760
I42
VSimpleName: sslContext
p4761
tp4762
I1
s(g11
I42
g12
Vinsert
p4763
I42
VSimpleName: header
p4764
tp4765
I2
s(g300
I42
g301
Vinsert
p4766
I42
VSimpleName: onStart
p4767
tp4768
I1
s(g3386
I42
g3387
Vinsert
p4769
I9
VBooleanLiteral: true
p4770
tp4771
I1
s(g814
I42
g815
Vinsert
p4772
I21
VExpressionStatement
p4773
tp4774
I2
s(g497
I42
g498
Vinsert
p4775
I44
VSingleVariableDeclaration
p4776
tp4777
I1
s(g547
I42
g548
Vinsert
p4778
I33
VNullLiteral
p4779
tp4780
I1
s(g1050
I42
g1051
Vinsert
p4781
I44
VSingleVariableDeclaration
p4782
tp4783
I13
s(g1470
I42
g1471
Vinsert
p4784
I42
VSimpleName: key
p4785
tp4786
I1
s(g135
I42
g136
Vinsert
p4787
I43
VSimpleType: org.json.JSONObject
p4788
tp4789
I1
s(g560
I42
g561
Vinsert
p4790
I21
VExpressionStatement
p4791
tp4792
I2
s(g560
I42
g561
Vinsert
p4793
I39
VPrimitiveType: boolean
p4794
tp4795
I1
s(g31
I42
g32
Vinsert
p4796
I43
VSimpleType: UsernamePasswordCredentials
p4797
tp4798
I2
s(g1306
I42
g1307
Vinsert
p4799
I32
VMethodInvocation
p4800
tp4801
I3
s(g985
I42
g986
Vinsert
p4802
I32
VMethodInvocation
p4803
tp4804
I1
s(g252
I42
g253
Vinsert
p4805
I43
VSimpleType: String
p4806
tp4807
I1
s(Vinsert
p4808
I42
VSimpleName: get
p4809
Vinsert
p4810
I42
VSimpleName: result
p4811
tp4812
I1
s(g208
I42
g209
Vinsert
p4813
I42
VSimpleName: responseHandler
p4814
tp4815
I1
s(g135
I42
g136
Vinsert
p4816
I42
VSimpleName: toString
p4817
tp4818
I1
s(g523
I42
g524
Vinsert
p4819
I40
VQualifiedName: java.util.Collections
p4820
tp4821
I1
s(g360
I42
g361
Vinsert
p4822
I42
VSimpleName: indexOf
p4823
tp4824
I1
s(g168
I42
g169
Vinsert
p4825
I42
VSimpleName: response
p4826
tp4827
I1
s(g71
I42
g72
Vinsert
p4828
I43
VSimpleType: Header
p4829
tp4830
I3
s(g576
I42
g577
Vinsert
p4831
I42
VSimpleName: RequestHandle
p4832
tp4833
I2
s(g1236
I42
g1237
Vinsert
p4834
I59
VVariableDeclarationFragment
p4835
tp4836
I1
s(g163
I42
g164
Vinsert
p4837
I44
VSingleVariableDeclaration
p4838
tp4839
I3
s(g163
I42
g164
Vinsert
p4840
I42
VSimpleName: httpContext
p4841
tp4842
I1
s(g130
I42
g131
Vinsert
p4843
I21
VExpressionStatement
p4844
tp4845
I1
s(g437
I42
g438
Vinsert
p4846
I43
VSimpleType: String
p4847
tp4848
I2
s(g726
I42
g727
Vinsert
p4849
I79
VSingleMemberAnnotation
p4850
tp4851
I3
s(g31
I42
g32
Vinsert
p4852
I14
VClassInstanceCreation
p4853
tp4854
I1
s(g404
I42
g405
Vinsert
p4855
I42
VSimpleName: HttpDelete
p4856
tp4857
I2
s(g51
I42
g52
Vinsert
p4858
I43
VSimpleType: RequestHandle
p4859
tp4860
I1
s(g437
I42
g438
Vinsert
p4861
I70
VEnhancedForStatement
p4862
tp4863
I1
s(g2163
I42
g2164
Vinsert
p4864
I34
VNumberLiteral: 1
p4865
tp4866
I1
s(g285
I42
g286
Vinsert
p4867
I8
VBlock
p4868
tp4869
I3
s(g616
I42
g617
Vinsert
p4870
I66
VTextElement: Will, before sending, remove all headers currently present in AsyncHttpClient instance,
p4871
tp4872
I1
s(g1085
I42
g1086
Vinsert
p4873
I42
VSimpleName: JSONException
p4874
tp4875
I1
s(g1026
I42
g1027
Vinsert
p4876
I42
VSimpleName: Override
p4877
tp4878
I1
s(g360
I42
g361
Vinsert
p4879
I42
VSimpleName: values
p4880
tp4881
I1
s(g150
I42
g151
Vinsert
p4882
I42
VSimpleName: get
p4883
tp4884
I1
s(g31
I42
g32
Vinsert
p4885
I42
VSimpleName: credentials
p4886
tp4887
I1
s(g1171
I42
g1172
Vinsert
p4888
I23
VFieldDeclaration
p4889
tp4890
I1
s(g352
I42
g353
Vinsert
p4891
I25
VIfStatement
p4892
tp4893
I1
s(g21
I42
g22
Vinsert
p4894
I42
VSimpleName: StringBuilder
p4895
tp4896
I1
s(g760
I42
g761
Vinsert
p4897
I42
VSimpleName: contentLength
p4898
tp4899
I2
s(g275
I42
g276
Vinsert
p4900
I42
VSimpleName: itr
p4901
tp4902
I1
s(g115
I42
g116
Vinsert
p4903
I42
VSimpleName: e
p4904
tp4905
I1
s(g383
I42
g384
Vinsert
p4906
I21
VExpressionStatement
p4907
tp4908
I2
s(g325
I42
g326
Vinsert
p4909
I42
VSimpleName: File
p4910
tp4911
I2
s(g91
I42
g92
Vinsert
p4912
I27
VInfixExpression: -
p4913
tp4914
I2
s(g2025
I42
g2026
Vinsert
p4915
I33
VNullLiteral
p4916
tp4917
I1
s(g1729
I42
g1730
Vinsert
p4918
I42
VSimpleName: responseHandler
p4919
tp4920
I1
s(g590
I42
g591
Vinsert
p4921
I65
VTagElement: @param
p4922
tp4923
I1
s(g370
I42
g371
Vinsert
p4924
I42
VSimpleName: String
p4925
tp4926
I7
s(g909
I42
g910
Vinsert
p4927
I54
VTryStatement
p4928
tp4929
I1
s(g66
I42
g67
Vinsert
p4930
I52
VThisExpression
p4931
tp4932
I1
s(g2111
I42
g2112
Vinsert
p4933
I33
VNullLiteral
p4934
tp4935
I1
s(g223
I42
g224
Vinsert
p4936
I42
VSimpleName: addView
p4937
tp4938
I1
s(g76
I42
g77
Vinsert
p4939
I42
VSimpleName: Throwable
p4940
tp4941
I1
s(g744
I42
g745
Vinsert
p4942
I2
VArrayAccess
p4943
tp4944
I2
s(g1026
I42
g1027
Vinsert
p4945
I43
VSimpleType: Runnable
p4946
tp4947
I2
s(g1434
I42
g1435
Vinsert
p4948
I43
VSimpleType: RequestHandle
p4949
tp4950
I1
s(g616
I42
g617
Vinsert
p4951
I32
VMethodInvocation
p4952
tp4953
I1
s(g957
I42
g958
Vinsert
p4954
I42
VSimpleName: msg
p4955
tp4956
I2
s(g1
I42
g2
Vinsert
p4957
I42
VSimpleName: getRequestHandles
p4958
tp4959
I1
s(g909
I42
g910
Vinsert
p4960
I42
VSimpleName: firstEvent
p4961
tp4962
I1
s(g335
I42
g336
Vinsert
p4963
I42
VSimpleName: b
p4964
tp4965
I1
s(g705
I42
g706
Vinsert
p4966
I11
VCastExpression
p4967
tp4968
I1
s(g652
I42
g653
Vinsert
p4969
I42
VSimpleName: allowedContentTypes
p4970
tp4971
I3
s(g576
I42
g577
Vinsert
p4972
I45
VStringLiteral: "cancelRequestsByTAG, passed TAG is null, cannot proceed"
p4973
tp4974
I1
s(g542
I42
g543
Vinsert
p4975
I42
VSimpleName: urlParamsWithArray
p4976
tp4977
I1
s(g1630
I42
g1631
Vinsert
p4978
I74
VParameterizedType: Class<?>
p4979
tp4980
I1
s(g1018
I42
g1019
Vinsert
p4981
I39
VPrimitiveType: int
p4982
tp4983
I1
s(g2583
I42
g2584
Vinsert
p4984
I42
VSimpleName: HttpHost
p4985
tp4986
I1
s(g684
I42
g685
Vinsert
p4987
I43
VSimpleType: String
p4988
tp4989
I1
s(g1122
I42
g1123
Vinsert
p4990
I59
VVariableDeclarationFragment
p4991
tp4992
I2
s(g270
I42
g271
Vinsert
p4993
I21
VExpressionStatement
p4994
tp4995
I5
s(g76
I42
g77
Vinsert
p4996
I42
VSimpleName: ACTION_SUCCESS
p4997
tp4998
I1
s(Vinsert
p4999
I42
VSimpleName: get
p5000
Vinsert
p5001
I42
VSimpleName: AsyncHttpResponseHandler
p5002
tp5003
I2
s(g957
I42
g958
Vinsert
p5004
I60
VVariableDeclarationStatement
p5005
tp5006
I1
s(g1188
I42
g1189
Vinsert
p5007
I43
VSimpleType: HttpEntity
p5008
tp5009
I2
s(g1514
I42
g1515
Vinsert
p5010
I32
VMethodInvocation
p5011
tp5012
I1
s(g952
I42
g953
Vinsert
p5013
I32
VMethodInvocation
p5014
tp5015
I2
s(g432
I42
g433
Vinsert
p5016
I43
VSimpleType: String
p5017
tp5018
I3
s(g51
I42
g52
Vinsert
p5019
I32
VMethodInvocation
p5020
tp5021
I3
s(g1531
I42
g1532
Vinsert
p5022
I9
VBooleanLiteral: true
p5023
tp5024
I1
s(g856
I42
g857
Vinsert
p5025
I42
VSimpleName: i
p5026
tp5027
I3
s(g542
I42
g543
Vinsert
p5028
I42
VSimpleName: value
p5029
tp5030
I1
s(g1423
I42
g1424
Vinsert
p5031
I7
VAssignment: =
p5032
tp5033
I2
s(g768
I42
g769
Vinsert
p5034
I42
VSimpleName: inputStream
p5035
tp5036
I2
s(g305
I42
g306
Vinsert
p5037
I8
VBlock
p5038
tp5039
I2
s(g300
I42
g301
Vinsert
p5040
I42
VSimpleName: setStatusMessage
p5041
tp5042
I1
s(g66
I42
g67
Vinsert
p5043
I43
VSimpleType: AlertDialog.Builder
p5044
tp5045
I1
s(g1616
I42
g1617
Vinsert
p5046
I27
VInfixExpression: &&
p5047
tp5048
I1
s(g393
I42
g394
Vinsert
p5049
I34
VNumberLiteral: 1000
p5050
tp5051
I1
s(g432
I42
g433
Vinsert
p5052
I42
VSimpleName: urlParamsWithObjects
p5053
tp5054
I1
s(g163
I42
g164
Vinsert
p5055
I42
VSimpleName: delete
p5056
tp5057
I1
s(g1444
I42
g1445
Vinsert
p5058
I32
VMethodInvocation
p5059
tp5060
I4
s(g1490
I42
g1491
Vinsert
p5061
I42
VSimpleName: ResponseHandlerInterface
p5062
tp5063
I2
s(g749
I42
g750
Vinsert
p5064
I40
VQualifiedName: msg.obj
p5065
tp5066
I3
s(g330
I42
g331
Vinsert
p5067
I41
VReturnStatement
p5068
tp5069
I1
s(g851
I42
g852
Vinsert
p5070
I42
VSimpleName: create
p5071
tp5072
I2
s(g1509
I42
g1510
Vinsert
p5073
I42
VSimpleName: sslSocketFactory
p5074
tp5075
I2
s(g1509
I42
g1510
Vinsert
p5076
I39
VPrimitiveType: boolean
p5077
tp5078
I1
s(g295
I42
g296
Vinsert
p5079
I42
VSimpleName: context
p5080
tp5081
I5
s(g1905
I42
g1906
Vinsert
p5082
I21
VExpressionStatement
p5083
tp5084
I2
s(g135
I42
g136
Vinsert
p5085
I32
VMethodInvocation
p5086
tp5087
I8
s(g352
I42
g353
Vinsert
p5088
I42
VSimpleName: LOG_TAG
p5089
tp5090
I1
s(g1357
I42
g1358
Vinsert
p5091
I27
VInfixExpression: >
p5092
tp5093
I1
s(g1683
I42
g1684
Vinsert
p5094
I13
VCharacterLiteral: ':'
p5095
tp5096
I1
s(g1085
I42
g1086
Vinsert
p5097
I42
VSimpleName: jsonString
p5098
tp5099
I1
s(g713
I42
g714
Vinsert
p5100
I32
VMethodInvocation
p5101
tp5102
I2
s(g1470
I42
g1471
Vinsert
p5103
I60
VVariableDeclarationStatement
p5104
tp5105
I1
s(g295
I42
g296
Vinsert
p5106
I60
VVariableDeclarationStatement
p5107
tp5108
I4
s(g461
I42
g462
Vinsert
p5109
I33
VNullLiteral
p5110
tp5111
I1
s(g2025
I42
g2026
Vinsert
p5112
I60
VVariableDeclarationStatement
p5113
tp5114
I1
s(g1018
I42
g1019
Vinsert
p5115
I21
VExpressionStatement
p5116
tp5117
I3
s(g497
I42
g498
Vinsert
p5118
I42
VSimpleName: String
p5119
tp5120
I3
s(g595
I42
g596
Vinsert
p5121
I32
VMethodInvocation
p5122
tp5123
I4
s(g760
I42
g761
Vinsert
p5124
I42
VSimpleName: l
p5125
tp5126
I2
s(g461
I42
g462
Vinsert
p5127
I9
VBooleanLiteral: true
p5128
tp5129
I1
s(g26
I42
g27
Vinsert
p5130
I37
VPostfixExpression: ++
p5131
tp5132
I1
s(g590
I42
g591
Vinsert
p5133
I42
VSimpleName: fixNoHttpResponseException
p5134
tp5135
I1
s(g46
I42
g47
Vinsert
p5136
I11
VCastExpression
p5137
tp5138
I1
s(g81
I42
g82
Vinsert
p5139
I20
VEmptyStatement
p5140
tp5141
I1
s(g2146
I42
g2147
Vinsert
p5142
I42
VSimpleName: SocketException
p5143
tp5144
I1
s(g393
I42
g394
Vinsert
p5145
I42
VSimpleName: responseTimeout
p5146
tp5147
I1
s(g1490
I42
g1491
Vinsert
p5148
I1
VAnonymousClassDeclaration
p5149
tp5150
I1
s(g773
I42
g774
Vinsert
p5151
I44
VSingleVariableDeclaration
p5152
tp5153
I2
s(g163
I42
g164
Vinsert
p5154
I43
VSimpleType: String
p5155
tp5156
I2
s(g1531
I42
g1532
Vinsert
p5157
I42
VSimpleName: isCancelled
p5158
tp5159
I1
s(g330
I42
g331
Vinsert
p5160
I21
VExpressionStatement
p5161
tp5162
I3
s(g768
I42
g769
Vinsert
p5163
I21
VExpressionStatement
p5164
tp5165
I1
s(g611
I42
g612
Vinsert
p5166
I84
VUnionType: Exception|Error
p5167
tp5168
I1
s(g3566
I42
g3567
Vinsert
p5169
I45
VStringLiteral: "onSuccess(int, Header[], JSONArray) was not overriden, but callback was received"
p5170
tp5171
I1
s(g985
I42
g986
Vinsert
p5172
I42
VSimpleName: Intent
p5173
tp5174
I2
s(g1045
I42
g1046
Vinsert
p5175
I25
VIfStatement
p5176
tp5177
I2
s(g265
I42
g266
Vinsert
p5178
I8
VBlock
p5179
tp5180
I1
s(g576
I42
g577
Vinsert
p5181
I43
VSimpleType: RequestHandle
p5182
tp5183
I2
s(g1085
I42
g1086
Vinsert
p5184
I14
VClassInstanceCreation
p5185
tp5186
I1
s(g315
I42
g316
Vinsert
p5187
I32
VMethodInvocation
p5188
tp5189
I1
s(g993
I42
g994
Vinsert
p5190
I8
VBlock
p5191
tp5192
I1
s(g3540
I42
g3541
Vinsert
p5193
I8
VBlock
p5194
tp5195
I1
s(g352
I42
g353
Vinsert
p5196
I8
VBlock
p5197
tp5198
I2
s(g275
I42
g276
Vinsert
p5199
I42
VSimpleName: Class
p5200
tp5201
I1
s(g130
I42
g131
Vinsert
p5202
I39
VPrimitiveType: boolean
p5203
tp5204
I1
s(g993
I42
g994
Vinsert
p5205
I42
VSimpleName: headers
p5206
tp5207
I1
s(g1556
I42
g1557
Vinsert
p5208
I42
VSimpleName: getAbsolutePath
p5209
tp5210
I1
s(g1514
I42
g1515
Vinsert
p5211
I39
VPrimitiveType: boolean
p5212
tp5213
I1
s(g265
I42
g266
Vinsert
p5214
I31
VMethodDeclaration
p5215
tp5216
I1
s(g689
I42
g690
Vinsert
p5217
I42
VSimpleName: getEntity
p5218
tp5219
I1
s(g300
I42
g301
Vinsert
p5220
I78
VMarkerAnnotation
p5221
tp5222
I1
s(g657
I42
g658
Vinsert
p5223
I7
VAssignment: =
p5224
tp5225
I1
s(g150
I42
g151
Vinsert
p5226
I42
VSimpleName: request
p5227
tp5228
I1
s(g86
I42
g87
Vinsert
p5229
I59
VVariableDeclarationFragment
p5230
tp5231
I10
s(g616
I42
g617
Vinsert
p5232
I42
VSimpleName: header
p5233
tp5234
I1
s(g365
I42
g366
Vinsert
p5235
I21
VExpressionStatement
p5236
tp5237
I1
s(g657
I42
g658
Vinsert
p5238
I21
VExpressionStatement
p5239
tp5240
I2
s(g629
I42
g630
Vinsert
p5241
I42
VSimpleName: IOException
p5242
tp5243
I1
s(g665
I42
g666
Vinsert
p5244
I42
VSimpleName: postRunnable
p5245
tp5246
I2
s(g325
I42
g326
Vinsert
p5247
I44
VSingleVariableDeclaration
p5248
tp5249
I2
s(g492
I42
g493
Vinsert
p5250
I32
VMethodInvocation
p5251
tp5252
I2
s(g1910
I42
g1911
Vinsert
p5253
I39
VPrimitiveType: boolean
p5254
tp5255
I2
s(g971
I42
g972
Vinsert
p5256
I42
VSimpleName: headers
p5257
tp5258
I1
s(g1311
I42
g1312
Vinsert
p5259
I42
VSimpleName: RequestHandle
p5260
tp5261
I2
s(g1160
I42
g1161
Vinsert
p5262
I45
VStringLiteral: "\u005cr\u005cn"
p5263
tp5264
I1
s(g993
I42
g994
Vinsert
p5265
I42
VSimpleName: jsonResponse
p5266
tp5267
I1
s(g3566
I42
g3567
Vinsert
p5268
I42
VSimpleName: Log
p5269
tp5270
I3
s(g1514
I42
g1515
Vinsert
p5271
I44
VSingleVariableDeclaration
p5272
tp5273
I1
s(g51
I42
g52
Vinsert
p5274
I42
VSimpleName: requestList
p5275
tp5276
I1
s(g383
I42
g384
Vinsert
p5277
I83
VModifier: protected
p5278
tp5279
I2
s(g1504
I42
g1505
Vinsert
p5280
I5
VArrayType: byte[]
p5281
tp5282
I1
s(g140
I42
g141
Vinsert
p5283
I42
VSimpleName: Log
p5284
tp5285
I2
s(g4808
I42
g4809
Vinsert
p5286
I42
VSimpleName: url
p5287
tp5288
I3
s(g639
I42
g640
Vinsert
p5289
I53
VThrowStatement
p5290
tp5291
I1
s(g26
I42
g27
Vinsert
p5292
I42
VSimpleName: list
p5293
tp5294
I2
s(g1085
I42
g1086
Vinsert
p5295
I25
VIfStatement
p5296
tp5297
I2
s(g1018
I42
g1019
Vinsert
p5298
I42
VSimpleName: onRetry
p5299
tp5300
I1
s(g414
I42
g415
Vinsert
p5301
I25
VIfStatement
p5302
tp5303
I8
s(g1391
I42
g1392
Vinsert
p5304
I74
VParameterizedType: List<RequestHandle>
p5305
tp5306
I1
s(g115
I42
g116
Vinsert
p5307
I34
VNumberLiteral: 0
p5308
tp5309
I3
s(g81
I42
g82
Vinsert
p5310
I27
VInfixExpression: !=
p5311
tp5312
I1
s(g749
I42
g750
Vinsert
p5313
I43
VSimpleType: Object
p5314
tp5315
I3
s(g2934
I42
g2935
Vinsert
p5316
I14
VClassInstanceCreation
p5317
tp5318
I1
s(g91
I42
g92
Vinsert
p5319
I42
VSimpleName: resultLength
p5320
tp5321
I2
s(g560
I42
g561
Vinsert
p5322
I7
VAssignment: =
p5323
tp5324
I1
s(g150
I42
g151
Vinsert
p5325
I43
VSimpleType: AsyncHttpRequest
p5326
tp5327
I1
s(g300
I42
g301
Vinsert
p5328
I42
VSimpleName: Override
p5329
tp5330
I1
s(g437
I42
g438
Vinsert
p5331
I59
VVariableDeclarationFragment
p5332
tp5333
I2
s(g295
I42
g296
Vinsert
p5334
I42
VSimpleName: preProcessor
p5335
tp5336
I1
s(g1311
I42
g1312
Vinsert
p5337
I42
VSimpleName: requestHandles
p5338
tp5339
I3
s(g315
I42
g316
Vinsert
p5340
I39
VPrimitiveType: void
p5341
tp5342
I1
s(g665
I42
g666
Vinsert
p5343
I42
VSimpleName: r
p5344
tp5345
I4
s(g461
I42
g462
Vinsert
p5346
I38
VPrefixExpression: !
p5347
tp5348
I1
s(g616
I42
g617
Vinsert
p5349
I66
VTextElement:  the name of the header
p5350
tp5351
I1
s(g773
I42
g774
Vinsert
p5352
I8
VBlock
p5353
tp5354
I4
s(g1196
I42
g1197
Vinsert
p5355
I42
VSimpleName: CredentialsProvider
p5356
tp5357
I2
s(g285
I42
g286
Vinsert
p5358
I42
VSimpleName: getColoredView
p5359
tp5360
I2
s(g66
I42
g67
Vinsert
p5361
I40
VQualifiedName: AlertDialog.Builder
p5362
tp5363
I1
s(g135
I42
g136
Vinsert
p5364
I21
VExpressionStatement
p5365
tp5366
I8
s(g71
I42
g72
Vinsert
p5367
I34
VNumberLiteral: 3
p5368
tp5369
I3
s(g1531
I42
g1532
Vinsert
p5370
I21
VExpressionStatement
p5371
tp5372
I2
s(g1050
I42
g1051
Vinsert
p5373
I42
VSimpleName: HttpEntity
p5374
tp5375
I5
s(g647
I42
g648
Vinsert
p5376
I42
VSimpleName: upload
p5377
tp5378
I1
s(g2146
I42
g2147
Vinsert
p5379
I40
VQualifiedName: java.net.SocketException
p5380
tp5381
I1
s(g1070
I42
g1071
Vinsert
p5382
I32
VMethodInvocation
p5383
tp5384
I2
s(g300
I42
g301
Vinsert
p5385
I83
VModifier: public
p5386
tp5387
I1
s(g1228
I42
g1229
Vinsert
p5388
I36
VParenthesizedExpression
p5389
tp5390
I1
s(g1377
I42
g1378
Vinsert
p5391
I43
VSimpleType: Throwable
p5392
tp5393
I2
s(g1258
I42
g1259
Vinsert
p5394
I43
VSimpleType: HttpHead
p5395
tp5396
I1
s(g41
I42
g42
Vinsert
p5397
I83
VModifier: public
p5398
tp5399
I3
s(g2934
I42
g2935
Vinsert
p5400
I42
VSimpleName: ResponderHandler
p5401
tp5402
I1
s(g228
I42
g229
Vinsert
p5403
I42
VSimpleName: params
p5404
tp5405
I2
s(g798
I42
g799
Vinsert
p5406
I8
VBlock
p5407
tp5408
I1
s(g1434
I42
g1435
Vinsert
p5409
I42
VSimpleName: handle
p5410
tp5411
I2
s(g784
I42
g785
Vinsert
p5412
I42
VSimpleName: message
p5413
tp5414
I1
s(g744
I42
g745
Vinsert
p5415
I32
VMethodInvocation
p5416
tp5417
I2
s(g432
I42
g433
Vinsert
p5418
I43
VSimpleType: Object
p5419
tp5420
I1
s(g1045
I42
g1046
Vinsert
p5421
I38
VPrefixExpression: !
p5422
tp5423
I1
s(g1509
I42
g1510
Vinsert
p5424
I60
VVariableDeclarationStatement
p5425
tp5426
I1
s(g629
I42
g630
Vinsert
p5427
I39
VPrimitiveType: boolean
p5428
tp5429
I1
s(g1470
I42
g1471
Vinsert
p5430
I43
VSimpleType: String
p5431
tp5432
I1
s(g1514
I42
g1515
Vinsert
p5433
I42
VSimpleName: params
p5434
tp5435
I1
s(g456
I42
g457
Vinsert
p5436
I42
VSimpleName: String
p5437
tp5438
I2
s(g4260
I42
g4261
Vinsert
p5439
I42
VSimpleName: onCreate
p5440
tp5441
I1
s(g1357
I42
g1358
Vinsert
p5442
I42
VSimpleName: list
p5443
tp5444
I1
s(g320
I42
g321
Vinsert
p5445
I14
VClassInstanceCreation
p5446
tp5447
I3
s(g178
I42
g179
Vinsert
p5448
I49
VSwitchCase
p5449
tp5450
I1
s(g81
I42
g82
Vinsert
p5451
I42
VSimpleName: l
p5452
tp5453
I2
s(g285
I42
g286
Vinsert
p5454
I21
VExpressionStatement
p5455
tp5456
I2
s(g81
I42
g82
Vinsert
p5457
I59
VVariableDeclarationFragment
p5458
tp5459
I2
s(g56
I42
g57
Vinsert
p5460
I32
VMethodInvocation
p5461
tp5462
I2
s(g4307
I42
g4308
Vinsert
p5463
I12
VCatchClause
p5464
tp5465
I1
s(g36
I42
g37
Vinsert
p5466
I25
VIfStatement
p5467
tp5468
I2
s(g208
I42
g209
Vinsert
p5469
I42
VSimpleName: threadPool
p5470
tp5471
I2
s(g352
I42
g353
Vinsert
p5472
I32
VMethodInvocation
p5473
tp5474
I2
s(g482
I42
g483
Vinsert
p5475
I14
VClassInstanceCreation
p5476
tp5477
I1
s(g673
I42
g674
Vinsert
p5478
I39
VPrimitiveType: boolean
p5479
tp5480
I1
s(g560
I42
g561
Vinsert
p5481
I8
VBlock
p5482
tp5483
I1
s(g140
I42
g141
Vinsert
p5484
I43
VSimpleType: CertificateException
p5485
tp5486
I1
s(g163
I42
g164
Vinsert
p5487
I42
VSimpleName: String
p5488
tp5489
I2
s(g388
I42
g389
Vinsert
p5490
I42
VSimpleName: key
p5491
tp5492
I4
s(g21
I42
g22
Vinsert
p5493
I43
VSimpleType: StringBuilder
p5494
tp5495
I1
s(g1311
I42
g1312
Vinsert
p5496
I33
VNullLiteral
p5497
tp5498
I1
s(g4999
I42
g5000
Vinsert
p5499
I43
VSimpleType: AsyncHttpResponseHandler
p5500
tp5501
I2
s(g798
I42
g799
Vinsert
p5502
I42
VSimpleName: entity
p5503
tp5504
I1
s(g1160
I42
g1161
Vinsert
p5505
I42
VSimpleName: writeFirstBoundaryIfNeeds
p5506
tp5507
I1
s(g51
I42
g52
Vinsert
p5508
I74
VParameterizedType: Iterator<RequestHandle>
p5509
tp5510
I1
s(g1171
I42
g1172
Vinsert
p5511
I45
VStringLiteral: "AsyncHttpClient"
p5512
tp5513
I1
s(g218
I42
g219
Vinsert
p5514
I43
VSimpleType: ClassNotFoundException
p5515
tp5516
I1
s(g1905
I42
g1906
Vinsert
p5517
I12
VCatchClause
p5518
tp5519
I1
s(g1729
I42
g1730
Vinsert
p5520
I42
VSimpleName: headers
p5521
tp5522
I1
s(g2111
I42
g2112
Vinsert
p5523
I21
VExpressionStatement
p5524
tp5525
I4
s(g16
I42
g17
Vinsert
p5526
I25
VIfStatement
p5527
tp5528
I1
s(g76
I42
g77
Vinsert
p5529
I32
VMethodInvocation
p5530
tp5531
I3
s(g330
I42
g331
Vinsert
p5532
I42
VSimpleName: isCancelled
p5533
tp5534
I1
s(g16
I42
g17
Vinsert
p5535
I5
VArrayType: byte[]
p5536
tp5537
I1
s(g1045
I42
g1046
Vinsert
p5538
I8
VBlock
p5539
tp5540
I4
s(g726
I42
g727
Vinsert
p5541
I52
VThisExpression
p5542
tp5543
I1
s(g1357
I42
g1358
Vinsert
p5544
I42
VSimpleName: BasicNameValuePair
p5545
tp5546
I2
s(g270
I42
g271
Vinsert
p5547
I42
VSimpleName: menu
p5548
tp5549
I2
s(g798
I42
g799
Vinsert
p5550
I14
VClassInstanceCreation
p5551
tp5552
I1
s(g952
I42
g953
Vinsert
p5553
I36
VParenthesizedExpression
p5554
tp5555
I1
s(g576
I42
g577
Vinsert
p5556
I42
VSimpleName: requestList
p5557
tp5558
I2
s(g120
I42
g121
Vinsert
p5559
I42
VSimpleName: jsonResponse
p5560
tp5561
I1
s(g1905
I42
g1906
Vinsert
p5562
I44
VSingleVariableDeclaration
p5563
tp5564
I1
s(g320
I42
g321
Vinsert
p5565
I7
VAssignment: =
p5566
tp5567
I3
s(g523
I42
g524
Vinsert
p5568
I43
VSimpleType: BasicNameValuePair
p5569
tp5570
I3
s(g370
I42
g371
Vinsert
p5571
I42
VSimpleName: key
p5572
tp5573
I1
s(g1434
I42
g1435
Vinsert
p5574
I70
VEnhancedForStatement
p5575
tp5576
I1
s(g218
I42
g219
Vinsert
p5577
I42
VSimpleName: d
p5578
tp5579
I2
s(g1444
I42
g1445
Vinsert
p5580
I9
VBooleanLiteral: false
p5581
tp5582
I1
s(g760
I42
g761
Vinsert
p5583
I39
VPrimitiveType: int
p5584
tp5585
I2
s(g414
I42
g415
Vinsert
p5586
I21
VExpressionStatement
p5587
tp5588
I8
s(g4255
I42
g4256
Vinsert
p5589
I42
VSimpleName: wrapped
p5590
tp5591
I1
s(g427
I42
g428
Vinsert
p5592
I44
VSingleVariableDeclaration
p5593
tp5594
I1
s(g1247
I42
g1248
Vinsert
p5595
I66
VTextElement:  the string to use in the User-Agent header.
p5596
tp5597
I1
s(g320
I42
g321
Vinsert
p5598
I8
VBlock
p5599
tp5600
I3
s(g61
I42
g62
Vinsert
p5601
I42
VSimpleName: get
p5602
tp5603
I3
s(g1080
I42
g1081
Vinsert
p5604
I66
VTextElement:  int log level, either from LogInterface interface or from 
p5605
tp5606
I1
s(g2394
I42
g2395
Vinsert
p5607
I42
VSimpleName: is
p5608
tp5609
I1
s(g1085
I42
g1086
Vinsert
p5610
I27
VInfixExpression: ||
p5611
tp5612
I2
s(g1556
I42
g1557
Vinsert
p5613
I42
VSimpleName: delete
p5614
tp5615
I1
s(g1141
I42
g1142
Vinsert
p5616
I85
VDimension
p5617
tp5618
I2
s(g2163
I42
g2164
Vinsert
p5619
I42
VSimpleName: String
p5620
tp5621
I2
s(g1509
I42
g1510
Vinsert
p5622
I25
VIfStatement
p5623
tp5624
I1
s(g115
I42
g116
Vinsert
p5625
I36
VParenthesizedExpression
p5626
tp5627
I1
s(g784
I42
g785
Vinsert
p5628
I59
VVariableDeclarationFragment
p5629
tp5630
I2
s(g275
I42
g276
Vinsert
p5631
I8
VBlock
p5632
tp5633
I1
s(g388
I42
g389
Vinsert
p5634
I42
VSimpleName: value
p5635
tp5636
I3
s(g320
I42
g321
Vinsert
p5637
I36
VParenthesizedExpression
p5638
tp5639
I2
s(g432
I42
g433
Vinsert
p5640
I42
VSimpleName: String
p5641
tp5642
I3
s(g684
I42
g685
Vinsert
p5643
I16
VConditionalExpression
p5644
tp5645
I1
s(g1423
I42
g1424
Vinsert
p5646
I59
VVariableDeclarationFragment
p5647
tp5648
I2
s(g1080
I42
g1081
Vinsert
p5649
I39
VPrimitiveType: int
p5650
tp5651
I1
s(g749
I42
g750
Vinsert
p5652
I2
VArrayAccess
p5653
tp5654
I4
s(g629
I42
g630
Vinsert
p5655
I43
VSimpleType: UnknownHostException
p5656
tp5657
I1
s(g383
I42
g384
Vinsert
p5658
I8
VBlock
p5659
tp5660
I3
s(g257
I42
g258
Vinsert
p5661
I32
VMethodInvocation
p5662
tp5663
I1
s(g305
I42
g306
Vinsert
p5664
I7
VAssignment: =
p5665
tp5666
I2
s(g606
I42
g607
Vinsert
p5667
I34
VNumberLiteral: 0
p5668
tp5669
I1
s(g1278
I42
g1279
Vinsert
p5670
I70
VEnhancedForStatement
p5671
tp5672
I1
s(g571
I42
g572
Vinsert
p5673
I43
VSimpleType: LinearLayout
p5674
tp5675
I2
s(g41
I42
g42
Vinsert
p5676
I8
VBlock
p5677
tp5678
I14
s(g1070
I42
g1071
Vinsert
p5679
I42
VSimpleName: setFillViewport
p5680
tp5681
I1
s(g197
I42
g198
Vinsert
p5682
I42
VSimpleName: context
p5683
tp5684
I1
s(g726
I42
g727
Vinsert
p5685
I32
VMethodInvocation
p5686
tp5687
I7
s(g330
I42
g331
Vinsert
p5688
I7
VAssignment: =
p5689
tp5690
I1
s(g3540
I42
g3541
Vinsert
p5691
I42
VSimpleName: mp
p5692
tp5693
I2
s(g4260
I42
g4261
Vinsert
p5694
I21
VExpressionStatement
p5695
tp5696
I2
s(g773
I42
g774
Vinsert
p5697
I33
VNullLiteral
p5698
tp5699
I2
s(g1882
I42
g1883
Vinsert
p5700
I42
VSimpleName: setText
p5701
tp5702
I1
s(g673
I42
g674
Vinsert
p5703
I25
VIfStatement
p5704
tp5705
I1
s(g383
I42
g384
Vinsert
p5706
I39
VPrimitiveType: void
p5707
tp5708
I2
s(g120
I42
g121
Vinsert
p5709
I14
VClassInstanceCreation
p5710
tp5711
I1
s(Vinsert
p5712
I42
VSimpleName: start
p5713
Vinsert
p5714
I42
VSimpleName: ex
p5715
tp5716
I1
s(g985
I42
g986
Vinsert
p5717
I85
VDimension
p5718
tp5719
I1
s(g41
I42
g42
Vinsert
p5720
I41
VReturnStatement
p5721
tp5722
I6
s(g542
I42
g543
Vinsert
p5723
I42
VSimpleName: paramArray
p5724
tp5725
I1
s(g1045
I42
g1046
Vinsert
p5726
I59
VVariableDeclarationFragment
p5727
tp5728
I1
s(g2163
I42
g2164
Vinsert
p5729
I27
VInfixExpression: +
p5730
tp5731
I1
s(g404
I42
g405
Vinsert
p5732
I42
VSimpleName: responseHandler
p5733
tp5734
I2
s(g3566
I42
g3567
Vinsert
p5735
I32
VMethodInvocation
p5736
tp5737
I3
s(g41
I42
g42
Vinsert
p5738
I42
VSimpleName: getTag
p5739
tp5740
I2
s(g726
I42
g727
Vinsert
p5741
I39
VPrimitiveType: void
p5742
tp5743
I3
s(g315
I42
g316
Vinsert
p5744
I43
VSimpleType: StatusLine
p5745
tp5746
I1
s(g2025
I42
g2026
Vinsert
p5747
I42
VSimpleName: line
p5748
tp5749
I2
s(g673
I42
g674
Vinsert
p5750
I27
VInfixExpression: ==
p5751
tp5752
I1
s(g576
I42
g577
Vinsert
p5753
I44
VSingleVariableDeclaration
p5754
tp5755
I3
s(g252
I42
g253
Vinsert
p5756
I42
VSimpleName: String
p5757
tp5758
I1
s(g523
I42
g524
Vinsert
p5759
I42
VSimpleName: BasicNameValuePair
p5760
tp5761
I1
s(g2177
I42
g2178
Vinsert
p5762
I42
VSimpleName: httpClient
p5763
tp5764
I2
s(g749
I42
g750
Vinsert
p5765
I43
VSimpleType: Integer
p5766
tp5767
I5
s(g130
I42
g131
Vinsert
p5768
I83
VModifier: public
p5769
tp5770
I1
s(g110
I42
g111
Vinsert
p5771
I52
VThisExpression
p5772
tp5773
I2
s(g1311
I42
g1312
Vinsert
p5774
I43
VSimpleType: RequestHandle
p5775
tp5776
I2
s(g814
I42
g815
Vinsert
p5777
I42
VSimpleName: multipartEntity
p5778
tp5779
I1
s(g1292
I42
g1293
Vinsert
p5780
I33
VNullLiteral
p5781
tp5782
I1
s(g110
I42
g111
Vinsert
p5783
I22
VFieldAccess
p5784
tp5785
I1
s(g352
I42
g353
Vinsert
p5786
I45
VStringLiteral: "Provided credentials are null, not setting"
p5787
tp5788
I1
s(g616
I42
g617
Vinsert
p5789
I42
VSimpleName: value
p5790
tp5791
I1
s(g1683
I42
g1684
Vinsert
p5792
I39
VPrimitiveType: int
p5793
tp5794
I1
s(g163
I42
g164
Vinsert
p5795
I21
VExpressionStatement
p5796
tp5797
I2
s(g1080
I42
g1081
Vinsert
p5798
I21
VExpressionStatement
p5799
tp5800
I1
s(g437
I42
g438
Vinsert
p5801
I42
VSimpleName: String
p5802
tp5803
I2
s(g1556
I42
g1557
Vinsert
p5804
I45
VStringLiteral: "\u005cr\u005cn\u005cr\u005cn"
p5805
tp5806
I1
s(g1050
I42
g1051
Vinsert
p5807
I43
VSimpleType: ResponseHandlerInterface
p5808
tp5809
I2
s(g56
I42
g57
Vinsert
p5810
I42
VSimpleName: missingLooper
p5811
tp5812
I2
s(g1683
I42
g1684
Vinsert
p5813
I36
VParenthesizedExpression
p5814
tp5815
I1
s(g1740
I42
g1741
Vinsert
p5816
I42
VSimpleName: PatternSyntaxException
p5817
tp5818
I1
s(g1357
I42
g1358
Vinsert
p5819
I32
VMethodInvocation
p5820
tp5821
I1
s(g1514
I42
g1515
Vinsert
p5822
I25
VIfStatement
p5823
tp5824
I1
s(g1377
I42
g1378
Vinsert
p5825
I39
VPrimitiveType: boolean
p5826
tp5827
I2
s(g1155
I42
g1156
Vinsert
p5828
I59
VVariableDeclarationFragment
p5829
tp5830
I1
s(g1070
I42
g1071
Vinsert
p5831
I40
VQualifiedName: ViewGroup.LayoutParams.MATCH_PARENT
p5832
tp5833
I2
s(g713
I42
g714
Vinsert
p5834
I43
VSimpleType: ConnectTimeoutException
p5835
tp5836
I1
s(g1787
I42
g1788
Vinsert
p5837
I4
VArrayInitializer
p5838
tp5839
I1
s(g657
I42
g658
Vinsert
p5840
I32
VMethodInvocation
p5841
tp5842
I2
s(g1691
I42
g1692
Vinsert
p5843
I42
VSimpleName: mayInterruptIfRunning
p5844
tp5845
I1
s(g731
I42
g732
Vinsert
p5846
I42
VSimpleName: retries
p5847
tp5848
I2
s(g404
I42
g405
Vinsert
p5849
I8
VBlock
p5850
tp5851
I5
s(g270
I42
g271
Vinsert
p5852
I31
VMethodDeclaration
p5853
tp5854
I3
s(g856
I42
g857
Vinsert
p5855
I2
VArrayAccess
p5856
tp5857
I2
s(g749
I42
g750
Vinsert
p5858
I42
VSimpleName: handleSuccessMessage
p5859
tp5860
I1
s(g497
I42
g498
Vinsert
p5861
I5
VArrayType: String[]
p5862
tp5863
I2
s(g985
I42
g986
Vinsert
p5864
I40
VQualifiedName: IntentServiceSample.ACTION_SUCCESS
p5865
tp5866
I1
s(g3540
I42
g3541
Vinsert
p5867
I21
VExpressionStatement
p5868
tp5869
I1
s(g1018
I42
g1019
Vinsert
p5870
I44
VSingleVariableDeclaration
p5871
tp5872
I1
s(g657
I42
g658
Vinsert
p5873
I43
VSimpleType: InputStreamReader
p5874
tp5875
I1
s(g1470
I42
g1471
Vinsert
p5876
I59
VVariableDeclarationFragment
p5877
tp5878
I1
s(g784
I42
g785
Vinsert
p5879
I60
VVariableDeclarationStatement
p5880
tp5881
I2
s(g2860
I42
g2861
Vinsert
p5882
I14
VClassInstanceCreation
p5883
tp5884
I1
s(g4414
I42
g4415
Vinsert
p5885
I40
VQualifiedName: org.apache.http.conn.ConnectTimeoutException
p5886
tp5887
I1
s(g1551
I42
g1552
Vinsert
p5888
I42
VSimpleName: keyAt
p5889
tp5890
I1
s(g1357
I42
g1358
Vinsert
p5891
I43
VSimpleType: Object
p5892
tp5893
I1
s(g135
I42
g136
Vinsert
p5894
I42
VSimpleName: getBytes
p5895
tp5896
I2
s(g576
I42
g577
Vinsert
p5897
I70
VEnhancedForStatement
p5898
tp5899
I2
s(g571
I42
g572
Vinsert
p5900
I42
VSimpleName: isRequestHeadersAllowed
p5901
tp5902
I1
s(g1122
I42
g1123
Vinsert
p5903
I60
VVariableDeclarationStatement
p5904
tp5905
I1
s(g1306
I42
g1307
Vinsert
p5906
I25
VIfStatement
p5907
tp5908
I3
s(g16
I42
g17
Vinsert
p5909
I42
VSimpleName: jsonString
p5910
tp5911
I3
s(g419
I42
g420
Vinsert
p5912
I32
VMethodInvocation
p5913
tp5914
I6
s(g3540
I42
g3541
Vinsert
p5915
I44
VSingleVariableDeclaration
p5916
tp5917
I2
s(g208
I42
g209
Vinsert
p5918
I42
VSimpleName: httpContext
p5919
tp5920
I1
s(g846
I42
g847
Vinsert
p5921
I42
VSimpleName: FileNotFoundException
p5922
tp5923
I1
s(g1311
I42
g1312
Vinsert
p5924
I25
VIfStatement
p5925
tp5926
I1
s(g838
I42
g839
Vinsert
p5927
I42
VSimpleName: _url
p5928
tp5929
I2
s(g360
I42
g361
Vinsert
p5930
I45
VStringLiteral: "&"
p5931
tp5932
I1
s(g547
I42
g548
Vinsert
p5933
I42
VSimpleName: cls
p5934
tp5935
I2
s(g1050
I42
g1051
Vinsert
p5936
I42
VSimpleName: setCredentials
p5937
tp5938
I1
s(g838
I42
g839
Vinsert
p5939
I42
VSimpleName: decodedURL
p5940
tp5941
I1
s(g1018
I42
g1019
Vinsert
p5942
I42
VSimpleName: retryNo
p5943
tp5944
I1
s(g768
I42
g769
Vinsert
p5945
I42
VSimpleName: signature
p5946
tp5947
I1
s(g383
I42
g384
Vinsert
p5948
I41
VReturnStatement
p5949
tp5950
I1
s(g228
I42
g229
Vinsert
p5951
I42
VSimpleName: url
p5952
tp5953
I4
s(g621
I42
g622
Vinsert
p5954
I34
VNumberLiteral: 50
p5955
tp5956
I1
s(g140
I42
g141
Vinsert
p5957
I42
VSimpleName: CertificateException
p5958
tp5959
I1
s(g814
I42
g815
Vinsert
p5960
I27
VInfixExpression: !=
p5961
tp5962
I1
s(g665
I42
g666
Vinsert
p5963
I21
VExpressionStatement
p5964
tp5965
I3
s(g689
I42
g690
Vinsert
p5966
I66
VTextElement:  if one of the streams cannot be read
p5967
tp5968
I1
s(g404
I42
g405
Vinsert
p5969
I42
VSimpleName: httpClient
p5970
tp5971
I2
s(g1236
I42
g1237
Vinsert
p5972
I43
VSimpleType: AuthenticationException
p5973
tp5974
I1
s(g639
I42
g640
Vinsert
p5975
I42
VSimpleName: ProtocolException
p5976
tp5977
I1
s(g773
I42
g774
Vinsert
p5978
I32
VMethodInvocation
p5979
tp5980
I2
s(g393
I42
g394
Vinsert
p5981
I59
VVariableDeclarationFragment
p5982
tp5983
I5
s(g571
I42
g572
Vinsert
p5984
I59
VVariableDeclarationFragment
p5985
tp5986
I1
s(g673
I42
g674
Vinsert
p5987
I41
VReturnStatement
p5988
tp5989
I2
s(g497
I42
g498
Vinsert
p5990
I85
VDimension
p5991
tp5992
I2
s(g4414
I42
g4415
Vinsert
p5993
I42
VSimpleName: ConnectTimeoutException
p5994
tp5995
I1
s(g173
I42
g174
Vinsert
p5996
I39
VPrimitiveType: void
p5997
tp5998
I1
s(g1188
I42
g1189
Vinsert
p5999
I59
VVariableDeclarationFragment
p6000
tp6001
I2
s(g2934
I42
g2935
Vinsert
p6002
I43
VSimpleType: ResponderHandler
p6003
tp6004
I1
s(g726
I42
g727
Vinsert
p6005
I25
VIfStatement
p6006
tp6007
I3
s(Vinsert
p6008
I42
VSimpleName: sendFailureMessage
p6009
Vinsert
p6010
I40
VQualifiedName: org.apache.http.client.ClientProtocolException
p6011
tp6012
I1
s(g404
I42
g405
Vinsert
p6013
I42
VSimpleName: httpContext
p6014
tp6015
I2
s(g451
I42
g452
Vinsert
p6016
I14
VClassInstanceCreation
p6017
tp6018
I1
s(g76
I42
g77
Vinsert
p6019
I43
VSimpleType: Throwable
p6020
tp6021
I1
s(g178
I42
g179
Vinsert
p6022
I42
VSimpleName: RETRY_MESSAGE
p6023
tp6024
I1
s(g595
I42
g596
Vinsert
p6025
I42
VSimpleName: Looper
p6026
tp6027
I2
s(g257
I42
g258
Vinsert
p6028
I85
VDimension
p6029
tp6030
I1
s(g4255
I42
g4256
Vinsert
p6031
I42
VSimpleName: f
p6032
tp6033
I2
s(g1122
I42
g1123
Vinsert
p6034
I42
VSimpleName: map
p6035
tp6036
I2
s(g46
I42
g47
Vinsert
p6037
I39
VPrimitiveType: int
p6038
tp6039
I2
s(g647
I42
g648
Vinsert
p6040
I83
VModifier: final
p6041
tp6042
I3
s(g1236
I42
g1237
Vinsert
p6043
I14
VClassInstanceCreation
p6044
tp6045
I2
s(g1247
I42
g1248
Vinsert
p6046
I42
VSimpleName: HttpProtocolParams
p6047
tp6048
I1
s(g665
I42
g666
Vinsert
p6049
I32
VMethodInvocation
p6050
tp6051
I3
s(g993
I42
g994
Vinsert
p6052
I42
VSimpleName: throwable
p6053
tp6054
I1
s(g647
I42
g648
Vinsert
p6055
I42
VSimpleName: JSON_NULL
p6056
tp6057
I1
s(g555
I42
g556
Vinsert
p6058
I42
VSimpleName: trim
p6059
tp6060
I1
s(g537
I42
g538
Vinsert
p6061
I42
VSimpleName: newSAXParser
p6062
tp6063
I1
s(g370
I42
g371
Vinsert
p6064
I27
VInfixExpression: ||
p6065
tp6066
I3
s(g1434
I42
g1435
Vinsert
p6067
I27
VInfixExpression: &&
p6068
tp6069
I1
s(g86
I42
g87
Vinsert
p6070
I60
VVariableDeclarationStatement
p6071
tp6072
I7
s(g2583
I42
g2584
Vinsert
p6073
I42
VSimpleName: port
p6074
tp6075
I1
s(g125
I42
g126
Vinsert
p6076
I42
VSimpleName: getOriginalFile
p6077
tp6078
I1
s(g639
I42
g640
Vinsert
p6079
I42
VSimpleName: location
p6080
tp6081
I1
s(g1509
I42
g1510
Vinsert
p6082
I42
VSimpleName: fixNoHttpResponseException
p6083
tp6084
I2
s(g1357
I42
g1358
Vinsert
p6085
I74
VParameterizedType: Set<Object>
p6086
tp6087
I1
s(g1391
I42
g1392
Vinsert
p6088
I43
VSimpleType: List
p6089
tp6090
I1
s(g315
I42
g316
Vinsert
p6091
I44
VSingleVariableDeclaration
p6092
tp6093
I1
s(g773
I42
g774
Vinsert
p6094
I43
VSimpleType: Message
p6095
tp6096
I2
s(g1141
I42
g1142
Vinsert
p6097
I39
VPrimitiveType: byte
p6098
tp6099
I1
s(g611
I42
g612
Vinsert
p6100
I43
VSimpleType: Error
p6101
tp6102
I1
s(g1729
I42
g1730
Vinsert
p6103
I39
VPrimitiveType: void
p6104
tp6105
I1
s(g1509
I42
g1510
Vinsert
p6106
I7
VAssignment: =
p6107
tp6108
I1
s(g4255
I42
g4256
Vinsert
p6109
I11
VCastExpression
p6110
tp6111
I2
s(g163
I42
g164
Vinsert
p6112
I32
VMethodInvocation
p6113
tp6114
I2
s(g1905
I42
g1906
Vinsert
p6115
I54
VTryStatement
p6116
tp6117
I1
s(g1141
I42
g1142
Vinsert
p6118
I11
VCastExpression
p6119
tp6120
I2
s(g409
I42
g410
Vinsert
p6121
I43
VSimpleType: IOException
p6122
tp6123
I1
s(g595
I42
g596
Vinsert
p6124
I38
VPrefixExpression: !
p6125
tp6126
I1
s(g310
I42
g311
Vinsert
p6127
I45
VStringLiteral: "After Request"
p6128
tp6129
I1
s(g474
I42
g475
Vinsert
p6130
I42
VSimpleName: String
p6131
tp6132
I3
s(g1504
I42
g1505
Vinsert
p6133
I52
VThisExpression
p6134
tp6135
I1
s(g1951
I42
g1952
Vinsert
p6136
I42
VSimpleName: String
p6137
tp6138
I1
s(g378
I42
g379
Vinsert
p6139
I21
VExpressionStatement
p6140
tp6141
I2
s(g1155
I42
g1156
Vinsert
p6142
I42
VSimpleName: Log
p6143
tp6144
I1
s(g388
I42
g389
Vinsert
p6145
I39
VPrimitiveType: long
p6146
tp6147
I1
s(g1905
I42
g1906
Vinsert
p6148
I32
VMethodInvocation
p6149
tp6150
I2
s(g1122
I42
g1123
Vinsert
p6151
I42
VSimpleName: Object
p6152
tp6153
I1
s(g16
I42
g17
Vinsert
p6154
I7
VAssignment: =
p6155
tp6156
I1
s(g2025
I42
g2026
Vinsert
p6157
I61
VWhileStatement
p6158
tp6159
I1
s(g414
I42
g415
Vinsert
p6160
I43
VSimpleType: ClientProtocolException
p6161
tp6162
I2
s(g300
I42
g301
Vinsert
p6163
I31
VMethodDeclaration
p6164
tp6165
I1
s(g595
I42
g596
Vinsert
p6166
I7
VAssignment: =
p6167
tp6168
I1
s(g378
I42
g379
Vinsert
p6169
I40
VQualifiedName: data.length
p6170
tp6171
I1
s(g270
I42
g271
Vinsert
p6172
I39
VPrimitiveType: boolean
p6173
tp6174
I1
s(g590
I42
g591
Vinsert
p6175
I65
VTagElement
p6176
tp6177
I1
s(g305
I42
g306
Vinsert
p6178
I34
VNumberLiteral: 0
p6179
tp6180
I1
s(g456
I42
g457
Vinsert
p6181
I42
VSimpleName: url
p6182
tp6183
I1
s(g120
I42
g121
Vinsert
p6184
I42
VSimpleName: Object
p6185
tp6186
I1
s(g1910
I42
g1911
Vinsert
p6187
I38
VPrefixExpression: !
p6188
tp6189
I1
s(g1228
I42
g1229
Vinsert
p6190
I27
VInfixExpression: &&
p6191
tp6192
I1
s(g2394
I42
g2395
Vinsert
p6193
I42
VSimpleName: KeyStoreException
p6194
tp6195
I1
s(g290
I42
g291
Vinsert
p6196
I43
VSimpleType: LinearLayout
p6197
tp6198
I1
s(g957
I42
g958
Vinsert
p6199
I8
VBlock
p6200
tp6201
I1
s(g606
I42
g607
Vinsert
p6202
I42
VSimpleName: Integer
p6203
tp6204
I1
s(g2163
I42
g2164
Vinsert
p6205
I42
VSimpleName: headers
p6206
tp6207
I1
s(g265
I42
g266
Vinsert
p6208
I42
VSimpleName: Override
p6209
tp6210
I1
s(g1080
I42
g1081
Vinsert
p6211
I42
VSimpleName: logLevel
p6212
tp6213
I2
s(g11
I42
g12
Vinsert
p6214
I8
VBlock
p6215
tp6216
I1
s(g173
I42
g174
Vinsert
p6217
I42
VSimpleName: onCancelButtonPressed
p6218
tp6219
I1
s(g1171
I42
g1172
Vinsert
p6220
I83
VModifier: private
p6221
tp6222
I1
s(g1122
I42
g1123
Vinsert
p6223
I43
VSimpleType: Map
p6224
tp6225
I1
s(g749
I42
g750
Vinsert
p6226
I36
VParenthesizedExpression
p6227
tp6228
I5
s(g819
I42
g820
Vinsert
p6229
I44
VSingleVariableDeclaration
p6230
tp6231
I6
s(g3566
I42
g3567
Vinsert
p6232
I42
VSimpleName: LOG_TAG
p6233
tp6234
I2
s(g684
I42
g685
Vinsert
p6235
I42
VSimpleName: String
p6236
tp6237
I1
s(g360
I42
g361
Vinsert
p6238
I27
VInfixExpression: !=
p6239
tp6240
I1
s(g1155
I42
g1156
Vinsert
p6241
I61
VWhileStatement
p6242
tp6243
I1
s(g1630
I42
g1631
Vinsert
p6244
I83
VModifier: static
p6245
tp6246
I1
s(g895
I42
g896
Vinsert
p6247
I21
VExpressionStatement
p6248
tp6249
I1
s(g315
I42
g316
Vinsert
p6250
I59
VVariableDeclarationFragment
p6251
tp6252
I1
s(g957
I42
g958
Vinsert
p6253
I33
VNullLiteral
p6254
tp6255
I1
s(g590
I42
g591
Vinsert
p6256
I66
VTextElement:  SchemeRegistry to be used
p6257
tp6258
I1
s(g1514
I42
g1515
Vinsert
p6259
I66
VTextElement:     String with URL, should be valid URL without params
p6260
tp6261
I1
s(g731
I42
g732
Vinsert
p6262
I66
VTextElement:  maximum number of retries per request
p6263
tp6264
I1
s(g768
I42
g769
Vinsert
p6265
I85
VDimension
p6266
tp6267
I1
s(g51
I42
g52
Vinsert
p6268
I42
VSimpleName: requestHandle
p6269
tp6270
I2
s(g895
I42
g896
Vinsert
p6271
I52
VThisExpression
p6272
tp6273
I1
s(g1018
I42
g1019
Vinsert
p6274
I42
VSimpleName: Toast
p6275
tp6276
I2
s(g1504
I42
g1505
Vinsert
p6277
I22
VFieldAccess
p6278
tp6279
I1
s(g388
I42
g389
Vinsert
p6280
I25
VIfStatement
p6281
tp6282
I2
s(g629
I42
g630
Vinsert
p6283
I42
VSimpleName: port
p6284
tp6285
I1
s(g51
I42
g52
Vinsert
p6286
I59
VVariableDeclarationFragment
p6287
tp6288
I3
s(g819
I42
g820
Vinsert
p6289
I12
VCatchClause
p6290
tp6291
I6
s(g1882
I42
g1883
Vinsert
p6292
I42
VSimpleName: headersEditText
p6293
tp6294
I1
s(g1514
I42
g1515
Vinsert
p6295
I42
VSimpleName: url
p6296
tp6297
I3
s(g909
I42
g910
Vinsert
p6298
I42
VSimpleName: response
p6299
tp6300
I1
s(g1278
I42
g1279
Vinsert
p6301
I43
VSimpleType: WeakReference
p6302
tp6303
I1
s(g856
I42
g857
Vinsert
p6304
I42
VSimpleName: files
p6305
tp6306
I2
s(g492
I42
g493
Vinsert
p6307
I65
VTagElement: @param
p6308
tp6309
I2
s(g99
I42
g100
Vinsert
p6310
I14
VClassInstanceCreation
p6311
tp6312
I7
s(g1188
I42
g1189
Vinsert
p6313
I33
VNullLiteral
p6314
tp6315
I3
s(g726
I42
g727
Vinsert
p6316
I31
VMethodDeclaration
p6317
tp6318
I3
s(g275
I42
g276
Vinsert
p6319
I76
VWildcardType: ?
p6320
tp6321
I1
s(g110
I42
g111
Vinsert
p6322
I25
VIfStatement
p6323
tp6324
I5
s(g621
I42
g622
Vinsert
p6325
I42
VSimpleName: put
p6326
tp6327
I1
s(g726
I42
g727
Vinsert
p6328
I42
VSimpleName: LeakCanary
p6329
tp6330
I1
s(g542
I42
g543
Vinsert
p6331
I74
VParameterizedType: ArrayList<String>
p6332
tp6333
I1
s(g270
I42
g271
Vinsert
p6334
I83
VModifier: public
p6335
tp6336
I2
s(g295
I42
g296
Vinsert
p6337
I25
VIfStatement
p6338
tp6339
I1
s(g497
I42
g498
Vinsert
p6340
I43
VSimpleType: String
p6341
tp6342
I3
s(g378
I42
g379
Vinsert
p6343
I61
VWhileStatement
p6344
tp6345
I1
s(g571
I42
g572
Vinsert
p6346
I42
VSimpleName: headersLayout
p6347
tp6348
I2
s(g537
I42
g538
Vinsert
p6349
I42
VSimpleName: SAXParser
p6350
tp6351
I1
s(g2177
I42
g2178
Vinsert
p6352
I42
VSimpleName: username
p6353
tp6354
I1
s(g320
I42
g321
Vinsert
p6355
I21
VExpressionStatement
p6356
tp6357
I3
s(g99
I42
g100
Vinsert
p6358
I78
VMarkerAnnotation
p6359
tp6360
I4
s(g1247
I42
g1248
Vinsert
p6361
I42
VSimpleName: setUserAgent
p6362
tp6363
I1
s(g3386
I42
g3387
Vinsert
p6364
I42
VSimpleName: setHomeAsUpEnabled
p6365
tp6366
I1
s(g760
I42
g761
Vinsert
p6367
I7
VAssignment: +=
p6368
tp6369
I2
s(g1551
I42
g1552
Vinsert
p6370
I42
VSimpleName: states
p6371
tp6372
I3
s(g957
I42
g958
Vinsert
p6373
I21
VExpressionStatement
p6374
tp6375
I1
s(g1050
I42
g1051
Vinsert
p6376
I42
VSimpleName: client
p6377
tp6378
I5
s(g1434
I42
g1435
Vinsert
p6379
I25
VIfStatement
p6380
tp6381
I1
s(g673
I42
g674
Vinsert
p6382
I32
VMethodInvocation
p6383
tp6384
I1
s(g523
I42
g524
Vinsert
p6385
I42
VSimpleName: Collections
p6386
tp6387
I1
s(g325
I42
g326
Vinsert
p6388
I38
VPrefixExpression: !
p6389
tp6390
I3
s(g1141
I42
g1142
Vinsert
p6391
I34
VNumberLiteral: 2
p6392
tp6393
I1
s(g1085
I42
g1086
Vinsert
p6394
I42
VSimpleName: String
p6395
tp6396
I1
s(g1490
I42
g1491
Vinsert
p6397
I42
VSimpleName: Exception
p6398
tp6399
I1
s(g985
I42
g986
Vinsert
p6400
I42
VSimpleName: broadcast
p6401
tp6402
I2
s(g3540
I42
g3541
Vinsert
p6403
I7
VAssignment: =
p6404
tp6405
I1
s(g1050
I42
g1051
Vinsert
p6406
I42
VSimpleName: entity
p6407
tp6408
I3
s(g474
I42
g475
Vinsert
p6409
I43
VSimpleType: String
p6410
tp6411
I2
s(g155
I42
g156
Vinsert
p6412
I43
VSimpleType: IOException
p6413
tp6414
I2
s(g2025
I42
g2026
Vinsert
p6415
I59
VVariableDeclarationFragment
p6416
tp6417
I1
s(g1247
I42
g1248
Vinsert
p6418
I66
VTextElement: "Android Asynchronous Http Client/VERSION (http://loopj.com/android-async-http/)" is used.
p6419
tp6420
I1
s(g41
I42
g42
Vinsert
p6421
I42
VSimpleName: TAG
p6422
tp6423
I3
s(g595
I42
g596
Vinsert
p6424
I42
VSimpleName: usePoolThread
p6425
tp6426
I1
s(g91
I42
g92
Vinsert
p6427
I59
VVariableDeclarationFragment
p6428
tp6429
I4
s(g383
I42
g384
Vinsert
p6430
I42
VSimpleName: getAsyncHttpClient
p6431
tp6432
I2
s(g1018
I42
g1019
Vinsert
p6433
I78
VMarkerAnnotation
p6434
tp6435
I1
s(g451
I42
g452
Vinsert
p6436
I25
VIfStatement
p6437
tp6438
I1
s(g91
I42
g92
Vinsert
p6439
I42
VSimpleName: copyLength
p6440
tp6441
I2
s(g36
I42
g37
Vinsert
p6442
I42
VSimpleName: responseHandler
p6443
tp6444
I2
s(g1196
I42
g1197
Vinsert
p6445
I42
VSimpleName: AuthState
p6446
tp6447
I1
s(g768
I42
g769
Vinsert
p6448
I42
VSimpleName: read
p6449
tp6450
I1
s(g700
I42
g701
Vinsert
p6451
I40
VQualifiedName: View.VISIBLE
p6452
tp6453
I1
s(g1630
I42
g1631
Vinsert
p6454
I42
VSimpleName: exceptionBlacklist
p6455
tp6456
I1
s(g1026
I42
g1027
Vinsert
p6457
I27
VInfixExpression: ==
p6458
tp6459
I1
s(g1070
I42
g1071
Vinsert
p6460
I14
VClassInstanceCreation
p6461
tp6462
I1
s(g2025
I42
g2026
Vinsert
p6463
I32
VMethodInvocation
p6464
tp6465
I1
s(g393
I42
g394
Vinsert
p6466
I60
VVariableDeclarationStatement
p6467
tp6468
I5
s(g360
I42
g361
Vinsert
p6469
I42
VSimpleName: result
p6470
tp6471
I2
s(g920
I42
g921
Vinsert
p6472
I22
VFieldAccess
p6473
tp6474
I4
s(Vinsert
p6475
I42
VSimpleName: intValue
p6476
Vinsert
p6477
I42
VSimpleName: onProgress
p6478
tp6479
I1
s(g247
I42
g248
Vinsert
p6480
I42
VSimpleName: ThreadingTimeoutSample
p6481
tp6482
I1
s(g178
I42
g179
Vinsert
p6483
I42
VSimpleName: Thread
p6484
tp6485
I1
s(g115
I42
g116
Vinsert
p6486
I27
VInfixExpression: &
p6487
tp6488
I1
s(g523
I42
g524
Vinsert
p6489
I14
VClassInstanceCreation
p6490
tp6491
I1
s(g305
I42
g306
Vinsert
p6492
I27
VInfixExpression: ==
p6493
tp6494
I1
s(g427
I42
g428
Vinsert
p6495
I45
VStringLiteral: "_handled"
p6496
tp6497
I1
s(g1551
I42
g1552
Vinsert
p6498
I21
VExpressionStatement
p6499
tp6500
I1
s(g1504
I42
g1505
Vinsert
p6501
I39
VPrimitiveType: byte
p6502
tp6503
I1
s(g120
I42
g121
Vinsert
p6504
I42
VSimpleName: onSuccess
p6505
tp6506
I1
s(g1160
I42
g1161
Vinsert
p6507
I42
VSimpleName: type
p6508
tp6509
I2
s(g726
I42
g727
Vinsert
p6510
I40
VQualifiedName: Build.VERSION_CODES.HONEYCOMB
p6511
tp6512
I3
s(g125
I42
g126
Vinsert
p6513
I45
VStringLiteral: "Target file is not a directory, cannot proceed"
p6514
tp6515
I1
s(g315
I42
g316
Vinsert
p6516
I42
VSimpleName: StatusLine
p6517
tp6518
I1
s(g81
I42
g82
Vinsert
p6519
I34
VNumberLiteral: 0
p6520
tp6521
I1
s(g1444
I42
g1445
Vinsert
p6522
I21
VExpressionStatement
p6523
tp6524
I5
s(g46
I42
g47
Vinsert
p6525
I42
VSimpleName: totalSize
p6526
tp6527
I1
s(g1434
I42
g1435
Vinsert
p6528
I42
VSimpleName: getRequestHandles
p6529
tp6530
I1
s(g252
I42
g253
Vinsert
p6531
I45
VStringLiteral: "BinaryHttpResponseHandler"
p6532
tp6533
I1
s(g1037
I42
g1038
Vinsert
p6534
I42
VSimpleName: Cookie
p6535
tp6536
I1
s(g838
I42
g839
Vinsert
p6537
I42
VSimpleName: URI
p6538
tp6539
I2
s(g895
I42
g896
Vinsert
p6540
I43
VSimpleType: AsyncHttpRequest
p6541
tp6542
I1
s(g1247
I42
g1248
Vinsert
p6543
I83
VModifier: public
p6544
tp6545
I1
s(g173
I42
g174
Vinsert
p6546
I83
VModifier: public
p6547
tp6548
I2
s(g120
I42
g121
Vinsert
p6549
I42
VSimpleName: response
p6550
tp6551
I1
s(g760
I42
g761
Vinsert
p6552
I42
VSimpleName: count
p6553
tp6554
I2
s(g36
I42
g37
Vinsert
p6555
I21
VExpressionStatement
p6556
tp6557
I1
s(g11
I42
g12
Vinsert
p6558
I21
VExpressionStatement
p6559
tp6560
I1
s(g1160
I42
g1161
Vinsert
p6561
I54
VTryStatement
p6562
tp6563
I1
s(g66
I42
g67
Vinsert
p6564
I60
VVariableDeclarationStatement
p6565
tp6566
I1
s(g145
I42
g146
Vinsert
p6567
I42
VSimpleName: header
p6568
tp6569
I1
s(g867
I42
g868
Vinsert
p6570
I42
VSimpleName: Throwable
p6571
tp6572
I1
s(g66
I42
g67
Vinsert
p6573
I32
VMethodInvocation
p6574
tp6575
I5
s(g3540
I42
g3541
Vinsert
p6576
I42
VSimpleName: MediaPlayer
p6577
tp6578
I1
s.