(lp0
(Vinsert
p1
I42
VSimpleName: substring
p2
tp3
a(Vinsert
p4
I42
VSimpleName: getUseSynchronousMode
p5
tp6
a(Vinsert
p7
I42
VSimpleName: start
p8
tp9
a(Vinsert
p10
I42
VSimpleName: onPostProcessResponse
p11
tp12
a(Vinsert
p13
I42
VSimpleName: min
p14
tp15
a(Vinsert
p16
I42
VSimpleName: getContentLength
p17
tp18
a(Vinsert
p19
I42
VSimpleName: delete
p20
tp21
a(Vinsert
p22
I42
VSimpleName: getXMLReader
p23
tp24
a(Vinsert
p25
I42
VSimpleName: setIsRepeatable
p26
tp27
a(Vinsert
p28
I42
VSimpleName: getFixedSocketFactory
p29
tp30
a(Vinsert
p31
I42
VSimpleName: getSocketFactory
p32
tp33
a(Vinsert
p34
I42
VSimpleName: getText
p35
tp36
a(Vinsert
p37
I42
VSimpleName: setCorePoolSize
p38
tp39
a(Vinsert
p40
I42
VSimpleName: sendCancelMessage
p41
tp42
a(Vinsert
p43
I42
VSimpleName: get
p44
tp45
a(Vinsert
p46
I42
VSimpleName: post
p47
tp48
a(Vinsert
p49
I42
VSimpleName: updateRequestHeaders
p50
tp51
a(Vinsert
p52
I42
VSimpleName: values
p53
tp54
a(Vinsert
p55
I42
VSimpleName: submit
p56
tp57
a(Vinsert
p58
I42
VSimpleName: read
p59
tp60
a(Vinsert
p61
I42
VSimpleName: getClass
p62
tp63
a(Vinsert
p64
I42
VSimpleName: getAttribute
p65
tp66
a(Vinsert
p67
I42
VSimpleName: removeHeader
p68
tp69
a(Vinsert
p70
I42
VSimpleName: isEmpty
p71
tp72
a(Vinsert
p73
I42
VSimpleName: currentThread
p74
tp75
a(Vinsert
p76
I42
VSimpleName: cancel
p77
tp78
a(Vinsert
p79
I42
VSimpleName: cancelAllRequests
p80
tp81
a(Vinsert
p82
I42
VSimpleName: getIntExtra
p83
tp84
a(Vinsert
p85
I42
VSimpleName: setLoggingLevel
p86
tp87
a(Vinsert
p88
I42
VSimpleName: trim
p89
tp90
a(Vinsert
p91
I42
VSimpleName: addToBlacklist
p92
tp93
a(Vinsert
p94
I42
VSimpleName: i
p95
tp96
a(Vinsert
p97
I42
VSimpleName: asserts
p98
tp99
a(Vinsert
p100
I42
VSimpleName: getParentFile
p101
tp102
a(Vinsert
p103
I42
VSimpleName: setSocketBufferSize
p104
tp105
a(Vinsert
p106
I42
VSimpleName: entrySet
p107
tp108
a(Vinsert
p109
I42
VSimpleName: nextValue
p110
tp111
a(Vinsert
p112
I42
VSimpleName: e
p113
tp114
a(Vinsert
p115
I42
VSimpleName: sendFailureMessage
p116
tp117
a(Vinsert
p118
I42
VSimpleName: endsWith
p119
tp120
a(Vinsert
p121
I42
VSimpleName: getStatusCode
p122
tp123
a(Vinsert
p124
I42
VSimpleName: equalsIgnoreCase
p125
tp126
a(Vinsert
p127
I42
VSimpleName: isDirectory
p128
tp129
a(Vinsert
p130
I42
VSimpleName: setOnClickListener
p131
tp132
a(Vinsert
p133
I42
VSimpleName: synchronizedList
p134
tp135
a(Vinsert
p136
I42
VSimpleName: prepare
p137
tp138
a(Vinsert
p139
I42
VSimpleName: keyAt
p140
tp141
a(Vinsert
p142
I42
VSimpleName: makeText
p143
tp144
a(Vinsert
p145
I42
VSimpleName: getVideoWidth
p146
tp147
a(Vinsert
p148
I42
VSimpleName: clear
p149
tp150
a(Vinsert
p151
I42
VSimpleName: setEnableRedirects
p152
tp153
a(Vinsert
p154
I42
VSimpleName: getDomain
p155
tp156
a(Vinsert
p157
I42
VSimpleName: valueOf
p158
tp159
a(Vinsert
p160
I42
VSimpleName: blockRetryExceptionClass
p161
tp162
a(Vinsert
p163
I42
VSimpleName: getCredentialsProvider
p164
tp165
a(Vinsert
p166
I42
VSimpleName: getStatusLine
p167
tp168
a(Vinsert
p169
I42
VSimpleName: parseColor
p170
tp171
a(Vinsert
p172
I42
VSimpleName: setHeaders
p173
tp174
a(Vinsert
p175
I42
VSimpleName: retryRequest
p176
tp177
a(Vinsert
p178
I42
VSimpleName: process
p179
tp180
a(Vinsert
p181
I42
VSimpleName: getName
p182
tp183
a(Vinsert
p184
I42
VSimpleName: myLooper
p185
tp186
a(Vinsert
p187
I42
VSimpleName: run
p188
tp189
a(Vinsert
p190
I42
VSimpleName: gc
p191
tp192
a(Vinsert
p193
I42
VSimpleName: getProtocol
p194
tp195
a(Vinsert
p196
I42
VSimpleName: w
p197
tp198
a(Vinsert
p199
I42
VSimpleName: setRedirectHandler
p200
tp201
a(Vinsert
p202
I42
VSimpleName: create
p203
tp204
a(Vinsert
p205
I42
VSimpleName: setCredentials
p206
tp207
a(Vinsert
p208
I42
VSimpleName: getParams
p209
tp210
a(Vinsert
p211
I42
VSimpleName: getEntity
p212
tp213
a(Vinsert
p214
I42
VSimpleName: addView
p215
tp216
a(Vinsert
p217
I42
VSimpleName: putExtra
p218
tp219
a(Vinsert
p220
I42
VSimpleName: isCheckable
p221
tp222
a(Vinsert
p223
I42
VSimpleName: getAllHeaders
p224
tp225
a(Vinsert
p226
I42
VSimpleName: setRequestTag
p227
tp228
a(Vinsert
p229
I42
VSimpleName: startsWith
p230
tp231
a(Vinsert
p232
I42
VSimpleName: append
p233
tp234
a(Vinsert
p235
I42
VSimpleName: setForceSynchronous
p236
tp237
a(Vinsert
p238
I42
VSimpleName: setTag
p239
tp240
a(Vinsert
p241
I42
VSimpleName: remove
p242
tp243
a(Vinsert
p244
I42
VSimpleName: setHttpEntityIsRepeatable
p245
tp246
a(Vinsert
p247
I42
VSimpleName: printStackTrace
p248
tp249
a(Vinsert
p250
I42
VSimpleName: intValue
p251
tp252
a(Vinsert
p253
I42
VSimpleName: verify
p254
tp255
a(Vinsert
p256
I42
VSimpleName: obtain
p257
tp258
a(Vinsert
p259
I42
VSimpleName: write
p260
tp261
a(Vinsert
p262
I42
VSimpleName: put
p263
tp264
a(Vinsert
p265
I42
VSimpleName: add
p266
tp267
a(Vinsert
p268
I42
VSimpleName: readLine
p269
tp270
a(Vinsert
p271
I42
VSimpleName: execute
p272
tp273
a(Vinsert
p274
I42
VSimpleName: setUseSynchronousMode
p275
tp276
a(Vinsert
p277
I42
VSimpleName: split
p278
tp279
a(Vinsert
p280
I42
VSimpleName: setRequestURI
p281
tp282
a(Vinsert
p283
I42
VSimpleName: addRequestInterceptor
p284
tp285
a(Vinsert
p286
I42
VSimpleName: getValue
p287
tp288
a(Vinsert
p289
I42
VSimpleName: synchronizedMap
p290
tp291
a(Vinsert
p292
I42
VSimpleName: readValues
p293
tp294
a(Vinsert
p295
I42
VSimpleName: d
p296
tp297
a(Vinsert
p298
I42
VSimpleName: setUserAgent
p299
tp300
a(Vinsert
p301
I42
VSimpleName: hasNext
p302
tp303
a(Vinsert
p304
I42
VSimpleName: length
p305
tp306
a(Vinsert
p307
I42
VSimpleName: getBytes
p308
tp309
a(Vinsert
p310
I42
VSimpleName: iterator
p311
tp312
a(Vinsert
p313
I42
VSimpleName: isCancelled
p314
tp315
a(Vinsert
p316
I42
VSimpleName: getUsePoolThread
p317
tp318
a(Vinsert
p319
I42
VSimpleName: setHttpRequestRetryHandler
p320
tp321
a(Vinsert
p322
I42
VSimpleName: setText
p323
tp324
a(Vinsert
p325
I42
VSimpleName: booleanValue
p326
tp327
a(Vinsert
p328
I42
VSimpleName: unread
p329
tp330
a(Vinsert
p331
I42
VSimpleName: parse
p332
tp333
a(Vinsert
p334
I42
VSimpleName: setTitle
p335
tp336
a(Vinsert
p337
I42
VSimpleName: addPart
p338
tp339
a(Vinsert
p340
I42
VSimpleName: equals
p341
tp342
a(Vinsert
p343
I42
VSimpleName: onPreProcess
p344
tp345
a(Vinsert
p346
I42
VSimpleName: replace
p347
tp348
a(Vinsert
p349
I42
VSimpleName: getCacheDir
p350
tp351
a(Vinsert
p352
I42
VSimpleName: size
p353
tp354
a(Vinsert
p355
I42
VSimpleName: containsHeader
p356
tp357
a(Vinsert
p358
I42
VSimpleName: getMessage
p359
tp360
a(Vinsert
p361
I42
VSimpleName: setOrientation
p362
tp363
a(Vinsert
p364
I42
VSimpleName: keySet
p365
tp366
a(Vinsert
p367
I42
VSimpleName: toString
p368
tp369
a(Vinsert
p370
I42
VSimpleName: setConnectionTimeout
p371
tp372
a(Vinsert
p373
I42
VSimpleName: endEntityViaReflection
p374
tp375
a(Vinsert
p376
I42
VSimpleName: v
p377
tp378
a(Vinsert
p379
I42
VSimpleName: sendMessage
p380
tp381
a(Vinsert
p382
I42
VSimpleName: close
p383
tp384
a(Vinsert
p385
I42
VSimpleName: exists
p386
tp387
a(Vinsert
p388
I42
VSimpleName: addHeader
p389
tp390
a(Vinsert
p391
I42
VSimpleName: format
p392
tp393
a.