(dp0
(S'Token'
p1
I1741
Vmap
p2
tp3
I1
s(g1
I702
VTextUtils
p4
tp5
I1
s(g1
I191
Vclient
p6
tp7
I1
s(g1
I14
VRequestHandle
p8
tp9
I1
s(g1
I239
VFutureTask
p10
tp11
I1
s(g1
I1144
Vvalue
p12
tp13
I1
s(g1
I189
VResponseHandlerInterface
p14
tp15
I1
s(g1
I393
VOverride
p16
tp17
I1
s(g1
I612
Vpairs
p18
tp19
I1
s(g1
I245
VFutureTask
p20
tp21
I1
s(g1
I70
Ventry
p22
tp23
I1
s(g1
I3263
VString
p24
tp25
I1
s(g1
I4460
VpushbackStream
p26
tp27
I1
s(g1
I4007
VLog
p28
tp29
I1
s(g1
I312
VHeader
p30
tp31
I1
s(g1
I154
VisInterrupted
p32
tp33
I1
s(g1
I282
Ve
p34
tp35
I1
s(g1
I86
Vcontext
p36
tp37
I1
s(g1
I619
VsetRequestTag
p38
tp39
I1
s(g1
I350
VusePoolThread
p40
tp41
I1
s(g1
I4187
Vff
p42
tp43
I1
s(g1
I1021
VObject
p44
tp45
I1
s(g1
I267
VhandleMessage
p46
tp47
I1
s(g1
I44
Vcontext
p48
tp49
I2
s(g1
I270
Vcause
p50
tp51
I1
s(g1
I297
VhandleSuccessMessage
p52
tp53
I1
s(g1
I851
VcontentLength
p54
tp55
I1
s(g1
I98
Vparams
p56
tp57
I1
s(g1
I199
VparseResponse
p58
tp59
I1
s(g1
I171
VLog
p60
tp61
I1
s(g1
I3726
VgetUseSynchronousMode
p62
tp63
I1
s(g1
I397
VonFinish
p64
tp65
I1
s(g1
I979
VthreadPool
p66
tp67
I1
s(g1
I4090
VIllegalArgumentException
p68
tp69
I1
s(g1
I57
VresponseBody
p70
tp71
I2
s(g1
I1033
VresponseBody
p72
tp73
I1
s(g1
I270
VsendFailureMessage
p74
tp75
I1
s(g1
I513
Vcls
p76
tp77
I1
s(g1
I1069
VaddPart
p78
tp79
I1
s(g1
I303
VsendFailureMessage
p80
tp81
I1
s(g1
I67
VString
p82
tp83
I1
s(g1
I103
VJSONObject
p84
tp85
I1
s(g1
I296
Vresponse
p86
tp87
I1
s(g1
I3224
VLOG_TAG
p88
tp89
I1
s(g1
I205
Vcontext
p90
tp91
I1
s(g1
I683
Vresponse
p92
tp93
I1
s(g1
I1738
VMap
p94
tp95
I1
s(g1
I187
Vuri
p96
tp97
I1
s(g1
I728
VrequestHandles
p98
tp99
I1
s(g1
I185
VHttpEntity
p100
tp101
I1
s(g1
I72
VTAG
p102
tp103
I1
s(g1
I3042
VrequestList
p104
tp105
I1
s(g1
I1514
VrequestMap
p106
tp107
I1
s(g1
I3012
Vadd
p108
tp109
I1
s(g1
I125
VcreateTempFile
p110
tp111
I1
s(g1
I661
VhttpParams
p112
tp113
I1
s(g1
I137
VrssReader
p114
tp115
I1
s(g1
I269
Vcause
p116
tp117
I1
s(g1
I550
VstatusCode
p118
tp119
I1
s(g1
I477
VgetResponseHandler
p120
tp121
I1
s(g1
I1968
VgetCredentialsProvider
p122
tp123
I1
s(g1
I202
VerrorResponse
p124
tp125
I1
s(g1
I2220
Voutput_len
p126
tp127
I1
s(g1
I952
VmaxConnections
p128
tp129
I1
s(g1
I2613
VHttpEntity
p130
tp131
I1
s(g1
I25
VLOG_TAG
p132
tp133
I1
s(g1
I391
VObject
p134
tp135
I1
s(g1
I408
Vrun
p136
tp137
I1
s(g1
I189
Ve
p138
tp139
I1
s(g1
I18
VonCancelButtonPressed
p140
tp141
I1
s(g1
I291
VString
p142
tp143
I1
s(g1
I163
Vrequest
p144
tp145
I1
s(g1
I2872
VcontentType
p146
tp147
I1
s(g1
I205
VCheckBox
p148
tp149
I1
s(g1
I985
Vresponse
p150
tp151
I1
s(g1
I742
VurlParams
p152
tp153
I1
s(g1
I503
Vsubstring
p154
tp155
I1
s(g1
I3023
Vcontext
p156
tp157
I1
s(g1
I219
Ve
p158
tp159
I1
s(g1
I547
VJSONArray
p160
tp161
I1
s(g1
I2708
Vparams
p162
tp163
I1
s(g1
I160
VLOG_TAG
p164
tp165
I1
s(g1
I369
VResponderHandler
p166
tp167
I1
s(g1
I149
Vcontext
p168
tp169
I1
s(g1
I756
VnextValue
p170
tp171
I1
s(g1
I632
VhttpClient
p172
tp173
I1
s(g1
I368
VString
p174
tp175
I1
s(g1
I66
VonCancelButtonPressed
p176
tp177
I1
s(g1
I213
VHttpParams
p178
tp179
I1
s(g1
I355
Vlooper
p180
tp181
I1
s(g1
I543
VsetEntity
p182
tp183
I1
s(g1
I538
VtoString
p184
tp185
I1
s(g1
I213
VString
p186
tp187
I2
s(g1
I551
VPROTOCOL
p188
tp189
I1
s(g1
I2708
VgetEntity
p190
tp191
I1
s(g1
I524
Vpost
p192
tp193
I1
s(g1
I673
Vvalue
p194
tp195
I1
s(g1
I130
VisInterrupted
p196
tp197
I1
s(g1
I280
VSocketException
p198
tp199
I1
s(g1
I96
VUtils
p200
tp201
I1
s(g1
I100
VgetColoredView
p202
tp203
I1
s(g1
I395
VHeader
p204
tp205
I1
s(g1
I782
VString
p206
tp207
I1
s(g1
I831
VsslSocketFactory
p208
tp209
I1
s(g1
I1127
VresponseMessageId
p210
tp211
I1
s(g1
I235
VsetVisibility
p212
tp213
I1
s(g1
I648
VsslSocketFactory
p214
tp215
I1
s(g1
I1844
Vparams
p216
tp217
I1
s(g1
I282
VIOException
p218
tp219
I1
s(g1
I160
VRunnable
p220
tp221
I1
s(g1
I47
VString
p222
tp223
I1
s(g1
I590
VjsonString
p224
tp225
I1
s(g1
I422
VIOException
p226
tp227
I1
s(g1
I222
VString
p228
tp229
I1
s(g1
I760
VFuture
p230
tp231
I1
s(g1
I1844
Vadd
p232
tp233
I1
s(g1
I58
Vsource
p234
tp235
I1
s(g1
I839
VresponseBody
p236
tp237
I1
s(g1
I817
Vheaders
p238
tp239
I1
s(g1
I3271
VContext
p240
tp241
I1
s(g1
I237
VUnsupportedEncodingException
p242
tp243
I1
s(g1
I134
Vfile
p244
tp245
I1
s(g1
I72
VonSuccess
p246
tp247
I1
s(g1
I1001
VString
p248
tp249
I1
s(g1
I1773
Vparams
p250
tp251
I1
s(g1
I108
Vsparser
p252
tp253
I1
s(g1
I280
VAsyncHttpClient
p254
tp255
I1
s(g1
I186
VDEFAULT_CHARSET
p256
tp257
I1
s(g1
I280
Vcause
p258
tp259
I1
s(g1
I495
VaddToWhitelist
p260
tp261
I1
s(g1
I7
VOverride
p262
tp263
I2
s(g1
I97
VonSuccess
p264
tp265
I1
s(g1
I552
VHttpProtocolParams
p266
tp267
I1
s(g1
I202
Vtag
p268
tp269
I1
s(g1
I75
VString
p270
tp271
I1
s(g1
I283
VresponseHandler
p272
tp273
I1
s(g1
I135
Vl
p274
tp275
I1
s(g1
I386
VsetTag
p276
tp277
I1
s(g1
I310
Ve
p278
tp279
I1
s(g1
I59
Vfile
p280
tp281
I3
s(g1
I258
VUnknownHostException
p282
tp283
I1
s(g1
I945
VObject
p284
tp285
I1
s(g1
I517
VkvParams
p286
tp287
I1
s(g1
I719
VRequestHandle
p288
tp289
I1
s(g1
I3569
VaddEntityToRequestBase
p290
tp291
I1
s(g1
I133
Vheaders
p292
tp293
I1
s(g1
I243
VObject
p294
tp295
I1
s(g1
I372
VString
p296
tp297
I1
s(g1
I215
VretryHandler
p298
tp299
I1
s(g1
I244
VHttpRequestRetryHandler
p300
tp301
I1
s(g1
I163
Vsfactory
p302
tp303
I1
s(g1
I646
Vd
p304
tp305
I1
s(g1
I668
VenableRedirects
p306
tp307
I1
s(g1
I497
VgetTargetFileByParsingURL
p308
tp309
I1
s(g1
I1184
Vmsg
p310
tp311
I1
s(g1
I528
Vheaders
p312
tp313
I1
s(g1
I47
VInteger
p314
tp315
I1
s(g1
I65
VonProgressData
p316
tp317
I1
s(g1
I1189
VRunnable
p318
tp319
I1
s(g1
I651
VcontainsHeader
p320
tp321
I1
s(g1
I1196
Vresponse
p322
tp323
I1
s(g1
I1209
VpostRunnable
p324
tp325
I1
s(g1
I2157
VRunnable
p326
tp327
I1
s(g1
I167
VaddView
p328
tp329
I1
s(g1
I155
VSAXParserFactory
p330
tp331
I1
s(g1
I479
Vmenu
p332
tp333
I1
s(g1
I214
VJSONObject
p334
tp335
I1
s(g1
I666
VonFailure
p336
tp337
I1
s(g1
I281
VaddView
p338
tp339
I1
s(g1
I625
VgetClass
p340
tp341
I1
s(g1
I614
VPROGRESS_MESSAGE
p342
tp343
I1
s(g1
I383
Vresponse
p344
tp345
I1
s(g1
I742
Vpost
p346
tp347
I1
s(g1
I283
VonClickListener
p348
tp349
I1
s(g1
I237
VObject
p350
tp351
I1
s(g1
I1002
VHttpEntity
p352
tp353
I1
s(g1
I3995
Vurl
p354
tp355
I1
s(g1
I1147
Vrequest
p356
tp357
I1
s(g1
I822
VresponseBody
p358
tp359
I1
s(g1
I66
Vfile
p360
tp361
I3
s(g1
I873
Ve
p362
tp363
I1
s(g1
I465
Vget
p364
tp365
I1
s(g1
I596
Vappend
p366
tp367
I1
s(g1
I793
VjsonString
p368
tp369
I1
s(g1
I836
VgetConnectionManager
p370
tp371
I1
s(g1
I384
Vvalue
p372
tp373
I1
s(g1
I371
VHeader
p374
tp375
I1
s(g1
I91
VAsyncHttpRequest
p376
tp377
I1
s(g1
I864
VhttpClient
p378
tp379
I1
s(g1
I954
Vresponse
p380
tp381
I1
s(g1
I3687
VrequestList
p382
tp383
I1
s(g1
I311
Vclose
p384
tp385
I1
s(g1
I224
Vput
p386
tp387
I1
s(g1
I270
Vstream
p388
tp389
I1
s(g1
I223
VwriteBoundary
p390
tp391
I1
s(g1
I815
Vi
p392
tp393
I1
s(g1
I2629
VHttpPut
p394
tp395
I1
s(g1
I176
VLOG_TAG
p396
tp397
I1
s(g1
I497
VgetStatusCode
p398
tp399
I1
s(g1
I348
VHttpProtocolParams
p400
tp401
I1
s(g1
I729
VgetName
p402
tp403
I1
s(g1
I234
Vwrite
p404
tp405
I1
s(g1
I1150
VString
p406
tp407
I1
s(g1
I115
VLOG_TAG
p408
tp409
I1
s(g1
I733
VresponseHandler
p410
tp411
I1
s(g1
I236
VResponseHandlerInterface
p412
tp413
I1
s(g1
I4013
VshouldEncodeUrl
p414
tp415
I1
s(g1
I313
VresponseHandler
p416
tp417
I1
s(g1
I527
VautoClose
p418
tp419
I1
s(g1
I952
VDEFAULT_MAX_CONNECTIONS
p420
tp421
I1
s(g1
I299
VcontentTypeHeader
p422
tp423
I1
s(g1
I109
Vkeys
p424
tp425
I1
s(g1
I922
VgetEntity
p426
tp427
I1
s(g1
I301
VresponseHandler
p428
tp429
I1
s(g1
I604
Vresult
p430
tp431
I1
s(g1
I2642
VsendRequest
p432
tp433
I1
s(g1
I936
Ve
p434
tp435
I1
s(g1
I644
Vheader
p436
tp437
I1
s(g1
I142
Vwrite
p438
tp439
I1
s(g1
I56
VsetURI
p440
tp441
I1
s(g1
I1518
VAsyncHttpResponseHandler
p442
tp443
I1
s(g1
I657
Vfiles
p444
tp445
I1
s(g1
I1506
Vappend
p446
tp447
I1
s(g1
I926
Vt
p448
tp449
I1
s(g1
I43
VgetStatusCode
p450
tp451
I1
s(g1
I191
VcbAppend
p452
tp453
I1
s(g1
I4458
VGZIPInputStream
p454
tp455
I1
s(g1
I165
VOverride
p456
tp457
I1
s(g1
I186
Vinstream
p458
tp459
I1
s(g1
I136
Vheaders
p460
tp461
I1
s(g1
I239
Vheaders
p462
tp463
I1
s(g1
I543
Vpost
p464
tp465
I1
s(g1
I400
VString
p466
tp467
I1
s(g1
I141
Ve
p468
tp469
I1
s(g1
I713
Vvalue
p470
tp471
I1
s(g1
I37
VJSONObject
p472
tp473
I1
s(g1
I3261
VuriRequest
p474
tp475
I1
s(g1
I312
Ventity
p476
tp477
I1
s(g1
I199
VFileUtil
p478
tp479
I1
s(g1
I686
VdefaultText
p480
tp481
I1
s(g1
I517
VRetryHandler
p482
tp483
I1
s(g1
I3681
VrequestMap
p484
tp485
I1
s(g1
I3849
VIOException
p486
tp487
I1
s(g1
I1829
VnestedValue
p488
tp489
I1
s(g1
I1018
VisInterrupted
p490
tp491
I1
s(g1
I956
VhttpClient
p492
tp493
I1
s(g1
I659
Voverwritten
p494
tp495
I1
s(g1
I831
VjsonString
p496
tp497
I1
s(g1
I846
Ve
p498
tp499
I1
s(g1
I133
VList
p500
tp501
I1
s(g1
I580
Vvalues
p502
tp503
I1
s(g1
I385
Vd
p504
tp505
I1
s(g1
I533
Vmsg
p506
tp507
I1
s(g1
I196
VAsyncHttpResponseHandler
p508
tp509
I1
s(g1
I41
VStringBuilder
p510
tp511
I1
s(g1
I96
Vcancel
p512
tp513
I1
s(g1
I195
Vshould
p514
tp515
I1
s(g1
I185
VSUCCESS_MESSAGE
p516
tp517
I1
s(g1
I310
VresponseHandler
p518
tp519
I2
s(g1
I220
VHttpEntity
p520
tp521
I1
s(g1
I233
Vheaders
p522
tp523
I1
s(g1
I64
VHttpGet
p524
tp525
I1
s(g1
I155
VHeader
p526
tp527
I1
s(g1
I840
VIOException
p528
tp529
I1
s(g1
I522
VurlParams
p530
tp531
I1
s(g1
I1097
VisLoggingEnabled
p532
tp533
I1
s(g1
I1004
Vmp
p534
tp535
I1
s(g1
I1143
VMessage
p536
tp537
I1
s(g1
I522
VBoolean
p538
tp539
I1
s(g1
I544
VfileParams
p540
tp541
I1
s(g1
I154
Vcontents_scroll
p542
tp543
I1
s(g1
I826
Ventity
p544
tp545
I1
s(g1
I249
VhandleMessage
p546
tp547
I1
s(g1
I653
Vparser
p548
tp549
I1
s(g1
I4035
V_uri
p550
tp551
I1
s(g1
I3981
Vparams
p552
tp553
I1
s(g1
I179
VHeader
p554
tp555
I1
s(g1
I1539
VRequestHandle
p556
tp557
I1
s(g1
I403
VresponseBody
p558
tp559
I1
s(g1
I184
Vencoding
p560
tp561
I1
s(g1
I40
VresponseHandler
p562
tp563
I1
s(g1
I204
Ve
p564
tp565
I1
s(g1
I4286
VgetUsePoolThread
p566
tp567
I1
s(g1
I49
Vuri
p568
tp569
I1
s(g1
I368
Vd
p570
tp571
I1
s(g1
I368
VfixNoHttpResponseException
p572
tp573
I1
s(g1
I457
VuseHttpsMenuItem
p574
tp575
I1
s(g1
I2889
VgetUrlWithQueryString
p576
tp577
I1
s(g1
I903
VjsonString
p578
tp579
I1
s(g1
I2825
Vparams
p580
tp581
I1
s(g1
I220
Vresponse
p582
tp583
I1
s(g1
I895
Vhandler
p584
tp585
I1
s(g1
I326
VresponseBody
p586
tp587
I1
s(g1
I229
VIOException
p588
tp589
I1
s(g1
I777
VThread
p590
tp591
I1
s(g1
I738
Vvalue
p592
tp593
I1
s(g1
I3744
VuriRequest
p594
tp595
I1
s(g1
I74
Vc
p596
tp597
I1
s(g1
I144
VenableCircularRedirects
p598
tp599
I1
s(g1
I1512
Ventity
p600
tp601
I1
s(g1
I4209
VHttpEntity
p602
tp603
I1
s(g1
I1184
Vhandler
p604
tp605
I1
s(g1
I79
VLooper
p606
tp607
I1
s(g1
I198
Ve
p608
tp609
I1
s(g1
I106
VcreateTempFile
p610
tp611
I1
s(g1
I39
VCancelRequestHandle
p612
tp613
I1
s(g1
I87
VbytesWritten
p614
tp615
I1
s(g1
I90
VtotalSize
p616
tp617
I1
s(g1
I128
VcontentType
p618
tp619
I1
s(g1
I871
VsendMessage
p620
tp621
I1
s(g1
I164
Vitem
p622
tp623
I1
s(g1
I368
VLog
p624
tp625
I1
s(g1
I26
VOverride
p626
tp627
I1
s(g1
I178
VThrowable
p628
tp629
I1
s(g1
I2180
VthreadPool
p630
tp631
I1
s(g1
I82
VString
p632
tp633
I1
s(g1
I472
Vkey
p634
tp635
I1
s(g1
I662
Vi
p636
tp637
I1
s(g1
I194
VqueryParams
p638
tp639
I1
s(g1
I83
VmAllowedContentTypes
p640
tp641
I1
s(g1
I434
VisCancelled
p642
tp643
I1
s(g1
I144
VmenuItemEnableCircularRedirects
p644
tp645
I1
s(g1
I180
VpostRunnable
p646
tp647
I1
s(g1
I198
VUnrecoverableKeyException
p648
tp649
I1
s(g1
I115
VmakeRequestWithRetries
p650
tp651
I1
s(g1
I283
VcontentLength
p652
tp653
I1
s(g1
I274
Vcause
p654
tp655
I1
s(g1
I77
VOverride
p656
tp657
I1
s(g1
I190
Vbroadcast
p658
tp659
I1
s(g1
I695
VsetEnableRedirects
p660
tp661
I1
s(g1
I1005
VAsyncHttpResponseHandler
p662
tp663
I2
s(g1
I3005
Vcontext
p664
tp665
I1
s(g1
I531
VHeader
p666
tp667
I1
s(g1
I748
VstartsWith
p668
tp669
I1
s(g1
I4080
VIllegalArgumentException
p670
tp671
I1
s(g1
I658
VhttpClient
p672
tp673
I1
s(g1
I28
Vrequest
p674
tp675
I1
s(g1
I596
VNumber
p676
tp677
I1
s(g1
I591
VInteger
p678
tp679
I1
s(g1
I2619
VcontentType
p680
tp681
I1
s(g1
I553
Vmsg
p682
tp683
I1
s(g1
I85
VgetAllowedContentTypes
p684
tp685
I1
s(g1
I679
VLog
p686
tp687
I1
s(g1
I637
Vkey
p688
tp689
I1
s(g1
I138
Vput
p690
tp691
I1
s(g1
I140
VLIGHTGREEN
p692
tp693
I1
s(g1
I411
Vstart
p694
tp695
I1
s(g1
I950
Vresponse
p696
tp697
I1
s(g1
I1535
VmayInterruptIfRunning
p698
tp699
I1
s(g1
I5266
VwrappedStream
p700
tp701
I1
s(g1
I976
VHttpEntity
p702
tp703
I1
s(g1
I376
Vresponse
p704
tp705
I1
s(g1
I219
VObject
p706
tp707
I1
s(g1
I150
Vget
p708
tp709
I1
s(g1
I289
Vcause
p710
tp711
I1
s(g1
I536
VsslCtx
p712
tp713
I1
s(g1
I766
VcancelRequests
p714
tp715
I1
s(g1
I1054
VString
p716
tp717
I1
s(g1
I39
Vclient
p718
tp719
I1
s(g1
I717
Vcontext
p720
tp721
I1
s(g1
I3138
VgetParamString
p722
tp723
I1
s(g1
I116
VHttpRequest
p724
tp725
I1
s(g1
I3224
VLog
p726
tp727
I1
s(g1
I299
Vheaders
p728
tp729
I1
s(g1
I1204
Vt
p730
tp731
I1
s(g1
I265
VString
p732
tp733
I1
s(g1
I41
S''
p734
tp735
I65
s(g1
I263
VEMPTY
p736
tp737
I1
s(g1
I147
VdebugHeaders
p738
tp739
I1
s(g1
I708
VENCODING
p740
tp741
I1
s(g1
I691
Vstatus
p742
tp743
I1
s(g1
I1489
VAsyncHttpResponseHandler
p744
tp745
I1
s(g1
I231
VgetCharset
p746
tp747
I1
s(g1
I522
VentrySet
p748
tp749
I1
s(g1
I2416
VmayInterruptIfRunning
p750
tp751
I1
s(g1
I978
Ventity
p752
tp753
I1
s(g1
I5265
VwrappedEntity
p754
tp755
I1
s(g1
I256
VResponseHandlerInterface
p756
tp757
I1
s(g1
I295
VInputStream
p758
tp759
I1
s(g1
I304
VrequestHandles
p760
tp761
I1
s(g1
I372
Vlooper
p762
tp763
I1
s(g1
I18
VgetRequestHandles
p764
tp765
I1
s(g1
I1141
VObject
p766
tp767
I1
s(g1
I38
VAsyncHttpResponseHandler
p768
tp769
I1
s(g1
I835
VString
p770
tp771
I2
s(g1
I957
VmaxConnections
p772
tp773
I1
s(g1
I291
VfixNoHttpResponseException
p774
tp775
I1
s(g1
I400
VLog
p776
tp777
I1
s(g1
I709
VcreateHeader
p778
tp779
I1
s(g1
I4218
Vwrapped
p780
tp781
I1
s(g1
I1059
Vrunnable
p782
tp783
I1
s(g1
I802
Vex
p784
tp785
I1
s(g1
I1502
Vrequest
p786
tp787
I1
s(g1
I121
VsetContentHandler
p788
tp789
I1
s(g1
I150
Vtitles
p790
tp791
I1
s(g1
I1653
VisPreemtive
p792
tp793
I1
s(g1
I842
VjsonString
p794
tp795
I1
s(g1
I226
VString
p796
tp797
I1
s(g1
I409
VStatusLine
p798
tp799
I1
s(g1
I2996
VRequestHandle
p800
tp801
I1
s(g1
I906
VgetCharset
p802
tp803
I1
s(g1
I1791
Vcancel
p804
tp805
I1
s(g1
I232
VresponseBody
p806
tp807
I1
s(g1
I390
VString
p808
tp809
I1
s(g1
I288
Vadd
p810
tp811
I1
s(g1
I3042
VrequestMap
p812
tp813
I1
s(g1
I210
Vlen
p814
tp815
I1
s(g1
I1137
VMap
p816
tp817
I1
s(g1
I4316
VuriRequest
p818
tp819
I1
s(g1
I569
VJSONException
p820
tp821
I1
s(g1
I1003
VcontentType
p822
tp823
I1
s(g1
I24
VException
p824
tp825
I1
s(g1
I219
Vget
p826
tp827
I1
s(g1
I1755
Vlist
p828
tp829
I2
s(g1
I552
VsetVersion
p830
tp831
I1
s(g1
I55
VString
p832
tp833
I1
s(g1
I287
VhasNext
p834
tp835
I1
s(g1
I328
VgetText
p836
tp837
I1
s(g1
I591
VLog
p838
tp839
I1
s(g1
I28
VCancelAllRequestsSample
p840
tp841
I1
s(g1
I1047
VhttpClient
p842
tp843
I1
s(g1
I664
VObject
p844
tp845
I1
s(g1
I694
VClassNotFoundException
p846
tp847
I1
s(g1
I766
Vresult
p848
tp849
I1
s(g1
I1065
Ventry
p850
tp851
I1
s(g1
I94
VsetStrictMode
p852
tp853
I1
s(g1
I368
Vtmp
p854
tp855
I1
s(g1
I824
Vresult
p856
tp857
I1
s(g1
I136
VcreateTempFile
p858
tp859
I1
s(g1
I3015
VIterator
p860
tp861
I1
s(g1
I717
VhttpContext
p862
tp863
I1
s(g1
I338
VHttpProtocolParams
p864
tp865
I1
s(g1
I34
VREQUEST_TAG
p866
tp867
I1
s(g1
I3994
Vencode
p868
tp869
I1
s(g1
I586
VjsonString
p870
tp871
I1
s(g1
I750
Ventity
p872
tp873
I1
s(g1
I521
Vresponse
p874
tp875
I1
s(g1
I213
VLOG_TAG
p876
tp877
I1
s(g1
I438
VretryHandler
p878
tp879
I1
s(g1
I171
VgetColoredView
p880
tp881
I1
s(g1
I2154
VgetMainLooper
p882
tp883
I1
s(g1
I425
VOverride
p884
tp885
I1
s(g1
I530
VHttpEntity
p886
tp887
I1
s(g1
I254
VIOException
p888
tp889
I1
s(g1
I1542
Vretries
p890
tp891
I1
s(g1
I808
VhttpParams
p892
tp893
I1
s(g1
I405
VArrayList
p894
tp895
I1
s(g1
I414
Vstatus
p896
tp897
I1
s(g1
I253
Vcause
p898
tp899
I1
s(g1
I664
Vkey
p900
tp901
I1
s(g1
I225
VMessage
p902
tp903
I1
s(g1
I214
VString
p904
tp905
I1
s(g1
I423
VSUCCESS_MESSAGE
p906
tp907
I1
s(g1
I87
VFileOutputStream
p908
tp909
I1
s(g1
I205
VThrowable
p910
tp911
I1
s(g1
I130
VjsonResponse
p912
tp913
I1
s(g1
I141
VresponseHandler
p914
tp915
I1
s(g1
I332
VexecuteSample
p916
tp917
I1
s(g1
I42
Vtimeline
p918
tp919
I1
s(g1
I1493
VHttpEntityEnclosingRequestBase
p920
tp921
I1
s(g1
I5273
VwrappedStream
p922
tp923
I1
s(g1
I846
Vstatus
p924
tp925
I1
s(g1
I741
VCollections
p926
tp927
I1
s(g1
I725
VContext
p928
tp929
I1
s(g1
I681
VString
p930
tp931
I1
s(g1
I323
Vout
p932
tp933
I1
s(g1
I255
VmakeRequest
p934
tp935
I1
s(g1
I778
VbytesRead
p936
tp937
I1
s(g1
I657
Vi
p938
tp939
I1
s(g1
I642
VgetUseSynchronousMode
p940
tp941
I1
s(g1
I283
VClass
p942
tp943
I1
s(g1
I174
VstatusCode
p944
tp945
I1
s(g1
I167
VXMLReader
p946
tp947
I1
s(g1
I3872
Vread
p948
tp949
I1
s(g1
I219
Vrequest
p950
tp951
I1
s(g1
I1740
Vvalue
p952
tp953
I1
s(g1
I908
VjsonString
p954
tp955
I1
s(g1
I120
Vkeys
p956
tp957
I1
s(g1
I145
VsetCredentials
p958
tp959
I1
s(g1
I734
VLOG_TAG
p960
tp961
I1
s(g1
I651
Vappend
p962
tp963
I1
s(g1
I1122
VsetLoggingLevel
p964
tp965
I1
s(g1
I218
Vname
p966
tp967
I1
s(g1
I131
VresponseHandler
p968
tp969
I1
s(g1
I61
VContext
p970
tp971
I1
s(g1
I491
Ve
p972
tp973
I1
s(g1
I3666
Vrequest
p974
tp975
I1
s(g1
I385
VLog
p976
tp977
I1
s(g1
I295
VHttpConnectionParams
p978
tp979
I1
s(g1
I3022
VrequestList
p980
tp981
I1
s(g1
I117
VAsyncHttpRequest
p982
tp983
I1
s(g1
I1524
Vresult
p984
tp985
I1
s(g1
I772
VgetName
p986
tp987
I1
s(g1
I283
VHttpConnectionParams
p988
tp989
I2
s(g1
I193
Vresponse
p990
tp991
I1
s(g1
I83
Vprivate
p992
tp993
I14
s(g1
I315
VIOException
p994
tp995
I1
s(g1
I1184
VcustomRedirectHandler
p996
tp997
I1
s(g1
I163
Vexecute
p998
tp999
I1
s(g1
I568
VresponseBody
p1000
tp1001
I1
s(g1
I4487
VgetContentLength
p1002
tp1003
I1
s(g1
I1204
Vhandler
p1004
tp1005
I1
s(g1
I627
Vrun
p1006
tp1007
I1
s(g1
I2419
VTAG
p1008
tp1009
I1
s(g1
I172
Vencoding
p1010
tp1011
I1
s(g1
I52
VcontentType
p1012
tp1013
I1
s(g1
I709
Ventity
p1014
tp1015
I1
s(g1
I993
VBufferedHttpEntity
p1016
tp1017
I1
s(g1
I100
V_request
p1018
tp1019
I1
s(g1
I1107
VfileWrapper
p1020
tp1021
I1
s(g1
I142
Vtmp
p1022
tp1023
I1
s(g1
I729
Voverwritten
p1024
tp1025
I1
s(g1
I1980
VsetCredentials
p1026
tp1027
I1
s(g1
I43
VHttpDelete
p1028
tp1029
I1
s(g1
I51
g734
tp1030
I1
s(g1
I1011
Vcontext
p1031
tp1032
I1
s(g1
I14
VgetSampleTitle
p1033
tp1034
I1
s(g1
I332
Ventry
p1035
tp1036
I1
s(g1
I423
Vretry
p1037
tp1038
I1
s(g1
I303
VresponseHandler
p1039
tp1040
I1
s(g1
I351
VSSLSocketFactory
p1041
tp1042
I1
s(g1
I1554
Vtimeout
p1043
tp1044
I1
s(g1
I179
VresponseBody
p1045
tp1046
I1
s(g1
I660
VenableRedirects
p1047
tp1048
I1
s(g1
I194
VinputStreamReader
p1049
tp1050
I1
s(g1
I4000
VURL
p1051
tp1052
I1
s(g1
I187
VHttpRequestRetryHandler
p1053
tp1054
I1
s(g1
I87
VAssertUtils
p1055
tp1056
I1
s(g1
I493
VhandleMessage
p1057
tp1058
I1
s(g1
I318
Vhandle
p1059
tp1060
I1
s(g1
I1094
Vresponse
p1061
tp1062
I1
s(g1
I374
VString
p1063
tp1064
I1
s(g1
I652
Vi
p1065
tp1066
I1
s(g1
I1633
Vcredentials
p1067
tp1068
I1
s(g1
I161
VallowedContentTypes
p1069
tp1070
I1
s(g1
I489
VsetOmitNonPersistentCookies
p1071
tp1072
I1
s(g1
I3255
VHttpContext
p1073
tp1074
I1
s(g1
I139
VIOException
p1075
tp1076
I1
s(g1
I244
VLog
p1077
tp1078
I1
s(g1
I318
VresponseHandler
p1079
tp1080
I1
s(g1
I257
VCertificateException
p1081
tp1082
I1
s(g1
I549
VthreadPool
p1083
tp1084
I1
s(g1
I145
VexecutionCount
p1085
tp1086
I1
s(g1
I263
VinternalWrite
p1087
tp1088
I1
s(g1
I1082
VsetLoggingEnabled
p1089
tp1090
I1
s(g1
I262
Vcause
p1091
tp1092
I1
s(g1
I2348
VhttpDelete
p1093
tp1094
I1
s(g1
I645
Vkey
p1095
tp1096
I1
s(g1
I277
Vwrite
p1097
tp1098
I1
s(g1
I840
Vresponse
p1099
tp1100
I1
s(g1
I4206
VsetAccessible
p1101
tp1102
I1
s(g1
I109
Vbody
p1103
tp1104
I1
s(g1
I312
VresponseHandler
p1105
tp1106
I1
s(g1
I218
Vparams
p1107
tp1108
I1
s(g1
I426
Vkey
p1109
tp1110
I1
s(g1
I667
Vvalue
p1111
tp1112
I1
s(g1
I495
Vcls
p1113
tp1114
I1
s(g1
I125
Vsize
p1115
tp1116
I1
s(g1
I187
Ventity
p1117
tp1118
I1
s(g1
I39
Vbyte
p1119
tp1120
I21
s(g1
I43
VDataAsyncHttpResponseHandler
p1121
tp1122
I1
s(g1
I358
VsendMessage
p1123
tp1124
I1
s(g1
I206
Vparse
p1125
tp1126
I1
s(g1
I1014
Vrunnable
p1127
tp1128
I1
s(g1
I624
VstatusCode
p1129
tp1130
I1
s(g1
I3251
VDefaultHttpClient
p1131
tp1132
I1
s(g1
I558
VThreadSafeClientConnManager
p1133
tp1134
I1
s(g1
I754
Vput
p1135
tp1136
I1
s(g1
I682
Vos
p1137
tp1138
I1
s(g1
I838
VjsonString
p1139
tp1140
I1
s(g1
I774
Vos
p1141
tp1142
I1
s(g1
I327
Vhandler
p1143
tp1144
I1
s(g1
I540
VMENU_USE_HTTPS
p1145
tp1146
I1
s(g1
I272
VexecutionCount
p1147
tp1148
I1
s(g1
I2836
VString
p1149
tp1150
I1
s(g1
I1198
VonProgress
p1151
tp1152
I1
s(g1
I539
Ventity
p1153
tp1154
I1
s(g1
I602
VSTART_MESSAGE
p1155
tp1156
I1
s(g1
I293
VRequestHandle
p1157
tp1158
I2
s(g1
I147
VString
p1159
tp1160
I1
s(g1
I305
Vurl
p1161
tp1162
I1
s(g1
I24
VObject
p1163
tp1164
I1
s(g1
I44
VIOException
p1165
tp1166
I1
s(g1
I296
VresponseHandler
p1167
tp1168
I1
s(g1
I306
VgetRequestHandles
p1169
tp1170
I1
s(g1
I388
VOverride
p1171
tp1172
I1
s(g1
I209
Vfile
p1173
tp1174
I1
s(g1
I627
VgetName
p1175
tp1176
I1
s(g1
I528
Vresponse
p1177
tp1178
I2
s(g1
I661
VSUCCESS_MESSAGE
p1179
tp1180
I1
s(g1
I46
VString
p1181
tp1182
I2
s(g1
I727
Vcontext
p1183
tp1184
I1
s(g1
I2703
Vparams
p1185
tp1186
I1
s(g1
I741
Vkey
p1187
tp1188
I1
s(g1
I519
Vvalue
p1189
tp1190
I1
s(g1
I1035
Vscope
p1191
tp1192
I1
s(g1
I412
Vhandler
p1193
tp1194
I1
s(g1
I3847
VinputStream
p1195
tp1196
I1
s(g1
I290
VintValue
p1197
tp1198
I1
s(g1
I561
VString
p1199
tp1200
I2
s(g1
I335
VisDirectory
p1201
tp1202
I1
s(g1
I919
Vresponse
p1203
tp1204
I1
s(g1
I202
Vdelete
p1205
tp1206
I1
s(g1
I185
Vname
p1207
tp1208
I1
s(g1
I473
Vos
p1209
tp1210
I1
s(g1
I386
Vrealm
p1211
tp1212
I1
s(g1
I1041
VRunnable
p1213
tp1214
I1
s(g1
I310
VHttpEntity
p1215
tp1216
I1
s(g1
I173
Vtrim
p1217
tp1218
I1
s(g1
I696
VsendSuccessMessage
p1219
tp1220
I1
s(g1
I95
Vget
p1221
tp1222
I1
s(g1
I769
VforceSynchronous
p1223
tp1224
I1
s(g1
I465
Vkey
p1225
tp1226
I1
s(g1
I25
g734
tp1227
I205
s(g1
I109
VjsonResponse
p1228
tp1229
I1
s(g1
I1068
VgetValue
p1230
tp1231
I1
s(g1
I823
VBufferedHttpEntity
p1232
tp1233
I1
s(g1
I198
VrParams
p1234
tp1235
I1
s(g1
I160
Vresponse
p1236
tp1237
I1
s(g1
I30
VHttpUriRequest
p1238
tp1239
I1
s(g1
I3552
VResponseHandlerInterface
p1240
tp1241
I1
s(g1
I206
VString
p1242
tp1243
I1
s(g1
I961
VhttpClient
p1244
tp1245
I1
s(g1
I2335
VAsyncHttpResponseHandler
p1246
tp1247
I1
s(g1
I397
Vread
p1248
tp1249
I2
s(g1
I308
VexecutionCount
p1250
tp1251
I1
s(g1
I1171
VObject
p1252
tp1253
I1
s(g1
I1510
VHttpEntity
p1254
tp1255
I1
s(g1
I685
VresponseBody
p1256
tp1257
I1
s(g1
I1051
VmissingLooper
p1258
tp1259
I1
s(g1
I438
Vcontext
p1260
tp1261
I1
s(g1
I178
Vstatus
p1262
tp1263
I1
s(g1
I1026
Vcontext
p1264
tp1265
I1
s(g1
I846
Vregister
p1266
tp1267
I1
s(g1
I71
VmFile
p1268
tp1269
I1
s(g1
I49
VoriginalLength
p1270
tp1271
I1
s(g1
I59
VauthState
p1272
tp1273
I1
s(g1
I1111
VHeader
p1274
tp1275
I1
s(g1
I814
VString
p1276
tp1277
I2
s(g1
I347
VString
p1278
tp1279
I1
s(g1
I293
Vcause
p1280
tp1281
I1
s(g1
I321
Vvalue
p1282
tp1283
I1
s(g1
I1049
VmyLooper
p1284
tp1285
I1
s(g1
I178
VACTION_RETRY
p1286
tp1287
I1
s(g1
I1024
Vusername
p1288
tp1289
I1
s(g1
I282
Vs
p1290
tp1291
I1
s(g1
I744
VjsonString
p1292
tp1293
I1
s(g1
I181
Vencoding
p1294
tp1295
I1
s(g1
I47
VRequestParams
p1296
tp1297
I1
s(g1
I310
VretryHandler
p1298
tp1299
I1
s(g1
I249
VonClickListener
p1300
tp1301
I1
s(g1
I161
VresponseBody
p1302
tp1303
I1
s(g1
I274
VLog
p1304
tp1305
I1
s(g1
I100
VgetTargetFile
p1306
tp1307
I1
s(g1
I784
Vhostname
p1308
tp1309
I1
s(g1
I159
VMenuItem
p1310
tp1311
I1
s(g1
I129
VHeader
p1312
tp1313
I1
s(g1
I96
VmayInterruptIfRunning
p1314
tp1315
I1
s(g1
I348
VsetUserAgent
p1316
tp1317
I1
s(g1
I146
VcreateTempFile
p1318
tp1319
I1
s(g1
I645
VThread
p1320
tp1321
I1
s(g1
I299
VString
p1322
tp1323
I1
s(g1
I249
VString
p1324
tp1325
I1
s(g1
I839
VIOException
p1326
tp1327
I1
s(g1
I909
VjsonString
p1328
tp1329
I1
s(g1
I726
Ventity
p1330
tp1331
I1
s(g1
I788
VUTF8_BOM
p1332
tp1333
I1
s(g1
I593
VThrowable
p1334
tp1335
I1
s(g1
I1026
Vstatus
p1336
tp1337
I1
s(g1
I521
VsslCtx
p1338
tp1339
I1
s(g1
I200
Vex
p1340
tp1341
I1
s(g1
I126
Vi
p1342
tp1343
I1
s(g1
I2994
VLinkedList
p1344
tp1345
I1
s(g1
I126
VHttpUriRequest
p1346
tp1347
I1
s(g1
I260
VUnknownHostException
p1348
tp1349
I1
s(g1
I317
Ve
p1350
tp1351
I1
s(g1
I357
VUtils
p1352
tp1353
I1
s(g1
I376
VhttpPort
p1354
tp1355
I1
s(g1
I1005
VmVideoWidth
p1356
tp1357
I1
s(g1
I359
Vmessage
p1358
tp1359
I1
s(g1
I115
Vcontext
p1360
tp1361
I1
s(g1
I35
Vuri
p1362
tp1363
I1
s(g1
I821
Vvalue
p1364
tp1365
I1
s(g1
I269
VopenRawResource
p1366
tp1367
I1
s(g1
I53
VAsyncHttpClient
p1368
tp1369
I1
s(g1
I1791
VmayInterruptIfRunning
p1370
tp1371
I1
s(g1
I1537
VList
p1372
tp1373
I1
s(g1
I844
VremoveHeader
p1374
tp1375
I1
s(g1
I194
Vintent
p1376
tp1377
I1
s(g1
I654
VBasicHttpParams
p1378
tp1379
I1
s(g1
I700
Vstatus
p1380
tp1381
I1
s(g1
I164
Vsamples
p1382
tp1383
I1
s(g1
I276
VgetHttpRequestRetryHandler
p1384
tp1385
I1
s(g1
I358
Vfilename
p1386
tp1387
I1
s(g1
I160
Ve
p1388
tp1389
I1
s(g1
I3573
VsendRequest
p1390
tp1391
I1
s(g1
I812
Vheader
p1392
tp1393
I1
s(g1
I222
VretryNo
p1394
tp1395
I1
s(g1
I2880
VuriRequest
p1396
tp1397
I1
s(g1
I3033
VRequestHandle
p1398
tp1399
I1
s(g1
I160
VaddView
p1400
tp1401
I1
s(g1
I150
VresponseHandler
p1402
tp1403
I1
s(g1
I394
VString
p1404
tp1405
I1
s(g1
I337
VgetTargetFileByParsingURL
p1406
tp1407
I1
s(g1
I842
Ve
p1408
tp1409
I1
s(g1
I1628
Vscope
p1410
tp1411
I1
s(g1
I291
VList
p1412
tp1413
I1
s(g1
I449
VhandleSuccessMessage
p1414
tp1415
I1
s(g1
I972
VurlParams
p1416
tp1417
I1
s(g1
I968
Vkey
p1418
tp1419
I1
s(g1
I212
VisInterrupted
p1420
tp1421
I1
s(g1
I312
VColor
p1422
tp1423
I1
s(g1
I39
VsavedInstanceState
p1424
tp1425
I1
s(g1
I598
Vvalue
p1426
tp1427
I1
s(g1
I1481
VHttpEntity
p1428
tp1429
I1
s(g1
I3675
VRequestHandle
p1430
tp1431
I1
s(g1
I157
VLOG_TAG
p1432
tp1433
I1
s(g1
I244
VLOG_TAG
p1434
tp1435
I1
s(g1
I648
Vi
p1436
tp1437
I1
s(g1
I871
Vhandler
p1438
tp1439
I1
s(g1
I72
Vv
p1440
tp1441
I1
s(g1
I2329
Vheaders
p1442
tp1443
I1
s(g1
I151
VSTART_MESSAGE
p1444
tp1445
I1
s(g1
I341
VsendMessage
p1446
tp1447
I1
s(g1
I412
VresponseCharset
p1448
tp1449
I1
s(g1
I159
Vcontents_scroll
p1450
tp1451
I1
s(g1
I234
VsetTag
p1452
tp1453
I1
s(g1
I149
VcontentType
p1454
tp1455
I1
s(g1
I49
Vcounter
p1456
tp1457
I1
s(g1
I324
Ve
p1458
tp1459
I1
s(g1
I3742
VHttpEntityEnclosingRequestBase
p1460
tp1461
I1
s(g1
I233
VgetBytes
p1462
tp1463
I1
s(g1
I3051
VRangeFileAsyncHttpResponseHandler
p1464
tp1465
I1
s(g1
I1410
Vinstream
p1466
tp1467
I1
s(g1
I5286
Venc
p1468
tp1469
I1
s(g1
I50
VRequestParams
p1470
tp1471
I1
s(g1
I1966
VhttpClient
p1472
tp1473
I1
s(g1
I1522
VHttpEntityEnclosingRequestBase
p1474
tp1475
I1
s(g1
I389
VString
p1476
tp1477
I1
s(g1
I253
VmakeRequest
p1478
tp1479
I1
s(g1
I128
Vparams
p1480
tp1481
I1
s(g1
I159
VgetColoredView
p1482
tp1483
I1
s(g1
I395
VdebugHeaders
p1484
tp1485
I1
s(g1
I335
VentrySet
p1486
tp1487
I1
s(g1
I502
Vcookie
p1488
tp1489
I1
s(g1
I3673
VList
p1490
tp1491
I1
s(g1
I505
Vstatus
p1492
tp1493
I1
s(g1
I1424
VAsyncHttpClient
p1494
tp1495
I1
s(g1
I230
VSUCCESS_JSON_MESSAGE
p1496
tp1497
I1
s(g1
I241
Vrequest
p1498
tp1499
I1
s(g1
I263
VMap
p1500
tp1501
I1
s(g1
I39
Vint
p1502
tp1503
I50
s(g1
I4309
VgetEntity
p1504
tp1505
I1
s(g1
I446
VsetUseSynchronousMode
p1506
tp1507
I1
s(g1
I301
Vtype
p1508
tp1509
I1
s(g1
I2424
VLOG_TAG
p1510
tp1511
I1
s(g1
I69
Vappend
p1512
tp1513
I3
s(g1
I2864
Vcontext
p1514
tp1515
I1
s(g1
I876
Vmsg
p1516
tp1517
I1
s(g1
I494
Vcause
p1518
tp1519
I1
s(g1
I1007
VprogressHandler
p1520
tp1521
I1
s(g1
I1782
VrequestList
p1522
tp1523
I1
s(g1
I125
Ve
p1524
tp1525
I1
s(g1
I467
VonPrepareOptionsMenu
p1526
tp1527
I1
s(g1
I220
Vheaders
p1528
tp1529
I1
s(g1
I245
Vout
p1530
tp1531
I1
s(g1
I59
VisCancelled
p1532
tp1533
I1
s(g1
I546
VDEFAULT_SOCKET_BUFFER_SIZE
p1534
tp1535
I1
s(g1
I543
Ventity
p1536
tp1537
I1
s(g1
I1119
Vlog
p1538
tp1539
I1
s(g1
I182
Vintent
p1540
tp1541
I1
s(g1
I81
VFile
p1542
tp1543
I1
s(g1
I89
VLog
p1544
tp1545
I1
s(g1
I1767
VString
p1546
tp1547
I1
s(g1
I992
Ve
p1548
tp1549
I1
s(g1
I185
Vfile
p1550
tp1551
I1
s(g1
I285
VaddCookie
p1552
tp1553
I1
s(g1
I2175
Vrunnable
p1554
tp1555
I1
s(g1
I461
VuseHttps
p1556
tp1557
I1
s(g1
I951
VmaxConnections
p1558
tp1559
I1
s(g1
I690
Vvalue
p1560
tp1561
I1
s(g1
I3872
VinputStream
p1562
tp1563
I1
s(g1
I504
VString
p1564
tp1565
I1
s(g1
I741
VrequestList
p1566
tp1567
I1
s(g1
I270
VretryRequest
p1568
tp1569
I1
s(g1
I126
VCharArrayBuffer
p1570
tp1571
I1
s(g1
I527
Vresponse
p1572
tp1573
I1
s(g1
I1065
VgetKey
p1574
tp1575
I1
s(g1
I17
VJsonHttpResponseHandler
p1576
tp1577
I1
s(g1
I309
Vtype
p1578
tp1579
I1
s(g1
I266
Vchain
p1580
tp1581
I1
s(g1
I1501
Vvalue
p1582
tp1583
I1
s(g1
I1019
VpreProcessor
p1584
tp1585
I1
s(g1
I182
VresponseBody
p1586
tp1587
I1
s(g1
I2342
VHttpDelete
p1588
tp1589
I1
s(g1
I311
VcaInput
p1590
tp1591
I1
s(g1
I104
VgetTargetFile
p1592
tp1593
I1
s(g1
I763
VrequestRef
p1594
tp1595
I1
s(g1
I435
VstatusCode
p1596
tp1597
I1
s(g1
I46
VAsyncHttpClient
p1598
tp1599
I1
s(g1
I352
VString
p1600
tp1601
I1
s(g1
I1018
VUsernamePasswordCredentials
p1602
tp1603
I1
s(g1
I713
VheadersEditText
p1604
tp1605
I1
s(g1
I231
VresponseHandler
p1606
tp1607
I1
s(g1
I290
VCertificate
p1608
tp1609
I1
s(g1
I231
VURL
p1610
tp1611
I1
s(g1
I3259
VHttpUriRequest
p1612
tp1613
I1
s(g1
I514
Vsocket
p1614
tp1615
I1
s(g1
I583
VCollections
p1616
tp1617
I1
s(g1
I646
Ventry
p1618
tp1619
I1
s(g1
I4206
Vf
p1620
tp1621
I1
s(g1
I202
VresponseHandler
p1622
tp1623
I1
s(g1
I1000
Vheight
p1624
tp1625
I1
s(g1
I212
Ve
p1626
tp1627
I1
s(g1
I225
VisExpired
p1628
tp1629
I1
s(g1
I74
VLOG_TAG
p1630
tp1631
I1
s(g1
I824
VThrowable
p1632
tp1633
I1
s(g1
I711
Vstatus
p1634
tp1635
I1
s(g1
I1210
VLog
p1636
tp1637
I1
s(g1
I203
Ve
p1638
tp1639
I1
s(g1
I585
VgetBytes
p1640
tp1641
I1
s(g1
I331
Vhandler
p1642
tp1643
I1
s(g1
I7
VThreadingTimeoutSample
p1644
tp1645
I1
s(g1
I33
Vresponse
p1646
tp1647
I1
s(g1
I250
VexecuteSample
p1648
tp1649
I1
s(g1
I3698
VrequestList
p1650
tp1651
I1
s(g1
I324
VsendRetryMessage
p1652
tp1653
I1
s(g1
I1131
VonFailure
p1654
tp1655
I1
s(g1
I806
Vad
p1656
tp1657
I1
s(g1
I156
Vinstream
p1658
tp1659
I1
s(g1
I557
VurlEditText
p1660
tp1661
I1
s(g1
I173
Vclient
p1662
tp1663
I1
s(g1
I404
Vheader
p1664
tp1665
I1
s(g1
I199
VSAXException
p1666
tp1667
I1
s(g1
I696
VgetHeadersText
p1668
tp1669
I1
s(g1
I206
Ve
p1670
tp1671
I1
s(g1
I495
VRetryHandler
p1672
tp1673
I1
s(g1
I518
VHttpEntity
p1674
tp1675
I1
s(g1
I517
Vkey
p1676
tp1677
I1
s(g1
I634
Vtrim
p1678
tp1679
I1
s(g1
I706
VgetParamsList
p1680
tp1681
I1
s(g1
I634
VsslSocketFactory
p1682
tp1683
I1
s(g1
I278
VsetVisibility
p1684
tp1685
I1
s(g1
I424
VgetHeaders
p1686
tp1687
I1
s(g1
I816
VresponseBody
p1688
tp1689
I1
s(g1
I2621
VResponseHandlerInterface
p1690
tp1691
I1
s(g1
I1084
VurlParamsWithObjects
p1692
tp1693
I1
s(g1
I3242
VOutputStream
p1694
tp1695
I1
s(g1
I510
VIOException
p1696
tp1697
I1
s(g1
I122
VhttpContext
p1698
tp1699
I1
s(g1
I246
VInteger
p1700
tp1701
I1
s(g1
I169
VgetColoredView
p1702
tp1703
I1
s(g1
I723
Vresponse
p1704
tp1705
I1
s(g1
I269
Ve
p1706
tp1707
I1
s(g1
I295
Vresult
p1708
tp1709
I1
s(g1
I487
VomitNonPersistentCookies
p1710
tp1711
I1
s(g1
I76
V_request
p1712
tp1713
I1
s(g1
I377
VWeakReference
p1714
tp1715
I1
s(g1
I478
Vwrite
p1716
tp1717
I1
s(g1
I135
VSocket
p1718
tp1719
I1
s(g1
I245
VJSONArray
p1720
tp1721
I1
s(g1
I141
VERROR_MESSAGE
p1722
tp1723
I1
s(g1
I1155
Vrequest
p1724
tp1725
I1
s(g1
I19
VOverride
p1726
tp1727
I1
s(g1
I754
VjsonString
p1728
tp1729
I1
s(g1
I40
VTargetApi
p1730
tp1731
I1
s(g1
I192
VretryHandler
p1732
tp1733
I1
s(g1
I4479
VwrappedEntity
p1734
tp1735
I1
s(g1
I299
VgetRequestHandles
p1736
tp1737
I1
s(g1
I151
VSAXParserFactory
p1738
tp1739
I1
s(g1
I488
Vcls
p1740
tp1741
I1
s(g1
I728
Vhandle
p1742
tp1743
I1
s(g1
I1049
VLooper
p1744
tp1745
I1
s(g1
I539
VcontentTypeHeaders
p1746
tp1747
I1
s(g1
I472
VOverride
p1748
tp1749
I1
s(g1
I124
VresponseHandler
p1750
tp1751
I1
s(g1
I199
VgetStringFromFile
p1752
tp1753
I1
s(g1
I34
VString
p1754
tp1755
I1
s(g1
I230
VTAG
p1756
tp1757
I1
s(g1
I217
VgetName
p1758
tp1759
I2
s(g1
I953
VmaxConnections
p1760
tp1761
I1
s(g1
I4102
VaddEntityToRequestBase
p1762
tp1763
I1
s(g1
I494
Vcookie
p1764
tp1765
I1
s(g1
I966
VString
p1766
tp1767
I1
s(g1
I1092
VString
p1768
tp1769
I1
s(g1
I165
VgetAbsolutePath
p1770
tp1771
I1
s(g1
I255
VcancelButton
p1772
tp1773
I1
s(g1
I631
VJSONObject
p1774
tp1775
I1
s(g1
I782
Vtrim
p1776
tp1777
I1
s(g1
I664
VString
p1778
tp1779
I1
s(g1
I87
VRunnable
p1780
tp1781
I1
s(g1
I133
VOverride
p1782
tp1783
I1
s(g1
I211
VObject
p1784
tp1785
I1
s(g1
I33
Vis
p1786
tp1787
I1
s(g1
I206
VrssReader
p1788
tp1789
I1
s(g1
I3005
Vput
p1790
tp1791
I1
s(g1
I142
VdebugStatusCode
p1792
tp1793
I1
s(g1
I386
VJSONException
p1794
tp1795
I1
s(g1
I312
VsendFailureMessage
p1796
tp1797
I1
s(g1
I249
Vretry
p1798
tp1799
I1
s(g1
I691
Vescape
p1800
tp1801
I2
s(g1
I436
VFileNotFoundException
p1802
tp1803
I1
s(g1
I279
Vflags
p1804
tp1805
I1
s(g1
I318
Vkey
p1806
tp1807
I1
s(g1
I29
VURI
p1808
tp1809
I1
s(g1
I461
VAsyncHttpResponseHandler
p1810
tp1811
I1
s(g1
I36
Vuri
p1812
tp1813
I2
s(g1
I96
Vasserts
p1814
tp1815
I1
s(g1
I788
VjsonString
p1816
tp1817
I1
s(g1
I1530
VaddEntityToRequestBase
p1818
tp1819
I1
s(g1
I2432
VRequestHandle
p1820
tp1821
I1
s(g1
I516
Vline
p1822
tp1823
I1
s(g1
I1515
Vvalue
p1824
tp1825
I1
s(g1
I522
VblockRetryExceptionClass
p1826
tp1827
I1
s(g1
I235
VbodyLayout
p1828
tp1829
I1
s(g1
I268
VConnPerRouteBean
p1830
tp1831
I2
s(g1
I536
VgetSocketFactory
p1832
tp1833
I1
s(g1
I821
Vput
p1834
tp1835
I1
s(g1
I578
VmayInterruptIfRunning
p1836
tp1837
I1
s(g1
I629
Vresponse
p1838
tp1839
I1
s(g1
I844
VUnsupportedEncodingException
p1840
tp1841
I1
s(g1
I306
VsetUsePoolThread
p1842
tp1843
I1
s(g1
I647
Vparser
p1844
tp1845
I1
s(g1
I289
VhttpParams
p1846
tp1847
I1
s(g1
I3126
Vurl
p1848
tp1849
I1
s(g1
I385
VLOG_TAG
p1850
tp1851
I1
s(g1
I685
Vwrite
p1852
tp1853
I1
s(g1
I131
VsetLayoutParams
p1854
tp1855
I1
s(g1
I560
VsendFailureMessage
p1856
tp1857
I1
s(g1
I275
Vthrowable
p1858
tp1859
I1
s(g1
I270
VresponseHandler
p1860
tp1861
I1
s(g1
I52
VuriRequest
p1862
tp1863
I1
s(g1
I152
VcurrentThread
p1864
tp1865
I1
s(g1
I450
VsendCancelNotification
p1866
tp1867
I1
s(g1
I673
Vresponse
p1868
tp1869
I1
s(g1
I125
Vstates
p1870
tp1871
I1
s(g1
I1006
VauthState
p1872
tp1873
I1
s(g1
I210
VString
p1874
tp1875
I1
s(g1
I833
VtoString
p1876
tp1877
I1
s(g1
I172
Vcurrent
p1878
tp1879
I1
s(g1
I71
VcredsProvider
p1880
tp1881
I1
s(g1
I36
VsavedInstanceState
p1882
tp1883
I1
s(g1
I571
VfileName
p1884
tp1885
I1
s(g1
I213
Vurl
p1886
tp1887
I1
s(g1
I104
VonProgress
p1888
tp1889
I1
s(g1
I303
VLog
p1890
tp1891
I1
s(g1
I198
VLOG_TAG
p1892
tp1893
I1
s(g1
I2333
Vparams
p1894
tp1895
I1
s(g1
I3244
Vos
p1896
tp1897
I1
s(g1
I3550
VcontentType
p1898
tp1899
I1
s(g1
I233
VstatusCode
p1900
tp1901
I2
s(g1
I262
Verror
p1902
tp1903
I1
s(g1
I290
Vlist
p1904
tp1905
I1
s(g1
I994
Vmp
p1906
tp1907
I1
s(g1
I154
Vclient
p1908
tp1909
I1
s(g1
I4286
VresponseHandler
p1910
tp1911
I1
s(g1
I159
VSAXParser
p1912
tp1913
I1
s(g1
I36
VonCreate
p1914
tp1915
I1
s(g1
I2858
VResponseHandlerInterface
p1916
tp1917
I1
s(g1
I140
VLog
p1918
tp1919
I1
s(g1
I60
VURI
p1920
tp1921
I2
s(g1
I702
VLog
p1922
tp1923
I1
s(g1
I415
VObject
p1924
tp1925
I1
s(g1
I838
VstartsWith
p1926
tp1927
I1
s(g1
I1169
VobtainMessage
p1928
tp1929
I1
s(g1
I224
VResponseHandlerInterface
p1930
tp1931
I1
s(g1
I891
Vr
p1932
tp1933
I1
s(g1
I114
VgetTemporaryFile
p1934
tp1935
I1
s(g1
I1493
VresponseTimeout
p1936
tp1937
I1
s(g1
I502
VHttpResponseException
p1938
tp1939
I1
s(g1
I397
Vis
p1940
tp1941
I2
s(g1
I637
VhttpClient
p1942
tp1943
I1
s(g1
I35
VsetURI
p1944
tp1945
I1
s(g1
I223
Vthrowable
p1946
tp1947
I1
s(g1
I643
VonProgress
p1948
tp1949
I1
s(g1
I215
VAsyncHttpRequest
p1950
tp1951
I1
s(g1
I3546
Ventity
p1952
tp1953
I1
s(g1
I384
VisLast
p1954
tp1955
I1
s(g1
I1637
VsetAuthenticationPreemptive
p1956
tp1957
I1
s(g1
I126
Vcontext
p1958
tp1959
I1
s(g1
I6
g734
tp1960
I2
s(g1
I1767
Vkey
p1961
tp1962
I1
s(g1
I281
VuseDelimiter
p1963
tp1964
I1
s(g1
I193
Vheaders
p1965
tp1966
I1
s(g1
I115
VmAllowedContentTypes
p1967
tp1968
I1
s(g1
I503
VequalSignPos
p1969
tp1970
I1
s(g1
I585
VresponseBody
p1971
tp1972
I1
s(g1
I170
VdebugThrowable
p1973
tp1974
I1
s(g1
I559
Vsocket
p1975
tp1976
I1
s(g1
I821
Vheader
p1977
tp1978
I1
s(g1
I720
VgetStatusCode
p1979
tp1980
I1
s(g1
I144
Vhost
p1981
tp1982
I1
s(g1
I833
VresponseCharset
p1983
tp1984
I1
s(g1
I845
VsslSocketFactory
p1985
tp1986
I1
s(g1
I995
VgetCredentials
p1987
tp1988
I1
s(g1
I60
Vinit
p1989
tp1990
I1
s(g1
I661
VString
p1991
tp1992
I1
s(g1
I111
VstatusCode
p1993
tp1994
I1
s(g1
I1200
Vr
p1995
tp1996
I1
s(g1
I16
VOverride
p1997
tp1998
I1
s(g1
I752
VhandleRetryMessage
p1999
tp2000
I1
s(g1
I95
VgetBodyTextAsJSON
p2001
tp2002
I1
s(g1
I596
Vresponse
p2003
tp2004
I1
s(g1
I1014
VcontentType
p2005
tp2006
I1
s(g1
I171
VstatusCode
p2007
tp2008
I1
s(g1
I253
VLog
p2009
tp2010
I1
s(g1
I1160
Vmap
p2011
tp2012
I1
s(g1
I272
VHttpRequestRetryHandler
p2013
tp2014
I1
s(g1
I354
VTAG
p2015
tp2016
I1
s(g1
I201
VsetChecked
p2017
tp2018
I1
s(g1
I816
VstatusCode
p2019
tp2020
I1
s(g1
I59
Vhandle
p2021
tp2022
I1
s(g1
I1069
VpostRunnable
p2023
tp2024
I1
s(g1
I1168
VPROGRESS_MESSAGE
p2025
tp2026
I1
s(g1
I3736
VcontentType
p2027
tp2028
I1
s(g1
I310
VonPreProcessResponse
p2029
tp2030
I1
s(g1
I151
VLooper
p2031
tp2032
I1
s(g1
I249
VretryHandler
p2033
tp2034
I1
s(g1
I1148
VList
p2035
tp2036
I1
s(g1
I426
Vstart
p2037
tp2038
I1
s(g1
I1798
Vremove
p2039
tp2040
I1
s(g1
I563
VjsonResponse
p2041
tp2042
I1
s(g1
I1076
VString
p2043
tp2044
I1
s(g1
I833
Ventity
p2045
tp2046
I1
s(g1
I128
VThread
p2047
tp2048
I1
s(g1
I3269
VresponseHandler
p2049
tp2050
I1
s(g1
I855
VsendFailureMessage
p2051
tp2052
I1
s(g1
I283
VaddCookie
p2053
tp2054
I1
s(g1
I220
Vfile
p2055
tp2056
I2
s(g1
I328
VThrowable
p2057
tp2058
I1
s(g1
I1519
Vresult
p2059
tp2060
I1
s(g1
I121
VrssReader
p2061
tp2062
I1
s(g1
I651
Vresult
p2063
tp2064
I1
s(g1
I93
Vfile
p2065
tp2066
I1
s(g1
I168
Vappend
p2067
tp2068
I1
s(g1
I1194
Vrunnable
p2069
tp2070
I1
s(g1
I817
VsetProxy
p2071
tp2072
I1
s(g1
I197
VDEFAULT_CHARSET
p2073
tp2074
I1
s(g1
I201
Ve
p2075
tp2076
I1
s(g1
I139
VResponseHandlerInterface
p2077
tp2078
I1
s(g1
I277
Vl
p2079
tp2080
I1
s(g1
I1744
VList
p2081
tp2082
I1
s(g1
I636
VuserAgent
p2083
tp2084
I1
s(g1
I1733
Vvalue
p2085
tp2086
I1
s(g1
I486
Vos
p2087
tp2088
I1
s(g1
I54
g734
tp2089
I32
s(g1
I563
Vhost
p2090
tp2091
I1
s(g1
I1759
Vlist
p2092
tp2093
I1
s(g1
I1545
VrequestMap
p2094
tp2095
I1
s(g1
I225
Ve
p2096
tp2097
I1
s(g1
I1135
Vmsg
p2098
tp2099
I1
s(g1
I320
VsendResponseMessage
p2100
tp2101
I1
s(g1
I266
VObjectMapper
p2102
tp2103
I1
s(g1
I281
VauthType
p2104
tp2105
I1
s(g1
I907
Ventity
p2106
tp2107
I1
s(g1
I215
VFileInputStream
p2108
tp2109
I1
s(g1
I426
Ve
p2110
tp2111
I1
s(g1
I608
VTAG
p2112
tp2113
I1
s(g1
I663
Vupload
p2114
tp2115
I1
s(g1
I4073
VString
p2116
tp2117
I1
s(g1
I163
Vcontext
p2118
tp2119
I1
s(g1
I417
VsendCancelNotification
p2120
tp2121
I1
s(g1
I500
Vresponse
p2122
tp2123
I1
s(g1
I714
VresponseBody
p2124
tp2125
I1
s(g1
I164
VACTION_RETRY
p2126
tp2127
I1
s(g1
I183
VFile
p2128
tp2129
I1
s(g1
I2151
VmyLooper
p2130
tp2131
I1
s(g1
I773
VgetResponseString
p2132
tp2133
I1
s(g1
I543
VuseHttps
p2134
tp2135
I1
s(g1
I49
Vstart
p2136
tp2137
I1
s(g1
I1534
VsetResponseTimeout
p2138
tp2139
I1
s(g1
I290
Vs
p2140
tp2141
I1
s(g1
I726
Vget
p2142
tp2143
I1
s(g1
I267
VString
p2144
tp2145
I1
s(g1
I99
VString
p2146
tp2147
I1
s(g1
I238
VresponseHandler
p2148
tp2149
I1
s(g1
I627
VAsyncHttpClient
p2150
tp2151
I1
s(g1
I503
Vheaders
p2152
tp2153
I1
s(g1
I302
VURL
p2154
tp2155
I1
s(g1
I486
Vmenu
p2156
tp2157
I1
s(g1
I692
Vos
p2158
tp2159
I1
s(g1
I279
Ve
p2160
tp2161
I1
s(g1
I4290
VIllegalArgumentException
p2162
tp2163
I1
s(g1
I645
VString
p2164
tp2165
I1
s(g1
I820
Vtemp
p2166
tp2167
I1
s(g1
I107
Vparams
p2168
tp2169
I1
s(g1
I400
VgetTag
p2170
tp2171
I1
s(g1
I148
VuriRequest
p2172
tp2173
I1
s(g1
I540
VgetBytes
p2174
tp2175
I1
s(g1
I355
Vfilename
p2176
tp2177
I1
s(g1
I1190
Vresponse
p2178
tp2179
I1
s(g1
I377
VHashMap
p2180
tp2181
I1
s(g1
I617
VObject
p2182
tp2183
I1
s(g1
I1000
Vcreds
p2184
tp2185
I1
s(g1
I175
VdebugFile
p2186
tp2187
I1
s(g1
I73
Vsource
p2188
tp2189
I1
s(g1
I234
VThread
p2190
tp2191
I1
s(g1
I308
VLog
p2192
tp2193
I1
s(g1
I658
Vheader
p2194
tp2195
I1
s(g1
I184
VIntent
p2196
tp2197
I1
s(g1
I873
VsetMaxRetries
p2198
tp2199
I1
s(g1
I322
VrequestHandles
p2200
tp2201
I1
s(g1
I512
Vcancelled
p2202
tp2203
I1
s(g1
I452
VLog
p2204
tp2205
I1
s(g1
I411
VpostRunnable
p2206
tp2207
I1
s(g1
I4015
V_url
p2208
tp2209
I1
s(g1
I1082
VloggingEnabled
p2210
tp2211
I1
s(g1
I250
VgetTag
p2212
tp2213
I1
s(g1
I535
Ventity
p2214
tp2215
I1
s(g1
I1542
VrequestList
p2216
tp2217
I1
s(g1
I87
VsetStrictMode
p2218
tp2219
I1
s(g1
I999
VuriRequest
p2220
tp2221
I1
s(g1
I248
Vclient
p2222
tp2223
I1
s(g1
I375
VTAG
p2224
tp2225
I1
s(g1
I158
VBoolean
p2226
tp2227
I1
s(g1
I3878
VinputStream
p2228
tp2229
I1
s(g1
I569
VString
p2230
tp2231
I1
s(g1
I187
VcontentEncoding
p2232
tp2233
I1
s(g1
I805
VRunnable
p2234
tp2235
I1
s(g1
I154
VUnknownHostException
p2236
tp2237
I1
s(g1
I506
VCookie
p2238
tp2239
I1
s(g1
I163
VnewSAXParser
p2240
tp2241
I1
s(g1
I62
VLog
p2242
tp2243
I1
s(g1
I1501
Ventity
p2244
tp2245
I1
s(g1
I1525
VhttpParams
p2246
tp2247
I1
s(g1
I566
VString
p2248
tp2249
I1
s(g1
I426
VgetMessage
p2250
tp2251
I1
s(g1
I393
VdebugResponse
p2252
tp2253
I1
s(g1
I312
Ve
p2254
tp2255
I1
s(g1
I134
VAsyncHttpResponseHandler
p2256
tp2257
I1
s(g1
I1513
Ventry
p2258
tp2259
I1
s(g1
I116
VjsonResponse
p2260
tp2261
I1
s(g1
I538
Vresponse
p2262
tp2263
I1
s(g1
I702
VString
p2264
tp2265
I1
s(g1
I2325
VHeader
p2266
tp2267
I1
s(g1
I651
Vrequest
p2268
tp2269
I1
s(g1
I65
VString
p2270
tp2271
I1
s(g1
I1548
VhttpClient
p2272
tp2273
I1
s(g1
I366
VUtils
p2274
tp2275
I1
s(g1
I221
VURL
p2276
tp2277
I1
s(g1
I830
Vsubstring
p2278
tp2279
I1
s(g1
I497
VString
p2280
tp2281
I1
s(g1
I1033
VonVideoSizeChanged
p2282
tp2283
I1
s(g1
I195
VrssReader
p2284
tp2285
I1
s(g1
I652
Vkey
p2286
tp2287
I1
s(g1
I259
VException
p2288
tp2289
I2
s(g1
I536
VThreadPoolExecutor
p2290
tp2291
I1
s(g1
I282
VfoundAllowedContentType
p2292
tp2293
I1
s(g1
I867
VresponseBody
p2294
tp2295
I1
s(g1
I251
VOverride
p2296
tp2297
I1
s(g1
I444
Vadd
p2298
tp2299
I1
s(g1
I212
VURL
p2300
tp2301
I1
s(g1
I131
VlParams
p2302
tp2303
I1
s(g1
I733
VaddRequestHandle
p2304
tp2305
I1
s(g1
I147
VsendFinishMessage
p2306
tp2307
I1
s(g1
I204
VrParams
p2308
tp2309
I1
s(g1
I656
VOverride
p2310
tp2311
I1
s(g1
I149
Vmenu
p2312
tp2313
I1
s(g1
I555
VString
p2314
tp2315
I1
s(g1
I256
VonFailure
p2316
tp2317
I1
s(g1
I668
Vi
p2318
tp2319
I1
s(g1
I774
VwriteMetaData
p2320
tp2321
I1
s(g1
I1500
Vlength
p2322
tp2323
I1
s(g1
I1945
VAuthScope
p2324
tp2325
I1
s(g1
I145
Vcontents_scroll
p2326
tp2327
I1
s(g1
I265
VresponseHandler
p2328
tp2329
I1
s(g1
I254
VgetMessage
p2330
tp2331
I1
s(g1
I296
VClass
p2332
tp2333
I1
s(g1
I689
VLog
p2334
tp2335
I1
s(g1
I94
VcreateTempFile
p2336
tp2337
I1
s(g1
I230
Vkey
p2338
tp2339
I1
s(g1
I1132
Vparams
p2340
tp2341
I1
s(g1
I277
VretryHandler
p2342
tp2343
I1
s(g1
I462
Vretry
p2344
tp2345
I1
s(g1
I278
Vstream
p2346
tp2347
I1
s(g1
I131
VsendFailureMessage
p2348
tp2349
I1
s(g1
I308
VClientProtocolException
p2350
tp2351
I1
s(g1
I624
VonFailure
p2352
tp2353
I1
s(g1
I774
Vex
p2354
tp2355
I1
s(g1
I270
Vcontext
p2356
tp2357
I1
s(g1
I244
VheadersLayout
p2358
tp2359
I1
s(g1
I1057
Ventry
p2360
tp2361
I1
s(g1
I686
VHeader
p2362
tp2363
I1
s(g1
I544
VuseHttps
p2364
tp2365
I1
s(g1
I4001
Ve
p2366
tp2367
I1
s(g1
I293
VObject
p2368
tp2369
I1
s(g1
I744
Vresponse
p2370
tp2371
I1
s(g1
I274
VIOException
p2372
tp2373
I1
s(g1
I2696
VHttpEntity
p2374
tp2375
I1
s(g1
I724
Vhandle
p2376
tp2377
I1
s(g1
I154
Vaction
p2378
tp2379
I1
s(g1
I4298
VcontentType
p2380
tp2381
I1
s(g1
I300
Vcls
p2382
tp2383
I1
s(g1
I189
Vencoding
p2384
tp2385
I1
s(g1
I276
VexecuteButton
p2386
tp2387
I1
s(g1
I426
VObject
p2388
tp2389
I1
s(g1
I166
Vaction
p2390
tp2391
I1
s(g1
I115
Vheaders
p2392
tp2393
I1
s(g1
I262
Vget
p2394
tp2395
I1
s(g1
I3053
VresponseHandler
p2396
tp2397
I1
s(g1
I544
VentrySet
p2398
tp2399
I1
s(g1
I64
VObject
p2400
tp2401
I1
s(g1
I541
Vwrite
p2402
tp2403
I1
s(g1
I1444
VInteger
p2404
tp2405
I1
s(g1
I277
VThrowable
p2406
tp2407
I1
s(g1
I1144
Vmsg
p2408
tp2409
I1
s(g1
I3979
VRequestParams
p2410
tp2411
I1
s(g1
I260
VsetVisibility
p2412
tp2413
I1
s(g1
I87
Vasserts
p2414
tp2415
I3
s(g1
I834
VhttpClient
p2416
tp2417
I1
s(g1
I536
Vupload
p2418
tp2419
I1
s(g1
I287
VFile
p2420
tp2421
I1
s(g1
I316
VString
p2422
tp2423
I1
s(g1
I461
VuseHttpsMenuItem
p2424
tp2425
I1
s(g1
I346
VfrontendFile
p2426
tp2427
I1
s(g1
I5265
VgetContent
p2428
tp2429
I1
s(g1
I377
VLOG_TAG
p2430
tp2431
I1
s(g1
I1006
VsetAuthScheme
p2432
tp2433
I1
s(g1
I294
VstringBytes
p2434
tp2435
I1
s(g1
I272
VresponseHandler
p2436
tp2437
I1
s(g1
I535
Vvalue
p2438
tp2439
I1
s(g1
I689
VString
p2440
tp2441
I1
s(g1
I261
Vretry
p2442
tp2443
I1
s(g1
I33
VAsyncHttpClient
p2444
tp2445
I1
s(g1
I336
VheadersRaw
p2446
tp2447
I1
s(g1
I523
Vvalue
p2448
tp2449
I1
s(g1
I2849
Vurl
p2450
tp2451
I1
s(g1
I225
VLog
p2452
tp2453
I1
s(g1
I5281
VgetContentEncoding
p2454
tp2455
I1
s(g1
I221
Vget
p2456
tp2457
I1
s(g1
I521
Ventity
p2458
tp2459
I1
s(g1
I149
VsendProgressMessage
p2460
tp2461
I1
s(g1
I848
VprogressHandler
p2462
tp2463
I1
s(g1
I313
VisCancelled
p2464
tp2465
I1
s(g1
I270
VretryHandler
p2466
tp2467
I1
s(g1
I243
Vthrowable
p2468
tp2469
I1
s(g1
I995
Vtemp
p2470
tp2471
I1
s(g1
I324
VhandleFailureMessage
p2472
tp2473
I1
s(g1
I491
Vos
p2474
tp2475
I1
s(g1
I435
VsendFailureMessage
p2476
tp2477
I2
s(g1
I585
Vvalue
p2478
tp2479
I1
s(g1
I995
VauthScope
p2480
tp2481
I1
s(g1
I981
VHttpEntity
p2482
tp2483
I1
s(g1
I460
Vstart
p2484
tp2485
I1
s(g1
I366
VMap
p2486
tp2487
I1
s(g1
I654
VRunnable
p2488
tp2489
I1
s(g1
I612
VOverride
p2490
tp2491
I1
s(g1
I567
VthreadPool
p2492
tp2493
I1
s(g1
I486
VomitNonPersistentCookies
p2494
tp2495
I1
s(g1
I348
VusePoolThread
p2496
tp2497
I1
s(g1
I3573
VhttpContext
p2498
tp2499
I1
s(g1
I76
Vfile
p2500
tp2501
I3
s(g1
I2623
VresponseHandler
p2502
tp2503
I1
s(g1
I222
Vname
p2504
tp2505
I1
s(g1
I134
Vi
p2506
tp2507
I1
s(g1
I194
Vuri
p2508
tp2509
I1
s(g1
I201
VIOException
p2510
tp2511
I1
s(g1
I1524
Vappend
p2512
tp2513
I1
s(g1
I199
Vfile
p2514
tp2515
I1
s(g1
I164
Vcontent_wrapper
p2516
tp2517
I1
s(g1
I227
Vmsg
p2518
tp2519
I1
s(g1
I357
VFAILURE_JSON_MESSAGE
p2520
tp2521
I1
s(g1
I321
VusePoolThread
p2522
tp2523
I1
s(g1
I218
VLOG_TAG
p2524
tp2525
I1
s(g1
I644
VScheme
p2526
tp2527
I1
s(g1
I4193
Vf
p2528
tp2529
I1
s(g1
I104
VjsonResponse
p2530
tp2531
I1
s(g1
I95
Vrequest
p2532
tp2533
I1
s(g1
I861
Vretries
p2534
tp2535
I1
s(g1
I273
VCertificateException
p2536
tp2537
I1
s(g1
I211
VsilentCloseInputStream
p2538
tp2539
I1
s(g1
I96
V_request
p2540
tp2541
I2
s(g1
I212
VresponseBody
p2542
tp2543
I1
s(g1
I582
VisCancelled
p2544
tp2545
I1
s(g1
I1822
VnestedValue
p2546
tp2547
I1
s(g1
I303
VString
p2548
tp2549
I1
s(g1
I669
Vrun
p2550
tp2551
I1
s(g1
I689
VLOG_TAG
p2552
tp2553
I1
s(g1
I601
VintValue
p2554
tp2555
I1
s(g1
I5270
VPushbackInputStream
p2556
tp2557
I1
s(g1
I82
VgetMainLooper
p2558
tp2559
I1
s(g1
I110
VsendStartMessage
p2560
tp2561
I1
s(g1
I84
Vresponse
p2562
tp2563
I1
s(g1
I363
VmapOfArrays
p2564
tp2565
I1
s(g1
I517
VSocket
p2566
tp2567
I1
s(g1
I12
VgetAsyncHttpClient
p2568
tp2569
I1
s(g1
I993
VHttpContext
p2570
tp2571
I1
s(g1
I229
Vtag
p2572
tp2573
I1
s(g1
I770
VrequestRef
p2574
tp2575
I1
s(g1
I64
VHttpDelete
p2576
tp2577
I1
s(g1
I2172
Vrun
p2578
tp2579
I1
s(g1
I333
VgetOriginalFile
p2580
tp2581
I1
s(g1
I693
VString
p2582
tp2583
I1
s(g1
I209
Vclient
p2584
tp2585
I1
s(g1
I834
VresponseBody
p2586
tp2587
I1
s(g1
I430
VisFinished
p2588
tp2589
I1
s(g1
I193
VRequestParams
p2590
tp2591
I1
s(g1
I973
VresponseBody
p2592
tp2593
I1
s(g1
I175
Vmsg
p2594
tp2595
I1
s(g1
I515
VequalSignPos
p2596
tp2597
I1
s(g1
I1755
Vsize
p2598
tp2599
I1
s(g1
I166
VgetTemporaryFile
p2600
tp2601
I1
s(g1
I1179
VisInterrupted
p2602
tp2603
I1
s(g1
I64
VOverride
p2604
tp2605
I1
s(g1
I271
VsetMaxConnectionsPerRoute
p2606
tp2607
I1
s(g1
I295
Vstatus
p2608
tp2609
I1
s(g1
I298
VprintStatusCode
p2610
tp2611
I1
s(g1
I288
Ve
p2612
tp2613
I1
s(g1
I1810
VLooper
p2614
tp2615
I1
s(g1
I288
VexceptionWhitelist
p2616
tp2617
I1
s(g1
I1115
VlogLevel
p2618
tp2619
I1
s(g1
I299
VjsonResponse
p2620
tp2621
I1
s(g1
I996
Ventity
p2622
tp2623
I1
s(g1
I270
VmaxConnections
p2624
tp2625
I2
s(g1
I79
Vappend
p2626
tp2627
I3
s(g1
I1130
VRequestParams
p2628
tp2629
I1
s(g1
I975
VConnManagerParams
p2630
tp2631
I1
s(g1
I1577
VremoveAllHeaders
p2632
tp2633
I1
s(g1
I780
VLog
p2634
tp2635
I1
s(g1
I651
Vtimeout
p2636
tp2637
I1
s(g1
I509
Vname
p2638
tp2639
I1
s(g1
I1520
VresponseHandler
p2640
tp2641
I1
s(g1
I530
VMessage
p2642
tp2643
I1
s(g1
I1133
VMessage
p2644
tp2645
I1
s(g1
I2730
VresponseHandler
p2646
tp2647
I1
s(g1
I281
VparseColor
p2648
tp2649
I1
s(g1
I140
Vlooper
p2650
tp2651
I1
s(g1
I509
Vwrite
p2652
tp2653
I1
s(g1
I115
Vsparser
p2654
tp2655
I1
s(g1
I928
Vport
p2656
tp2657
I1
s(g1
I234
Vout
p2658
tp2659
I1
s(g1
I413
Vbuffer
p2660
tp2661
I2
s(g1
I98
Vput
p2662
tp2663
I1
s(g1
I3544
VHttpEntity
p2664
tp2665
I1
s(g1
I50
g734
tp2666
I7
s(g1
I285
Vresponse
p2667
tp2668
I1
s(g1
I2852
VisUrlEncodingEnabled
p2669
tp2670
I1
s(g1
I1516
VcontentType
p2671
tp2672
I1
s(g1
I2867
VcontentType
p2673
tp2674
I1
s(g1
I949
Vremove
p2675
tp2676
I1
s(g1
I590
Vresponse
p2677
tp2678
I1
s(g1
I56
VresponseHandler
p2679
tp2680
I1
s(g1
I397
Vdata
p2681
tp2682
I2
s(g1
I417
VHeader
p2683
tp2684
I1
s(g1
I188
VObject
p2685
tp2686
I1
s(g1
I521
VgetSocketFactory
p2687
tp2688
I1
s(g1
I399
Vkey
p2689
tp2690
I1
s(g1
I4003
VURL
p2691
tp2692
I1
s(g1
I942
VRETRY_MESSAGE
p2693
tp2694
I1
s(g1
I144
VdebugResponse
p2695
tp2696
I1
s(g1
I133
VsendFinishMessage
p2697
tp2698
I1
s(g1
I1526
VHttpPut
p2699
tp2700
I1
s(g1
I2169
VrequestList
p2701
tp2702
I1
s(g1
I626
VInteger
p2703
tp2704
I1
s(g1
I169
VHttpResponse
p2705
tp2706
I1
s(g1
I285
VresponseHandler
p2707
tp2708
I1
s(g1
I48
Vurl
p2709
tp2710
I1
s(g1
I228
Vurl
p2711
tp2712
I1
s(g1
I1554
Vretries
p2713
tp2714
I1
s(g1
I645
Vget
p2715
tp2716
I1
s(g1
I990
Vtemp
p2717
tp2718
I1
s(g1
I679
Vstatus
p2719
tp2720
I1
s(g1
I307
Vkey
p2721
tp2722
I1
s(g1
I126
Vheaders
p2723
tp2724
I1
s(g1
I711
VgetReasonPhrase
p2725
tp2726
I1
s(g1
I396
Vkv
p2727
tp2728
I1
s(g1
I310
Vcause
p2729
tp2730
I1
s(g1
I286
VLinearLayout
p2731
tp2732
I1
s(g1
I2638
VaddEntityToRequestBase
p2733
tp2734
I1
s(g1
I772
Vmsg
p2735
tp2736
I1
s(g1
I908
Vsubstring
p2737
tp2738
I1
s(g1
I1732
VMap
p2739
tp2740
I1
s(g1
I46
Vstatus
p2741
tp2742
I1
s(g1
I375
VdebugMessage
p2743
tp2744
I1
s(g1
I1100
VentrySet
p2745
tp2746
I1
s(g1
I1510
Vrequest
p2747
tp2748
I1
s(g1
I287
VjsonResponse
p2749
tp2750
I1
s(g1
I1224
VpostRunnable
p2751
tp2752
I1
s(g1
I261
Vresponse
p2753
tp2754
I1
s(g1
I634
VgetParams
p2755
tp2756
I1
s(g1
I1055
Vrunnable
p2757
tp2758
I1
s(g1
I282
VInteger
p2759
tp2760
I1
s(g1
I3996
Vdecode
p2761
tp2762
I1
s(g1
I408
VnRead
p2763
tp2764
I2
s(g1
I360
Vheaders
p2765
tp2766
I1
s(g1
I28
VJSONArray
p2767
tp2768
I1
s(g1
I107
Vsfactory
p2769
tp2770
I1
s(g1
I277
Ve
p2771
tp2772
I1
s(g1
I144
VresponseHandler
p2773
tp2774
I1
s(g1
I116
Vheaders
p2775
tp2776
I1
s(g1
I1016
VThread
p2777
tp2778
I1
s(g1
I322
VPatternSyntaxException
p2779
tp2780
I1
s(g1
I40
VsetURI
p2781
tp2782
I2
s(g1
I499
Vvalue
p2783
tp2784
I1
s(g1
I28
VOverride
p2785
tp2786
I1
s(g1
I508
Vcookie
p2787
tp2788
I2
s(g1
I976
VisInPlaybackState
p2789
tp2790
I1
s(g1
I47
VTargetApi
p2791
tp2792
I1
s(g1
I669
Vresponse
p2793
tp2794
I1
s(g1
I234
Vclient
p2795
tp2796
I1
s(g1
I1661
VhttpClient
p2797
tp2798
I1
s(g1
I303
VwriteFirstBoundaryIfNeeds
p2799
tp2800
I1
s(g1
I490
VomitNonPersistentCookies
p2801
tp2802
I1
s(g1
I156
Vsfactory
p2803
tp2804
I1
s(g1
I528
Vparams
p2805
tp2806
I1
s(g1
I619
Vos
p2807
tp2808
I1
s(g1
I646
VLOG_TAG
p2809
tp2810
I1
s(g1
I338
VsetVersion
p2811
tp2812
I1
s(g1
I928
Vresponse
p2813
tp2814
I1
s(g1
I813
VshowLoggingVerbosityDialog
p2815
tp2816
I1
s(g1
I296
VtoReturn
p2817
tp2818
I1
s(g1
I207
VFile
p2819
tp2820
I1
s(g1
I142
Vstatus
p2821
tp2822
I1
s(g1
I1024
Vpassword
p2823
tp2824
I1
s(g1
I689
Vd
p2825
tp2826
I1
s(g1
I3140
Vtrim
p2827
tp2828
I1
s(g1
I220
V_request
p2829
tp2830
I1
s(g1
I698
Vresponse
p2831
tp2832
I1
s(g1
I295
VmyLooper
p2833
tp2834
I1
s(g1
I395
Vpair
p2835
tp2836
I1
s(g1
I1016
VcurrentThread
p2837
tp2838
I1
s(g1
I21
Vhandle
p2839
tp2840
I1
s(g1
I1516
VresponseTimeout
p2841
tp2842
I1
s(g1
I545
VresponseMessage
p2843
tp2844
I1
s(g1
I292
VfileName
p2845
tp2846
I1
s(g1
I1784
VRequestHandle
p2847
tp2848
I1
s(g1
I405
Vheaders
p2849
tp2850
I1
s(g1
I142
VgetReasonPhrase
p2851
tp2852
I1
s(g1
I1180
Vresponse
p2853
tp2854
I1
s(g1
I150
VThread
p2855
tp2856
I1
s(g1
I31
VsetStrictMode
p2857
tp2858
I1
s(g1
I182
VgetSerializableExtra
p2859
tp2860
I1
s(g1
I168
VLog
p2861
tp2862
I1
s(g1
I361
Vlooper
p2863
tp2864
I1
s(g1
I337
VFileWrapper
p2865
tp2866
I1
s(g1
I276
VaddView
p2867
tp2868
I1
s(g1
I750
Vpost
p2869
tp2870
I1
s(g1
I1145
Vparams
p2871
tp2872
I1
s(g1
I24
g734
tp2873
I5
s(g1
I751
VrequestMap
p2874
tp2875
I1
s(g1
I1798
Vcontext
p2876
tp2877
I1
s(g1
I271
VexecuteButton
p2878
tp2879
I1
s(g1
I297
VheadersLayout
p2880
tp2881
I1
s(g1
I334
Ve
p2882
tp2883
I1
s(g1
I4075
Vcontext
p2884
tp2885
I1
s(g1
I31
VJSONArray
p2886
tp2887
I1
s(g1
I197
Vinstream
p2888
tp2889
I1
s(g1
I438
Vhandler
p2890
tp2891
I1
s(g1
I287
Vkey
p2892
tp2893
I1
s(g1
I147
VLOG_TAG
p2894
tp2895
I1
s(g1
I945
Vport
p2896
tp2897
I1
s(g1
I220
VsendResponseMessage
p2898
tp2899
I1
s(g1
I685
VsendFailureMessage
p2900
tp2901
I1
s(g1
I153
Vlooper
p2902
tp2903
I1
s(g1
I583
VString
p2904
tp2905
I1
s(g1
I43
Vstatus
p2906
tp2907
I1
s(g1
I110
VonSuccess
p2908
tp2909
I1
s(g1
I1951
Vcredentials
p2910
tp2911
I1
s(g1
I149
Vparams
p2912
tp2913
I1
s(g1
I333
VresponseBody
p2914
tp2915
I1
s(g1
I166
Vequals
p2916
tp2917
I1
s(g1
I139
VLog
p2918
tp2919
I1
s(g1
I310
Vtype
p2920
tp2921
I1
s(g1
I120
Vi
p2922
tp2923
I1
s(g1
I417
Vclose
p2924
tp2925
I2
s(g1
I250
VResponseHandlerInterface
p2926
tp2927
I1
s(g1
I276
Vretry
p2928
tp2929
I1
s(g1
I1199
VhttpClient
p2930
tp2931
I1
s(g1
I816
Vuser
p2932
tp2933
I1
s(g1
I195
VLOG_TAG
p2934
tp2935
I1
s(g1
I3681
Vget
p2936
tp2937
I1
s(g1
I961
VInteger
p2938
tp2939
I1
s(g1
I260
Vrequest
p2940
tp2941
I1
s(g1
I367
Vhandler
p2942
tp2943
I1
s(g1
I734
Vd
p2944
tp2945
I1
s(g1
I289
Vfile
p2946
tp2947
I1
s(g1
I332
VheadersRaw
p2948
tp2949
I1
s(g1
I1514
Vappend
p2950
tp2951
I1
s(g1
I1011
Vcreds
p2952
tp2953
I1
s(g1
I492
VomitNonPersistentCookies
p2954
tp2955
I1
s(g1
I2424
Vd
p2956
tp2957
I1
s(g1
I1041
VresponseBody
p2958
tp2959
I1
s(g1
I160
VsendFailureMessage
p2960
tp2961
I1
s(g1
I339
VparseResponse
p2962
tp2963
I1
s(g1
I294
VprintContents
p2964
tp2965
I1
s(g1
I142
VScrollView
p2966
tp2967
I1
s(g1
I826
Verror
p2968
tp2969
I1
s(g1
I101
VstatusCode
p2970
tp2971
I1
s(g1
I246
VString
p2972
tp2973
I1
s(g1
I1513
VgetKey
p2974
tp2975
I1
s(g1
I691
Vtype
p2976
tp2977
I1
s(g1
I491
VgetMessage
p2978
tp2979
I1
s(g1
I416
Vhandler
p2980
tp2981
I1
s(g1
I663
VJSONObject
p2982
tp2983
I1
s(g1
I984
VgetParamsList
p2984
tp2985
I1
s(g1
I263
VcurrentThread
p2986
tp2987
I1
s(g1
I1514
VString
p2988
tp2989
I1
s(g1
I2694
VresponseHandler
p2990
tp2991
I1
s(g1
I217
Vcookie
p2992
tp2993
I2
s(g1
I77
VonCreate
p2994
tp2995
I1
s(g1
I307
VresponseHandler
p2996
tp2997
I1
s(g1
I277
VDEFAULT_MAX_CONNECTIONS
p2998
tp2999
I2
s(g1
I586
Vresponse
p3000
tp3001
I1
s(g1
I435
VresponseString
p3002
tp3003
I1
s(g1
I208
VerrorResponse
p3004
tp3005
I1
s(g1
I3999
VUnsupportedEncodingException
p3006
tp3007
I1
s(g1
I1637
Vpreemtive
p3008
tp3009
I1
s(g1
I1100
VisLoggingEnabled
p3010
tp3011
I1
s(g1
I348
VhttpParams
p3012
tp3013
I1
s(g1
I415
VObjectMapper
p3014
tp3015
I1
s(g1
I408
Vwrite
p3016
tp3017
I2
s(g1
I1003
Vmsg
p3018
tp3019
I1
s(g1
I215
VRequestParams
p3020
tp3021
I1
s(g1
I200
Vresponse
p3022
tp3023
I1
s(g1
I4302
VuriRequest
p3024
tp3025
I1
s(g1
I185
VdecodedCookie
p3026
tp3027
I1
s(g1
I315
VusePoolThread
p3028
tp3029
I1
s(g1
I1203
Vrunnable
p3030
tp3031
I1
s(g1
I388
VfixNoHttpResponseException
p3032
tp3033
I1
s(g1
I137
Ventity
p3034
tp3035
I1
s(g1
I304
VexceptionBlacklist
p3036
tp3037
I1
s(g1
I205
Vkey
p3038
tp3039
I1
s(g1
I946
VDEFAULT_MAX_CONNECTIONS
p3040
tp3041
I1
s(g1
I720
Vstatus
p3042
tp3043
I1
s(g1
I2633
VURI
p3044
tp3045
I1
s(g1
I671
VheaderMap
p3046
tp3047
I1
s(g1
I558
VthreadPool
p3048
tp3049
I1
s(g1
I679
VgetStatusCode
p3050
tp3051
I1
s(g1
I335
VfileParams
p3052
tp3053
I1
s(g1
I721
Vhandle
p3054
tp3055
I1
s(g1
I124
VAuthenticationException
p3056
tp3057
I1
s(g1
I256
VgetBodyTextAsJSON
p3058
tp3059
I1
s(g1
I3718
VIllegalArgumentException
p3060
tp3061
I1
s(g1
I853
VstreamParams
p3062
tp3063
I1
s(g1
I106
VOverride
p3064
tp3065
I1
s(g1
I922
Vresponse
p3066
tp3067
I1
s(g1
I820
Vpass
p3068
tp3069
I1
s(g1
I283
VsocketTimeout
p3070
tp3071
I2
s(g1
I3997
VdecodedURL
p3072
tp3073
I1
s(g1
I2720
VresponseHandler
p3074
tp3075
I1
s(g1
I997
Vwidth
p3076
tp3077
I1
s(g1
I1039
Vresponse
p3078
tp3079
I1
s(g1
I142
Vexception
p3080
tp3081
I1
s(g1
I2709
Ventity
p3082
tp3083
I1
s(g1
I1021
VUsernamePasswordCredentials
p3084
tp3085
I1
s(g1
I523
Vurl
p3086
tp3087
I1
s(g1
I432
VmissingLooper
p3088
tp3089
I1
s(g1
I62
VresultLength
p3090
tp3091
I1
s(g1
I434
VcontentType
p3092
tp3093
I1
s(g1
I1131
VresponseMessageData
p3094
tp3095
I1
s(g1
I2200
Vlen
p3096
tp3097
I1
s(g1
I195
VDate
p3098
tp3099
I1
s(g1
I21
VFuture
p3100
tp3101
I1
s(g1
I541
Vos
p3102
tp3103
I1
s(g1
I171
VLIGHTBLUE
p3104
tp3105
I1
s(g1
I977
VmMediaController
p3106
tp3107
I1
s(g1
I433
Vcall
p3108
tp3109
I1
s(g1
I662
Ventry
p3110
tp3111
I1
s(g1
I3845
VPushbackInputStream
p3112
tp3113
I1
s(g1
I22
Vis
p3114
tp3115
I1
s(g1
I203
VInputSource
p3116
tp3117
I1
s(g1
I714
VsendFailureMessage
p3118
tp3119
I1
s(g1
I57
VgetAttribute
p3120
tp3121
I1
s(g1
I973
VmaxConnections
p3122
tp3123
I1
s(g1
I1197
Vr
p3124
tp3125
I1
s(g1
I145
VSynchronousClientSample
p3126
tp3127
I1
s(g1
I150
Vclient
p3128
tp3129
I1
s(g1
I1117
VresponseMessageData
p3130
tp3131
I1
s(g1
I5314
VgetContent
p3132
tp3133
I1
s(g1
I527
VgetStatusLine
p3134
tp3135
I1
s(g1
I304
VanAllowedContentType
p3136
tp3137
I1
s(g1
I310
Vcontext
p3138
tp3139
I1
s(g1
I523
Vos
p3140
tp3141
I2
s(g1
I283
VsetOnClickListener
p3142
tp3143
I1
s(g1
I3023
Viterator
p3144
tp3145
I1
s(g1
I276
VisCancelled
p3146
tp3147
I1
s(g1
I708
VTextUtils
p3148
tp3149
I1
s(g1
I1753
VkeySet
p3150
tp3151
I1
s(g1
I366
VString
p3152
tp3153
I1
s(g1
I3270
VsilentCloseOutputStream
p3154
tp3155
I1
s(g1
I726
VclientHeaderMap
p3156
tp3157
I1
s(g1
I290
Vnext
p3158
tp3159
I1
s(g1
I773
VresponseBody
p3160
tp3161
I1
s(g1
I61
g734
tp3162
I8
s(g1
I1528
VmayInterruptIfRunning
p3163
tp3164
I1
s(g1
I299
VError
p3165
tp3166
I1
s(g1
I694
Vresponse
p3167
tp3168
I1
s(g1
I1531
Vrequest
p3169
tp3170
I1
s(g1
I147
VHttpContext
p3171
tp3172
I1
s(g1
I215
VString
p3173
tp3174
I1
s(g1
I407
VMessage
p3175
tp3176
I1
s(g1
I589
VisCancelled
p3177
tp3178
I1
s(g1
I984
VsetMaxConnections
p3179
tp3180
I1
s(g1
I1176
Vresponse
p3181
tp3182
I1
s(g1
I631
VequalSignPos
p3183
tp3184
I1
s(g1
I110
VdeleteTargetFile
p3185
tp3186
I1
s(g1
I38
VStringBuilder
p3187
tp3188
I1
s(g1
I319
VresponseHandler
p3189
tp3190
I1
s(g1
I373
Vh
p3191
tp3192
I1
s(g1
I335
VdebugFile
p3193
tp3194
I1
s(g1
I541
Vhandler
p3195
tp3196
I1
s(g1
I4193
Vff
p3197
tp3198
I1
s(g1
I177
Vheaders
p3199
tp3200
I1
s(g1
I74
Vd
p3201
tp3202
I1
s(g1
I466
Vvalue
p3203
tp3204
I1
s(g1
I1035
Vrunnable
p3205
tp3206
I1
s(g1
I228
VString
p3207
tp3208
I1
s(g1
I149
Vcount
p3209
tp3210
I1
s(g1
I219
VString
p3211
tp3212
I1
s(g1
I249
Vresponse
p3213
tp3214
I1
s(g1
I240
VerrorResponse
p3215
tp3216
I1
s(g1
I135
VString
p3217
tp3218
I1
s(g1
I582
Vset
p3219
tp3220
I1
s(g1
I222
Ventity
p3221
tp3222
I1
s(g1
I2615
Ventity
p3223
tp3224
I1
s(g1
I417
VArrayIndexOutOfBoundsException
p3225
tp3226
I1
s(g1
I3681
Vcontext
p3227
tp3228
I1
s(g1
I640
VFileWrapper
p3229
tp3230
I1
s(g1
I1429
VasyncHttpClient
p3231
tp3232
I1
s(g1
I1191
Vrunnable
p3233
tp3234
I1
s(g1
I241
Vcause
p3235
tp3236
I1
s(g1
I1519
Vappend
p3237
tp3238
I1
s(g1
I262
Ve
p3239
tp3240
I1
s(g1
I284
VsendProgressMessage
p3241
tp3242
I1
s(g1
I176
VdebugThrowable
p3243
tp3244
I1
s(g1
I477
VMenu
p3245
tp3246
I1
s(g1
I1491
VresponseHandler
p3247
tp3248
I1
s(g1
I405
VstatusCode
p3249
tp3250
I1
s(g1
I1022
Ventity
p3251
tp3252
I1
s(g1
I382
VUtils
p3253
tp3254
I1
s(g1
I1028
VLooper
p3255
tp3256
I1
s(g1
I397
Vheader
p3257
tp3258
I1
s(g1
I2346
Vurl
p3259
tp3260
I1
s(g1
I527
Vport
p3261
tp3262
I1
s(g1
I635
VString
p3263
tp3264
I1
s(g1
I286
Ve
p3265
tp3266
I2
s(g1
I1551
VRetryHandler
p3267
tp3268
I1
s(g1
I565
VJSONException
p3269
tp3270
I1
s(g1
I101
VaddView
p3271
tp3272
I1
s(g1
I188
VmakeRequest
p3273
tp3274
I1
s(g1
I605
VinjectHostname
p3275
tp3276
I1
s(g1
I37
VOverride
p3277
tp3278
I1
s(g1
I360
VHashMap
p3279
tp3280
I1
s(g1
I3728
VIllegalArgumentException
p3281
tp3282
I1
s(g1
I27
VonCancelButtonPressed
p3283
tp3284
I1
s(g1
I692
VString
p3285
tp3286
I1
s(g1
I438
VretryRequest
p3287
tp3288
I1
s(g1
I317
Vresponse
p3289
tp3290
I1
s(g1
I316
VresponseHandler
p3291
tp3292
I1
s(g1
I523
Vwrite
p3293
tp3294
I1
s(g1
I344
VString
p3295
tp3296
I1
s(g1
I545
Vresponse
p3297
tp3298
I1
s(g1
I159
VLIGHTBLUE
p3299
tp3300
I2
s(g1
I680
Vupload
p3301
tp3302
I1
s(g1
I351
Vfilename
p3303
tp3304
I1
s(g1
I154
VsetLayoutParams
p3305
tp3306
I1
s(g1
I949
VmaxConnections
p3307
tp3308
I1
s(g1
I140
Vsocket
p3309
tp3310
I1
s(g1
I510
VString
p3311
tp3312
I1
s(g1
I226
VObject
p3313
tp3314
I1
s(g1
I709
Vkey
p3315
tp3316
I1
s(g1
I201
VresponseHandler
p3317
tp3318
I1
s(g1
I83
Vfinal
p3319
tp3320
I33
s(g1
I1068
Ventry
p3321
tp3322
I1
s(g1
I153
VonStart
p3323
tp3324
I1
s(g1
I641
VgetSchemeRegistry
p3325
tp3326
I1
s(g1
I2438
VrequestMap
p3327
tp3328
I1
s(g1
I285
VauthType
p3329
tp3330
I1
s(g1
I241
VThrowable
p3331
tp3332
I1
s(g1
I205
VinputStreamReader
p3333
tp3334
I1
s(g1
I946
VmaxConnections
p3335
tp3336
I2
s(g1
I225
Vcookie
p3337
tp3338
I1
s(g1
I725
VsendSuccessMessage
p3339
tp3340
I1
s(g1
I282
Vrequest
p3341
tp3342
I1
s(g1
I145
VURL
p3343
tp3344
I1
s(g1
I216
VOverride
p3345
tp3346
I1
s(g1
I816
VonFailure
p3347
tp3348
I1
s(g1
I682
VgetReasonPhrase
p3349
tp3350
I1
s(g1
I1520
VHttpParams
p3351
tp3352
I1
s(g1
I121
VLog
p3353
tp3354
I1
s(g1
I67
Vget
p3355
tp3356
I1
s(g1
I43
VfirstEvent
p3357
tp3358
I1
s(g1
I644
Vtimeout
p3359
tp3360
I1
s(g1
I262
VretryHandler
p3361
tp3362
I1
s(g1
I595
VjsonString
p3363
tp3364
I1
s(g1
I273
Vretry
p3365
tp3366
I1
s(g1
I52
Vparams
p3367
tp3368
I1
s(g1
I274
VretryHandler
p3369
tp3370
I1
s(g1
I3250
Vos
p3371
tp3372
I1
s(g1
I3247
Vos
p3373
tp3374
I1
s(g1
I546
VhttpParams
p3375
tp3376
I1
s(g1
I645
Vlength
p3377
tp3378
I1
s(g1
I124
VhttpContext
p3379
tp3380
I1
s(g1
I123
Vclient
p3381
tp3382
I1
s(g1
I54
Vuri
p3383
tp3384
I2
s(g1
I1170
VenableRedirects
p3385
tp3386
I1
s(g1
I674
VaddHeader
p3387
tp3388
I1
s(g1
I26
VLOG_TAG
p3389
tp3390
I1
s(g1
I4473
VOverride
p3391
tp3392
I1
s(g1
I596
VcreateContentDisposition
p3393
tp3394
I1
s(g1
I3049
VresponseHandler
p3395
tp3396
I1
s(g1
I1113
Ventry
p3397
tp3398
I1
s(g1
I353
VString
p3399
tp3400
I1
s(g1
I270
VClass
p3401
tp3402
I1
s(g1
I584
VrequestMap
p3403
tp3404
I1
s(g1
I313
VPattern
p3405
tp3406
I1
s(g1
I52
VString
p3407
tp3408
I3
s(g1
I651
Vex
p3409
tp3410
I1
s(g1
I150
VURL
p3411
tp3412
I1
s(g1
I727
Vvalue
p3413
tp3414
I1
s(g1
I107
VJSONObject
p3415
tp3416
I1
s(g1
I35
Vreader
p3417
tp3418
I1
s(g1
I903
VstartsWith
p3419
tp3420
I1
s(g1
I228
Vget
p3421
tp3422
I1
s(g1
I556
Vstatus
p3423
tp3424
I1
s(g1
I298
VList
p3425
tp3426
I1
s(g1
I408
VrawJsonData
p3427
tp3428
I1
s(g1
I500
VwriteToFromStream
p3429
tp3430
I1
s(g1
I2872
VuriRequest
p3431
tp3432
I1
s(g1
I220
VgetBodyText
p3433
tp3434
I1
s(g1
I580
VsetUserAgent
p3435
tp3436
I1
s(g1
I4006
V_url
p3437
tp3438
I1
s(g1
I730
VmayInterruptIfRunning
p3439
tp3440
I1
s(g1
I3138
Vparams
p3441
tp3442
I1
s(g1
I249
VrunButton
p3443
tp3444
I1
s(g1
I72
VMath
p3445
tp3446
I1
s(g1
I680
Vwrite
p3447
tp3448
I1
s(g1
I187
VIntent
p3449
tp3450
I1
s(g1
I232
VObject
p3451
tp3452
I1
s(g1
I564
VonSuccess
p3453
tp3454
I1
s(g1
I990
VuseRFC5179CompatibilityMode
p3455
tp3456
I1
s(g1
I990
VUnsupportedEncodingException
p3457
tp3458
I1
s(g1
I1138
VHttpUriRequest
p3459
tp3460
I1
s(g1
I726
Vheader
p3461
tp3462
I1
s(g1
I247
VTAG
p3463
tp3464
I1
s(g1
I461
VretryHandler
p3465
tp3466
I1
s(g1
I966
VonRetry
p3467
tp3468
I1
s(g1
I109
VSampleJSON
p3469
tp3470
I1
s(g1
I682
Vstatus
p3471
tp3472
I1
s(g1
I142
VString
p3473
tp3474
I1
s(g1
I1199
Vhandler
p3475
tp3476
I1
s(g1
I2880
VgetAllHeaders
p3477
tp3478
I1
s(g1
I84
VContext
p3479
tp3480
I1
s(g1
I442
Vhandler
p3481
tp3482
I1
s(g1
I270
VLOG_TAG
p3483
tp3484
I1
s(g1
I638
VArrayList
p3485
tp3486
I1
s(g1
I223
VParserConfigurationException
p3487
tp3488
I1
s(g1
I293
Vrtn
p3489
tp3490
I1
s(g1
I196
VcbAppend
p3491
tp3492
I1
s(g1
I184
VLOG_TAG
p3493
tp3494
I1
s(g1
I147
VresponseHandler
p3495
tp3496
I1
s(g1
I396
Vvalue
p3497
tp3498
I1
s(g1
I122
V_request
p3499
tp3500
I1
s(g1
I283
VString
p3501
tp3502
I1
s(g1
I483
Ve
p3503
tp3504
I2
s(g1
I841
VScheme
p3505
tp3506
I1
s(g1
I87
VUtils
p3507
tp3508
I2
s(g1
I157
VLog
p3509
tp3510
I1
s(g1
I506
VClass
p3511
tp3512
I1
s(g1
I444
VInterruptedException
p3513
tp3514
I1
s(g1
I318
VString
p3515
tp3516
I1
s(g1
I221
Vtag
p3517
tp3518
I1
s(g1
I1431
Vclient
p3519
tp3520
I1
s(g1
I216
VRequestHandle
p3521
tp3522
I1
s(g1
I103
VHeader
p3523
tp3524
I1
s(g1
I1043
Vrunnable
p3525
tp3526
I1
s(g1
I866
Vbuffer
p3527
tp3528
I2
s(g1
I564
Vheaders
p3529
tp3530
I1
s(g1
I39
Vrequest
p3531
tp3532
I1
s(g1
I550
VPROTOCOL_HTTPS
p3533
tp3534
I1
s(g1
I394
VhttpPort
p3535
tp3536
I1
s(g1
I191
VresponseHandler
p3537
tp3538
I1
s(g1
I1758
VnestedValueIndex
p3539
tp3540
I1
s(g1
I1009
VIOException
p3541
tp3542
I1
s(g1
I538
VcreateSocket
p3543
tp3544
I1
s(g1
I1415
VAsyncHttpClient
p3545
tp3546
I1
s(g1
I293
Verror
p3547
tp3548
I1
s(g1
I294
VsendFailureMessage
p3549
tp3550
I1
s(g1
I406
VString
p3551
tp3552
I1
s(g1
I3273
Vcontext
p3553
tp3554
I1
s(g1
I250
VIOException
p3555
tp3556
I2
s(g1
I422
VisCancelled
p3557
tp3558
I1
s(g1
I1016
VprogressHandler
p3559
tp3560
I1
s(g1
I219
VhandleResponseMessage
p3561
tp3562
I1
s(g1
I211
Vcookie
p3563
tp3564
I2
s(g1
I299
VRangeFileAsyncHttpResponseHandler
p3565
tp3566
I1
s(g1
I519
VheaderValue
p3567
tp3568
I1
s(g1
I217
VKeyStoreException
p3569
tp3570
I1
s(g1
I308
Ve
p3571
tp3572
I1
s(g1
I936
VLog
p3573
tp3574
I1
s(g1
I4483
VwrappedEntity
p3575
tp3576
I1
s(g1
I1767
VnestedValueIndex
p3577
tp3578
I1
s(g1
I106
Vdelete
p3579
tp3580
I1
s(g1
I334
VLooper
p3581
tp3582
I1
s(g1
I238
Vget
p3583
tp3584
I1
s(g1
I590
Vvalues
p3585
tp3586
I1
s(g1
I161
Vtitles
p3587
tp3588
I1
s(g1
I53
VAuthState
p3589
tp3590
I1
s(g1
I530
Ventry
p3591
tp3592
I1
s(g1
I181
Vresponse
p3593
tp3594
I1
s(g1
I210
VSAXException
p3595
tp3596
I1
s(g1
I468
Vretry
p3597
tp3598
I1
s(g1
I1555
VsetHttpRequestRetryHandler
p3599
tp3600
I1
s(g1
I671
Vstatus
p3601
tp3602
I1
s(g1
I676
VintValue
p3603
tp3604
I1
s(g1
I164
VcreateFormEntity
p3605
tp3606
I1
s(g1
I2227
Voutput_len
p3607
tp3608
I1
s(g1
I3036
VrequestList
p3609
tp3610
I1
s(g1
I145
Vdelete
p3611
tp3612
I1
s(g1
I121
VAsyncHttpClient
p3613
tp3614
I1
s(g1
I926
Ve
p3615
tp3616
I1
s(g1
I2424
Vlog
p3617
tp3618
I1
s(g1
I1187
VInteger
p3619
tp3620
I1
s(g1
I432
VresponseBody
p3621
tp3622
I1
s(g1
I484
VomitNonPersistentCookies
p3623
tp3624
I1
s(g1
I280
VClass
p3625
tp3626
I1
s(g1
I260
Vcontext
p3627
tp3628
I1
s(g1
I414
VoriginalLength
p3629
tp3630
I1
s(g1
I61
VonSuccess
p3631
tp3632
I1
s(g1
I110
Vl
p3633
tp3634
I1
s(g1
I674
Vi
p3635
tp3636
I1
s(g1
I205
Vrequest
p3637
tp3638
I1
s(g1
I34
VBundle
p3639
tp3640
I1
s(g1
I407
VoriginalLength
p3641
tp3642
I1
s(g1
I165
VObject
p3643
tp3644
I1
s(g1
I662
VgetValue
p3645
tp3646
I1
s(g1
I391
VRunnable
p3647
tp3648
I1
s(g1
I750
VsetEntity
p3649
tp3650
I1
s(g1
I296
VRangeFileAsyncHttpResponseHandler
p3651
tp3652
I1
s(g1
I226
VerrorResponse
p3653
tp3654
I1
s(g1
I5282
Venc
p3655
tp3656
I1
s(g1
I392
Vkey
p3657
tp3658
I1
s(g1
I294
Ve
p3659
tp3660
I1
s(g1
I268
VresponseHandler
p3661
tp3662
I2
s(g1
I3994
Vurl
p3663
tp3664
I1
s(g1
I424
VString
p3665
tp3666
I1
s(g1
I782
VjsonString
p3667
tp3668
I1
s(g1
I3996
VURLDecoder
p3669
tp3670
I1
s(g1
I1162
Vlist
p3671
tp3672
I1
s(g1
I517
VJsonValueInterface
p3673
tp3674
I1
s(g1
I46
VgetReasonPhrase
p3675
tp3676
I1
s(g1
I1184
VsendMessage
p3677
tp3678
I1
s(g1
I243
VgetScheme
p3679
tp3680
I1
s(g1
I1838
VBasicNameValuePair
p3681
tp3682
I1
s(g1
I99
VallowedContentTypes
p3683
tp3684
I1
s(g1
I132
VcontentType
p3685
tp3686
I1
s(g1
I805
VhttpClient
p3687
tp3688
I1
s(g1
I403
VSampleJSON
p3689
tp3690
I1
s(g1
I739
Vrequest
p3691
tp3692
I1
s(g1
I289
VLinearLayout
p3693
tp3694
I1
s(g1
I75
VonStart
p3695
tp3696
I1
s(g1
I975
VhttpParams
p3697
tp3698
I1
s(g1
I4079
Ventity
p3699
tp3700
I1
s(g1
I195
VdebugStatusCode
p3701
tp3702
I1
s(g1
I272
Ve
p3703
tp3704
I2
s(g1
I170
Ve
p3705
tp3706
I1
s(g1
I286
VresponseBody
p3707
tp3708
I1
s(g1
I1014
VSimpleMultipartEntity
p3709
tp3710
I1
s(g1
I124
VcreateTempFile
p3711
tp3712
I1
s(g1
I121
Vrequest
p3713
tp3714
I1
s(g1
I331
Vlooper
p3715
tp3716
I1
s(g1
I373
VfixNoHttpResponseException
p3717
tp3718
I1
s(g1
I161
Vheader
p3719
tp3720
I1
s(g1
I62
VCredentialsProvider
p3721
tp3722
I1
s(g1
I736
VHttpPost
p3723
tp3724
I1
s(g1
I270
Vl
p3725
tp3726
I1
s(g1
I120
VstatusCode
p3727
tp3728
I1
s(g1
I1485
VString
p3729
tp3730
I1
s(g1
I3716
VresponseHandler
p3731
tp3732
I1
s(g1
I734
VFuture
p3733
tp3734
I1
s(g1
I197
VclearExpired
p3735
tp3736
I1
s(g1
I102
VIterator
p3737
tp3738
I1
s(g1
I39
Vlong
p3739
tp3740
I4
s(g1
I685
VFile
p3741
tp3742
I1
s(g1
I257
VString
p3743
tp3744
I1
s(g1
I508
VautoClose
p3745
tp3746
I1
s(g1
I824
Vscope
p3747
tp3748
I1
s(g1
I1414
VasyncHttpClient
p3749
tp3750
I1
s(g1
I209
VLOG_TAG
p3751
tp3752
I1
s(g1
I972
VLog
p3753
tp3754
I1
s(g1
I876
VhandleMessage
p3755
tp3756
I1
s(g1
I320
Ve
p3757
tp3758
I1
s(g1
I2169
VcancelRequests
p3759
tp3760
I1
s(g1
I159
Vauthenticate
p3761
tp3762
I1
s(g1
I40
Vuri
p3763
tp3764
I2
s(g1
I165
VLOG_TAG
p3765
tp3766
I1
s(g1
I149
Vinstream
p3767
tp3768
I1
s(g1
I213
Ve
p3769
tp3770
I1
s(g1
I128
Vput
p3771
tp3772
I1
s(g1
I298
VgetHttpRequestRetryHandler
p3773
tp3774
I1
s(g1
I664
VbyteArrayInputStream
p3775
tp3776
I1
s(g1
I644
VThreadPoolExecutor
p3777
tp3778
I1
s(g1
I772
VUnsupportedEncodingException
p3779
tp3780
I1
s(g1
I147
VhandleErrorMessage
p3781
tp3782
I1
s(g1
I426
VsendMessage
p3783
tp3784
I1
s(g1
I96
Vbody
p3785
tp3786
I1
s(g1
I455
VsendFailureMessage
p3787
tp3788
I1
s(g1
I336
VonRunButtonPressed
p3789
tp3790
I1
s(g1
I224
VWeakReference
p3791
tp3792
I1
s(g1
I144
VThrowable
p3793
tp3794
I1
s(g1
I4093
VHttpDelete
p3795
tp3796
I1
s(g1
I1382
Vl
p3797
tp3798
I1
s(g1
I125
VBinaryHttpResponseHandler
p3799
tp3800
I1
s(g1
I1773
VaddAll
p3801
tp3802
I1
s(g1
I2611
Vurl
p3803
tp3804
I1
s(g1
I577
VString
p3805
tp3806
I1
s(g1
I231
VisRequestBodyAllowed
p3807
tp3808
I1
s(g1
I2160
VRunnable
p3809
tp3810
I1
s(g1
I383
VString
p3811
tp3812
I2
s(g1
I294
VHttpRequestRetryHandler
p3813
tp3814
I1
s(g1
I820
VjsonString
p3815
tp3816
I1
s(g1
I210
VThread
p3817
tp3818
I1
s(g1
I2888
VresponseHandler
p3819
tp3820
I1
s(g1
I3146
Vequals
p3821
tp3822
I1
s(g1
I394
Vout
p3823
tp3824
I1
s(g1
I294
Vcf
p3825
tp3826
I1
s(g1
I202
Vurl
p3827
tp3828
I1
s(g1
I726
VgetHeadersText
p3829
tp3830
I1
s(g1
I233
VonSuccess
p3831
tp3832
I1
s(g1
I138
VcontentType
p3833
tp3834
I1
s(g1
I797
Vproxy
p3835
tp3836
I1
s(g1
I3682
VrequestList
p3837
tp3838
I1
s(g1
I164
Vresponse
p3839
tp3840
I1
s(g1
I566
VgetDefaultThreadPool
p3841
tp3842
I1
s(g1
I262
VisFailure
p3843
tp3844
I1
s(g1
I332
VLog
p3845
tp3846
I1
s(g1
I357
VFile
p3847
tp3848
I1
s(g1
I413
Vmsg
p3849
tp3850
I1
s(g1
I356
VHeader
p3851
tp3852
I1
s(g1
I302
Ve
p3853
tp3854
I1
s(g1
I189
VHeader
p3855
tp3856
I1
s(g1
I3141
VparamString
p3857
tp3858
I1
s(g1
I165
VresponseBody
p3859
tp3860
I1
s(g1
I244
VsetVisibility
p3861
tp3862
I1
s(g1
I949
Vkey
p3863
tp3864
I1
s(g1
I1097
Vlog
p3865
tp3866
I1
s(g1
I322
Vpost
p3867
tp3868
I1
s(g1
I69
Vcontext
p3869
tp3870
I1
s(g1
I585
VgetResponseString
p3871
tp3872
I1
s(g1
I47
VcontentType
p3873
tp3874
I1
s(g1
I759
VOutputStream
p3875
tp3876
I1
s(g1
I3253
Vclient
p3877
tp3878
I1
s(g1
I438
Vresponse
p3879
tp3880
I1
s(g1
I26
Vresponse
p3881
tp3882
I1
s(g1
I290
Ve
p3883
tp3884
I2
s(g1
I380
VmapOfSets
p3885
tp3886
I1
s(g1
I114
Vcredentials
p3887
tp3888
I1
s(g1
I564
Vt
p3889
tp3890
I1
s(g1
I219
VonOptionsItemSelected
p3891
tp3892
I1
s(g1
I826
VUsernamePasswordCredentials
p3893
tp3894
I1
s(g1
I619
Vline
p3895
tp3896
I1
s(g1
I1389
Vappend
p3897
tp3898
I1
s(g1
I283
VhttpParams
p3899
tp3900
I2
s(g1
I83
Vsynchronized
p3901
tp3902
I1
s(g1
I277
VNullPointerException
p3903
tp3904
I1
s(g1
I848
Vlength
p3905
tp3906
I1
s(g1
I517
Vget
p3907
tp3908
I1
s(g1
I134
Vstates
p3909
tp3910
I1
s(g1
I220
Vdelete
p3911
tp3912
I1
s(g1
I324
VresponseHandler
p3913
tp3914
I1
s(g1
I260
VexecutionCount
p3915
tp3916
I1
s(g1
I531
VaddPart
p3917
tp3918
I1
s(g1
I305
VObject
p3919
tp3920
I1
s(g1
I670
Vupload
p3921
tp3922
I1
s(g1
I171
Vresponse
p3923
tp3924
I1
s(g1
I4098
VresponseHandler
p3925
tp3926
I1
s(g1
I1195
VcustomRedirectHandler
p3927
tp3928
I1
s(g1
I2352
Vheaders
p3929
tp3930
I1
s(g1
I177
Vresponse
p3931
tp3932
I1
s(g1
I303
VmakeRequest
p3933
tp3934
I1
s(g1
I411
VisFailure
p3935
tp3936
I1
s(g1
I216
Vretry
p3937
tp3938
I1
s(g1
I343
VLooper
p3939
tp3940
I1
s(g1
I300
VString
p3941
tp3942
I2
s(g1
I4216
Vf
p3943
tp3944
I1
s(g1
I73
VcopyLength
p3945
tp3946
I1
s(g1
I290
VsendFailureMessage
p3947
tp3948
I1
s(g1
I1515
VDEFAULT_SOCKET_TIMEOUT
p3949
tp3950
I1
s(g1
I4190
Vequals
p3951
tp3952
I1
s(g1
I126
VLOG_TAG
p3953
tp3954
I1
s(g1
I212
VParserConfigurationException
p3955
tp3956
I1
s(g1
I700
VgetStatusCode
p3957
tp3958
I1
s(g1
I128
Vinstream
p3959
tp3960
I1
s(g1
I897
VjsonString
p3961
tp3962
I1
s(g1
I1735
VMap
p3963
tp3964
I1
s(g1
I4301
VHttpEntityEnclosingRequestBase
p3965
tp3966
I1
s(g1
I368
Vfin
p3967
tp3968
I1
s(g1
I195
VHttpEntity
p3969
tp3970
I1
s(g1
I1113
VgetKey
p3971
tp3972
I1
s(g1
I42
VContext
p3973
tp3974
I1
s(g1
I430
Vfile
p3975
tp3976
I1
s(g1
I3542
Vurl
p3977
tp3978
I1
s(g1
I786
Ve
p3979
tp3980
I1
s(g1
I509
VString
p3981
tp3982
I2
s(g1
I2258
Voutput_len
p3983
tp3984
I1
s(g1
I482
Vvalue
p3985
tp3986
I1
s(g1
I546
Vmsg
p3987
tp3988
I1
s(g1
I133
VisCancelled
p3989
tp3990
I1
s(g1
I671
VNumber
p3991
tp3992
I1
s(g1
I218
Vheaders
p3993
tp3994
I2
s(g1
I907
VtoString
p3995
tp3996
I1
s(g1
I120
Vtmp
p3997
tp3998
I1
s(g1
I995
VhttpContext
p3999
tp4000
I1
s(g1
I500
Vcookie
p4001
tp4002
I1
s(g1
I192
VRequestParams
p4003
tp4004
I1
s(g1
I3042
Vput
p4005
tp4006
I1
s(g1
I819
Vrun
p4007
tp4008
I1
s(g1
I357
VString
p4009
tp4010
I1
s(g1
I81
VOverride
p4011
tp4012
I1
s(g1
I2151
VLooper
p4013
tp4014
I1
s(g1
I1106
VgetValue
p4015
tp4016
I1
s(g1
I263
Vretry
p4017
tp4018
I1
s(g1
I500
VgetAllHeaders
p4019
tp4020
I1
s(g1
I106
Vtmp
p4021
tp4022
I1
s(g1
I312
VgetValue
p4023
tp4024
I1
s(g1
I290
VCertificateException
p4025
tp4026
I1
s(g1
I145
Vclient
p4027
tp4028
I1
s(g1
I695
VcustomFileName
p4029
tp4030
I1
s(g1
I118
Vrequest
p4031
tp4032
I1
s(g1
I1145
Vmap
p4033
tp4034
I1
s(g1
I311
VisInList
p4035
tp4036
I1
s(g1
I1102
VFileWrapper
p4037
tp4038
I1
s(g1
I194
Vkey
p4039
tp4040
I1
s(g1
I821
VclientHeaderMap
p4041
tp4042
I1
s(g1
I279
VmakeRequest
p4043
tp4044
I1
s(g1
I163
Vclient
p4045
tp4046
I1
s(g1
I121
VLOG_TAG
p4047
tp4048
I1
s(g1
I138
VContext
p4049
tp4050
I1
s(g1
I135
Vcount
p4051
tp4052
I1
s(g1
I669
VSerializableCookie
p4053
tp4054
I1
s(g1
I402
VJSONObject
p4055
tp4056
I1
s(g1
I662
Vfiles
p4057
tp4058
I1
s(g1
I276
Verror
p4059
tp4060
I1
s(g1
I173
VHeader
p4061
tp4062
I1
s(g1
I188
Vfile
p4063
tp4064
I1
s(g1
I1389
Vl
p4065
tp4066
I1
s(g1
I192
VInputSource
p4067
tp4068
I1
s(g1
I1129
VMap
p4069
tp4070
I1
s(g1
I207
Vex
p4071
tp4072
I1
s(g1
I949
Vusername
p4073
tp4074
I1
s(g1
I300
VtoReturn
p4075
tp4076
I1
s(g1
I316
VonStart
p4077
tp4078
I1
s(g1
I4202
Vf
p4079
tp4080
I1
s(g1
I405
VdebugProcessing
p4081
tp4082
I1
s(g1
I658
Vrequest
p4083
tp4084
I1
s(g1
I478
Vos
p4085
tp4086
I1
s(g1
I658
Vwrite
p4087
tp4088
I1
s(g1
I75
Vc
p4089
tp4090
I1
s(g1
I942
Vhostname
p4091
tp4092
I1
s(g1
I39
VIllegalArgumentException
p4093
tp4094
I1
s(g1
I285
VString
p4095
tp4096
I1
s(g1
I1105
VInteger
p4097
tp4098
I1
s(g1
I1019
VuriRequest
p4099
tp4100
I1
s(g1
I4071
VresponseHandler
p4101
tp4102
I1
s(g1
I713
VvalueOf
p4103
tp4104
I1
s(g1
I436
VexecutionCount
p4105
tp4106
I1
s(g1
I934
Vpassword
p4107
tp4108
I1
s(g1
I372
VTAG
p4109
tp4110
I1
s(g1
I536
VdeleteCookie
p4111
tp4112
I1
s(g1
I214
VHeader
p4113
tp4114
I2
s(g1
I268
VexecutionCount
p4115
tp4116
I1
s(g1
I671
VgetStatusCode
p4117
tp4118
I1
s(g1
I154
VOverride
p4119
tp4120
I1
s(g1
I500
VCookie
p4121
tp4122
I1
s(g1
I584
VintValue
p4123
tp4124
I1
s(g1
I1202
VsetRedirectHandler
p4125
tp4126
I1
s(g1
I363
Vcolor
p4127
tp4128
I1
s(g1
I50
VAuthState
p4129
tp4130
I1
s(g1
I1777
Vcontext
p4131
tp4132
I1
s(g1
I1570
VcancelAllRequests
p4133
tp4134
I1
s(g1
I385
Vpair
p4135
tp4136
I1
s(g1
I1672
VisPreemtive
p4137
tp4138
I1
s(g1
I822
VpostRunnable
p4139
tp4140
I1
s(g1
I142
VLOG_TAG
p4141
tp4142
I1
s(g1
I339
Vlength
p4143
tp4144
I1
s(g1
I44
Vinit
p4145
tp4146
I1
s(g1
I241
VResponseHandlerInterface
p4147
tp4148
I1
s(g1
I538
VgetHeaders
p4149
tp4150
I1
s(g1
I1141
VHttpHead
p4151
tp4152
I1
s(g1
I183
Vclient
p4153
tp4154
I1
s(g1
I141
VString
p4155
tp4156
I1
s(g1
I341
VgetValue
p4157
tp4158
I1
s(g1
I1003
VsendMessage
p4159
tp4160
I1
s(g1
I552
VMessage
p4161
tp4162
I1
s(g1
I550
Vheaders
p4163
tp4164
I1
s(g1
I560
VuserAgent
p4165
tp4166
I1
s(g1
I553
VgetBytes
p4167
tp4168
I1
s(g1
I158
VallowedContentTypes
p4169
tp4170
I1
s(g1
I766
VFuture
p4171
tp4172
I1
s(g1
I82
VLooper
p4173
tp4174
I1
s(g1
I175
VString
p4175
tp4176
I1
s(g1
I592
Vvalue
p4177
tp4178
I1
s(g1
I278
Vresponse
p4179
tp4180
I1
s(g1
I4083
VcontentType
p4181
tp4182
I1
s(g1
I538
VgetItemId
p4183
tp4184
I1
s(g1
I164
Vsparser
p4185
tp4186
I1
s(g1
I696
Ve
p4187
tp4188
I1
s(g1
I83
Vstatic
p4189
tp4190
I8
s(g1
I1193
VInteger
p4191
tp4192
I1
s(g1
I145
VString
p4193
tp4194
I1
s(g1
I44
VonCreate
p4195
tp4196
I1
s(g1
I306
VgetAllowedContentTypes
p4197
tp4198
I1
s(g1
I129
VFileAsyncHttpResponseHandler
p4199
tp4200
I1
s(g1
I717
VresponseHandler
p4201
tp4202
I1
s(g1
I1021
VStatusLine
p4203
tp4204
I1
s(g1
I210
VcurrentThread
p4205
tp4206
I1
s(g1
I181
VAsyncHttpClient
p4207
tp4208
I1
s(g1
I314
VtoString
p4209
tp4210
I1
s(g1
I977
VsetEnabled
p4211
tp4212
I1
s(g1
I308
Vheaders
p4213
tp4214
I1
s(g1
I324
Vkey
p4215
tp4216
I1
s(g1
I242
Vfile
p4217
tp4218
I1
s(g1
I467
Vput
p4219
tp4220
I1
s(g1
I72
VjsonResponse
p4221
tp4222
I1
s(g1
I764
Vmsg
p4223
tp4224
I1
s(g1
I581
VonOptionsItemSelected
p4225
tp4226
I1
s(g1
I134
Vparams
p4227
tp4228
I1
s(g1
I231
Vclient
p4229
tp4230
I1
s(g1
I672
VreadObject
p4231
tp4232
I1
s(g1
I133
VAssertUtils
p4233
tp4234
I1
s(g1
I4106
VsendRequest
p4235
tp4236
I1
s(g1
I272
Vretry
p4237
tp4238
I1
s(g1
I651
Vheader
p4239
tp4240
I1
s(g1
I596
Vresult
p4241
tp4242
I1
s(g1
I270
Vcount
p4243
tp4244
I1
s(g1
I490
Vvalue
p4245
tp4246
I1
s(g1
I940
VString
p4247
tp4248
I1
s(g1
I362
VgetOriginalFile
p4249
tp4250
I1
s(g1
I290
VString
p4251
tp4252
I1
s(g1
I90
VmFile
p4253
tp4254
I1
s(g1
I305
VprintStackTrace
p4255
tp4256
I1
s(g1
I553
VHttpResponseException
p4257
tp4258
I1
s(g1
I985
VgetEntity
p4259
tp4260
I1
s(g1
I512
VObject
p4261
tp4262
I1
s(g1
I855
VwriteToFromFile
p4263
tp4264
I1
s(g1
I414
Vstart
p4265
tp4266
I1
s(g1
I173
VError
p4267
tp4268
I1
s(g1
I206
Vcause
p4269
tp4270
I1
s(g1
I277
VstringBytes
p4271
tp4272
I1
s(g1
I3726
VresponseHandler
p4273
tp4274
I1
s(g1
I333
VrequestHandles
p4275
tp4276
I1
s(g1
I756
VrequestList
p4277
tp4278
I1
s(g1
I104
VString
p4279
tp4280
I2
s(g1
I264
VisCancelled
p4281
tp4282
I1
s(g1
I89
VOverride
p4283
tp4284
I1
s(g1
I536
Vwrite
p4285
tp4286
I1
s(g1
I3146
VparamString
p4287
tp4288
I1
s(g1
I407
Vresponse
p4289
tp4290
I1
s(g1
I142
Vget
p4291
tp4292
I1
s(g1
I46
VIllegalArgumentException
p4293
tp4294
I2
s(g1
I423
Ve
p4295
tp4296
I2
s(g1
I1116
Vresponse
p4297
tp4298
I1
s(g1
I991
Vclient
p4299
tp4300
I1
s(g1
I177
Vrun
p4301
tp4302
I1
s(g1
I819
VjsonString
p4303
tp4304
I1
s(g1
I1756
VnestedValueIndex
p4305
tp4306
I1
s(g1
I1164
VonFinish
p4307
tp4308
I1
s(g1
I292
Vput
p4309
tp4310
I1
s(g1
I1753
Vmap
p4311
tp4312
I1
s(g1
I300
Ve
p4313
tp4314
I1
s(g1
I998
Vhas
p4315
tp4316
I1
s(g1
I196
VmakeRequest
p4317
tp4318
I1
s(g1
I220
VLog
p4319
tp4320
I1
s(g1
I170
VLOG_TAG
p4321
tp4322
I1
s(g1
I289
VresponseHandler
p4323
tp4324
I1
s(g1
I871
Vmsg
p4325
tp4326
I1
s(g1
I199
VAsyncHttpResponseHandler
p4327
tp4328
I1
s(g1
I421
VIOException
p4329
tp4330
I2
s(g1
I1829
Vkey
p4331
tp4332
I1
s(g1
I3224
Vw
p4333
tp4334
I1
s(g1
I252
VisCancelButtonAllowed
p4335
tp4336
I1
s(g1
I1115
VFileInputStream
p4337
tp4338
I1
s(g1
I140
Vd
p4339
tp4340
I1
s(g1
I270
Ve
p4341
tp4342
I2
s(g1
I253
Vthrown
p4343
tp4344
I1
s(g1
I897
Vtrim
p4345
tp4346
I1
s(g1
I128
Vi
p4347
tp4348
I1
s(g1
I1389
Vbuffer
p4349
tp4350
I1
s(g1
I2642
VhttpContext
p4351
tp4352
I1
s(g1
I348
VString
p4353
tp4354
I1
s(g1
I816
Ve
p4355
tp4356
I1
s(g1
I341
VfrontendFile
p4357
tp4358
I1
s(g1
I2842
Vparams
p4359
tp4360
I1
s(g1
I34
VPROGRESS_DATA_MESSAGE
p4361
tp4362
I1
s(g1
I174
VACTION_FAILURE
p4363
tp4364
I1
s(g1
I221
Vheaders
p4365
tp4366
I1
s(g1
I53
g734
tp4367
I17
s(g1
I5261
VIOException
p4368
tp4369
I1
s(g1
I285
Vlength
p4370
tp4371
I1
s(g1
I681
VIOException
p4372
tp4373
I1
s(g1
I833
VEntityUtils
p4374
tp4375
I1
s(g1
I1078
VObject
p4376
tp4377
I1
s(g1
I567
VInteger
p4378
tp4379
I1
s(g1
I581
VString
p4380
tp4381
I1
s(g1
I173
VStatusLine
p4382
tp4383
I1
s(g1
I1461
VsetHomeAsUpEnabled
p4384
tp4385
I1
s(g1
I46
VHttpException
p4386
tp4387
I1
s(g1
I117
VcontentType
p4388
tp4389
I1
s(g1
I2241
Vlen
p4390
tp4391
I1
s(g1
I1007
VresponseHandler
p4392
tp4393
I1
s(g1
I2413
VTAG
p4394
tp4395
I1
s(g1
I148
VcontentLength
p4396
tp4397
I1
s(g1
I414
VparamArray
p4398
tp4399
I1
s(g1
I314
VThrowable
p4400
tp4401
I1
s(g1
I72
VLog
p4402
tp4403
I1
s(g1
I298
VstatusCode
p4404
tp4405
I1
s(g1
I176
VOverride
p4406
tp4407
I1
s(g1
I413
Vresponse
p4408
tp4409
I1
s(g1
I152
VisInterrupted
p4410
tp4411
I1
s(g1
I324
Vretry
p4412
tp4413
I1
s(g1
I415
VcontentType
p4414
tp4415
I1
s(g1
I309
Ventity
p4416
tp4417
I1
s(g1
I313
VanAllowedContentType
p4418
tp4419
I1
s(g1
I2205
Voutput_len
p4420
tp4421
I1
s(g1
I292
Vurl
p4422
tp4423
I1
s(g1
I391
VonStart
p4424
tp4425
I1
s(g1
I793
VHttpHost
p4426
tp4427
I1
s(g1
I138
VSocket
p4428
tp4429
I1
s(g1
I2862
VContext
p4430
tp4431
I1
s(g1
I409
Vmsg
p4432
tp4433
I1
s(g1
I1114
VresponseMessageId
p4434
tp4435
I1
s(g1
I1410
VsilentCloseInputStream
p4436
tp4437
I1
s(g1
I582
VonFailure
p4438
tp4439
I1
s(g1
I717
Vpost
p4440
tp4441
I1
s(g1
I225
VbodyText
p4442
tp4443
I1
s(g1
I810
VString
p4444
tp4445
I1
s(g1
I999
VsetProxy
p4446
tp4447
I1
s(g1
I281
Vheaders
p4448
tp4449
I1
s(g1
I324
VsetUsePoolThread
p4450
tp4451
I1
s(g1
I1514
Vcontext
p4452
tp4453
I1
s(g1
I41
VIllegalArgumentException
p4454
tp4455
I1
s(g1
I3224
Ve
p4456
tp4457
I1
s(g1
I4283
VgetUseSynchronousMode
p4458
tp4459
I1
s(g1
I603
VAsyncHttpRequest
p4460
tp4461
I1
s(g1
I53
VallowRetryExceptionClass
p4462
tp4463
I1
s(g1
I172
Vrun
p4464
tp4465
I1
s(g1
I210
Vi
p4466
tp4467
I1
s(g1
I2699
Ventity
p4468
tp4469
I1
s(g1
I584
VgetCharset
p4470
tp4471
I1
s(g1
I86
Vc
p4472
tp4473
I1
s(g1
I762
VMessage
p4474
tp4475
I1
s(g1
I579
VgetValue
p4476
tp4477
I1
s(g1
I957
Vkey
p4478
tp4479
I1
s(g1
I846
VsetBasicAuth
p4480
tp4481
I1
s(g1
I3671
Vcontext
p4482
tp4483
I1
s(g1
I527
Vsocket
p4484
tp4485
I1
s(g1
I555
VThreadSafeClientConnManager
p4486
tp4487
I1
s(g1
I59
Vrequest
p4488
tp4489
I1
s(g1
I653
Vupload
p4490
tp4491
I1
s(g1
I825
Vtemp
p4492
tp4493
I1
s(g1
I3554
VresponseHandler
p4494
tp4495
I1
s(g1
I221
VresponseHandler
p4496
tp4497
I1
s(g1
I313
VsetStatusMessage
p4498
tp4499
I1
s(g1
I876
VSystem
p4500
tp4501
I1
s(g1
I116
VLOG_TAG
p4502
tp4503
I2
s(g1
I505
Vtrim
p4504
tp4505
I1
s(g1
I681
VgetBytes
p4506
tp4507
I1
s(g1
I907
VEntityUtils
p4508
tp4509
I1
s(g1
I4085
VResponseHandlerInterface
p4510
tp4511
I1
s(g1
I1060
VentrySet
p4512
tp4513
I1
s(g1
I352
Vlines
p4514
tp4515
I1
s(g1
I655
VArrayList
p4516
tp4517
I1
s(g1
I832
Vuser
p4518
tp4519
I1
s(g1
I212
VstatusCode
p4520
tp4521
I1
s(g1
I511
VisCancelled
p4522
tp4523
I1
s(g1
I1545
Vtimeout
p4524
tp4525
I1
s(g1
I829
VUsernamePasswordCredentials
p4526
tp4527
I1
s(g1
I251
VsendNextRangeRequest
p4528
tp4529
I1
s(g1
I5274
VpushbackStream
p4530
tp4531
I1
s(g1
I221
VcontentType
p4532
tp4533
I1
s(g1
I249
VsetOnClickListener
p4534
tp4535
I1
s(g1
I1500
Vresult
p4536
tp4537
I1
s(g1
I139
VstatusCode
p4538
tp4539
I1
s(g1
I28
VhttpContext
p4540
tp4541
I1
s(g1
I500
Vcause
p4542
tp4543
I1
s(g1
I787
Vport
p4544
tp4545
I1
s(g1
I3560
VHttpPatch
p4546
tp4547
I1
s(g1
I162
Vcontext
p4548
tp4549
I1
s(g1
I255
Vtmp
p4550
tp4551
I1
s(g1
I169
VLIGHTBLUE
p4552
tp4553
I1
s(g1
I207
Vt
p4554
tp4555
I1
s(g1
I733
Vheader
p4556
tp4557
I1
s(g1
I116
VdebugHeaders
p4558
tp4559
I1
s(g1
I275
Vlist
p4560
tp4561
I1
s(g1
I121
Ve
p4562
tp4563
I1
s(g1
I408
Vdata
p4564
tp4565
I2
s(g1
I264
VLog
p4566
tp4567
I1
s(g1
I141
VaddView
p4568
tp4569
I1
s(g1
I208
Vclient
p4570
tp4571
I1
s(g1
I239
Ve
p4572
tp4573
I1
s(g1
I155
VnewInstance
p4574
tp4575
I1
s(g1
I2617
VString
p4576
tp4577
I1
s(g1
I212
VexecuteSample
p4578
tp4579
I1
s(g1
I286
Vresponse
p4580
tp4581
I1
s(g1
I298
Vclient
p4582
tp4583
I2
s(g1
I1829
VgetParamsList
p4584
tp4585
I1
s(g1
I294
Vcharset
p4586
tp4587
I1
s(g1
I1506
Vheaders
p4588
tp4589
I1
s(g1
I238
VonRetry
p4590
tp4591
I1
s(g1
I854
Vretries
p4592
tp4593
I1
s(g1
I767
VIOException
p4594
tp4595
I1
s(g1
I327
VgetUsePoolThread
p4596
tp4597
I1
s(g1
I546
VsetSocketBufferSize
p4598
tp4599
I1
s(g1
I138
Vparams
p4600
tp4601
I1
s(g1
I527
VBoolean
p4602
tp4603
I1
s(g1
I208
VString
p4604
tp4605
I1
s(g1
I4101
VresponseHandler
p4606
tp4607
I1
s(g1
I528
Vstatus
p4608
tp4609
I1
s(g1
I504
VonCreateOptionsMenu
p4610
tp4611
I1
s(g1
I271
VsetLayoutParams
p4612
tp4613
I1
s(g1
I91
Vfile
p4614
tp4615
I1
s(g1
I119
VJSONArray
p4616
tp4617
I1
s(g1
I830
VjsonString
p4618
tp4619
I1
s(g1
I405
VHttpResponse
p4620
tp4621
I1
s(g1
I103
VisDone
p4622
tp4623
I1
s(g1
I170
VaddView
p4624
tp4625
I1
s(g1
I1060
VurlParams
p4626
tp4627
I1
s(g1
I116
Vparams
p4628
tp4629
I1
s(g1
I715
Ve
p4630
tp4631
I1
s(g1
I94
VdeleteTargetFile
p4632
tp4633
I1
s(g1
I741
Vurl
p4634
tp4635
I1
s(g1
I1419
VOverride
p4636
tp4637
I1
s(g1
I231
Vhead
p4638
tp4639
I1
s(g1
I132
Vbuffer
p4640
tp4641
I1
s(g1
I916
Ve
p4642
tp4643
I1
s(g1
I217
Vparams
p4644
tp4645
I1
s(g1
I527
Ventry
p4646
tp4647
I1
s(g1
I38
VonCancelButtonPressed
p4648
tp4649
I1
s(g1
I355
Vstate
p4650
tp4651
I1
s(g1
I61
VsetURI
p4652
tp4653
I2
s(g1
I173
VBinaryHttpResponseHandler
p4654
tp4655
I1
s(g1
I1426
Vclient
p4656
tp4657
I1
s(g1
I211
Vis
p4658
tp4659
I1
s(g1
I256
VprintStackTrace
p4660
tp4661
I1
s(g1
I217
VString
p4662
tp4663
I1
s(g1
I1767
Vformat
p4664
tp4665
I1
s(g1
I306
Vtemp
p4666
tp4667
I1
s(g1
I1097
Ventry
p4668
tp4669
I1
s(g1
I151
VisImageResponseHandler
p4670
tp4671
I1
s(g1
I740
VrequestMap
p4672
tp4673
I1
s(g1
I766
VjsonString
p4674
tp4675
I1
s(g1
I815
VjsonString
p4676
tp4677
I1
s(g1
I514
Vcookie
p4678
tp4679
I1
s(g1
I256
VflushBuffer
p4680
tp4681
I1
s(g1
I151
VresponseBody
p4682
tp4683
I1
s(g1
I392
VauthType
p4684
tp4685
I1
s(g1
I308
VOverride
p4686
tp4687
I1
s(g1
I231
Vcookies
p4688
tp4689
I1
s(g1
I3739
VHttpEntityEnclosingRequestBase
p4690
tp4691
I1
s(g1
I1402
VsendProgressMessage
p4692
tp4693
I1
s(g1
I111
VXMLReader
p4694
tp4695
I1
s(g1
I121
VjsonResponse
p4696
tp4697
I1
s(g1
I4005
VdecodedURL
p4698
tp4699
I1
s(g1
I100
VLIGHTRED
p4700
tp4701
I1
s(g1
I2212
Vlen
p4702
tp4703
I1
s(g1
I732
VgetValue
p4704
tp4705
I1
s(g1
I452
Vcause
p4706
tp4707
I1
s(g1
I483
VLog
p4708
tp4709
I1
s(g1
I61
Vend
p4710
tp4711
I1
s(g1
I676
VHttpResponseException
p4712
tp4713
I1
s(g1
I285
VfixNoHttpResponseException
p4714
tp4715
I1
s(g1
I54
VInteger
p4716
tp4717
I1
s(g1
I159
VonFinish
p4718
tp4719
I1
s(g1
I1151
Vheaders
p4720
tp4721
I1
s(g1
I369
Vl
p4722
tp4723
I1
s(g1
I140
VmenuItemEnableCircularRedirects
p4724
tp4725
I1
s(g1
I34
Vtimeline
p4726
tp4727
I1
s(g1
I1177
VcurrentThread
p4728
tp4729
I1
s(g1
I314
VResponseHandlerInterface
p4730
tp4731
I1
s(g1
I690
VString
p4732
tp4733
I1
s(g1
I2999
VrequestList
p4734
tp4735
I1
s(g1
I1030
VmissingLooper
p4736
tp4737
I1
s(g1
I120
Vinstream
p4738
tp4739
I1
s(g1
I279
Vfile
p4740
tp4741
I1
s(g1
I263
VresponseHandler
p4742
tp4743
I1
s(g1
I382
VTAG
p4744
tp4745
I1
s(g1
I1005
VresponseBody
p4746
tp4747
I1
s(g1
I283
VcancelButton
p4748
tp4749
I1
s(g1
I120
VLOG_TAG
p4750
tp4751
I1
s(g1
I125
Vparams
p4752
tp4753
I1
s(g1
I562
Vcm
p4754
tp4755
I1
s(g1
I533
VMenuItem
p4756
tp4757
I1
s(g1
I939
Vkey
p4758
tp4759
I1
s(g1
I165
VstatusCode
p4760
tp4761
I2
s(g1
I209
VdebugResponse
p4762
tp4763
I1
s(g1
I140
VgetColoredView
p4764
tp4765
I1
s(g1
I302
VFAILURE_MESSAGE
p4766
tp4767
I1
s(g1
I88
VgetTargetFile
p4768
tp4769
I1
s(g1
I816
Vheaders
p4770
tp4771
I1
s(g1
I116
Vd
p4772
tp4773
I1
s(g1
I2856
VcontentType
p4774
tp4775
I1
s(g1
I676
Vheader
p4776
tp4777
I1
s(g1
I757
Vresult
p4778
tp4779
I1
s(g1
I194
Vfile
p4780
tp4781
I1
s(g1
I352
VInteger
p4782
tp4783
I1
s(g1
I1195
VRunnable
p4784
tp4785
I1
s(g1
I280
Ve
p4786
tp4787
I1
s(g1
I1025
VgetStatusLine
p4788
tp4789
I1
s(g1
I653
VHeader
p4790
tp4791
I1
s(g1
I464
Vparser
p4792
tp4793
I1
s(g1
I3028
VrequestList
p4794
tp4795
I1
s(g1
I156
Vt
p4796
tp4797
I1
s(g1
I528
VsslSocket
p4798
tp4799
I1
s(g1
I843
VHttpEntity
p4800
tp4801
I1
s(g1
I251
Vurl
p4802
tp4803
I1
s(g1
I223
Vkey
p4804
tp4805
I1
s(g1
I432
VparseResponse
p4806
tp4807
I1
s(g1
I649
VJSONException
p4808
tp4809
I1
s(g1
I586
Vabort
p4810
tp4811
I1
s(g1
I328
VheadersEditText
p4812
tp4813
I1
s(g1
I1016
Vscope
p4814
tp4815
I1
s(g1
I341
Ventry
p4816
tp4817
I1
s(g1
I347
Vformat
p4818
tp4819
I1
s(g1
I292
Vfile
p4820
tp4821
I1
s(g1
I731
VAsyncHttpResponseHandler
p4822
tp4823
I1
s(g1
I739
VHttpPost
p4824
tp4825
I1
s(g1
I166
Vformat
p4826
tp4827
I1
s(g1
I1089
VObject
p4828
tp4829
I1
s(g1
I400
VOverride
p4830
tp4831
I1
s(g1
I248
VIOException
p4832
tp4833
I2
s(g1
I98
Vasserts
p4834
tp4835
I1
s(g1
I461
VsetChecked
p4836
tp4837
I1
s(g1
I58
VConnectTimeoutException
p4838
tp4839
I1
s(g1
I3996
Vurl
p4840
tp4841
I1
s(g1
I2339
VHttpDelete
p4842
tp4843
I1
s(g1
I652
Vescape
p4844
tp4845
I1
s(g1
I299
VstatusCode
p4846
tp4847
I1
s(g1
I201
VcbAppend
p4848
tp4849
I1
s(g1
I273
VIOException
p4850
tp4851
I1
s(g1
I171
VAsyncHttpClient
p4852
tp4853
I1
s(g1
I34
VURI
p4854
tp4855
I2
s(g1
I335
VObject
p4856
tp4857
I1
s(g1
I472
Vescape
p4858
tp4859
I1
s(g1
I1134
VAsyncHttpResponseHandler
p4860
tp4861
I1
s(g1
I1156
VString
p4862
tp4863
I1
s(g1
I388
VLog
p4864
tp4865
I1
s(g1
I277
Vtmp
p4866
tp4867
I1
s(g1
I507
Vos
p4868
tp4869
I1
s(g1
I2236
Vlen
p4870
tp4871
I1
s(g1
I519
Vname
p4872
tp4873
I1
s(g1
I427
Vstatus
p4874
tp4875
I2
s(g1
I330
VtoString
p4876
tp4877
I1
s(g1
I1410
VAsyncHttpClient
p4878
tp4879
I1
s(g1
I680
VInteger
p4880
tp4881
I1
s(g1
I1402
Vcount
p4882
tp4883
I1
s(g1
I281
VIterator
p4884
tp4885
I1
s(g1
I320
VresponseHandler
p4886
tp4887
I1
s(g1
I213
Vt
p4888
tp4889
I1
s(g1
I1122
VaddPart
p4890
tp4891
I1
s(g1
I1483
Ventity
p4892
tp4893
I1
s(g1
I3994
VURLEncoder
p4894
tp4895
I1
s(g1
I903
VUTF8_BOM
p4896
tp4897
I1
s(g1
I568
VuserAgent
p4898
tp4899
I1
s(g1
I4097
VURI
p4900
tp4901
I1
s(g1
I613
Vvalue
p4902
tp4903
I1
s(g1
I160
VgetFirstHeader
p4904
tp4905
I1
s(g1
I926
VLOG_TAG
p4906
tp4907
I1
s(g1
I843
Vtmp
p4908
tp4909
I1
s(g1
I824
VtoString
p4910
tp4911
I1
s(g1
I370
VSet
p4912
tp4913
I1
s(g1
I439
Vretry
p4914
tp4915
I1
s(g1
I379
Vout
p4916
tp4917
I1
s(g1
I320
Vresponse
p4918
tp4919
I1
s(g1
I751
Vcontext
p4920
tp4921
I1
s(g1
I3984
Vurl
p4922
tp4923
I1
s(g1
I166
VLIGHTGREEN
p4924
tp4925
I1
s(g1
I274
Ve
p4926
tp4927
I2
s(g1
I1108
Vresponse
p4928
tp4929
I1
s(g1
I110
Vkeys
p4930
tp4931
I1
s(g1
I310
VretryRequest
p4932
tp4933
I1
s(g1
I3132
Vparams
p4934
tp4935
I1
s(g1
I949
VurlParamsWithObjects
p4936
tp4937
I1
s(g1
I2267
Voutput_len
p4938
tp4939
I1
s(g1
I258
VgetMessage
p4940
tp4941
I1
s(g1
I425
VcontentTypeHeaders
p4942
tp4943
I1
s(g1
I719
VFilePart
p4944
tp4945
I1
s(g1
I60
VallowRetryExceptionClass
p4946
tp4947
I1
s(g1
I265
VisInterrupted
p4948
tp4949
I1
s(g1
I788
VtotalSize
p4950
tp4951
I1
s(g1
I1959
Vd
p4952
tp4953
I1
s(g1
I221
Vkey
p4954
tp4955
I1
s(g1
I142
Vl
p4956
tp4957
I1
s(g1
I54
Vreader
p4958
tp4959
I1
s(g1
I3540
VString
p4960
tp4961
I1
s(g1
I512
VJsonValueInterface
p4962
tp4963
I1
s(g1
I549
Vhost
p4964
tp4965
I1
s(g1
I96
Vinstream
p4966
tp4967
I1
s(g1
I284
VString
p4968
tp4969
I1
s(g1
I363
Vheaders
p4970
tp4971
I1
s(g1
I705
VHttpResponseException
p4972
tp4973
I1
s(g1
I654
VsetThreadPool
p4974
tp4975
I1
s(g1
I433
VcancelIsNotified
p4976
tp4977
I1
s(g1
I51
VMap
p4978
tp4979
I1
s(g1
I160
VresponseHandler
p4980
tp4981
I1
s(g1
I710
VheadersEditText
p4982
tp4983
I1
s(g1
I248
VCallable
p4984
tp4985
I1
s(g1
I551
VthreadPool
p4986
tp4987
I1
s(g1
I155
Vlooper
p4988
tp4989
I1
s(g1
I4283
VresponseHandler
p4990
tp4991
I1
s(g1
I121
Vthrowable
p4992
tp4993
I1
s(g1
I111
Vresponse
p4994
tp4995
I1
s(g1
I619
Vsubstring
p4996
tp4997
I1
s(g1
I194
VgetAbsolutePath
p4998
tp4999
I1
s(g1
I632
VList
p5000
tp5001
I1
s(g1
I154
Vequals
p5002
tp5003
I1
s(g1
I4212
VHttpEntity
p5004
tp5005
I1
s(g1
I52
VaddHeader
p5006
tp5007
I1
s(g1
I816
Vvalue
p5008
tp5009
I1
s(g1
I278
VSocketException
p5010
tp5011
I1
s(g1
I507
Vwrite
p5012
tp5013
I1
s(g1
I216
Vvalue
p5014
tp5015
I1
s(g1
I366
Vasserts
p5016
tp5017
I1
s(g1
I140
VIOException
p5018
tp5019
I1
s(g1
I428
VFile
p5020
tp5021
I1
s(g1
I125
VInputStreamReader
p5022
tp5023
I1
s(g1
I164
Vb
p5024
tp5025
I1
s(g1
I288
VresponseHandler
p5026
tp5027
I1
s(g1
I287
VstringBytes
p5028
tp5029
I1
s(g1
I168
VThread
p5030
tp5031
I1
s(g1
I705
VString
p5032
tp5033
I1
s(g1
I621
Vtrim
p5034
tp5035
I1
s(g1
I211
VAsyncHttpClient
p5036
tp5037
I1
s(g1
I208
VcbRename
p5038
tp5039
I1
s(g1
I46
VOverride
p5040
tp5041
I1
s(g1
I304
Ve
p5042
tp5043
I1
s(g1
I781
VbytesWritten
p5044
tp5045
I1
s(g1
I107
VresponseHandler
p5046
tp5047
I1
s(g1
I645
Vresult
p5048
tp5049
I1
s(g1
I1528
Vurl
p5050
tp5051
I1
s(g1
I301
VobtainMessage
p5052
tp5053
I1
s(g1
I103
V_request
p5054
tp5055
I1
s(g1
I129
VCharArrayBuffer
p5056
tp5057
I1
s(g1
I1172
Vmsg
p5058
tp5059
I1
s(g1
I850
VIOException
p5060
tp5061
I1
s(g1
I1567
Vvalue
p5062
tp5063
I1
s(g1
I56
Vresponse
p5064
tp5065
I1
s(g1
I286
Vurl
p5066
tp5067
I1
s(g1
I1772
VgetParamsList
p5068
tp5069
I1
s(g1
I1497
VentrySet
p5070
tp5071
I1
s(g1
I458
Vparser
p5072
tp5073
I1
s(g1
I177
VURL
p5074
tp5075
I1
s(g1
I846
VAsyncHttpResponseHandler
p5076
tp5077
I1
s(g1
I316
VfoundAllowedContentType
p5078
tp5079
I1
s(g1
I29
VBufferedReader
p5080
tp5081
I1
s(g1
I142
Vbuffer
p5082
tp5083
I1
s(g1
I642
VString
p5084
tp5085
I1
s(g1
I4455
VpushbackStream
p5086
tp5087
I1
s(g1
I677
Vcookie
p5088
tp5089
I1
s(g1
I303
VOverride
p5090
tp5091
I1
s(g1
I150
Vheaders
p5092
tp5093
I1
s(g1
I241
Vresult
p5094
tp5095
I1
s(g1
I262
VretryRequest
p5096
tp5097
I1
s(g1
I825
VjsonString
p5098
tp5099
I1
s(g1
I5277
VHeader
p5100
tp5101
I1
s(g1
I2872
VaddHeader
p5102
tp5103
I1
s(g1
I297
Vvalue
p5104
tp5105
I1
s(g1
I4464
VgzippedStream
p5106
tp5107
I1
s(g1
I744
VFuture
p5108
tp5109
I1
s(g1
I185
VURI
p5110
tp5111
I1
s(g1
I174
Vheaders
p5112
tp5113
I1
s(g1
I1833
Vset
p5114
tp5115
I1
s(g1
I297
Vlooper
p5116
tp5117
I1
s(g1
I574
VString
p5118
tp5119
I1
s(g1
I550
VuseHttps
p5120
tp5121
I1
s(g1
I172
VaddView
p5122
tp5123
I1
s(g1
I296
VAsyncHttpClient
p5124
tp5125
I1
s(g1
I191
VKeyStoreException
p5126
tp5127
I1
s(g1
I56
VgetResponseBody
p5128
tp5129
I1
s(g1
I1009
VContext
p5130
tp5131
I1
s(g1
I746
Ventity
p5132
tp5133
I1
s(g1
I55
VURI
p5134
tp5135
I1
s(g1
I4075
Vurl
p5136
tp5137
I1
s(g1
I673
Vvalues
p5138
tp5139
I1
s(g1
I893
VjsonString
p5140
tp5141
I1
s(g1
I254
VHttpResponse
p5142
tp5143
I1
s(g1
I142
Vfile
p5144
tp5145
I1
s(g1
I1487
VcontentType
p5146
tp5147
I1
s(g1
I150
VautoClose
p5148
tp5149
I1
s(g1
I353
VsslSocketFactory
p5150
tp5151
I1
s(g1
I666
Vvalue
p5152
tp5153
I1
s(g1
I413
VThrowable
p5154
tp5155
I1
s(g1
I438
VcopyLength
p5156
tp5157
I1
s(g1
I917
VjsonString
p5158
tp5159
I1
s(g1
I93
Vc
p5160
tp5161
I1
s(g1
I347
VVERSION
p5162
tp5163
I1
s(g1
I202
VProtocolException
p5164
tp5165
I1
s(g1
I607
Vos
p5166
tp5167
I1
s(g1
I606
VObject
p5168
tp5169
I1
s(g1
I191
VURI
p5170
tp5171
I1
s(g1
I213
Vtag
p5172
tp5173
I1
s(g1
I250
Ve
p5174
tp5175
I1
s(g1
I435
Vthrowable
p5176
tp5177
I1
s(g1
I321
Vresponse
p5178
tp5179
I1
s(g1
I1196
VgetUseSynchronousMode
p5180
tp5181
I1
s(g1
I460
VObject
p5182
tp5183
I1
s(g1
I244
VdebugResponse
p5184
tp5185
I1
s(g1
I527
VcreateSocket
p5186
tp5187
I1
s(g1
I3042
Vcontext
p5188
tp5189
I1
s(g1
I2331
VRequestParams
p5190
tp5191
I1
s(g1
I446
Ve
p5192
tp5193
I1
s(g1
I67
VAsyncHttpClient
p5194
tp5195
I1
s(g1
I573
VjsonResponse
p5196
tp5197
I1
s(g1
I908
VresponseBody
p5198
tp5199
I1
s(g1
I226
VresponseHandler
p5200
tp5201
I1
s(g1
I3048
VRangeFileAsyncHttpResponseHandler
p5202
tp5203
I1
s(g1
I790
VsendMessage
p5204
tp5205
I1
s(g1
I266
VexecutionCount
p5206
tp5207
I1
s(g1
I262
Vcontext
p5208
tp5209
I1
s(g1
I111
VLOG_TAG
p5210
tp5211
I1
s(g1
I173
VresponseBody
p5212
tp5213
I1
s(g1
I2169
VmayInterruptIfRunning
p5214
tp5215
I1
s(g1
I121
Vl
p5216
tp5217
I1
s(g1
I1633
VsetCredentials
p5218
tp5219
I1
s(g1
I622
VheaderName
p5220
tp5221
I1
s(g1
I137
Vbuffer
p5222
tp5223
I1
s(g1
I46
VallowRetryExceptionClass
p5224
tp5225
I1
s(g1
I116
VLog
p5226
tp5227
I1
s(g1
I4077
VHttpEntity
p5228
tp5229
I1
s(g1
I432
VString
p5230
tp5231
I1
s(g1
I272
VanAllowedContentType
p5232
tp5233
I1
s(g1
I288
VMalformedURLException
p5234
tp5235
I1
s(g1
I115
VJSONArray
p5236
tp5237
I1
s(g1
I302
VsendMessage
p5238
tp5239
I1
s(g1
I646
VLog
p5240
tp5241
I1
s(g1
I516
Vsubstring
p5242
tp5243
I1
s(g1
I124
VContext
p5244
tp5245
I1
s(g1
I1011
VSimpleMultipartEntity
p5246
tp5247
I1
s(g1
I624
Vheaders
p5248
tp5249
I1
s(g1
I338
VhttpParams
p5250
tp5251
I1
s(g1
I1136
VresponseHandler
p5252
tp5253
I1
s(g1
I4304
VHttpEntityEnclosingRequestBase
p5254
tp5255
I1
s(g1
I379
VObject
p5256
tp5257
I1
s(g1
I191
VgetHttpRequestRetryHandler
p5258
tp5259
I1
s(g1
I518
Vvalue
p5260
tp5261
I1
s(g1
I1497
VHttpPost
p5262
tp5263
I1
s(g1
I125
VString
p5264
tp5265
I1
s(g1
I524
VresponseMessage
p5266
tp5267
I1
s(g1
I152
VThread
p5268
tp5269
I1
s(g1
I609
VdebugResponse
p5270
tp5271
I1
s(g1
I419
Vresponse
p5272
tp5273
I1
s(g1
I622
Vresponse
p5274
tp5275
I1
s(g1
I510
Vcls
p5276
tp5277
I1
s(g1
I144
VLOG_TAG
p5278
tp5279
I1
s(g1
I16
Vhandle
p5280
tp5281
I1
s(g1
I689
Ve
p5282
tp5283
I1
s(g1
I898
Vtemp
p5284
tp5285
I1
s(g1
I437
VcancelIsNotified
p5286
tp5287
I1
s(g1
I115
VdebugHeaders
p5288
tp5289
I1
s(g1
I1798
VrequestMap
p5290
tp5291
I1
s(g1
I733
VString
p5292
tp5293
I2
s(g1
I220
VresponseHandler
p5294
tp5295
I1
s(g1
I33
VsetStrictMode
p5296
tp5297
I1
s(g1
I364
VisDirectory
p5298
tp5299
I1
s(g1
I573
VObject
p5300
tp5301
I1
s(g1
I342
Vfile
p5302
tp5303
I1
s(g1
I369
VJSONObject
p5304
tp5305
I1
s(g1
I769
Vkeys
p5306
tp5307
I1
s(g1
I682
VsetTimeout
p5308
tp5309
I1
s(g1
I284
VUnknownHostException
p5310
tp5311
I1
s(g1
I1131
VString
p5312
tp5313
I1
s(g1
I291
Vitr
p5314
tp5315
I1
s(g1
I914
VIOException
p5316
tp5317
I1
s(g1
I1506
Vresult
p5318
tp5319
I1
s(g1
I98
VAssertUtils
p5320
tp5321
I1
s(g1
I304
VHeader
p5322
tp5323
I1
s(g1
I456
VThread
p5324
tp5325
I1
s(g1
I268
VHashSet
p5326
tp5327
I1
s(g1
I534
VgetEntity
p5328
tp5329
I1
s(g1
I523
VisCancelled
p5330
tp5331
I1
s(g1
I231
VLog
p5332
tp5333
I1
s(g1
I707
VLog
p5334
tp5335
I1
s(g1
I395
VFINISH_MESSAGE
p5336
tp5337
I1
s(g1
I825
VstartsWith
p5338
tp5339
I1
s(g1
I786
VresponseBody
p5340
tp5341
I1
s(g1
I3126
Vreplace
p5342
tp5343
I1
s(g1
I772
VgetCharset
p5344
tp5345
I1
s(g1
I191
Vfile
p5346
tp5347
I1
s(g1
I1128
Vheaders
p5348
tp5349
I1
s(g1
I43
VHttpGet
p5350
tp5351
I1
s(g1
I351
VheadersRaw
p5352
tp5353
I1
s(g1
I196
VsetText
p5354
tp5355
I1
s(g1
I3127
Vurl
p5356
tp5357
I1
s(g1
I527
Vhost
p5358
tp5359
I1
s(g1
I800
VJSONException
p5360
tp5361
I1
s(g1
I975
VsetMaxConnectionsPerRoute
p5362
tp5363
I1
s(g1
I3873
VreadStatus
p5364
tp5365
I1
s(g1
I2642
VhttpClient
p5366
tp5367
I1
s(g1
I559
Vos
p5368
tp5369
I1
s(g1
I54
Vhandle
p5370
tp5371
I1
s(g1
I174
Vt
p5372
tp5373
I1
s(g1
I152
VIOException
p5374
tp5375
I1
s(g1
I127
VURL
p5376
tp5377
I1
s(g1
I831
Vresponse
p5378
tp5379
I1
s(g1
I590
Vvalue
p5380
tp5381
I1
s(g1
I391
Vheaders
p5382
tp5383
I1
s(g1
I277
VsetMaxTotalConnections
p5384
tp5385
I2
s(g1
I3564
VURI
p5386
tp5387
I1
s(g1
I150
VcurrentThread
p5388
tp5389
I1
s(g1
I853
VLog
p5390
tp5391
I1
s(g1
I147
Vheaders
p5392
tp5393
I1
s(g1
I211
VisRequestHeadersAllowed
p5394
tp5395
I1
s(g1
I389
VSTART_MESSAGE
p5396
tp5397
I1
s(g1
I115
VcreateTempFile
p5398
tp5399
I2
s(g1
I645
VstreamParams
p5400
tp5401
I1
s(g1
I107
Vput
p5402
tp5403
I1
s(g1
I838
VgetCharset
p5404
tp5405
I1
s(g1
I254
Ve
p5406
tp5407
I1
s(g1
I34
VonCreate
p5408
tp5409
I1
s(g1
I313
VRequestHandle
p5410
tp5411
I1
s(g1
I75
Vformat
p5412
tp5413
I1
s(g1
I427
VLooper
p5414
tp5415
I1
s(g1
I579
VTAG
p5416
tp5417
I1
s(g1
I299
VretryHandler
p5418
tp5419
I1
s(g1
I2346
Vparams
p5420
tp5421
I1
s(g1
I223
VresponseBody
p5422
tp5423
I1
s(g1
I576
Vresult
p5424
tp5425
I1
s(g1
I286
Vstatus
p5426
tp5427
I1
s(g1
I368
Vread
p5428
tp5429
I1
s(g1
I4088
VresponseHandler
p5430
tp5431
I1
s(g1
I323
VisCancelled
p5432
tp5433
I1
s(g1
I300
VCertificateException
p5434
tp5435
I1
s(g1
I2430
VList
p5436
tp5437
I1
s(g1
I302
VString
p5438
tp5439
I1
s(g1
I160
VgetParamString
p5440
tp5441
I1
s(g1
I281
VurlLayout
p5442
tp5443
I1
s(g1
I165
Vheader
p5444
tp5445
I1
s(g1
I653
Vwrite
p5446
tp5447
I1
s(g1
I1027
VisPreProcessed
p5448
tp5449
I1
s(g1
I46
Vstart
p5450
tp5451
I1
s(g1
I187
VURL
p5452
tp5453
I1
s(g1
I26
VBufferedReader
p5454
tp5455
I1
s(g1
I424
Vresponse
p5456
tp5457
I1
s(g1
I79
VFileAsyncHttpResponseHandler
p5458
tp5459
I1
s(g1
I718
VprintStackTrace
p5460
tp5461
I1
s(g1
I216
VresponseHandler
p5462
tp5463
I1
s(g1
I56
VLog
p5464
tp5465
I1
s(g1
I136
VresponseHandler
p5466
tp5467
I1
s(g1
I610
VonFinish
p5468
tp5469
I1
s(g1
I131
Ve
p5470
tp5471
I1
s(g1
I299
VfixNoHttpResponseException
p5472
tp5473
I1
s(g1
I565
VgetColoredView
p5474
tp5475
I1
s(g1
I636
VHttpProtocolParams
p5476
tp5477
I1
s(g1
I253
VOverride
p5478
tp5479
I1
s(g1
I327
VaddRequestHandle
p5480
tp5481
I1
s(g1
I651
VthreadPool
p5482
tp5483
I1
s(g1
I39
Vvoid
p5484
tp5485
I95
s(g1
I315
Vhandle
p5486
tp5487
I1
s(g1
I113
Vcount
p5488
tp5489
I1
s(g1
I262
VObject
p5490
tp5491
I1
s(g1
I663
Vvalues
p5492
tp5493
I1
s(g1
I195
VLog
p5494
tp5495
I1
s(g1
I145
Vfile
p5496
tp5497
I1
s(g1
I1959
VLog
p5498
tp5499
I1
s(g1
I39
Vboolean
p5500
tp5501
I38
s(g1
I213
VcbRename
p5502
tp5503
I1
s(g1
I676
VgetCookie
p5504
tp5505
I1
s(g1
I526
VObject
p5506
tp5507
I1
s(g1
I487
VIOException
p5508
tp5509
I1
s(g1
I957
VHttpParams
p5510
tp5511
I1
s(g1
I666
Vex
p5512
tp5513
I1
s(g1
I963
VHttpParams
p5514
tp5515
I1
s(g1
I165
VtoBeDeleted
p5516
tp5517
I1
s(g1
I313
Vmatches
p5518
tp5519
I1
s(g1
I393
VrawJsonData
p5520
tp5521
I1
s(g1
I345
Vlooper
p5522
tp5523
I1
s(g1
I833
Vcredentials
p5524
tp5525
I1
s(g1
I110
VresponseHandler
p5526
tp5527
I1
s(g1
I297
Vkey
p5528
tp5529
I1
s(g1
I38
VUSER_AGENT
p5530
tp5531
I1
s(g1
I549
VlastIndex
p5532
tp5533
I1
s(g1
I284
Vcls
p5534
tp5535
I1
s(g1
I832
VprogressHandler
p5536
tp5537
I1
s(g1
I20
VString
p5538
tp5539
I1
s(g1
I147
Vport
p5540
tp5541
I1
s(g1
I286
VClientProtocolException
p5542
tp5543
I1
s(g1
I529
Vtemp
p5544
tp5545
I1
s(g1
I1524
VhttpClient
p5546
tp5547
I1
s(g1
I538
VcurrentIndex
p5548
tp5549
I1
s(g1
I177
VObject
p5550
tp5551
I1
s(g1
I761
Vpost
p5552
tp5553
I1
s(g1
I944
VfileParams
p5554
tp5555
I1
s(g1
I1122
Ventity
p5556
tp5557
I1
s(g1
I228
VbodyText
p5558
tp5559
I1
s(g1
I289
VHttpConnectionParams
p5560
tp5561
I2
s(g1
I784
VrequestList
p5562
tp5563
I1
s(g1
I112
VallowedContentTypes
p5564
tp5565
I1
s(g1
I523
VStatusLine
p5566
tp5567
I1
s(g1
I815
VgetEntity
p5568
tp5569
I1
s(g1
I405
VonFailure
p5570
tp5571
I1
s(g1
I1035
VLooper
p5572
tp5573
I1
s(g1
I297
VresponseHandler
p5574
tp5575
I1
s(g1
I690
VtoString
p5576
tp5577
I1
s(g1
I72
Vcancel
p5578
tp5579
I1
s(g1
I292
VheadersLayout
p5580
tp5581
I1
s(g1
I208
VRequestHandle
p5582
tp5583
I1
s(g1
I4012
VURI
p5584
tp5585
I1
s(g1
I260
Vmsg
p5586
tp5587
I1
s(g1
I247
VMalformedURLException
p5588
tp5589
I1
s(g1
I3740
VuriRequest
p5590
tp5591
I1
s(g1
I188
VCheckBox
p5592
tp5593
I1
s(g1
I513
Vvalue
p5594
tp5595
I1
s(g1
I130
VString
p5596
tp5597
I1
s(g1
I413
Vflush
p5598
tp5599
I2
s(g1
I438
Vrun
p5600
tp5601
I1
s(g1
I286
Verror
p5602
tp5603
I1
s(g1
I63
Vhandle
p5604
tp5605
I1
s(g1
I1126
VThrowable
p5606
tp5607
I1
s(g1
I1139
Vhandler
p5608
tp5609
I1
s(g1
I166
VcreateSocket
p5610
tp5611
I1
s(g1
I336
VhandleMessage
p5612
tp5613
I1
s(g1
I1145
Vurl
p5614
tp5615
I1
s(g1
I402
Vvalue
p5616
tp5617
I1
s(g1
I241
VgetURI
p5618
tp5619
I1
s(g1
I1749
VObject
p5620
tp5621
I1
s(g1
I554
VsetThreadPool
p5622
tp5623
I1
s(g1
I744
VstartsWith
p5624
tp5625
I1
s(g1
I437
Vfuture
p5626
tp5627
I1
s(g1
I3129
VshouldEncodeUrl
p5628
tp5629
I1
s(g1
I1382
Vcount
p5630
tp5631
I1
s(g1
I304
VBufferedHttpEntity
p5632
tp5633
I1
s(g1
I449
VIOException
p5634
tp5635
I1
s(g1
I1068
VmissingLooper
p5636
tp5637
I1
s(g1
I157
VsslContext
p5638
tp5639
I1
s(g1
I1399
VcontentLength
p5640
tp5641
I1
s(g1
I597
VTAG
p5642
tp5643
I1
s(g1
I379
Vwrite
p5644
tp5645
I1
s(g1
I551
VtoString
p5646
tp5647
I1
s(g1
I1072
VpostRunnable
p5648
tp5649
I1
s(g1
I2346
VgetUrlWithQueryString
p5650
tp5651
I1
s(g1
I3548
VString
p5652
tp5653
I1
s(g1
I294
VresponseHandler
p5654
tp5655
I1
s(g1
I277
VConnManagerParams
p5656
tp5657
I2
s(g1
I156
VLOG_TAG
p5658
tp5659
I2
s(g1
I546
VresponseBody
p5660
tp5661
I1
s(g1
I1126
VMap
p5662
tp5663
I1
s(g1
I970
VConnPerRouteBean
p5664
tp5665
I1
s(g1
I708
VgetStatusCode
p5666
tp5667
I1
s(g1
I692
VhttpClient
p5668
tp5669
I1
s(g1
I519
Ventry
p5670
tp5671
I1
s(g1
I116
Vput
p5672
tp5673
I1
s(g1
I184
VdebugThrowable
p5674
tp5675
I1
s(g1
I1771
Vlist
p5676
tp5677
I1
s(g1
I828
VString
p5678
tp5679
I1
s(g1
I41
Vinstall
p5680
tp5681
I1
s(g1
I467
Vmenu
p5682
tp5683
I1
s(g1
I203
VRequestHandle
p5684
tp5685
I1
s(g1
I56
Vfile
p5686
tp5687
I1
s(g1
I2830
VString
p5688
tp5689
I1
s(g1
I152
Vretry
p5690
tp5691
I1
s(g1
I710
Vheader
p5692
tp5693
I1
s(g1
I107
VnewSAXParser
p5694
tp5695
I1
s(g1
I235
VsetTag
p5696
tp5697
I1
s(g1
I3852
VinputStream
p5698
tp5699
I1
s(g1
I207
VLog
p5700
tp5701
I1
s(g1
I357
Vasserts
p5702
tp5703
I1
s(g1
I869
VgetEntity
p5704
tp5705
I1
s(g1
I691
VgetStatusCode
p5706
tp5707
I1
s(g1
I286
VparseResponse
p5708
tp5709
I1
s(g1
I43
Vsb
p5710
tp5711
I1
s(g1
I1039
VgetEntity
p5712
tp5713
I1
s(g1
I308
VresponseHandler
p5714
tp5715
I1
s(g1
I55
Vline
p5716
tp5717
I1
s(g1
I713
VUnsupportedEncodingException
p5718
tp5719
I1
s(g1
I713
VString
p5720
tp5721
I1
s(g1
I37
VonCreate
p5722
tp5723
I1
s(g1
I867
Vhandler
p5724
tp5725
I1
s(g1
I207
Ve
p5726
tp5727
I2
s(g1
I506
VheaderName
p5728
tp5729
I1
s(g1
I1133
VObject
p5730
tp5731
I1
s(g1
I788
VstartsWith
p5732
tp5733
I1
s(g1
I662
Vheader
p5734
tp5735
I1
s(g1
I135
VHttpEntity
p5736
tp5737
I1
s(g1
I52
VArrayIndexOutOfBoundsException
p5738
tp5739
I1
s(g1
I3235
Vos
p5740
tp5741
I1
s(g1
I5281
VwrappedEntity
p5742
tp5743
I1
s(g1
I388
VString
p5744
tp5745
I1
s(g1
I94
VFile
p5746
tp5747
I1
s(g1
I838
VgetSchemeRegistry
p5748
tp5749
I1
s(g1
I202
VKeyStoreException
p5750
tp5751
I1
s(g1
I426
Vend
p5752
tp5753
I1
s(g1
I259
VrawJsonData
p5754
tp5755
I1
s(g1
I31
VInteger
p5756
tp5757
I1
s(g1
I224
VonSuccess
p5758
tp5759
I1
s(g1
I266
VgetResources
p5760
tp5761
I1
s(g1
I125
Vput
p5762
tp5763
I1
s(g1
I3031
VLinkedList
p5764
tp5765
I1
s(g1
I2991
VrequestList
p5766
tp5767
I1
s(g1
I527
VgetKey
p5768
tp5769
I1
s(g1
I74
VFile
p5770
tp5771
I3
s(g1
I31
VInputStreamReader
p5772
tp5773
I1
s(g1
I30
Vrequest
p5774
tp5775
I1
s(g1
I3872
Vsignature
p5776
tp5777
I1
s(g1
I732
Voverwritten
p5778
tp5779
I1
s(g1
I1794
VrequestList
p5780
tp5781
I1
s(g1
I294
Vcontent
p5782
tp5783
I1
s(g1
I166
VACTION_CANCEL
p5784
tp5785
I1
s(g1
I750
VRETRY_MESSAGE
p5786
tp5787
I1
s(g1
I322
VgetText
p5788
tp5789
I1
s(g1
I829
VSSLSocketFactory
p5790
tp5791
I1
s(g1
I198
VIllegalArgumentException
p5792
tp5793
I1
s(g1
I254
VSampleJSON
p5794
tp5795
I1
s(g1
I417
Vbuffer
p5796
tp5797
I2
s(g1
I32
VuriRequest
p5798
tp5799
I1
s(g1
I195
Vparse
p5800
tp5801
I1
s(g1
I273
VObject
p5802
tp5803
I1
s(g1
I900
VpostRunnable
p5804
tp5805
I1
s(g1
I242
Vresponse
p5806
tp5807
I1
s(g1
I260
Ve
p5808
tp5809
I1
s(g1
I4461
VgzippedStream
p5810
tp5811
I1
s(g1
I535
Vitem
p5812
tp5813
I1
s(g1
I440
Vstatus
p5814
tp5815
I1
s(g1
I751
Vget
p5816
tp5817
I1
s(g1
I226
VdebugFile
p5818
tp5819
I1
s(g1
I228
V_request
p5820
tp5821
I1
s(g1
I275
VLOG_TAG
p5822
tp5823
I1
s(g1
I196
Vbroadcast
p5824
tp5825
I1
s(g1
I166
VgetColoredView
p5826
tp5827
I1
s(g1
I2411
VObject
p5828
tp5829
I1
s(g1
I262
VexecutionCount
p5830
tp5831
I1
s(g1
I235
VHeader
p5832
tp5833
I1
s(g1
I295
VgetStatusCode
p5834
tp5835
I1
s(g1
I73
VString
p5836
tp5837
I1
s(g1
I379
VhttpsPort
p5838
tp5839
I1
s(g1
I758
VWeakReference
p5840
tp5841
I1
s(g1
I197
VInteger
p5842
tp5843
I1
s(g1
I1437
VTargetApi
p5844
tp5845
I1
s(g1
I514
VgetName
p5846
tp5847
I1
s(g1
I59
VresponseHandler
p5848
tp5849
I1
s(g1
I672
VobjectInputStream
p5850
tp5851
I1
s(g1
I564
VstatusCode
p5852
tp5853
I1
s(g1
I21
VgetAsyncHttpClient
p5854
tp5855
I1
s(g1
I217
Vresponse
p5856
tp5857
I1
s(g1
I549
VjsonResponse
p5858
tp5859
I1
s(g1
I297
Vput
p5860
tp5861
I2
s(g1
I268
VNullPointerException
p5862
tp5863
I1
s(g1
I138
VonDestroy
p5864
tp5865
I1
s(g1
I672
VpostRunnable
p5866
tp5867
I1
s(g1
I2154
VLooper
p5868
tp5869
I1
s(g1
I286
VIOException
p5870
tp5871
I1
s(g1
I1148
VcreateMultipartEntity
p5872
tp5873
I1
s(g1
I497
Vstatus
p5874
tp5875
I1
s(g1
I162
VOverride
p5876
tp5877
I1
s(g1
I685
Vupload
p5878
tp5879
I1
s(g1
I330
Verror
p5880
tp5881
I1
s(g1
I287
Vs
p5882
tp5883
I1
s(g1
I120
VHttpContext
p5884
tp5885
I1
s(g1
I187
VACTION_SUCCESS
p5886
tp5887
I1
s(g1
I25
Vrequest
p5888
tp5889
I1
s(g1
I133
VresponseHandler
p5890
tp5891
I1
s(g1
I161
VmAllowedContentTypes
p5892
tp5893
I1
s(g1
I1175
VsetEnableRedirects
p5894
tp5895
I1
s(g1
I1069
Ventity
p5896
tp5897
I1
s(g1
I288
Vcls
p5898
tp5899
I1
s(g1
I778
VjsonString
p5900
tp5901
I1
s(g1
I86
VRequestParams
p5902
tp5903
I1
s(g1
I699
VgetHeadersText
p5904
tp5905
I1
s(g1
I522
VgetEscapedJsonValue
p5906
tp5907
I1
s(g1
I1501
VaddEntityToRequestBase
p5908
tp5909
I1
s(g1
I408
Vbuffer
p5910
tp5911
I2
s(g1
I964
Vresponse
p5912
tp5913
I1
s(g1
I286
VgetStatusCode
p5914
tp5915
I1
s(g1
I168
Vresult
p5916
tp5917
I1
s(g1
I155
VBoolean
p5918
tp5919
I1
s(g1
I388
Vex
p5920
tp5921
I1
s(g1
I704
VUrlEncodedFormEntity
p5922
tp5923
I1
s(g1
I211
VFileNotFoundException
p5924
tp5925
I1
s(g1
I852
VsendProgressMessage
p5926
tp5927
I1
s(g1
I123
VLinearLayout
p5928
tp5929
I1
s(g1
I646
VthreadPool
p5930
tp5931
I1
s(g1
I289
VgetAllHeaders
p5932
tp5933
I1
s(g1
I264
VThrowable
p5934
tp5935
I1
s(g1
I565
VLIGHTRED
p5936
tp5937
I1
s(g1
I763
Vresult
p5938
tp5939
I1
s(g1
I2435
VrequestList
p5940
tp5941
I1
s(g1
I3267
VResponseHandlerInterface
p5942
tp5943
I1
s(g1
I4009
VURI
p5944
tp5945
I1
s(g1
I89
Vparams
p5946
tp5947
I1
s(g1
I71
VresponseBody
p5948
tp5949
I1
s(g1
I107
VisFinished
p5950
tp5951
I1
s(g1
I139
VList
p5952
tp5953
I1
s(g1
I1514
Vresult
p5954
tp5955
I1
s(g1
I339
VresponseBody
p5956
tp5957
I1
s(g1
I1137
VLog
p5958
tp5959
I1
s(g1
I270
VclientHeaderMap
p5960
tp5961
I1
s(g1
I4306
VuriRequest
p5962
tp5963
I1
s(g1
I1396
VcontentLength
p5964
tp5965
I1
s(g1
I3265
VcontentType
p5966
tp5967
I1
s(g1
I3012
VrequestHandle
p5968
tp5969
I1
s(g1
I271
VhttpParams
p5970
tp5971
I2
s(g1
I281
Vcharset
p5972
tp5973
I1
s(g1
I277
VhttpParams
p5974
tp5975
I2
s(g1
I748
VjsonString
p5976
tp5977
I1
s(g1
I577
Vappend
p5978
tp5979
I1
s(g1
I518
Vtrim
p5980
tp5981
I1
s(g1
I156
Vrun
p5982
tp5983
I1
s(g1
I124
Vresponse
p5984
tp5985
I1
s(g1
I635
VheaderValue
p5986
tp5987
I1
s(g1
I19
VCancelAllRequests
p5988
tp5989
I1
s(g1
I75
VgetTemporaryFile
p5990
tp5991
I1
s(g1
I1539
Vrequest
p5992
tp5993
I1
s(g1
I1094
VFileWrapper
p5994
tp5995
I1
s(g1
I442
Vfile
p5996
tp5997
I1
s(g1
I1843
Vkey
p5998
tp5999
I1
s(g1
I83
Vpublic
p6000
tp6001
I116
s(g1
I63
VisFinished
p6002
tp6003
I1
s(g1
I1081
Ventry
p6004
tp6005
I1
s(g1
I173
VMessage
p6006
tp6007
I1
s(g1
I724
Vkey
p6008
tp6009
I1
s(g1
I2840
VRequestParams
p6010
tp6011
I1
s(g1
I160
VdestFile
p6012
tp6013
I1
s(g1
I241
VcontentType
p6014
tp6015
I1
s(g1
I253
Ve
p6016
tp6017
I1
s(g1
I92
VisRequestBodyAllowed
p6018
tp6019
I1
s(g1
I292
VHttpResponseException
p6020
tp6021
I1
s(g1
I970
VhttpParams
p6022
tp6023
I1
s(g1
I213
Vi
p6024
tp6025
I1
s(g1
I713
Vheader
p6026
tp6027
I1
s(g1
I174
VresponseBody
p6028
tp6029
I1
s(g1
I220
Vcookie
p6030
tp6031
I1
s(g1
I413
VDEFAULT_CHARSET
p6032
tp6033
I1
s(g1
I276
Vclient
p6034
tp6035
I1
s(g1
I1535
Vheaders
p6036
tp6037
I1
s(g1
I74
VLog
p6038
tp6039
I1
s(g1
I144
VsetChecked
p6040
tp6041
I1
s(g1
I621
VJSONObject
p6042
tp6043
I1
s(g1
I538
Vitem
p6044
tp6045
I1
s(g1
I561
VschemeRegistry
p6046
tp6047
I1
s(g1
I818
VString
p6048
tp6049
I1
s(g1
I684
VtoString
p6050
tp6051
I1
s(g1
I302
Ve1
p6052
tp6053
I1
s(g1
I670
Vwrite
p6054
tp6055
I1
s(g1
I1054
VclearBasicAuth
p6056
tp6057
I1
s(g1
I47
VmayInterruptIfRunning
p6058
tp6059
I1
s(g1
I1954
Vcredentials
p6060
tp6061
I1
s(g1
I244
VrawJsonData
p6062
tp6063
I1
s(g1
I64
Vclient
p6064
tp6065
I1
s(g1
I1512
Vvalue
p6066
tp6067
I1
s(g1
I514
Vhost
p6068
tp6069
I1
s(g1
I801
VHttpParams
p6070
tp6071
I1
s(g1
I172
VrssReader
p6072
tp6073
I1
s(g1
I360
VsslSocketFactory
p6074
tp6075
I1
s(g1
I573
VStringBuilder
p6076
tp6077
I1
s(g1
I1040
VgetResponseData
p6078
tp6079
I1
s(g1
I159
Vrun
p6080
tp6081
I1
s(g1
I72
VmFile
p6082
tp6083
I1
s(g1
I2356
VhttpDelete
p6084
tp6085
I1
s(g1
I1038
VmissingLooper
p6086
tp6087
I1
s(g1
I1497
VfileArrayParams
p6088
tp6089
I1
s(g1
I31
Vuri
p6090
tp6091
I1
s(g1
I547
Vvalue
p6092
tp6093
I1
s(g1
I822
VAuthScope
p6094
tp6095
I1
s(g1
I266
Vresponse
p6096
tp6097
I1
s(g1
I159
VString
p6098
tp6099
I1
s(g1
I52
VRequestHandle
p6100
tp6101
I1
s(g1
I307
Ventity
p6102
tp6103
I1
s(g1
I92
VgetTargetFile
p6104
tp6105
I1
s(g1
I4098
VgetUseSynchronousMode
p6106
tp6107
I1
s(g1
I255
VauthType
p6108
tp6109
I1
s(g1
I282
VgetURI
p6110
tp6111
I1
s(g1
I136
VsetOrientation
p6112
tp6113
I1
s(g1
I115
VallowedContentTypes
p6114
tp6115
I1
s(g1
I1574
VclientHeaderMap
p6116
tp6117
I1
s(g1
I697
Vupload
p6118
tp6119
I1
s(g1
I179
VstartsWith
p6120
tp6121
I1
s(g1
I314
VEntityUtils
p6122
tp6123
I1
s(g1
I250
VresponseBody
p6124
tp6125
I1
s(g1
I65
VCredentialsProvider
p6126
tp6127
I1
s(g1
I5258
VInputStream
p6128
tp6129
I1
s(g1
I157
VFINISH_MESSAGE
p6130
tp6131
I1
s(g1
I161
Vitem
p6132
tp6133
I1
s(g1
I649
VthreadPool
p6134
tp6135
I1
s(g1
I649
Vregister
p6136
tp6137
I1
s(g1
I1011
VauthState
p6138
tp6139
I1
s(g1
I413
VgetStatusLine
p6140
tp6141
I1
s(g1
I606
VgetBytes
p6142
tp6143
I1
s(g1
I307
VaddClassToBlacklist
p6144
tp6145
I1
s(g1
I142
Vstates
p6146
tp6147
I1
s(g1
I752
VJSONTokener
p6148
tp6149
I1
s(g1
I291
Vcause
p6150
tp6151
I1
s(g1
I1508
Vvalue
p6152
tp6153
I1
s(g1
I660
VString
p6154
tp6155
I1
s(g1
I2162
VOverride
p6156
tp6157
I1
s(g1
I120
VFileAsyncHttpResponseHandler
p6158
tp6159
I1
s(g1
I687
Vfile
p6160
tp6161
I1
s(g1
I381
VstatusCode
p6162
tp6163
I1
s(g1
I413
VurlParamsWithArray
p6164
tp6165
I1
s(g1
I149
VIOException
p6166
tp6167
I1
s(g1
I429
VmissingLooper
p6168
tp6169
I1
s(g1
I3865
Vsignature
p6170
tp6171
I1
s(g1
I113
VFileAsyncHttpResponseHandler
p6172
tp6173
I1
s(g1
I85
Vfile
p6174
tp6175
I3
s(g1
I119
VIOException
p6176
tp6177
I1
s(g1
I2860
VresponseHandler
p6178
tp6179
I1
s(g1
I262
VsetText
p6180
tp6181
I1
s(g1
I294
VgenerateCertificate
p6182
tp6183
I1
s(g1
I564
VString
p6184
tp6185
I1
s(g1
I332
VgetResponseString
p6186
tp6187
I1
s(g1
I675
Vupload
p6188
tp6189
I1
s(g1
I531
VgetHostnameVerifier
p6190
tp6191
I1
s(g1
I444
VresponseHandler
p6192
tp6193
I1
s(g1
I2337
VresponseHandler
p6194
tp6195
I1
s(g1
I276
VurlLayout
p6196
tp6197
I1
s(g1
I796
Vhostname
p6198
tp6199
I1
s(g1
I105
VBUFFER_SIZE
p6200
tp6201
I1
s(g1
I285
Vout
p6202
tp6203
I1
s(g1
I546
VthreadPool
p6204
tp6205
I1
s(g1
I277
Vbuffer
p6206
tp6207
I1
s(g1
I125
VgetTitlesList
p6208
tp6209
I1
s(g1
I290
VOverride
p6210
tp6211
I1
s(g1
I87
VRequestParams
p6212
tp6213
I1
s(g1
I963
VgetParams
p6214
tp6215
I1
s(g1
I580
VfloatValue
p6216
tp6217
I1
s(g1
I807
VOverride
p6218
tp6219
I1
s(g1
I149
VallowedContentTypes
p6220
tp6221
I1
s(g1
I931
Vusername
p6222
tp6223
I1
s(g1
I351
VTAG
p6224
tp6225
I1
s(g1
I157
VHttpResponse
p6226
tp6227
I1
s(g1
I465
VjsonParams
p6228
tp6229
I1
s(g1
I193
Vlocation
p6230
tp6231
I1
s(g1
I48
VIOException
p6232
tp6233
I1
s(g1
I825
VUTF8_BOM
p6234
tp6235
I1
s(g1
I198
VURISyntaxException
p6236
tp6237
I1
s(g1
I556
VjsonResponse
p6238
tp6239
I1
s(g1
I944
Vkey
p6240
tp6241
I1
s(g1
I1389
Vtmp
p6242
tp6243
I1
s(g1
I738
VAlertDialog
p6244
tp6245
I1
s(g1
I963
VBoolean
p6246
tp6247
I1
s(g1
I657
VString
p6248
tp6249
I1
s(g1
I774
VjsonString
p6250
tp6251
I1
s(g1
I137
VallowedContentTypes
p6252
tp6253
I1
s(g1
I193
Ve
p6254
tp6255
I1
s(g1
I1434
VsetAsyncHttpClient
p6256
tp6257
I1
s(g1
I290
VresponseHandler
p6258
tp6259
I1
s(g1
I247
VerrorResponse
p6260
tp6261
I1
s(g1
I278
VcancelButton
p6262
tp6263
I1
s(g1
I238
Vparams
p6264
tp6265
I1
s(g1
I211
VString
p6266
tp6267
I1
s(g1
I517
Vcookie
p6268
tp6269
I1
s(g1
I796
Vport
p6270
tp6271
I1
s(g1
I363
Vlooper
p6272
tp6273
I1
s(g1
I284
VisRequestHeadersAllowed
p6274
tp6275
I1
s(g1
I481
VomitNonPersistentCookies
p6276
tp6277
I1
s(g1
I339
VgetOriginalFile
p6278
tp6279
I1
s(g1
I1011
VsetCredentials
p6280
tp6281
I1
s(g1
I439
Vfile
p6282
tp6283
I1
s(g1
I284
Vcount
p6284
tp6285
I1
s(g1
I734
VLog
p6286
tp6287
I1
s(g1
I362
Vl
p6288
tp6289
I1
s(g1
I749
VurlParams
p6290
tp6291
I1
s(g1
I1106
Ventry
p6292
tp6293
I1
s(g1
I947
VString
p6294
tp6295
I1
s(g1
I274
VObject
p6296
tp6297
I1
s(g1
I97
VcreateTempFile
p6298
tp6299
I1
s(g1
I262
VsocketTimeout
p6300
tp6301
I1
s(g1
I240
VisRequestHeadersAllowed
p6302
tp6303
I1
s(g1
I157
Ve
p6304
tp6305
I1
s(g1
I1129
VObject
p6306
tp6307
I1
s(g1
I837
Vheader
p6308
tp6309
I1
s(g1
I625
VString
p6310
tp6311
I1
s(g1
I544
VThreadPoolExecutor
p6312
tp6313
I1
s(g1
I843
Vl
p6314
tp6315
I1
s(g1
I205
Vlocation
p6316
tp6317
I1
s(g1
I1530
Ventity
p6318
tp6319
I1
s(g1
I1025
Vcredentials
p6320
tp6321
I1
s(g1
I209
VCookie
p6322
tp6323
I2
s(g1
I405
Vex
p6324
tp6325
I1
s(g1
I1035
Vcredentials
p6326
tp6327
I1
s(g1
I4087
VresponseHandler
p6328
tp6329
I1
s(g1
I63
Vc
p6330
tp6331
I1
s(g1
I283
Ve
p6332
tp6333
I1
s(g1
I959
VmaxConnections
p6334
tp6335
I1
s(g1
I435
VResponderHandler
p6336
tp6337
I1
s(g1
I3257
VhttpContext
p6338
tp6339
I1
s(g1
I207
VLOG_TAG
p6340
tp6341
I1
s(g1
I337
Vput
p6342
tp6343
I1
s(g1
I405
VheaderName
p6344
tp6345
I1
s(g1
I270
VstatusCode
p6346
tp6347
I1
s(g1
I56
VmayInterruptIfRunning
p6348
tp6349
I1
s(g1
I1004
VBasicScheme
p6350
tp6351
I1
s(g1
I39
VonCreate
p6352
tp6353
I1
s(g1
I666
VInteger
p6354
tp6355
I1
s(g1
I1193
VRedirectHandler
p6356
tp6357
I1
s(g1
I898
VjsonString
p6358
tp6359
I1
s(g1
I297
VrequestHandles
p6360
tp6361
I1
s(g1
I23
VLOG_TAG
p6362
tp6363
I1
s(g1
I260
Vclient
p6364
tp6365
I1
s(g1
I3276
VresponseHandler
p6366
tp6367
I1
s(g1
I1816
Vvalue
p6368
tp6369
I1
s(g1
I168
VonDestroy
p6370
tp6371
I1
s(g1
I279
Vresponse
p6372
tp6373
I1
s(g1
I128
VcurrentThread
p6374
tp6375
I1
s(g1
I1124
VHeader
p6376
tp6377
I1
s(g1
I586
Vrequest
p6378
tp6379
I1
s(g1
I67
VJSONTokener
p6380
tp6381
I1
s(g1
I174
VonFailure
p6382
tp6383
I1
s(g1
I297
VLog
p6384
tp6385
I1
s(g1
I290
Vheaders
p6386
tp6387
I1
s(g1
I503
VisFileWrapper
p6388
tp6389
I1
s(g1
I546
Vsocket
p6390
tp6391
I1
s(g1
I473
Vwrite
p6392
tp6393
I1
s(g1
I1674
VsetAuthenticationPreemptive
p6394
tp6395
I1
s(g1
I2276
Vencoder
p6396
tp6397
I1
s(g1
I664
Vescape
p6398
tp6399
I1
s(g1
I5
VThreadingTimeoutSample
p6400
tp6401
I2
s(g1
I36
VcontentType
p6402
tp6403
I1
s(g1
I344
VAsyncHttpResponseHandler
p6404
tp6405
I1
s(g1
I4081
VString
p6406
tp6407
I1
s(g1
I340
VjsonResponse
p6408
tp6409
I1
s(g1
I790
VHttpHost
p6410
tp6411
I1
s(g1
I238
Vurl
p6412
tp6413
I1
s(g1
I632
Vsubstring
p6414
tp6415
I1
s(g1
I214
Ve
p6416
tp6417
I1
s(g1
I9
VOverride
p6418
tp6419
I1
s(g1
I1203
Vrun
p6420
tp6421
I1
s(g1
I258
Ve
p6422
tp6423
I1
s(g1
I154
Vtitle
p6424
tp6425
I1
s(g1
I1750
VnestedValueIndex
p6426
tp6427
I1
s(g1
I69
VresponseBody
p6428
tp6429
I1
s(g1
I583
Vresponse
p6430
tp6431
I1
s(g1
I435
VInteger
p6432
tp6433
I1
s(g1
I93
VBinaryHttpResponseHandler
p6434
tp6435
I1
s(g1
I332
VException
p6436
tp6437
I1
s(g1
I125
Vfile
p6438
tp6439
I1
s(g1
I121
VdebugThrowable
p6440
tp6441
I1
s(g1
I505
VgetStatusCode
p6442
tp6443
I1
s(g1
I36
VAsyncHttpClient
p6444
tp6445
I1
s(g1
I4106
VhttpClient
p6446
tp6447
I1
s(g1
I289
Vresponse
p6448
tp6449
I1
s(g1
I566
Vkey
p6450
tp6451
I1
s(g1
I62
VAsyncHttpResponseHandler
p6452
tp6453
I1
s(g1
I149
VonPrepareOptionsMenu
p6454
tp6455
I1
s(g1
I56
VgetRequestHandles
p6456
tp6457
I1
s(g1
I1139
VString
p6458
tp6459
I1
s(g1
I1045
VThread
p6460
tp6461
I1
s(g1
I441
VresponseHandler
p6462
tp6463
I1
s(g1
I171
VJSON_TYPE
p6464
tp6465
I1
s(g1
I375
VUtils
p6466
tp6467
I1
s(g1
I579
VString
p6468
tp6469
I1
s(g1
I230
VRequestParams
p6470
tp6471
I1
s(g1
I393
VLOG_TAG
p6472
tp6473
I1
s(g1
I121
Vhandler
p6474
tp6475
I1
s(g1
I3697
VCollections
p6476
tp6477
I1
s(g1
I691
Vresponse
p6478
tp6479
I1
s(g1
I301
Ve
p6480
tp6481
I1
s(g1
I772
VhandleMessage
p6482
tp6483
I1
s(g1
I310
Vvalue
p6484
tp6485
I1
s(g1
I257
VhandleSuccessJsonMessage
p6486
tp6487
I1
s(g1
I48
VresponseBody
p6488
tp6489
I1
s(g1
I1108
VlogLevel
p6490
tp6491
I1
s(g1
I163
VJSONException
p6492
tp6493
I1
s(g1
I657
Vresponse
p6494
tp6495
I1
s(g1
I142
VstatusCode
p6496
tp6497
I1
s(g1
I121
VFile
p6498
tp6499
I1
s(g1
I1036
VmSizeChangedListener
p6500
tp6501
I1
s(g1
I896
VBufferedHttpEntity
p6502
tp6503
I1
s(g1
I3134
VString
p6504
tp6505
I1
s(g1
I608
VFINISH_MESSAGE
p6506
tp6507
I1
s(g1
I54
VAsyncHttpResponseHandler
p6508
tp6509
I1
s(g1
I294
VcaInput
p6510
tp6511
I1
s(g1
I159
VsetFillViewport
p6512
tp6513
I1
s(g1
I116
VrssReader
p6514
tp6515
I1
s(g1
I322
VMessage
p6516
tp6517
I1
s(g1
I871
VOutOfMemoryError
p6518
tp6519
I1
s(g1
I311
Vretry
p6520
tp6521
I1
s(g1
I305
VresponseHandler
p6522
tp6523
I1
s(g1
I490
VIllegalArgumentException
p6524
tp6525
I1
s(g1
I1564
Vheader
p6526
tp6527
I1
s(g1
I349
VString
p6528
tp6529
I1
s(g1
I3017
VRequestHandle
p6530
tp6531
I1
s(g1
I85
VThread
p6532
tp6533
I1
s(g1
I1025
Vresponse
p6534
tp6535
I1
s(g1
I1022
Vrunnable
p6536
tp6537
I1
s(g1
I550
VPROTOCOL_HTTP
p6538
tp6539
I1
s(g1
I594
VjsonString
p6540
tp6541
I1
s(g1
I156
Vd
p6542
tp6543
I2
s(g1
I305
Ve1
p6544
tp6545
I1
s(g1
I42
VHttpContext
p6546
tp6547
I1
s(g1
I301
VSUCCESS_JSON_MESSAGE
p6548
tp6549
I1
s(g1
I491
VwriteToFromFile
p6550
tp6551
I1
s(g1
I832
Vpass
p6552
tp6553
I1
s(g1
I69
Vrequest
p6554
tp6555
I1
s(g1
I60
VAsyncHttpClient
p6556
tp6557
I1
s(g1
I220
VOverride
p6558
tp6559
I1
s(g1
I647
VclientHeaderMap
p6560
tp6561
I1
s(g1
I718
Ve
p6562
tp6563
I1
s(g1
I332
VurlParams
p6564
tp6565
I1
s(g1
I340
VLog
p6566
tp6567
I1
s(g1
I4199
Vfields
p6568
tp6569
I1
s(g1
I126
VJSONException
p6570
tp6571
I1
s(g1
I373
VmultipartEntity
p6572
tp6573
I1
s(g1
I53
VString
p6574
tp6575
I1
s(g1
I1842
Vvalue
p6576
tp6577
I1
s(g1
I260
VcancelButton
p6578
tp6579
I1
s(g1
I275
VdebugThrowable
p6580
tp6581
I1
s(g1
I99
Vrun
p6582
tp6583
I1
s(g1
I3151
VparamString
p6584
tp6585
I1
s(g1
I267
VIOException
p6586
tp6587
I1
s(g1
I297
Vfin
p6588
tp6589
I1
s(g1
I545
VobtainMessage
p6590
tp6591
I1
s(g1
I141
Vstates
p6592
tp6593
I1
s(g1
I692
Vwrite
p6594
tp6595
I2
s(g1
I649
Vstart
p6596
tp6597
I1
s(g1
I203
VString
p6598
tp6599
I1
s(g1
I155
VresponseHandler
p6600
tp6601
I1
s(g1
I1175
VenableRedirects
p6602
tp6603
I3
s(g1
I3709
VrequestMap
p6604
tp6605
I1
s(g1
I107
Vheaders
p6606
tp6607
I1
s(g1
I265
VcancelButton
p6608
tp6609
I1
s(g1
I1004
VEntityUtils
p6610
tp6611
I1
s(g1
I213
VLog
p6612
tp6613
I1
s(g1
I217
Vfile
p6614
tp6615
I1
s(g1
I437
VMath
p6616
tp6617
I1
s(g1
I1507
VmayInterruptIfRunning
p6618
tp6619
I1
s(g1
I819
Vtrim
p6620
tp6621
I1
s(g1
I139
VScrollView
p6622
tp6623
I1
s(g1
I346
VObject
p6624
tp6625
I1
s(g1
I377
Vthrowable
p6626
tp6627
I1
s(g1
I131
Vheaders
p6628
tp6629
I1
s(g1
I389
VerrorResponse
p6630
tp6631
I1
s(g1
I149
Vput
p6632
tp6633
I1
s(g1
I815
Vget
p6634
tp6635
I1
s(g1
I4059
VshouldEncodeUrl
p6636
tp6637
I1
s(g1
I128
VDEFAULT_CHARSET
p6638
tp6639
I1
s(g1
I427
VresultLength
p6640
tp6641
I1
s(g1
I248
VgetHttpRequestRetryHandler
p6642
tp6643
I1
s(g1
I359
VMySSLSocketFactory
p6644
tp6645
I1
s(g1
I129
VinputStreamReader
p6646
tp6647
I1
s(g1
I245
Vwrite
p6648
tp6649
I1
s(g1
I765
Vwrapper
p6650
tp6651
I1
s(g1
I221
VbodyText
p6652
tp6653
I1
s(g1
I491
Vcls
p6654
tp6655
I1
s(g1
I886
VRunnable
p6656
tp6657
I1
s(g1
I148
VaddHeader
p6658
tp6659
I1
s(g1
I237
VexecuteSample
p6660
tp6661
I1
s(g1
I728
Vadd
p6662
tp6663
I1
s(g1
I297
VException
p6664
tp6665
I1
s(g1
I289
VsetTcpNoDelay
p6666
tp6667
I1
s(g1
I206
Vi
p6668
tp6669
I1
s(g1
I680
VSTREAM_NAME
p6670
tp6671
I1
s(g1
I1499
Vurl
p6672
tp6673
I1
s(g1
I761
Vos
p6674
tp6675
I1
s(g1
I171
Vsparser
p6676
tp6677
I1
s(g1
I279
VString
p6678
tp6679
I1
s(g1
I84
VgetTargetFile
p6680
tp6681
I1
s(g1
I115
VgetXMLReader
p6682
tp6683
I1
s(g1
I989
VDefaultHttpClient
p6684
tp6685
I1
s(g1
I279
Verror
p6686
tp6687
I1
s(g1
I435
Vheaders
p6688
tp6689
I1
s(g1
I2609
VString
p6690
tp6691
I1
s(g1
I752
VrequestList
p6692
tp6693
I1
s(g1
I190
Vlen
p6694
tp6695
I1
s(g1
I128
VuriRequest
p6696
tp6697
I1
s(g1
I3005
VrequestList
p6698
tp6699
I1
s(g1
I1017
Ventity
p6700
tp6701
I1
s(g1
I829
Vheader
p6702
tp6703
I1
s(g1
I1100
VfileParams
p6704
tp6705
I1
s(g1
I1123
VMessage
p6706
tp6707
I1
s(g1
I564
VthrowableToString
p6708
tp6709
I1
s(g1
I654
Vi
p6710
tp6711
I1
s(g1
I682
Vwrite
p6712
tp6713
I1
s(g1
I310
Vresponse
p6714
tp6715
I2
s(g1
I368
VTAG
p6716
tp6717
I1
s(g1
I4078
VuriRequest
p6718
tp6719
I1
s(g1
I549
Vappend
p6720
tp6721
I1
s(g1
I198
VresponseHandler
p6722
tp6723
I1
s(g1
I295
Vfile
p6724
tp6725
I1
s(g1
I61
VresponseBody
p6726
tp6727
I1
s(g1
I1786
VrequestHandle
p6728
tp6729
I1
s(g1
I604
VonStart
p6730
tp6731
I1
s(g1
I531
VmultipartEntity
p6732
tp6733
I1
s(g1
I859
Vclose
p6734
tp6735
I1
s(g1
I607
Vwrite
p6736
tp6737
I1
s(g1
I395
VTAG
p6738
tp6739
I1
s(g1
I503
VgetBytes
p6740
tp6741
I1
s(g1
I108
VallowedContentTypes
p6742
tp6743
I1
s(g1
I756
VcontentType
p6744
tp6745
I1
s(g1
I639
VgetConnectionManager
p6746
tp6747
I1
s(g1
I190
Vurl
p6748
tp6749
I1
s(g1
I79
VmyLooper
p6750
tp6751
I1
s(g1
I431
Vresponse
p6752
tp6753
I1
s(g1
I183
Vheaders
p6754
tp6755
I1
s(g1
I3573
VhttpClient
p6756
tp6757
I1
s(g1
I233
VToast
p6758
tp6759
I1
s(g1
I148
VcontentType
p6760
tp6761
I1
s(g1
I74
VgetTemporaryFile
p6762
tp6763
I1
s(g1
I260
Vexecute
p6764
tp6765
I1
s(g1
I1086
VFAILURE_MESSAGE
p6766
tp6767
I1
s(g1
I557
VSocket
p6768
tp6769
I1
s(g1
I122
VonSuccess
p6770
tp6771
I1
s(g1
I331
VresponseHandler
p6772
tp6773
I1
s(g1
I306
VJSONException
p6774
tp6775
I1
s(g1
I521
VHttpPost
p6776
tp6777
I1
s(g1
I211
VhandleSuccessMessage
p6778
tp6779
I1
s(g1
I412
Vfile
p6780
tp6781
I1
s(g1
I284
VgetScheme
p6782
tp6783
I1
s(g1
I164
Vstart
p6784
tp6785
I1
s(g1
I1212
VAssertUtils
p6786
tp6787
I1
s(g1
I154
VACTION_FINISH
p6788
tp6789
I1
s(g1
I514
VinjectHostname
p6790
tp6791
I1
s(g1
I530
VgetValue
p6792
tp6793
I1
s(g1
I1949
VCredentials
p6794
tp6795
I1
s(g1
I2881
VresponseHandler
p6796
tp6797
I1
s(g1
I529
Vvalue
p6798
tp6799
I2
s(g1
I632
Vline
p6800
tp6801
I1
s(g1
I2708
VresponseHandler
p6802
tp6803
I1
s(g1
I509
Vupload
p6804
tp6805
I1
s(g1
I732
VList
p6806
tp6807
I1
s(g1
I953
Vpassword
p6808
tp6809
I1
s(g1
I482
Vwrite
p6810
tp6811
I1
s(g1
I183
VresponseBody
p6812
tp6813
I1
s(g1
I967
VhttpClient
p6814
tp6815
I1
s(g1
I194
Vlen
p6816
tp6817
I1
s(g1
I1830
Vparams
p6818
tp6819
I1
s(g1
I221
Vput
p6820
tp6821
I1
s(g1
I756
Vinit
p6822
tp6823
I1
s(g1
I231
Vheaders
p6824
tp6825
I1
s(g1
I281
VmakeRequest
p6826
tp6827
I1
s(g1
I4187
VgetName
p6828
tp6829
I1
s(g1
I658
VgetFirstHeader
p6830
tp6831
I1
s(g1
I1028
VmyLooper
p6832
tp6833
I1
s(g1
I936
VLOG_TAG
p6834
tp6835
I1
s(g1
I140
VLOG_TAG
p6836
tp6837
I1
s(g1
I197
Ventity
p6838
tp6839
I1
s(g1
I391
VhttpPort
p6840
tp6841
I1
s(g1
I951
VString
p6842
tp6843
I1
s(g1
I298
VSocketTimeoutException
p6844
tp6845
I1
s(g1
I197
Vfiledata
p6846
tp6847
I1
s(g1
I3005
VrequestMap
p6848
tp6849
I1
s(g1
I768
Vhandler
p6850
tp6851
I1
s(g1
I231
Ve
p6852
tp6853
I1
s(g1
I174
VgetTargetFile
p6854
tp6855
I1
s(g1
I1123
Vresponse
p6856
tp6857
I1
s(g1
I2838
Vurl
p6858
tp6859
I1
s(g1
I312
VresponseBody
p6860
tp6861
I1
s(g1
I1129
Vresponse
p6862
tp6863
I1
s(g1
I500
Vos
p6864
tp6865
I1
s(g1
I964
VhttpParams
p6866
tp6867
I1
s(g1
I281
VNullPointerException
p6868
tp6869
I1
s(g1
I230
VLog
p6870
tp6871
I1
s(g1
I286
VprintThrowable
p6872
tp6873
I1
s(g1
I314
Ventity
p6874
tp6875
I1
s(g1
I258
VMessage
p6876
tp6877
I1
s(g1
I218
VLog
p6878
tp6879
I1
s(g1
I272
VretryRequest
p6880
tp6881
I1
s(g1
I841
VclientHeaderMap
p6882
tp6883
I1
s(g1
I120
VdebugStatusCode
p6884
tp6885
I1
s(g1
I708
Vstatus
p6886
tp6887
I1
s(g1
I1959
VLOG_TAG
p6888
tp6889
I1
s(g1
I2717
Vt
p6890
tp6891
I1
s(g1
I51
VSocketTimeoutException
p6892
tp6893
I1
s(g1
I156
VString
p6894
tp6895
I1
s(g1
I168
VgetTitlesList
p6896
tp6897
I1
s(g1
I1029
VhttpClient
p6898
tp6899
I1
s(g1
I232
Vparams
p6900
tp6901
I1
s(g1
I112
VCredentials
p6902
tp6903
I1
s(g1
I196
VRequestParams
p6904
tp6905
I1
s(g1
I2834
VisUrlEncodingEnabled
p6906
tp6907
I1
s(g1
I183
VLog
p6908
tp6909
I1
s(g1
I692
Vupload
p6910
tp6911
I1
s(g1
I643
VfileWrappers
p6912
tp6913
I1
s(g1
I647
VkeySet
p6914
tp6915
I1
s(g1
I291
VaddClassToWhitelist
p6916
tp6917
I1
s(g1
I579
Ventry
p6918
tp6919
I1
s(g1
I534
Vparams
p6920
tp6921
I1
s(g1
I577
VHttpProtocolParams
p6922
tp6923
I1
s(g1
I324
Vmsg
p6924
tp6925
I1
s(g1
I44
VgetSampleTitle
p6926
tp6927
I1
s(g1
I1747
VArrayList
p6928
tp6929
I1
s(g1
I617
Vvalues
p6930
tp6931
I1
s(g1
I997
VHttpUriRequest
p6932
tp6933
I1
s(g1
I263
VThread
p6934
tp6935
I1
s(g1
I675
Vwrite
p6936
tp6937
I1
s(g1
I296
Vca
p6938
tp6939
I1
s(g1
I283
VparseResponse
p6940
tp6941
I1
s(g1
I1202
VThrowable
p6942
tp6943
I1
s(g1
I204
VOverride
p6944
tp6945
I3
s(g1
I370
VObject
p6946
tp6947
I1
s(g1
I154
Vparams
p6948
tp6949
I1
s(g1
I837
VhttpClient
p6950
tp6951
I1
s(g1
I612
VString
p6952
tp6953
I1
s(g1
I2850
Vurl
p6954
tp6955
I1
s(g1
I206
VAsyncHttpClient
p6956
tp6957
I1
s(g1
I283
VInteger
p6958
tp6959
I1
s(g1
I279
VdebugFile
p6960
tp6961
I1
s(g1
I427
VmyLooper
p6962
tp6963
I1
s(g1
I1031
VgetCredentialsProvider
p6964
tp6965
I1
s(g1
I218
Ve
p6966
tp6967
I2
s(g1
I537
Vhandler
p6968
tp6969
I1
s(g1
I700
VonSuccess
p6970
tp6971
I1
s(g1
I1154
VArrayList
p6972
tp6973
I1
s(g1
I83
Vprotected
p6974
tp6975
I31
s(g1
I888
Vr
p6976
tp6977
I1
s(g1
I407
VString
p6978
tp6979
I1
s(g1
I156
VLog
p6980
tp6981
I2
s(g1
I224
V_request
p6982
tp6983
I1
s(g1
I70
g734
tp6984
I18
s(g1
I435
VonFailure
p6985
tp6986
I1
s(g1
I185
VString
p6987
tp6988
I1
s(g1
I143
VcontentType
p6989
tp6990
I1
s(g1
I1145
VgetUrlWithQueryString
p6991
tp6992
I1
s(g1
I992
VMediaPlayer
p6993
tp6994
I1
s(g1
I546
VdeleteCookie
p6995
tp6996
I1
s(g1
I223
VDate
p6997
tp6998
I1
s(g1
I552
VhttpParams
p6999
tp7000
I1
s(g1
I304
VtoReturn
p7001
tp7002
I1
s(g1
I170
VresponseHandler
p7003
tp7004
I1
s(g1
I619
VequalSignPos
p7005
tp7006
I1
s(g1
I156
VcontentEncoding
p7007
tp7008
I1
s(g1
I733
Vformat
p7009
tp7010
I1
s(g1
I3279
VresponseHandler
p7011
tp7012
I1
s(g1
I290
VprintHeaders
p7013
tp7014
I1
s(g1
I324
VusePoolThread
p7015
tp7016
I1
s(g1
I683
Vkey
p7017
tp7018
I1
s(g1
I611
VresponseHandler
p7019
tp7020
I1
s(g1
I411
VMessage
p7021
tp7022
I1
s(g1
I944
Vremove
p7023
tp7024
I1
s(g1
I133
VToast
p7025
tp7026
I1
s(g1
I270
VSUCCESS_MESSAGE
p7027
tp7028
I1
s(g1
I2881
VsetRequestHeaders
p7029
tp7030
I1
s(g1
I274
VretryRequest
p7031
tp7032
I1
s(g1
I307
VHttpEntity
p7033
tp7034
I1
s(g1
I634
VFileWrapper
p7035
tp7036
I1
s(g1
I156
VObject
p7037
tp7038
I1
s(g1
I291
Vinstream
p7039
tp7040
I1
s(g1
I636
VsetUserAgent
p7041
tp7042
I1
s(g1
I274
Vcontext
p7043
tp7044
I1
s(g1
I3990
VString
p7045
tp7046
I1
s(g1
I771
Vrequest
p7047
tp7048
I1
s(g1
I109
VHeader
p7049
tp7050
I1
s(g1
I1035
VsetCredentials
p7051
tp7052
I1
s(g1
I735
Vkey
p7053
tp7054
I1
s(g1
I503
Vline
p7055
tp7056
I1
s(g1
I1020
VRunnable
p7057
tp7058
I1
s(g1
I320
Vclient
p7059
tp7060
I1
s(g1
I986
Vtemp
p7061
tp7062
I1
s(g1
I134
VkeyAt
p7063
tp7064
I1
s(g1
I1830
VaddAll
p7065
tp7066
I1
s(g1
I624
Vex
p7067
tp7068
I1
s(g1
I302
VsetUseSynchronousMode
p7069
tp7070
I1
s(g1
I300
VRequestHandle
p7071
tp7072
I1
s(g1
I140
Vcontext
p7073
tp7074
I1
s(g1
I67
Vc
p7075
tp7076
I1
s(g1
I41
VLeakCanary
p7077
tp7078
I1
s(g1
I1791
VrequestHandle
p7079
tp7080
I1
s(g1
I561
VhttpParams
p7081
tp7082
I1
s(g1
I291
VresponseHandler
p7083
tp7084
I1
s(g1
I794
VjsonString
p7085
tp7086
I1
s(g1
I1098
Vresponse
p7087
tp7088
I1
s(g1
I379
Vl
p7089
tp7090
I1
s(g1
I1514
Vremove
p7091
tp7092
I1
s(g1
I302
VConnectTimeoutException
p7093
tp7094
I1
s(g1
I1631
Vscope
p7095
tp7096
I1
s(g1
I379
Vtmp
p7097
tp7098
I1
s(g1
I1646
VisPreemtive
p7099
tp7100
I1
s(g1
I272
Vthrown
p7101
tp7102
I1
s(g1
I524
VHttpEntity
p7103
tp7104
I1
s(g1
I4073
VContext
p7105
tp7106
I1
s(g1
I4467
VpushbackStream
p7107
tp7108
I1
s(g1
I453
VgetUseSynchronousMode
p7109
tp7110
I1
s(g1
I271
VConnManagerParams
p7111
tp7112
I1
s(g1
I283
VsetSoTimeout
p7113
tp7114
I2
s(g1
I658
Vupload
p7115
tp7116
I1
s(g1
I2715
VThrowable
p7117
tp7118
I1
s(g1
I38
VHttpPatch
p7119
tp7120
I1
s(g1
I339
VheadersRaw
p7121
tp7122
I1
s(g1
I683
Ve
p7123
tp7124
I1
s(g1
I59
VHttpPatch
p7125
tp7126
I1
s(g1
I298
VhandleSuccessMessage
p7127
tp7128
I1
s(g1
I848
Vbuffer
p7129
tp7130
I1
s(g1
I145
VArrayList
p7131
tp7132
I1
s(g1
I292
VresponseHandler
p7133
tp7134
I1
s(g1
I145
VinputStreamReader
p7135
tp7136
I1
s(g1
I1177
VThread
p7137
tp7138
I1
s(g1
I312
VcontentTypeHeader
p7139
tp7140
I1
s(g1
I61
Vstart
p7141
tp7142
I1
s(g1
I1820
VObject
p7143
tp7144
I1
s(g1
I1947
VauthScope
p7145
tp7146
I1
s(g1
I859
Vinstream
p7147
tp7148
I1
s(g1
I590
VindexOf
p7149
tp7150
I1
s(g1
I49
Vline
p7151
tp7152
I1
s(g1
I179
VString
p7153
tp7154
I1
s(g1
I322
VheadersEditText
p7155
tp7156
I1
s(g1
I438
Vcause
p7157
tp7158
I1
s(g1
I4106
VhttpContext
p7159
tp7160
I1
s(g1
I3012
VrequestList
p7161
tp7162
I1
s(g1
I199
VsetContentEncoding
p7163
tp7164
I1
s(g1
I783
VjsonString
p7165
tp7166
I1
s(g1
I357
VobtainMessage
p7167
tp7168
I1
s(g1
I321
Vretry
p7169
tp7170
I1
s(g1
I66
Vc
p7171
tp7172
I1
s(g1
I57
Vcontext
p7173
tp7174
I1
s(g1
I707
VdefaultText
p7175
tp7176
I1
s(g1
I1183
Vrunnable
p7177
tp7178
I1
s(g1
I200
Ve
p7179
tp7180
I1
s.