(lp0
(Vinsert
p1
I42
VSimpleName: getLayoutDirection
p2
tp3
a(Vinsert
p4
I42
VSimpleName: getColorForState
p5
tp6
a(Vinsert
p7
I42
VSimpleName: titleSub
p8
tp9
a(Vinsert
p10
I42
VSimpleName: getContext
p11
tp12
a(Vinsert
p13
I42
VSimpleName: setColorFilter
p14
tp15
a(Vinsert
p16
I42
VSimpleName: getActionButton
p17
tp18
a(Vinsert
p19
I42
VSimpleName: getLastVisiblePosition
p20
tp21
a(Vinsert
p22
I42
VSimpleName: getIntrinsicWidth
p23
tp24
a(Vinsert
p25
I42
VSimpleName: myLooper
p26
tp27
a(Vinsert
p28
I42
VSimpleName: min
p29
tp30
a(Vinsert
p31
I42
VSimpleName: getAttributes
p32
tp33
a(Vinsert
p34
I42
VSimpleName: dismissListener
p35
tp36
a(Vinsert
p37
I42
VSimpleName: findViewById
p38
tp39
a(Vinsert
p40
I42
VSimpleName: getBackground
p41
tp42
a(Vinsert
p43
I42
VSimpleName: notifyItemChanged
p44
tp45
a(Vinsert
p46
I42
VSimpleName: setTextColor
p47
tp48
a(Vinsert
p49
I42
VSimpleName: findFragmentById
p50
tp51
a(Vinsert
p52
I42
VSimpleName: getPath
p53
tp54
a(Vinsert
p55
I42
VSimpleName: isShowing
p56
tp57
a(Vinsert
p58
I42
VSimpleName: getChildAt
p59
tp60
a(Vinsert
p61
I42
VSimpleName: from
p62
tp63
a(Vinsert
p64
I42
VSimpleName: getText
p65
tp66
a(Vinsert
p67
I42
VSimpleName: setItems
p68
tp69
a(Vinsert
p70
I42
VSimpleName: setInverseBackgroundForced
p71
tp72
a(Vinsert
p73
I42
VSimpleName: show
p74
tp75
a(Vinsert
p76
I42
VSimpleName: setLayoutManager
p77
tp78
a(Vinsert
p79
I42
VSimpleName: getCount
p80
tp81
a(Vinsert
p82
I42
VSimpleName: post
p83
tp84
a(Vinsert
p85
I42
VSimpleName: setText
p86
tp87
a(Vinsert
p88
I42
VSimpleName: getItemId
p89
tp90
a(Vinsert
p91
I42
VSimpleName: getClass
p92
tp93
a(Vinsert
p94
I42
VSimpleName: dismiss
p95
tp96
a(Vinsert
p97
I42
VSimpleName: resolveBoolean
p98
tp99
a(Vinsert
p100
I42
VSimpleName: isHardwareAccelerated
p101
tp102
a(Vinsert
p103
I42
VSimpleName: start
p104
tp105
a(Vinsert
p106
I42
VSimpleName: onAny
p107
tp108
a(Vinsert
p109
I42
VSimpleName: isEmpty
p110
tp111
a(Vinsert
p112
I42
VSimpleName: getResources
p113
tp114
a(Vinsert
p115
I42
VSimpleName: putBoolean
p116
tp117
a(Vinsert
p118
I42
VSimpleName: getViewTreeObserver
p119
tp120
a(Vinsert
p121
I42
VSimpleName: setOnCancelListener
p122
tp123
a(Vinsert
p124
I42
VSimpleName: adapter
p125
tp126
a(Vinsert
p127
I42
VSimpleName: alwaysCallMultiChoiceCallback
p128
tp129
a(Vinsert
p130
I42
VSimpleName: trim
p131
tp132
a(Vinsert
p133
I42
VSimpleName: setIndeterminate
p134
tp135
a(Vinsert
p136
I42
VSimpleName: getAttributeCount
p137
tp138
a(Vinsert
p139
I42
VSimpleName: getBuilder
p140
tp141
a(Vinsert
p142
I42
VSimpleName: ofInt
p143
tp144
a(Vinsert
p145
I42
VSimpleName: getDrawable
p146
tp147
a(Vinsert
p148
I42
VSimpleName: icon
p149
tp150
a(Vinsert
p151
I42
VSimpleName: getInputEditText
p152
tp153
a(Vinsert
p154
I42
VSimpleName: initialPath
p155
tp156
a(Vinsert
p157
I42
VSimpleName: setChecked
p158
tp159
a(Vinsert
p160
I42
VSimpleName: addRule
p161
tp162
a(Vinsert
p163
I42
VSimpleName: getTheme
p164
tp165
a(Vinsert
p166
I42
VSimpleName: onFileChooserDismissed
p167
tp168
a(Vinsert
p169
I42
VSimpleName: autoDismiss
p170
tp171
a(Vinsert
p172
I42
VSimpleName: getColorArray
p173
tp174
a(Vinsert
p175
I42
VSimpleName: makeMeasureSpec
p176
tp177
a(Vinsert
p178
I42
VSimpleName: copyFrom
p179
tp180
a(Vinsert
p181
I42
VSimpleName: getString
p182
tp183
a(Vinsert
p184
I42
VSimpleName: contains
p185
tp186
a(Vinsert
p187
I42
VSimpleName: getCurrentGlobalAngle
p188
tp189
a(Vinsert
p190
I42
VSimpleName: isRecyclerView
p191
tp192
a(Vinsert
p193
I42
VSimpleName: setEnabled
p194
tp195
a(Vinsert
p196
I42
VSimpleName: resolveActionTextColorStateList
p197
tp198
a(Vinsert
p199
I42
VSimpleName: setCornerRadius
p200
tp201
a(Vinsert
p202
I42
VSimpleName: getItems
p203
tp204
a(Vinsert
p205
I42
VSimpleName: setIndeterminateDrawable
p206
tp207
a(Vinsert
p208
I42
VSimpleName: setAccessible
p209
tp210
a(Vinsert
p211
I42
VSimpleName: setThumbTintList
p212
tp213
a(Vinsert
p214
I42
VSimpleName: isDirectory
p215
tp216
a(Vinsert
p217
I42
VSimpleName: setSelection
p218
tp219
a(Vinsert
p220
I42
VSimpleName: setDialog
p221
tp222
a(Vinsert
p223
I42
VSimpleName: alwaysCallSingleChoiceCallback
p224
tp225
a(Vinsert
p226
I42
VSimpleName: getIconPadding
p227
tp228
a(Vinsert
p229
I42
VSimpleName: wrap
p230
tp231
a(Vinsert
p232
I42
VSimpleName: hideKeyboard
p233
tp234
a(Vinsert
p235
I42
VSimpleName: getPreferenceManager
p236
tp237
a(Vinsert
p238
I42
VSimpleName: clear
p239
tp240
a(Vinsert
p241
I42
VSimpleName: getShowTrack
p242
tp243
a(Vinsert
p244
I42
VSimpleName: valueOf
p245
tp246
a(Vinsert
p247
I42
VSimpleName: getVisibility
p248
tp249
a(Vinsert
p250
I42
VSimpleName: onScrollChanged
p251
tp252
a(Vinsert
p253
I42
VSimpleName: onMeasureScroll
p254
tp255
a(Vinsert
p256
I42
VSimpleName: isColorDark
p257
tp258
a(Vinsert
p259
I42
VSimpleName: parseColor
p260
tp261
a(Vinsert
p262
I42
VSimpleName: invoke
p263
tp264
a(Vinsert
p265
I42
VSimpleName: setId
p266
tp267
a(Vinsert
p268
I42
VSimpleName: setTransformationMethod
p269
tp270
a(Vinsert
p271
I42
VSimpleName: sort
p272
tp273
a(Vinsert
p274
I42
VSimpleName: getInt
p275
tp276
a(Vinsert
p277
I42
VSimpleName: getPreferenceScreen
p278
tp279
a(Vinsert
p280
I42
VSimpleName: notifyDataSetChanged
p281
tp282
a(Vinsert
p283
I42
VSimpleName: customView
p284
tp285
a(Vinsert
p286
I42
VSimpleName: applyDimension
p287
tp288
a(Vinsert
p289
I42
VSimpleName: setStyle
p290
tp291
a(Vinsert
p292
I42
VSimpleName: w
p293
tp294
a(Vinsert
p295
I42
VSimpleName: getConfiguration
p296
tp297
a(Vinsert
p298
I42
VSimpleName: onColorChooserDismissed
p299
tp300
a(Vinsert
p301
I42
VSimpleName: getDecorView
p302
tp303
a(Vinsert
p304
I42
VSimpleName: containsKey
p305
tp306
a(Vinsert
p307
I42
VSimpleName: create
p308
tp309
a(Vinsert
p310
I42
VSimpleName: itemsCallbackSingleChoice
p311
tp312
a(Vinsert
p313
I42
VSimpleName: negativeText
p314
tp315
a(Vinsert
p316
I42
VSimpleName: resolveColor
p317
tp318
a(Vinsert
p319
I42
VSimpleName: onNeutral
p320
tp321
a(Vinsert
p322
I42
VSimpleName: setDisplayHomeAsUpEnabled
p323
tp324
a(Vinsert
p325
I42
VSimpleName: setOnCancelListenerInternal
p326
tp327
a(Vinsert
p328
I42
VSimpleName: setProgress
p329
tp330
a(Vinsert
p331
I42
VSimpleName: setTintList
p332
tp333
a(Vinsert
p334
I42
VSimpleName: addView
p335
tp336
a(Vinsert
p337
I42
VSimpleName: getIndeterminateDrawable
p338
tp339
a(Vinsert
p340
I42
VSimpleName: asList
p341
tp342
a(Vinsert
p343
I42
VSimpleName: getPaddingLeft
p344
tp345
a(Vinsert
p346
I42
VSimpleName: getAdapter
p347
tp348
a(Vinsert
p349
I42
VSimpleName: onClick
p350
tp351
a(Vinsert
p352
I42
VSimpleName: getActionTextColorStateList
p353
tp354
a(Vinsert
p355
I42
VSimpleName: cancelListener
p356
tp357
a(Vinsert
p358
I42
VSimpleName: getDimensionPixelSize
p359
tp360
a(Vinsert
p361
I42
VSimpleName: invalidateList
p362
tp363
a(Vinsert
p364
I42
VSimpleName: playTogether
p365
tp366
a(Vinsert
p367
I42
VSimpleName: startsWith
p368
tp369
a(Vinsert
p370
I42
VSimpleName: setLinkTextColor
p371
tp372
a(Vinsert
p373
I42
VSimpleName: setMax
p374
tp375
a(Vinsert
p376
I42
VSimpleName: append
p377
tp378
a(Vinsert
p379
I42
VSimpleName: setMargins
p380
tp381
a(Vinsert
p382
I42
VSimpleName: setTag
p383
tp384
a(Vinsert
p385
I42
VSimpleName: putString
p386
tp387
a(Vinsert
p388
I42
VSimpleName: getDefault
p389
tp390
a(Vinsert
p391
I42
VSimpleName: getView
p392
tp393
a(Vinsert
p394
I42
VSimpleName: isInterrupted
p395
tp396
a(Vinsert
p397
I42
VSimpleName: getWindow
p398
tp399
a(Vinsert
p400
I42
VSimpleName: resetListeners
p401
tp402
a(Vinsert
p403
I42
VSimpleName: printStackTrace
p404
tp405
a(Vinsert
p406
I42
VSimpleName: setGravity
p407
tp408
a(Vinsert
p409
I42
VSimpleName: onMeasureLinear
p410
tp411
a(Vinsert
p412
I42
VSimpleName: equals
p413
tp414
a(Vinsert
p415
I42
VSimpleName: setInputType
p416
tp417
a(Vinsert
p418
I42
VSimpleName: getColor
p419
tp420
a(Vinsert
p421
I42
VSimpleName: setFocusableInTouchMode
p422
tp423
a(Vinsert
p424
I42
VSimpleName: setBackground
p425
tp426
a(Vinsert
p427
I42
VSimpleName: positiveText
p428
tp429
a(Vinsert
p430
I42
VSimpleName: getSupportFragmentManager
p431
tp432
a(Vinsert
p433
I42
VSimpleName: setTypeface
p434
tp435
a(Vinsert
p436
I42
VSimpleName: readInt
p437
tp438
a(Vinsert
p439
I42
VSimpleName: add
p440
tp441
a(Vinsert
p442
I42
VSimpleName: setVisibility
p443
tp444
a(Vinsert
p445
I42
VSimpleName: invalidateInputMinMaxIndicator
p446
tp447
a(Vinsert
p448
I42
VSimpleName: setBackgroundDrawable
p449
tp450
a(Vinsert
p451
I42
VSimpleName: getLayoutManager
p452
tp453
a(Vinsert
p454
I42
VSimpleName: getMeasuredWidth
p455
tp456
a(Vinsert
p457
I42
VSimpleName: setBackgroundResource
p458
tp459
a(Vinsert
p460
I42
VSimpleName: itemsCallbackMultiChoice
p461
tp462
a(Vinsert
p463
I42
VSimpleName: ofFloat
p464
tp465
a(Vinsert
p466
I42
VSimpleName: getButtonSelector
p467
tp468
a(Vinsert
p469
I42
VSimpleName: getMode
p470
tp471
a(Vinsert
p472
I42
VSimpleName: onInput
p473
tp474
a(Vinsert
p475
I42
VSimpleName: inflate
p476
tp477
a(Vinsert
p478
I42
VSimpleName: adjustAlpha
p479
tp480
a(Vinsert
p481
I42
VSimpleName: getDeclaredMethod
p482
tp483
a(Vinsert
p484
I42
VSimpleName: d
p485
tp486
a(Vinsert
p487
I42
VSimpleName: setOnShowListener
p488
tp489
a(Vinsert
p490
I42
VSimpleName: get
p491
tp492
a(Vinsert
p493
I42
VSimpleName: recycle
p494
tp495
a(Vinsert
p496
I42
VSimpleName: length
p497
tp498
a(Vinsert
p499
I42
VSimpleName: checkIfListInitScroll
p500
tp501
a(Vinsert
p502
I42
VSimpleName: getLayoutForType
p503
tp504
a(Vinsert
p505
I42
VSimpleName: setSelector
p506
tp507
a(Vinsert
p508
I42
VSimpleName: getSuperclass
p509
tp510
a(Vinsert
p511
I42
VSimpleName: setProgressBarTint
p512
tp513
a(Vinsert
p514
I42
VSimpleName: setTint
p515
tp516
a(Vinsert
p517
I42
VSimpleName: clearFocus
p518
tp519
a(Vinsert
p520
I42
VSimpleName: setMaxHeight
p521
tp522
a(Vinsert
p523
I42
VSimpleName: getChildCount
p524
tp525
a(Vinsert
p526
I42
VSimpleName: getAbsolutePath
p527
tp528
a(Vinsert
p529
I42
VSimpleName: getTag
p530
tp531
a(Vinsert
p532
I42
VSimpleName: setBackgroundColor
p533
tp534
a(Vinsert
p535
I42
VSimpleName: measure
p536
tp537
a(Vinsert
p538
I42
VSimpleName: initializeWithDefaults
p539
tp540
a(Vinsert
p541
I42
VSimpleName: resolveDrawable
p542
tp543
a(Vinsert
p544
I42
VSimpleName: setTextAlignment
p545
tp546
a(Vinsert
p547
I42
VSimpleName: findLastVisibleItemPosition
p548
tp549
a(Vinsert
p550
I42
VSimpleName: title
p551
tp552
a(Vinsert
p553
I42
VSimpleName: setCanceledOnTouchOutside
p554
tp555
a(Vinsert
p556
I42
VSimpleName: getParent
p557
tp558
a(Vinsert
p559
I42
VSimpleName: setColor
p560
tp561
a(Vinsert
p562
I42
VSimpleName: onShow
p563
tp564
a(Vinsert
p565
I42
VSimpleName: size
p566
tp567
a(Vinsert
p568
I42
VSimpleName: setProgressDrawable
p569
tp570
a(Vinsert
p571
I42
VSimpleName: getActionTextStateList
p572
tp573
a(Vinsert
p574
I42
VSimpleName: addAll
p575
tp576
a(Vinsert
p577
I42
VSimpleName: getWindowToken
p578
tp579
a(Vinsert
p580
I42
VSimpleName: toString
p581
tp582
a(Vinsert
p583
I42
VSimpleName: resolveGravityEnum
p584
tp585
a(Vinsert
p586
I42
VSimpleName: onDismiss
p587
tp588
a(Vinsert
p589
I42
VSimpleName: onFolderChooserDismissed
p590
tp591
a(Vinsert
p592
I42
VSimpleName: fromHtml
p593
tp594
a(Vinsert
p595
I42
VSimpleName: red
p596
tp597
a(Vinsert
p598
I42
VSimpleName: getDisabledColor
p599
tp600
a(Vinsert
p601
I42
VSimpleName: addTextChangedListener
p602
tp603
a(Vinsert
p604
I42
VSimpleName: obtainStyledAttributes
p605
tp606
a(Vinsert
p607
I42
VSimpleName: v
p608
tp609
a(Vinsert
p610
I42
VSimpleName: setIndeterminateTintList
p611
tp612
a(Vinsert
p613
I42
VSimpleName: readString
p614
tp615
a(Vinsert
p616
I42
VSimpleName: getMeasuredHeight
p617
tp618
a(Vinsert
p619
I42
VSimpleName: setPadding
p620
tp621
a(Vinsert
p622
I42
VSimpleName: getPaintFlags
p623
tp624
a(Vinsert
p625
I42
VSimpleName: format
p626
tp627
a(Vinsert
p628
I42
VSimpleName: getBoolean
p629
tp630
a.