(dp0
(S'Token'
p1
I774
VallowSelection
p2
tp3
I1
s(g1
I6482
VresolveDrawable
p4
tp5
I1
s(g1
I350
VgravityInt
p6
tp7
I1
s(g1
I6482
VattrId
p8
tp9
I1
s(g1
I689
Vcontrol
p10
tp11
I1
s(g1
I426
Vdialog
p12
tp13
I1
s(g1
I824
VImageView
p14
tp15
I1
s(g1
I1928
VDialogUtils
p16
tp17
I1
s(g1
I352
Vstate
p18
tp19
I1
s(g1
I180
VonBindViewHolder
p20
tp21
I1
s(g1
I3400
VBuilder
p22
tp23
I2
s(g1
I50
VView
p24
tp25
I1
s(g1
I178
Vcontext
p26
tp27
I1
s(g1
I146
VeditText
p28
tp29
I1
s(g1
I209
VeditText
p30
tp31
I1
s(g1
I23
VBundle
p32
tp33
I1
s(g1
I2235
VpositiveText
p34
tp35
I1
s(g1
I6779
VIllegalStateException
p36
tp37
I1
s(g1
I87
VmCallback
p38
tp39
I3
s(g1
I721
VnegativeText
p40
tp41
I1
s(g1
I1546
VOverride
p42
tp43
I2
s(g1
I1484
Vdialog
p44
tp45
I2
s(g1
I255
VresolveColor
p46
tp47
I1
s(g1
I2237
VMainActivity
p48
tp49
I1
s(g1
I1082
VArrayList
p50
tp51
I1
s(g1
I1871
VMDButton
p52
tp53
I1
s(g1
I4094
Vmedium
p54
tp55
I1
s(g1
I254
Vbuilder
p56
tp57
I1
s(g1
I365
VgetBuilder
p58
tp59
I1
s(g1
I4914
Vdialog
p60
tp61
I1
s(g1
I220
VBuilder
p62
tp63
I1
s(g1
I342
VpositiveDialogListener
p64
tp65
I1
s(g1
I3373
VlayoutRes
p66
tp67
I1
s(g1
I326
VsetAccessible
p68
tp69
I1
s(g1
I74
VDialogUtils
p70
tp71
I1
s(g1
I277
VDialogUtils
p72
tp73
I1
s(g1
I933
VgetContext
p74
tp75
I1
s(g1
I2840
VsetEnabled
p76
tp77
I1
s(g1
I4619
Vadapter
p78
tp79
I1
s(g1
I553
VBaseSavedState
p80
tp81
I1
s(g1
I4281
VColorRes
p82
tp83
I1
s(g1
I550
VtopIndex
p84
tp85
I1
s(g1
I2380
VneutralButton
p86
tp87
I1
s(g1
I510
Vpm
p88
tp89
I1
s(g1
I1367
VgetResources
p90
tp91
I1
s(g1
I176
VMaterialDialog
p92
tp93
I2
s(g1
I243
VSet
p94
tp95
I1
s(g1
I3998
VtitleColor
p96
tp97
I1
s(g1
I3168
VString
p98
tp99
I1
s(g1
I942
Vimm
p100
tp101
I1
s(g1
I4603
VMULTI
p102
tp103
I1
s(g1
I3385
VitemsIds
p104
tp105
I1
s(g1
I185
Vadd
p106
tp107
I1
s(g1
I1254
Vtitle
p108
tp109
I1
s(g1
I3420
VColorRes
p110
tp111
I2
s(g1
I244
VNonNull
p112
tp113
I1
s(g1
I1116
VfindViewById
p114
tp115
I1
s(g1
I539
VsetFocusable
p116
tp117
I1
s(g1
I959
Vdialog
p118
tp119
I1
s(g1
I65
VGridLayoutManager
p120
tp121
I1
s(g1
I30
VonCreate
p122
tp123
I1
s(g1
I111
VgetValue
p124
tp125
I1
s(g1
I3442
Vtext
p126
tp127
I1
s(g1
I1598
VColor
p128
tp129
I1
s(g1
I341
VgetProgressDrawable
p130
tp131
I1
s(g1
I246
VDialogAction
p132
tp133
I1
s(g1
I117
VString
p134
tp135
I1
s(g1
I766
VmCallback
p136
tp137
I1
s(g1
I1665
Vdi
p138
tp139
I1
s(g1
I2262
VshowFileChooser
p140
tp141
I1
s(g1
I808
Vadd
p142
tp143
I2
s(g1
I3087
VCollection
p144
tp145
I1
s(g1
I1235
Vinput
p146
tp147
I1
s(g1
I144
VColorStateList
p148
tp149
I1
s(g1
I2148
VgetMeasuredHeight
p150
tp151
I1
s(g1
I152
VseekBar
p152
tp153
I1
s(g1
I925
VsetTypeface
p154
tp155
I1
s(g1
I179
Vv
p156
tp157
I1
s(g1
I550
VNonNull
p158
tp159
I1
s(g1
I751
VoldSelected
p160
tp161
I1
s(g1
I152
VeditText
p162
tp163
I1
s(g1
I4104
VmediumFont
p164
tp165
I1
s(g1
I726
VfEditor
p166
tp167
I1
s(g1
I1236
ValwaysCallMultiChoiceCallback
p168
tp169
I1
s(g1
I1538
VgetInstance
p170
tp171
I2
s(g1
I5430
VshowKeyboard
p172
tp173
I1
s(g1
I408
Vtitle
p174
tp175
I1
s(g1
I628
VColorInt
p176
tp177
I1
s(g1
I1724
Vdialog
p178
tp179
I1
s(g1
I229
Vdialog
p180
tp181
I1
s(g1
I1257
Vitems
p182
tp183
I1
s(g1
I111
Vwho
p184
tp185
I2
s(g1
I1365
Vshow
p186
tp187
I1
s(g1
I212
VRadioButton
p188
tp189
I1
s(g1
I406
VsetSoftInputMode
p190
tp191
I1
s(g1
I554
Vcontent
p192
tp193
I1
s(g1
I2056
VputSerializable
p194
tp195
I1
s(g1
I29
Vattrs
p196
tp197
I1
s(g1
I940
Vicon
p198
tp199
I1
s(g1
I162
Vitem
p200
tp201
I1
s(g1
I179
VOverride
p202
tp203
I1
s(g1
I501
Vwindow
p204
tp205
I1
s(g1
I3568
VprogressColor
p206
tp207
I1
s(g1
I6391
VafterTextChanged
p208
tp209
I1
s(g1
I233
VgetDialogIcon
p210
tp211
I1
s(g1
I111
VClass
p212
tp213
I1
s(g1
I4360
VCharSequence
p214
tp215
I1
s(g1
I3427
Vcontext
p216
tp217
I2
s(g1
I163
Vindex
p218
tp219
I1
s(g1
I565
VresolveColor
p220
tp221
I1
s(g1
I1859
VmCustomSeekR
p222
tp223
I1
s(g1
I3382
VitemsIds
p224
tp225
I1
s(g1
I105
VdarkTheme
p226
tp227
I1
s(g1
I90
VmBuilder
p228
tp229
I1
s(g1
I119
Vs
p230
tp231
I1
s(g1
I500
Vdialog
p232
tp233
I1
s(g1
I333
Vview
p234
tp235
I1
s(g1
I280
VtintMode
p236
tp237
I1
s(g1
I403
VNonNull
p238
tp239
I1
s(g1
I1358
VProgressBar
p240
tp241
I1
s(g1
I755
VsetTextAlignment
p242
tp243
I1
s(g1
I491
VColor
p244
tp245
I1
s(g1
I647
VsetLayoutParams
p246
tp247
I1
s(g1
I961
Vtitle
p248
tp249
I1
s(g1
I129
VMaterialEditTextPreference
p250
tp251
I1
s(g1
I94
Vdismiss
p252
tp253
I1
s(g1
I674
VparentFolder
p254
tp255
I1
s(g1
I2090
VeightDp
p256
tp257
I1
s(g1
I262
VMaterialMultiSelectListPreference
p258
tp259
I1
s(g1
I278
Vadd
p260
tp261
I1
s(g1
I1548
VsetBackgroundColor
p262
tp263
I1
s(g1
I89
Vequals
p264
tp265
I1
s(g1
I4075
Vdialog
p266
tp267
I1
s(g1
I294
VtoLowerCase
p268
tp269
I1
s(g1
I997
Vview
p270
tp271
I1
s(g1
I601
Vimm
p272
tp273
I1
s(g1
I2015
VViewGroup
p274
tp275
I1
s(g1
I188
VisIn
p276
tp277
I1
s(g1
I4792
Vcontext
p278
tp279
I1
s(g1
I4045
VautoDismiss
p280
tp281
I1
s(g1
I635
VhasActionButtons
p282
tp283
I1
s(g1
I286
VDialogUtils
p284
tp285
I1
s(g1
I1484
VwindowVerticalPadding
p286
tp287
I1
s(g1
I4909
Vbuild
p288
tp289
I1
s(g1
I3971
VgetResources
p290
tp291
I1
s(g1
I67
VEditText
p292
tp293
I1
s(g1
I237
VTintEditText
p294
tp295
I1
s(g1
I3083
VresolveDrawable
p296
tp297
I1
s(g1
I5613
VemptyDisabled
p298
tp299
I1
s(g1
I3423
VcolorRes
p300
tp301
I2
s(g1
I64
Vbuilder
p302
tp303
I1
s(g1
I1392
VView
p304
tp305
I1
s(g1
I373
VMethod
p306
tp307
I1
s(g1
I758
VadapterProvided
p308
tp309
I1
s(g1
I140
VfindViewById
p310
tp311
I1
s(g1
I2851
Vdialog
p312
tp313
I1
s(g1
I269
VgetInflateLayout
p314
tp315
I1
s(g1
I4395
VinputMaxLength
p316
tp317
I1
s(g1
I218
Vstate
p318
tp319
I1
s(g1
I151
Vattrs
p320
tp321
I1
s(g1
I4246
VneutralButton
p322
tp323
I1
s(g1
I346
VisInSub
p324
tp325
I1
s(g1
I1005
VmContext
p326
tp327
I1
s(g1
I40
Vtheme
p328
tp329
I1
s(g1
I105
Vi
p330
tp331
I1
s(g1
I1095
Vdialog
p332
tp333
I1
s(g1
I574
Vfallback
p334
tp335
I1
s(g1
I2854
VsetEnabled
p336
tp337
I1
s(g1
I1027
VonLongSelection
p338
tp339
I1
s(g1
I1278
VonClick
p340
tp341
I1
s(g1
I44
Vitem
p342
tp343
I1
s(g1
I240
VDrawable
p344
tp345
I2
s(g1
I423
Vdialog
p346
tp347
I1
s(g1
I311
VresolveColor
p348
tp349
I1
s(g1
I1890
VmediumFont
p350
tp351
I1
s(g1
I1306
VStringBuilder
p352
tp353
I1
s(g1
I995
VListView
p354
tp355
I1
s(g1
I172
Vattr
p356
tp357
I1
s(g1
I174
VonClick
p358
tp359
I1
s(g1
I5919
VclearSelectedIndices
p360
tp361
I1
s(g1
I3409
VColorRes
p362
tp363
I1
s(g1
I334
VcalculateXYValues
p364
tp365
I1
s(g1
I971
VlistCallbackMulti
p366
tp367
I1
s(g1
I2242
Vparams
p368
tp369
I1
s(g1
I1012
Vtext
p370
tp371
I1
s(g1
I1128
VfindViewById
p372
tp373
I1
s(g1
I3422
VneutralColor
p374
tp375
I1
s(g1
I467
VnegativeText
p376
tp377
I1
s(g1
I4645
VaccentColorRes
p378
tp379
I1
s(g1
I3986
VAttrRes
p380
tp381
I1
s(g1
I4856
VMaterialDialog
p382
tp383
I1
s(g1
I4922
VInteger
p384
tp385
I1
s(g1
I56
VfindLastVisibleItemPosition
p386
tp387
I1
s(g1
I2012
Vview
p388
tp389
I1
s(g1
I2239
VgetTopView
p390
tp391
I1
s(g1
I2385
VisStacked
p392
tp393
I1
s(g1
I236
Vselected
p394
tp395
I1
s(g1
I512
VindDraw
p396
tp397
I1
s(g1
I4314
VcancelListener
p398
tp399
I1
s(g1
I114
VgetEditText
p400
tp401
I1
s(g1
I1218
Vary
p402
tp403
I1
s(g1
I5436
Vlength
p404
tp405
I1
s(g1
I657
VpaddingTop
p406
tp407
I1
s(g1
I153
VresolveDrawable
p408
tp409
I1
s(g1
I319
VmDrawable
p410
tp411
I1
s(g1
I232
VonNegative
p412
tp413
I1
s(g1
I1379
VsetTint
p414
tp415
I1
s(g1
I1553
VMDTintHelper
p416
tp417
I1
s(g1
I1535
VlistType
p418
tp419
I1
s(g1
I4939
VselectedIndicesList
p420
tp421
I1
s(g1
I734
Vpath
p422
tp423
I1
s(g1
I758
VavailableHeight
p424
tp425
I1
s(g1
I4801
VDialogUtils
p426
tp427
I1
s(g1
I4962
VgetSelectedIndices
p428
tp429
I1
s(g1
I155
Vitem
p430
tp431
I1
s(g1
I352
Vpaint
p432
tp433
I1
s(g1
I441
VwidthMode
p434
tp435
I1
s(g1
I3359
Vgravity
p436
tp437
I1
s(g1
I465
VfSelectedIndex
p438
tp439
I1
s(g1
I676
VvalueOf
p440
tp441
I1
s(g1
I716
Vreload
p442
tp443
I1
s(g1
I255
VCharSequence
p444
tp445
I1
s(g1
I2089
VOverride
p446
tp447
I1
s(g1
I554
Vdialog
p448
tp449
I1
s(g1
I3358
VneutralText
p450
tp451
I1
s(g1
I805
Vitems
p452
tp453
I1
s(g1
I229
VgetActivity
p454
tp455
I1
s(g1
I196
Vindices
p456
tp457
I1
s(g1
I1340
VMaterialDialog
p458
tp459
I1
s(g1
I4380
Vbuild
p460
tp461
I1
s(g1
I1975
Vcreate
p462
tp463
I1
s(g1
I618
VgetApplicationContext
p464
tp465
I1
s(g1
I1650
VOverride
p466
tp467
I1
s(g1
I647
Vview
p468
tp469
I1
s(g1
I178
VsetColorFilter
p470
tp471
I1
s(g1
I198
VDialogUtils
p472
tp473
I1
s(g1
I5181
VmHandler
p474
tp475
I1
s(g1
I105
VwidthMeasureSpec
p476
tp477
I3
s(g1
I3396
VDialogUtils
p478
tp479
I1
s(g1
I219
VgetView
p480
tp481
I1
s(g1
I1551
VfindViewById
p482
tp483
I2
s(g1
I642
VpositiveText
p484
tp485
I1
s(g1
I103
VOverride
p486
tp487
I1
s(g1
I758
VMainActivity
p488
tp489
I1
s(g1
I491
Vblue
p490
tp491
I1
s(g1
I595
VcustomView
p492
tp493
I1
s(g1
I1336
Vdialog
p494
tp495
I1
s(g1
I486
VPreferenceManagerCompat
p496
tp497
I1
s(g1
I1920
VnegativeButton
p498
tp499
I1
s(g1
I1329
Vstr
p500
tp501
I1
s(g1
I1412
Vdialog
p502
tp503
I1
s(g1
I210
VresolveColor
p504
tp505
I1
s(g1
I152
VOverride
p506
tp507
I1
s(g1
I2206
VnegativeButton
p508
tp509
I1
s(g1
I324
VDialogUtils
p510
tp511
I1
s(g1
I1975
VChangelogDialog
p512
tp513
I1
s(g1
I741
VisDialogShowing
p514
tp515
I1
s(g1
I4801
VresolveColor
p516
tp517
I1
s(g1
I1581
VColor
p518
tp519
I1
s(g1
I223
Vcolor
p520
tp521
I1
s(g1
I988
VgetPaddingRight
p522
tp523
I1
s(g1
I3384
VDialogInit
p524
tp525
I1
s(g1
I70
VOverride
p526
tp527
I1
s(g1
I509
VgetPreferenceManager
p528
tp529
I1
s(g1
I4089
VBuilder
p530
tp531
I1
s(g1
I318
Vvalue
p532
tp533
I1
s(g1
I1994
VmColorsSub
p534
tp535
I1
s(g1
I694
VColor
p536
tp537
I1
s(g1
I3166
VcontentRes
p538
tp539
I1
s(g1
I929
Vt
p540
tp541
I1
s(g1
I1372
VsetIndeterminateDrawable
p542
tp543
I1
s(g1
I349
VprogressDrawable
p544
tp545
I1
s(g1
I375
Vdialog
p546
tp547
I2
s(g1
I1201
Vview
p548
tp549
I1
s(g1
I6494
Vd
p550
tp551
I1
s(g1
I952
VfCursorDrawable
p552
tp553
I1
s(g1
I63
Vattrs
p554
tp555
I1
s(g1
I934
Vdrawables
p556
tp557
I1
s(g1
I239
VitemRoot
p558
tp559
I1
s(g1
I1664
Vbutton
p560
tp561
I1
s(g1
I231
Vcontext
p562
tp563
I1
s(g1
I28
VAppCompatActivity
p564
tp565
I1
s(g1
I451
Vattr
p566
tp567
I1
s(g1
I285
VDialogUtils
p568
tp569
I1
s(g1
I2592
VgetContext
p570
tp571
I1
s(g1
I5628
VpositiveAb
p572
tp573
I1
s(g1
I169
Vparent
p574
tp575
I1
s(g1
I328
VmakeTintFilter
p576
tp577
I1
s(g1
I165
VMaterialDialog
p578
tp579
I1
s(g1
I3350
VNonNull
p580
tp581
I1
s(g1
I1701
VsetText
p582
tp583
I1
s(g1
I1136
Vframe
p584
tp585
I1
s(g1
I1596
VgetResources
p586
tp587
I1
s(g1
I6776
VgetMainLooper
p588
tp589
I1
s(g1
I263
VsetDuration
p590
tp591
I1
s(g1
I1592
VView
p592
tp593
I1
s(g1
I1478
VgetResources
p594
tp595
I1
s(g1
I297
VgetDialogMessage
p596
tp597
I1
s(g1
I1863
VrecyclerView
p598
tp599
I1
s(g1
I2173
Vlv
p600
tp601
I1
s(g1
I999
Vview
p602
tp603
I1
s(g1
I2231
VcheckSelfPermission
p604
tp605
I1
s(g1
I519
VMaterialDialog
p606
tp607
I1
s(g1
I1025
Vcon
p608
tp609
I1
s(g1
I702
VresolveColor
p610
tp611
I1
s(g1
I244
VsetIndeterminateTintList
p612
tp613
I1
s(g1
I261
VindeterminateDrawable
p614
tp615
I1
s(g1
I5991
VmaxIconSize
p616
tp617
I2
s(g1
I3384
VnegativeColor
p618
tp619
I1
s(g1
I1644
VColor
p620
tp621
I1
s(g1
I4294
VdividerColor
p622
tp623
I1
s(g1
I305
VoutState
p624
tp625
I1
s(g1
I497
VgetArguments
p626
tp627
I1
s(g1
I445
Vshow
p628
tp629
I1
s(g1
I141
VsetPadding
p630
tp631
I1
s(g1
I678
VcanGoUp
p632
tp633
I1
s(g1
I844
VoldSelected
p634
tp635
I1
s(g1
I1441
VmeasureText
p636
tp637
I1
s(g1
I1112
VMDRootLayout
p638
tp639
I1
s(g1
I416
VOverride
p640
tp641
I1
s(g1
I1984
Vchild
p642
tp643
I1
s(g1
I1374
VTextView
p644
tp645
I1
s(g1
I280
Vmethod
p646
tp647
I1
s(g1
I218
Vlayout
p648
tp649
I2
s(g1
I509
VPreferenceScreen
p650
tp651
I1
s(g1
I1089
VgetDimensionPixelSize
p652
tp653
I2
s(g1
I226
Vlayout
p654
tp655
I1
s(g1
I1991
VwidgetColor
p656
tp657
I1
s(g1
I253
VT
p658
tp659
I1
s(g1
I1031
VsetPadding
p660
tp661
I1
s(g1
I4256
VneutralButton
p662
tp663
I1
s(g1
I1363
Vd
p664
tp665
I1
s(g1
I246
VmEditText
p666
tp667
I2
s(g1
I1041
Vdialog
p668
tp669
I1
s(g1
I545
VOverride
p670
tp671
I1
s(g1
I164
VSimpleListVH
p672
tp673
I1
s(g1
I611
Vv
p674
tp675
I1
s(g1
I158
Vcontext
p676
tp677
I1
s(g1
I1384
VgetPaddingRight
p678
tp679
I1
s(g1
I727
VView
p680
tp681
I1
s(g1
I165
Ve
p682
tp683
I1
s(g1
I1997
VnegativeColor
p684
tp685
I1
s(g1
I1087
VMaterialDialogAdapter
p686
tp687
I1
s(g1
I4406
Vcontext
p688
tp689
I1
s(g1
I1619
VMDTintHelper
p690
tp691
I1
s(g1
I45
VDialogBase
p692
tp693
I1
s(g1
I691
Vcontent
p694
tp695
I1
s(g1
I6498
Vicon
p696
tp697
I1
s(g1
I1409
VcopyFrom
p698
tp699
I1
s(g1
I1000
VsetVisibility
p700
tp701
I1
s(g1
I820
VparseColor
p702
tp703
I1
s(g1
I298
VString
p704
tp705
I1
s(g1
I673
VparentContents
p706
tp707
I1
s(g1
I6512
Vcontent
p708
tp709
I1
s(g1
I626
Vbox
p710
tp711
I1
s(g1
I3438
VcontentColorRes
p712
tp713
I2
s(g1
I2413
VfindViewById
p714
tp715
I1
s(g1
I302
Vcolor
p716
tp717
I1
s(g1
I1756
VbottomMargin
p718
tp719
I2
s(g1
I2409
VCheckBox
p720
tp721
I1
s(g1
I100
VfoundLayout
p722
tp723
I1
s(g1
I364
VendsWith
p724
tp725
I1
s(g1
I6134
VIllegalStateException
p726
tp727
I1
s(g1
I1217
VallowSelectionChange
p728
tp729
I1
s(g1
I137
VdefStyleAttr
p730
tp731
I1
s(g1
I154
VdefStyleAttr
p732
tp733
I1
s(g1
I729
VObject
p734
tp735
I1
s(g1
I2370
VpositiveTextView
p736
tp737
I1
s(g1
I580
Vcontent
p738
tp739
I1
s(g1
I566
VsetTypeface
p740
tp741
I1
s(g1
I1245
VgetText
p742
tp743
I1
s(g1
I1219
Vil
p744
tp745
I1
s(g1
I166
VContext
p746
tp747
I1
s(g1
I5234
Vcolor
p748
tp749
I1
s(g1
I1929
VTypeface
p750
tp751
I1
s(g1
I573
Vdialog
p752
tp753
I1
s(g1
I368
VgetChildAt
p754
tp755
I1
s(g1
I147
Vcontext
p756
tp757
I1
s(g1
I55
VView
p758
tp759
I1
s(g1
I2223
Vcb
p760
tp761
I1
s(g1
I2630
Vparams
p762
tp763
I1
s(g1
I297
VsetTextColor
p764
tp765
I1
s(g1
I237
Vlayout
p766
tp767
I1
s(g1
I1029
Vadd
p768
tp769
I1
s(g1
I211
VPATH_INDETERMINATE_HORIZONTAL_RECT2_TRANSLATE_X
p770
tp771
I1
s(g1
I682
VColor
p772
tp773
I1
s(g1
I273
VsetRepeatCount
p774
tp775
I1
s(g1
I830
Vicon
p776
tp777
I1
s(g1
I2039
Vview
p778
tp779
I1
s(g1
I235
VINSTANCE
p780
tp781
I1
s(g1
I4036
VNonNull
p782
tp783
I1
s(g1
I493
VOverride
p784
tp785
I1
s(g1
I1013
Vadd
p786
tp787
I1
s(g1
I277
VTypedValue
p788
tp789
I1
s(g1
I1750
VViewGroup
p790
tp791
I1
s(g1
I943
VnegativeTextView
p792
tp793
I1
s(g1
I1316
Vinit
p794
tp795
I1
s(g1
I1355
Vdialog
p796
tp797
I1
s(g1
I3358
VitemIds
p798
tp799
I1
s(g1
I4072
VMaterialDialog
p800
tp801
I1
s(g1
I114
Vindicies
p802
tp803
I1
s(g1
I82
Vattrs
p804
tp805
I1
s(g1
I1325
Vi
p806
tp807
I1
s(g1
I168
VgetIconPadding
p808
tp809
I1
s(g1
I260
VgetTheme
p810
tp811
I1
s(g1
I338
VpositiveText
p812
tp813
I1
s(g1
I5226
Vinput
p814
tp815
I1
s(g1
I205
VunregisterOnActivityDestroyListener
p816
tp817
I1
s(g1
I223
VBundle
p818
tp819
I1
s(g1
I428
VnegativeText
p820
tp821
I1
s(g1
I25
Vpreference
p822
tp823
I1
s(g1
I1379
Vcontext
p824
tp825
I1
s(g1
I562
VresolveColor
p826
tp827
I1
s(g1
I815
VgetDimensionPixelSize
p828
tp829
I1
s(g1
I79
VgetActivity
p830
tp831
I1
s(g1
I5250
VColorRes
p832
tp833
I1
s(g1
I64
Va
p834
tp835
I1
s(g1
I166
Vattrs
p836
tp837
I1
s(g1
I22
VSimpleArrayMap
p838
tp839
I1
s(g1
I1113
Vdialog
p840
tp841
I1
s(g1
I1503
Vappend
p842
tp843
I1
s(g1
I45
VView
p844
tp845
I1
s(g1
I138
VgetDeclaredField
p846
tp847
I1
s(g1
I2870
VOnClick
p848
tp849
I1
s(g1
I4787
Vobjects
p850
tp851
I1
s(g1
I426
VList
p852
tp853
I1
s(g1
I394
Vdialog
p854
tp855
I1
s(g1
I368
Vview
p856
tp857
I1
s(g1
I1447
Vlp
p858
tp859
I1
s(g1
I497
VFloat
p860
tp861
I1
s(g1
I613
Vtext
p862
tp863
I1
s(g1
I442
VView
p864
tp865
I1
s(g1
I68
Vcontext
p866
tp867
I1
s(g1
I5597
Vs
p868
tp869
I1
s(g1
I577
VisDialogShowing
p870
tp871
I1
s(g1
I864
Vwhich
p872
tp873
I1
s(g1
I839
Vview
p874
tp875
I1
s(g1
I188
VDialogUtils
p876
tp877
I1
s(g1
I3274
Vicon
p878
tp879
I1
s(g1
I169
VdefStyleAttr
p880
tp881
I1
s(g1
I94
VgetTitle
p882
tp883
I1
s(g1
I232
Vs1
p884
tp885
I1
s(g1
I2036
Vview
p886
tp887
I1
s(g1
I329
VMaterialListPreference
p888
tp889
I1
s(g1
I251
Vdialog
p890
tp891
I1
s(g1
I820
VhasActionButtons
p892
tp893
I1
s(g1
I833
VparseColor
p894
tp895
I1
s(g1
I1106
VMaterialSimpleListAdapter
p896
tp897
I1
s(g1
I1153
VinnerView
p898
tp899
I1
s(g1
I216
Vcontext
p900
tp901
I1
s(g1
I1744
Vtitle
p902
tp903
I1
s(g1
I363
Vmode
p904
tp905
I1
s(g1
I1944
VneutralButton
p906
tp907
I1
s(g1
I1378
VfindViewById
p908
tp909
I1
s(g1
I991
VMaterialSimpleListAdapter
p910
tp911
I2
s(g1
I143
VColorStateList
p912
tp913
I1
s(g1
I482
VgetText
p914
tp915
I1
s(g1
I750
VActivityCompat
p916
tp917
I1
s(g1
I994
VOverride
p918
tp919
I1
s(g1
I1012
Vtitle
p920
tp921
I1
s(g1
I191
VPATH_INDETERMINATE_HORIZONTAL_RECT2_TRANSLATE_X
p922
tp923
I1
s(g1
I4069
VMaterialDialog
p924
tp925
I1
s(g1
I750
VrequestPermissions
p926
tp927
I1
s(g1
I137
VdialogView
p928
tp929
I1
s(g1
I140
Vview
p930
tp931
I1
s(g1
I268
VDialogUtils
p932
tp933
I2
s(g1
I7117
VgetMaxProgress
p934
tp935
I1
s(g1
I4055
VMaterialDialog
p936
tp937
I1
s(g1
I257
VofFloat
p938
tp939
I1
s(g1
I608
VrecyclerView
p940
tp941
I1
s(g1
I857
VsetChecked
p942
tp943
I1
s(g1
I608
VshowBasicIcon
p944
tp945
I1
s(g1
I1660
Vbutton
p946
tp947
I1
s(g1
I714
VcancelButton
p948
tp949
I1
s(g1
I151
VOverride
p950
tp951
I1
s(g1
I1709
VgetActionTextStateList
p952
tp953
I1
s(g1
I684
VMDTintHelper
p954
tp955
I1
s(g1
I1304
Vtext
p956
tp957
I1
s(g1
I276
VAnimatorSet
p958
tp959
I1
s(g1
I2200
VlistCallbackSingle
p960
tp961
I1
s(g1
I300
VBundle
p962
tp963
I1
s(g1
I2015
Vcontext
p964
tp965
I1
s(g1
I1345
VfragmentManager
p966
tp967
I1
s(g1
I76
VOverride
p968
tp969
I1
s(g1
I990
VView
p970
tp971
I1
s(g1
I14
VOverride
p972
tp973
I1
s(g1
I961
VcurrentFocus
p974
tp975
I1
s(g1
I1359
Vdialog
p976
tp977
I1
s(g1
I421
VDialogInterface
p978
tp979
I1
s(g1
I3596
VprogressColor
p980
tp981
I1
s(g1
I581
VsetLineSpacing
p982
tp983
I1
s(g1
I356
VsetActionButton
p984
tp985
I1
s(g1
I1015
Vdialog
p986
tp987
I3
s(g1
I438
Vmanager
p988
tp989
I1
s(g1
I3267
Vicon
p990
tp991
I1
s(g1
I4608
VneutralColor
p992
tp993
I1
s(g1
I370
VCompoundButton
p994
tp995
I1
s(g1
I310
VBuilder
p996
tp997
I1
s(g1
I3371
VColorInt
p998
tp999
I1
s(g1
I1142
VinnerView
p1000
tp1001
I1
s(g1
I936
VgetSystemService
p1002
tp1003
I1
s(g1
I678
VsetTint
p1004
tp1005
I1
s(g1
I129
VProperty
p1006
tp1007
I1
s(g1
I961
VfindViewById
p1008
tp1009
I1
s(g1
I480
VObject
p1010
tp1011
I1
s(g1
I5237
Vlength
p1012
tp1013
I1
s(g1
I29
VgetResources
p1014
tp1015
I1
s(g1
I1481
Vconfig
p1016
tp1017
I1
s(g1
I422
VonNegative
p1018
tp1019
I1
s(g1
I2061
Vdialog
p1020
tp1021
I1
s(g1
I1711
VonScrollChangedListener
p1022
tp1023
I1
s(g1
I274
Vpaint
p1024
tp1025
I1
s(g1
I372
VgetSelectedColor
p1026
tp1027
I1
s(g1
I1171
Vview
p1028
tp1029
I1
s(g1
I3381
VnegativeColor
p1030
tp1031
I1
s(g1
I1564
VshowToast
p1032
tp1033
I1
s(g1
I930
VsetGravity
p1034
tp1035
I1
s(g1
I2088
Vshow
p1036
tp1037
I1
s(g1
I968
Vtitle
p1038
tp1039
I1
s(g1
I250
VDialogUtils
p1040
tp1041
I2
s(g1
I88
VsetWidgetLayoutResource
p1042
tp1043
I1
s(g1
I111
VverifyDrawable
p1044
tp1045
I2
s(g1
I651
VsetButtonTintList
p1046
tp1047
I1
s(g1
I358
Vfilename
p1048
tp1049
I1
s(g1
I727
VDialogInterface
p1050
tp1051
I1
s(g1
I800
Vtext
p1052
tp1053
I1
s(g1
I936
VmediumFont
p1054
tp1055
I1
s(g1
I2036
VView
p1056
tp1057
I1
s(g1
I1581
VRect
p1058
tp1059
I1
s(g1
I682
VparentFolder
p1060
tp1061
I1
s(g1
I845
VColor
p1062
tp1063
I1
s(g1
I560
VParcel
p1064
tp1065
I1
s(g1
I4611
VCheckBox
p1066
tp1067
I1
s(g1
I487
VmText
p1068
tp1069
I1
s(g1
I113
VconvertView
p1070
tp1071
I1
s(g1
I184
Vv
p1072
tp1073
I1
s(g1
I3370
VLayoutRes
p1074
tp1075
I1
s(g1
I319
Vview
p1076
tp1077
I1
s(g1
I201
VitemTextColor
p1078
tp1079
I1
s(g1
I266
Vcontext
p1080
tp1081
I1
s(g1
I1128
VPOSITIVE
p1082
tp1083
I1
s(g1
I5204
VsetProgress
p1084
tp1085
I1
s(g1
I1786
VsetVisibility
p1086
tp1087
I2
s(g1
I517
VcontainsKey
p1088
tp1089
I1
s(g1
I479
VOverride
p1090
tp1091
I1
s(g1
I4079
Vdialog
p1092
tp1093
I1
s(g1
I171
Vposition
p1094
tp1095
I1
s(g1
I3414
VcontentColor
p1096
tp1097
I2
s(g1
I6896
Vformat
p1098
tp1099
I1
s(g1
I1102
Vview
p1100
tp1101
I1
s(g1
I4270
Vcolor
p1102
tp1103
I1
s(g1
I290
VtoLowerCase
p1104
tp1105
I1
s(g1
I817
VonPause
p1106
tp1107
I1
s(g1
I748
VsetTint
p1108
tp1109
I1
s(g1
I4853
VMaterialDialog
p1110
tp1111
I1
s(g1
I1996
VnegativeColor
p1112
tp1113
I1
s(g1
I69
VheightMeasureSpec
p1114
tp1115
I1
s(g1
I1749
VbuttonBarDivider
p1116
tp1117
I2
s(g1
I4249
VshowListener
p1118
tp1119
I1
s(g1
I133
VseekBar
p1120
tp1121
I1
s(g1
I6298
VArrayList
p1122
tp1123
I1
s(g1
I409
VmDialog
p1124
tp1125
I1
s(g1
I274
VTypedValue
p1126
tp1127
I1
s(g1
I4940
Vi
p1128
tp1129
I1
s(g1
I282
VgetResources
p1130
tp1131
I1
s(g1
I392
Vpm
p1132
tp1133
I1
s(g1
I105
VheightMeasureSpec
p1134
tp1135
I3
s(g1
I269
Vbuilder
p1136
tp1137
I1
s(g1
I1089
VMaterialDialogAdapter
p1138
tp1139
I1
s(g1
I161
VOverride
p1140
tp1141
I1
s(g1
I1492
VEditText
p1142
tp1143
I1
s(g1
I82
Vanimator
p1144
tp1145
I1
s(g1
I5157
VgetLayoutForType
p1146
tp1147
I1
s(g1
I2832
VsetContent
p1148
tp1149
I1
s(g1
I1459
VmColorsSub
p1150
tp1151
I1
s(g1
I932
Vshow
p1152
tp1153
I1
s(g1
I4455
VcheckListener
p1154
tp1155
I1
s(g1
I338
VtextId
p1156
tp1157
I1
s(g1
I49
VView
p1158
tp1159
I1
s(g1
I2086
Vpaint
p1160
tp1161
I1
s(g1
I2004
Vcontext
p1162
tp1163
I1
s(g1
I3351
VNonNull
p1164
tp1165
I1
s(g1
I259
VOverride
p1166
tp1167
I1
s(g1
I933
VArrays
p1168
tp1169
I1
s(g1
I303
VDialogFragment
p1170
tp1171
I1
s(g1
I745
VonDismiss
p1172
tp1173
I1
s(g1
I180
VpaddingDp
p1174
tp1175
I1
s(g1
I2246
VrequestPermissions
p1176
tp1177
I1
s(g1
I2009
VneutralColor
p1178
tp1179
I1
s(g1
I1578
VRect
p1180
tp1181
I1
s(g1
I557
VpositiveText
p1182
tp1183
I1
s(g1
I1785
VgetResources
p1184
tp1185
I1
s(g1
I2619
Vparams
p1186
tp1187
I1
s(g1
I1412
VTextView
p1188
tp1189
I1
s(g1
I1090
VmaxIconSize
p1190
tp1191
I2
s(g1
I1207
Vfind
p1192
tp1193
I1
s(g1
I1601
VviewGroup
p1194
tp1195
I1
s(g1
I1009
VcurrentFocus
p1196
tp1197
I1
s(g1
I999
VfindViewById
p1198
tp1199
I1
s(g1
I1601
VdialogFramePadding
p1200
tp1201
I1
s(g1
I5879
VselectedIndicesList
p1202
tp1203
I1
s(g1
I517
VcanGoUp
p1204
tp1205
I1
s(g1
I1342
Vdialog
p1206
tp1207
I2
s(g1
I833
VgetAbsolutePath
p1208
tp1209
I1
s(g1
I943
VsetTextColor
p1210
tp1211
I1
s(g1
I5863
VIllegalStateException
p1212
tp1213
I1
s(g1
I262
VresolveActionTextColorStateList
p1214
tp1215
I1
s(g1
I103
Vstate
p1216
tp1217
I1
s(g1
I197
VshowDialog
p1218
tp1219
I1
s(g1
I1820
Vvg
p1220
tp1221
I1
s(g1
I381
Vview
p1222
tp1223
I1
s(g1
I458
Vtitle
p1224
tp1225
I1
s(g1
I1309
VStringBuilder
p1226
tp1227
I1
s(g1
I399
VcolorId
p1228
tp1229
I1
s(g1
I2006
Vchild
p1230
tp1231
I1
s(g1
I95
Vtitle
p1232
tp1233
I1
s(g1
I389
VonClick
p1234
tp1235
I1
s(g1
I1010
VfindViewById
p1236
tp1237
I1
s(g1
I1316
Vi
p1238
tp1239
I1
s(g1
I1523
VsetSingleLine
p1240
tp1241
I2
s(g1
I1902
VbuttonsWidth
p1242
tp1243
I1
s(g1
I2078
Vdialog
p1244
tp1245
I1
s(g1
I5257
Vcontext
p1246
tp1247
I1
s(g1
I1244
VOnClick
p1248
tp1249
I1
s(g1
I1594
VparseColor
p1250
tp1251
I1
s(g1
I3464
VsendSingleChoiceCallback
p1252
tp1253
I1
s(g1
I1115
VTypedArray
p1254
tp1255
I1
s(g1
I4292
Vbuild
p1256
tp1257
I1
s(g1
I6301
VselectedIndicesList
p1258
tp1259
I1
s(g1
I989
VautoDismiss
p1260
tp1261
I1
s(g1
I205
VFrameLayout
p1262
tp1263
I1
s(g1
I5196
VIllegalStateException
p1264
tp1265
I1
s(g1
I186
VGradientDrawable
p1266
tp1267
I1
s(g1
I1755
Vview
p1268
tp1269
I2
s(g1
I169
VonPositive
p1270
tp1271
I1
s(g1
I404
Vstate
p1272
tp1273
I1
s(g1
I712
Vtitle
p1274
tp1275
I1
s(g1
I1544
VMaterialDialogAdapter
p1276
tp1277
I1
s(g1
I1583
VmaxWindowFrame
p1278
tp1279
I1
s(g1
I1702
VonScrollChanged
p1280
tp1281
I1
s(g1
I1013
VbackgroundColor
p1282
tp1283
I1
s(g1
I397
VmDismissListener
p1284
tp1285
I1
s(g1
I42
VMenuItem
p1286
tp1287
I1
s(g1
I620
VsetVisibility
p1288
tp1289
I1
s(g1
I552
VcanGoUp
p1290
tp1291
I1
s(g1
I128
VgetResources
p1292
tp1293
I1
s(g1
I230
Vtitle
p1294
tp1295
I1
s(g1
I585
VsetTypeface
p1296
tp1297
I1
s(g1
I648
VpaddingBottom
p1298
tp1299
I1
s(g1
I248
VContextCompat
p1300
tp1301
I2
s(g1
I4928
VLooper
p1302
tp1303
I1
s(g1
I178
VdefStyleRes
p1304
tp1305
I1
s(g1
I4636
Vcontext
p1306
tp1307
I1
s(g1
I139
Vtv
p1308
tp1309
I1
s(g1
I459
Vtitle
p1310
tp1311
I1
s(g1
I1123
VFrameLayout
p1312
tp1313
I1
s(g1
I274
VresolveActionTextColorStateList
p1314
tp1315
I1
s(g1
I1655
VDialogInterface
p1316
tp1317
I1
s(g1
I114
VsetEntries
p1318
tp1319
I1
s(g1
I356
Vstate
p1320
tp1321
I1
s(g1
I56
Vllm
p1322
tp1323
I1
s(g1
I1343
Vpb
p1324
tp1325
I1
s(g1
I167
Vview
p1326
tp1327
I1
s(g1
I517
VmProgress
p1328
tp1329
I1
s(g1
I5127
VonShow
p1330
tp1331
I1
s(g1
I1816
VonScrollChangedListener
p1332
tp1333
I1
s(g1
I431
VwidthMeasureSpec
p1334
tp1335
I1
s(g1
I162
VgetEditText
p1336
tp1337
I1
s(g1
I85
Vattrs
p1338
tp1339
I1
s(g1
I57
VgetSupportActionBar
p1340
tp1341
I1
s(g1
I534
VsetFocusableInTouchMode
p1342
tp1343
I1
s(g1
I454
VPreferenceManager
p1344
tp1345
I1
s(g1
I89
VgetTitle
p1346
tp1347
I1
s(g1
I419
Vbuild
p1348
tp1349
I1
s(g1
I238
VNonNull
p1350
tp1351
I1
s(g1
I106
Vrecycle
p1352
tp1353
I1
s(g1
I377
Vbuilder
p1354
tp1355
I1
s(g1
I662
VcanGoUp
p1356
tp1357
I1
s(g1
I319
VonShow
p1358
tp1359
I1
s(g1
I39
Vname
p1360
tp1361
I1
s(g1
I630
Vtag
p1362
tp1363
I1
s(g1
I371
VonActivityDestroy
p1364
tp1365
I1
s(g1
I83
Vprivate
p1366
tp1367
I32
s(g1
I580
VsetTextColor
p1368
tp1369
I1
s(g1
I784
Vr
p1370
tp1371
I1
s(g1
I933
Vwhich
p1372
tp1373
I1
s(g1
I582
VgetSuperState
p1374
tp1375
I1
s(g1
I318
VisInSub
p1376
tp1377
I1
s(g1
I696
Vremove
p1378
tp1379
I1
s(g1
I319
VmAlpha
p1380
tp1381
I1
s(g1
I249
VContextThemeWrapper
p1382
tp1383
I1
s(g1
I568
Vinput
p1384
tp1385
I1
s(g1
I106
Va
p1386
tp1387
I1
s(g1
I1128
Vview
p1388
tp1389
I1
s(g1
I1126
Vdialog
p1390
tp1391
I1
s(g1
I111
Vi
p1392
tp1393
I1
s(g1
I80
Vget
p1394
tp1395
I1
s(g1
I1106
Vicon
p1396
tp1397
I2
s(g1
I1594
VColor
p1398
tp1399
I1
s(g1
I412
VlistType
p1400
tp1401
I1
s(g1
I504
VcontainsKey
p1402
tp1403
I1
s(g1
I51
S''
p1404
tp1405
I1
s(g1
I761
VmReducePaddingNoTitleNoButtons
p1406
tp1407
I1
s(g1
I1119
Vcontext
p1408
tp1409
I1
s(g1
I6509
Vcontent
p1410
tp1411
I1
s(g1
I383
VcolorId
p1412
tp1413
I1
s(g1
I6387
VEditable
p1414
tp1415
I1
s(g1
I467
VfindViewById
p1416
tp1417
I1
s(g1
I3153
VObject
p1418
tp1419
I1
s(g1
I1462
VinvertGravityIfNecessary
p1420
tp1421
I1
s(g1
I229
VDialogAction
p1422
tp1423
I1
s(g1
I68
VContext
p1424
tp1425
I1
s(g1
I355
Vmessage
p1426
tp1427
I1
s(g1
I1701
VpositiveButton
p1428
tp1429
I1
s(g1
I229
VInterpolator
p1430
tp1431
I1
s(g1
I1407
VfindViewById
p1432
tp1433
I1
s(g1
I1354
VBuilder
p1434
tp1435
I1
s(g1
I536
VsetColorFilter
p1436
tp1437
I1
s(g1
I29
Vd
p1438
tp1439
I1
s(g1
I1120
VnoTitleNoPadding
p1440
tp1441
I1
s(g1
I90
Vcontext
p1442
tp1443
I2
s(g1
I675
VgetString
p1444
tp1445
I1
s(g1
I218
Va
p1446
tp1447
I1
s(g1
I404
VonRestoreInstanceState
p1448
tp1449
I1
s(g1
I814
VTextView
p1450
tp1451
I1
s(g1
I4863
VgetResources
p1452
tp1453
I1
s(g1
I242
VmEditText
p1454
tp1455
I1
s(g1
I411
VshowBasicLongContent
p1456
tp1457
I1
s(g1
I3461
VonSelection
p1458
tp1459
I1
s(g1
I6389
Vs
p1460
tp1461
I1
s(g1
I1381
VgetPaddingTop
p1462
tp1463
I1
s(g1
I302
Vinit
p1464
tp1465
I1
s(g1
I1306
VsetOnCancelListener
p1466
tp1467
I1
s(g1
I474
VsetOnShowListener
p1468
tp1469
I1
s(g1
I840
VallowSelection
p1470
tp1471
I1
s(g1
I257
Vs
p1472
tp1473
I1
s(g1
I557
VinvalidateList
p1474
tp1475
I1
s(g1
I4234
VsetVisibility
p1476
tp1477
I1
s(g1
I2225
VgetResources
p1478
tp1479
I1
s(g1
I3370
VresolveGravityEnum
p1480
tp1481
I1
s(g1
I1167
Vlhs
p1482
tp1483
I1
s(g1
I5013
VsetTitle
p1484
tp1485
I1
s(g1
I4410
VinputMaxLength
p1486
tp1487
I1
s(g1
I1160
VcustomFrame
p1488
tp1489
I1
s(g1
I90
VonCreate
p1490
tp1491
I1
s(g1
I487
VFloat
p1492
tp1493
I1
s(g1
I1122
Varray
p1494
tp1495
I1
s(g1
I712
VgetBuilder
p1496
tp1497
I1
s(g1
I391
VnegativeText
p1498
tp1499
I1
s(g1
I279
VAnimatorSet
p1500
tp1501
I1
s(g1
I4615
VfindViewById
p1502
tp1503
I1
s(g1
I289
VColorStateList
p1504
tp1505
I1
s(g1
I1474
VwindowHorizontalPadding
p1506
tp1507
I1
s(g1
I601
VOverride
p1508
tp1509
I1
s(g1
I3385
VthemedContext
p1510
tp1511
I1
s(g1
I724
VString
p1512
tp1513
I1
s(g1
I1269
VonNegative
p1514
tp1515
I1
s(g1
I1710
VpositiveButton
p1516
tp1517
I1
s(g1
I27
VonCreate
p1518
tp1519
I1
s(g1
I424
VshowBasic
p1520
tp1521
I1
s(g1
I771
VSavedState
p1522
tp1523
I1
s(g1
I1720
VpositiveButton
p1524
tp1525
I1
s(g1
I4598
Vindex
p1526
tp1527
I1
s(g1
I845
VcheckedItems
p1528
tp1529
I1
s(g1
I160
VOverride
p1530
tp1531
I1
s(g1
I371
VpositiveText
p1532
tp1533
I1
s(g1
I360
VitemGravity
p1534
tp1535
I1
s(g1
I741
VMainActivity
p1536
tp1537
I1
s(g1
I68
VTextView
p1538
tp1539
I1
s(g1
I91
VsetLayoutResource
p1540
tp1541
I1
s(g1
I2417
Vtag
p1542
tp1543
I1
s(g1
I704
VsetChecked
p1544
tp1545
I1
s(g1
I1210
Vil
p1546
tp1547
I1
s(g1
I83
Vattrs
p1548
tp1549
I1
s(g1
I651
Vsl
p1550
tp1551
I1
s(g1
I238
Vdrawable
p1552
tp1553
I1
s(g1
I362
Vpm
p1554
tp1555
I1
s(g1
I377
VNonNull
p1556
tp1557
I1
s(g1
I1811
VlistView
p1558
tp1559
I1
s(g1
I51
Vllm
p1560
tp1561
I1
s(g1
I419
VonActivityDestroy
p1562
tp1563
I1
s(g1
I958
VcurrentFocus
p1564
tp1565
I1
s(g1
I50
Vattr
p1566
tp1567
I1
s(g1
I4857
Vmedium
p1568
tp1569
I1
s(g1
I3035
VCharSequence
p1570
tp1571
I1
s(g1
I2231
Vdismiss
p1572
tp1573
I1
s(g1
I432
VgetPreferenceManager
p1574
tp1575
I1
s(g1
I381
Vdialog
p1576
tp1577
I1
s(g1
I234
VOverride
p1578
tp1579
I1
s(g1
I1170
VisDirectory
p1580
tp1581
I1
s(g1
I945
VsetTextColor
p1582
tp1583
I1
s(g1
I37
Vcontext
p1584
tp1585
I1
s(g1
I540
VonSelection
p1586
tp1587
I1
s(g1
I162
VViewGroup
p1588
tp1589
I2
s(g1
I2004
VgetActionTextStateList
p1590
tp1591
I1
s(g1
I140
Vpath
p1592
tp1593
I1
s(g1
I2031
VDialogUtils
p1594
tp1595
I1
s(g1
I1234
VpositiveText
p1596
tp1597
I1
s(g1
I1539
VsetTransformationMethod
p1598
tp1599
I2
s(g1
I4906
VMaterialDialog
p1600
tp1601
I1
s(g1
I1072
VArrays
p1602
tp1603
I1
s(g1
I69
VonClickListener
p1604
tp1605
I1
s(g1
I722
VOverride
p1606
tp1607
I1
s(g1
I287
VanimatorSet
p1608
tp1609
I1
s(g1
I4396
VmaxLength
p1610
tp1611
I1
s(g1
I547
VscrollToPosition
p1612
tp1613
I1
s(g1
I5666
Vview
p1614
tp1615
I1
s(g1
I4812
VitemColor
p1616
tp1617
I1
s(g1
I524
VsetFocusableInTouchMode
p1618
tp1619
I1
s(g1
I1833
Vcolor
p1620
tp1621
I1
s(g1
I148
VsetShowTrack
p1622
tp1623
I1
s(g1
I160
Vitem
p1624
tp1625
I1
s(g1
I319
VputBoolean
p1626
tp1627
I1
s(g1
I491
VrecyclerView
p1628
tp1629
I1
s(g1
I7145
VinputMinMax
p1630
tp1631
I1
s(g1
I1040
VlistView
p1632
tp1633
I1
s(g1
I239
VsetSecondaryProgressTintList
p1634
tp1635
I1
s(g1
I167
VsetShowTrack
p1636
tp1637
I1
s(g1
I585
VgetInputEditText
p1638
tp1639
I1
s(g1
I158
VmIconPadding
p1640
tp1641
I1
s(g1
I975
Vview
p1642
tp1643
I1
s(g1
I4882
Vlp
p1644
tp1645
I1
s(g1
I4410
VmaxLength
p1646
tp1647
I1
s(g1
I138
VColorStateList
p1648
tp1649
I1
s(g1
I512
VsetColorFilter
p1650
tp1651
I1
s(g1
I954
VDialogUtils
p1652
tp1653
I1
s(g1
I1775
VbuttonBarDivider
p1654
tp1655
I2
s(g1
I1101
VsetAdjustViewBounds
p1656
tp1657
I2
s(g1
I168
VBuilder
p1658
tp1659
I1
s(g1
I852
Vview
p1660
tp1661
I1
s(g1
I744
VOverride
p1662
tp1663
I1
s(g1
I263
Vs1
p1664
tp1665
I1
s(g1
I616
VIntent
p1666
tp1667
I1
s(g1
I732
Vdialog
p1668
tp1669
I1
s(g1
I1567
VonItemClicked
p1670
tp1671
I1
s(g1
I1547
VTextView
p1672
tp1673
I2
s(g1
I239
VMaterialDialog
p1674
tp1675
I1
s(g1
I303
Vtv
p1676
tp1677
I1
s(g1
I950
VmContent
p1678
tp1679
I1
s(g1
I25
g1404
tp1680
I371
s(g1
I1968
VaccentColor
p1681
tp1682
I1
s(g1
I850
VView
p1683
tp1684
I1
s(g1
I1584
VgetArguments
p1685
tp1686
I1
s(g1
I76
Vcontext
p1687
tp1688
I2
s(g1
I908
VgetContext
p1689
tp1690
I1
s(g1
I120
VView
p1691
tp1692
I1
s(g1
I129
Va
p1693
tp1694
I1
s(g1
I1422
VgetWindow
p1695
tp1696
I1
s(g1
I1992
VgetActionTextStateList
p1697
tp1698
I1
s(g1
I1297
Vbuilder
p1699
tp1700
I1
s(g1
I963
VLayoutInflater
p1701
tp1702
I1
s(g1
I257
VString
p1703
tp1704
I1
s(g1
I228
VBundle
p1705
tp1706
I1
s(g1
I221
VcubicTo
p1707
tp1708
I1
s(g1
I1638
VsetupInputDialog
p1709
tp1710
I1
s(g1
I1179
VfindViewById
p1711
tp1712
I1
s(g1
I1588
VViewGroup
p1713
tp1714
I1
s(g1
I304
VfindViewById
p1715
tp1716
I1
s(g1
I841
VparseColor
p1717
tp1718
I1
s(g1
I260
VonBindDialogView
p1719
tp1720
I1
s(g1
I383
VgetDeclaredMethod
p1721
tp1722
I1
s(g1
I621
VString
p1723
tp1724
I1
s(g1
I1788
VgetDimension
p1725
tp1726
I1
s(g1
I836
VonLongClick
p1727
tp1728
I1
s(g1
I383
Vfirst
p1729
tp1730
I1
s(g1
I777
VlistView
p1731
tp1732
I1
s(g1
I1744
VdialogFramePadding
p1733
tp1734
I1
s(g1
I582
VsetTextColor
p1735
tp1736
I1
s(g1
I2439
VselectedTitles
p1737
tp1738
I1
s(g1
I580
VSavedState
p1739
tp1740
I1
s(g1
I947
VfindViewById
p1741
tp1742
I1
s(g1
I738
VsetTextColor
p1743
tp1744
I1
s(g1
I1699
Vfrag
p1745
tp1746
I1
s(g1
I158
VeditText
p1747
tp1748
I1
s(g1
I6150
Vindices
p1749
tp1750
I1
s(g1
I62
VColorChooserDialog
p1751
tp1752
I1
s(g1
I210
Vsize
p1753
tp1754
I1
s(g1
I505
Vobject
p1755
tp1756
I1
s(g1
I166
Vcontent
p1757
tp1758
I1
s(g1
I72
VinflateItem
p1759
tp1760
I1
s(g1
I1640
Vdialog
p1761
tp1762
I1
s(g1
I77
VresolveColor
p1763
tp1764
I1
s(g1
I3451
Vtext
p1765
tp1766
I1
s(g1
I333
Vdialog
p1767
tp1768
I1
s(g1
I1296
Vdialog
p1769
tp1770
I1
s(g1
I1222
VTextView
p1771
tp1772
I1
s(g1
I384
Vmethod
p1773
tp1774
I1
s(g1
I2101
VonMeasureLinear
p1775
tp1776
I1
s(g1
I425
VOverride
p1777
tp1778
I1
s(g1
I28
VsavedInstanceState
p1779
tp1780
I1
s(g1
I116
VContextCompat
p1781
tp1782
I1
s(g1
I1978
VCircleView
p1783
tp1784
I1
s(g1
I2263
VnumberOfActionButtons
p1785
tp1786
I1
s(g1
I1353
VIndeterminateHorizontalProgressDrawable
p1787
tp1788
I1
s(g1
I152
VshowMsg
p1789
tp1790
I1
s(g1
I2321
VtextAllCaps
p1791
tp1792
I1
s(g1
I2241
VonNeutral
p1793
tp1794
I1
s(g1
I422
Va
p1795
tp1796
I1
s(g1
I1381
VMDTintHelper
p1797
tp1798
I2
s(g1
I420
Vv
p1799
tp1800
I1
s(g1
I930
VnegativeTextView
p1801
tp1802
I1
s(g1
I238
VpositiveText
p1803
tp1804
I1
s(g1
I1872
VmCustomSeekGValue
p1805
tp1806
I1
s(g1
I418
VView
p1807
tp1808
I1
s(g1
I800
VstartActivity
p1809
tp1810
I1
s(g1
I755
VNonNull
p1811
tp1812
I1
s(g1
I48
VonViewInflated
p1813
tp1814
I1
s(g1
I259
Vdialog
p1815
tp1816
I1
s(g1
I1753
Vtitle
p1817
tp1818
I1
s(g1
I3277
VBuilder
p1819
tp1820
I1
s(g1
I344
VxPvh
p1821
tp1822
I1
s(g1
I4127
Vtitle
p1823
tp1824
I1
s(g1
I1700
Vtheme
p1825
tp1826
I1
s(g1
I1575
Vindex
p1827
tp1828
I1
s(g1
I363
Vlayout
p1829
tp1830
I1
s(g1
I709
VlimitIconToDefaultSize
p1831
tp1832
I1
s(g1
I493
VmHavePrefs
p1833
tp1834
I1
s(g1
I4474
VNullable
p1835
tp1836
I1
s(g1
I967
VDialogUtils
p1837
tp1838
I1
s(g1
I264
VContext
p1839
tp1840
I1
s(g1
I1297
Vlistener
p1841
tp1842
I1
s(g1
I1005
VcurrentFocus
p1843
tp1844
I1
s(g1
I2021
Vfallback
p1845
tp1846
I1
s(g1
I153
Vitem
p1847
tp1848
I1
s(g1
I1908
VpositiveButton
p1849
tp1850
I1
s(g1
I1528
VsetHintTextColor
p1851
tp1852
I1
s(g1
I576
VrecyclerView
p1853
tp1854
I1
s(g1
I1541
VselectedIndex
p1855
tp1856
I1
s(g1
I360
VtopIndex
p1857
tp1858
I1
s(g1
I586
VSavedState
p1859
tp1860
I1
s(g1
I1371
VfixCanvasScalingWhenHardwareAccelerated
p1861
tp1862
I1
s(g1
I135
VViewGroup
p1863
tp1864
I1
s(g1
I1559
Vbefore
p1865
tp1866
I2
s(g1
I60
Vattrs
p1867
tp1868
I1
s(g1
I5172
VonCancel
p1869
tp1870
I1
s(g1
I4905
Vbuild
p1871
tp1872
I1
s(g1
I3409
Vcolor
p1873
tp1874
I2
s(g1
I141
VButtonVH
p1875
tp1876
I1
s(g1
I1654
VonDismiss
p1877
tp1878
I1
s(g1
I39
Vdouble
p1879
tp1880
I1
s(g1
I4069
Vregular
p1881
tp1882
I1
s(g1
I935
VsetVisibility
p1883
tp1884
I1
s(g1
I108
VresolveColor
p1885
tp1886
I1
s(g1
I495
VonShow
p1887
tp1888
I1
s(g1
I86
Vanimator
p1889
tp1890
I1
s(g1
I612
VArrayList
p1891
tp1892
I1
s(g1
I300
Vvalue
p1893
tp1894
I1
s(g1
I529
VsetFocusable
p1895
tp1896
I1
s(g1
I3374
Vcolor
p1897
tp1898
I1
s(g1
I188
Vview
p1899
tp1900
I1
s(g1
I74
VMaterialEditTextPreference
p1901
tp1902
I1
s(g1
I488
Vdialog
p1903
tp1904
I1
s(g1
I550
Vtext
p1905
tp1906
I1
s(g1
I765
VsetText
p1907
tp1908
I1
s(g1
I517
Vd
p1909
tp1910
I1
s(g1
I1383
Vbuilder
p1911
tp1912
I1
s(g1
I169
Vpm
p1913
tp1914
I1
s(g1
I254
VgetResources
p1915
tp1916
I1
s(g1
I326
VputInt
p1917
tp1918
I1
s(g1
I1322
Vdialog
p1919
tp1920
I1
s(g1
I240
VMaterialDialog
p1921
tp1922
I1
s(g1
I2248
VautoDismiss
p1923
tp1924
I1
s(g1
I397
VsetBackgroundCompat
p1925
tp1926
I1
s(g1
I362
VautoDismiss
p1927
tp1928
I1
s(g1
I4031
VStringRes
p1929
tp1930
I1
s(g1
I204
Vcontains
p1931
tp1932
I1
s(g1
I1225
VTextView
p1933
tp1934
I1
s(g1
I697
VshowBasicLongContent
p1935
tp1936
I1
s(g1
I3057
Vtext
p1937
tp1938
I1
s(g1
I183
Vcontext
p1939
tp1940
I2
s(g1
I3168
VformatArgs
p1941
tp1942
I1
s(g1
I146
VgetIcon
p1943
tp1944
I1
s(g1
I916
VMDButton
p1945
tp1946
I1
s(g1
I1375
VFragment
p1947
tp1948
I1
s(g1
I5141
VIllegalStateException
p1949
tp1950
I1
s(g1
I64
VOverride
p1951
tp1952
I1
s(g1
I191
VmoveTo
p1953
tp1954
I1
s(g1
I324
VTextUtils
p1955
tp1956
I1
s(g1
I178
Vradio
p1957
tp1958
I1
s(g1
I312
VputInt
p1959
tp1960
I1
s(g1
I377
Vview
p1961
tp1962
I1
s(g1
I652
VparentFolder
p1963
tp1964
I1
s(g1
I1975
VaccentColor
p1965
tp1966
I1
s(g1
I508
Vget
p1967
tp1968
I1
s(g1
I2442
Vshow
p1969
tp1970
I1
s(g1
I647
Vr
p1971
tp1972
I1
s(g1
I862
ValwaysCallSingleChoiceCallback
p1973
tp1974
I1
s(g1
I417
VnegativeText
p1975
tp1976
I1
s(g1
I2906
VnegativeTextView
p1977
tp1978
I1
s(g1
I358
Vlistener
p1979
tp1980
I1
s(g1
I407
Vdialog
p1981
tp1982
I1
s(g1
I1013
VView
p1983
tp1984
I1
s(g1
I4239
VMaterialDialog
p1985
tp1986
I1
s(g1
I216
Vview
p1987
tp1988
I1
s(g1
I194
VTypedValue
p1989
tp1990
I1
s(g1
I480
VgetActivity
p1991
tp1992
I1
s(g1
I349
VDrawableCompat
p1993
tp1994
I1
s(g1
I2213
VgetChildAt
p1995
tp1996
I1
s(g1
I2557
VnegativeButton
p1997
tp1998
I1
s(g1
I2575
VMainActivity
p1999
tp2000
I1
s(g1
I484
VDialogInterface
p2001
tp2002
I1
s(g1
I1494
VEditText
p2003
tp2004
I2
s(g1
I1117
VMaterialSimpleListAdapter
p2005
tp2006
I1
s(g1
I1823
VmTopOnScrollChangedListener
p2007
tp2008
I1
s(g1
I579
VcontentColor
p2009
tp2010
I1
s(g1
I1665
VprimaryPreselect
p2011
tp2012
I1
s(g1
I211
VMaterialDialog
p2013
tp2014
I1
s(g1
I280
Vcallback
p2015
tp2016
I2
s(g1
I2425
VselectedIndices
p2017
tp2018
I1
s(g1
I910
VresolveColor
p2019
tp2020
I1
s(g1
I39
Vint
p2021
tp2022
I219
s(g1
I3092
Vcollection
p2023
tp2024
I1
s(g1
I4927
VselectedIndicesList
p2025
tp2026
I1
s(g1
I111
VmDialog
p2027
tp2028
I1
s(g1
I165
Vdialog
p2029
tp2030
I1
s(g1
I7124
VcurrentLength
p2031
tp2032
I1
s(g1
I612
Vsource
p2033
tp2034
I1
s(g1
I1946
VmediumFont
p2035
tp2036
I1
s(g1
I206
VdefStyleRes
p2037
tp2038
I1
s(g1
I66
Vview
p2039
tp2040
I1
s(g1
I1678
VmButtons
p2041
tp2042
I1
s(g1
I1911
Vignored
p2043
tp2044
I1
s(g1
I1423
Vshow
p2045
tp2046
I1
s(g1
I1601
VcurrentHeight
p2047
tp2048
I1
s(g1
I1018
VfindViewById
p2049
tp2050
I1
s(g1
I777
VavailableHeight
p2051
tp2052
I1
s(g1
I237
VsetContentView
p2053
tp2054
I1
s(g1
I479
VFloat
p2055
tp2056
I1
s(g1
I1371
VAppCompatActivity
p2057
tp2058
I1
s(g1
I1368
VfindViewById
p2059
tp2060
I2
s(g1
I506
VPreferenceManager
p2061
tp2062
I1
s(g1
I1669
VsubColors
p2063
tp2064
I1
s(g1
I136
VImageView
p2065
tp2066
I1
s(g1
I3593
VnegativeColor
p2067
tp2068
I1
s(g1
I250
VshowDialog
p2069
tp2070
I1
s(g1
I194
VContext
p2071
tp2072
I1
s(g1
I788
VnotifyDataSetChanged
p2073
tp2074
I1
s(g1
I1143
VsendSingleChoiceCallback
p2075
tp2076
I1
s(g1
I2539
VneutralButton
p2077
tp2078
I1
s(g1
I4288
Vcontext
p2079
tp2080
I1
s(g1
I54
VRippleHelper
p2081
tp2082
I1
s(g1
I955
VsetBackgroundColor
p2083
tp2084
I1
s(g1
I1025
VsetMargin
p2085
tp2086
I1
s(g1
I4372
VnegativeText
p2087
tp2088
I1
s(g1
I368
VOverride
p2089
tp2090
I1
s(g1
I6788
VIllegalStateException
p2091
tp2092
I1
s(g1
I31
VgetConfiguration
p2093
tp2094
I1
s(g1
I948
Vcontent
p2095
tp2096
I1
s(g1
I361
VmDialog
p2097
tp2098
I1
s(g1
I409
Vshow
p2099
tp2100
I1
s(g1
I197
Vcheckbox
p2101
tp2102
I1
s(g1
I4268
VnegativeButton
p2103
tp2104
I1
s(g1
I987
Vimm
p2105
tp2106
I1
s(g1
I3368
VBuilder
p2107
tp2108
I2
s(g1
I194
Vdialog
p2109
tp2110
I2
s(g1
I1699
Vvg
p2111
tp2112
I1
s(g1
I4241
Vtitle
p2113
tp2114
I1
s(g1
I570
VnewFi
p2115
tp2116
I1
s(g1
I4381
VselectorRes
p2117
tp2118
I1
s(g1
I284
VinvalidateSelf
p2119
tp2120
I1
s(g1
I231
Va
p2121
tp2122
I1
s(g1
I1466
VNonNull
p2123
tp2124
I1
s(g1
I250
Vpaint
p2125
tp2126
I1
s(g1
I80
VresolveFloat
p2127
tp2128
I1
s(g1
I575
Vtitle
p2129
tp2130
I1
s(g1
I2358
VcheckIfStackingNeeded
p2131
tp2132
I1
s(g1
I773
Vposition
p2133
tp2134
I1
s(g1
I675
VDrawableCompat
p2135
tp2136
I1
s(g1
I116
Vta
p2137
tp2138
I1
s(g1
I2223
VlastVisible
p2139
tp2140
I1
s(g1
I4385
VinputMaxLength
p2141
tp2142
I1
s(g1
I589
VsetGravity
p2143
tp2144
I1
s(g1
I1007
Vcontent
p2145
tp2146
I2
s(g1
I1278
Vdialog
p2147
tp2148
I1
s(g1
I27
VsavedInstanceState
p2149
tp2150
I1
s(g1
I203
VdefStyleAttr
p2151
tp2152
I1
s(g1
I3357
VbtnStackedGravity
p2153
tp2154
I1
s(g1
I105
VonMeasure
p2155
tp2156
I3
s(g1
I823
VselectedIndices
p2157
tp2158
I2
s(g1
I680
VinnerViewLayoutParams
p2159
tp2160
I1
s(g1
I1581
VparseColor
p2161
tp2162
I1
s(g1
I281
Vwhich
p2163
tp2164
I1
s(g1
I309
Vresults
p2165
tp2166
I1
s(g1
I806
VgetAdapterPosition
p2167
tp2168
I1
s(g1
I387
VparentFolder
p2169
tp2170
I1
s(g1
I816
Vv
p2171
tp2172
I1
s(g1
I361
Vshow
p2173
tp2174
I1
s(g1
I242
Vradio
p2175
tp2176
I1
s(g1
I666
VgetActionButton
p2177
tp2178
I1
s(g1
I1666
Vdialog
p2179
tp2180
I1
s(g1
I396
VColorRes
p2181
tp2182
I1
s(g1
I302
VDialogUtils
p2183
tp2184
I1
s(g1
I319
VonPositive
p2185
tp2186
I1
s(g1
I2098
VneutralWidth
p2187
tp2188
I1
s(g1
I3958
VlinkColor
p2189
tp2190
I1
s(g1
I136
VyProperty
p2191
tp2192
I1
s(g1
I535
VsetBackgroundCompat
p2193
tp2194
I1
s(g1
I65
VgetTransformation
p2195
tp2196
I1
s(g1
I402
VitemGravity
p2197
tp2198
I1
s(g1
I1841
VonScrollChangedListener
p2199
tp2200
I1
s(g1
I1568
Vdialog
p2201
tp2202
I1
s(g1
I6010
VmaxIconSizeRes
p2203
tp2204
I2
s(g1
I969
VsetMargin
p2205
tp2206
I1
s(g1
I1417
Vbuild
p2207
tp2208
I1
s(g1
I380
VparentFolder
p2209
tp2210
I1
s(g1
I1667
Vbutton
p2211
tp2212
I1
s(g1
I919
Vpost
p2213
tp2214
I1
s(g1
I676
VpositiveText
p2215
tp2216
I1
s(g1
I373
VFile
p2217
tp2218
I1
s(g1
I503
VshowBasicIcon
p2219
tp2220
I1
s(g1
I1670
Vdialog
p2221
tp2222
I1
s(g1
I1546
VadjustAlpha
p2223
tp2224
I1
s(g1
I2110
Vview
p2225
tp2226
I1
s(g1
I1834
Vformat
p2227
tp2228
I1
s(g1
I95
VMaterialEditTextPreference
p2229
tp2230
I1
s(g1
I997
VsetOnCancelListener
p2231
tp2232
I1
s(g1
I332
Vmethod
p2233
tp2234
I1
s(g1
I34
Vcolor
p2235
tp2236
I1
s(g1
I4463
VBuilder
p2237
tp2238
I1
s(g1
I968
VlistCallbackSingle
p2239
tp2240
I1
s(g1
I5517
Vpercentage
p2241
tp2242
I1
s(g1
I1658
Vcallback
p2243
tp2244
I1
s(g1
I744
Veditor
p2245
tp2246
I1
s(g1
I1113
VfindViewById
p2247
tp2248
I1
s(g1
I401
Vwindow
p2249
tp2250
I1
s(g1
I1477
VcalculatedWidth
p2251
tp2252
I1
s(g1
I1379
VMDTintHelper
p2253
tp2254
I1
s(g1
I1904
VTypeface
p2255
tp2256
I1
s(g1
I735
VcheckSelfPermission
p2257
tp2258
I1
s(g1
I1323
VinvalidateList
p2259
tp2260
I1
s(g1
I501
VgetArguments
p2261
tp2262
I1
s(g1
I1358
VFragmentActivity
p2263
tp2264
I1
s(g1
I1333
VsetOnDismissListener
p2265
tp2266
I1
s(g1
I4083
Vregular
p2267
tp2268
I1
s(g1
I347
VsetVisibility
p2269
tp2270
I1
s(g1
I570
Vdialog
p2271
tp2272
I1
s(g1
I1006
VLinearLayout
p2273
tp2274
I1
s(g1
I1362
VfindViewById
p2275
tp2276
I1
s(g1
I4003
VtitleColorAttr
p2277
tp2278
I1
s(g1
I200
Vdisabled
p2279
tp2280
I1
s(g1
I1414
VsetTextColor
p2281
tp2282
I1
s(g1
I849
VsetItems
p2283
tp2284
I1
s(g1
I1160
Vlhs
p2285
tp2286
I1
s(g1
I4238
VNEUTRAL
p2287
tp2288
I1
s(g1
I113
Vfallback
p2289
tp2290
I1
s(g1
I155
VprogressBar
p2291
tp2292
I1
s(g1
I575
VgetContext
p2293
tp2294
I1
s(g1
I5266
VprogressColorRes
p2295
tp2296
I1
s(g1
I317
VViewGroup
p2297
tp2298
I1
s(g1
I840
Vbuilder
p2299
tp2300
I1
s(g1
I172
VsetText
p2301
tp2302
I1
s(g1
I80
VAnimator
p2303
tp2304
I1
s(g1
I62
VGridLayoutManager
p2305
tp2306
I1
s(g1
I1011
Vview
p2307
tp2308
I1
s(g1
I378
VonDismiss
p2309
tp2310
I1
s(g1
I171
Vitem
p2311
tp2312
I1
s(g1
I2837
Vdialog
p2313
tp2314
I1
s(g1
I1348
Vdialog
p2315
tp2316
I2
s(g1
I1109
VTextView
p2317
tp2318
I1
s(g1
I669
VselectedColor
p2319
tp2320
I1
s(g1
I3083
Vcontext
p2321
tp2322
I1
s(g1
I4872
VString
p2323
tp2324
I1
s(g1
I6121
VMaterialDialogAdapter
p2325
tp2326
I1
s(g1
I1201
Vcompare
p2327
tp2328
I1
s(g1
I1765
VbottomMargin
p2329
tp2330
I2
s(g1
I152
VView
p2331
tp2332
I1
s(g1
I405
VMaterialDialog
p2333
tp2334
I1
s(g1
I3169
Vstr
p2335
tp2336
I1
s(g1
I1161
Vitems
p2337
tp2338
I1
s(g1
I1486
VsetMaxHeight
p2339
tp2340
I1
s(g1
I5185
VonCancel
p2341
tp2342
I1
s(g1
I1380
VIndeterminateProgressDrawable
p2343
tp2344
I1
s(g1
I526
VgetProgressDrawable
p2345
tp2346
I1
s(g1
I1927
VgetVisibility
p2347
tp2348
I1
s(g1
I249
Vdrawable
p2349
tp2350
I2
s(g1
I1498
VfindViewById
p2351
tp2352
I2
s(g1
I242
VmValue
p2353
tp2354
I1
s(g1
I2217
Vllm
p2355
tp2356
I1
s(g1
I755
Vsource
p2357
tp2358
I1
s(g1
I1295
VmSelectedCustomColor
p2359
tp2360
I1
s(g1
I28
VApp
p2361
tp2362
I1
s(g1
I96
Vicon
p2363
tp2364
I2
s(g1
I676
VDefaultRvAdapter
p2365
tp2366
I1
s(g1
I369
Vtext
p2367
tp2368
I1
s(g1
I2445
Vshow
p2369
tp2370
I1
s(g1
I1345
VcheckIfListInitScroll
p2371
tp2372
I1
s(g1
I694
VsetVisibility
p2373
tp2374
I1
s(g1
I170
VAttributeSet
p2375
tp2376
I1
s(g1
I3957
VgetActionTextStateList
p2377
tp2378
I1
s(g1
I467
Vm
p2379
tp2380
I1
s(g1
I412
Vwhich
p2381
tp2382
I1
s(g1
I167
Vcontext
p2383
tp2384
I1
s(g1
I1708
VpositiveColor
p2385
tp2386
I1
s(g1
I6406
VemptyDisabled
p2387
tp2388
I1
s(g1
I5031
VObject
p2389
tp2390
I1
s(g1
I3378
Vcontext
p2391
tp2392
I1
s(g1
I925
Vdialog
p2393
tp2394
I1
s(g1
I581
Vcallback
p2395
tp2396
I1
s(g1
I2320
VDialogUtils
p2397
tp2398
I1
s(g1
I1446
Vshow
p2399
tp2400
I1
s(g1
I113
VmCallback
p2401
tp2402
I3
s(g1
I958
Ve1
p2403
tp2404
I1
s(g1
I678
VColor
p2405
tp2406
I1
s(g1
I1113
Vcon
p2407
tp2408
I1
s(g1
I659
VTextView
p2409
tp2410
I1
s(g1
I339
VonSaveInstanceState
p2411
tp2412
I1
s(g1
I74
VContext
p2413
tp2414
I2
s(g1
I311
VDialogUtils
p2415
tp2416
I1
s(g1
I610
VMaterialDialog
p2417
tp2418
I1
s(g1
I188
Vtitle
p2419
tp2420
I1
s(g1
I130
VgetDisplayMetrics
p2421
tp2422
I1
s(g1
I50
VsavedInstanceState
p2423
tp2424
I1
s(g1
I939
Vview
p2425
tp2426
I1
s(g1
I209
VNonNull
p2427
tp2428
I1
s(g1
I154
Vic
p2429
tp2430
I1
s(g1
I821
VmThread
p2431
tp2432
I1
s(g1
I1347
VcontainsKey
p2433
tp2434
I1
s(g1
I355
VsetVisibility
p2435
tp2436
I1
s(g1
I170
Vicon
p2437
tp2438
I1
s(g1
I409
VNonNull
p2439
tp2440
I1
s(g1
I3060
Vhtml
p2441
tp2442
I1
s(g1
I131
VDialogUtils
p2443
tp2444
I1
s(g1
I1659
VmaterialBlue
p2445
tp2446
I1
s(g1
I1097
Vdialog
p2447
tp2448
I1
s(g1
I4626
VBuilder
p2449
tp2450
I1
s(g1
I753
Vdialog
p2451
tp2452
I1
s(g1
I196
Vcontext
p2453
tp2454
I1
s(g1
I256
VonClick
p2455
tp2456
I1
s(g1
I369
VgetPreferenceManager
p2457
tp2458
I1
s(g1
I963
Vdialog
p2459
tp2460
I1
s(g1
I177
VonNegative
p2461
tp2462
I1
s(g1
I349
Vsl
p2463
tp2464
I1
s(g1
I302
Vtint
p2465
tp2466
I1
s(g1
I213
VeditText
p2467
tp2468
I1
s(g1
I126
Vindex
p2469
tp2470
I1
s(g1
I311
VtopIndex
p2471
tp2472
I1
s(g1
I1459
VsubLevel
p2473
tp2474
I1
s(g1
I4397
VmaxLength
p2475
tp2476
I1
s(g1
I1106
VfindViewById
p2477
tp2478
I1
s(g1
I1108
VgetLayoutForType
p2479
tp2480
I1
s(g1
I2003
VwidgetColor
p2481
tp2482
I1
s(g1
I355
Vview
p2483
tp2484
I1
s(g1
I665
VDefaultRvAdapter
p2485
tp2486
I1
s(g1
I4246
Vtitle
p2487
tp2488
I1
s(g1
I381
Vwhich
p2489
tp2490
I1
s(g1
I2566
VTextView
p2491
tp2492
I1
s(g1
I946
VsetColorFilter
p2493
tp2494
I1
s(g1
I818
Vview
p2495
tp2496
I1
s(g1
I458
VfromHtml
p2497
tp2498
I1
s(g1
I4861
Vregular
p2499
tp2500
I1
s(g1
I277
VfindViewById
p2501
tp2502
I1
s(g1
I396
Vtitle
p2503
tp2504
I1
s(g1
I160
Vpadding
p2505
tp2506
I1
s(g1
I1934
Vtypeface
p2507
tp2508
I1
s(g1
I1158
VgetPaddingRight
p2509
tp2510
I1
s(g1
I377
VgetClass
p2511
tp2512
I1
s(g1
I1683
VwidgetColor
p2513
tp2514
I1
s(g1
I1927
Vllm
p2515
tp2516
I1
s(g1
I378
VgetString
p2517
tp2518
I1
s(g1
I6748
VIllegalStateException
p2519
tp2520
I1
s(g1
I56
Vcontext
p2521
tp2522
I1
s(g1
I4630
VmContext
p2523
tp2524
I1
s(g1
I2153
Vchild
p2525
tp2526
I1
s(g1
I420
Vinvalidate
p2527
tp2528
I1
s(g1
I1408
VgetAttributes
p2529
tp2530
I1
s(g1
I2211
VLinearLayoutManager
p2531
tp2532
I1
s(g1
I246
VgetParent
p2533
tp2534
I1
s(g1
I500
VonMeasure
p2535
tp2536
I1
s(g1
I1438
VfragmentActivity
p2537
tp2538
I1
s(g1
I842
VparentFolder
p2539
tp2540
I1
s(g1
I1637
Vinvalidate
p2541
tp2542
I1
s(g1
I734
VeditText
p2543
tp2544
I1
s(g1
I173
VView
p2545
tp2546
I1
s(g1
I1282
Vbefore
p2547
tp2548
I1
s(g1
I295
Vtint
p2549
tp2550
I1
s(g1
I5091
VDialogInterface
p2551
tp2552
I1
s(g1
I30
VsavedInstanceState
p2553
tp2554
I1
s(g1
I5121
Vinput
p2555
tp2556
I1
s(g1
I608
Vsource
p2557
tp2558
I1
s(g1
I659
VparentFolder
p2559
tp2560
I1
s(g1
I47
Vitem
p2561
tp2562
I1
s(g1
I4799
VgetContext
p2563
tp2564
I1
s(g1
I491
VWindow
p2565
tp2566
I1
s(g1
I527
VregDraw
p2567
tp2568
I1
s(g1
I1006
Vdialog
p2569
tp2570
I1
s(g1
I710
VparentFolder
p2571
tp2572
I1
s(g1
I120
VProperty
p2573
tp2574
I1
s(g1
I858
VisVisible
p2575
tp2576
I1
s(g1
I2214
VisStacked
p2577
tp2578
I1
s(g1
I998
VgetResources
p2579
tp2580
I1
s(g1
I952
Vdrawables
p2581
tp2582
I1
s(g1
I257
Vtarget
p2583
tp2584
I1
s(g1
I4327
VMaterialDialog
p2585
tp2586
I1
s(g1
I3085
VNonNull
p2587
tp2588
I1
s(g1
I3075
ViconAttr
p2589
tp2590
I1
s(g1
I1566
VsubIndex
p2591
tp2592
I1
s(g1
I162
Vtitle
p2593
tp2594
I1
s(g1
I268
VMULTI
p2595
tp2596
I1
s(g1
I2228
VgetDimension
p2597
tp2598
I1
s(g1
I1849
Vformat
p2599
tp2600
I1
s(g1
I6488
VsetImageDrawable
p2601
tp2602
I1
s(g1
I716
VTextView
p2603
tp2604
I1
s(g1
I4133
Vtitle
p2605
tp2606
I1
s(g1
I4111
VTypefaceHelper
p2607
tp2608
I1
s(g1
I6163
Vindices
p2609
tp2610
I1
s(g1
I934
Vt
p2611
tp2612
I1
s(g1
I294
VColorStateList
p2613
tp2614
I1
s(g1
I4284
VcolorRes
p2615
tp2616
I1
s(g1
I713
VField
p2617
tp2618
I1
s(g1
I1340
VfindViewById
p2619
tp2620
I1
s(g1
I3957
VDialogUtils
p2621
tp2622
I1
s(g1
I526
VonActivityDestroy
p2623
tp2624
I1
s(g1
I469
Vbuild
p2625
tp2626
I1
s(g1
I24
VStetho
p2627
tp2628
I1
s(g1
I4096
VString
p2629
tp2630
I1
s(g1
I1355
VFolderChooserDialog
p2631
tp2632
I1
s(g1
I4922
VOverride
p2633
tp2634
I1
s(g1
I2032
Vfallback
p2635
tp2636
I1
s(g1
I2359
VgravityIntToGravity
p2637
tp2638
I1
s(g1
I1137
VlistCallbackMulti
p2639
tp2640
I1
s(g1
I47
Vsource
p2641
tp2642
I1
s(g1
I184
Vbuilder
p2643
tp2644
I2
s(g1
I122
Vattr
p2645
tp2646
I1
s(g1
I1015
Vbuild
p2647
tp2648
I1
s(g1
I1580
VshowToast
p2649
tp2650
I1
s(g1
I2259
Vsplit
p2651
tp2652
I1
s(g1
I238
Vview
p2653
tp2654
I1
s(g1
I1067
VArrayList
p2655
tp2656
I1
s(g1
I326
VoutState
p2657
tp2658
I1
s(g1
I2357
VPOSITIVE
p2659
tp2660
I1
s(g1
I1683
Vcontext
p2661
tp2662
I1
s(g1
I925
VnegativeTextView
p2663
tp2664
I1
s(g1
I319
Vcolor
p2665
tp2666
I1
s(g1
I164
Vparent
p2667
tp2668
I1
s(g1
I738
VBaseSavedState
p2669
tp2670
I1
s(g1
I497
VonShow
p2671
tp2672
I1
s(g1
I501
VsetSoftInputMode
p2673
tp2674
I1
s(g1
I189
Vdisabled
p2675
tp2676
I1
s(g1
I494
VOverride
p2677
tp2678
I1
s(g1
I2085
VtoString
p2679
tp2680
I1
s(g1
I394
Vcontext
p2681
tp2682
I1
s(g1
I406
VcheckBoxPrompt
p2683
tp2684
I1
s(g1
I82
Vstate
p2685
tp2686
I1
s(g1
I98
Vfallback
p2687
tp2688
I2
s(g1
I4615
Vitems
p2689
tp2690
I1
s(g1
I243
VOverride
p2691
tp2692
I1
s(g1
I355
VgetChildCount
p2693
tp2694
I1
s(g1
I1956
VlastItemVisible
p2695
tp2696
I1
s(g1
I252
Vview
p2697
tp2698
I1
s(g1
I147
VTypedArray
p2699
tp2700
I1
s(g1
I2598
Vparams
p2701
tp2702
I1
s(g1
I7145
VmProgressMinMax
p2703
tp2704
I1
s(g1
I1699
Vbottom
p2705
tp2706
I1
s(g1
I4478
VcheckListener
p2707
tp2708
I1
s(g1
I590
VInputMethodManager
p2709
tp2710
I1
s(g1
I555
VdialogBundle
p2711
tp2712
I1
s(g1
I569
Vfallback
p2713
tp2714
I1
s(g1
I4847
VUiThread
p2715
tp2716
I1
s(g1
I4866
VgetBoolean
p2717
tp2718
I1
s(g1
I4870
VNullable
p2719
tp2720
I1
s(g1
I714
VresolveColor
p2721
tp2722
I1
s(g1
I354
Vselector
p2723
tp2724
I1
s(g1
I778
Vview
p2725
tp2726
I1
s(g1
I1612
VDialogUtils
p2727
tp2728
I1
s(g1
I3619
VDialogUtils
p2729
tp2730
I1
s(g1
I5136
Vitems
p2731
tp2732
I1
s(g1
I283
Vcontext
p2733
tp2734
I1
s(g1
I1465
VsetButtonGravity
p2735
tp2736
I1
s(g1
I5190
Vprogress
p2737
tp2738
I1
s(g1
I169
VUiThread
p2739
tp2740
I1
s(g1
I405
Vcontext
p2741
tp2742
I1
s(g1
I1136
Vcontent
p2743
tp2744
I1
s(g1
I1951
Vcreate
p2745
tp2746
I1
s(g1
I685
VtoString
p2747
tp2748
I1
s(g1
I1461
VsetVisibility
p2749
tp2750
I1
s(g1
I1056
Vdialog
p2751
tp2752
I1
s(g1
I4631
Vadapter
p2753
tp2754
I1
s(g1
I22
VDialogFragment
p2755
tp2756
I1
s(g1
I54
g1404
tp2757
I20
s(g1
I2352
VsetBackgroundCompat
p2758
tp2759
I1
s(g1
I564
VFile
p2760
tp2761
I1
s(g1
I1562
VsetInputType
p2762
tp2763
I1
s(g1
I1322
VsetOnDismissListener
p2764
tp2765
I1
s(g1
I1378
VgetPaddingLeft
p2766
tp2767
I1
s(g1
I3580
Vcontext
p2768
tp2769
I1
s(g1
I3259
VBuilder
p2770
tp2771
I1
s(g1
I165
VsetCancelable
p2772
tp2773
I1
s(g1
I198
VFolderSorter
p2774
tp2775
I1
s(g1
I1391
VsetTypeface
p2776
tp2777
I1
s(g1
I876
VRadioButton
p2778
tp2779
I1
s(g1
I1174
VsetVisibility
p2780
tp2781
I1
s(g1
I1436
VsetText
p2782
tp2783
I1
s(g1
I257
VgetDimension
p2784
tp2785
I1
s(g1
I127
Vview
p2786
tp2787
I1
s(g1
I1692
VgetString
p2788
tp2789
I1
s(g1
I1585
VparseColor
p2790
tp2791
I1
s(g1
I2437
VfragmentActivity
p2792
tp2793
I1
s(g1
I5093
Vdialog
p2794
tp2795
I1
s(g1
I1992
Vcontext
p2796
tp2797
I1
s(g1
I1927
VfindLastVisibleItemPosition
p2798
tp2799
I1
s(g1
I381
Vd
p2800
tp2801
I1
s(g1
I1749
VsetBackgroundColor
p2802
tp2803
I2
s(g1
I1526
Vposition
p2804
tp2805
I1
s(g1
I1443
Vshow
p2806
tp2807
I1
s(g1
I366
VPreferenceManager
p2808
tp2809
I1
s(g1
I286
VOnClick
p2810
tp2811
I1
s(g1
I474
VshowBasicLongContent
p2812
tp2813
I1
s(g1
I775
VfindViewById
p2814
tp2815
I2
s(g1
I670
VDrawable
p2816
tp2817
I1
s(g1
I1599
VgetDimension
p2818
tp2819
I1
s(g1
I6885
VinputMinMax
p2820
tp2821
I1
s(g1
I1030
VitemsLongCallback
p2822
tp2823
I1
s(g1
I197
Vcallback
p2824
tp2825
I2
s(g1
I158
Vpreference
p2826
tp2827
I1
s(g1
I4413
VinputMaxLengthRes
p2828
tp2829
I1
s(g1
I96
Vdialog
p2830
tp2831
I1
s(g1
I529
Vd
p2832
tp2833
I1
s(g1
I958
VLayoutInflater
p2834
tp2835
I1
s(g1
I60
VinvalidateSelf
p2836
tp2837
I1
s(g1
I25
Vcache
p2838
tp2839
I1
s(g1
I766
VonColorSelection
p2840
tp2841
I1
s(g1
I325
VsubIndex
p2842
tp2843
I1
s(g1
I342
Vlistener
p2844
tp2845
I1
s(g1
I6486
VinvalidateInputMinMaxIndicator
p2846
tp2847
I1
s(g1
I165
VmStackedEndPadding
p2848
tp2849
I1
s(g1
I264
Vvalues
p2850
tp2851
I1
s(g1
I690
VColor
p2852
tp2853
I1
s(g1
I985
VcustomFrame
p2854
tp2855
I1
s(g1
I864
Vtext
p2856
tp2857
I1
s(g1
I821
Vv
p2858
tp2859
I1
s(g1
I2214
VLinearLayoutManager
p2860
tp2861
I1
s(g1
I985
VOnClick
p2862
tp2863
I1
s(g1
I1324
Vdialog
p2864
tp2865
I1
s(g1
I573
VonDismiss
p2866
tp2867
I1
s(g1
I417
VObject
p2868
tp2869
I1
s(g1
I1438
VpositiveButton
p2870
tp2871
I1
s(g1
I1339
VshowMultiChoiceLongItems
p2872
tp2873
I1
s(g1
I2003
Vcontext
p2874
tp2875
I1
s(g1
I482
VdefaultValue
p2876
tp2877
I1
s(g1
I90
VgetEntryValues
p2878
tp2879
I1
s(g1
I1960
VinvalidateList
p2880
tp2881
I1
s(g1
I1290
Vdialog
p2882
tp2883
I1
s(g1
I120
Vv
p2884
tp2885
I1
s(g1
I797
VPreferenceActivityCompat
p2886
tp2887
I1
s(g1
I753
VcheckIfCanGoUp
p2888
tp2889
I1
s(g1
I145
VContext
p2890
tp2891
I1
s(g1
I165
VgetDialogMessage
p2892
tp2893
I1
s(g1
I720
Vcontent
p2894
tp2895
I1
s(g1
I674
VitemView
p2896
tp2897
I1
s(g1
I361
VgetArguments
p2898
tp2899
I1
s(g1
I2054
VisRecyclerView
p2900
tp2901
I1
s(g1
I279
Vwhich
p2902
tp2903
I1
s(g1
I1423
VgetResources
p2904
tp2905
I1
s(g1
I263
VscaleXAnimator
p2906
tp2907
I1
s(g1
I2432
VColorChooserDialog
p2908
tp2909
I1
s(g1
I168
VgetEditText
p2910
tp2911
I1
s(g1
I606
VOverride
p2912
tp2913
I1
s(g1
I593
VInputMethodManager
p2914
tp2915
I1
s(g1
I663
VgetResources
p2916
tp2917
I1
s(g1
I1775
VResources
p2918
tp2919
I2
s(g1
I155
VOverride
p2920
tp2921
I1
s(g1
I1126
VFrameLayout
p2922
tp2923
I1
s(g1
I1596
VmContext
p2924
tp2925
I1
s(g1
I713
VDefaultVH
p2926
tp2927
I1
s(g1
I271
Vinflater
p2928
tp2929
I1
s(g1
I189
Vcontext
p2930
tp2931
I1
s(g1
I18
g1404
tp2932
I2
s(g1
I171
VgetIconPadding
p2933
tp2934
I1
s(g1
I4362
Vmessage
p2935
tp2936
I1
s(g1
I1150
VViewGroup
p2937
tp2938
I1
s(g1
I266
Vpm
p2939
tp2940
I1
s(g1
I2293
VsetVisibility
p2941
tp2942
I1
s(g1
I296
VMDTintHelper
p2943
tp2944
I1
s(g1
I2197
Vrv
p2945
tp2946
I1
s(g1
I127
Vta
p2947
tp2948
I1
s(g1
I994
VsetPadding
p2949
tp2950
I1
s(g1
I3969
Vcontext
p2951
tp2952
I1
s(g1
I818
VInteger
p2953
tp2954
I2
s(g1
I2583
VallowNewFolder
p2955
tp2956
I1
s(g1
I1113
VsetDialog
p2957
tp2958
I1
s(g1
I801
VadapterProvided
p2959
tp2960
I1
s(g1
I3357
VresolveGravityEnum
p2961
tp2962
I1
s(g1
I230
Vcontext
p2963
tp2964
I1
s(g1
I263
VsetTintList
p2965
tp2966
I1
s(g1
I3461
Vtext
p2967
tp2968
I1
s(g1
I1391
Vdialog
p2969
tp2970
I1
s(g1
I1961
VTypeface
p2971
tp2972
I1
s(g1
I839
VsendSingleChoiceCallback
p2973
tp2974
I1
s(g1
I5263
VsetProgress
p2975
tp2976
I1
s(g1
I187
Vvalues
p2977
tp2978
I1
s(g1
I5040
VsetTitle
p2979
tp2980
I1
s(g1
I1101
Vicon
p2981
tp2982
I2
s(g1
I1003
VLinearLayout
p2983
tp2984
I1
s(g1
I700
VsendMultichoiceCallback
p2985
tp2986
I1
s(g1
I2360
VpositiveTextView
p2987
tp2988
I1
s(g1
I695
Vposition
p2989
tp2990
I1
s(g1
I398
VpositiveText
p2991
tp2992
I1
s(g1
I614
Vicon
p2993
tp2994
I1
s(g1
I4321
VcancelListener
p2995
tp2996
I1
s(g1
I2851
VgetActionButton
p2997
tp2998
I1
s(g1
I267
Vfallback
p2999
tp3000
I2
s(g1
I268
VresolveColor
p3001
tp3002
I2
s(g1
I194
VsetCanceledOnTouchOutside
p3003
tp3004
I1
s(g1
I228
VViewGroup
p3005
tp3006
I1
s(g1
I1570
VinvalidateInputMinMaxIndicator
p3007
tp3008
I1
s(g1
I47
VsavedInstanceState
p3009
tp3010
I1
s(g1
I432
VonGetDefaultValue
p3011
tp3012
I1
s(g1
I1426
VsetVisibility
p3013
tp3014
I1
s(g1
I5105
VDialogUtils
p3015
tp3016
I1
s(g1
I217
Vcontext
p3017
tp3018
I1
s(g1
I7127
VemptyDisabled
p3019
tp3020
I1
s(g1
I255
VFloat
p3021
tp3022
I1
s(g1
I778
Vtext
p3023
tp3024
I1
s(g1
I65
VsetDisplayHomeAsUpEnabled
p3025
tp3026
I1
s(g1
I5181
VDialogUtils
p3027
tp3028
I1
s(g1
I306
VsetValue
p3029
tp3030
I1
s(g1
I790
VavailableHeight
p3031
tp3032
I1
s(g1
I3151
VcontentRes
p3033
tp3034
I1
s(g1
I591
Vcontent
p3035
tp3036
I1
s(g1
I267
Vtext
p3037
tp3038
I1
s(g1
I6167
VArrayList
p3039
tp3040
I1
s(g1
I6807
VgetCurrentProgress
p3041
tp3042
I1
s(g1
I302
VonDismiss
p3043
tp3044
I1
s(g1
I1861
VmCustomSeekRValue
p3045
tp3046
I1
s(g1
I241
Vdialog
p3047
tp3048
I1
s(g1
I2170
Vlv
p3049
tp3050
I1
s(g1
I282
VString
p3051
tp3052
I1
s(g1
I167
VmItems
p3053
tp3054
I1
s(g1
I956
VsetInverseBackgroundForced
p3055
tp3056
I1
s(g1
I262
VT
p3057
tp3058
I1
s(g1
I1009
VgetWindowToken
p3059
tp3060
I1
s(g1
I150
Vpreselect
p3061
tp3062
I1
s(g1
I1200
Vtv
p3063
tp3064
I1
s(g1
I857
VCharSequence
p3065
tp3066
I1
s(g1
I1695
Vcontext
p3067
tp3068
I2
s(g1
I417
Vparams
p3069
tp3070
I1
s(g1
I1680
VmBottomOnScrollChangedListener
p3071
tp3072
I1
s(g1
I605
Vimm
p3073
tp3074
I1
s(g1
I3416
Vcontext
p3075
tp3076
I1
s(g1
I1358
Vd
p3077
tp3078
I1
s(g1
I236
VinvalidateSelf
p3079
tp3080
I1
s(g1
I3374
VidsArrayRes
p3081
tp3082
I1
s(g1
I825
VselectedIndices
p3083
tp3084
I2
s(g1
I4394
VselectorRes
p3085
tp3086
I1
s(g1
I108
Vcontext
p3087
tp3088
I1
s(g1
I356
VonRestoreInstanceState
p3089
tp3090
I1
s(g1
I154
Vdialog
p3091
tp3092
I2
s(g1
I862
VnotifyItemChanged
p3093
tp3094
I1
s(g1
I944
VDrawable
p3095
tp3096
I1
s(g1
I184
VfindIndexOfValue
p3097
tp3098
I1
s(g1
I3143
Vitems
p3099
tp3100
I1
s(g1
I80
Vstate
p3101
tp3102
I1
s(g1
I1835
VmBottomOnScrollChangedListener
p3103
tp3104
I1
s(g1
I588
VgetGravityInt
p3105
tp3106
I1
s(g1
I659
VonLongClick
p3107
tp3108
I1
s(g1
I2534
VNEUTRAL
p3109
tp3110
I1
s(g1
I1509
VsetTypeface
p3111
tp3112
I1
s(g1
I176
Vlayout
p3113
tp3114
I1
s(g1
I690
VcontentColor
p3115
tp3116
I1
s(g1
I274
VDialogUtils
p3117
tp3118
I1
s(g1
I235
Vinflate
p3119
tp3120
I1
s(g1
I374
VnegativeText
p3121
tp3122
I1
s(g1
I884
VscreenPos
p3123
tp3124
I1
s(g1
I411
VDialogAction
p3125
tp3126
I1
s(g1
I456
Vattr
p3127
tp3128
I1
s(g1
I293
VColorStateList
p3129
tp3130
I1
s(g1
I1552
VgetVisibility
p3131
tp3132
I1
s(g1
I786
VsetSelector
p3133
tp3134
I1
s(g1
I1860
Vformat
p3135
tp3136
I1
s(g1
I678
VmCustomSeekR
p3137
tp3138
I1
s(g1
I857
Vbuilder
p3139
tp3140
I1
s(g1
I167
Vposition
p3141
tp3142
I1
s(g1
I1614
VmainFramePadding
p3143
tp3144
I1
s(g1
I1538
VPasswordTransformationMethod
p3145
tp3146
I2
s(g1
I5012
VgetString
p3147
tp3148
I1
s(g1
I227
VCharSequence
p3149
tp3150
I1
s(g1
I596
VgetContext
p3151
tp3152
I1
s(g1
I6307
Vi
p3153
tp3154
I1
s(g1
I624
VpositiveText
p3155
tp3156
I1
s(g1
I487
VgetPersistedString
p3157
tp3158
I1
s(g1
I87
Vpreselect
p3159
tp3160
I1
s(g1
I2103
VOverride
p3161
tp3162
I1
s(g1
I84
Vbuilder
p3163
tp3164
I1
s(g1
I751
VParcel
p3165
tp3166
I1
s(g1
I788
VsetText
p3167
tp3168
I1
s(g1
I523
Vd
p3169
tp3170
I1
s(g1
I1324
VsetOnCancelListener
p3171
tp3172
I1
s(g1
I4044
Vhint
p3173
tp3174
I1
s(g1
I183
VGradientDrawable
p3175
tp3176
I1
s(g1
I362
VisRTL
p3177
tp3178
I1
s(g1
I1328
Vdialog
p3179
tp3180
I1
s(g1
I299
Vdialog
p3181
tp3182
I1
s(g1
I420
VTypedArray
p3183
tp3184
I1
s(g1
I686
VparseColor
p3185
tp3186
I1
s(g1
I378
VmDialog
p3187
tp3188
I1
s(g1
I380
Vmethod
p3189
tp3190
I1
s(g1
I1578
VsubLevelColor
p3191
tp3192
I1
s(g1
I126
VconvertView
p3193
tp3194
I1
s(g1
I1209
VNullable
p3195
tp3196
I1
s(g1
I2570
VnegativeButton
p3197
tp3198
I1
s(g1
I1680
VneutralColor
p3199
tp3200
I1
s(g1
I175
Vcontext
p3201
tp3202
I1
s(g1
I916
Vrun
p3203
tp3204
I1
s(g1
I162
VmProgressDrawable
p3205
tp3206
I1
s(g1
I2299
VtextAllCaps
p3207
tp3208
I1
s(g1
I314
VoldValue
p3209
tp3210
I1
s(g1
I314
VfindViewById
p3211
tp3212
I1
s(g1
I528
Vwhich
p3213
tp3214
I1
s(g1
I1575
VsetTransformationMethod
p3215
tp3216
I1
s(g1
I5169
Vdialog
p3217
tp3218
I1
s(g1
I2064
Vdialog
p3219
tp3220
I1
s(g1
I1832
Vvg
p3221
tp3222
I1
s(g1
I1275
Vdialog
p3223
tp3224
I1
s(g1
I2177
VlastItemVisible
p3225
tp3226
I1
s(g1
I1103
VMaterialSimpleListAdapter
p3227
tp3228
I1
s(g1
I1348
Vbuilder
p3229
tp3230
I1
s(g1
I110
ViconRes
p3231
tp3232
I1
s(g1
I311
VBundle
p3233
tp3234
I1
s(g1
I564
Vsource
p3235
tp3236
I1
s(g1
I514
VgetArguments
p3237
tp3238
I1
s(g1
I2185
Vlv
p3239
tp3240
I1
s(g1
I587
VrequestFocus
p3241
tp3242
I1
s(g1
I279
Vcheckbox
p3243
tp3244
I1
s(g1
I1358
VMDTintHelper
p3245
tp3246
I1
s(g1
I1363
VCircularProgressDrawable
p3247
tp3248
I1
s(g1
I1435
Vformat
p3249
tp3250
I1
s(g1
I465
VnegativeText
p3251
tp3252
I1
s(g1
I995
VcurrentFocus
p3253
tp3254
I1
s(g1
I2585
Vgravity
p3255
tp3256
I1
s(g1
I845
VparseColor
p3257
tp3258
I1
s(g1
I676
Vposition
p3259
tp3260
I1
s(g1
I942
VgetActionTextStateList
p3261
tp3262
I1
s(g1
I1292
VtoString
p3263
tp3264
I1
s(g1
I2012
VgetPaddingBottom
p3265
tp3266
I1
s(g1
I244
VprogressBar
p3267
tp3268
I1
s(g1
I2612
Vparams
p3269
tp3270
I1
s(g1
I25
VsavedInstanceState
p3271
tp3272
I1
s(g1
I938
VinvalidateActions
p3273
tp3274
I1
s(g1
I1294
VColor
p3275
tp3276
I1
s(g1
I4909
VInteger
p3277
tp3278
I1
s(g1
I1438
VgetText
p3279
tp3280
I1
s(g1
I599
VsetTextAlignment
p3281
tp3282
I1
s(g1
I505
VTextUtils
p3283
tp3284
I1
s(g1
I5669
VNEGATIVE
p3285
tp3286
I1
s(g1
I2011
VshowCustomDatePicker
p3287
tp3288
I1
s(g1
I1528
VsetTextColor
p3289
tp3290
I1
s(g1
I211
VcubicTo
p3291
tp3292
I1
s(g1
I293
VgetFragmentManager
p3293
tp3294
I1
s(g1
I1378
VcustomFrame
p3295
tp3296
I1
s(g1
I3148
VStringRes
p3297
tp3298
I1
s(g1
I6172
VArrays
p3299
tp3300
I1
s(g1
I1535
VIllegalArgumentException
p3301
tp3302
I1
s(g1
I338
Vbuilder
p3303
tp3304
I1
s(g1
I327
VNUM_POINTS
p3305
tp3306
I1
s(g1
I1294
VInteger
p3307
tp3308
I1
s(g1
I1150
VsendMultichoiceCallback
p3309
tp3310
I1
s(g1
I252
VBuilder
p3311
tp3312
I1
s(g1
I1352
VNonNull
p3313
tp3314
I1
s(g1
I150
VstateList
p3315
tp3316
I1
s(g1
I236
VLinearLayout
p3317
tp3318
I1
s(g1
I1008
VgetDimension
p3319
tp3320
I1
s(g1
I2229
VMainActivity
p3321
tp3322
I1
s(g1
I1553
VsetTint
p3323
tp3324
I1
s(g1
I4136
VsetTitle
p3325
tp3326
I1
s(g1
I1794
Vr
p3327
tp3328
I2
s(g1
I288
Vfi
p3329
tp3330
I1
s(g1
I685
Vcb
p3331
tp3332
I1
s(g1
I90
VBuilder
p3333
tp3334
I1
s(g1
I268
VPaint
p3335
tp3336
I1
s(g1
I425
Vindex
p3337
tp3338
I1
s(g1
I1358
VsetProgressBarTint
p3339
tp3340
I1
s(g1
I279
VgetDeclaredMethod
p3341
tp3342
I1
s(g1
I678
VMDTintHelper
p3343
tp3344
I1
s(g1
I1671
Vshow
p3345
tp3346
I1
s(g1
I349
VsubIndex
p3347
tp3348
I1
s(g1
I213
VdefStyleRes
p3349
tp3350
I1
s(g1
I131
VapplyDimension
p3351
tp3352
I1
s(g1
I1482
VMaterialDialog
p3353
tp3354
I2
s(g1
I1342
VsetOnKeyListener
p3355
tp3356
I1
s(g1
I2581
VgetLayoutParams
p3357
tp3358
I1
s(g1
I542
VtopIndex
p3359
tp3360
I1
s(g1
I78
VAttributeSet
p3361
tp3362
I1
s(g1
I392
VDialogInterface
p3363
tp3364
I1
s(g1
I1106
VTextView
p3365
tp3366
I1
s(g1
I205
VFile
p3367
tp3368
I1
s(g1
I404
VremoveOnGlobalLayoutListener
p3369
tp3370
I1
s(g1
I1700
VpositiveText
p3371
tp3372
I1
s(g1
I578
VDialogUtils
p3373
tp3374
I1
s(g1
I208
VViewGroup
p3375
tp3376
I1
s(g1
I1612
VadjustAlpha
p3377
tp3378
I1
s(g1
I300
VTextView
p3379
tp3380
I1
s(g1
I7132
VmProgressLabel
p3381
tp3382
I1
s(g1
I1609
VmContext
p3383
tp3384
I1
s(g1
I2222
VOnClick
p3385
tp3386
I1
s(g1
I294
VColorInt
p3387
tp3388
I1
s(g1
I152
VMaterialDialog
p3389
tp3390
I1
s(g1
I954
VgetContext
p3391
tp3392
I1
s(g1
I6004
VBuilder
p3393
tp3394
I2
s(g1
I785
VOverride
p3395
tp3396
I1
s(g1
I2195
Vv
p3397
tp3398
I1
s(g1
I595
VsetLinkTextColor
p3399
tp3400
I1
s(g1
I3585
VpositiveColor
p3401
tp3402
I1
s(g1
I837
VgetArguments
p3403
tp3404
I1
s(g1
I661
VgetContext
p3405
tp3406
I1
s(g1
I1048
Vadapter
p3407
tp3408
I1
s(g1
I1585
VColor
p3409
tp3410
I1
s(g1
I506
VOverride
p3411
tp3412
I1
s(g1
I242
Vbind
p3413
tp3414
I1
s(g1
I153
Vrecycle
p3415
tp3416
I1
s(g1
I1517
Vappend
p3417
tp3418
I1
s(g1
I869
Vpath
p3419
tp3420
I1
s(g1
I709
VgetExternalStorageDirectory
p3421
tp3422
I1
s(g1
I162
Ve
p3423
tp3424
I1
s(g1
I1001
VlistView
p3425
tp3426
I1
s(g1
I2575
Vparams
p3427
tp3428
I1
s(g1
I2567
VActivityCompat
p3429
tp3430
I1
s(g1
I2209
Vv
p3431
tp3432
I1
s(g1
I1001
Vdialog
p3433
tp3434
I1
s(g1
I667
Vadapter
p3435
tp3436
I1
s(g1
I100
VgetEntryValues
p3437
tp3438
I1
s(g1
I3108
VHtml
p3439
tp3440
I1
s(g1
I80
Vattrs
p3441
tp3442
I1
s(g1
I690
VMDTintHelper
p3443
tp3444
I1
s(g1
I3761
VgetParent
p3445
tp3446
I1
s(g1
I950
Vdialog
p3447
tp3448
I1
s(g1
I988
Vdialog
p3449
tp3450
I1
s(g1
I788
Vadapter
p3451
tp3452
I1
s(g1
I210
VDialogUtils
p3453
tp3454
I1
s(g1
I992
VadapterProvided
p3455
tp3456
I1
s(g1
I6882
VemptyDisabled
p3457
tp3458
I1
s(g1
I787
VmContent
p3459
tp3460
I1
s(g1
I4058
VMaterialDialog
p3461
tp3462
I1
s(g1
I364
VisInSub
p3463
tp3464
I1
s(g1
I350
VPaint
p3465
tp3466
I1
s(g1
I1445
VgetLayoutParams
p3467
tp3468
I1
s(g1
I5160
Vitems
p3469
tp3470
I1
s(g1
I2600
Vparams
p3471
tp3472
I1
s(g1
I4624
VselectedIndicesList
p3473
tp3474
I1
s(g1
I2415
Vrb
p3475
tp3476
I1
s(g1
I601
VsetLinkTextColor
p3477
tp3478
I1
s(g1
I1687
VString
p3479
tp3480
I1
s(g1
I2424
Vi
p3481
tp3482
I1
s(g1
I852
Vposition
p3483
tp3484
I1
s(g1
I767
Vtitle
p3485
tp3486
I1
s(g1
I2056
Vargs
p3487
tp3488
I1
s(g1
I2362
VpositiveButton
p3489
tp3490
I1
s(g1
I527
VrecyclerView
p3491
tp3492
I1
s(g1
I218
Vinit
p3493
tp3494
I1
s(g1
I801
Vi
p3495
tp3496
I2
s(g1
I1113
Vview
p3497
tp3498
I1
s(g1
I5690
VOverride
p3499
tp3500
I1
s(g1
I6800
VsetMaxProgress
p3501
tp3502
I1
s(g1
I880
Vv
p3503
tp3504
I1
s(g1
I1251
Vdismiss
p3505
tp3506
I1
s(g1
I804
VcheckedItems
p3507
tp3508
I2
s(g1
I1648
VColor
p3509
tp3510
I1
s(g1
I1755
VtitleFrame
p3511
tp3512
I1
s(g1
I4367
Vmessage
p3513
tp3514
I1
s(g1
I494
VsetVisibility
p3515
tp3516
I1
s(g1
I340
VDialogUtils
p3517
tp3518
I1
s(g1
I101
VBundle
p3519
tp3520
I1
s(g1
I50
g1404
tp3521
I5
s(g1
I117
VonMeasure
p3522
tp3523
I3
s(g1
I104
Vlength
p3524
tp3525
I1
s(g1
I345
VOverride
p3526
tp3527
I1
s(g1
I1667
VwidgetColor
p3528
tp3529
I1
s(g1
I1562
Vcount
p3530
tp3531
I2
s(g1
I4488
VcheckBoxPrompt
p3532
tp3533
I1
s(g1
I176
VString
p3534
tp3535
I1
s(g1
I190
Va
p3536
tp3537
I1
s(g1
I302
VnegativeText
p3538
tp3539
I1
s(g1
I106
VsetEntries
p3540
tp3541
I1
s(g1
I1122
VobtainTypedArray
p3542
tp3543
I1
s(g1
I161
VgetDialogTitle
p3544
tp3545
I1
s(g1
I2204
VlastVisible
p3546
tp3547
I1
s(g1
I960
VforceStacking
p3548
tp3549
I1
s(g1
I323
VbackgroundColor
p3550
tp3551
I1
s(g1
I561
VFile
p3552
tp3553
I1
s(g1
I2108
VScrollView
p3554
tp3555
I1
s(g1
I2552
VActivityCompat
p3556
tp3557
I1
s(g1
I5029
VNullable
p3558
tp3559
I1
s(g1
I360
Vindex
p3560
tp3561
I1
s(g1
I118
Vtarget
p3562
tp3563
I1
s(g1
I521
VPreferenceManagerCompat
p3564
tp3565
I1
s(g1
I1660
VMaterialDialog
p3566
tp3567
I1
s(g1
I358
Vsubstring
p3568
tp3569
I1
s(g1
I387
VOverride
p3570
tp3571
I1
s(g1
I155
VgetIcon
p3572
tp3573
I1
s(g1
I942
Vdrawables
p3574
tp3575
I1
s(g1
I7131
Vpercentage
p3576
tp3577
I1
s(g1
I6403
VcurrentLength
p3578
tp3579
I1
s(g1
I81
Vcontext
p3580
tp3581
I1
s(g1
I312
VOverride
p3582
tp3583
I1
s(g1
I982
VgetPaddingLeft
p3584
tp3585
I1
s(g1
I1351
VsetOnShowListenerInternal
p3586
tp3587
I1
s(g1
I1700
VshowColorChooserCustomColorsNoSub
p3588
tp3589
I1
s(g1
I69
VmDialog
p3590
tp3591
I1
s(g1
I1385
Vd
p3592
tp3593
I1
s(g1
I655
VDrawable
p3594
tp3595
I1
s(g1
I2086
VmeasureText
p3596
tp3597
I1
s(g1
I156
Vposition
p3598
tp3599
I1
s(g1
I5673
Vview
p3600
tp3601
I1
s(g1
I1814
VlistView
p3602
tp3603
I1
s(g1
I1861
VsetText
p3604
tp3605
I1
s(g1
I5996
VmaxIconSize
p3606
tp3607
I2
s(g1
I1679
VmediumFont
p3608
tp3609
I1
s(g1
I597
Vcontent
p3610
tp3611
I1
s(g1
I248
VmHandler
p3612
tp3613
I1
s(g1
I1341
VProgressBar
p3614
tp3615
I1
s(g1
I2042
VisRecyclerView
p3616
tp3617
I1
s(g1
I764
Vitems
p3618
tp3619
I1
s(g1
I210
Vresults
p3620
tp3621
I1
s(g1
I4927
Vsize
p3622
tp3623
I1
s(g1
I1436
VFragmentActivity
p3624
tp3625
I1
s(g1
I2246
Vdismiss
p3626
tp3627
I1
s(g1
I4245
Vdialog
p3628
tp3629
I1
s(g1
I126
Vparent
p3630
tp3631
I1
s(g1
I2911
VsetTag
p3632
tp3633
I1
s(g1
I1365
VNonNull
p3634
tp3635
I1
s(g1
I1266
VitemView
p3636
tp3637
I1
s(g1
I591
Vicon
p3638
tp3639
I1
s(g1
I193
VshowDialog
p3640
tp3641
I1
s(g1
I3264
Vicon
p3642
tp3643
I1
s(g1
I814
VView
p3644
tp3645
I1
s(g1
I306
VgetPreferenceManager
p3646
tp3647
I1
s(g1
I950
VcheckedItems
p3648
tp3649
I1
s(g1
I1281
VNEUTRAL
p3650
tp3651
I1
s(g1
I563
Vdialog
p3652
tp3653
I1
s(g1
I1119
VgetResources
p3654
tp3655
I1
s(g1
I6201
VsetSelectedIndices
p3656
tp3657
I1
s(g1
I234
VTextView
p3658
tp3659
I1
s(g1
I305
VonSaveInstanceState
p3660
tp3661
I1
s(g1
I243
VGravityEnum
p3662
tp3663
I1
s(g1
I1644
VOverride
p3664
tp3665
I1
s(g1
I1368
Vd
p3666
tp3667
I1
s(g1
I3370
Vcontext
p3668
tp3669
I1
s(g1
I386
VonActivityDestroy
p3670
tp3671
I1
s(g1
I295
Vcontains
p3672
tp3673
I1
s(g1
I4049
Vcontext
p3674
tp3675
I1
s(g1
I3614
VtitleColor
p3676
tp3677
I1
s(g1
I1246
VonInput
p3678
tp3679
I1
s(g1
I2406
VCheckBox
p3680
tp3681
I1
s(g1
I351
VPreferenceManager
p3682
tp3683
I1
s(g1
I553
Vflags
p3684
tp3685
I1
s(g1
I1128
VcontentHorizontalPadding
p3686
tp3687
I1
s(g1
I4632
VcolorRes
p3688
tp3689
I1
s(g1
I35
VonCreate
p3690
tp3691
I1
s(g1
I3412
VcolorRes
p3692
tp3693
I1
s(g1
I282
Va
p3694
tp3695
I2
s(g1
I2195
VlistCallback
p3696
tp3697
I1
s(g1
I1345
Vdialog
p3698
tp3699
I2
s(g1
I6295
VselectedIndicesList
p3700
tp3701
I1
s(g1
I3398
Vcolor
p3702
tp3703
I1
s(g1
I865
VshowToast
p3704
tp3705
I1
s(g1
I2569
Vparams
p3706
tp3707
I1
s(g1
I4802
Vfallback
p3708
tp3709
I1
s(g1
I609
VsetVisibility
p3710
tp3711
I2
s(g1
I73
VOverride
p3712
tp3713
I1
s(g1
I1264
VonAny
p3714
tp3715
I1
s(g1
I52
VView
p3716
tp3717
I1
s(g1
I189
VTypedArray
p3718
tp3719
I1
s(g1
I550
VisDialogShowing
p3720
tp3721
I1
s(g1
I595
VpositiveColor
p3722
tp3723
I1
s(g1
I313
Vview
p3724
tp3725
I1
s(g1
I1228
VallowSelectionChange
p3726
tp3727
I1
s(g1
I1537
VsetHintTextColor
p3728
tp3729
I1
s(g1
I38
Vi
p3730
tp3731
I1
s(g1
I103
VColorStateList
p3732
tp3733
I1
s(g1
I311
Vindex
p3734
tp3735
I1
s(g1
I61
VfindViewById
p3736
tp3737
I1
s(g1
I209
VTypedArray
p3738
tp3739
I1
s(g1
I116
VT
p3740
tp3741
I1
s(g1
I66
VAttributeSet
p3742
tp3743
I1
s(g1
I97
VDialogUtils
p3744
tp3745
I1
s(g1
I1016
Vadapter
p3746
tp3747
I1
s(g1
I77
VDialogUtils
p3748
tp3749
I1
s(g1
I93
VmShowListener
p3750
tp3751
I1
s(g1
I162
Vlistener
p3752
tp3753
I1
s(g1
I1113
VshowSimpleList
p3754
tp3755
I1
s(g1
I906
VRunnable
p3756
tp3757
I1
s(g1
I119
Vcontext
p3758
tp3759
I1
s(g1
I616
Vrun
p3760
tp3761
I1
s(g1
I2215
Vcb
p3762
tp3763
I1
s(g1
I988
VsetOnShowListener
p3764
tp3765
I1
s(g1
I48
VLinearLayoutManager
p3766
tp3767
I1
s(g1
I1672
VnegativeColor
p3768
tp3769
I1
s(g1
I95
VgetDialogIcon
p3770
tp3771
I1
s(g1
I581
Vfallback
p3772
tp3773
I1
s(g1
I416
VselectedIndex
p3774
tp3775
I1
s(g1
I236
VsetChecked
p3776
tp3777
I1
s(g1
I1961
VaccentColor
p3778
tp3779
I1
s(g1
I221
Vdialog
p3780
tp3781
I1
s(g1
I828
Vvisible
p3782
tp3783
I1
s(g1
I4378
VDrawableRes
p3784
tp3785
I1
s(g1
I487
Vequals
p3786
tp3787
I1
s(g1
I1858
Vdy
p3788
tp3789
I1
s(g1
I275
VresolveColor
p3790
tp3791
I1
s(g1
I374
VCompoundButton
p3792
tp3793
I1
s(g1
I3761
Vview
p3794
tp3795
I1
s(g1
I1765
VfindViewById
p3796
tp3797
I2
s(g1
I77
Vcontext
p3798
tp3799
I1
s(g1
I245
Vcallback
p3800
tp3801
I2
s(g1
I672
VgetContext
p3802
tp3803
I1
s(g1
I119
Vi
p3804
tp3805
I1
s(g1
I670
Vi
p3806
tp3807
I1
s(g1
I558
Vbuilder
p3808
tp3809
I1
s(g1
I3403
VnegativeColor
p3810
tp3811
I1
s(g1
I4392
VBuilder
p3812
tp3813
I1
s(g1
I1499
VcustomColors
p3814
tp3815
I1
s(g1
I2161
VgetFirstVisiblePosition
p3816
tp3817
I1
s(g1
I40
VRippleDrawable
p3818
tp3819
I1
s(g1
I271
VeditText
p3820
tp3821
I1
s(g1
I951
VoldChecked
p3822
tp3823
I1
s(g1
I1192
VfindViewById
p3824
tp3825
I1
s(g1
I3042
VgetText
p3826
tp3827
I1
s(g1
I844
VinnerView
p3828
tp3829
I1
s(g1
I1654
Vdialog
p3830
tp3831
I1
s(g1
I143
VscrubMessageField
p3832
tp3833
I1
s(g1
I1279
Vdialog
p3834
tp3835
I1
s(g1
I163
Vitem
p3836
tp3837
I1
s(g1
I139
Vlistener
p3838
tp3839
I1
s(g1
I72
VgetEditText
p3840
tp3841
I1
s(g1
I631
Vcolor
p3842
tp3843
I1
s(g1
I232
VeditText
p3844
tp3845
I1
s(g1
I7233
VinvalidateInputMinMaxIndicator
p3846
tp3847
I1
s(g1
I144
Vs1
p3848
tp3849
I1
s(g1
I4337
VshowListener
p3850
tp3851
I1
s(g1
I1031
Vcon
p3852
tp3853
I1
s(g1
I204
Vindex
p3854
tp3855
I1
s(g1
I519
VsetFocusable
p3856
tp3857
I1
s(g1
I592
VgetContext
p3858
tp3859
I1
s(g1
I53
VapplyColor
p3860
tp3861
I1
s(g1
I457
VgetString
p3862
tp3863
I1
s(g1
I972
Vdialog
p3864
tp3865
I1
s(g1
I90
VgetContext
p3866
tp3867
I1
s(g1
I657
Vsv
p3868
tp3869
I1
s(g1
I704
VSavedState
p3870
tp3871
I1
s(g1
I311
Vfound
p3872
tp3873
I1
s(g1
I96
VmBuilder
p3874
tp3875
I1
s(g1
I4876
VNullable
p3876
tp3877
I1
s(g1
I1794
VgetDimensionPixelSize
p3878
tp3879
I2
s(g1
I531
VmAngleProperty
p3880
tp3881
I1
s(g1
I3433
VcontentColor
p3882
tp3883
I2
s(g1
I131
VT
p3884
tp3885
I1
s(g1
I250
Vgravity
p3886
tp3887
I1
s(g1
I1640
VparseColor
p3888
tp3889
I1
s(g1
I508
VIllegalStateException
p3890
tp3891
I1
s(g1
I961
Vview
p3892
tp3893
I1
s(g1
I2071
VColorChooserDialog
p3894
tp3895
I1
s(g1
I1364
VfragmentActivity
p3896
tp3897
I1
s(g1
I425
VonClick
p3898
tp3899
I1
s(g1
I1132
VMDRootLayout
p3900
tp3901
I1
s(g1
I1387
VgetResources
p3902
tp3903
I1
s(g1
I504
VView
p3904
tp3905
I1
s(g1
I4874
Vmedium
p3906
tp3907
I1
s(g1
I887
Vheight
p3908
tp3909
I1
s(g1
I261
VColorStateList
p3910
tp3911
I1
s(g1
I333
VsetValue
p3912
tp3913
I1
s(g1
I580
VsetMovementMethod
p3914
tp3915
I1
s(g1
I1480
Vbuilder
p3916
tp3917
I1
s(g1
I1517
VMDTintHelper
p3918
tp3919
I2
s(g1
I127
Vi
p3920
tp3921
I1
s(g1
I108
VonStop
p3922
tp3923
I1
s(g1
I157
VdefStyleRes
p3924
tp3925
I1
s(g1
I190
VonClick
p3926
tp3927
I1
s(g1
I1928
VresolveString
p3928
tp3929
I1
s(g1
I106
VonViewInflated
p3930
tp3931
I1
s(g1
I314
Vpm
p3932
tp3933
I1
s(g1
I941
VsetOnDismissListener
p3934
tp3935
I1
s(g1
I1164
VcustomFrame
p3936
tp3937
I1
s(g1
I1406
VsetTextColor
p3938
tp3939
I1
s(g1
I1590
VviewGroup
p3940
tp3941
I1
s(g1
I692
VnegativeText
p3942
tp3943
I1
s(g1
I1345
Vshow
p3944
tp3945
I1
s(g1
I162
VString
p3946
tp3947
I1
s(g1
I1753
VgetParent
p3948
tp3949
I1
s(g1
I4324
VMaterialDialog
p3950
tp3951
I1
s(g1
I1332
Vdialog
p3952
tp3953
I1
s(g1
I1395
VTextView
p3954
tp3955
I1
s(g1
I5850
VMaterialDialogAdapter
p3956
tp3957
I1
s(g1
I696
VselectedIndicesList
p3958
tp3959
I1
s(g1
I2099
VisStacked
p3960
tp3961
I1
s(g1
I669
VsetTextColor
p3962
tp3963
I1
s(g1
I5702
VLog
p3964
tp3965
I1
s(g1
I4271
Vdialog
p3966
tp3967
I1
s(g1
I5749
VgetButton
p3968
tp3969
I1
s(g1
I943
VmUseFullPadding
p3970
tp3971
I1
s(g1
I849
VColor
p3972
tp3973
I1
s(g1
I263
VMDRootLayout
p3974
tp3975
I1
s(g1
I1538
Vposition
p3976
tp3977
I1
s(g1
I90
Vdialog
p3978
tp3979
I1
s(g1
I3965
VcolorRes
p3980
tp3981
I1
s(g1
I565
VDialogUtils
p3982
tp3983
I1
s(g1
I825
Vr
p3984
tp3985
I1
s(g1
I231
VDialogUtils
p3986
tp3987
I1
s(g1
I596
Vbuilder
p3988
tp3989
I1
s(g1
I760
Vview
p3990
tp3991
I1
s(g1
I6828
Vprogress
p3992
tp3993
I1
s(g1
I956
VDialogUtils
p3994
tp3995
I1
s(g1
I1401
VfindViewById
p3996
tp3997
I1
s(g1
I329
VfindViewById
p3998
tp3999
I1
s(g1
I691
VsetTextColor
p4000
tp4001
I1
s(g1
I371
VNonNull
p4002
tp4003
I1
s(g1
I1269
Vwhich
p4004
tp4005
I1
s(g1
I574
VresolveColor
p4006
tp4007
I1
s(g1
I5238
VsetSelection
p4008
tp4009
I1
s(g1
I1026
VDialogUtils
p4010
tp4011
I1
s(g1
I3746
VIllegalStateException
p4012
tp4013
I1
s(g1
I968
VwindowToken
p4014
tp4015
I1
s(g1
I260
VProperty
p4016
tp4017
I1
s(g1
I929
VmCursorDrawableRes
p4018
tp4019
I1
s(g1
I1488
Vbuilder
p4020
tp4021
I1
s(g1
I2556
VfindViewById
p4022
tp4023
I1
s(g1
I6735
VUiThread
p4024
tp4025
I1
s(g1
I889
Vmidy
p4026
tp4027
I1
s(g1
I1205
VT
p4028
tp4029
I1
s(g1
I5597
VtoString
p4030
tp4031
I1
s(g1
I3601
VneutralColor
p4032
tp4033
I1
s(g1
I176
VeditText
p4034
tp4035
I1
s(g1
I955
Vdialog
p4036
tp4037
I1
s(g1
I389
Vdialog
p4038
tp4039
I1
s(g1
I3283
Vicon
p4040
tp4041
I1
s(g1
I2413
VitemView
p4042
tp4043
I1
s(g1
I283
VImageView
p4044
tp4045
I1
s(g1
I228
VmEditText
p4046
tp4047
I1
s(g1
I1655
VhasButtons
p4048
tp4049
I1
s(g1
I1323
Vdialog
p4050
tp4051
I1
s(g1
I578
VLinkMovementMethod
p4052
tp4053
I1
s(g1
I870
VonSelection
p4054
tp4055
I1
s(g1
I4622
VMaterialDialogAdapter
p4056
tp4057
I1
s(g1
I183
VPath
p4058
tp4059
I1
s(g1
I230
Vview
p4060
tp4061
I1
s(g1
I260
VDrawableCompat
p4062
tp4063
I1
s(g1
I213
VgetText
p4064
tp4065
I1
s(g1
I690
VparseColor
p4066
tp4067
I1
s(g1
I39
VaddPreferencesFromResource
p4068
tp4069
I1
s(g1
I762
VisDialogShowing
p4070
tp4071
I1
s(g1
I718
VpositiveText
p4072
tp4073
I1
s(g1
I574
Vsource
p4074
tp4075
I1
s(g1
I1765
Vview
p4076
tp4077
I2
s(g1
I224
Vindex
p4078
tp4079
I1
s(g1
I1990
VisInSub
p4080
tp4081
I1
s(g1
I1423
VfragmentManager
p4082
tp4083
I1
s(g1
I211
VresolveColor
p4084
tp4085
I1
s(g1
I87
VonMeasure
p4086
tp4087
I1
s(g1
I1576
VsubIndex
p4088
tp4089
I1
s(g1
I98
VwidthMeasureSpec
p4090
tp4091
I3
s(g1
I580
VcontentColor
p4092
tp4093
I1
s(g1
I283
VdismissListener
p4094
tp4095
I1
s(g1
I1983
VconvertView
p4096
tp4097
I1
s(g1
I117
Vparent
p4098
tp4099
I1
s(g1
I253
VmBuilder
p4100
tp4101
I1
s(g1
I695
VInteger
p4102
tp4103
I1
s(g1
I627
VnegativeText
p4104
tp4105
I1
s(g1
I283
Va
p4106
tp4107
I1
s(g1
I218
Vcontext
p4108
tp4109
I1
s(g1
I1164
VremoveAllViews
p4110
tp4111
I1
s(g1
I385
VMaterialEditTextPreference
p4112
tp4113
I1
s(g1
I638
Vview
p4114
tp4115
I1
s(g1
I1526
VInteger
p4116
tp4117
I1
s(g1
I271
VSuppressLint
p4118
tp4119
I1
s(g1
I278
Vvalues
p4120
tp4121
I1
s(g1
I777
Vposition
p4122
tp4123
I1
s(g1
I385
VparentContents
p4124
tp4125
I1
s(g1
I1298
Vwhich
p4126
tp4127
I1
s(g1
I104
VBuilder
p4128
tp4129
I1
s(g1
I298
Vbuilder
p4130
tp4131
I1
s(g1
I848
VgetContentsArray
p4132
tp4133
I1
s(g1
I191
VMDCheckBox
p4134
tp4135
I1
s(g1
I1010
Vview
p4136
tp4137
I1
s(g1
I5688
VDeprecated
p4138
tp4139
I1
s(g1
I5454
VDialogInit
p4140
tp4141
I1
s(g1
I103
VautoDismiss
p4142
tp4143
I1
s(g1
I24
g1404
tp4144
I8
s(g1
I3107
Vcollection
p4145
tp4146
I1
s(g1
I7113
VgetCurrentProgress
p4147
tp4148
I1
s(g1
I3109
Varray
p4149
tp4150
I1
s(g1
I2259
Vtag
p4151
tp4152
I1
s(g1
I571
VisDialogShowing
p4153
tp4154
I1
s(g1
I370
Vmode
p4155
tp4156
I1
s(g1
I3770
Vview
p4157
tp4158
I1
s(g1
I184
Vcontext
p4159
tp4160
I1
s(g1
I1110
Varray
p4161
tp4162
I1
s(g1
I1010
VconPadding
p4163
tp4164
I1
s(g1
I3375
VbtnStackedGravity
p4165
tp4166
I1
s(g1
I94
VOverride
p4167
tp4168
I1
s(g1
I678
VselectedColor
p4169
tp4170
I1
s(g1
I1509
VsetHint
p4171
tp4172
I1
s(g1
I56
Vprimary
p4173
tp4174
I1
s(g1
I334
Vpath
p4175
tp4176
I1
s(g1
I836
Vlistener
p4177
tp4178
I1
s(g1
I1762
Vview
p4179
tp4180
I1
s(g1
I208
Vdialog
p4181
tp4182
I1
s(g1
I770
VsetVisibility
p4183
tp4184
I1
s(g1
I597
VString
p4185
tp4186
I1
s(g1
I1559
Vindex
p4187
tp4188
I1
s(g1
I273
VgetClass
p4189
tp4190
I1
s(g1
I196
VView
p4191
tp4192
I1
s(g1
I1571
VnotifyDataSetChanged
p4193
tp4194
I1
s(g1
I195
VColorChooserAdapter
p4195
tp4196
I1
s(g1
I545
Vt
p4197
tp4198
I1
s(g1
I376
Vshow
p4199
tp4200
I1
s(g1
I3289
Vcontext
p4201
tp4202
I1
s(g1
I1904
Vcreate
p4203
tp4204
I1
s(g1
I247
Vdialog
p4205
tp4206
I1
s(g1
I4234
VpositiveButton
p4207
tp4208
I1
s(g1
I735
VActivityCompat
p4209
tp4210
I1
s(g1
I666
VVectorDrawableCompat
p4211
tp4212
I1
s(g1
I511
VcanGoUp
p4213
tp4214
I1
s(g1
I258
VsetCornerRadius
p4215
tp4216
I1
s(g1
I1548
VmCustomColorIndicator
p4217
tp4218
I1
s(g1
I765
VoldSelected
p4219
tp4220
I1
s(g1
I837
VColor
p4221
tp4222
I1
s(g1
I5018
VUiThread
p4223
tp4224
I1
s(g1
I432
VsetupGravity
p4225
tp4226
I1
s(g1
I2093
VneutralWidth
p4227
tp4228
I1
s(g1
I1192
Vview
p4229
tp4230
I1
s(g1
I429
VPreferenceManager
p4231
tp4232
I1
s(g1
I987
VgetResources
p4233
tp4234
I1
s(g1
I1373
Vcontext
p4235
tp4236
I1
s(g1
I1662
VtitleSub
p4237
tp4238
I1
s(g1
I2563
VTextView
p4239
tp4240
I1
s(g1
I1628
VsetInputType
p4241
tp4242
I1
s(g1
I127
VmColorView
p4243
tp4244
I1
s(g1
I3396
VnegativeColor
p4245
tp4246
I1
s(g1
I358
VcontainsKey
p4247
tp4248
I1
s(g1
I1538
VselectedIndex
p4249
tp4250
I1
s(g1
I2310
VresolveBoolean
p4251
tp4252
I1
s(g1
I90
Vtitle
p4253
tp4254
I1
s(g1
I3997
VDialogUtils
p4255
tp4256
I1
s(g1
I2015
VwidgetColor
p4257
tp4258
I1
s(g1
I5673
VfindViewById
p4259
tp4260
I1
s(g1
I256
VprimaryPreselect
p4261
tp4262
I1
s(g1
I174
Vindex
p4263
tp4264
I1
s(g1
I673
VmCustomSeekR
p4265
tp4266
I1
s(g1
I242
VnegativeText
p4267
tp4268
I1
s(g1
I1459
Vgravity
p4269
tp4270
I1
s(g1
I702
Vview
p4271
tp4272
I1
s(g1
I4423
VinputMaxLength
p4273
tp4274
I1
s(g1
I603
VnegativeText
p4275
tp4276
I1
s(g1
I935
VcanContentScroll
p4277
tp4278
I1
s(g1
I422
VshowThemed
p4279
tp4280
I1
s(g1
I502
Vobject
p4281
tp4282
I1
s(g1
I1211
VT
p4283
tp4284
I1
s(g1
I529
Vview
p4285
tp4286
I1
s(g1
I361
VcolorId
p4287
tp4288
I1
s(g1
I1041
VgetListSelector
p4289
tp4290
I1
s(g1
I870
VallowSelection
p4291
tp4292
I1
s(g1
I343
VPropertyValuesHolder
p4293
tp4294
I1
s(g1
I55
VsavedInstanceState
p4295
tp4296
I1
s(g1
I1978
VgetSupportFragmentManager
p4297
tp4298
I1
s(g1
I248
Vwhich
p4299
tp4300
I1
s(g1
I4792
VtextViewResourceId
p4301
tp4302
I1
s(g1
I1644
VparseColor
p4303
tp4304
I1
s(g1
I43
Vtheme
p4305
tp4306
I1
s(g1
I464
Vlistener
p4307
tp4308
I1
s(g1
I2545
VchooserDialog
p4309
tp4310
I1
s(g1
I566
VParcel
p4311
tp4312
I1
s(g1
I4066
VMaterialDialog
p4313
tp4314
I1
s(g1
I689
VpositiveText
p4315
tp4316
I1
s(g1
I378
Vdialog
p4317
tp4318
I2
s(g1
I1278
Vlistener
p4319
tp4320
I1
s(g1
I2370
VsetGravity
p4321
tp4322
I1
s(g1
I558
Vinput
p4323
tp4324
I1
s(g1
I661
Vtitle
p4325
tp4326
I1
s(g1
I2199
VgetItemCount
p4327
tp4328
I1
s(g1
I387
VmCallback
p4329
tp4330
I1
s(g1
I5096
VonShow
p4331
tp4332
I1
s(g1
I174
VTypedValue
p4333
tp4334
I1
s(g1
I495
VmShowListener
p4335
tp4336
I1
s(g1
I1353
Vpb
p4337
tp4338
I1
s(g1
I2172
VViewGroup
p4339
tp4340
I1
s(g1
I172
Vic
p4341
tp4342
I1
s(g1
I2169
VView
p4343
tp4344
I1
s(g1
I5155
VshowKeyboard
p4345
tp4346
I1
s(g1
I747
Vadapter
p4347
tp4348
I1
s(g1
I354
VprogressBar
p4349
tp4350
I1
s(g1
I262
VDialogUtils
p4351
tp4352
I1
s(g1
I373
Vlistener
p4353
tp4354
I1
s(g1
I83
Vfinal
p4355
tp4356
I83
s(g1
I1126
VgetDimension
p4357
tp4358
I1
s(g1
I1835
VaddOnScrollChangedListener
p4359
tp4360
I1
s(g1
I585
Vcontent
p4361
tp4362
I1
s(g1
I1999
Vposition
p4363
tp4364
I1
s(g1
I2195
VonSelection
p4365
tp4366
I1
s(g1
I1139
VView
p4367
tp4368
I1
s(g1
I327
VNEUTRAL
p4369
tp4370
I1
s(g1
I520
VgetArguments
p4371
tp4372
I1
s(g1
I414
VpositiveText
p4373
tp4374
I1
s(g1
I1320
Vi
p4375
tp4376
I1
s(g1
I132
VmColor
p4377
tp4378
I1
s(g1
I2016
Vview
p4379
tp4380
I1
s(g1
I4605
Vcolor
p4381
tp4382
I1
s(g1
I865
VSavedState
p4383
tp4384
I1
s(g1
I1783
VgetContext
p4385
tp4386
I1
s(g1
I947
VmContent
p4387
tp4388
I1
s(g1
I434
VonActivityDestroy
p4389
tp4390
I1
s(g1
I310
VMethod
p4391
tp4392
I1
s(g1
I430
Vshow
p4393
tp4394
I1
s(g1
I838
VMDButton
p4395
tp4396
I1
s(g1
I594
Vtitle
p4397
tp4398
I1
s(g1
I143
VvalueOf
p4399
tp4400
I1
s(g1
I295
Vs1
p4401
tp4402
I1
s(g1
I1278
Vwhich
p4403
tp4404
I1
s(g1
I1761
VtitleFrame
p4405
tp4406
I1
s(g1
I1010
VCharSequence
p4407
tp4408
I1
s(g1
I1097
VmaxIconSize
p4409
tp4410
I2
s(g1
I490
VpositiveText
p4411
tp4412
I1
s(g1
I1423
Vdialog
p4413
tp4414
I1
s(g1
I234
VPathInterpolatorCompat
p4415
tp4416
I1
s(g1
I193
VgetNegativeButtonText
p4417
tp4418
I1
s(g1
I255
VSet
p4419
tp4420
I1
s(g1
I652
VgetParentFile
p4421
tp4422
I1
s(g1
I2911
VnegativeButton
p4423
tp4424
I1
s(g1
I1485
VwindowHeight
p4425
tp4426
I1
s(g1
I641
VdisabledColor
p4427
tp4428
I1
s(g1
I133
Vta
p4429
tp4430
I1
s(g1
I570
Vsource
p4431
tp4432
I1
s(g1
I364
VfileExtension
p4433
tp4434
I1
s(g1
I5239
Vcolor
p4435
tp4436
I1
s(g1
I186
VcustomView
p4437
tp4438
I1
s(g1
I683
Vtitle
p4439
tp4440
I1
s(g1
I678
Vadapter
p4441
tp4442
I1
s(g1
I364
VBuilder
p4443
tp4444
I1
s(g1
I89
VDrawable
p4445
tp4446
I1
s(g1
I1546
Vadapter
p4447
tp4448
I1
s(g1
I674
VSavedState
p4449
tp4450
I1
s(g1
I264
VonClick
p4451
tp4452
I1
s(g1
I516
VPreferenceScreen
p4453
tp4454
I1
s(g1
I2197
VgetAdapter
p4455
tp4456
I1
s(g1
I126
Vv
p4457
tp4458
I1
s(g1
I511
VView
p4459
tp4460
I1
s(g1
I279
Vattr
p4461
tp4462
I2
s(g1
I257
Vdrawable
p4463
tp4464
I1
s(g1
I1688
VpositiveText
p4465
tp4466
I1
s(g1
I514
VsetVisibility
p4467
tp4468
I1
s(g1
I1510
VMath
p4469
tp4470
I1
s(g1
I1420
VsetTypeface
p4471
tp4472
I1
s(g1
I694
VparseColor
p4473
tp4474
I1
s(g1
I181
Vcontext
p4475
tp4476
I1
s(g1
I202
Va
p4477
tp4478
I1
s(g1
I5043
VsetTitle
p4479
tp4480
I1
s(g1
I852
Vvisible
p4481
tp4482
I1
s(g1
I514
VOverride
p4483
tp4484
I1
s(g1
I153
Va
p4485
tp4486
I1
s(g1
I967
VLog
p4487
tp4488
I1
s(g1
I1442
VfragmentActivity
p4489
tp4490
I1
s(g1
I295
VfindViewById
p4491
tp4492
I1
s(g1
I31
VColorInt
p4493
tp4494
I1
s(g1
I148
VmSecondaryProgressDrawable
p4495
tp4496
I1
s(g1
I4472
VinitiallyChecked
p4497
tp4498
I1
s(g1
I6797
VmProgress
p4499
tp4500
I1
s(g1
I210
VgetContext
p4501
tp4502
I1
s(g1
I363
VcustomView
p4503
tp4504
I1
s(g1
I744
VBundle
p4505
tp4506
I1
s(g1
I6498
VsetVisibility
p4507
tp4508
I1
s(g1
I316
VonClick
p4509
tp4510
I1
s(g1
I1328
VsetViewInternal
p4511
tp4512
I1
s(g1
I156
VshowMsg
p4513
tp4514
I1
s(g1
I594
VresolveColor
p4515
tp4516
I1
s(g1
I359
VonPreparePaint
p4517
tp4518
I1
s(g1
I260
Vwrap
p4519
tp4520
I1
s(g1
I553
VBundle
p4521
tp4522
I1
s(g1
I4297
VdividerColorRes
p4523
tp4524
I1
s(g1
I1123
Vta
p4525
tp4526
I1
s(g1
I1229
Vil
p4527
tp4528
I1
s(g1
I186
Vdialog
p4529
tp4530
I1
s(g1
I5152
VMaterialDialogAdapter
p4531
tp4532
I1
s(g1
I261
VgetOpacity
p4533
tp4534
I1
s(g1
I684
VsetTint
p4535
tp4536
I1
s(g1
I493
VsetText
p4537
tp4538
I1
s(g1
I2094
VLinearLayout
p4539
tp4540
I1
s(g1
I543
VTypeface
p4541
tp4542
I1
s(g1
I296
Vcontent
p4543
tp4544
I1
s(g1
I500
VCircularProgressDrawable
p4545
tp4546
I1
s(g1
I876
VpositiveText
p4547
tp4548
I1
s(g1
I109
VmCallback
p4549
tp4550
I3
s(g1
I260
VNEUTRAL
p4551
tp4552
I1
s(g1
I1077
VDialogUtils
p4553
tp4554
I2
s(g1
I164
VAttributeSet
p4555
tp4556
I1
s(g1
I1513
VsetSingleLine
p4557
tp4558
I1
s(g1
I374
Vmethod
p4559
tp4560
I1
s(g1
I2598
VaddRule
p4561
tp4562
I1
s(g1
I2419
Vrb
p4563
tp4564
I1
s(g1
I33
VContext
p4565
tp4566
I1
s(g1
I4040
Vcallback
p4567
tp4568
I1
s(g1
I680
VSavedState
p4569
tp4570
I1
s(g1
I853
VColor
p4571
tp4572
I1
s(g1
I2360
VsetGravity
p4573
tp4574
I1
s(g1
I1542
Vafter
p4575
tp4576
I2
s(g1
I205
VViewGroup
p4577
tp4578
I1
s(g1
I494
Vdarkness
p4579
tp4580
I1
s(g1
I248
VgetDrawable
p4581
tp4582
I1
s(g1
I714
VDialogUtils
p4583
tp4584
I1
s(g1
I165
VsetText
p4585
tp4586
I1
s(g1
I968
VsetTextColor
p4587
tp4588
I1
s(g1
I1743
VgetPaddingBottom
p4589
tp4590
I1
s(g1
I167
VViewGroup
p4591
tp4592
I1
s(g1
I5204
Vprogress
p4593
tp4594
I1
s(g1
I390
VgetActivity
p4595
tp4596
I1
s(g1
I941
Vdialog
p4597
tp4598
I1
s(g1
I1924
VregularFont
p4599
tp4600
I1
s(g1
I147
VeditText
p4601
tp4602
I1
s(g1
I441
VnegativeText
p4603
tp4604
I1
s(g1
I33
Vlocale
p4605
tp4606
I1
s(g1
I393
VNEUTRAL
p4607
tp4608
I1
s(g1
I398
VOverride
p4609
tp4610
I1
s(g1
I1356
VgetArguments
p4611
tp4612
I1
s(g1
I840
Vitems
p4613
tp4614
I2
s(g1
I522
VDrawable
p4615
tp4616
I1
s(g1
I5600
Vlength
p4617
tp4618
I1
s(g1
I300
VcopyFrom
p4619
tp4620
I1
s(g1
I6174
VselectedIndicesList
p4621
tp4622
I1
s(g1
I172
Vindex
p4623
tp4624
I1
s(g1
I832
Vbuilder
p4625
tp4626
I2
s(g1
I92
VDialogUtils
p4627
tp4628
I1
s(g1
I1928
Vcontext
p4629
tp4630
I1
s(g1
I245
VMaterialDialogPreference
p4631
tp4632
I1
s(g1
I1312
VmCustomColorIndicator
p4633
tp4634
I1
s(g1
I254
Vpaint
p4635
tp4636
I1
s(g1
I1850
VmCustomSeekAValue
p4637
tp4638
I1
s(g1
I575
VcontentColor
p4639
tp4640
I1
s(g1
I334
VxValues
p4641
tp4642
I1
s(g1
I1155
VgetPaddingTop
p4643
tp4644
I1
s(g1
I4134
Vtypeface
p4645
tp4646
I1
s(g1
I88
VgetTitle
p4647
tp4648
I1
s(g1
I45
VOverride
p4649
tp4650
I1
s(g1
I710
VselectedIndicesList
p4651
tp4652
I1
s(g1
I4311
Vlistener
p4653
tp4654
I1
s(g1
I145
Vignored
p4655
tp4656
I1
s(g1
I687
Vtrim
p4657
tp4658
I1
s(g1
I4256
VsetVisibility
p4659
tp4660
I1
s(g1
I139
Vpm
p4661
tp4662
I1
s(g1
I162
Vposition
p4663
tp4664
I1
s(g1
I5697
VwhichButton
p4665
tp4666
I1
s(g1
I746
VdialogBundle
p4667
tp4668
I1
s(g1
I312
VoutState
p4669
tp4670
I1
s(g1
I413
VitemGravity
p4671
tp4672
I1
s(g1
I1648
VViewGroup
p4673
tp4674
I1
s(g1
I945
Vview
p4675
tp4676
I1
s(g1
I703
VColor
p4677
tp4678
I1
s(g1
I310
VString
p4679
tp4680
I1
s(g1
I930
Vl
p4681
tp4682
I1
s(g1
I177
Vcontext
p4683
tp4684
I1
s(g1
I5109
VgetText
p4685
tp4686
I1
s(g1
I782
VIntent
p4687
tp4688
I1
s(g1
I2216
Vshow
p4689
tp4690
I1
s(g1
I299
VDialogUtils
p4691
tp4692
I1
s(g1
I300
VDialogUtils
p4693
tp4694
I1
s(g1
I2180
VviewGroup
p4695
tp4696
I1
s(g1
I2181
VfirstItemVisible
p4697
tp4698
I1
s(g1
I566
Vview
p4699
tp4700
I1
s(g1
I1010
VwindowToken
p4701
tp4702
I1
s(g1
I1141
Vcon
p4703
tp4704
I1
s(g1
I935
VnegativeTextView
p4705
tp4706
I1
s(g1
I127
VxProperty
p4707
tp4708
I1
s(g1
I483
VProperty
p4709
tp4710
I1
s(g1
I2371
VisStacked
p4711
tp4712
I1
s(g1
I4655
VsetItems
p4713
tp4714
I1
s(g1
I1816
VmTopOnScrollChangedListener
p4715
tp4716
I1
s(g1
I1294
VparseColor
p4717
tp4718
I1
s(g1
I368
VmimeType
p4719
tp4720
I1
s(g1
I256
VTypedArray
p4721
tp4722
I1
s(g1
I1160
VsetPadding
p4723
tp4724
I1
s(g1
I824
Vv
p4725
tp4726
I1
s(g1
I626
VnegativeText
p4727
tp4728
I1
s(g1
I1439
VTypedValue
p4729
tp4730
I1
s(g1
I612
VshowSoftInput
p4731
tp4732
I1
s(g1
I93
Vi
p4733
tp4734
I1
s(g1
I322
VContextCompat
p4735
tp4736
I1
s(g1
I6007
VDimenRes
p4737
tp4738
I2
s(g1
I1980
Vshow
p4739
tp4740
I1
s(g1
I1650
Vview
p4741
tp4742
I1
s(g1
I1003
VView
p4743
tp4744
I1
s(g1
I258
VxProperty
p4745
tp4746
I1
s(g1
I1365
VsetProgress
p4747
tp4748
I1
s(g1
I268
VsetInterpolator
p4749
tp4750
I1
s(g1
I1020
VupdateFramePadding
p4751
tp4752
I1
s(g1
I5446
VsetSelection
p4753
tp4754
I1
s(g1
I760
VsendSingleChoiceCallback
p4755
tp4756
I1
s(g1
I444
Vv
p4757
tp4758
I1
s(g1
I1744
VcustomFramePadding
p4759
tp4760
I2
s(g1
I168
Vitem
p4761
tp4762
I1
s(g1
I935
VsetText
p4763
tp4764
I1
s(g1
I2016
VgetContentHeight
p4765
tp4766
I1
s(g1
I449
Vscreen
p4767
tp4768
I1
s(g1
I490
VFloat
p4769
tp4770
I1
s(g1
I111
VView
p4771
tp4772
I1
s(g1
I1699
VtopAndBottom
p4773
tp4774
I1
s(g1
I169
VAttrRes
p4775
tp4776
I1
s(g1
I261
VHashSet
p4777
tp4778
I1
s(g1
I561
VdialogBundle
p4779
tp4780
I1
s(g1
I1972
VmCircleSize
p4781
tp4782
I1
s(g1
I1218
Vli
p4783
tp4784
I1
s(g1
I249
Vtarget
p4785
tp4786
I1
s(g1
I4080
Vmedium
p4787
tp4788
I1
s(g1
I1143
Vv
p4789
tp4790
I1
s(g1
I630
VinvalidateList
p4791
tp4792
I1
s(g1
I4929
VreturnedIndicies
p4793
tp4794
I1
s(g1
I2083
VneutralButton
p4795
tp4796
I1
s(g1
I744
VgetGravityInt
p4797
tp4798
I1
s(g1
I4026
VStringRes
p4799
tp4800
I1
s(g1
I1359
VgetSerializable
p4801
tp4802
I1
s(g1
I1550
VsubLevelColor
p4803
tp4804
I1
s(g1
I421
Vshow
p4805
tp4806
I1
s(g1
I525
VitemView
p4807
tp4808
I1
s(g1
I287
Vselected
p4809
tp4810
I1
s(g1
I6277
VlistType
p4811
tp4812
I1
s(g1
I389
Vmethod
p4813
tp4814
I1
s(g1
I824
VparseColor
p4815
tp4816
I1
s(g1
I792
Vview
p4817
tp4818
I1
s(g1
I1339
Vbuild
p4819
tp4820
I1
s(g1
I188
VMDCheckBox
p4821
tp4822
I1
s(g1
I1026
Vicon
p4823
tp4824
I1
s(g1
I498
VparentFolder
p4825
tp4826
I1
s(g1
I346
Vbuilder
p4827
tp4828
I1
s(g1
I109
VstateList
p4829
tp4830
I1
s(g1
I1351
Vdialog
p4831
tp4832
I1
s(g1
I5443
Vinput
p4833
tp4834
I1
s(g1
I236
VArrayList
p4835
tp4836
I2
s(g1
I222
VonBindDialogView
p4837
tp4838
I1
s(g1
I941
VsetOnShowListenerInternal
p4839
tp4840
I1
s(g1
I137
VdefStyleRes
p4841
tp4842
I1
s(g1
I936
VsetTypeface
p4843
tp4844
I1
s(g1
I1094
VgetLayoutForType
p4845
tp4846
I1
s(g1
I2320
VresolveBoolean
p4847
tp4848
I1
s(g1
I307
VmDrawable
p4849
tp4850
I1
s(g1
I539
VTextView
p4851
tp4852
I1
s(g1
I1368
VColorChooserDialog
p4853
tp4854
I1
s(g1
I2594
VgetResources
p4855
tp4856
I1
s(g1
I158
VgetParent
p4857
tp4858
I1
s(g1
I979
VfindViewById
p4859
tp4860
I1
s(g1
I1561
Valpha
p4861
tp4862
I1
s(g1
I580
VDialogUtils
p4863
tp4864
I1
s(g1
I2181
VlastItemVisible
p4865
tp4866
I1
s(g1
I175
VdefStyleAttr
p4867
tp4868
I1
s(g1
I5105
VshowKeyboard
p4869
tp4870
I1
s(g1
I715
VnegativeText
p4871
tp4872
I1
s(g1
I3280
VDrawableRes
p4873
tp4874
I1
s(g1
I776
VsetVisibility
p4875
tp4876
I1
s(g1
I85
Vcontext
p4877
tp4878
I2
s(g1
I78
Vcontext
p4879
tp4880
I2
s(g1
I1001
VgetDimension
p4881
tp4882
I1
s(g1
I1919
VregularFont
p4883
tp4884
I1
s(g1
I927
VgetContext
p4885
tp4886
I1
s(g1
I832
VgetDimensionPixelSize
p4887
tp4888
I1
s(g1
I4034
Vprefill
p4889
tp4890
I1
s(g1
I198
VadjustAlpha
p4891
tp4892
I1
s(g1
I990
VgetDimension
p4893
tp4894
I1
s(g1
I1399
VfindViewById
p4895
tp4896
I1
s(g1
I849
VparseColor
p4897
tp4898
I1
s(g1
I177
VgetEntries
p4899
tp4900
I1
s(g1
I1526
VsetInputType
p4901
tp4902
I2
s(g1
I4380
VmaxLength
p4903
tp4904
I1
s(g1
I1006
VView
p4905
tp4906
I1
s(g1
I144
Vview
p4907
tp4908
I1
s(g1
I3163
Vcontext
p4909
tp4910
I1
s(g1
I3604
VprogressColor
p4911
tp4912
I1
s(g1
I228
VOverride
p4913
tp4914
I1
s(g1
I356
Vdialog
p4915
tp4916
I1
s(g1
I137
Vcontext
p4917
tp4918
I1
s(g1
I2096
Vview
p4919
tp4920
I1
s(g1
I2185
Vdismiss
p4921
tp4922
I1
s(g1
I1934
VregularFont
p4923
tp4924
I1
s(g1
I1279
VcheckIfListInitScroll
p4925
tp4926
I1
s(g1
I2372
Vview
p4927
tp4928
I1
s(g1
I547
VBaseSavedState
p4929
tp4930
I1
s(g1
I3298
Vicon
p4931
tp4932
I1
s(g1
I598
VLinearLayoutManager
p4933
tp4934
I1
s(g1
I2846
VsetContent
p4935
tp4936
I1
s(g1
I1350
VIndeterminateHorizontalProgressDrawable
p4937
tp4938
I1
s(g1
I1482
Vdialog
p4939
tp4940
I1
s(g1
I491
Vcolor
p4941
tp4942
I1
s(g1
I769
VmUseFullPadding
p4943
tp4944
I1
s(g1
I90
Vattrs
p4945
tp4946
I2
s(g1
I377
VCompoundButton
p4947
tp4948
I1
s(g1
I400
VgetWindow
p4949
tp4950
I1
s(g1
I1648
VparseColor
p4951
tp4952
I1
s(g1
I833
VMDButton
p4953
tp4954
I1
s(g1
I2103
VtotalWidth
p4955
tp4956
I1
s(g1
I241
VgetNegativeButtonText
p4957
tp4958
I1
s(g1
I4880
Vregular
p4959
tp4960
I1
s(g1
I261
VAttrRes
p4961
tp4962
I2
s(g1
I513
Vview
p4963
tp4964
I1
s(g1
I924
Vcontent
p4965
tp4966
I1
s(g1
I109
Vfallback
p4967
tp4968
I1
s(g1
I1257
VNEGATIVE
p4969
tp4970
I1
s(g1
I1503
Vlp
p4971
tp4972
I1
s(g1
I994
Vdialog
p4973
tp4974
I1
s(g1
I968
V_setViewInternal
p4975
tp4976
I1
s(g1
I96
Vcolor
p4977
tp4978
I3
s(g1
I2941
VshowInputDialogCheckPrompt
p4979
tp4980
I1
s(g1
I288
VgetName
p4981
tp4982
I1
s(g1
I153
VgetIcon
p4983
tp4984
I1
s(g1
I4878
VString
p4985
tp4986
I1
s(g1
I201
ViconPaddingDp
p4987
tp4988
I1
s(g1
I517
VindDraw
p4989
tp4990
I1
s(g1
I880
VfindViewById
p4991
tp4992
I1
s(g1
I1914
Vmeasure
p4993
tp4994
I1
s(g1
I877
Vheight
p4995
tp4996
I1
s(g1
I2369
VgravityEnumToGravity
p4997
tp4998
I1
s(g1
I1381
VcustomFrame
p4999
tp5000
I1
s(g1
I616
VString
p5001
tp5002
I1
s(g1
I102
Vlength
p5003
tp5004
I1
s(g1
I759
Vwhich
p5005
tp5006
I1
s(g1
I6755
Vitems
p5007
tp5008
I1
s(g1
I6290
VDefaultAdapter
p5009
tp5010
I1
s(g1
I568
VDialogInterface
p5011
tp5012
I1
s(g1
I1737
VcanScroll
p5013
tp5014
I1
s(g1
I1141
VhideActions
p5015
tp5016
I1
s(g1
I259
VgetIndeterminateDrawable
p5017
tp5018
I1
s(g1
I426
Vindex
p5019
tp5020
I1
s(g1
I659
VgetParent
p5021
tp5022
I1
s(g1
I624
VCheckBox
p5023
tp5024
I1
s(g1
I786
VPreferenceActivity
p5025
tp5026
I1
s(g1
I177
VIntRange
p5027
tp5028
I1
s(g1
I2435
VFragmentActivity
p5029
tp5030
I1
s(g1
I1920
Vmeasure
p5031
tp5032
I1
s(g1
I97
VmShowListener
p5033
tp5034
I1
s(g1
I1556
Vstart
p5035
tp5036
I2
s(g1
I1863
Vdy
p5037
tp5038
I1
s(g1
I1519
VsetHint
p5039
tp5040
I2
s(g1
I177
VTypedValue
p5041
tp5042
I1
s(g1
I203
Vcontext
p5043
tp5044
I1
s(g1
I216
VshowDialog
p5045
tp5046
I1
s(g1
I584
VnegativeText
p5047
tp5048
I1
s(g1
I241
VonLevelChange
p5049
tp5050
I1
s(g1
I342
Vwrap
p5051
tp5052
I1
s(g1
I5235
Vinput
p5053
tp5054
I1
s(g1
I963
Vfrom
p5055
tp5056
I1
s(g1
I612
Vimm
p5057
tp5058
I1
s(g1
I1152
VgetPaddingLeft
p5059
tp5060
I1
s(g1
I609
Vicon
p5061
tp5062
I1
s(g1
I4391
Vselector
p5063
tp5064
I1
s(g1
I89
VmAnimators
p5065
tp5066
I1
s(g1
I489
VmShowListener
p5067
tp5068
I1
s(g1
I2038
Vview
p5069
tp5070
I1
s(g1
I783
VgetResources
p5071
tp5072
I1
s(g1
I2597
VgetDimension
p5073
tp5074
I1
s(g1
I866
VgetChildAt
p5075
tp5076
I1
s(g1
I231
VLayoutInflater
p5077
tp5078
I1
s(g1
I6770
Vmax
p5079
tp5080
I1
s(g1
I1006
VsetOnDismissListener
p5081
tp5082
I1
s(g1
I146
VaddView
p5083
tp5084
I1
s(g1
I832
Vr
p5085
tp5086
I1
s(g1
I325
VmAlpha
p5087
tp5088
I1
s(g1
I3393
Vcolor
p5089
tp5090
I1
s(g1
I355
VnegativeText
p5091
tp5092
I1
s(g1
I3471
VCollections
p5093
tp5094
I1
s(g1
I155
Vta
p5095
tp5096
I1
s(g1
I486
Vdialog
p5097
tp5098
I1
s(g1
I1866
VcanCustomViewScroll
p5099
tp5100
I1
s(g1
I75
VdarkTheme
p5101
tp5102
I1
s(g1
I750
VSTORAGE_PERMISSION_RC
p5103
tp5104
I1
s(g1
I126
VgetContext
p5105
tp5106
I1
s(g1
I131
VSeekBar
p5107
tp5108
I1
s(g1
I640
VgetDimensionPixelSize
p5109
tp5110
I1
s(g1
I5157
VListType
p5111
tp5112
I1
s(g1
I843
VputString
p5113
tp5114
I1
s(g1
I927
VpositiveText
p5115
tp5116
I1
s(g1
I155
VsetSecondaryProgressTintList
p5117
tp5118
I1
s(g1
I1331
Vdialog
p5119
tp5120
I1
s(g1
I46
VforIndex
p5121
tp5122
I1
s(g1
I774
VmContent
p5123
tp5124
I1
s(g1
I242
Vappend
p5125
tp5126
I1
s(g1
I1020
Vdialog
p5127
tp5128
I1
s(g1
I1538
VsetTextColor
p5129
tp5130
I1
s(g1
I511
VshouldDisableDependents
p5131
tp5132
I1
s(g1
I705
Vequals
p5133
tp5134
I1
s(g1
I509
Vi
p5135
tp5136
I1
s(g1
I595
VBaseSavedState
p5137
tp5138
I1
s(g1
I800
Vadapter
p5139
tp5140
I1
s(g1
I2425
Vadd
p5141
tp5142
I1
s(g1
I186
VSuppressLint
p5143
tp5144
I1
s(g1
I840
Vv
p5145
tp5146
I1
s(g1
I6488
Vicon
p5147
tp5148
I1
s(g1
I1336
VresetListeners
p5149
tp5150
I1
s(g1
I521
Vdialog
p5151
tp5152
I1
s(g1
I1595
VtopView
p5153
tp5154
I1
s(g1
I641
VpaddingBottom
p5155
tp5156
I1
s(g1
I98
Vbuilder
p5157
tp5158
I1
s(g1
I1288
VMaterialDialog
p5159
tp5160
I1
s(g1
I107
VmBuilder
p5161
tp5162
I1
s(g1
I183
VsetTint
p5163
tp5164
I1
s(g1
I2264
Vsplit
p5165
tp5166
I1
s(g1
I198
VAttributeSet
p5167
tp5168
I1
s(g1
I269
Va
p5169
tp5170
I1
s(g1
I486
VsetPreferences
p5171
tp5172
I1
s(g1
I1552
VmCustomSeekA
p5173
tp5174
I1
s(g1
I456
VgetString
p5175
tp5176
I1
s(g1
I4599
VsetChecked
p5177
tp5178
I1
s(g1
I951
Vdialog
p5179
tp5180
I1
s(g1
I586
VonDismiss
p5181
tp5182
I1
s(g1
I495
Vdialog
p5183
tp5184
I2
s(g1
I1795
VbottomMargin
p5185
tp5186
I2
s(g1
I151
Vcontext
p5187
tp5188
I1
s(g1
I1658
VMDButton
p5189
tp5190
I1
s(g1
I3092
VBuilder
p5191
tp5192
I1
s(g1
I265
VgetPreferenceManager
p5193
tp5194
I1
s(g1
I6156
VInteger
p5195
tp5196
I1
s(g1
I252
VonAddEditTextToDialogView
p5197
tp5198
I1
s(g1
I107
VgetValue
p5199
tp5200
I1
s(g1
I440
VActivity
p5201
tp5202
I1
s(g1
I964
Vli
p5203
tp5204
I1
s(g1
I1526
VvalueOf
p5205
tp5206
I1
s(g1
I1271
VCharSequence
p5207
tp5208
I1
s(g1
I1848
VgetProgress
p5209
tp5210
I1
s(g1
I262
Vwhich
p5211
tp5212
I1
s(g1
I577
Vcallback
p5213
tp5214
I1
s(g1
I201
Vcontent
p5215
tp5216
I1
s(g1
I447
Vmethod
p5217
tp5218
I1
s(g1
I672
VView
p5219
tp5220
I1
s(g1
I252
Vrecycle
p5221
tp5222
I1
s(g1
I1941
VlastVisible
p5223
tp5224
I1
s(g1
I769
Vdismiss
p5225
tp5226
I1
s(g1
I105
VList
p5227
tp5228
I1
s(g1
I165
Vitem
p5229
tp5230
I1
s(g1
I683
VCompoundButton
p5231
tp5232
I1
s(g1
I107
VDrawableRes
p5233
tp5234
I1
s(g1
I5446
Vinput
p5235
tp5236
I1
s(g1
I680
VitemView
p5237
tp5238
I1
s(g1
I478
VrestoreValue
p5239
tp5240
I1
s(g1
I4910
Vdialog
p5241
tp5242
I1
s(g1
I4268
VneutralColor
p5243
tp5244
I1
s(g1
I1657
Vdi
p5245
tp5246
I1
s(g1
I1604
Vi
p5247
tp5248
I1
s(g1
I500
VmInitDone
p5249
tp5250
I1
s(g1
I568
VsetDividerColor
p5251
tp5252
I1
s(g1
I118
Vbuilder
p5253
tp5254
I1
s(g1
I1357
Vdialog
p5255
tp5256
I1
s(g1
I1952
VlastVisible
p5257
tp5258
I1
s(g1
I1488
VfindViewById
p5259
tp5260
I1
s(g1
I170
VsetPadding
p5261
tp5262
I1
s(g1
I792
VsetVisibility
p5263
tp5264
I1
s(g1
I1599
VsetSingleLine
p5265
tp5266
I1
s(g1
I165
VeditText
p5267
tp5268
I1
s(g1
I268
VobtainStyledAttributes
p5269
tp5270
I1
s(g1
I2003
VDialogUtils
p5271
tp5272
I1
s(g1
I670
VparseColor
p5273
tp5274
I1
s(g1
I2019
VgetScale
p5275
tp5276
I1
s(g1
I6985
VinvalidateInputMinMaxIndicator
p5277
tp5278
I1
s(g1
I374
VM
p5279
tp5280
I1
s(g1
I562
Vsource
p5281
tp5282
I1
s(g1
I2916
VnegativeButton
p5283
tp5284
I1
s(g1
I1689
Vtag
p5285
tp5286
I1
s(g1
I234
Vicon
p5287
tp5288
I1
s(g1
I5173
Vitems
p5289
tp5290
I1
s(g1
I445
VresId
p5291
tp5292
I1
s(g1
I1928
VlastVisible
p5293
tp5294
I1
s(g1
I381
VPreferenceManager
p5295
tp5296
I1
s(g1
I1005
VgetResources
p5297
tp5298
I1
s(g1
I217
VDialogAction
p5299
tp5300
I1
s(g1
I2332
VtextAllCaps
p5301
tp5302
I1
s(g1
I1126
VsetupInputDialog
p5303
tp5304
I1
s(g1
I4023
VBuilder
p5305
tp5306
I1
s(g1
I172
Vcallback
p5307
tp5308
I1
s(g1
I362
VgetClass
p5309
tp5310
I1
s(g1
I45
VBundle
p5311
tp5312
I1
s(g1
I176
Vto
p5313
tp5314
I1
s(g1
I1341
VsetViewInternal
p5315
tp5316
I1
s(g1
I2560
VString
p5317
tp5318
I1
s(g1
I369
Vmethod
p5319
tp5320
I1
s(g1
I945
Vi
p5321
tp5322
I1
s(g1
I6417
VString
p5323
tp5324
I1
s(g1
I322
VfindViewById
p5325
tp5326
I1
s(g1
I1713
VfindVisible
p5327
tp5328
I1
s(g1
I277
VstateSetsValues
p5329
tp5330
I2
s(g1
I195
VfindViewById
p5331
tp5332
I1
s(g1
I1188
VLinearLayout
p5333
tp5334
I1
s(g1
I1651
Vdialog
p5335
tp5336
I1
s(g1
I5155
VDialogUtils
p5337
tp5338
I1
s(g1
I3737
Vprogress
p5339
tp5340
I1
s(g1
I405
VonDismiss
p5341
tp5342
I1
s(g1
I234
VresolveColor
p5343
tp5344
I1
s(g1
I287
VpositiveResult
p5345
tp5346
I1
s(g1
I245
VmAlpha
p5347
tp5348
I1
s(g1
I4256
VshowListener
p5349
tp5350
I1
s(g1
I1993
VtopIndex
p5351
tp5352
I1
s(g1
I1591
VmCallback
p5353
tp5354
I1
s(g1
I890
VsetChecked
p5355
tp5356
I1
s(g1
I78
Vstate
p5357
tp5358
I1
s(g1
I79
Vcontext
p5359
tp5360
I1
s(g1
I1877
Vbutton
p5361
tp5362
I1
s(g1
I258
VstateSub
p5363
tp5364
I2
s(g1
I543
VmColorsSub
p5365
tp5366
I1
s(g1
I321
Vtitle
p5367
tp5368
I1
s(g1
I4783
VCharSequence
p5369
tp5370
I1
s(g1
I123
Vfallback
p5371
tp5372
I1
s(g1
I56
VdefStyle
p5373
tp5374
I1
s(g1
I1292
VBuilder
p5375
tp5376
I1
s(g1
I146
VField
p5377
tp5378
I1
s(g1
I945
VView
p5379
tp5380
I1
s(g1
I272
Vstate
p5381
tp5382
I2
s(g1
I286
VgetDialogMessage
p5383
tp5384
I1
s(g1
I752
Vview
p5385
tp5386
I1
s(g1
I994
VgetCurrentFocus
p5387
tp5388
I1
s(g1
I76
Vglm
p5389
tp5390
I1
s(g1
I1459
VmButtonGravity
p5391
tp5392
I1
s(g1
I236
Vradio
p5393
tp5394
I1
s(g1
I93
VdarkTheme
p5395
tp5396
I1
s(g1
I303
Vdialog
p5397
tp5398
I1
s(g1
I1747
VViewGroup
p5399
tp5400
I1
s(g1
I57
VonColorSelection
p5401
tp5402
I1
s(g1
I728
VparentFolder
p5403
tp5404
I1
s(g1
I1744
VbuttonBarDivider
p5405
tp5406
I2
s(g1
I185
Vindices
p5407
tp5408
I1
s(g1
I6817
VHandler
p5409
tp5410
I1
s(g1
I312
Vindex
p5411
tp5412
I1
s(g1
I983
VsetMargin
p5413
tp5414
I1
s(g1
I104
VDrawable
p5415
tp5416
I2
s(g1
I3957
Vcontext
p5417
tp5418
I1
s(g1
I414
VonClick
p5419
tp5420
I1
s(g1
I1355
VsetOnDismissListenerInternal
p5421
tp5422
I1
s(g1
I4627
VListType
p5423
tp5424
I1
s(g1
I763
VColorChooserDialog
p5425
tp5426
I1
s(g1
I155
Vpadding
p5427
tp5428
I1
s(g1
I913
VinvalidateCustomViewAssociations
p5429
tp5430
I1
s(g1
I957
Vfallback
p5431
tp5432
I1
s(g1
I918
VlimitIconToDefaultSize
p5433
tp5434
I1
s(g1
I189
VsetCancelable
p5435
tp5436
I2
s(g1
I378
VgetView
p5437
tp5438
I1
s(g1
I1145
VlistPaddingBottom
p5439
tp5440
I1
s(g1
I1270
Vdialog
p5441
tp5442
I1
s(g1
I930
Vr
p5443
tp5444
I1
s(g1
I216
Vinflate
p5445
tp5446
I2
s(g1
I1560
VColor
p5447
tp5448
I1
s(g1
I168
VMaterialDialog
p5449
tp5450
I1
s(g1
I284
VdarkTheme
p5451
tp5452
I1
s(g1
I223
VMaterialListPreference
p5453
tp5454
I1
s(g1
I2206
VsetTag
p5455
tp5456
I1
s(g1
I81
VBundle
p5457
tp5458
I1
s(g1
I434
VArrays
p5459
tp5460
I1
s(g1
I513
VparentFolder
p5461
tp5462
I1
s(g1
I5176
Vinput
p5463
tp5464
I1
s(g1
I4101
Vmedium
p5465
tp5466
I1
s(g1
I83
Vstatic
p5467
tp5468
I35
s(g1
I1646
VcanScroll
p5469
tp5470
I1
s(g1
I149
VAttributeSet
p5471
tp5472
I1
s(g1
I3435
VView
p5473
tp5474
I1
s(g1
I3042
VcontentRes
p5475
tp5476
I1
s(g1
I3166
VgetString
p5477
tp5478
I1
s(g1
I165
VgetIconPadding
p5479
tp5480
I1
s(g1
I144
VonCreateDialog
p5481
tp5482
I1
s(g1
I1408
VsetTextColor
p5483
tp5484
I1
s(g1
I224
VViewGroup
p5485
tp5486
I1
s(g1
I1456
VLog
p5487
tp5488
I1
s(g1
I124
VTypedArray
p5489
tp5490
I1
s(g1
I1786
VbuttonBarDivider
p5491
tp5492
I2
s(g1
I1594
Vtitle
p5493
tp5494
I1
s(g1
I252
VDrawableWrapper
p5495
tp5496
I1
s(g1
I963
V_setOnShowListenerInternal
p5497
tp5498
I1
s(g1
I1426
VgetDimension
p5499
tp5500
I1
s(g1
I606
Vsource
p5501
tp5502
I1
s(g1
I3360
VidsArray
p5503
tp5504
I1
s(g1
I231
VMDTintHelper
p5505
tp5506
I1
s(g1
I1152
VcustomFrame
p5507
tp5508
I1
s(g1
I2568
VFrameLayout
p5509
tp5510
I1
s(g1
I324
VOverride
p5511
tp5512
I1
s(g1
I1134
Vta
p5513
tp5514
I1
s(g1
I278
Vinit
p5515
tp5516
I1
s(g1
I94
VmIcon
p5517
tp5518
I1
s(g1
I289
VonDialogClosed
p5519
tp5520
I1
s(g1
I5994
VmaxIconSize
p5521
tp5522
I2
s(g1
I340
VresolveColor
p5523
tp5524
I1
s(g1
I209
VshowDialog
p5525
tp5526
I1
s(g1
I613
Vcolor
p5527
tp5528
I1
s(g1
I2916
VsetOnClickListener
p5529
tp5530
I1
s(g1
I272
VmEditText
p5531
tp5532
I1
s(g1
I1197
VScrollView
p5533
tp5534
I1
s(g1
I101
VpositiveText
p5535
tp5536
I1
s(g1
I921
Vtitle
p5537
tp5538
I2
s(g1
I1598
VparseColor
p5539
tp5540
I1
s(g1
I974
VView
p5541
tp5542
I1
s(g1
I3051
Vtext
p5543
tp5544
I1
s(g1
I178
Vitems
p5545
tp5546
I1
s(g1
I965
VshowStacked
p5547
tp5548
I1
s(g1
I828
Vview
p5549
tp5550
I2
s(g1
I90
VdefStyleRes
p5551
tp5552
I2
s(g1
I1894
VmediumFont
p5553
tp5554
I1
s(g1
I992
VdialogFrameMargin
p5555
tp5556
I1
s(g1
I319
VoutState
p5557
tp5558
I1
s(g1
I1160
VlistPaddingBottom
p5559
tp5560
I1
s(g1
I517
Vpm
p5561
tp5562
I1
s(g1
I2906
VsetText
p5563
tp5564
I1
s(g1
I3109
Vcontent
p5565
tp5566
I1
s(g1
I97
VonShow
p5567
tp5568
I1
s(g1
I3157
VString
p5569
tp5570
I1
s(g1
I1581
VNullable
p5571
tp5572
I1
s(g1
I2047
VClass
p5573
tp5574
I1
s(g1
I144
VmCallback
p5575
tp5576
I1
s(g1
I170
VArrayList
p5577
tp5578
I1
s(g1
I393
Vbuild
p5579
tp5580
I1
s(g1
I414
VmSelected
p5581
tp5582
I1
s(g1
I562
Vshow
p5583
tp5584
I1
s(g1
I1591
VgetWindowVisibleDisplayFrame
p5585
tp5586
I1
s(g1
I624
Vv
p5587
tp5588
I1
s(g1
I584
VsetTextColor
p5589
tp5590
I1
s(g1
I107
VInteger
p5591
tp5592
I1
s(g1
I1769
VsetVerticalMargins
p5593
tp5594
I2
s(g1
I809
VbottomPadding
p5595
tp5596
I1
s(g1
I101
VheightMeasureSpec
p5597
tp5598
I3
s(g1
I979
Vview
p5599
tp5600
I1
s(g1
I1679
VsetTypeface
p5601
tp5602
I1
s(g1
I47
Vview
p5603
tp5604
I1
s(g1
I83
Vabstract
p5605
tp5606
I1
s(g1
I2205
VRadioButton
p5607
tp5608
I1
s(g1
I778
VonItemSelected
p5609
tp5610
I1
s(g1
I269
VTypedArray
p5611
tp5612
I2
s(g1
I70
VBundle
p5613
tp5614
I1
s(g1
I3360
Vmessage
p5615
tp5616
I1
s(g1
I956
VresolveColor
p5617
tp5618
I1
s(g1
I3114
Vcontent
p5619
tp5620
I1
s(g1
I3168
Vformat
p5621
tp5622
I1
s(g1
I180
Vview
p5623
tp5624
I1
s(g1
I1677
VOnClick
p5625
tp5626
I1
s(g1
I4606
VselectedIndices
p5627
tp5628
I1
s(g1
I3767
VViewGroup
p5629
tp5630
I1
s(g1
I4257
VsetOnShowListener
p5631
tp5632
I1
s(g1
I1705
VonScrollChangedListener
p5633
tp5634
I1
s(g1
I181
VTypedArray
p5635
tp5636
I1
s(g1
I376
VprogressBar
p5637
tp5638
I1
s(g1
I1299
VIllegalArgumentException
p5639
tp5640
I1
s(g1
I707
VcontentColor
p5641
tp5642
I1
s(g1
I321
Vmethod
p5643
tp5644
I1
s(g1
I724
VgetContext
p5645
tp5646
I1
s(g1
I1456
Vgravity
p5647
tp5648
I1
s(g1
I1574
VPasswordTransformationMethod
p5649
tp5650
I1
s(g1
I133
VField
p5651
tp5652
I1
s(g1
I243
VNEUTRAL
p5653
tp5654
I1
s(g1
I4246
VsetText
p5655
tp5656
I1
s(g1
I37
Vdialog
p5657
tp5658
I1
s(g1
I1120
VMaterialSimpleListAdapter
p5659
tp5660
I1
s(g1
I273
VCheckBox
p5661
tp5662
I1
s(g1
I604
VParcel
p5663
tp5664
I1
s(g1
I4061
Vinput
p5665
tp5666
I1
s(g1
I5545
Vrun
p5667
tp5668
I1
s(g1
I1951
Vcount
p5669
tp5670
I1
s(g1
I135
VContext
p5671
tp5672
I1
s(g1
I276
VdarkTheme
p5673
tp5674
I1
s(g1
I53
g1404
tp5675
I15
s(g1
I155
VstateList
p5676
tp5677
I1
s(g1
I2015
VgetActionTextStateList
p5678
tp5679
I1
s(g1
I281
VobtainStyledAttributes
p5680
tp5681
I2
s(g1
I674
VparseColor
p5682
tp5683
I1
s(g1
I1781
Vr
p5684
tp5685
I2
s(g1
I96
Vequals
p5686
tp5687
I1
s(g1
I1087
VasList
p5688
tp5689
I1
s(g1
I545
VsubIndex
p5690
tp5691
I1
s(g1
I2074
VColorChooserDialog
p5692
tp5693
I1
s(g1
I963
VmContext
p5694
tp5695
I1
s(g1
I52
VOverride
p5696
tp5697
I1
s(g1
I569
VparentFolder
p5698
tp5699
I1
s(g1
I143
Vcolor
p5700
tp5701
I1
s(g1
I4886
Vmedium
p5702
tp5703
I1
s(g1
I2422
Vshow
p5704
tp5705
I1
s(g1
I114
VgetClass
p5706
tp5707
I1
s(g1
I141
Vmargin
p5708
tp5709
I2
s(g1
I144
Vcolor
p5710
tp5711
I1
s(g1
I1386
VsetTint
p5712
tp5713
I1
s(g1
I94
VDialogUtils
p5714
tp5715
I1
s(g1
I513
VMethod
p5716
tp5717
I1
s(g1
I2347
VPOSITIVE
p5718
tp5719
I1
s(g1
I312
VMaterialDialog
p5720
tp5721
I1
s(g1
I2061
VsetArguments
p5722
tp5723
I1
s(g1
I1762
VfindViewById
p5724
tp5725
I1
s(g1
I7144
VString
p5726
tp5727
I1
s(g1
I300
Vlp
p5728
tp5729
I1
s(g1
I1679
VNonNull
p5730
tp5731
I1
s(g1
I1577
VbottomView
p5732
tp5733
I1
s(g1
I456
Vcontext
p5734
tp5735
I1
s(g1
I577
Vdialog
p5736
tp5737
I1
s(g1
I5096
Vdialog
p5738
tp5739
I1
s(g1
I4867
VBuilder
p5740
tp5741
I1
s(g1
I66
Vcontext
p5742
tp5743
I1
s(g1
I2200
Vcount
p5744
tp5745
I1
s(g1
I50
Vlm
p5746
tp5747
I1
s(g1
I252
VonClick
p5748
tp5749
I1
s(g1
I6902
VinputMinMax
p5750
tp5751
I1
s(g1
I2016
VgetActionTextStateList
p5752
tp5753
I1
s(g1
I58
Vview
p5754
tp5755
I1
s(g1
I886
VnewSelection
p5756
tp5757
I1
s(g1
I183
VMULTI
p5758
tp5759
I1
s(g1
I751
VMaterialDialog
p5760
tp5761
I1
s(g1
I267
VonCreate
p5762
tp5763
I1
s(g1
I2161
VbottomView
p5764
tp5765
I1
s(g1
I4491
VcheckBoxPromptRes
p5766
tp5767
I1
s(g1
I2545
VsetVisibility
p5768
tp5769
I1
s(g1
I1685
VColorChooserTag
p5770
tp5771
I1
s(g1
I158
VView
p5772
tp5773
I3
s(g1
I557
VtopIndex
p5774
tp5775
I1
s(g1
I305
VOverride
p5776
tp5777
I1
s(g1
I848
Vdialog
p5778
tp5779
I1
s(g1
I2925
VgravityToAlignment
p5780
tp5781
I1
s(g1
I94
Vstart
p5782
tp5783
I1
s(g1
I101
Vicon
p5784
tp5785
I1
s(g1
I908
VOverride
p5786
tp5787
I1
s(g1
I766
VhasButtons
p5788
tp5789
I1
s(g1
I562
VdividerFallback
p5790
tp5791
I1
s(g1
I5165
VIllegalStateException
p5792
tp5793
I1
s(g1
I1146
VgetParent
p5794
tp5795
I1
s(g1
I2003
VgetActionTextStateList
p5796
tp5797
I1
s(g1
I831
VcheckedItems
p5798
tp5799
I1
s(g1
I2311
VtextAllCaps
p5800
tp5801
I1
s(g1
I6776
VLooper
p5802
tp5803
I1
s(g1
I2429
VNonNull
p5804
tp5805
I1
s(g1
I2195
Vindex
p5806
tp5807
I1
s(g1
I138
VsuperCls
p5808
tp5809
I1
s(g1
I440
VCollections
p5810
tp5811
I1
s(g1
I524
Vview
p5812
tp5813
I1
s(g1
I63
Vcontext
p5814
tp5815
I2
s(g1
I268
VColorRes
p5816
tp5817
I1
s(g1
I793
VIntent
p5818
tp5819
I1
s(g1
I1570
Vdialog
p5820
tp5821
I1
s(g1
I1399
VsetTypeface
p5822
tp5823
I1
s(g1
I1441
Vpaint
p5824
tp5825
I1
s(g1
I611
VsetGravity
p5826
tp5827
I1
s(g1
I7130
VinputMinMax
p5828
tp5829
I1
s(g1
I859
VString
p5830
tp5831
I1
s(g1
I720
VgetDeclaredField
p5832
tp5833
I1
s(g1
I2246
VSTORAGE_PERMISSION_RC
p5834
tp5835
I1
s(g1
I1007
VlistView
p5836
tp5837
I1
s(g1
I263
Vdrawable
p5838
tp5839
I1
s(g1
I2061
Vargs
p5840
tp5841
I1
s(g1
I1205
VmItemProcessor
p5842
tp5843
I1
s(g1
I82
VdefStyleAttr
p5844
tp5845
I1
s(g1
I58
VforIndex
p5846
tp5847
I1
s(g1
I1229
Vitem
p5848
tp5849
I1
s(g1
I156
VscrubMessageField
p5850
tp5851
I1
s(g1
I269
VDialogInit
p5852
tp5853
I1
s(g1
I462
VpositiveText
p5854
tp5855
I1
s(g1
I833
VColor
p5856
tp5857
I1
s(g1
I209
VsetText
p5858
tp5859
I1
s(g1
I1132
Vframe
p5860
tp5861
I1
s(g1
I2567
VSTORAGE_PERMISSION_RC
p5862
tp5863
I1
s(g1
I1023
VgetPaddingBottom
p5864
tp5865
I1
s(g1
I935
Vicon
p5866
tp5867
I1
s(g1
I2567
VrequestPermissions
p5868
tp5869
I1
s(g1
I782
VmUseFullPadding
p5870
tp5871
I1
s(g1
I2237
Vcallback
p5872
tp5873
I1
s(g1
I2612
VaddRule
p5874
tp5875
I1
s(g1
I6837
VLog
p5876
tp5877
I1
s(g1
I1649
VDialogInterface
p5878
tp5879
I1
s(g1
I155
VpositiveText
p5880
tp5881
I1
s(g1
I1397
VtitleFrame
p5882
tp5883
I1
s(g1
I2419
VisChecked
p5884
tp5885
I1
s(g1
I632
VEditText
p5886
tp5887
I1
s(g1
I395
VMaterialEditTextPreference
p5888
tp5889
I1
s(g1
I3756
Vview
p5890
tp5891
I1
s(g1
I428
VInteger
p5892
tp5893
I1
s(g1
I450
VshowBasicLongContent
p5894
tp5895
I1
s(g1
I303
VPreferenceManager
p5896
tp5897
I1
s(g1
I547
VfScrollIndex
p5898
tp5899
I1
s(g1
I143
VdismissMsg
p5900
tp5901
I1
s(g1
I2239
VString
p5902
tp5903
I1
s(g1
I629
VneutralText
p5904
tp5905
I1
s(g1
I6879
VcurrentLength
p5906
tp5907
I1
s(g1
I1368
VpositiveText
p5908
tp5909
I1
s(g1
I4144
Vcontent
p5910
tp5911
I1
s(g1
I436
VPreferenceManager
p5912
tp5913
I1
s(g1
I269
VPath
p5914
tp5915
I1
s(g1
I709
VEnvironment
p5916
tp5917
I1
s(g1
I379
VDrawable
p5918
tp5919
I1
s(g1
I1816
VbottomVisible
p5920
tp5921
I2
s(g1
I5605
VemptyDisabled
p5922
tp5923
I1
s(g1
I510
Vd
p5924
tp5925
I1
s(g1
I2223
VgetContext
p5926
tp5927
I1
s(g1
I71
Vcontext
p5928
tp5929
I1
s(g1
I2579
VchooseButton
p5930
tp5931
I1
s(g1
I162
Vcontext
p5932
tp5933
I1
s(g1
I1356
Vbuilder
p5934
tp5935
I1
s(g1
I394
Vindex
p5936
tp5937
I1
s(g1
I2934
VnegativeTextView
p5938
tp5939
I1
s(g1
I1732
VgetDimension
p5940
tp5941
I1
s(g1
I3383
VDialogUtils
p5942
tp5943
I1
s(g1
I955
VcheckedItems
p5944
tp5945
I1
s(g1
I2545
VneutralButton
p5946
tp5947
I1
s(g1
I285
VresolveColor
p5948
tp5949
I1
s(g1
I1433
VFileChooserDialog
p5950
tp5951
I1
s(g1
I1602
VparseColor
p5952
tp5953
I1
s(g1
I44
Vi
p5954
tp5955
I1
s(g1
I1796
VsixteenDp
p5956
tp5957
I2
s(g1
I754
VgetTextAlignment
p5958
tp5959
I1
s(g1
I4386
VmaxLength
p5960
tp5961
I1
s(g1
I672
VinnerViewLayoutParams
p5962
tp5963
I1
s(g1
I5348
VsetInternalInputCallback
p5964
tp5965
I1
s(g1
I172
VdefStyleRes
p5966
tp5967
I1
s(g1
I72
VsavedInstanceState
p5968
tp5969
I1
s(g1
I122
VT
p5970
tp5971
I1
s(g1
I71
Vattrs
p5972
tp5973
I1
s(g1
I1914
VneutralButton
p5974
tp5975
I1
s(g1
I3056
VfromHtml
p5976
tp5977
I1
s(g1
I39
VOverride
p5978
tp5979
I1
s(g1
I141
Vlayout
p5980
tp5981
I1
s(g1
I2926
VnegativeTextView
p5982
tp5983
I1
s(g1
I3383
VresolveGravityEnum
p5984
tp5985
I1
s(g1
I600
VgetContext
p5986
tp5987
I1
s(g1
I505
Vlistener
p5988
tp5989
I1
s(g1
I734
Vget
p5990
tp5991
I1
s(g1
I269
VMethod
p5992
tp5993
I1
s(g1
I556
VCharSequence
p5994
tp5995
I1
s(g1
I381
VmShowListener
p5996
tp5997
I1
s(g1
I89
Vnamespace
p5998
tp5999
I1
s(g1
I414
VOverride
p6000
tp6001
I2
s(g1
I143
VsetAlpha
p6002
tp6003
I1
s(g1
I695
VvalueOf
p6004
tp6005
I1
s(g1
I359
Vitems
p6006
tp6007
I1
s(g1
I496
Vwindow
p6008
tp6009
I1
s(g1
I824
VColor
p6010
tp6011
I1
s(g1
I1371
VlistPaddingBottom
p6012
tp6013
I1
s(g1
I190
Vdialog
p6014
tp6015
I1
s(g1
I1511
VsetHintTextColor
p6016
tp6017
I1
s(g1
I776
VcustomFrame
p6018
tp6019
I1
s(g1
I950
VcurrentFocus
p6020
tp6021
I1
s(g1
I2399
VgetChildAt
p6022
tp6023
I1
s(g1
I559
Vcolor
p6024
tp6025
I1
s(g1
I1540
VmSelectedCustomColor
p6026
tp6027
I1
s(g1
I104
VMaterialEditTextPreference
p6028
tp6029
I1
s(g1
I4401
VerrorColor
p6030
tp6031
I2
s(g1
I201
VPATH_INDETERMINATE_HORIZONTAL_RECT2_TRANSLATE_X
p6032
tp6033
I1
s(g1
I2098
VmaxWidth
p6034
tp6035
I1
s(g1
I1570
VonTextChanged
p6036
tp6037
I1
s(g1
I374
Vdialog
p6038
tp6039
I1
s(g1
I4398
VColorRes
p6040
tp6041
I1
s(g1
I4642
VaccentColor
p6042
tp6043
I1
s(g1
I6015
Vcontext
p6044
tp6045
I2
s(g1
I3989
VcolorAttr
p6046
tp6047
I1
s(g1
I222
Vlayout
p6048
tp6049
I1
s(g1
I89
VDialogUtils
p6050
tp6051
I1
s(g1
I1200
VitemColor
p6052
tp6053
I1
s(g1
I3269
Vicon
p6054
tp6055
I1
s(g1
I322
VgetTransparentRegion
p6056
tp6057
I1
s(g1
I949
VgetCurrentFocus
p6058
tp6059
I1
s(g1
I342
VgetBuilder
p6060
tp6061
I1
s(g1
I1715
Vvg
p6062
tp6063
I1
s(g1
I752
VfindViewById
p6064
tp6065
I1
s(g1
I92
VresolveBoolean
p6066
tp6067
I1
s(g1
I1179
Vview
p6068
tp6069
I1
s(g1
I395
VparentFolder
p6070
tp6071
I1
s(g1
I1721
VonCancel
p6072
tp6073
I1
s(g1
I3983
VBuilder
p6074
tp6075
I1
s(g1
I4064
Vinput
p6076
tp6077
I1
s(g1
I489
VpreferenceScreen
p6078
tp6079
I1
s(g1
I302
VisColorDark
p6080
tp6081
I1
s(g1
I694
Vshow
p6082
tp6083
I1
s(g1
I1333
Vdialog
p6084
tp6085
I1
s(g1
I1909
VThrowable
p6086
tp6087
I1
s(g1
I952
VgetContext
p6088
tp6089
I1
s(g1
I176
VaddView
p6090
tp6091
I1
s(g1
I950
Vi
p6092
tp6093
I1
s(g1
I1331
VsetOnKeyListener
p6094
tp6095
I1
s(g1
I1951
VTypeface
p6096
tp6097
I1
s(g1
I2555
VisStacked
p6098
tp6099
I1
s(g1
I952
Veditor
p6100
tp6101
I1
s(g1
I678
VparseColor
p6102
tp6103
I1
s(g1
I1619
VsetTint
p6104
tp6105
I1
s(g1
I3731
VIllegalStateException
p6106
tp6107
I1
s(g1
I471
Vshow
p6108
tp6109
I1
s(g1
I356
Vpaint
p6110
tp6111
I1
s(g1
I702
VDialogUtils
p6112
tp6113
I1
s(g1
I1185
VLinearLayout
p6114
tp6115
I1
s(g1
I835
Vvisible
p6116
tp6117
I1
s(g1
I1744
VsetVisibility
p6118
tp6119
I2
s(g1
I5881
VIllegalStateException
p6120
tp6121
I1
s(g1
I1539
Vcount
p6122
tp6123
I1
s(g1
I200
VEditText
p6124
tp6125
I1
s(g1
I709
VeditText
p6126
tp6127
I1
s(g1
I271
Vinflate
p6128
tp6129
I1
s(g1
I745
VsetGravity
p6130
tp6131
I1
s(g1
I761
VTextView
p6132
tp6133
I1
s(g1
I1370
VsetMax
p6134
tp6135
I1
s(g1
I148
VgetValue
p6136
tp6137
I1
s(g1
I278
VDialogInit
p6138
tp6139
I1
s(g1
I52
VdefStyle
p6140
tp6141
I1
s(g1
I933
Vbuilder
p6142
tp6143
I1
s(g1
I6897
VinputMinMax
p6144
tp6145
I1
s(g1
I339
VMaterialListPreference
p6146
tp6147
I1
s(g1
I314
Vdialog
p6148
tp6149
I1
s(g1
I1373
VsetIndeterminateDrawable
p6150
tp6151
I1
s(g1
I584
VcontentColor
p6152
tp6153
I1
s(g1
I388
VMethod
p6154
tp6155
I1
s(g1
I170
Vic
p6156
tp6157
I1
s(g1
I954
VnegativeText
p6158
tp6159
I1
s(g1
I170
Vdialog
p6160
tp6161
I1
s(g1
I456
VresolveBoolean
p6162
tp6163
I1
s(g1
I1471
VsetText
p6164
tp6165
I1
s(g1
I2362
VisStacked
p6166
tp6167
I1
s(g1
I211
VDialogUtils
p6168
tp6169
I1
s(g1
I359
VfileExtension
p6170
tp6171
I1
s(g1
I255
VDrawableWrapper
p6172
tp6173
I1
s(g1
I1553
VtopIndex
p6174
tp6175
I1
s(g1
I5495
VOverride
p6176
tp6177
I1
s(g1
I2211
VsetOnClickListener
p6178
tp6179
I1
s(g1
I1695
VDialogUtils
p6180
tp6181
I1
s(g1
I324
VshowBasicNoTitle
p6182
tp6183
I1
s(g1
I740
Vcallback
p6184
tp6185
I1
s(g1
I577
VsetTypeface
p6186
tp6187
I1
s(g1
I5434
VgetText
p6188
tp6189
I1
s(g1
I6521
VsetContent
p6190
tp6191
I1
s(g1
I5172
Vdialog
p6192
tp6193
I1
s(g1
I341
VprogressBar
p6194
tp6195
I1
s(g1
I301
VgetEditText
p6196
tp6197
I1
s(g1
I2152
VcanRecyclerViewScroll
p6198
tp6199
I1
s(g1
I316
VNUM_POINTS
p6200
tp6201
I1
s(g1
I515
VDrawable
p6202
tp6203
I1
s(g1
I2246
VActivityCompat
p6204
tp6205
I1
s(g1
I3763
VViewGroup
p6206
tp6207
I1
s(g1
I863
VparentFolder
p6208
tp6209
I1
s(g1
I3580
VDialogUtils
p6210
tp6211
I1
s(g1
I4850
VMaterialDialog
p6212
tp6213
I1
s(g1
I291
VDialogUtils
p6214
tp6215
I1
s(g1
I2837
VgetActionButton
p6216
tp6217
I1
s(g1
I417
VaddRule
p6218
tp6219
I1
s(g1
I76
VonCreate
p6220
tp6221
I1
s(g1
I160
VprogressBar
p6222
tp6223
I1
s(g1
I384
VlistFiles
p6224
tp6225
I1
s(g1
I168
Vpreference
p6226
tp6227
I1
s(g1
I3371
VArrayRes
p6228
tp6229
I1
s(g1
I122
VresolveColor
p6230
tp6231
I1
s(g1
I70
Vlm
p6232
tp6233
I1
s(g1
I986
VcustomFrame
p6234
tp6235
I1
s(g1
I298
Vcontent
p6236
tp6237
I1
s(g1
I1813
VsetForBottom
p6238
tp6239
I1
s(g1
I324
VresolveColor
p6240
tp6241
I1
s(g1
I574
VDialogUtils
p6242
tp6243
I1
s(g1
I635
VshowStacked
p6244
tp6245
I1
s(g1
I250
VresolveActionTextColorStateList
p6246
tp6247
I1
s(g1
I503
Vdialog
p6248
tp6249
I1
s(g1
I797
VCharSequence
p6250
tp6251
I1
s(g1
I524
Vmethod
p6252
tp6253
I1
s(g1
I6274
VlistType
p6254
tp6255
I1
s(g1
I647
VgetDimensionPixelSize
p6256
tp6257
I1
s(g1
I1087
VArrays
p6258
tp6259
I1
s(g1
I70
Vcontext
p6260
tp6261
I1
s(g1
I4466
VStringRes
p6262
tp6263
I1
s(g1
I5193
VmHandler
p6264
tp6265
I1
s(g1
I188
Vindex
p6266
tp6267
I1
s(g1
I246
VGradientDrawable
p6268
tp6269
I1
s(g1
I943
Vi
p6270
tp6271
I1
s(g1
I413
Vwhich
p6272
tp6273
I1
s(g1
I112
Vval
p6274
tp6275
I2
s(g1
I2222
Vllm
p6276
tp6277
I1
s(g1
I1019
Vcon
p6278
tp6279
I1
s(g1
I546
VonDismiss
p6280
tp6281
I1
s(g1
I873
VRadioButton
p6282
tp6283
I1
s(g1
I1123
VView
p6284
tp6285
I1
s(g1
I3369
VcontentGravity
p6286
tp6287
I1
s(g1
I4811
VDialogUtils
p6288
tp6289
I1
s(g1
I493
VmShowListener
p6290
tp6291
I1
s(g1
I770
VView
p6292
tp6293
I1
s(g1
I389
VaddRule
p6294
tp6295
I1
s(g1
I662
VsetClipToPadding
p6296
tp6297
I1
s(g1
I5854
VMaterialDialogAdapter
p6298
tp6299
I1
s(g1
I898
Vwidth
p6300
tp6301
I1
s(g1
I492
VparentFolder
p6302
tp6303
I1
s(g1
I940
VmNoTitlePaddingFull
p6304
tp6305
I1
s(g1
I1527
VsetupInputDialog
p6306
tp6307
I1
s(g1
I684
VmCustomSeekG
p6308
tp6309
I1
s(g1
I623
VstartActivity
p6310
tp6311
I1
s(g1
I1313
VsetOnCancelListener
p6312
tp6313
I1
s(g1
I367
VCharSequence
p6314
tp6315
I1
s(g1
I447
VPreferenceScreen
p6316
tp6317
I1
s(g1
I785
VDialogUtils
p6318
tp6319
I1
s(g1
I1663
VMaterialDialog
p6320
tp6321
I1
s(g1
I320
VgetDeclaredMethod
p6322
tp6323
I1
s(g1
I1445
VeightDp
p6324
tp6325
I1
s(g1
I171
Vparent
p6326
tp6327
I1
s(g1
I4158
VsetContent
p6328
tp6329
I1
s(g1
I366
VOverride
p6330
tp6331
I1
s(g1
I1814
VsetVisibility
p6332
tp6333
I1
s(g1
I2211
VnegativeButton
p6334
tp6335
I1
s(g1
I2274
VinvalidateActions
p6336
tp6337
I1
s(g1
I4142
VCharSequence
p6338
tp6339
I1
s(g1
I558
VmColorsTop
p6340
tp6341
I1
s(g1
I921
VsetGravity
p6342
tp6343
I1
s(g1
I2422
VfragmentManager
p6344
tp6345
I1
s(g1
I1165
Vinput
p6346
tp6347
I1
s(g1
I377
Vpm
p6348
tp6349
I1
s(g1
I197
VonCreateViewHolder
p6350
tp6351
I1
s(g1
I1692
VmContext
p6352
tp6353
I1
s(g1
I2033
VDialogUtils
p6354
tp6355
I1
s(g1
I2208
VLinearLayoutManager
p6356
tp6357
I1
s(g1
I620
VPreferenceActivity
p6358
tp6359
I1
s(g1
I1574
VSUB_LEVEL_COLORS
p6360
tp6361
I1
s(g1
I271
Vpath
p6362
tp6363
I1
s(g1
I1386
VsetPadding
p6364
tp6365
I1
s(g1
I74
VMaterialDialog
p6366
tp6367
I1
s(g1
I209
VRadioButton
p6368
tp6369
I1
s(g1
I833
VpaddingBottom
p6370
tp6371
I1
s(g1
I1227
VT
p6372
tp6373
I1
s(g1
I684
VselectedColor
p6374
tp6375
I1
s(g1
I930
VnegativeText
p6376
tp6377
I1
s(g1
I905
VViewCompat
p6378
tp6379
I1
s(g1
I1613
VsetHintTextColor
p6380
tp6381
I1
s(g1
I1167
VisDirectory
p6382
tp6383
I1
s(g1
I6901
VsetProgress
p6384
tp6385
I1
s(g1
I1416
VfindViewById
p6386
tp6387
I1
s(g1
I32
VAboutDialog
p6388
tp6389
I1
s(g1
I257
VonPreparePaint
p6390
tp6391
I1
s(g1
I2911
VNEGATIVE
p6392
tp6393
I1
s(g1
I4242
VMaterialDialog
p6394
tp6395
I1
s(g1
I729
Vv
p6396
tp6397
I1
s(g1
I721
VfEditor
p6398
tp6399
I1
s(g1
I1270
VinvalidateList
p6400
tp6401
I1
s(g1
I1759
VsetVerticalMargins
p6402
tp6403
I2
s(g1
I491
VdefaultValue
p6404
tp6405
I1
s(g1
I273
VgetTheme
p6406
tp6407
I2
s(g1
I2287
VbuttonsWidth
p6408
tp6409
I1
s(g1
I200
VgetDialogMessage
p6410
tp6411
I1
s(g1
I1967
VContextCompat
p6412
tp6413
I1
s(g1
I1704
VDialogUtils
p6414
tp6415
I1
s(g1
I4388
VIllegalArgumentException
p6416
tp6417
I1
s(g1
I1577
VparseColor
p6418
tp6419
I1
s(g1
I1801
VRect
p6420
tp6421
I2
s(g1
I233
VLinearLayout
p6422
tp6423
I1
s(g1
I5260
VmHandler
p6424
tp6425
I1
s(g1
I614
VsetImageDrawable
p6426
tp6427
I1
s(g1
I62
Vli
p6428
tp6429
I1
s(g1
I6773
VmyLooper
p6430
tp6431
I1
s(g1
I275
Vi
p6432
tp6433
I1
s(g1
I501
VisColorDark
p6434
tp6435
I1
s(g1
I89
Vtitle
p6436
tp6437
I1
s(g1
I287
Vcolor
p6438
tp6439
I1
s(g1
I1119
Vcon
p6440
tp6441
I1
s(g1
I1708
Vbottom
p6442
tp6443
I1
s(g1
I58
VisStarted
p6444
tp6445
I1
s(g1
I52
VsavedInstanceState
p6446
tp6447
I1
s(g1
I429
Va
p6448
tp6449
I1
s(g1
I630
VforceStacking
p6450
tp6451
I1
s(g1
I1390
VgetDimension
p6452
tp6453
I1
s(g1
I2170
VgetLastVisiblePosition
p6454
tp6455
I1
s(g1
I4150
Vview
p6456
tp6457
I1
s(g1
I702
VparentFolder
p6458
tp6459
I1
s(g1
I279
Vvalue
p6460
tp6461
I1
s(g1
I626
VonClick
p6462
tp6463
I1
s(g1
I156
VPreference
p6464
tp6465
I1
s(g1
I216
VBundle
p6466
tp6467
I1
s(g1
I343
VonClick
p6468
tp6469
I1
s(g1
I1020
VgetPaddingRight
p6470
tp6471
I1
s(g1
I44
Vcache
p6472
tp6473
I1
s(g1
I837
VonPause
p6474
tp6475
I1
s(g1
I1136
Vcolors
p6476
tp6477
I1
s(g1
I222
VEditText
p6478
tp6479
I1
s(g1
I2293
VpositiveButton
p6480
tp6481
I1
s(g1
I1562
VtopLevelColor
p6482
tp6483
I1
s(g1
I512
VparentContents
p6484
tp6485
I1
s(g1
I213
Vdialog
p6486
tp6487
I1
s(g1
I5430
VDialogUtils
p6488
tp6489
I1
s(g1
I276
VCheckBox
p6490
tp6491
I1
s(g1
I336
VfindViewById
p6492
tp6493
I1
s(g1
I231
VTextView
p6494
tp6495
I1
s(g1
I605
Vshow
p6496
tp6497
I1
s(g1
I265
Vvalues
p6498
tp6499
I1
s(g1
I131
VTypedValue
p6500
tp6501
I1
s(g1
I890
Vrb
p6502
tp6503
I1
s(g1
I5238
Vinput
p6504
tp6505
I1
s(g1
I281
VanimatorSet
p6506
tp6507
I1
s(g1
I682
VparseColor
p6508
tp6509
I1
s(g1
I409
VlistType
p6510
tp6511
I1
s(g1
I4257
Vdialog
p6512
tp6513
I1
s(g1
I1023
VlistView
p6514
tp6515
I1
s(g1
I385
VitemGravity
p6516
tp6517
I1
s(g1
I231
Vtext
p6518
tp6519
I1
s(g1
I273
VscaleXAnimator
p6520
tp6521
I1
s(g1
I526
VmProgress
p6522
tp6523
I1
s(g1
I4781
VtextViewResourceId
p6524
tp6525
I1
s(g1
I108
VDialogUtils
p6526
tp6527
I1
s(g1
I1119
VconPadding
p6528
tp6529
I1
s(g1
I1484
VEditText
p6530
tp6531
I1
s(g1
I208
VgetText
p6532
tp6533
I1
s(g1
I1010
Vicon
p6534
tp6535
I2
s(g1
I259
VonCreateDialog
p6536
tp6537
I1
s(g1
I729
Vdialog
p6538
tp6539
I1
s(g1
I6896
VcurrentLength
p6540
tp6541
I1
s(g1
I1675
VwidgetColor
p6542
tp6543
I1
s(g1
I3527
VsendMultichoiceCallback
p6544
tp6545
I1
s(g1
I4792
Vobjects
p6546
tp6547
I1
s(g1
I4482
Vcontext
p6548
tp6549
I1
s(g1
I1245
Vinput
p6550
tp6551
I1
s(g1
I458
VHtml
p6552
tp6553
I1
s(g1
I1370
VgetDimension
p6554
tp6555
I1
s(g1
I3437
Vv
p6556
tp6557
I1
s(g1
I318
VsetValue
p6558
tp6559
I1
s(g1
I39
Vfloat
p6560
tp6561
I5
s(g1
I104
Vta
p6562
tp6563
I1
s(g1
I2581
VneutralTextView
p6564
tp6565
I1
s(g1
I506
Vview
p6566
tp6567
I1
s(g1
I242
Vdialog
p6568
tp6569
I1
s(g1
I563
VOverride
p6570
tp6571
I1
s(g1
I257
VPATH_INDETERMINATE_HORIZONTAL_RECT1_SCALE_X
p6572
tp6573
I1
s(g1
I279
Vinterrupt
p6574
tp6575
I1
s(g1
I563
VgetContext
p6576
tp6577
I1
s(g1
I2174
VviewGroup
p6578
tp6579
I1
s(g1
I337
VNEGATIVE
p6580
tp6581
I1
s(g1
I54
Vid
p6582
tp6583
I1
s(g1
I1386
VcustomFrame
p6584
tp6585
I1
s(g1
I233
VsavedInstanceState
p6586
tp6587
I1
s(g1
I3461
Vv
p6588
tp6589
I1
s(g1
I1573
VtopIndex
p6590
tp6591
I1
s(g1
I866
Vlist
p6592
tp6593
I1
s(g1
I1135
Vcon
p6594
tp6595
I1
s(g1
I351
VString
p6596
tp6597
I1
s(g1
I2260
Vsplit
p6598
tp6599
I1
s(g1
I5204
VmProgress
p6600
tp6601
I1
s(g1
I2558
VMainActivity
p6602
tp6603
I1
s(g1
I4365
VnegativeText
p6604
tp6605
I1
s(g1
I436
VMethod
p6606
tp6607
I1
s(g1
I598
VgetTextAlignment
p6608
tp6609
I1
s(g1
I4618
VMaterialDialogAdapter
p6610
tp6611
I1
s(g1
I28
VonCreate
p6612
tp6613
I1
s(g1
I672
VcanGoUp
p6614
tp6615
I1
s(g1
I5105
VmBuilder
p6616
tp6617
I1
s(g1
I183
Vattr
p6618
tp6619
I1
s(g1
I212
Vfrom
p6620
tp6621
I2
s(g1
I144
Vcallback
p6622
tp6623
I1
s(g1
I4625
Vcheckbox
p6624
tp6625
I1
s(g1
I442
Vactivity
p6626
tp6627
I1
s(g1
I2357
VsetTag
p6628
tp6629
I1
s(g1
I866
Vi
p6630
tp6631
I1
s(g1
I124
VFloat
p6632
tp6633
I1
s(g1
I327
VmShowTrack
p6634
tp6635
I1
s(g1
I185
VGravityEnum
p6636
tp6637
I1
s(g1
I634
VpositiveText
p6638
tp6639
I1
s(g1
I239
Vdialog
p6640
tp6641
I2
s(g1
I286
Vcontains
p6642
tp6643
I1
s(g1
I263
VsetEnabled
p6644
tp6645
I1
s(g1
I217
VOverride
p6646
tp6647
I1
s(g1
I1155
VcustomFrame
p6648
tp6649
I1
s(g1
I108
VColorStateList
p6650
tp6651
I1
s(g1
I1377
VIndeterminateProgressDrawable
p6652
tp6653
I1
s(g1
I982
VadapterProvided
p6654
tp6655
I1
s(g1
I1575
VbottomMargin
p6656
tp6657
I1
s(g1
I2282
VisStacked
p6658
tp6659
I1
s(g1
I2231
Vparams
p6660
tp6661
I1
s(g1
I251
VProperty
p6662
tp6663
I1
s(g1
I1583
VonButtonClicked
p6664
tp6665
I1
s(g1
I164
VPreferenceManager
p6666
tp6667
I1
s(g1
I199
VdismissListener
p6668
tp6669
I1
s(g1
I667
VcheckVector
p6670
tp6671
I1
s(g1
I330
VmTrackAlpha
p6672
tp6673
I1
s(g1
I606
VView
p6674
tp6675
I1
s(g1
I375
VmDialog
p6676
tp6677
I1
s(g1
I1691
VFragment
p6678
tp6679
I1
s(g1
I4917
Vdialog
p6680
tp6681
I1
s(g1
I1956
VwidgetColor
p6682
tp6683
I1
s(g1
I1490
Vbuilder
p6684
tp6685
I2
s(g1
I2202
VRadioButton
p6686
tp6687
I1
s(g1
I1336
VinvalidateList
p6688
tp6689
I1
s(g1
I223
VvalueOf
p6690
tp6691
I1
s(g1
I1016
VgetPaddingLeft
p6692
tp6693
I1
s(g1
I27
VDrawable
p6694
tp6695
I1
s(g1
I2310
VDialogUtils
p6696
tp6697
I1
s(g1
I1130
VfindViewById
p6698
tp6699
I1
s(g1
I139
VCallback
p6700
tp6701
I1
s(g1
I249
VprogressBar
p6702
tp6703
I1
s(g1
I93
Vattrs
p6704
tp6705
I1
s(g1
I223
VColorStateList
p6706
tp6707
I1
s(g1
I434
VheightMeasureSpec
p6708
tp6709
I1
s(g1
I2042
Vview
p6710
tp6711
I1
s(g1
I6160
Vindices
p6712
tp6713
I1
s(g1
I4883
Vmedium
p6714
tp6715
I1
s(g1
I388
Vview
p6716
tp6717
I1
s(g1
I6130
VnotifyDataSetChanged
p6718
tp6719
I1
s(g1
I169
VgetDialogIcon
p6720
tp6721
I1
s(g1
I1695
VresolveColor
p6722
tp6723
I1
s(g1
I1530
VpreviouslySelected
p6724
tp6725
I1
s(g1
I423
VmDialog
p6726
tp6727
I1
s(g1
I1115
Vcontent
p6728
tp6729
I1
s(g1
I339
Vfilename
p6730
tp6731
I1
s(g1
I2165
VNullable
p6732
tp6733
I1
s(g1
I149
VOverride
p6734
tp6735
I1
s(g1
I218
Vradio
p6736
tp6737
I1
s(g1
I306
Vvalue
p6738
tp6739
I1
s(g1
I1007
VsetSelector
p6740
tp6741
I1
s(g1
I1029
VhasActionButtons
p6742
tp6743
I1
s(g1
I323
VonClick
p6744
tp6745
I1
s(g1
I611
VgetTag
p6746
tp6747
I1
s(g1
I37
VRippleDrawable
p6748
tp6749
I1
s(g1
I2417
VfragmentManager
p6750
tp6751
I1
s(g1
I447
VfindViewById
p6752
tp6753
I1
s(g1
I638
VgetContext
p6754
tp6755
I1
s(g1
I154
VsetImageDrawable
p6756
tp6757
I1
s(g1
I939
VfindViewById
p6758
tp6759
I1
s(g1
I225
VgetContext
p6760
tp6761
I1
s(g1
I1392
VsetIndeterminateDrawable
p6762
tp6763
I1
s(g1
I5445
Vlength
p6764
tp6765
I1
s(g1
I508
Vadapter
p6766
tp6767
I1
s(g1
I198
Vdrawable
p6768
tp6769
I1
s(g1
I172
Vattrs
p6770
tp6771
I1
s(g1
I373
VMaterialDialog
p6772
tp6773
I1
s(g1
I18
VTypeface
p6774
tp6775
I1
s(g1
I151
VgetDeclaredField
p6776
tp6777
I1
s(g1
I575
Vdialog
p6778
tp6779
I2
s(g1
I446
ViconRes
p6780
tp6781
I1
s(g1
I4252
Vtitle
p6782
tp6783
I1
s(g1
I2293
Vmeasure
p6784
tp6785
I1
s(g1
I1368
Vshow
p6786
tp6787
I1
s(g1
I364
VonCreateDialog
p6788
tp6789
I1
s(g1
I784
VgetApplicationContext
p6790
tp6791
I1
s(g1
I401
VmDismissListener
p6792
tp6793
I1
s(g1
I955
Vi
p6794
tp6795
I1
s(g1
I4608
VCheckBox
p6796
tp6797
I1
s(g1
I1934
VpositiveButton
p6798
tp6799
I1
s(g1
I364
Vtitle
p6800
tp6801
I1
s(g1
I419
VgetColor
p6802
tp6803
I1
s(g1
I2083
VgetText
p6804
tp6805
I1
s(g1
I1086
VgetResources
p6806
tp6807
I2
s(g1
I1483
VsubLevel
p6808
tp6809
I1
s(g1
I1200
VsetTextColor
p6810
tp6811
I1
s(g1
I249
VgetIndeterminateDrawable
p6812
tp6813
I1
s(g1
I951
VpositiveText
p6814
tp6815
I1
s(g1
I426
VonDismiss
p6816
tp6817
I1
s(g1
I524
VgetPreferenceScreen
p6818
tp6819
I1
s(g1
I84
VmBuilder
p6820
tp6821
I1
s(g1
I653
VparentFolder
p6822
tp6823
I1
s(g1
I560
VnegativeText
p6824
tp6825
I1
s(g1
I2173
VgetCount
p6826
tp6827
I1
s(g1
I1577
VColor
p6828
tp6829
I1
s(g1
I3974
VgetColor
p6830
tp6831
I1
s(g1
I205
Vcheckbox
p6832
tp6833
I1
s(g1
I319
VgetTransparentRegion
p6834
tp6835
I1
s(g1
I177
VView
p6836
tp6837
I1
s(g1
I5621
VgetActionButton
p6838
tp6839
I1
s(g1
I173
Vfrom
p6840
tp6841
I1
s(g1
I334
VsetTint
p6842
tp6843
I1
s(g1
I78
VmColor
p6844
tp6845
I1
s(g1
I1517
VsetTint
p6846
tp6847
I2
s(g1
I5425
Vinput
p6848
tp6849
I1
s(g1
I700
VgetContext
p6850
tp6851
I1
s(g1
I245
VonClick
p6852
tp6853
I1
s(g1
I566
VfindViewById
p6854
tp6855
I1
s(g1
I419
VonClick
p6856
tp6857
I1
s(g1
I2901
VsetBackgroundCompat
p6858
tp6859
I1
s(g1
I240
Vmessage
p6860
tp6861
I1
s(g1
I2001
Vcolor
p6862
tp6863
I1
s(g1
I157
VSingleHorizontalProgressDrawable
p6864
tp6865
I1
s(g1
I618
Vtitle
p6866
tp6867
I1
s(g1
I4620
VcolorRes
p6868
tp6869
I1
s(g1
I6418
VinputMinMax
p6870
tp6871
I1
s(g1
I35
VContext
p6872
tp6873
I1
s(g1
I1015
VsetOnKeyListener
p6874
tp6875
I1
s(g1
I320
VsetupGravity
p6876
tp6877
I1
s(g1
I1935
VbuttonsWidth
p6878
tp6879
I1
s(g1
I245
VString
p6880
tp6881
I1
s(g1
I246
VeditText
p6882
tp6883
I1
s(g1
I5430
VmBuilder
p6884
tp6885
I1
s(g1
I489
VString
p6886
tp6887
I1
s(g1
I78
VBundle
p6888
tp6889
I1
s(g1
I1425
Vlp
p6890
tp6891
I1
s(g1
I2019
Vview
p6892
tp6893
I1
s(g1
I2004
VDialogUtils
p6894
tp6895
I1
s(g1
I1341
Vdialog
p6896
tp6897
I1
s(g1
I1006
VgetListSelector
p6898
tp6899
I2
s(g1
I271
VcolorId
p6900
tp6901
I1
s(g1
I1016
VlistView
p6902
tp6903
I2
s(g1
I1509
Vdialog
p6904
tp6905
I1
s(g1
I1927
VpositiveButton
p6906
tp6907
I1
s(g1
I6409
VinputMinMax
p6908
tp6909
I1
s(g1
I571
VgetContext
p6910
tp6911
I1
s(g1
I1828
VmBottomOnScrollChangedListener
p6912
tp6913
I1
s(g1
I286
VresolveColor
p6914
tp6915
I1
s(g1
I1850
VsetText
p6916
tp6917
I1
s(g1
I765
VfindViewById
p6918
tp6919
I1
s(g1
I3982
VlinkColorRes
p6920
tp6921
I1
s(g1
I212
Vcontext
p6922
tp6923
I2
s(g1
I401
VnegativeText
p6924
tp6925
I1
s(g1
I437
VOverride
p6926
tp6927
I1
s(g1
I541
VmProgress
p6928
tp6929
I1
s(g1
I3380
VDialogUtils
p6930
tp6931
I1
s(g1
I234
Vlevel
p6932
tp6933
I1
s(g1
I182
VLayoutInflater
p6934
tp6935
I1
s(g1
I1580
VonClick
p6936
tp6937
I1
s(g1
I244
Vsl
p6938
tp6939
I1
s(g1
I5027
VnewTitleRes
p6940
tp6941
I1
s(g1
I172
VsetPadding
p6942
tp6943
I1
s(g1
I168
Vcontext
p6944
tp6945
I1
s(g1
I120
Vicon
p6946
tp6947
I1
s(g1
I322
VshowListener
p6948
tp6949
I1
s(g1
I248
Vdrawable
p6950
tp6951
I1
s(g1
I74
VNonNull
p6952
tp6953
I1
s(g1
I1381
VsetProgressBarTint
p6954
tp6955
I1
s(g1
I354
VgetNegativeButtonText
p6956
tp6957
I1
s(g1
I3089
Vcollection
p6958
tp6959
I1
s(g1
I133
VTextView
p6960
tp6961
I1
s(g1
I150
VofFloat
p6962
tp6963
I1
s(g1
I262
VPreferenceManager
p6964
tp6965
I1
s(g1
I930
Vtitle
p6966
tp6967
I1
s(g1
I253
VDrawable
p6968
tp6969
I1
s(g1
I103
Ventries
p6970
tp6971
I1
s(g1
I5155
VmBuilder
p6972
tp6973
I1
s(g1
I112
VuseStockLayout
p6974
tp6975
I1
s(g1
I578
Vcontent
p6976
tp6977
I1
s(g1
I1967
VgetColor
p6978
tp6979
I1
s(g1
I52
VTypedArray
p6980
tp6981
I1
s(g1
I232
Vinit
p6982
tp6983
I1
s(g1
I559
VBundle
p6984
tp6985
I1
s(g1
I174
Vbuild
p6986
tp6987
I1
s(g1
I587
VautoDismiss
p6988
tp6989
I1
s(g1
I400
Vstate
p6990
tp6991
I1
s(g1
I657
VpaddingBottom
p6992
tp6993
I1
s(g1
I517
VsetIndeterminateDrawable
p6994
tp6995
I1
s(g1
I5157
VlistType
p6996
tp6997
I1
s(g1
I686
Vcontent
p6998
tp6999
I1
s(g1
I491
VparentFolder
p7000
tp7001
I1
s(g1
I310
VListView
p7002
tp7003
I1
s(g1
I1823
VaddOnScrollChangedListener
p7004
tp7005
I1
s(g1
I2352
VpositiveButton
p7006
tp7007
I2
s(g1
I262
VstateSub
p7008
tp7009
I2
s(g1
I167
VmProgressDrawable
p7010
tp7011
I1
s(g1
I101
VgetColor
p7012
tp7013
I1
s(g1
I651
Vbox
p7014
tp7015
I1
s(g1
I1796
VeightDp
p7016
tp7017
I1
s(g1
I39
VSuppressWarnings
p7018
tp7019
I1
s(g1
I640
Vcolor
p7020
tp7021
I1
s(g1
I1234
Vitem
p7022
tp7023
I1
s(g1
I959
VinvalidateActions
p7024
tp7025
I1
s(g1
I339
VlastIndexOf
p7026
tp7027
I1
s(g1
I4047
Vdismiss
p7028
tp7029
I1
s(g1
I5443
VgetText
p7030
tp7031
I1
s(g1
I368
VputString
p7032
tp7033
I1
s(g1
I345
VgetDialogMessage
p7034
tp7035
I1
s(g1
I2233
VautoDismiss
p7036
tp7037
I1
s(g1
I1691
VOverride
p7038
tp7039
I1
s(g1
I4146
VTextView
p7040
tp7041
I1
s(g1
I1104
VMaterialSimpleListAdapter
p7042
tp7043
I1
s(g1
I258
Vdrawable
p7044
tp7045
I1
s(g1
I1078
VlimitIconToDefaultSize
p7046
tp7047
I2
s(g1
I189
Vdialog
p7048
tp7049
I2
s(g1
I313
VresolveColor
p7050
tp7051
I1
s(g1
I826
VpaddingBottom
p7052
tp7053
I1
s(g1
I2077
Vbuild
p7054
tp7055
I1
s(g1
I270
Vpaint
p7056
tp7057
I1
s(g1
I263
Vradio
p7058
tp7059
I1
s(g1
I477
VsetOnShowListenerInternal
p7060
tp7061
I1
s(g1
I75
VisStarted
p7062
tp7063
I1
s(g1
I1956
VmediumFont
p7064
tp7065
I1
s(g1
I3580
VresolveColor
p7066
tp7067
I1
s(g1
I215
VNonNull
p7068
tp7069
I1
s(g1
I39
Vvoid
p7070
tp7071
I134
s(g1
I37
VOverride
p7072
tp7073
I1
s(g1
I116
VgetSuperclass
p7074
tp7075
I1
s(g1
I1863
Vdx
p7076
tp7077
I1
s(g1
I178
Vv
p7078
tp7079
I1
s(g1
I298
Vfound
p7080
tp7081
I1
s(g1
I1645
VgetTopView
p7082
tp7083
I1
s(g1
I263
VsetColor
p7084
tp7085
I1
s(g1
I3407
VcontentColor
p7086
tp7087
I2
s(g1
I39
Vboolean
p7088
tp7089
I51
s(g1
I1422
Vdialog
p7090
tp7091
I1
s(g1
I1425
VsetAttributes
p7092
tp7093
I1
s(g1
I2556
Vview
p7094
tp7095
I1
s(g1
I1548
VmSelectedCustomColor
p7096
tp7097
I1
s(g1
I2164
VfirstItemVisible
p7098
tp7099
I1
s(g1
I1414
VgetResources
p7100
tp7101
I1
s(g1
I93
VgetAttributeName
p7102
tp7103
I1
s(g1
I395
Vcontent
p7104
tp7105
I1
s(g1
I812
VOverride
p7106
tp7107
I1
s(g1
I151
VsuperCls
p7108
tp7109
I1
s(g1
I4469
Vprompt
p7110
tp7111
I1
s(g1
I327
VDialogUtils
p7112
tp7113
I1
s(g1
I159
Vholder
p7114
tp7115
I1
s(g1
I2583
VisStacked
p7116
tp7117
I1
s(g1
I862
VoldSelected
p7118
tp7119
I1
s(g1
I6819
VmHandler
p7120
tp7121
I1
s(g1
I99
VdarkTheme
p7122
tp7123
I1
s(g1
I1595
VsetHint
p7124
tp7125
I1
s(g1
I126
VfindViewById
p7126
tp7127
I1
s(g1
I834
Vposition
p7128
tp7129
I1
s(g1
I92
VOverride
p7130
tp7131
I3
s(g1
I717
Vbuild
p7132
tp7133
I1
s(g1
I1077
VresolveBoolean
p7134
tp7135
I2
s(g1
I765
VgetSelectedColor
p7136
tp7137
I1
s(g1
I1385
VsetTextColor
p7138
tp7139
I1
s(g1
I594
VDialogUtils
p7140
tp7141
I1
s(g1
I930
Vt
p7142
tp7143
I1
s(g1
I435
VindicesList
p7144
tp7145
I1
s(g1
I556
VisDialogShowing
p7146
tp7147
I1
s(g1
I1441
VwindowPadding
p7148
tp7149
I1
s(g1
I811
VadapterProvided
p7150
tp7151
I1
s(g1
I117
VContext
p7152
tp7153
I1
s(g1
I1012
Vbuild
p7154
tp7155
I1
s(g1
I327
Vindex
p7156
tp7157
I1
s(g1
I90
VdefStyleAttr
p7158
tp7159
I2
s(g1
I1796
Vview
p7160
tp7161
I1
s(g1
I2231
VActivityCompat
p7162
tp7163
I1
s(g1
I150
VSuppressLint
p7164
tp7165
I1
s(g1
I1420
Vdialog
p7166
tp7167
I1
s(g1
I367
VmInitialPath
p7168
tp7169
I1
s(g1
I257
Vselected
p7170
tp7171
I1
s(g1
I263
VDialogUtils
p7172
tp7173
I1
s(g1
I5228
Vlength
p7174
tp7175
I1
s(g1
I436
VOnClick
p7176
tp7177
I1
s(g1
I945
VsetViewInternal
p7178
tp7179
I1
s(g1
I187
Vview
p7180
tp7181
I1
s(g1
I72
Vcontext
p7182
tp7183
I1
s(g1
I83
Vcontext
p7184
tp7185
I3
s(g1
I6488
Vd
p7186
tp7187
I1
s(g1
I1301
Ve
p7188
tp7189
I1
s(g1
I1892
VmButtons
p7190
tp7191
I1
s(g1
I334
VyValues
p7192
tp7193
I1
s(g1
I4859
Vd
p7194
tp7195
I1
s(g1
I406
VaddRule
p7196
tp7197
I1
s(g1
I157
Vlayout
p7198
tp7199
I1
s(g1
I246
VHandler
p7200
tp7201
I1
s(g1
I3356
VtitleGravity
p7202
tp7203
I1
s(g1
I3056
VHtml
p7204
tp7205
I1
s(g1
I666
Vdialog
p7206
tp7207
I1
s(g1
I2126
VonMeasureScroll
p7208
tp7209
I1
s(g1
I133
VFloat
p7210
tp7211
I1
s(g1
I361
Vchild
p7212
tp7213
I1
s(g1
I4934
Vi
p7214
tp7215
I1
s(g1
I1560
VtopIndex
p7216
tp7217
I1
s(g1
I115
VViewGroup
p7218
tp7219
I1
s(g1
I239
Vdismiss
p7220
tp7221
I1
s(g1
I375
VView
p7222
tp7223
I1
s(g1
I231
Vwhich
p7224
tp7225
I1
s(g1
I1066
VresolveDimension
p7226
tp7227
I2
s(g1
I109
Vdialog
p7228
tp7229
I1
s(g1
I421
VonDismiss
p7230
tp7231
I1
s(g1
I1117
Vcon
p7232
tp7233
I1
s(g1
I79
VexpandSpec
p7234
tp7235
I1
s(g1
I1360
VfragmentActivity
p7236
tp7237
I1
s(g1
I358
VMethod
p7238
tp7239
I1
s(g1
I314
VgetClass
p7240
tp7241
I1
s(g1
I165
VContext
p7242
tp7243
I1
s(g1
I141
Vcallback
p7244
tp7245
I1
s(g1
I1403
VTextView
p7246
tp7247
I1
s(g1
I433
Vpm
p7248
tp7249
I1
s(g1
I5100
Vinput
p7250
tp7251
I1
s(g1
I940
Vt
p7252
tp7253
I1
s(g1
I592
Vdialog
p7254
tp7255
I1
s(g1
I1536
VDialogUtils
p7256
tp7257
I1
s(g1
I4333
Vdialog
p7258
tp7259
I1
s(g1
I1563
Vindex
p7260
tp7261
I1
s(g1
I51
Vview
p7262
tp7263
I1
s(g1
I1510
VDialogUtils
p7264
tp7265
I1
s(g1
I732
VonDismiss
p7266
tp7267
I1
s(g1
I157
VButtonVH
p7268
tp7269
I1
s(g1
I1803
VmaxWindowFrame
p7270
tp7271
I2
s(g1
I43
Vcontext
p7272
tp7273
I1
s(g1
I122
Vfallback
p7274
tp7275
I1
s(g1
I258
Vd
p7276
tp7277
I1
s(g1
I3376
VwrapInScrollView
p7278
tp7279
I1
s(g1
I3417
VBuilder
p7280
tp7281
I2
s(g1
I373
VselectedColor
p7282
tp7283
I1
s(g1
I150
VsetProgressTintList
p7284
tp7285
I1
s(g1
I273
Vpm
p7286
tp7287
I1
s(g1
I1507
VinvertGravityIfNecessary
p7288
tp7289
I1
s(g1
I4611
VCharSequence
p7290
tp7291
I1
s(g1
I2323
VtextAllCaps
p7292
tp7293
I1
s(g1
I859
Vtext
p7294
tp7295
I1
s(g1
I208
VFrameLayout
p7296
tp7297
I1
s(g1
I6022
VmaxIconSize
p7298
tp7299
I2
s(g1
I808
Vi
p7300
tp7301
I2
s(g1
I523
VsetBackgroundDrawable
p7302
tp7303
I1
s(g1
I284
VseekBar
p7304
tp7305
I1
s(g1
I764
VisVisible
p7306
tp7307
I1
s(g1
I1209
VinflateItem
p7308
tp7309
I1
s(g1
I1056
VgetListSelector
p7310
tp7311
I1
s(g1
I1999
VmColorsTop
p7312
tp7313
I1
s(g1
I484
Vtitle
p7314
tp7315
I1
s(g1
I1020
VlistView
p7316
tp7317
I1
s(g1
I198
Vview
p7318
tp7319
I1
s(g1
I176
VContext
p7320
tp7321
I1
s(g1
I933
VasList
p7322
tp7323
I1
s(g1
I6809
Vby
p7324
tp7325
I1
s(g1
I5622
VpositiveAb
p7326
tp7327
I1
s(g1
I198
Vindices
p7328
tp7329
I1
s(g1
I1566
VmCustomSeekA
p7330
tp7331
I1
s(g1
I294
Vext
p7332
tp7333
I1
s(g1
I2235
VFullCallback
p7334
tp7335
I1
s(g1
I1395
Vtitle
p7336
tp7337
I1
s(g1
I2901
VnegativeButton
p7338
tp7339
I1
s(g1
I849
Vdialog
p7340
tp7341
I1
s(g1
I772
VonClick
p7342
tp7343
I1
s(g1
I453
VMDButton
p7344
tp7345
I1
s(g1
I486
VpreferenceScreen
p7346
tp7347
I1
s(g1
I882
Vrb
p7348
tp7349
I1
s(g1
I1765
VsetVerticalMargins
p7350
tp7351
I1
s(g1
I1908
Vmeasure
p7352
tp7353
I1
s(g1
I127
VverifyDrawable
p7354
tp7355
I2
s(g1
I70
VmEditText
p7356
tp7357
I1
s(g1
I1171
VfindViewById
p7358
tp7359
I1
s(g1
I193
Vcontext
p7360
tp7361
I1
s(g1
I491
VmShowListener
p7362
tp7363
I1
s(g1
I687
VitemView
p7364
tp7365
I1
s(g1
I1868
VhasButtons
p7366
tp7367
I1
s(g1
I147
VSuppressLint
p7368
tp7369
I1
s(g1
I2846
Vdialog
p7370
tp7371
I1
s(g1
I3979
VlinkColor
p7372
tp7373
I1
s(g1
I354
VgetPreferenceManager
p7374
tp7375
I1
s(g1
I411
Vcontent
p7376
tp7377
I1
s(g1
I1676
VColorChooserDialog
p7378
tp7379
I1
s(g1
I594
Vinvalidate
p7380
tp7381
I1
s(g1
I4792
Vresource
p7382
tp7383
I1
s(g1
I2357
VpositiveButton
p7384
tp7385
I1
s(g1
I779
VResources
p7386
tp7387
I1
s(g1
I4230
Vtitle
p7388
tp7389
I1
s(g1
I841
VColor
p7390
tp7391
I1
s(g1
I3033
Vhtml
p7392
tp7393
I1
s(g1
I4224
Vtitle
p7394
tp7395
I1
s(g1
I1472
VArrayRes
p7396
tp7397
I1
s(g1
I573
VsetText
p7398
tp7399
I1
s(g1
I5024
VStringRes
p7400
tp7401
I1
s(g1
I733
VMainActivity
p7402
tp7403
I1
s(g1
I382
VOnClick
p7404
tp7405
I1
s(g1
I1016
Vadd
p7406
tp7407
I1
s(g1
I1419
Vshow
p7408
tp7409
I1
s(g1
I432
VfindViewById
p7410
tp7411
I1
s(g1
I451
VMethod
p7412
tp7413
I1
s(g1
I1477
VNullable
p7414
tp7415
I1
s(g1
I316
VcolorRes
p7416
tp7417
I1
s(g1
I63
Vlm
p7418
tp7419
I1
s(g1
I3404
Vcolor
p7420
tp7421
I2
s(g1
I825
VgetDimensionPixelSize
p7422
tp7423
I1
s(g1
I1510
VadjustAlpha
p7424
tp7425
I2
s(g1
I152
VsetId
p7426
tp7427
I1
s(g1
I406
Vwindow
p7428
tp7429
I1
s(g1
I1218
Vinflate
p7430
tp7431
I1
s(g1
I761
VallowSelection
p7432
tp7433
I1
s(g1
I753
Vsource
p7434
tp7435
I1
s(g1
I161
Vcontext
p7436
tp7437
I1
s(g1
I616
VSavedState
p7438
tp7439
I1
s(g1
I980
VcustomFrame
p7440
tp7441
I1
s(g1
I285
Vmethod
p7442
tp7443
I1
s(g1
I1611
VColor
p7444
tp7445
I1
s(g1
I4615
Vview
p7446
tp7447
I1
s(g1
I1806
VgetWindow
p7448
tp7449
I2
s(g1
I3427
VneutralColorRes
p7450
tp7451
I1
s(g1
I521
VparentFolder
p7452
tp7453
I1
s(g1
I1565
Vs
p7454
tp7455
I1
s(g1
I302
VoutState
p7456
tp7457
I1
s(g1
I3957
Vcolor
p7458
tp7459
I1
s(g1
I1959
Vview
p7460
tp7461
I1
s(g1
I210
VdefStyleAttr
p7462
tp7463
I1
s(g1
I4063
Vbuild
p7464
tp7465
I1
s(g1
I229
VonClick
p7466
tp7467
I1
s(g1
I385
Vpm
p7468
tp7469
I1
s(g1
I1591
VonColorSelection
p7470
tp7471
I1
s(g1
I188
VwebView
p7472
tp7473
I1
s(g1
I42
Vd
p7474
tp7475
I1
s(g1
I2053
VRecyclerUtil
p7476
tp7477
I1
s(g1
I715
Vcontent
p7478
tp7479
I1
s(g1
I307
VgetOpacity
p7480
tp7481
I1
s(g1
I1542
VsetupInputDialog
p7482
tp7483
I1
s(g1
I945
Vtitle
p7484
tp7485
I2
s(g1
I1024
VsetPadding
p7486
tp7487
I2
s(g1
I1580
Vview
p7488
tp7489
I1
s(g1
I98
Vcolor
p7490
tp7491
I2
s(g1
I1563
VgetText
p7492
tp7493
I1
s(g1
I154
VmBuilder
p7494
tp7495
I1
s(g1
I1383
Vfrag
p7496
tp7497
I1
s(g1
I2047
VforName
p7498
tp7499
I1
s(g1
I249
Vstate
p7500
tp7501
I2
s(g1
I127
VgetColor
p7502
tp7503
I1
s(g1
I4330
VMaterialDialog
p7504
tp7505
I1
s(g1
I226
VfindViewById
p7506
tp7507
I1
s(g1
I762
VchooseButton
p7508
tp7509
I1
s(g1
I3439
VCharSequence
p7510
tp7511
I1
s(g1
I755
Vposition
p7512
tp7513
I1
s(g1
I997
Vdialog
p7514
tp7515
I1
s(g1
I3362
VcontentGravity
p7516
tp7517
I1
s(g1
I25
VBundle
p7518
tp7519
I1
s(g1
I63
Vview
p7520
tp7521
I1
s(g1
I1439
VapplyDimension
p7522
tp7523
I1
s(g1
I1119
VsetPadding
p7524
tp7525
I1
s(g1
I78
Vcache
p7526
tp7527
I1
s(g1
I235
VonClick
p7528
tp7529
I1
s(g1
I5525
VsetText
p7530
tp7531
I1
s(g1
I434
Vchild
p7532
tp7533
I1
s(g1
I145
VstateList
p7534
tp7535
I1
s(g1
I578
VresolveColor
p7536
tp7537
I1
s(g1
I4260
VNEGATIVE
p7538
tp7539
I1
s(g1
I599
VinvalidateCustomViewAssociations
p7540
tp7541
I1
s(g1
I1023
Vcontent
p7542
tp7543
I1
s(g1
I122
Vcontext
p7544
tp7545
I2
s(g1
I1158
VcustomFrame
p7546
tp7547
I1
s(g1
I392
VContext
p7548
tp7549
I1
s(g1
I3353
VCharSequence
p7550
tp7551
I1
s(g1
I137
Va
p7552
tp7553
I1
s(g1
I770
VonClick
p7554
tp7555
I1
s(g1
I508
VDrawable
p7556
tp7557
I1
s(g1
I956
VNoSuchFieldException
p7558
tp7559
I1
s(g1
I765
Vview
p7560
tp7561
I1
s(g1
I1417
VgetDimensionPixelSize
p7562
tp7563
I1
s(g1
I224
Vs1
p7564
tp7565
I1
s(g1
I250
VresolveColor
p7566
tp7567
I1
s(g1
I50
VBundle
p7568
tp7569
I1
s(g1
I147
VObjectAnimator
p7570
tp7571
I1
s(g1
I4917
VInteger
p7572
tp7573
I1
s(g1
I1828
VonScrollChangedListener
p7574
tp7575
I1
s(g1
I54
VsetContentView
p7576
tp7577
I1
s(g1
I303
VsetTypeface
p7578
tp7579
I1
s(g1
I423
VselectedIndex
p7580
tp7581
I1
s(g1
I292
VonPreparePaint
p7582
tp7583
I1
s(g1
I377
VmShowListener
p7584
tp7585
I1
s(g1
I3406
VBuilder
p7586
tp7587
I1
s(g1
I2569
VaddRule
p7588
tp7589
I1
s(g1
I792
Vicon
p7590
tp7591
I1
s(g1
I277
VmBuilder
p7592
tp7593
I1
s(g1
I2177
VviewGroup
p7594
tp7595
I1
s(g1
I702
VgetAbsolutePath
p7596
tp7597
I1
s(g1
I106
Ventries
p7598
tp7599
I1
s(g1
I936
Vtitle
p7600
tp7601
I1
s(g1
I1238
Vshow
p7602
tp7603
I1
s(g1
I317
VxValues
p7604
tp7605
I1
s(g1
I375
VgetArguments
p7606
tp7607
I1
s(g1
I826
VselectedIndicesArr
p7608
tp7609
I2
s(g1
I2926
VsetTextAlignment
p7610
tp7611
I1
s(g1
I416
Vdialog
p7612
tp7613
I1
s(g1
I3370
VDialogUtils
p7614
tp7615
I1
s(g1
I1709
VDialogInit
p7616
tp7617
I1
s(g1
I131
VeditText
p7618
tp7619
I1
s(g1
I3097
VString
p7620
tp7621
I1
s(g1
I2372
VfindViewById
p7622
tp7623
I1
s(g1
I1780
VgetResources
p7624
tp7625
I2
s(g1
I45
VContext
p7626
tp7627
I1
s(g1
I938
Vcolor
p7628
tp7629
I1
s(g1
I853
VBuilder
p7630
tp7631
I1
s(g1
I346
Vcontent
p7632
tp7633
I1
s(g1
I808
VselectedIndices
p7634
tp7635
I2
s(g1
I175
VView
p7636
tp7637
I1
s(g1
I621
Vcontent
p7638
tp7639
I1
s(g1
I174
Vdialog
p7640
tp7641
I1
s(g1
I70
g1404
tp7642
I13
s(g1
I2588
VshowFolderChooser
p7643
tp7644
I1
s(g1
I434
VasList
p7645
tp7646
I1
s(g1
I1665
Vpreselect
p7647
tp7648
I1
s(g1
I804
Vi
p7649
tp7650
I2
s(g1
I90
VgetTheme
p7651
tp7652
I1
s(g1
I4038
VInputCallback
p7653
tp7654
I1
s(g1
I6280
VIllegalStateException
p7655
tp7656
I1
s(g1
I45
Vdialog
p7657
tp7658
I1
s(g1
I156
Vic
p7659
tp7660
I1
s(g1
I267
VDrawableCompat
p7661
tp7662
I1
s(g1
I30
Vcontext
p7663
tp7664
I1
s(g1
I167
Vdialog
p7665
tp7666
I1
s(g1
I203
VmEditText
p7667
tp7668
I1
s(g1
I5247
VBuilder
p7669
tp7670
I1
s(g1
I80
VAttributeSet
p7671
tp7672
I1
s(g1
I843
VEditText
p7673
tp7674
I1
s(g1
I1368
VsetProgressDrawable
p7675
tp7676
I1
s(g1
I457
VfindViewById
p7677
tp7678
I1
s(g1
I565
Vcolor
p7679
tp7680
I1
s(g1
I672
Vi
p7681
tp7682
I1
s(g1
I146
Vitem
p7683
tp7684
I1
s(g1
I1996
Vposition
p7685
tp7686
I1
s(g1
I349
VDialogUtils
p7687
tp7688
I1
s(g1
I640
VDialogUtils
p7689
tp7690
I1
s(g1
I160
Vbuilder
p7691
tp7692
I1
s(g1
I243
VGradientDrawable
p7693
tp7694
I1
s(g1
I241
VsetBackgroundColor
p7695
tp7696
I1
s(g1
I949
Vdialog
p7697
tp7698
I1
s(g1
I284
Vext
p7699
tp7700
I1
s(g1
I173
Vindices
p7701
tp7702
I1
s(g1
I1146
VinnerView
p7703
tp7704
I1
s(g1
I325
Vprogress
p7705
tp7706
I1
s(g1
I532
Vtext
p7707
tp7708
I1
s(g1
I282
VSeekBar
p7709
tp7710
I1
s(g1
I87
VBuilder
p7711
tp7712
I1
s(g1
I1683
VpositiveText
p7713
tp7714
I1
s(g1
I62
VonOptionsItemSelected
p7715
tp7716
I1
s(g1
I1082
VlimitIconToDefaultSize
p7717
tp7718
I2
s(g1
I558
Vbuild
p7719
tp7720
I1
s(g1
I83
Vpublic
p7721
tp7722
I163
s(g1
I575
VsetTypeface
p7723
tp7724
I1
s(g1
I4309
VOnCancelListener
p7725
tp7726
I1
s(g1
I1203
VNonNull
p7727
tp7728
I1
s(g1
I585
Vdialog
p7729
tp7730
I1
s(g1
I4599
Vradio
p7731
tp7732
I1
s(g1
I1527
Vremove
p7733
tp7734
I1
s(g1
I172
VviewType
p7735
tp7736
I1
s(g1
I3975
VtitleColor
p7737
tp7738
I1
s(g1
I517
VLinearLayoutManager
p7739
tp7740
I1
s(g1
I368
Vcontent
p7741
tp7742
I1
s(g1
I233
VonCreate
p7743
tp7744
I1
s(g1
I275
Vvalue
p7745
tp7746
I1
s(g1
I837
VparseColor
p7747
tp7748
I1
s(g1
I1496
VfindViewById
p7749
tp7750
I1
s(g1
I194
VNonNull
p7751
tp7752
I1
s(g1
I149
VfindIndexOfValue
p7753
tp7754
I1
s(g1
I456
VonClick
p7755
tp7756
I1
s(g1
I101
Va
p7757
tp7758
I1
s(g1
I3355
Vmessage
p7759
tp7760
I1
s(g1
I487
Vcontent
p7761
tp7762
I1
s(g1
I491
VgetParentFile
p7763
tp7764
I1
s(g1
I2362
VsetOnClickListener
p7765
tp7766
I1
s(g1
I783
VmContext
p7767
tp7768
I1
s(g1
I1798
VRect
p7769
tp7770
I2
s(g1
I1664
VpositiveColor
p7771
tp7772
I1
s(g1
I315
VRegion
p7773
tp7774
I1
s(g1
I187
VdefaultGravity
p7775
tp7776
I1
s(g1
I170
VremoveView
p7777
tp7778
I1
s(g1
I790
VView
p7779
tp7780
I1
s(g1
I1123
VgetResources
p7781
tp7782
I1
s(g1
I151
VsetColorFilter
p7783
tp7784
I1
s(g1
I1388
VsetProgress
p7785
tp7786
I1
s(g1
I4962
Vtypeface
p7787
tp7788
I1
s(g1
I1373
Vd
p7789
tp7790
I1
s(g1
I665
VpositiveText
p7791
tp7792
I1
s(g1
I1024
Vdialog
p7793
tp7794
I1
s(g1
I210
Vcheckbox
p7795
tp7796
I1
s(g1
I368
Vdialog
p7797
tp7798
I1
s(g1
I121
VgetValues
p7799
tp7800
I1
s(g1
I374
VsetAccessible
p7801
tp7802
I1
s(g1
I1500
Vdialog
p7803
tp7804
I1
s(g1
I130
VTextView
p7805
tp7806
I1
s(g1
I886
Vi
p7807
tp7808
I1
s(g1
I5161
VOverride
p7809
tp7810
I1
s(g1
I611
VView
p7811
tp7812
I1
s(g1
I247
VT
p7813
tp7814
I1
s(g1
I3357
Vcontext
p7815
tp7816
I1
s(g1
I662
Vsv
p7817
tp7818
I1
s(g1
I239
Vsl
p7819
tp7820
I1
s(g1
I1393
VsetMax
p7821
tp7822
I1
s(g1
I839
Vsv
p7823
tp7824
I1
s(g1
I676
Vdrawable
p7825
tp7826
I1
s(g1
I511
Vi
p7827
tp7828
I1
s(g1
I950
VsetOnKeyListener
p7829
tp7830
I1
s(g1
I531
VregDraw
p7831
tp7832
I1
s(g1
I1480
VMaterialDialog
p7833
tp7834
I1
s(g1
I4383
VerrorColor
p7835
tp7836
I1
s(g1
I749
VNonNull
p7837
tp7838
I1
s(g1
I1604
VsetTextColor
p7839
tp7840
I1
s(g1
I4405
Vcontext
p7841
tp7842
I1
s(g1
I1602
VColor
p7843
tp7844
I1
s(g1
I2067
VisRecyclerView
p7845
tp7846
I1
s(g1
I7136
VmProgressMinMax
p7847
tp7848
I1
s(g1
I1275
Vdismiss
p7849
tp7850
I1
s(g1
I66
VwidthMeasureSpec
p7851
tp7852
I1
s(g1
I1426
Vdialog
p7853
tp7854
I1
s(g1
I3964
VBuilder
p7855
tp7856
I1
s(g1
I703
Vfallback
p7857
tp7858
I1
s(g1
I173
VGravityEnum
p7859
tp7860
I1
s(g1
I1292
Vs
p7861
tp7862
I1
s(g1
I1574
VgetDimensionPixelSize
p7863
tp7864
I1
s(g1
I3406
VcustomView
p7865
tp7866
I1
s(g1
I40
VOverride
p7867
tp7868
I1
s(g1
I273
VgetEntryValues
p7869
tp7870
I1
s(g1
I4602
VsetText
p7871
tp7872
I1
s(g1
I4236
VMaterialDialog
p7873
tp7874
I1
s(g1
I2034
VRecyclerView
p7875
tp7876
I1
s(g1
I300
VresolveColor
p7877
tp7878
I1
s(g1
I1018
Vview
p7879
tp7880
I2
s(g1
I5666
VfindViewById
p7881
tp7882
I1
s(g1
I1170
Vrhs
p7883
tp7884
I1
s(g1
I106
Vwho
p7885
tp7886
I2
s(g1
I172
VmBuilder
p7887
tp7888
I1
s(g1
I938
VsetColorFilter
p7889
tp7890
I1
s(g1
I71
Vglm
p7891
tp7892
I1
s(g1
I1848
VmCustomSeekA
p7893
tp7894
I1
s(g1
I610
Vdialog
p7895
tp7896
I1
s(g1
I64
VView
p7897
tp7898
I1
s(g1
I440
VMeasureSpec
p7899
tp7900
I1
s(g1
I110
VLayoutRes
p7901
tp7902
I1
s(g1
I252
Vvalues
p7903
tp7904
I1
s(g1
I68
Vattrs
p7905
tp7906
I1
s(g1
I1435
VString
p7907
tp7908
I1
s(g1
I1092
VgetLayoutForType
p7909
tp7910
I1
s(g1
I2161
Vlv
p7911
tp7912
I1
s(g1
I126
VgetView
p7913
tp7914
I1
s(g1
I5841
Vindices
p7915
tp7916
I1
s(g1
I2900
VgetButtonSelector
p7917
tp7918
I1
s(g1
I1873
Vbutton
p7919
tp7920
I1
s(g1
I392
Vtitle
p7921
tp7922
I1
s(g1
I77
VlastVisible
p7923
tp7924
I1
s(g1
I245
Vdialog
p7925
tp7926
I1
s(g1
I622
VNonNull
p7927
tp7928
I1
s(g1
I952
Vset
p7929
tp7930
I1
s(g1
I1024
VlistView
p7931
tp7932
I2
s(g1
I743
VString
p7933
tp7934
I1
s(g1
I136
Vcolor
p7935
tp7936
I1
s(g1
I349
VsetTintList
p7937
tp7938
I1
s(g1
I734
VfEditor
p7939
tp7940
I1
s(g1
I3030
VcontentRes
p7941
tp7942
I1
s(g1
I4617
Vcheckbox
p7943
tp7944
I1
s(g1
I834
Vv
p7945
tp7946
I1
s(g1
I1585
VView
p7947
tp7948
I1
s(g1
I230
VsavedInstanceState
p7949
tp7950
I1
s(g1
I238
Vlayout
p7951
tp7952
I1
s(g1
I3078
Vicon
p7953
tp7954
I1
s(g1
I160
VException
p7955
tp7956
I1
s(g1
I175
VDialogUtils
p7957
tp7958
I1
s(g1
I228
VmBuilder
p7959
tp7960
I1
s(g1
I5599
Vlength
p7961
tp7962
I1
s(g1
I1953
VlastItemVisible
p7963
tp7964
I1
s(g1
I3095
VStringRes
p7965
tp7966
I1
s(g1
I1162
VFile
p7967
tp7968
I1
s(g1
I1796
VdialogWidth
p7969
tp7970
I1
s(g1
I245
Vstate
p7971
tp7972
I2
s(g1
I5253
VcolorRes
p7973
tp7974
I1
s(g1
I1580
VonTextChanged
p7975
tp7976
I1
s(g1
I264
Vattr
p7977
tp7978
I2
s(g1
I1737
VfindViewById
p7979
tp7980
I2
s(g1
I67
VDialog
p7981
tp7982
I1
s(g1
I281
VonClick
p7983
tp7984
I1
s(g1
I1551
VCharSequence
p7985
tp7986
I2
s(g1
I1758
VViewGroup
p7987
tp7988
I1
s(g1
I2619
VaddRule
p7989
tp7990
I1
s(g1
I5111
Vlength
p7991
tp7992
I1
s(g1
I2216
Vlm
p7993
tp7994
I1
s(g1
I6125
VMaterialDialogAdapter
p7995
tp7996
I1
s(g1
I399
Vmethod
p7997
tp7998
I1
s(g1
I41
g1404
tp7999
I135
s(g1
I88
VAboutDialog
p8000
tp8001
I1
s(g1
I3574
VprogressColor
p8002
tp8003
I1
s(g1
I1122
Vdialog
p8004
tp8005
I1
s(g1
I2206
VNEGATIVE
p8006
tp8007
I1
s(g1
I1386
VMDTintHelper
p8008
tp8009
I1
s(g1
I127
Vindicies
p8010
tp8011
I1
s(g1
I1072
VasList
p8012
tp8013
I1
s(g1
I303
VseekBar
p8014
tp8015
I1
s(g1
I225
VsavedInstanceState
p8016
tp8017
I1
s(g1
I1553
Vs
p8018
tp8019
I2
s(g1
I3580
VmaterialBlue
p8020
tp8021
I1
s(g1
I523
VView
p8022
tp8023
I1
s(g1
I5250
Vinput
p8024
tp8025
I1
s(g1
I771
VListView
p8026
tp8027
I1
s(g1
I4625
VsetChecked
p8028
tp8029
I1
s(g1
I1863
VonScrolled
p8030
tp8031
I1
s(g1
I3102
VString
p8032
tp8033
I1
s(g1
I7140
VLocale
p8034
tp8035
I1
s(g1
I2563
Vparams
p8036
tp8037
I1
s(g1
I162
VgetIconPadding
p8038
tp8039
I1
s(g1
I4903
VMaterialDialog
p8040
tp8041
I1
s(g1
I685
VsetChecked
p8042
tp8043
I1
s(g1
I5493
VRunnable
p8044
tp8045
I1
s(g1
I954
VresolveColor
p8046
tp8047
I1
s(g1
I2399
Vi
p8048
tp8049
I1
s(g1
I326
VbackgroundColorRes
p8050
tp8051
I1
s(g1
I694
VtitleFrame
p8052
tp8053
I1
s(g1
I251
VmAlpha
p8054
tp8055
I1
s(g1
I2015
VDialogUtils
p8056
tp8057
I1
s(g1
I3175
VHtml
p8058
tp8059
I1
s(g1
I2373
VneutralButton
p8060
tp8061
I1
s(g1
I56
Vattrs
p8062
tp8063
I1
s(g1
I587
VsetText
p8064
tp8065
I1
s(g1
I3355
VidsArray
p8066
tp8067
I1
s(g1
I354
VsetProgressDrawable
p8068
tp8069
I1
s(g1
I281
VObjectAnimatorCompatLollipop
p8070
tp8071
I1
s(g1
I1476
VwindowWidth
p8072
tp8073
I1
s(g1
I193
VonPositive
p8074
tp8075
I1
s(g1
I1475
VtopLevel
p8076
tp8077
I1
s(g1
I91
Vicon
p8078
tp8079
I1
s(g1
I571
Vdialog
p8080
tp8081
I1
s(g1
I6794
VsetItems
p8082
tp8083
I1
s(g1
I498
VDialogInterface
p8084
tp8085
I1
s(g1
I7145
VsetText
p8086
tp8087
I1
s(g1
I6418
VsetText
p8088
tp8089
I1
s(g1
I147
VsetText
p8090
tp8091
I1
s(g1
I23
VPreference
p8092
tp8093
I1
s(g1
I4375
VBuilder
p8094
tp8095
I1
s(g1
I988
VcustomFrame
p8096
tp8097
I1
s(g1
I998
VmContext
p8098
tp8099
I1
s(g1
I152
VcustomView
p8100
tp8101
I1
s(g1
I776
VfullPadding
p8102
tp8103
I1
s(g1
I358
VgetEntries
p8104
tp8105
I1
s(g1
I160
Vview
p8106
tp8107
I1
s(g1
I1469
VBuilder
p8108
tp8109
I1
s(g1
I76
VBundle
p8110
tp8111
I1
s(g1
I303
VgetTheme
p8112
tp8113
I1
s(g1
I1583
Vs
p8114
tp8115
I1
s(g1
I3083
VDialogUtils
p8116
tp8117
I1
s(g1
I463
VMDButton
p8118
tp8119
I1
s(g1
I207
Vattrs
p8120
tp8121
I1
s(g1
I1332
VcheckIfListInitScroll
p8122
tp8123
I1
s(g1
I1012
Vlist
p8124
tp8125
I1
s(g1
I223
VTargetApi
p8126
tp8127
I1
s(g1
I88
VMaterialDialog
p8128
tp8129
I1
s(g1
I2016
Vcontext
p8130
tp8131
I1
s(g1
I5235
VgetText
p8132
tp8133
I1
s(g1
I825
VtoArray
p8134
tp8135
I2
s(g1
I83
Vstate
p8136
tp8137
I1
s(g1
I34
VaddPreferencesFromResource
p8138
tp8139
I1
s(g1
I930
VtextAllCaps
p8140
tp8141
I1
s(g1
I201
VcubicTo
p8142
tp8143
I1
s(g1
I1465
VsetupProgressDialog
p8144
tp8145
I1
s(g1
I54
Vsource
p8146
tp8147
I1
s(g1
I273
Vcontext
p8148
tp8149
I2
s(g1
I4092
VString
p8150
tp8151
I1
s(g1
I253
VmEditText
p8152
tp8153
I1
s(g1
I389
Vparams
p8154
tp8155
I1
s(g1
I1796
VfindViewById
p8156
tp8157
I1
s(g1
I406
Vparams
p8158
tp8159
I1
s(g1
I68
VGridLayoutManager
p8160
tp8161
I1
s(g1
I1934
VgetMeasuredWidth
p8162
tp8163
I1
s(g1
I2207
VLinearLayout
p8164
tp8165
I1
s(g1
I1397
VTextView
p8166
tp8167
I1
s(g1
I267
VyProperty
p8168
tp8169
I1
s(g1
I117
Vi
p8170
tp8171
I1
s(g1
I32
VaddPreferencesFromResource
p8172
tp8173
I1
s(g1
I248
VPaint
p8174
tp8175
I1
s(g1
I1363
VsetTint
p8176
tp8177
I1
s(g1
I326
Vmethod
p8178
tp8179
I1
s(g1
I259
VDialogUtils
p8180
tp8181
I1
s(g1
I165
VgetParent
p8182
tp8183
I1
s(g1
I257
VObjectAnimatorCompat
p8184
tp8185
I1
s(g1
I4278
VBuilder
p8186
tp8187
I1
s(g1
I3155
VformatArgs
p8188
tp8189
I1
s(g1
I57
VlastVisible
p8190
tp8191
I1
s(g1
I38
Vd
p8192
tp8193
I1
s(g1
I250
Vbuilder
p8194
tp8195
I1
s(g1
I4838
ValwaysCallInputCallback
p8196
tp8197
I1
s(g1
I156
Vdialog
p8198
tp8199
I1
s(g1
I341
VcontentColorFallback
p8200
tp8201
I1
s(g1
I1347
Vdialog
p8202
tp8203
I1
s(g1
I365
VMyDialog
p8204
tp8205
I1
s(g1
I160
VgetIconPadding
p8206
tp8207
I1
s(g1
I330
VmDrawable
p8208
tp8209
I1
s(g1
I758
VfullPadding
p8210
tp8211
I1
s(g1
I735
Veditor
p8212
tp8213
I1
s(g1
I2068
VNonNull
p8214
tp8215
I1
s(g1
I1034
VlistView
p8216
tp8217
I1
s(g1
I839
VsetClipToPadding
p8218
tp8219
I1
s(g1
I300
VmBackgroundColor
p8220
tp8221
I1
s(g1
I469
VonDismiss
p8222
tp8223
I1
s(g1
I1389
VView
p8224
tp8225
I1
s(g1
I1583
VTextView
p8226
tp8227
I1
s(g1
I143
VException
p8228
tp8229
I1
s(g1
I328
VyValues
p8230
tp8231
I1
s(g1
I258
VscaleXAnimator
p8232
tp8233
I1
s(g1
I4265
Vcolor
p8234
tp8235
I1
s(g1
I2008
VneutralColor
p8236
tp8237
I1
s(g1
I2083
Vdialog
p8238
tp8239
I1
s(g1
I599
Vtext
p8240
tp8241
I1
s(g1
I1231
Vtv
p8242
tp8243
I1
s(g1
I222
VTypedArray
p8244
tp8245
I1
s(g1
I30
VTypeface
p8246
tp8247
I1
s(g1
I474
VColor
p8248
tp8249
I1
s(g1
I3082
VBuilder
p8250
tp8251
I1
s(g1
I7125
Vpercentage
p8252
tp8253
I1
s(g1
I775
Vview
p8254
tp8255
I2
s(g1
I3383
Vcontext
p8256
tp8257
I1
s(g1
I585
VregularFont
p8258
tp8259
I1
s(g1
I895
VscreenPos
p8260
tp8261
I1
s(g1
I1737
Vview
p8262
tp8263
I2
s(g1
I824
VmThread
p8264
tp8265
I1
s(g1
I42
VCharSequence
p8266
tp8267
I1
s(g1
I1322
Vi
p8268
tp8269
I1
s(g1
I187
VgetTitle
p8270
tp8271
I1
s(g1
I1440
VtoString
p8272
tp8273
I1
s(g1
I989
VfindViewById
p8274
tp8275
I1
s(g1
I509
VinflateFromResource
p8276
tp8277
I1
s(g1
I1103
VMaterialDialogAdapter
p8278
tp8279
I1
s(g1
I166
VView
p8280
tp8281
I1
s(g1
I5148
VMaterialDialogAdapter
p8282
tp8283
I1
s(g1
I5345
Vinput
p8284
tp8285
I1
s(g1
I62
VContext
p8286
tp8287
I1
s(g1
I143
VmSecondaryAlpha
p8288
tp8289
I1
s(g1
I232
VsetBackgroundTintList
p8290
tp8291
I1
s(g1
I517
Vview
p8292
tp8293
I1
s(g1
I156
VNonNull
p8294
tp8295
I1
s(g1
I97
Vdialog
p8296
tp8297
I1
s(g1
I726
VsetAccessible
p8298
tp8299
I1
s(g1
I610
VgravityEnumToGravity
p8300
tp8301
I1
s(g1
I318
Vtint
p8302
tp8303
I1
s(g1
I35
VsavedInstanceState
p8304
tp8305
I1
s(g1
I1266
VsetOnShowListenerInternal
p8306
tp8307
I1
s(g1
I1500
VgetWindow
p8308
tp8309
I1
s(g1
I606
Vcontent
p8310
tp8311
I1
s(g1
I238
VeditText
p8312
tp8313
I1
s(g1
I175
VresolveColor
p8314
tp8315
I1
s(g1
I2252
VString
p8316
tp8317
I1
s(g1
I361
Vselector
p8318
tp8319
I1
s(g1
I173
VonStop
p8320
tp8321
I1
s(g1
I497
VpostBindPreferences
p8322
tp8323
I1
s(g1
I1346
VMaterialDialog
p8324
tp8325
I1
s(g1
I5434
Vinput
p8326
tp8327
I1
s(g1
I757
VDialogAction
p8328
tp8329
I1
s(g1
I1669
VcustomColors
p8330
tp8331
I1
s(g1
I1102
VfindViewById
p8332
tp8333
I1
s(g1
I528
VsetBackgroundCompat
p8334
tp8335
I1
s(g1
I188
Vdrawable
p8336
tp8337
I1
s(g1
I1537
Ve
p8338
tp8339
I1
s(g1
I448
VlimitIconToDefaultSize
p8340
tp8341
I1
s(g1
I519
VgetContext
p8342
tp8343
I1
s(g1
I355
Vpm
p8344
tp8345
I1
s(g1
I4602
Vcontent
p8346
tp8347
I1
s(g1
I1336
VProgressBar
p8348
tp8349
I1
s(g1
I116
Vwho
p8350
tp8351
I2
s(g1
I871
VSuppressLint
p8352
tp8353
I1
s(g1
I345
VdotPos
p8354
tp8355
I1
s(g1
I568
Vsource
p8356
tp8357
I2
s(g1
I501
VcanGoUp
p8358
tp8359
I1
s(g1
I268
Vi
p8360
tp8361
I1
s(g1
I3286
Vicon
p8362
tp8363
I1
s(g1
I286
Vindex
p8364
tp8365
I1
s(g1
I250
Vwhich
p8366
tp8367
I1
s(g1
I232
VgetContext
p8368
tp8369
I1
s(g1
I952
VsetStackedSelector
p8370
tp8371
I1
s(g1
I5525
VmProgressLabel
p8372
tp8373
I1
s(g1
I121
Vwho
p8374
tp8375
I2
s(g1
I1574
Vr
p8376
tp8377
I1
s(g1
I205
VsetChecked
p8378
tp8379
I1
s(g1
I317
VgetActivity
p8380
tp8381
I1
s(g1
I666
Vcreate
p8382
tp8383
I1
s(g1
I4919
Vshow
p8384
tp8385
I1
s(g1
I2380
VpositiveTextView
p8386
tp8387
I1
s(g1
I4914
Vshow
p8388
tp8389
I1
s(g1
I116
Vattrs
p8390
tp8391
I1
s(g1
I732
VsetLinkTextColor
p8392
tp8393
I1
s(g1
I221
VPATH_INDETERMINATE_HORIZONTAL_RECT2_TRANSLATE_X
p8394
tp8395
I1
s(g1
I1158
VFile
p8396
tp8397
I1
s(g1
I361
VsetBackgroundCompat
p8398
tp8399
I1
s(g1
I1194
VcustomFrame
p8400
tp8401
I1
s(g1
I276
VgetNegativeButtonText
p8402
tp8403
I1
s(g1
I268
VString
p8404
tp8405
I1
s(g1
I313
VsavedInstanceState
p8406
tp8407
I1
s(g1
I477
VCircularProgressDrawable
p8408
tp8409
I1
s(g1
I686
VColor
p8410
tp8411
I1
s(g1
I1581
VEditable
p8412
tp8413
I1
s(g1
I1579
Vindex
p8414
tp8415
I1
s(g1
I252
VmEditText
p8416
tp8417
I1
s(g1
I1588
VgetDecorView
p8418
tp8419
I1
s(g1
I259
VresolveColor
p8420
tp8421
I1
s(g1
I2017
Vview
p8422
tp8423
I1
s(g1
I363
VmBuilder
p8424
tp8425
I1
s(g1
I433
VPreferenceScreen
p8426
tp8427
I1
s(g1
I845
VsetUpMultiChoiceCallback
p8428
tp8429
I1
s(g1
I3367
VBuilder
p8430
tp8431
I1
s(g1
I200
Vattrs
p8432
tp8433
I1
s(g1
I2550
VMainActivity
p8434
tp8435
I1
s(g1
I608
Vv
p8436
tp8437
I1
s(g1
I591
VsetLineSpacing
p8438
tp8439
I1
s(g1
I1209
VmItemProcessor
p8440
tp8441
I1
s(g1
I1364
VProgressBar
p8442
tp8443
I2
s(g1
I178
Vdialog
p8444
tp8445
I2
s(g1
I3262
VDrawable
p8446
tp8447
I1
s(g1
I1474
Vdialog
p8448
tp8449
I1
s(g1
I183
VmIconPadding
p8450
tp8451
I1
s(g1
I1744
VsetPadding
p8452
tp8453
I1
s(g1
I511
VonActivityDestroy
p8454
tp8455
I1
s(g1
I1035
Vadapter
p8456
tp8457
I1
s(g1
I4275
VneutralColor
p8458
tp8459
I1
s(g1
I160
VconvertView
p8460
tp8461
I1
s(g1
I3388
VitemsGravity
p8462
tp8463
I1
s(g1
I218
VColorStateList
p8464
tp8465
I1
s(g1
I492
Vbuild
p8466
tp8467
I1
s(g1
I600
VpositiveText
p8468
tp8469
I1
s(g1
I1586
VgetWindow
p8470
tp8471
I1
s(g1
I3588
VprogressColor
p8472
tp8473
I1
s(g1
I668
VcustomView
p8474
tp8475
I1
s(g1
I62
VitemText
p8476
tp8477
I1
s(g1
I4409
VinputMaxLengthErrorColor
p8478
tp8479
I1
s(g1
I299
VtintMode
p8480
tp8481
I1
s(g1
I153
VsetId
p8482
tp8483
I1
s(g1
I466
Vcolor
p8484
tp8485
I1
s(g1
I5226
VgetText
p8486
tp8487
I1
s(g1
I95
VmColor
p8488
tp8489
I1
s(g1
I2347
VsetTag
p8490
tp8491
I1
s(g1
I304
Vextensions
p8492
tp8493
I1
s(g1
I1179
Vlhs
p8494
tp8495
I1
s(g1
I2014
VwidgetColor
p8496
tp8497
I1
s(g1
I1494
Vlp
p8498
tp8499
I1
s(g1
I291
VisColorDark
p8500
tp8501
I1
s(g1
I4084
Vshow
p8502
tp8503
I1
s(g1
I104
VBundle
p8504
tp8505
I1
s(g1
I219
Vwhich
p8506
tp8507
I1
s(g1
I581
VpositiveText
p8508
tp8509
I1
s(g1
I592
VshowBasic
p8510
tp8511
I1
s(g1
I2021
VlinkColor
p8512
tp8513
I1
s(g1
I987
VmContext
p8514
tp8515
I1
s(g1
I3379
VContextThemeWrapper
p8516
tp8517
I1
s(g1
I1003
VcustomFramePadding
p8518
tp8519
I1
s(g1
I101
VmBuilder
p8520
tp8521
I1
s(g1
I4610
Vcolor
p8522
tp8523
I1
s(g1
I6758
VArrayList
p8524
tp8525
I1
s(g1
I267
Vdialog
p8526
tp8527
I1
s(g1
I2404
VSuppressLint
p8528
tp8529
I1
s(g1
I1304
VmSelectedCustomColor
p8530
tp8531
I1
s(g1
I842
VgetAbsolutePath
p8532
tp8533
I1
s(g1
I223
VMaterialDialog
p8534
tp8535
I2
s(g1
I930
Vlayout
p8536
tp8537
I1
s(g1
I1502
VgetAttributes
p8538
tp8539
I1
s(g1
I381
VonShow
p8540
tp8541
I1
s(g1
I2111
VLog
p8542
tp8543
I1
s(g1
I1860
VString
p8544
tp8545
I1
s(g1
I738
VClass
p8546
tp8547
I1
s(g1
I184
VMaterialDialog
p8548
tp8549
I1
s(g1
I3382
VbtnStackedGravity
p8550
tp8551
I1
s(g1
I242
VButterKnife
p8552
tp8553
I1
s(g1
I786
VlistView
p8554
tp8555
I1
s(g1
I234
VDialogUtils
p8556
tp8557
I1
s(g1
I264
VFloat
p8558
tp8559
I1
s(g1
I37
VString
p8560
tp8561
I1
s(g1
I4863
Vcontext
p8562
tp8563
I1
s(g1
I333
VonClick
p8564
tp8565
I1
s(g1
I165
VView
p8566
tp8567
I1
s(g1
I287
VfindViewById
p8568
tp8569
I1
s(g1
I952
Vd
p8570
tp8571
I1
s(g1
I1158
Vinput
p8572
tp8573
I1
s(g1
I698
VcustomView
p8574
tp8575
I1
s(g1
I498
VOverride
p8576
tp8577
I1
s(g1
I387
VonFolderSelection
p8578
tp8579
I1
s(g1
I464
VpositiveText
p8580
tp8581
I1
s(g1
I4263
VcancelListener
p8582
tp8583
I1
s(g1
I596
VonInput
p8584
tp8585
I1
s(g1
I461
Vcontent
p8586
tp8587
I1
s(g1
I745
Vclazz
p8588
tp8589
I1
s(g1
I4345
Vdialog
p8590
tp8591
I1
s(g1
I846
VMaterialDialog
p8592
tp8593
I1
s(g1
I1101
VMaterialSimpleListAdapter
p8594
tp8595
I1
s(g1
I940
VsetImageDrawable
p8596
tp8597
I1
s(g1
I357
VdotPos
p8598
tp8599
I1
s(g1
I3098
VcontentRes
p8600
tp8601
I1
s(g1
I1182
VsetVisibility
p8602
tp8603
I1
s(g1
I212
Vresults
p8604
tp8605
I1
s(g1
I173
VgetNegativeButtonText
p8606
tp8607
I1
s(g1
I857
Vradio
p8608
tp8609
I1
s(g1
I160
VgetDrawable
p8610
tp8611
I1
s(g1
I2299
VneutralButton
p8612
tp8613
I1
s(g1
I395
Vshow
p8614
tp8615
I1
s(g1
I239
VonClick
p8616
tp8617
I1
s(g1
I1541
Vposition
p8618
tp8619
I1
s(g1
I1223
VshowToast
p8620
tp8621
I1
s(g1
I7132
VsetText
p8622
tp8623
I1
s(g1
I1122
VsetupProgressDialog
p8624
tp8625
I1
s(g1
I262
Vdisabled
p8626
tp8627
I1
s(g1
I107
VsetBackgroundTintList
p8628
tp8629
I1
s(g1
I1028
Vbuild
p8630
tp8631
I1
s(g1
I252
VMaterialMultiSelectListPreference
p8632
tp8633
I1
s(g1
I33
VfoundLayout
p8634
tp8635
I1
s(g1
I599
VgetSystemService
p8636
tp8637
I1
s(g1
I495
VgetWindow
p8638
tp8639
I1
s(g1
I4873
Vlp
p8640
tp8641
I1
s(g1
I420
VlistType
p8642
tp8643
I1
s(g1
I1587
VfindViewById
p8644
tp8645
I1
s(g1
I674
VColor
p8646
tp8647
I1
s(g1
I106
Vstate
p8648
tp8649
I1
s(g1
I934
Vheight
p8650
tp8651
I1
s(g1
I47
Vcontext
p8652
tp8653
I1
s(g1
I182
VWebView
p8654
tp8655
I1
s(g1
I307
VOverride
p8656
tp8657
I1
s(g1
I1430
VNonNull
p8658
tp8659
I1
s(g1
I759
Vsource
p8660
tp8661
I1
s(g1
I541
Vtext
p8662
tp8663
I1
s(g1
I216
VfindViewById
p8664
tp8665
I1
s(g1
I1356
VgetContext
p8666
tp8667
I1
s(g1
I7106
VsetProgress
p8668
tp8669
I1
s(g1
I139
VColorStateList
p8670
tp8671
I1
s(g1
I180
VAttrRes
p8672
tp8673
I1
s(g1
I1311
Vstr
p8674
tp8675
I1
s(g1
I2575
VaddRule
p8676
tp8677
I1
s(g1
I492
VrestoreValue
p8678
tp8679
I1
s(g1
I3967
VColorRes
p8680
tp8681
I1
s(g1
I615
VsetText
p8682
tp8683
I1
s(g1
I894
Vrb
p8684
tp8685
I1
s(g1
I351
VsetGravity
p8686
tp8687
I1
s(g1
I1724
VsetOnCancelListener
p8688
tp8689
I1
s(g1
I795
VgetApplicationContext
p8690
tp8691
I1
s(g1
I45
VCharSequence
p8692
tp8693
I1
s(g1
I5109
Vinput
p8694
tp8695
I1
s(g1
I268
VscaleXAnimator
p8696
tp8697
I1
s(g1
I507
VindDraw
p8698
tp8699
I1
s(g1
I4263
Vtitle
p8700
tp8701
I1
s(g1
I968
Vdialog
p8702
tp8703
I1
s(g1
I1103
VcontentScrollView
p8704
tp8705
I1
s(g1
I876
VgetHeight
p8706
tp8707
I1
s(g1
I379
VshowBasic
p8708
tp8709
I1
s(g1
I225
Vselected
p8710
tp8711
I1
s(g1
I1743
Vtitle
p8712
tp8713
I1
s(g1
I6773
VLooper
p8714
tp8715
I1
s(g1
I929
Vheight
p8716
tp8717
I1
s(g1
I47
VOverride
p8718
tp8719
I1
s(g1
I5859
VnotifyDataSetChanged
p8720
tp8721
I1
s(g1
I265
VpositiveResult
p8722
tp8723
I1
s(g1
I689
VisEmpty
p8724
tp8725
I1
s(g1
I919
VnegativeTextView
p8726
tp8727
I1
s(g1
I290
VPorterDuffColorFilter
p8728
tp8729
I1
s(g1
I176
Vic
p8730
tp8731
I1
s(g1
I985
VgetPaddingTop
p8732
tp8733
I1
s(g1
I2002
VwidgetColor
p8734
tp8735
I1
s(g1
I99
VOverride
p8736
tp8737
I3
s(g1
I1681
VAppCompatActivity
p8738
tp8739
I1
s(g1
I3083
ViconAttr
p8740
tp8741
I1
s(g1
I414
Vselected
p8742
tp8743
I1
s(g1
I1490
VmColorsTop
p8744
tp8745
I1
s(g1
I2271
VisStacked
p8746
tp8747
I1
s(g1
I5033
VformatArgs
p8748
tp8749
I1
s(g1
I1778
VgetContext
p8750
tp8751
I2
s(g1
I1273
Vtext
p8752
tp8753
I1
s(g1
I231
VresolveGravityEnum
p8754
tp8755
I1
s(g1
I116
Vlength
p8756
tp8757
I1
s(g1
I1001
VwindowToken
p8758
tp8759
I1
s(g1
I4385
Vcontext
p8760
tp8761
I1
s(g1
I174
VnegativeText
p8762
tp8763
I1
s(g1
I299
VpositiveText
p8764
tp8765
I1
s(g1
I196
VresolveString
p8766
tp8767
I1
s(g1
I1699
VinvalidateDividersForScrollingView
p8768
tp8769
I1
s(g1
I1406
Vdialog
p8770
tp8771
I1
s(g1
I489
Vdialog
p8772
tp8773
I1
s(g1
I820
Vtitle
p8774
tp8775
I1
s(g1
I446
VFolderSelectorDialog
p8776
tp8777
I1
s(g1
I156
VsetImageDrawable
p8778
tp8779
I1
s(g1
I824
VgetVisibility
p8780
tp8781
I1
s(g1
I5612
Vlength
p8782
tp8783
I1
s(g1
I313
VgetActionTextColorStateList
p8784
tp8785
I1
s(g1
I106
VColorStateList
p8786
tp8787
I1
s(g1
I5167
VDialogInterface
p8788
tp8789
I1
s(g1
I1169
VcustomFrame
p8790
tp8791
I1
s(g1
I1448
VpositiveWidth
p8792
tp8793
I1
s(g1
I518
VmDialog
p8794
tp8795
I1
s(g1
I356
VmDialog
p8796
tp8797
I1
s(g1
I537
Vlistener
p8798
tp8799
I1
s(g1
I137
Vview
p8800
tp8801
I1
s(g1
I12
VApplication
p8802
tp8803
I1
s(g1
I620
Vicon
p8804
tp8805
I1
s(g1
I661
Vbox
p8806
tp8807
I1
s(g1
I726
VshowBasicIcon
p8808
tp8809
I1
s(g1
I288
Va
p8810
tp8811
I2
s(g1
I1008
Vposition
p8812
tp8813
I1
s(g1
I128
Vcontext
p8814
tp8815
I1
s(g1
I1711
VmTopOnScrollChangedListener
p8816
tp8817
I1
s(g1
I313
VsetTag
p8818
tp8819
I1
s(g1
I39
VgetLayout
p8820
tp8821
I1
s(g1
I1300
VCharSequence
p8822
tp8823
I1
s(g1
I504
VsetVisibility
p8824
tp8825
I1
s(g1
I5237
VprogressColor
p8826
tp8827
I1
s(g1
I4629
VColorRes
p8828
tp8829
I1
s(g1
I3092
Vsize
p8830
tp8831
I1
s(g1
I1596
VgetWindow
p8832
tp8833
I1
s(g1
I1820
VgetViewTreeObserver
p8834
tp8835
I1
s(g1
I268
VcheckDraws
p8836
tp8837
I2
s(g1
I851
Vsv
p8838
tp8839
I1
s(g1
I201
VContext
p8840
tp8841
I1
s(g1
I122
VDialogUtils
p8842
tp8843
I1
s(g1
I313
VColorRes
p8844
tp8845
I1
s(g1
I1859
VgetProgress
p8846
tp8847
I1
s(g1
I404
VmDialog
p8848
tp8849
I1
s(g1
I426
VmDialog
p8850
tp8851
I1
s(g1
I503
VonDismiss
p8852
tp8853
I1
s(g1
I1489
VDialogUtils
p8854
tp8855
I1
s(g1
I1135
VonPositive
p8856
tp8857
I1
s(g1
I220
VDialog
p8858
tp8859
I1
s(g1
I1665
Vfrag
p8860
tp8861
I1
s(g1
I195
Vview
p8862
tp8863
I1
s(g1
I6025
VmaxIconSizeRes
p8864
tp8865
I2
s(g1
I384
VgetPreferenceManager
p8866
tp8867
I1
s(g1
I5617
VView
p8868
tp8869
I1
s(g1
I5693
VButton
p8870
tp8871
I1
s(g1
I294
Vcolor
p8872
tp8873
I1
s(g1
I1117
VgetPaddingRight
p8874
tp8875
I1
s(g1
I764
VmTitleBar
p8876
tp8877
I1
s(g1
I552
VMaterialDialog
p8878
tp8879
I1
s(g1
I1228
Vtag
p8880
tp8881
I1
s(g1
I5012
VnewTitleRes
p8882
tp8883
I1
s(g1
I1301
Vbuilder
p8884
tp8885
I1
s(g1
I2351
VgetButtonSelector
p8886
tp8887
I1
s(g1
I294
VvalueOf
p8888
tp8889
I1
s(g1
I5892
VselectedIndicesList
p8890
tp8891
I1
s(g1
I60
VOverride
p8892
tp8893
I1
s(g1
I6743
Vitems
p8894
tp8895
I1
s(g1
I181
VLayoutInflater
p8896
tp8897
I1
s(g1
I900
VreferenceX
p8898
tp8899
I1
s(g1
I35
VAboutDialog
p8900
tp8901
I1
s(g1
I99
VCharSequence
p8902
tp8903
I1
s(g1
I2441
VfragmentActivity
p8904
tp8905
I1
s(g1
I50
VonCreate
p8906
tp8907
I1
s(g1
I221
VNonNull
p8908
tp8909
I1
s(g1
I855
Vwhich
p8910
tp8911
I1
s(g1
I117
Vicon
p8912
tp8913
I1
s(g1
I292
Vlp
p8914
tp8915
I1
s(g1
I292
VOverride
p8916
tp8917
I1
s(g1
I2209
Vlm
p8918
tp8919
I1
s(g1
I337
VPropertyValuesHolder
p8920
tp8921
I1
s(g1
I529
VsetBackground
p8922
tp8923
I1
s(g1
I2290
VfindViewById
p8924
tp8925
I1
s(g1
I2103
VneutralWidth
p8926
tp8927
I1
s(g1
I573
Vcontent
p8928
tp8929
I1
s(g1
I263
VOverride
p8930
tp8931
I1
s(g1
I752
Vitems
p8932
tp8933
I1
s(g1
I146
VgetText
p8934
tp8935
I1
s(g1
I947
Vview
p8936
tp8937
I1
s(g1
I48
Vshow
p8938
tp8939
I1
s(g1
I578
Vfallback
p8940
tp8941
I1
s(g1
I231
VsetTint
p8942
tp8943
I1
s(g1
I1569
VOverride
p8944
tp8945
I1
s(g1
I6741
VCharSequence
p8946
tp8947
I1
s(g1
I1129
Vcon
p8948
tp8949
I1
s(g1
I64
Vcontext
p8950
tp8951
I1
s(g1
I190
VgetShowTrack
p8952
tp8953
I1
s(g1
I72
Vview
p8954
tp8955
I1
s(g1
I4098
Vregular
p8956
tp8957
I1
s(g1
I946
Vcolor
p8958
tp8959
I1
s(g1
I4130
Vtitle
p8960
tp8961
I1
s(g1
I2576
VnegativeTextView
p8962
tp8963
I1
s(g1
I828
VsendSingleChoiceCallback
p8964
tp8965
I1
s(g1
I7106
Vprogress
p8966
tp8967
I1
s(g1
I169
VViewGroup
p8968
tp8969
I1
s(g1
I959
VwhichList
p8970
tp8971
I1
s(g1
I248
VonPositive
p8972
tp8973
I1
s(g1
I85
VdefStyleRes
p8974
tp8975
I2
s(g1
I195
Vcontext
p8976
tp8977
I1
s(g1
I43
Vattrs
p8978
tp8979
I1
s(g1
I1591
VmaxWindowFrame
p8980
tp8981
I1
s(g1
I55
VonCreate
p8982
tp8983
I1
s(g1
I2331
VDialogUtils
p8984
tp8985
I1
s(g1
I370
Vpm
p8986
tp8987
I1
s(g1
I122
Vi
p8988
tp8989
I1
s(g1
I567
VLinkMovementMethod
p8990
tp8991
I1
s(g1
I235
VMaterialDialogPreference
p8992
tp8993
I1
s(g1
I1981
VCircleView
p8994
tp8995
I1
s(g1
I96
Vi
p8996
tp8997
I1
s(g1
I2609
Vparams
p8998
tp8999
I1
s(g1
I2098
VcheckIfStackingNeeded
p9000
tp9001
I1
s(g1
I297
VDialogInterface
p9002
tp9003
I1
s(g1
I459
VsetOnClickListener
p9004
tp9005
I1
s(g1
I498
VgetParent
p9006
tp9007
I1
s(g1
I4598
VselectedIndex
p9008
tp9009
I1
s(g1
I259
VprogressBar
p9010
tp9011
I1
s(g1
I138
VPath
p9012
tp9013
I1
s(g1
I400
Vdialog
p9014
tp9015
I1
s(g1
I297
VgetWindow
p9016
tp9017
I1
s(g1
I144
VvalueOf
p9018
tp9019
I1
s(g1
I845
Vlistener
p9020
tp9021
I1
s(g1
I227
VNonNull
p9022
tp9023
I1
s(g1
I1029
Vadapter
p9024
tp9025
I1
s(g1
I4125
VCharSequence
p9026
tp9027
I1
s(g1
I205
VAttributeSet
p9028
tp9029
I1
s(g1
I212
VLayoutInflater
p9030
tp9031
I2
s(g1
I1938
VmediumFont
p9032
tp9033
I1
s(g1
I170
VeditText
p9034
tp9035
I1
s(g1
I1574
VgetInstance
p9036
tp9037
I1
s(g1
I486
VmPreferenceManager
p9038
tp9039
I1
s(g1
I2352
VsetOnClickListener
p9040
tp9041
I1
s(g1
I1986
VOnClick
p9042
tp9043
I1
s(g1
I373
VDialogInterface
p9044
tp9045
I1
s(g1
I3176
Vcontent
p9046
tp9047
I1
s(g1
I87
Vfallback
p9048
tp9049
I1
s(g1
I502
Vdarkness
p9050
tp9051
I1
s(g1
I4943
Vshow
p9052
tp9053
I1
s(g1
I951
VDialogUtils
p9054
tp9055
I1
s(g1
I530
VCharSequence
p9056
tp9057
I1
s(g1
I499
Vsize
p9058
tp9059
I1
s(g1
I122
VmColors
p9060
tp9061
I1
s(g1
I249
VHashSet
p9062
tp9063
I1
s(g1
I888
VcheckIfCanGoUp
p9064
tp9065
I1
s(g1
I263
Vd
p9066
tp9067
I1
s(g1
I1347
VinvalidateList
p9068
tp9069
I1
s(g1
I818
VfindViewById
p9070
tp9071
I1
s(g1
I5244
VprogressColor
p9072
tp9073
I1
s(g1
I1546
VDialogUtils
p9074
tp9075
I1
s(g1
I736
Vcallback
p9076
tp9077
I1
s(g1
I349
Vindex
p9078
tp9079
I1
s(g1
I254
VDialogInterface
p9080
tp9081
I1
s(g1
I1696
VprimaryTextColor
p9082
tp9083
I1
s(g1
I313
VDialogUtils
p9084
tp9085
I1
s(g1
I386
VsetPositiveButton
p9086
tp9087
I1
s(g1
I994
VcustomFrame
p9088
tp9089
I1
s(g1
I90
VmColor
p9090
tp9091
I1
s(g1
I35
Vc
p9092
tp9093
I1
s(g1
I1005
VitemView
p9094
tp9095
I1
s(g1
I229
VgetDialogTitle
p9096
tp9097
I1
s(g1
I1472
VMaterialDialog
p9098
tp9099
I1
s(g1
I251
Vdismiss
p9100
tp9101
I1
s(g1
I62
VgetSupportActionBar
p9102
tp9103
I1
s(g1
I255
VDialogUtils
p9104
tp9105
I1
s(g1
I930
VsetAllCapsCompat
p9106
tp9107
I1
s(g1
I6313
Vi
p9108
tp9109
I1
s(g1
I998
VIBinder
p9110
tp9111
I1
s(g1
I485
VCircularProgressDrawable
p9112
tp9113
I1
s(g1
I724
Vdialog
p9114
tp9115
I1
s(g1
I198
VtoArray
p9116
tp9117
I1
s(g1
I27
VAttributeSet
p9118
tp9119
I1
s(g1
I6897
VsetText
p9120
tp9121
I1
s(g1
I204
VOverride
p9122
tp9123
I1
s(g1
I259
VonDismiss
p9124
tp9125
I1
s(g1
I134
Vcolor
p9126
tp9127
I1
s(g1
I1662
Vcallback
p9128
tp9129
I1
s(g1
I96
VOverride
p9130
tp9131
I1
s(g1
I1560
Valpha
p9132
tp9133
I1
s(g1
I657
VsetPadding
p9134
tp9135
I1
s(g1
I203
VeditText
p9136
tp9137
I1
s(g1
I1354
Vbuilder
p9138
tp9139
I1
s(g1
I3978
VDialogUtils
p9140
tp9141
I1
s(g1
I343
Vdialog
p9142
tp9143
I1
s(g1
I231
Vradio
p9144
tp9145
I1
s(g1
I172
Vinit
p9146
tp9147
I1
s(g1
I83
Vprotected
p9148
tp9149
I31
s(g1
I78
VMeasureSpec
p9150
tp9151
I1
s(g1
I212
VtoArray
p9152
tp9153
I1
s(g1
I714
Vfallback
p9154
tp9155
I1
s(g1
I285
VgetBoolean
p9156
tp9157
I1
s(g1
I264
VaccentPreselect
p9158
tp9159
I1
s(g1
I939
Vi
p9160
tp9161
I1
s(g1
I307
Vpm
p9162
tp9163
I1
s(g1
I1239
Vary
p9164
tp9165
I1
s(g1
I76
VContext
p9166
tp9167
I2
s(g1
I1561
VTOP_LEVEL_COLORS
p9168
tp9169
I1
s(g1
I1113
VgetPaddingLeft
p9170
tp9171
I1
s(g1
I160
VContext
p9172
tp9173
I1
s(g1
I209
VonBindDialogView
p9174
tp9175
I1
s(g1
I791
Vview
p9176
tp9177
I1
s(g1
I255
VonAny
p9178
tp9179
I1
s(g1
I704
Vcb
p9180
tp9181
I1
s(g1
I1454
VGravityEnum
p9182
tp9183
I1
s(g1
I440
Vpm
p9184
tp9185
I1
s(g1
I1513
Vappend
p9186
tp9187
I2
s(g1
I308
VDialog
p9188
tp9189
I1
s(g1
I1107
Varray
p9190
tp9191
I1
s(g1
I1215
Vary
p9192
tp9193
I1
s(g1
I711
VgetContext
p9194
tp9195
I1
s(g1
I333
VgetIntrinsicWidth
p9196
tp9197
I1
s(g1
I191
VInteger
p9198
tp9199
I1
s(g1
I1560
VmSelectedCustomColor
p9200
tp9201
I1
s(g1
I997
VfindViewById
p9202
tp9203
I1
s(g1
I119
VsuperCls
p9204
tp9205
I1
s(g1
I508
VshowBasicCheckPrompt
p9206
tp9207
I1
s(g1
I305
VtintMode
p9208
tp9209
I1
s(g1
I3756
VgetParent
p9210
tp9211
I1
s(g1
I565
VshowBasicNoTitle
p9212
tp9213
I1
s(g1
I120
VsetColorFilter
p9214
tp9215
I1
s(g1
I1934
VmediumFont
p9216
tp9217
I1
s(g1
I118
VTypedArray
p9218
tp9219
I1
s(g1
I190
VgetInflateLayout
p9220
tp9221
I1
s(g1
I515
VmDialog
p9222
tp9223
I1
s(g1
I1279
Vstart
p9224
tp9225
I1
s(g1
I246
VgetContext
p9226
tp9227
I1
s(g1
I774
VgetMeasuredHeight
p9228
tp9229
I1
s(g1
I3039
Vcontext
p9230
tp9231
I1
s(g1
I1383
VCircularProgressDrawable
p9232
tp9233
I1
s(g1
I1423
VmContext
p9234
tp9235
I1
s(g1
I1547
VsetHintTextColor
p9236
tp9237
I1
s(g1
I1503
VcopyFrom
p9238
tp9239
I1
s(g1
I3970
VcolorRes
p9240
tp9241
I1
s(g1
I3418
VgetResources
p9242
tp9243
I1
s(g1
I1630
Vdialog
p9244
tp9245
I1
s(g1
I2864
Vshow
p9246
tp9247
I1
s(g1
I1755
VfindViewById
p9248
tp9249
I2
s(g1
I648
Vequals
p9250
tp9251
I1
s(g1
I1890
VregularFont
p9252
tp9253
I1
s(g1
I1406
VgetWindow
p9254
tp9255
I1
s(g1
I1527
VselectedIndicesList
p9256
tp9257
I1
s(g1
I635
VEditText
p9258
tp9259
I1
s(g1
I111
VArrayList
p9260
tp9261
I1
s(g1
I174
Vview
p9262
tp9263
I2
s(g1
I1275
VsetViewInternal
p9264
tp9265
I1
s(g1
I2153
VbottomView
p9266
tp9267
I1
s(g1
I231
VresolveColor
p9268
tp9269
I1
s(g1
I1849
VString
p9270
tp9271
I1
s(g1
I1285
Vcount
p9272
tp9273
I1
s(g1
I2552
VcheckSelfPermission
p9274
tp9275
I1
s(g1
I6896
VString
p9276
tp9277
I1
s(g1
I2113
Vview
p9278
tp9279
I1
s(g1
I2016
VDialogUtils
p9280
tp9281
I1
s(g1
I1667
VonDismiss
p9282
tp9283
I1
s(g1
I57
Vsource
p9284
tp9285
I1
s(g1
I1585
VafterTextChanged
p9286
tp9287
I1
s(g1
I954
VIBinder
p9288
tp9289
I1
s(g1
I5509
VgetMaxProgress
p9290
tp9291
I1
s(g1
I3974
VcolorRes
p9292
tp9293
I1
s(g1
I273
VTextView
p9294
tp9295
I1
s(g1
I231
Vfrom
p9296
tp9297
I1
s(g1
I103
Vi
p9298
tp9299
I1
s(g1
I1475
VConfiguration
p9300
tp9301
I1
s(g1
I297
Vcolor
p9302
tp9303
I1
s(g1
I221
VsetCancelable
p9304
tp9305
I1
s(g1
I232
Vdialog
p9306
tp9307
I1
s(g1
I4915
VlistCallbackMulti
p9308
tp9309
I1
s(g1
I955
VupdateFramePadding
p9310
tp9311
I1
s(g1
I1220
VallowSelectionChange
p9312
tp9313
I1
s(g1
I1074
VasList
p9314
tp9315
I1
s(g1
I7144
Vformat
p9316
tp9317
I1
s(g1
I823
Vsize
p9318
tp9319
I2
s(g1
I1667
Vcommit
p9320
tp9321
I1
s(g1
I313
VgetValue
p9322
tp9323
I1
s(g1
I2539
VsetOnClickListener
p9324
tp9325
I1
s(g1
I379
VDialogAction
p9326
tp9327
I1
s(g1
I1013
Vadapter
p9328
tp9329
I1
s(g1
I2422
Vtag
p9330
tp9331
I1
s(g1
I256
Vdialog
p9332
tp9333
I2
s(g1
I187
VmTrackDrawable
p9334
tp9335
I1
s(g1
I287
Vcontent
p9336
tp9337
I1
s(g1
I2194
Vsplit
p9338
tp9339
I1
s(g1
I1386
VlistPaddingBottom
p9340
tp9341
I1
s(g1
I4133
VsetText
p9342
tp9343
I1
s(g1
I3743
VindeterminateProgress
p9344
tp9345
I1
s(g1
I417
VrequestLayout
p9346
tp9347
I1
s(g1
I150
VprogressBar
p9348
tp9349
I1
s(g1
I336
VoutState
p9350
tp9351
I1
s(g1
I799
Vi
p9352
tp9353
I2
s(g1
I1832
VgetViewTreeObserver
p9354
tp9355
I1
s(g1
I250
VViewGroup
p9356
tp9357
I1
s(g1
I994
VMaterialSimpleListAdapter
p9358
tp9359
I2
s(g1
I5505
VgetCurrentProgress
p9360
tp9361
I1
s(g1
I179
VWebView
p9362
tp9363
I1
s(g1
I957
VbtnStackedGravity
p9364
tp9365
I1
s(g1
I29
Vcontext
p9366
tp9367
I1
s(g1
I613
Vv
p9368
tp9369
I1
s(g1
I267
Vinit
p9370
tp9371
I1
s(g1
I196
Va
p9372
tp9373
I1
s(g1
I997
Vadapter
p9374
tp9375
I2
s(g1
I151
Vdialog
p9376
tp9377
I1
s(g1
I3043
Vtext
p9378
tp9379
I1
s(g1
I237
VgetPositiveButtonText
p9380
tp9381
I1
s(g1
I536
VregDraw
p9382
tp9383
I1
s(g1
I5263
VprogressColor
p9384
tp9385
I1
s(g1
I139
VdismissMsg
p9386
tp9387
I1
s(g1
I1899
VmediumFont
p9388
tp9389
I1
s(g1
I68
VgetFragmentManager
p9390
tp9391
I1
s(g1
I1122
VgetTag
p9392
tp9393
I1
s(g1
I942
VsetVisibility
p9394
tp9395
I1
s(g1
I187
VTypedArray
p9396
tp9397
I1
s(g1
I352
Vtext
p9398
tp9399
I1
s(g1
I227
VViewGroup
p9400
tp9401
I1
s(g1
I368
VgetDeclaredMethod
p9402
tp9403
I1
s(g1
I1141
VsetPadding
p9404
tp9405
I1
s(g1
I2563
VaddRule
p9406
tp9407
I1
s(g1
I1710
VsetTextColor
p9408
tp9409
I1
s(g1
I4316
Vlistener
p9410
tp9411
I1
s(g1
I640
Vr
p9412
tp9413
I1
s(g1
I1164
Vrhs
p9414
tp9415
I1
s(g1
I999
VMaterialDialog
p9416
tp9417
I1
s(g1
I354
VprogressDrawable
p9418
tp9419
I1
s(g1
I19
VonCreate
p9420
tp9421
I1
s(g1
I3610
VcheckSingleton
p9422
tp9423
I1
s(g1
I4029
Vhint
p9424
tp9425
I1
s(g1
I323
Vdialog
p9426
tp9427
I1
s(g1
I1880
Vbutton
p9428
tp9429
I1
s(g1
I59
VsetContentView
p9430
tp9431
I1
s(g1
I6768
VCollections
p9432
tp9433
I1
s(g1
I1040
VsetPadding
p9434
tp9435
I1
s(g1
I1111
Vdialog
p9436
tp9437
I1
s(g1
I1384
VcustomFrame
p9438
tp9439
I1
s(g1
I707
ViconRes
p9440
tp9441
I1
s(g1
I6507
VCharSequence
p9442
tp9443
I1
s(g1
I775
VgetAdapterPosition
p9444
tp9445
I1
s(g1
I443
Vbuild
p9446
tp9447
I1
s(g1
I225
Vdialog
p9448
tp9449
I2
s(g1
I60
VString
p9450
tp9451
I1
s(g1
I2832
Vdialog
p9452
tp9453
I1
s.