(lp0
(Vinsert
p1
I42
VSimpleName: deserialize
p2
tp3
a(Vinsert
p4
I42
VSimpleName: storage
p5
tp6
a(Vinsert
p7
I42
VSimpleName: withCredentials
p8
tp9
a(Vinsert
p10
I42
VSimpleName: localhost
p11
tp12
a(Vinsert
p13
I42
VSimpleName: encodeList
p14
tp15
a(Vinsert
p16
I42
VSimpleName: asJavaCollection
p17
tp18
a(Vinsert
p19
I42
VSimpleName: spanName
p20
tp21
a(Vinsert
p22
I42
VSimpleName: writeSpan
p23
tp24
a(Vinsert
p25
I42
VSimpleName: onSuccess
p26
tp27
a(Vinsert
p28
I42
VSimpleName: readTimeout
p29
tp30
a(Vinsert
p31
I42
VSimpleName: putTrace
p32
tp33
a(Vinsert
p34
I42
VSimpleName: shiftRight
p35
tp36
a(Vinsert
p37
I42
VSimpleName: getBucketKeys
p38
tp39
a(Vinsert
p40
I42
VSimpleName: unmodifiableList
p41
tp42
a(Vinsert
p43
I42
VSimpleName: textToNumericFormatV6
p44
tp45
a(Vinsert
p46
I42
VSimpleName: builder
p47
tp48
a(Vinsert
p49
I42
VSimpleName: release
p50
tp51
a(Vinsert
p52
I42
VSimpleName: http
p53
tp54
a(Vinsert
p55
I42
VSimpleName: admin
p56
tp57
a(Vinsert
p58
I42
VSimpleName: expect
p59
tp60
a(Vinsert
p61
I42
VSimpleName: sleep
p62
tp63
a(Vinsert
p64
I42
VSimpleName: isEmpty
p65
tp66
a(Vinsert
p67
I42
VSimpleName: getCause
p68
tp69
a(Vinsert
p70
I42
VSimpleName: withExposedPorts
p71
tp72
a(Vinsert
p73
I42
VSimpleName: setServiceName
p74
tp75
a(Vinsert
p76
I42
VSimpleName: writeUtf8CodePoint
p77
tp78
a(Vinsert
p79
I42
VSimpleName: namesLookback
p80
tp81
a(Vinsert
p82
I42
VSimpleName: toBuilder
p83
tp84
a(Vinsert
p85
I42
VSimpleName: partition
p86
tp87
a(Vinsert
p88
I42
VSimpleName: acceptSpansCallback
p89
tp90
a(Vinsert
p91
I42
VSimpleName: constructTree
p92
tp93
a(Vinsert
p94
I42
VSimpleName: register
p95
tp96
a(Vinsert
p97
I42
VSimpleName: entrySet
p98
tp99
a(Vinsert
p100
I42
VSimpleName: getConnection
p101
tp102
a(Vinsert
p103
I42
VSimpleName: config
p104
tp105
a(Vinsert
p106
I42
VSimpleName: isNull
p107
tp108
a(Vinsert
p109
I42
VSimpleName: addAction
p110
tp111
a(Vinsert
p112
I42
VSimpleName: rowCountForTraceByServiceSpan
p113
tp114
a(Vinsert
p115
I42
VSimpleName: header
p116
tp117
a(Vinsert
p118
I42
VSimpleName: indexShards
p119
tp120
a(Vinsert
p121
I42
VSimpleName: clientTracer
p122
tp123
a(Vinsert
p124
I42
VSimpleName: containsOnly
p125
tp126
a(Vinsert
p127
I42
VSimpleName: allAsList
p128
tp129
a(Vinsert
p130
I42
VSimpleName: emptySet
p131
tp132
a(Vinsert
p133
I42
VSimpleName: equal
p134
tp135
a(Vinsert
p136
I42
VSimpleName: flushOnWrites
p137
tp138
a(Vinsert
p139
I42
VSimpleName: eq
p140
tp141
a(Vinsert
p142
I42
VSimpleName: matches
p143
tp144
a(Vinsert
p145
I42
VSimpleName: span
p146
tp147
a(Vinsert
p148
I42
VSimpleName: expectMessage
p149
tp150
a(Vinsert
p151
I42
VSimpleName: addQueryParameter
p152
tp153
a(Vinsert
p154
I42
VSimpleName: getGroupId
p155
tp156
a(Vinsert
p157
I42
VSimpleName: toJson
p158
tp159
a(Vinsert
p160
I42
VSimpleName: isSetName
p161
tp162
a(Vinsert
p163
I42
VSimpleName: findSpans
p164
tp165
a(Vinsert
p166
I42
VSimpleName: writeLowerHex
p167
tp168
a(Vinsert
p169
I42
VSimpleName: isTrue
p170
tp171
a(Vinsert
p172
I42
VSimpleName: set
p173
tp174
a(Vinsert
p175
I42
VSimpleName: startsWith
p176
tp177
a(Vinsert
p178
I42
VSimpleName: writeListBegin
p179
tp180
a(Vinsert
p181
I42
VSimpleName: collectValuesNamed
p182
tp183
a(Vinsert
p184
I42
VSimpleName: tryNextHost
p185
tp186
a(Vinsert
p187
I42
VSimpleName: readMetadata
p188
tp189
a(Vinsert
p190
I42
VSimpleName: mysqlUrlFromEnv
p191
tp192
a(Vinsert
p193
I42
VSimpleName: setId
p194
tp195
a(Vinsert
p196
I42
VSimpleName: remove
p197
tp198
a(Vinsert
p199
I42
VSimpleName: in
p200
tp201
a(Vinsert
p202
I42
VSimpleName: merge
p203
tp204
a(Vinsert
p205
I42
VSimpleName: writeBinaryAnnotation
p206
tp207
a(Vinsert
p208
I42
VSimpleName: getCluster
p209
tp210
a(Vinsert
p211
I42
VSimpleName: getAddress
p212
tp213
a(Vinsert
p214
I42
VSimpleName: getTrace
p215
tp216
a(Vinsert
p217
I42
VSimpleName: getTraces
p218
tp219
a(Vinsert
p220
I42
VSimpleName: saService
p221
tp222
a(Vinsert
p223
I42
VSimpleName: newConcurrentMap
p224
tp225
a(Vinsert
p226
I42
VSimpleName: asyncToBlocking
p227
tp228
a(Vinsert
p229
I42
VSimpleName: properties
p230
tp231
a(Vinsert
p232
I42
VSimpleName: getPort
p233
tp234
a(Vinsert
p235
I42
VSimpleName: indexOf
p236
tp237
a(Vinsert
p238
I42
VSimpleName: url
p239
tp240
a(Vinsert
p241
I42
VSimpleName: split
p242
tp243
a(Vinsert
p244
I42
VSimpleName: isLoggable
p245
tp246
a(Vinsert
p247
I42
VSimpleName: isSyntheticRootForPartialTree
p248
tp249
a(Vinsert
p250
I42
VSimpleName: getParentSpanId
p251
tp252
a(Vinsert
p253
I42
VSimpleName: isPresent
p254
tp255
a(Vinsert
p256
I42
VSimpleName: serverSpanThreadBinder
p257
tp258
a(Vinsert
p259
I42
VSimpleName: parseDouble
p260
tp261
a(Vinsert
p262
I42
VSimpleName: value
p263
tp264
a(Vinsert
p265
I42
VSimpleName: transform
p266
tp267
a(Vinsert
p268
I42
VSimpleName: isEqualTo
p269
tp270
a(Vinsert
p271
I42
VSimpleName: lowerHexToUnsignedLong
p272
tp273
a(Vinsert
p274
I42
VSimpleName: takeRequest
p275
tp276
a(Vinsert
p277
I42
VSimpleName: parse
p278
tp279
a(Vinsert
p280
I42
VSimpleName: hashCode
p281
tp282
a(Vinsert
p283
I42
VSimpleName: singleton
p284
tp285
a(Vinsert
p286
I42
VSimpleName: copyOf
p287
tp288
a(Vinsert
p289
I42
VSimpleName: ipv6
p290
tp291
a(Vinsert
p292
I42
VSimpleName: setInput
p293
tp294
a(Vinsert
p295
I42
VSimpleName: isSetValue
p296
tp297
a(Vinsert
p298
I42
VSimpleName: listSizeInBytes
p299
tp300
a(Vinsert
p301
I42
VSimpleName: getDependencies
p302
tp303
a(Vinsert
p304
I42
VSimpleName: wrap
p305
tp306
a(Vinsert
p307
I42
VSimpleName: getBodySize
p308
tp309
a(Vinsert
p310
I42
VSimpleName: stream
p311
tp312
a(Vinsert
p313
I42
VSimpleName: replaceAll
p314
tp315
a(Vinsert
p316
I42
VSimpleName: getUserType
p317
tp318
a(Vinsert
p319
I42
VSimpleName: keySet
p320
tp321
a(Vinsert
p322
I42
VSimpleName: isSetTrace_id_high
p323
tp324
a(Vinsert
p325
I42
VSimpleName: runningCallsCount
p326
tp327
a(Vinsert
p328
I42
VSimpleName: getInstance
p329
tp330
a(Vinsert
p331
I42
VSimpleName: fetchMoreResults
p332
tp333
a(Vinsert
p334
I42
VSimpleName: networkInterceptors
p335
tp336
a(Vinsert
p337
I42
VSimpleName: toCluster
p338
tp339
a(Vinsert
p340
I42
VSimpleName: nanoTime
p341
tp342
a(Vinsert
p343
I42
VSimpleName: compareTo
p344
tp345
a(Vinsert
p346
I42
VSimpleName: beginObject
p347
tp348
a(Vinsert
p349
I42
VSimpleName: asMap
p350
tp351
a(Vinsert
p352
I42
VSimpleName: onError
p353
tp354
a(Vinsert
p355
I42
VSimpleName: path
p356
tp357
a(Vinsert
p358
I42
VSimpleName: localServiceName
p359
tp360
a(Vinsert
p361
I42
VSimpleName: ok
p362
tp363
a(Vinsert
p364
I42
VSimpleName: range
p365
tp366
a(Vinsert
p367
I42
VSimpleName: error
p368
tp369
a(Vinsert
p370
I42
VSimpleName: hosts
p371
tp372
a(Vinsert
p373
I42
VSimpleName: normalizeTraceId
p374
tp375
a(Vinsert
p376
I42
VSimpleName: isComplete
p377
tp378
a(Vinsert
p379
I42
VSimpleName: readTraces
p380
tp381
a(Vinsert
p382
I42
VSimpleName: getInFlightQueries
p383
tp384
a(Vinsert
p385
I42
VSimpleName: getPath
p386
tp387
a(Vinsert
p388
I42
VSimpleName: maxDuration
p389
tp390
a(Vinsert
p391
I42
VSimpleName: compare
p392
tp393
a(Vinsert
p394
I42
VSimpleName: buildFactory
p395
tp396
a(Vinsert
p397
I42
VSimpleName: orElse
p398
tp399
a(Vinsert
p400
I42
VSimpleName: addAnnotation
p401
tp402
a(Vinsert
p403
I42
VSimpleName: increment
p404
tp405
a(Vinsert
p406
I42
VSimpleName: ensureIndexTemplate
p407
tp408
a(Vinsert
p409
I42
VSimpleName: getKey
p410
tp411
a(Vinsert
p412
I42
VSimpleName: utf8SizeInBytes
p413
tp414
a(Vinsert
p415
I42
VSimpleName: getClass
p416
tp417
a(Vinsert
p418
I42
VSimpleName: addCallback
p419
tp420
a(Vinsert
p421
I42
VSimpleName: take
p422
tp423
a(Vinsert
p424
I42
VSimpleName: currentThread
p425
tp426
a(Vinsert
p427
I42
VSimpleName: callCount
p428
tp429
a(Vinsert
p430
I42
VSimpleName: nextLong
p431
tp432
a(Vinsert
p433
I42
VSimpleName: overrides
p434
tp435
a(Vinsert
p436
I42
VSimpleName: newCall
p437
tp438
a(Vinsert
p439
I42
VSimpleName: withSSL
p440
tp441
a(Vinsert
p442
I42
VSimpleName: handleError
p443
tp444
a(Vinsert
p445
I42
VSimpleName: setBody
p446
tp447
a(Vinsert
p448
I42
VSimpleName: readByteArray
p449
tp450
a(Vinsert
p451
I42
VSimpleName: sizeInBytes
p452
tp453
a(Vinsert
p454
I42
VSimpleName: traceIdHigh
p455
tp456
a(Vinsert
p457
I42
VSimpleName: tags
p458
tp459
a(Vinsert
p460
I42
VSimpleName: spanStore
p461
tp462
a(Vinsert
p463
I42
VSimpleName: select
p464
tp465
a(Vinsert
p466
I42
VSimpleName: initCause
p467
tp468
a(Vinsert
p469
I42
VSimpleName: bind
p470
tp471
a(Vinsert
p472
I42
VSimpleName: limit
p473
tp474
a(Vinsert
p475
I42
VSimpleName: readDependencyLink
p476
tp477
a(Vinsert
p478
I42
VSimpleName: dispatch
p479
tp480
a(Vinsert
p481
I42
VSimpleName: getServletPath
p482
tp483
a(Vinsert
p484
I42
VSimpleName: doFilter
p485
tp486
a(Vinsert
p487
I42
VSimpleName: writeByte
p488
tp489
a(Vinsert
p490
I42
VSimpleName: addLink
p491
tp492
a(Vinsert
p493
I42
VSimpleName: currentTimeMillis
p494
tp495
a(Vinsert
p496
I42
VSimpleName: hasLeadership
p497
tp498
a(Vinsert
p499
I42
VSimpleName: putTag
p500
tp501
a(Vinsert
p502
I42
VSimpleName: clear
p503
tp504
a(Vinsert
p505
I42
VSimpleName: containsExactly
p506
tp507
a(Vinsert
p508
I42
VSimpleName: filters
p509
tp510
a(Vinsert
p511
I42
VSimpleName: andExpect
p512
tp513
a(Vinsert
p514
I42
VSimpleName: toArray
p515
tp516
a(Vinsert
p517
I42
VSimpleName: setThreadNamePrefix
p518
tp519
a(Vinsert
p520
I42
VSimpleName: and
p521
tp522
a(Vinsert
p523
I42
VSimpleName: skipValue
p524
tp525
a(Vinsert
p526
I42
VSimpleName: setTimeZone
p527
tp528
a(Vinsert
p529
I42
VSimpleName: getMessage
p530
tp531
a(Vinsert
p532
I42
VSimpleName: initialResponse
p533
tp534
a(Vinsert
p535
I42
VSimpleName: ipStringToBytes
p536
tp537
a(Vinsert
p538
I42
VSimpleName: indexNamePatternsForRange
p539
tp540
a(Vinsert
p541
I42
VSimpleName: parseAnnotationQuery
p542
tp543
a(Vinsert
p544
I42
VSimpleName: receivedSpanCount
p545
tp546
a(Vinsert
p547
I42
VSimpleName: password
p548
tp549
a(Vinsert
p550
I42
VSimpleName: setPort
p551
tp552
a(Vinsert
p553
I42
VSimpleName: onErrorReturn
p554
tp555
a(Vinsert
p556
I42
VSimpleName: toV2
p557
tp558
a(Vinsert
p559
I42
VSimpleName: sessionFactory
p560
tp561
a(Vinsert
p562
I42
VSimpleName: addAll
p563
tp564
a(Vinsert
p565
I42
VSimpleName: getShort
p566
tp567
a(Vinsert
p568
I42
VSimpleName: getSpanNames
p569
tp570
a(Vinsert
p571
I42
VSimpleName: inputStream
p572
tp573
a(Vinsert
p574
I42
VSimpleName: getSimpleName
p575
tp576
a(Vinsert
p577
I42
VSimpleName: getProperty
p578
tp579
a(Vinsert
p580
I42
VSimpleName: openConnection
p581
tp582
a(Vinsert
p583
I42
VSimpleName: spans
p584
tp585
a(Vinsert
p586
I42
VSimpleName: append
p587
tp588
a(Vinsert
p589
I42
VSimpleName: nullable
p590
tp591
a(Vinsert
p592
I42
VSimpleName: newBuilder
p593
tp594
a(Vinsert
p595
I42
VSimpleName: addPostInterceptor
p596
tp597
a(Vinsert
p598
I42
VSimpleName: getURI
p599
tp600
a(Vinsert
p601
I42
VSimpleName: getUsername
p602
tp603
a(Vinsert
p604
I42
VSimpleName: getExecutionInfo
p605
tp606
a(Vinsert
p607
I42
VSimpleName: setResponseCode
p608
tp609
a(Vinsert
p610
I42
VSimpleName: filter
p611
tp612
a(Vinsert
p613
I42
VSimpleName: endArray
p614
tp615
a(Vinsert
p616
I42
VSimpleName: getCredentials
p617
tp618
a(Vinsert
p619
I42
VSimpleName: addPathSegment
p620
tp621
a(Vinsert
p622
I42
VSimpleName: matchAllQuery
p623
tp624
a(Vinsert
p625
I42
VSimpleName: writeNestedList
p626
tp627
a(Vinsert
p628
I42
VSimpleName: intValue
p629
tp630
a(Vinsert
p631
I42
VSimpleName: info
p632
tp633
a(Vinsert
p634
I42
VSimpleName: checkExists
p635
tp636
a(Vinsert
p637
I42
VSimpleName: add
p638
tp639
a(Vinsert
p640
I42
VSimpleName: getConnectedHosts
p641
tp642
a(Vinsert
p643
I42
VSimpleName: asyncToGuava
p644
tp645
a(Vinsert
p646
I42
VSimpleName: getTimeZone
p647
tp648
a(Vinsert
p649
I42
VSimpleName: sessionProvider
p650
tp651
a(Vinsert
p652
I42
VSimpleName: getAggregations
p653
tp654
a(Vinsert
p655
I42
VSimpleName: finishSpan
p656
tp657
a(Vinsert
p658
I42
VSimpleName: execute
p659
tp660
a(Vinsert
p661
I42
VSimpleName: errorReading
p662
tp663
a(Vinsert
p664
I42
VSimpleName: annotationKeys
p665
tp666
a(Vinsert
p667
I42
VSimpleName: isSuccessful
p668
tp669
a(Vinsert
p670
I42
VSimpleName: getApplicationContext
p671
tp672
a(Vinsert
p673
I42
VSimpleName: asyncSpanConsumer
p674
tp675
a(Vinsert
p676
I42
VSimpleName: nextString
p677
tp678
a(Vinsert
p679
I42
VSimpleName: ne
p680
tp681
a(Vinsert
p682
I42
VSimpleName: setPassword
p683
tp684
a(Vinsert
p685
I42
VSimpleName: hasNext
p686
tp687
a(Vinsert
p688
I42
VSimpleName: isNotNegative
p689
tp690
a(Vinsert
p691
I42
VSimpleName: length
p692
tp693
a(Vinsert
p694
I42
VSimpleName: getBytes
p695
tp696
a(Vinsert
p697
I42
VSimpleName: iterator
p698
tp699
a(Vinsert
p700
I42
VSimpleName: resolve
p701
tp702
a(Vinsert
p703
I42
VSimpleName: toSet
p704
tp705
a(Vinsert
p706
I42
VSimpleName: getAnnotations
p707
tp708
a(Vinsert
p709
I42
VSimpleName: shutdown
p710
tp711
a(Vinsert
p712
I42
VSimpleName: delegate
p713
tp714
a(Vinsert
p715
I42
VSimpleName: executeAsync
p716
tp717
a(Vinsert
p718
I42
VSimpleName: hasSize
p719
tp720
a(Vinsert
p721
I42
VSimpleName: singletonList
p722
tp723
a(Vinsert
p724
I42
VSimpleName: doesNotContain
p725
tp726
a(Vinsert
p727
I42
VSimpleName: writeTo
p728
tp729
a(Vinsert
p730
I42
VSimpleName: replace
p731
tp732
a(Vinsert
p733
I42
VSimpleName: isSetKey
p734
tp735
a(Vinsert
p736
I42
VSimpleName: getMethod
p737
tp738
a(Vinsert
p739
I42
VSimpleName: newLinkedHashSet
p740
tp741
a(Vinsert
p742
I42
VSimpleName: toString
p743
tp744
a(Vinsert
p745
I42
VSimpleName: addInterceptor
p746
tp747
a(Vinsert
p748
I42
VSimpleName: endTs
p749
tp750
a(Vinsert
p751
I42
VSimpleName: setLong
p752
tp753
a(Vinsert
p754
I42
VSimpleName: charAt
p755
tp756
a(Vinsert
p757
I42
VSimpleName: startNewSpan
p758
tp759
a(Vinsert
p760
I42
VSimpleName: close
p761
tp762
a(Vinsert
p763
I42
VSimpleName: isIdempotent
p764
tp765
a(Vinsert
p766
I42
VSimpleName: singleTypeIndexingEnabled
p767
tp768
a(Vinsert
p769
I42
VSimpleName: refresh
p770
tp771
a(Vinsert
p772
I42
VSimpleName: format
p773
tp774
a(Vinsert
p775
I42
VSimpleName: setTrace_id_high
p776
tp777
a(Vinsert
p778
I42
VSimpleName: asyncSpanStore
p779
tp780
a(Vinsert
p781
I42
VSimpleName: getTime
p782
tp783
a(Vinsert
p784
I42
VSimpleName: strictTraceId
p785
tp786
a(Vinsert
p787
I42
VSimpleName: contains
p788
tp789
a(Vinsert
p790
I42
VSimpleName: emptyList
p791
tp792
a(Vinsert
p793
I42
VSimpleName: encode
p794
tp795
a(Vinsert
p796
I42
VSimpleName: next
p797
tp798
a(Vinsert
p799
I42
VSimpleName: min
p800
tp801
a(Vinsert
p802
I42
VSimpleName: getMetadata
p803
tp804
a(Vinsert
p805
I42
VSimpleName: flatMap
p806
tp807
a(Vinsert
p808
I42
VSimpleName: serverTracer
p809
tp810
a(Vinsert
p811
I42
VSimpleName: enqueue
p812
tp813
a(Vinsert
p814
I42
VSimpleName: getByName
p815
tp816
a(Vinsert
p817
I42
VSimpleName: traceId
p818
tp819
a(Vinsert
p820
I42
VSimpleName: incrementSpans
p821
tp822
a(Vinsert
p823
I42
VSimpleName: writeEndpoint
p824
tp825
a(Vinsert
p826
I42
VSimpleName: post
p827
tp828
a(Vinsert
p829
I42
VSimpleName: log
p830
tp831
a(Vinsert
p832
I42
VSimpleName: readSpans
p833
tp834
a(Vinsert
p835
I42
VSimpleName: read
p836
tp837
a(Vinsert
p838
I42
VSimpleName: localEndpoint
p839
tp840
a(Vinsert
p841
I42
VSimpleName: webAppContextSetup
p842
tp843
a(Vinsert
p844
I42
VSimpleName: start
p845
tp846
a(Vinsert
p847
I42
VSimpleName: debug
p848
tp849
a(Vinsert
p850
I42
VSimpleName: baseUrl
p851
tp852
a(Vinsert
p853
I42
VSimpleName: cancel
p854
tp855
a(Vinsert
p856
I42
VSimpleName: indexTtl
p857
tp858
a(Vinsert
p859
I42
VSimpleName: await
p860
tp861
a(Vinsert
p862
I42
VSimpleName: content
p863
tp864
a(Vinsert
p865
I42
VSimpleName: bytes
p866
tp867
a(Vinsert
p868
I42
VSimpleName: keyspace
p869
tp870
a(Vinsert
p871
I42
VSimpleName: maybeExecuteAsync
p872
tp873
a(Vinsert
p874
I42
VSimpleName: endpoint
p875
tp876
a(Vinsert
p877
I42
VSimpleName: toEndpoint
p878
tp879
a(Vinsert
p880
I42
VSimpleName: extracting
p881
tp882
a(Vinsert
p883
I42
VSimpleName: isSetParent_id
p884
tp885
a(Vinsert
p886
I42
VSimpleName: getUninterruptibly
p887
tp888
a(Vinsert
p889
I42
VSimpleName: sortedList
p890
tp891
a(Vinsert
p892
I42
VSimpleName: incrementBytes
p893
tp894
a(Vinsert
p895
I42
VSimpleName: fine
p896
tp897
a(Vinsert
p898
I42
VSimpleName: indexCacheMax
p899
tp900
a(Vinsert
p901
I42
VSimpleName: sendSpans
p902
tp903
a(Vinsert
p904
I42
VSimpleName: getTotalHits
p905
tp906
a(Vinsert
p907
I42
VSimpleName: isInstanceOf
p908
tp909
a(Vinsert
p910
I42
VSimpleName: internalDelegate
p911
tp912
a(Vinsert
p913
I42
VSimpleName: idString
p914
tp915
a(Vinsert
p916
I42
VSimpleName: include
p917
tp918
a(Vinsert
p919
I42
VSimpleName: toCharArray
p920
tp921
a(Vinsert
p922
I42
VSimpleName: incrementAndGet
p923
tp924
a(Vinsert
p925
I42
VSimpleName: forThriftServer
p926
tp927
a(Vinsert
p928
I42
VSimpleName: getTracesByIds
p929
tp930
a(Vinsert
p931
I42
VSimpleName: traceFilters
p932
tp933
a(Vinsert
p934
I42
VSimpleName: parent
p935
tp936
a(Vinsert
p937
I42
VSimpleName: parseInt
p938
tp939
a(Vinsert
p940
I42
VSimpleName: cluster
p941
tp942
a(Vinsert
p943
I42
VSimpleName: emptyMap
p944
tp945
a(Vinsert
p946
I42
VSimpleName: retry
p947
tp948
a(Vinsert
p949
I42
VSimpleName: getProtectionDomain
p950
tp951
a(Vinsert
p952
I42
VSimpleName: proceed
p953
tp954
a(Vinsert
p955
I42
VSimpleName: isDefined
p956
tp957
a(Vinsert
p958
I42
VSimpleName: create
p959
tp960
a(Vinsert
p961
I42
VSimpleName: collect
p962
tp963
a(Vinsert
p964
I42
VSimpleName: readList
p965
tp966
a(Vinsert
p967
I42
VSimpleName: asList
p968
tp969
a(Vinsert
p970
I42
VSimpleName: withDefaultPort
p971
tp972
a(Vinsert
p973
I42
VSimpleName: setParameter
p974
tp975
a(Vinsert
p976
I42
VSimpleName: getMethodName
p977
tp978
a(Vinsert
p979
I42
VSimpleName: getParameterValues
p980
tp981
a(Vinsert
p982
I42
VSimpleName: acceptedMessage
p983
tp984
a(Vinsert
p985
I42
VSimpleName: accept
p986
tp987
a(Vinsert
p988
I42
VSimpleName: using
p989
tp990
a(Vinsert
p991
I42
VSimpleName: getValue
p992
tp993
a(Vinsert
p994
I42
VSimpleName: serviceName
p995
tp996
a(Vinsert
p997
I42
VSimpleName: must
p998
tp999
a(Vinsert
p1000
I42
VSimpleName: newFixedThreadPool
p1001
tp1002
a(Vinsert
p1003
I42
VSimpleName: of
p1004
tp1005
a(Vinsert
p1006
I42
VSimpleName: write
p1007
tp1008
a(Vinsert
p1009
I42
VSimpleName: annotations
p1010
tp1011
a(Vinsert
p1012
I42
VSimpleName: addDeploymentInfoCustomizers
p1013
tp1014
a(Vinsert
p1015
I42
VSimpleName: toMillis
p1016
tp1017
a(Vinsert
p1018
I42
VSimpleName: forIndicesAndType
p1019
tp1020
a(Vinsert
p1021
I42
VSimpleName: getenv
p1022
tp1023
a(Vinsert
p1024
I42
VSimpleName: when
p1025
tp1026
a(Vinsert
p1027
I42
VSimpleName: isAccepted
p1028
tp1029
a(Vinsert
p1030
I42
VSimpleName: addResourceHandler
p1031
tp1032
a(Vinsert
p1033
I42
VSimpleName: fromJson
p1034
tp1035
a(Vinsert
p1036
I42
VSimpleName: datasource
p1037
tp1038
a(Vinsert
p1039
I42
VSimpleName: remoteEndpoint
p1040
tp1041
a(Vinsert
p1042
I42
VSimpleName: checkNotNull
p1043
tp1044
a(Vinsert
p1045
I42
VSimpleName: request
p1046
tp1047
a(Vinsert
p1048
I42
VSimpleName: code
p1049
tp1050
a(Vinsert
p1051
I42
VSimpleName: getDays
p1052
tp1053
a(Vinsert
p1054
I42
VSimpleName: getBody
p1055
tp1056
a(Vinsert
p1057
I42
VSimpleName: decodeList
p1058
tp1059
a(Vinsert
p1060
I42
VSimpleName: readStructBegin
p1061
tp1062
a(Vinsert
p1063
I42
VSimpleName: setParent_id
p1064
tp1065
a(Vinsert
p1066
I42
VSimpleName: order
p1067
tp1068
a(Vinsert
p1069
I42
VSimpleName: writeDependencyLink
p1070
tp1071
a(Vinsert
p1072
I42
VSimpleName: readSpan
p1073
tp1074
a(Vinsert
p1075
I42
VSimpleName: putAll
p1076
tp1077
a(Vinsert
p1078
I42
VSimpleName: perform
p1079
tp1080
a(Vinsert
p1081
I42
VSimpleName: getTable
p1082
tp1083
a(Vinsert
p1084
I42
VSimpleName: port
p1085
tp1086
a(Vinsert
p1087
I42
VSimpleName: arraycopy
p1088
tp1089
a(Vinsert
p1090
I42
VSimpleName: abs
p1091
tp1092
a(Vinsert
p1093
I42
VSimpleName: withRenderSchema
p1094
tp1095
a(Vinsert
p1096
I42
VSimpleName: unmodifiableSet
p1097
tp1098
a(Vinsert
p1099
I42
VSimpleName: dateSeparator
p1100
tp1101
a(Vinsert
p1102
I42
VSimpleName: getAttribute
p1103
tp1104
a(Vinsert
p1105
I42
VSimpleName: build
p1106
tp1107
a(Vinsert
p1108
I42
VSimpleName: parallel
p1109
tp1110
a(Vinsert
p1111
I42
VSimpleName: isRunning
p1112
tp1113
a(Vinsert
p1114
I42
VSimpleName: getOverrides
p1115
tp1116
a(Vinsert
p1117
I42
VSimpleName: substring
p1118
tp1119
a(Vinsert
p1120
I42
VSimpleName: apply
p1121
tp1122
a(Vinsert
p1123
I42
VSimpleName: forName
p1124
tp1125
a(Vinsert
p1126
I42
VSimpleName: findAll
p1127
tp1128
a(Vinsert
p1129
I42
VSimpleName: setJsonObject
p1130
tp1131
a(Vinsert
p1132
I42
VSimpleName: should
p1133
tp1134
a(Vinsert
p1135
I42
VSimpleName: executor
p1136
tp1137
a(Vinsert
p1138
I42
VSimpleName: localTracer
p1139
tp1140
a(Vinsert
p1141
I42
VSimpleName: connect
p1142
tp1143
a(Vinsert
p1144
I42
VSimpleName: from
p1145
tp1146
a(Vinsert
p1147
I42
VSimpleName: httpUrl
p1148
tp1149
a(Vinsert
p1150
I42
VSimpleName: getHits
p1151
tp1152
a(Vinsert
p1153
I42
VSimpleName: get
p1154
tp1155
a(Vinsert
p1156
I42
VSimpleName: prepareBulk
p1157
tp1158
a(Vinsert
p1159
I42
VSimpleName: values
p1160
tp1161
a(Vinsert
p1162
I42
VSimpleName: ip
p1163
tp1164
a(Vinsert
p1165
I42
VSimpleName: indexFetchMultiplier
p1166
tp1167
a(Vinsert
p1168
I42
VSimpleName: shared
p1169
tp1170
a(Vinsert
p1171
I42
VSimpleName: sort
p1172
tp1173
a(Vinsert
p1174
I42
VSimpleName: assertEqual
p1175
tp1176
a(Vinsert
p1177
I42
VSimpleName: indexReplicas
p1178
tp1179
a(Vinsert
p1180
I42
VSimpleName: caService
p1181
tp1182
a(Vinsert
p1183
I42
VSimpleName: session
p1184
tp1185
a(Vinsert
p1186
I42
VSimpleName: writeAscii
p1187
tp1188
a(Vinsert
p1189
I42
VSimpleName: addBinaryAnnotation
p1190
tp1191
a(Vinsert
p1192
I42
VSimpleName: setLevel
p1193
tp1194
a(Vinsert
p1195
I42
VSimpleName: getVersion
p1196
tp1197
a(Vinsert
p1198
I42
VSimpleName: failed
p1199
tp1200
a(Vinsert
p1201
I42
VSimpleName: parentId
p1202
tp1203
a(Vinsert
p1204
I42
VSimpleName: sampler
p1205
tp1206
a(Vinsert
p1207
I42
VSimpleName: isSampled
p1208
tp1209
a(Vinsert
p1210
I42
VSimpleName: setString
p1211
tp1212
a(Vinsert
p1213
I42
VSimpleName: getInetAddresses
p1214
tp1215
a(Vinsert
p1216
I42
VSimpleName: check
p1217
tp1218
a(Vinsert
p1219
I42
VSimpleName: adapter
p1220
tp1221
a(Vinsert
p1222
I42
VSimpleName: duration
p1223
tp1224
a(Vinsert
p1225
I42
VSimpleName: jsonEscape
p1226
tp1227
a(Vinsert
p1228
I42
VSimpleName: getString
p1229
tp1230
a(Vinsert
p1231
I42
VSimpleName: isFalse
p1232
tp1233
a(Vinsert
p1234
I42
VSimpleName: encodedPath
p1235
tp1236
a(Vinsert
p1237
I42
VSimpleName: dispatcher
p1238
tp1239
a(Vinsert
p1240
I42
VSimpleName: toLowerCase
p1241
tp1242
a(Vinsert
p1243
I42
VSimpleName: forTransport
p1244
tp1245
a(Vinsert
p1246
I42
VSimpleName: getEnvironment
p1247
tp1248
a(Vinsert
p1249
I42
VSimpleName: setSize
p1250
tp1251
a(Vinsert
p1252
I42
VSimpleName: name
p1253
tp1254
a(Vinsert
p1255
I42
VSimpleName: getHigh
p1256
tp1257
a(Vinsert
p1258
I42
VSimpleName: beginArray
p1259
tp1260
a(Vinsert
p1261
I42
VSimpleName: getTimestamp
p1262
tp1263
a(Vinsert
p1264
I42
VSimpleName: valueOf
p1265
tp1266
a(Vinsert
p1267
I42
VSimpleName: isCanceled
p1268
tp1269
a(Vinsert
p1270
I42
VSimpleName: getName
p1271
tp1272
a(Vinsert
p1273
I42
VSimpleName: run
p1274
tp1275
a(Vinsert
p1276
I42
VSimpleName: getServiceNames
p1277
tp1278
a(Vinsert
p1279
I42
VSimpleName: id
p1280
tp1281
a(Vinsert
p1282
I42
VSimpleName: acceptSpans
p1283
tp1284
a(Vinsert
p1285
I42
VSimpleName: parseIp
p1286
tp1287
a(Vinsert
p1288
I42
VSimpleName: setConsistencyLevel
p1289
tp1290
a(Vinsert
p1291
I42
VSimpleName: pipeline
p1292
tp1293
a(Vinsert
p1294
I42
VSimpleName: putIfAbsent
p1295
tp1296
a(Vinsert
p1297
I42
VSimpleName: flush
p1298
tp1299
a(Vinsert
p1300
I42
VSimpleName: catchAll
p1301
tp1302
a(Vinsert
p1303
I42
VSimpleName: maxRequests
p1304
tp1305
a(Vinsert
p1306
I42
VSimpleName: setBootstrapServers
p1307
tp1308
a(Vinsert
p1309
I42
VSimpleName: fromSpan
p1310
tp1311
a(Vinsert
p1312
I42
VSimpleName: toByteArray
p1313
tp1314
a(Vinsert
p1315
I42
VSimpleName: guessTimestamp
p1316
tp1317
a(Vinsert
p1318
I42
VSimpleName: timestamp
p1319
tp1320
a(Vinsert
p1321
I42
VSimpleName: reset
p1322
tp1323
a(Vinsert
p1324
I42
VSimpleName: hmacSha256
p1325
tp1326
a(Vinsert
p1327
I42
VSimpleName: addNetworkInterceptor
p1328
tp1329
a(Vinsert
p1330
I42
VSimpleName: getRawTrace
p1331
tp1332
a(Vinsert
p1333
I42
VSimpleName: thenThrow
p1334
tp1335
a(Vinsert
p1336
I42
VSimpleName: equals
p1337
tp1338
a(Vinsert
p1339
I42
VSimpleName: test
p1340
tp1341
a(Vinsert
p1342
I42
VSimpleName: immediateFailedFuture
p1343
tp1344
a(Vinsert
p1345
I42
VSimpleName: put
p1346
tp1347
a(Vinsert
p1348
I42
VSimpleName: hasMessage
p1349
tp1350
a(Vinsert
p1351
I42
VSimpleName: producerConfigWithDefaultEncoder
p1352
tp1353
a(Vinsert
p1354
I42
VSimpleName: convert
p1355
tp1356
a(Vinsert
p1357
I42
VSimpleName: legacyReadsEnabled
p1358
tp1359
a(Vinsert
p1360
I42
VSimpleName: uncheckedIOException
p1361
tp1362
a(Vinsert
p1363
I42
VSimpleName: hasToString
p1364
tp1365
a(Vinsert
p1366
I42
VSimpleName: writeSpans
p1367
tp1368
a(Vinsert
p1369
I42
VSimpleName: writeUtf8
p1370
tp1371
a(Vinsert
p1372
I42
VSimpleName: isZero
p1373
tp1374
a(Vinsert
p1375
I42
VSimpleName: getBean
p1376
tp1377
a(Vinsert
p1378
I42
VSimpleName: csService
p1379
tp1380
a(Vinsert
p1381
I42
VSimpleName: noMatch
p1382
tp1383
a(Vinsert
p1384
I42
VSimpleName: legacyAsyncSpanStore
p1385
tp1386
a(Vinsert
p1387
I42
VSimpleName: setConnectionTestQuery
p1388
tp1389
a(Vinsert
p1390
I42
VSimpleName: toLowerHex
p1391
tp1392
a(Vinsert
p1393
I42
VSimpleName: setMaxQueueSize
p1394
tp1395
a(Vinsert
p1396
I42
VSimpleName: getListenable
p1397
tp1398
a(Vinsert
p1399
I42
VSimpleName: max
p1400
tp1401
a(Vinsert
p1402
I42
VSimpleName: callWithTimeout
p1403
tp1404
a(Vinsert
p1405
I42
VSimpleName: escape
p1406
tp1407
a(Vinsert
p1408
I42
VSimpleName: ipv4
p1409
tp1410
a(Vinsert
p1411
I42
VSimpleName: client
p1412
tp1413
a(Vinsert
p1414
I42
VSimpleName: version
p1415
tp1416
a(Vinsert
p1417
I42
VSimpleName: writeList
p1418
tp1419
a(Vinsert
p1420
I42
VSimpleName: size
p1421
tp1422
a(Vinsert
p1423
I42
VSimpleName: map
p1424
tp1425
a(Vinsert
p1426
I42
VSimpleName: warn
p1427
tp1428
a(Vinsert
p1429
I42
VSimpleName: writeAnnotation
p1430
tp1431
a(Vinsert
p1432
I42
VSimpleName: setHeader
p1433
tp1434
a(Vinsert
p1435
I42
VSimpleName: hostsSupplier
p1436
tp1437
a(Vinsert
p1438
I42
VSimpleName: isJsonArray
p1439
tp1440
a(Vinsert
p1441
I42
VSimpleName: getLogsUrl
p1442
tp1443
a(Vinsert
p1444
I42
VSimpleName: setUUID
p1445
tp1446
a(Vinsert
p1447
I42
VSimpleName: errorCount
p1448
tp1449
a(Vinsert
p1450
I42
VSimpleName: spanConsumer
p1451
tp1452
a(Vinsert
p1453
I42
VSimpleName: newSingleThreadExecutor
p1454
tp1455
a.