(lp0
(Vinsert
p1
I42
VSimpleName: transforms
p2
tp3
a(Vinsert
p4
I42
VSimpleName: transcode
p5
tp6
a(Vinsert
p7
I42
VSimpleName: getImageExact
p8
tp9
a(Vinsert
p10
I42
VSimpleName: getAlpha
p11
tp12
a(Vinsert
p13
I42
VSimpleName: getData
p14
tp15
a(Vinsert
p16
I42
VSimpleName: resetFrameIndex
p17
tp18
a(Vinsert
p19
I42
VSimpleName: isLowMemoryDevice
p20
tp21
a(Vinsert
p22
I42
VSimpleName: getDecodeOptions
p23
tp24
a(Vinsert
p25
I42
VSimpleName: getBaseContext
p26
tp27
a(Vinsert
p28
I42
VSimpleName: allocate
p29
tp30
a(Vinsert
p31
I42
VSimpleName: isLaidOut
p32
tp33
a(Vinsert
p34
I42
VSimpleName: as
p35
tp36
a(Vinsert
p37
I42
VSimpleName: removeCallback
p38
tp39
a(Vinsert
p40
I42
VSimpleName: getSnapshot
p41
tp42
a(Vinsert
p43
I42
VSimpleName: setImageManager
p44
tp45
a(Vinsert
p46
I42
VSimpleName: getPhotoURL
p47
tp48
a(Vinsert
p49
I42
VSimpleName: checkArgument
p50
tp51
a(Vinsert
p52
I42
VSimpleName: getContext
p53
tp54
a(Vinsert
p55
I42
VSimpleName: reset
p56
tp57
a(Vinsert
p58
I42
VSimpleName: registerComponents
p59
tp60
a(Vinsert
p61
I42
VSimpleName: willDecodeFromCache
p62
tp63
a(Vinsert
p64
I42
VSimpleName: addTab
p65
tp66
a(Vinsert
p67
I42
VSimpleName: builder
p68
tp69
a(Vinsert
p70
I42
VSimpleName: release
p71
tp72
a(Vinsert
p73
I42
VSimpleName: available
p74
tp75
a(Vinsert
p76
I42
VSimpleName: setResults
p77
tp78
a(Vinsert
p79
I42
VSimpleName: getIntrinsicWidth
p80
tp81
a(Vinsert
p82
I42
VSimpleName: isEmpty
p83
tp84
a(Vinsert
p85
I42
VSimpleName: setDoOutput
p86
tp87
a(Vinsert
p88
I42
VSimpleName: getCause
p89
tp90
a(Vinsert
p91
I42
VSimpleName: doLoad
p92
tp93
a(Vinsert
p94
I42
VSimpleName: getAllocationByteCount
p95
tp96
a(Vinsert
p97
I42
VSimpleName: setOnImageSetCallback
p98
tp99
a(Vinsert
p100
I42
VSimpleName: getMainHandler
p101
tp102
a(Vinsert
p103
I42
VSimpleName: renderToPicture
p104
tp105
a(Vinsert
p106
I42
VSimpleName: newRequestQueue
p107
tp108
a(Vinsert
p109
I42
VSimpleName: onSearchFailed
p110
tp111
a(Vinsert
p112
I42
VSimpleName: poll
p113
tp114
a(Vinsert
p115
I42
VSimpleName: elapsedRealtimeNanos
p116
tp117
a(Vinsert
p118
I42
VSimpleName: getTag
p119
tp120
a(Vinsert
p121
I42
VSimpleName: stop
p122
tp123
a(Vinsert
p124
I42
VSimpleName: getRequestQueue
p125
tp126
a(Vinsert
p127
I42
VSimpleName: asBitmap
p128
tp129
a(Vinsert
p130
I42
VSimpleName: entrySet
p131
tp132
a(Vinsert
p133
I42
VSimpleName: getTypeArguments
p134
tp135
a(Vinsert
p136
I42
VSimpleName: getConstructor
p137
tp138
a(Vinsert
p139
I42
VSimpleName: isNull
p140
tp141
a(Vinsert
p142
I42
VSimpleName: buildTarget
p143
tp144
a(Vinsert
p145
I42
VSimpleName: unmodifiableSet
p146
tp147
a(Vinsert
p148
I42
VSimpleName: useUnlimitedSourceGeneratorsPool
p149
tp150
a(Vinsert
p151
I42
VSimpleName: getByteSize
p152
tp153
a(Vinsert
p154
I42
VSimpleName: header
p155
tp156
a(Vinsert
p157
I42
VSimpleName: array
p158
tp159
a(Vinsert
p160
I42
VSimpleName: getNextFrame
p161
tp162
a(Vinsert
p163
I42
VSimpleName: equalsIgnoreCase
p164
tp165
a(Vinsert
p166
I42
VSimpleName: openStream
p167
tp168
a(Vinsert
p169
I42
VSimpleName: isLayoutRequested
p170
tp171
a(Vinsert
p172
I42
VSimpleName: delete
p173
tp174
a(Vinsert
p175
I42
VSimpleName: setRequestListener
p176
tp177
a(Vinsert
p178
I42
VSimpleName: isLoggable
p179
tp180
a(Vinsert
p181
I42
VSimpleName: eq
p182
tp183
a(Vinsert
p184
I42
VSimpleName: getSourceEncoder
p185
tp186
a(Vinsert
p187
I42
VSimpleName: asBitmapDrawable
p188
tp189
a(Vinsert
p190
I42
VSimpleName: setCurrentItem
p191
tp192
a(Vinsert
p193
I42
VSimpleName: resetPlaceHolder
p194
tp195
a(Vinsert
p196
I42
VSimpleName: subList
p197
tp198
a(Vinsert
p199
I42
VSimpleName: getConfig
p200
tp201
a(Vinsert
p202
I42
VSimpleName: frame
p203
tp204
a(Vinsert
p205
I42
VSimpleName: calculateScaling
p206
tp207
a(Vinsert
p208
I42
VSimpleName: rejectBitmap
p209
tp210
a(Vinsert
p211
I42
VSimpleName: runOnMainThread
p212
tp213
a(Vinsert
p214
I42
VSimpleName: getInt
p215
tp216
a(Vinsert
p217
I42
VSimpleName: setHeight
p218
tp219
a(Vinsert
p220
I42
VSimpleName: getCalculator
p221
tp222
a(Vinsert
p223
I42
VSimpleName: print
p224
tp225
a(Vinsert
p226
I42
VSimpleName: getResourceClass
p227
tp228
a(Vinsert
p229
I42
VSimpleName: toArray
p230
tp231
a(Vinsert
p232
I42
VSimpleName: getMaxSize
p233
tp234
a(Vinsert
p235
I42
VSimpleName: getErrorPlaceholder
p236
tp237
a(Vinsert
p238
I42
VSimpleName: toURL
p239
tp240
a(Vinsert
p241
I42
VSimpleName: getDefaultOptions
p242
tp243
a(Vinsert
p244
I42
VSimpleName: round
p245
tp246
a(Vinsert
p247
I42
VSimpleName: setRequestCoordinator
p248
tp249
a(Vinsert
p250
I42
VSimpleName: getGlideContext
p251
tp252
a(Vinsert
p253
I42
VSimpleName: setPreferredConfig
p254
tp255
a(Vinsert
p256
I42
VSimpleName: getStream
p257
tp258
a(Vinsert
p259
I42
VSimpleName: assertBackgroundThread
p260
tp261
a(Vinsert
p262
I42
VSimpleName: loadResource
p263
tp264
a(Vinsert
p265
I42
VSimpleName: setDimens
p266
tp267
a(Vinsert
p268
I42
VSimpleName: recycle
p269
tp270
a(Vinsert
p271
I42
VSimpleName: setImageView
p272
tp273
a(Vinsert
p274
I42
VSimpleName: isClosed
p275
tp276
a(Vinsert
p277
I42
VSimpleName: set
p278
tp279
a(Vinsert
p280
I42
VSimpleName: formatFileSize
p281
tp282
a(Vinsert
p283
I42
VSimpleName: initialize
p284
tp285
a(Vinsert
p286
I42
VSimpleName: isEquivalentTo
p287
tp288
a(Vinsert
p289
I42
VSimpleName: buildDataProvider
p290
tp291
a(Vinsert
p292
I42
VSimpleName: getTranscodeClasses
p293
tp294
a(Vinsert
p295
I42
VSimpleName: remove
p296
tp297
a(Vinsert
p298
I42
VSimpleName: setThreadPriority
p299
tp300
a(Vinsert
p301
I42
VSimpleName: pause
p302
tp303
a(Vinsert
p304
I42
VSimpleName: getOnlyRetrieveFromCache
p305
tp306
a(Vinsert
p307
I42
VSimpleName: getRequest
p308
tp309
a(Vinsert
p310
I42
VSimpleName: inOrder
p311
tp312
a(Vinsert
p313
I42
VSimpleName: isAnimated
p314
tp315
a(Vinsert
p316
I42
VSimpleName: preFill
p317
tp318
a(Vinsert
p319
I42
VSimpleName: success
p320
tp321
a(Vinsert
p322
I42
VSimpleName: removeRequest
p323
tp324
a(Vinsert
p325
I42
VSimpleName: forSourceLines
p326
tp327
a(Vinsert
p328
I42
VSimpleName: fill
p329
tp330
a(Vinsert
p331
I42
VSimpleName: asReadOnlyBuffer
p332
tp333
a(Vinsert
p334
I42
VSimpleName: floor
p335
tp336
a(Vinsert
p337
I42
VSimpleName: setAssetModel
p338
tp339
a(Vinsert
p340
I42
VSimpleName: onFrameReady
p341
tp342
a(Vinsert
p343
I42
VSimpleName: buildLoadData
p344
tp345
a(Vinsert
p346
I42
VSimpleName: arraycopy
p347
tp348
a(Vinsert
p349
I42
VSimpleName: setThumbPresenterBuilder
p350
tp351
a(Vinsert
p352
I42
VSimpleName: getByteArrayPool
p353
tp354
a(Vinsert
p355
I42
VSimpleName: getCacheableUrl
p356
tp357
a(Vinsert
p358
I42
VSimpleName: url
p359
tp360
a(Vinsert
p361
I42
VSimpleName: clearColorFilter
p362
tp363
a(Vinsert
p364
I42
VSimpleName: onStreamReady
p365
tp366
a(Vinsert
p367
I42
VSimpleName: postDelayed
p368
tp369
a(Vinsert
p370
I42
VSimpleName: getAnnotation
p371
tp372
a(Vinsert
p373
I42
VSimpleName: setInstanceFollowRedirects
p374
tp375
a(Vinsert
p376
I42
VSimpleName: removeCallbacksAndMessages
p377
tp378
a(Vinsert
p379
I42
VSimpleName: getLoadPaths
p380
tp381
a(Vinsert
p382
I42
VSimpleName: abortUnlessCommitted
p383
tp384
a(Vinsert
p385
I42
VSimpleName: forClass
p386
tp387
a(Vinsert
p388
I42
VSimpleName: onResourceRemoved
p389
tp390
a(Vinsert
p391
I42
VSimpleName: buildStreamModelLoader
p392
tp393
a(Vinsert
p394
I42
VSimpleName: dontTransition
p395
tp396
a(Vinsert
p397
I42
VSimpleName: canNotifyStatusChanged
p398
tp399
a(Vinsert
p400
I42
VSimpleName: beginTransaction
p401
tp402
a(Vinsert
p403
I42
VSimpleName: abort
p404
tp405
a(Vinsert
p406
I42
VSimpleName: isRecycled
p407
tp408
a(Vinsert
p409
I42
VSimpleName: getCurrent
p410
tp411
a(Vinsert
p412
I42
VSimpleName: track
p413
tp414
a(Vinsert
p415
I42
VSimpleName: onDownloadReady
p416
tp417
a(Vinsert
p418
I42
VSimpleName: notifyAll
p419
tp420
a(Vinsert
p421
I42
VSimpleName: setData
p422
tp423
a(Vinsert
p424
I42
VSimpleName: asType
p425
tp426
a(Vinsert
p427
I42
VSimpleName: setDiskCache
p428
tp429
a(Vinsert
p430
I42
VSimpleName: getAssets
p431
tp432
a(Vinsert
p433
I42
VSimpleName: loaderClass
p434
tp435
a(Vinsert
p436
I42
VSimpleName: circleCrop
p437
tp438
a(Vinsert
p439
I42
VSimpleName: getDiskCache
p440
tp441
a(Vinsert
p442
I42
VSimpleName: isEqualTo
p443
tp444
a(Vinsert
p445
I42
VSimpleName: or
p446
tp447
a(Vinsert
p448
I42
VSimpleName: optionalCenterInside
p449
tp450
a(Vinsert
p451
I42
VSimpleName: getErrorDrawable
p452
tp453
a(Vinsert
p454
I42
VSimpleName: getCharContent
p455
tp456
a(Vinsert
p457
I42
VSimpleName: parse
p458
tp459
a(Vinsert
p460
I42
VSimpleName: hashCode
p461
tp462
a(Vinsert
p463
I42
VSimpleName: transitionUsing
p464
tp465
a(Vinsert
p466
I42
VSimpleName: shadowOf
p467
tp468
a(Vinsert
p469
I42
VSimpleName: singleton
p470
tp471
a(Vinsert
p472
I42
VSimpleName: newUnlimitedSourceExecutor
p473
tp474
a(Vinsert
p475
I42
VSimpleName: copyOf
p476
tp477
a(Vinsert
p478
I42
VSimpleName: shadowOf_
p479
tp480
a(Vinsert
p481
I42
VSimpleName: onDataFetcherFailed
p482
tp483
a(Vinsert
p484
I42
VSimpleName: hasAlpha
p485
tp486
a(Vinsert
p487
I42
VSimpleName: lock
p488
tp489
a(Vinsert
p490
I42
VSimpleName: keySet
p491
tp492
a(Vinsert
p493
I42
VSimpleName: getSystemService
p494
tp495
a(Vinsert
p496
I42
VSimpleName: loadStream
p497
tp498
a(Vinsert
p499
I42
VSimpleName: useAnimationPool
p500
tp501
a(Vinsert
p502
I42
VSimpleName: cleanup
p503
tp504
a(Vinsert
p505
I42
VSimpleName: getTranscodeClass
p506
tp507
a(Vinsert
p508
I42
VSimpleName: getParentFragment
p509
tp510
a(Vinsert
p511
I42
VSimpleName: getInstance
p512
tp513
a(Vinsert
p514
I42
VSimpleName: isPaused
p515
tp516
a(Vinsert
p517
I42
VSimpleName: edit
p518
tp519
a(Vinsert
p520
I42
VSimpleName: getElementsFor
p521
tp522
a(Vinsert
p523
I42
VSimpleName: getAbsolutePath
p524
tp525
a(Vinsert
p526
I42
VSimpleName: readString
p527
tp528
a(Vinsert
p529
I42
VSimpleName: thenReturn
p530
tp531
a(Vinsert
p532
I42
VSimpleName: setIsLaidOut
p533
tp534
a(Vinsert
p535
I42
VSimpleName: setPadding
p536
tp537
a(Vinsert
p538
I42
VSimpleName: draw
p539
tp540
a(Vinsert
p541
I42
VSimpleName: getBuffer
p542
tp543
a(Vinsert
p544
I42
VSimpleName: getAnnotationMirrors
p545
tp546
a(Vinsert
p547
I42
VSimpleName: isRootGlideModule
p548
tp549
a(Vinsert
p550
I42
VSimpleName: name
p551
tp552
a(Vinsert
p553
I42
VSimpleName: enqueue
p554
tp555
a(Vinsert
p556
I42
VSimpleName: getFrameTransformation
p557
tp558
a(Vinsert
p559
I42
VSimpleName: setFrameTransformation
p560
tp561
a(Vinsert
p562
I42
VSimpleName: downloadPhoto
p563
tp564
a(Vinsert
p565
I42
VSimpleName: eraseColor
p566
tp567
a(Vinsert
p568
I42
VSimpleName: clearDiskCache
p569
tp570
a(Vinsert
p571
I42
VSimpleName: getCacheKeys
p572
tp573
a(Vinsert
p574
I42
VSimpleName: getDebugger
p575
tp576
a(Vinsert
p577
I42
VSimpleName: getOptions
p578
tp579
a(Vinsert
p580
I42
VSimpleName: findViewById
p581
tp582
a(Vinsert
p583
I42
VSimpleName: addMethod
p584
tp585
a(Vinsert
p586
I42
VSimpleName: isComplete
p587
tp588
a(Vinsert
p589
I42
VSimpleName: getResources
p590
tp591
a(Vinsert
p592
I42
VSimpleName: getResourceAsStream
p593
tp594
a(Vinsert
p595
I42
VSimpleName: setImagePresenter
p596
tp597
a(Vinsert
p598
I42
VSimpleName: onSearchCompleted
p599
tp600
a(Vinsert
p601
I42
VSimpleName: decodeResultFromCache
p602
tp603
a(Vinsert
p604
I42
VSimpleName: getText
p605
tp606
a(Vinsert
p607
I42
VSimpleName: skip
p608
tp609
a(Vinsert
p610
I42
VSimpleName: getChildFragmentManager
p611
tp612
a(Vinsert
p613
I42
VSimpleName: addAnnotation
p614
tp615
a(Vinsert
p616
I42
VSimpleName: getDecodeFormat
p617
tp618
a(Vinsert
p619
I42
VSimpleName: clearMemory
p620
tp621
a(Vinsert
p622
I42
VSimpleName: getKey
p623
tp624
a(Vinsert
p625
I42
VSimpleName: takeRequest
p626
tp627
a(Vinsert
p628
I42
VSimpleName: onResourceReady
p629
tp630
a(Vinsert
p631
I42
VSimpleName: compress
p632
tp633
a(Vinsert
p634
I42
VSimpleName: putExtra
p635
tp636
a(Vinsert
p637
I42
VSimpleName: getEnclosingElement
p638
tp639
a(Vinsert
p640
I42
VSimpleName: getClass
p641
tp642
a(Vinsert
p643
I42
VSimpleName: mockSuccessfulFetchAndDecode
p644
tp645
a(Vinsert
p646
I42
VSimpleName: addCallback
p647
tp648
a(Vinsert
p649
I42
VSimpleName: getTargetDensity
p650
tp651
a(Vinsert
p652
I42
VSimpleName: parseHeader
p653
tp654
a(Vinsert
p655
I42
VSimpleName: onTrimMemory
p656
tp657
a(Vinsert
p658
I42
VSimpleName: canNotifyCleared
p659
tp660
a(Vinsert
p661
I42
VSimpleName: getExact
p662
tp663
a(Vinsert
p664
I42
VSimpleName: currentThread
p665
tp666
a(Vinsert
p667
I42
VSimpleName: cacheResult
p668
tp669
a(Vinsert
p670
I42
VSimpleName: newCall
p671
tp672
a(Vinsert
p673
I42
VSimpleName: unregister
p674
tp675
a(Vinsert
p676
I42
VSimpleName: mockResource
p677
tp678
a(Vinsert
p679
I42
VSimpleName: offer
p680
tp681
a(Vinsert
p682
I42
VSimpleName: isImageSet
p683
tp684
a(Vinsert
p685
I42
VSimpleName: setEncoder
p686
tp687
a(Vinsert
p688
I42
VSimpleName: listener
p689
tp690
a(Vinsert
p691
I42
VSimpleName: getImageApproximate
p692
tp693
a(Vinsert
p694
I42
VSimpleName: runTest
p695
tp696
a(Vinsert
p697
I42
VSimpleName: loadAtLeast
p698
tp699
a(Vinsert
p700
I42
VSimpleName: getOriginalKey
p701
tp702
a(Vinsert
p703
I42
VSimpleName: isFailed
p704
tp705
a(Vinsert
p706
I42
VSimpleName: remaining
p707
tp708
a(Vinsert
p709
I42
VSimpleName: getBitmapPixelSize
p710
tp711
a(Vinsert
p712
I42
VSimpleName: initCause
p713
tp714
a(Vinsert
p715
I42
VSimpleName: limit
p716
tp717
a(Vinsert
p718
I42
VSimpleName: isTransformationAllowed
p719
tp720
a(Vinsert
p721
I42
VSimpleName: setThreadPolicy
p722
tp723
a(Vinsert
p724
I42
VSimpleName: disconnect
p725
tp726
a(Vinsert
p727
I42
VSimpleName: tearDown
p728
tp729
a(Vinsert
p730
I42
VSimpleName: getCacheDir
p731
tp732
a(Vinsert
p733
I42
VSimpleName: hasLoadPath
p734
tp735
a(Vinsert
p736
I42
VSimpleName: load
p737
tp738
a(Vinsert
p739
I42
VSimpleName: getMainLooper
p740
tp741
a(Vinsert
p742
I42
VSimpleName: currentTimeMillis
p743
tp744
a(Vinsert
p745
I42
VSimpleName: onDataFetcherReady
p746
tp747
a(Vinsert
p748
I42
VSimpleName: capacity
p749
tp750
a(Vinsert
p751
I42
VSimpleName: detectAll
p752
tp753
a(Vinsert
p754
I42
VSimpleName: clear
p755
tp756
a(Vinsert
p757
I42
VSimpleName: getElementUtils
p758
tp759
a(Vinsert
p760
I42
VSimpleName: optionalTransform
p761
tp762
a(Vinsert
p763
I42
VSimpleName: getFrameCount
p764
tp765
a(Vinsert
p766
I42
VSimpleName: randomUUID
p767
tp768
a(Vinsert
p769
I42
VSimpleName: rotateImageExif
p770
tp771
a(Vinsert
p772
I42
VSimpleName: setRequest
p773
tp774
a(Vinsert
p775
I42
VSimpleName: getTranscoder
p776
tp777
a(Vinsert
p778
I42
VSimpleName: setSizeMultiplier
p779
tp780
a(Vinsert
p781
I42
VSimpleName: getImagePresenter
p782
tp783
a(Vinsert
p784
I42
VSimpleName: getRequestManagerTreeNode
p785
tp786
a(Vinsert
p787
I42
VSimpleName: loadAsIs
p788
tp789
a(Vinsert
p790
I42
VSimpleName: toList
p791
tp792
a(Vinsert
p793
I42
VSimpleName: getPathSegments
p794
tp795
a(Vinsert
p796
I42
VSimpleName: getCallback
p797
tp798
a(Vinsert
p799
I42
VSimpleName: markPending
p800
tp801
a(Vinsert
p802
I42
VSimpleName: getResponseCode
p803
tp804
a(Vinsert
p805
I42
VSimpleName: setBitmapPool
p806
tp807
a(Vinsert
p808
I42
VSimpleName: myLooper
p809
tp810
a(Vinsert
p811
I42
VSimpleName: digest
p812
tp813
a(Vinsert
p814
I42
VSimpleName: readBytes
p815
tp816
a(Vinsert
p817
I42
VSimpleName: setLoggingDetails
p818
tp819
a(Vinsert
p820
I42
VSimpleName: transform
p821
tp822
a(Vinsert
p823
I42
VSimpleName: getFirstFrame
p824
tp825
a(Vinsert
p826
I42
VSimpleName: activate
p827
tp828
a(Vinsert
p829
I42
VSimpleName: containsKey
p830
tp831
a(Vinsert
p832
I42
VSimpleName: isDone
p833
tp834
a(Vinsert
p835
I42
VSimpleName: isEnabled
p836
tp837
a(Vinsert
p838
I42
VSimpleName: getActivity
p839
tp840
a(Vinsert
p841
I42
VSimpleName: getChannel
p842
tp843
a(Vinsert
p844
I42
VSimpleName: generatedSourceFile
p845
tp846
a(Vinsert
p847
I42
VSimpleName: getContentResolver
p848
tp849
a(Vinsert
p850
I42
VSimpleName: getBitmapCenterCrop
p851
tp852
a(Vinsert
p853
I42
VSimpleName: disallowHardwareConfig
p854
tp855
a(Vinsert
p856
I42
VSimpleName: openResource
p857
tp858
a(Vinsert
p859
I42
VSimpleName: onDataReady
p860
tp861
a(Vinsert
p862
I42
VSimpleName: getOverrideWidth
p863
tp864
a(Vinsert
p865
I42
VSimpleName: getProperty
p866
tp867
a(Vinsert
p868
I42
VSimpleName: append
p869
tp870
a(Vinsert
p871
I42
VSimpleName: getDefaultDisplay
p872
tp873
a(Vinsert
p874
I42
VSimpleName: applyOptions
p875
tp876
a(Vinsert
p877
I42
VSimpleName: getAll
p878
tp879
a(Vinsert
p880
I42
VSimpleName: roundedCorners
p881
tp882
a(Vinsert
p883
I42
VSimpleName: getExternalCacheDir
p884
tp885
a(Vinsert
p886
I42
VSimpleName: getRegistry
p887
tp888
a(Vinsert
p889
I42
VSimpleName: onException
p890
tp891
a(Vinsert
p892
I42
VSimpleName: getSize
p893
tp894
a(Vinsert
p895
I42
VSimpleName: filter
p896
tp897
a(Vinsert
p898
I42
VSimpleName: testInBackground
p899
tp900
a(Vinsert
p901
I42
VSimpleName: isAssetUri
p902
tp903
a(Vinsert
p904
I42
VSimpleName: encodeFormat
p905
tp906
a(Vinsert
p907
I42
VSimpleName: isVarArgs
p908
tp909
a(Vinsert
p910
I42
VSimpleName: putInt
p911
tp912
a(Vinsert
p913
I42
VSimpleName: onPathLoadException
p914
tp915
a(Vinsert
p916
I42
VSimpleName: setPlaceholderResource
p917
tp918
a(Vinsert
p919
I42
VSimpleName: createQueue
p920
tp921
a(Vinsert
p922
I42
VSimpleName: resourceToBytes
p923
tp924
a(Vinsert
p925
I42
VSimpleName: add
p926
tp927
a(Vinsert
p928
I42
VSimpleName: getParcelFileDescriptor
p929
tp930
a(Vinsert
p931
I42
VSimpleName: isAssignableFrom
p932
tp933
a(Vinsert
p934
I42
VSimpleName: rem
p935
tp936
a(Vinsert
p937
I42
VSimpleName: execute
p938
tp939
a(Vinsert
p940
I42
VSimpleName: isTransparent
p941
tp942
a(Vinsert
p943
I42
VSimpleName: acquireResource
p944
tp945
a(Vinsert
p946
I42
VSimpleName: getScheme
p947
tp948
a(Vinsert
p949
I42
VSimpleName: runOneTask
p950
tp951
a(Vinsert
p952
I42
VSimpleName: setIsRunning
p953
tp954
a(Vinsert
p955
I42
VSimpleName: wrap
p956
tp957
a(Vinsert
p958
I42
VSimpleName: getApplicationContext
p959
tp960
a(Vinsert
p961
I42
VSimpleName: inflate
p962
tp963
a(Vinsert
p964
I42
VSimpleName: getRequestManagerFactory
p965
tp966
a(Vinsert
p967
I42
VSimpleName: getOpacity
p968
tp969
a(Vinsert
p970
I42
VSimpleName: hasNext
p971
tp972
a(Vinsert
p973
I42
VSimpleName: length
p974
tp975
a(Vinsert
p976
I42
VSimpleName: getBytes
p977
tp978
a(Vinsert
p979
I42
VSimpleName: iterator
p980
tp981
a(Vinsert
p982
I42
VSimpleName: getUseUnlimitedSourceGeneratorsPool
p983
tp984
a(Vinsert
p985
I42
VSimpleName: unregisterSearchListener
p986
tp987
a(Vinsert
p988
I42
VSimpleName: onLowMemory
p989
tp990
a(Vinsert
p991
I42
VSimpleName: setCallback
p992
tp993
a(Vinsert
p994
I42
VSimpleName: setBitmapLoadFactory
p995
tp996
a(Vinsert
p997
I42
VSimpleName: thenThrow
p998
tp999
a(Vinsert
p1000
I42
VSimpleName: setSdkVersionInt
p1001
tp1002
a(Vinsert
p1003
I42
VSimpleName: setQuery
p1004
tp1005
a(Vinsert
p1006
I42
VSimpleName: shutdown
p1007
tp1008
a(Vinsert
p1009
I42
VSimpleName: currentThreadTimeMillis
p1010
tp1011
a(Vinsert
p1012
I42
VSimpleName: newDrawable
p1013
tp1014
a(Vinsert
p1015
I42
VSimpleName: floatToIntBits
p1016
tp1017
a(Vinsert
p1018
I42
VSimpleName: abs
p1019
tp1020
a(Vinsert
p1021
I42
VSimpleName: hasSize
p1022
tp1023
a(Vinsert
p1024
I42
VSimpleName: getCacheDecoder
p1025
tp1026
a(Vinsert
p1027
I42
VSimpleName: getTransformations
p1028
tp1029
a(Vinsert
p1030
I42
VSimpleName: threadSafeList
p1031
tp1032
a(Vinsert
p1033
I42
VSimpleName: submit
p1034
tp1035
a(Vinsert
p1036
I42
VSimpleName: onStart
p1037
tp1038
a(Vinsert
p1039
I42
VSimpleName: newInstance
p1040
tp1041
a(Vinsert
p1042
I42
VSimpleName: matcher
p1043
tp1044
a(Vinsert
p1045
I42
VSimpleName: writeFile
p1046
tp1047
a(Vinsert
p1048
I42
VSimpleName: replace
p1049
tp1050
a(Vinsert
p1051
I42
VSimpleName: getCurrentSize
p1052
tp1053
a(Vinsert
p1054
I42
VSimpleName: getTranscodedDescription
p1055
tp1056
a(Vinsert
p1057
I42
VSimpleName: getMethod
p1058
tp1059
a(Vinsert
p1060
I42
VSimpleName: isIn
p1061
tp1062
a(Vinsert
p1063
I42
VSimpleName: getRequestTracker
p1064
tp1065
a(Vinsert
p1066
I42
VSimpleName: newMainThreadUnlimitedExecutor
p1067
tp1068
a(Vinsert
p1069
I42
VSimpleName: addMember
p1070
tp1071
a(Vinsert
p1072
I42
VSimpleName: getLayoutParams
p1073
tp1074
a(Vinsert
p1075
I42
VSimpleName: highestOneBit
p1076
tp1077
a(Vinsert
p1078
I42
VSimpleName: toString
p1079
tp1080
a(Vinsert
p1081
I42
VSimpleName: addHeader
p1082
tp1083
a(Vinsert
p1084
I42
VSimpleName: invokeAny
p1085
tp1086
a(Vinsert
p1087
I42
VSimpleName: getController
p1088
tp1089
a(Vinsert
p1090
I42
VSimpleName: setAntiAlias
p1091
tp1092
a(Vinsert
p1093
I42
VSimpleName: v
p1094
tp1095
a(Vinsert
p1096
I42
VSimpleName: begin
p1097
tp1098
a(Vinsert
p1099
I42
VSimpleName: close
p1100
tp1101
a(Vinsert
p1102
I42
VSimpleName: getDescendants
p1103
tp1104
a(Vinsert
p1105
I42
VSimpleName: broadcast
p1106
tp1107
a(Vinsert
p1108
I42
VSimpleName: mark
p1109
tp1110
a(Vinsert
p1111
I42
VSimpleName: format
p1112
tp1113
a(Vinsert
p1114
I42
VSimpleName: newMainThreadExecutor
p1115
tp1116
a(Vinsert
p1117
I42
VSimpleName: decode
p1118
tp1119
a(Vinsert
p1120
I42
VSimpleName: getBitmapDrawableLock
p1121
tp1122
a(Vinsert
p1123
I42
VSimpleName: contains
p1124
tp1125
a(Vinsert
p1126
I42
VSimpleName: getRequestManagerFragment
p1127
tp1128
a(Vinsert
p1129
I42
VSimpleName: emptyList
p1130
tp1131
a(Vinsert
p1132
I42
VSimpleName: encode
p1133
tp1134
a(Vinsert
p1135
I42
VSimpleName: next
p1136
tp1137
a(Vinsert
p1138
I42
VSimpleName: emptySet
p1139
tp1140
a(Vinsert
p1141
I42
VSimpleName: min
p1142
tp1143
a(Vinsert
p1144
I42
VSimpleName: getMetadata
p1145
tp1146
a(Vinsert
p1147
I42
VSimpleName: setWidth
p1148
tp1149
a(Vinsert
p1150
I42
VSimpleName: getBitmapPool
p1151
tp1152
a(Vinsert
p1153
I42
VSimpleName: shutdownNow
p1154
tp1155
a(Vinsert
p1156
I42
VSimpleName: dontTransform
p1157
tp1158
a(Vinsert
p1159
I42
VSimpleName: substring
p1160
tp1161
a(Vinsert
p1162
I42
VSimpleName: fixMarkLimit
p1163
tp1164
a(Vinsert
p1165
I42
VSimpleName: onImageSet
p1166
tp1167
a(Vinsert
p1168
I42
VSimpleName: assertMainThread
p1169
tp1170
a(Vinsert
p1171
I42
VSimpleName: assertDifferent
p1172
tp1173
a(Vinsert
p1174
I42
VSimpleName: removeCallbacks
p1175
tp1176
a(Vinsert
p1177
I42
VSimpleName: getSafeKey
p1178
tp1179
a(Vinsert
p1180
I42
VSimpleName: prepareToDraw
p1181
tp1182
a(Vinsert
p1183
I42
VSimpleName: getPhotoCacheDir
p1184
tp1185
a(Vinsert
p1186
I42
VSimpleName: getPreloadDimensions
p1187
tp1188
a(Vinsert
p1189
I42
VSimpleName: withProcessors
p1190
tp1191
a(Vinsert
p1192
I42
VSimpleName: clearMark
p1193
tp1194
a(Vinsert
p1195
I42
VSimpleName: post
p1196
tp1197
a(Vinsert
p1198
I42
VSimpleName: log
p1199
tp1200
a(Vinsert
p1201
I42
VSimpleName: getStreamOpener
p1202
tp1203
a(Vinsert
p1204
I42
VSimpleName: updateDiskCacheKey
p1205
tp1206
a(Vinsert
p1207
I42
VSimpleName: read
p1208
tp1209
a(Vinsert
p1210
I42
VSimpleName: getShadowApplication
p1211
tp1212
a(Vinsert
p1213
I42
VSimpleName: addParameter
p1214
tp1215
a(Vinsert
p1216
I42
VSimpleName: start
p1217
tp1218
a(Vinsert
p1219
I42
VSimpleName: memory
p1220
tp1221
a(Vinsert
p1222
I42
VSimpleName: postAtTime
p1223
tp1224
a(Vinsert
p1225
I42
VSimpleName: update
p1226
tp1227
a(Vinsert
p1228
I42
VSimpleName: setRecycled
p1229
tp1230
a(Vinsert
p1231
I42
VSimpleName: getLoopCount
p1232
tp1233
a(Vinsert
p1234
I42
VSimpleName: cancel
p1235
tp1236
a(Vinsert
p1237
I42
VSimpleName: hash
p1238
tp1239
a(Vinsert
p1240
I42
VSimpleName: await
p1241
tp1242
a(Vinsert
p1243
I42
VSimpleName: getInputStream
p1244
tp1245
a(Vinsert
p1246
I42
VSimpleName: isTransformationRequired
p1247
tp1248
a(Vinsert
p1249
I42
VSimpleName: addModifiers
p1250
tp1251
a(Vinsert
p1252
I42
VSimpleName: newSetFromMap
p1253
tp1254
a(Vinsert
p1255
I42
VSimpleName: getDrawable
p1256
tp1257
a(Vinsert
p1258
I42
VSimpleName: isScaleOnlyOrNoTransform
p1259
tp1260
a(Vinsert
p1261
I42
VSimpleName: getWidth
p1262
tp1263
a(Vinsert
p1264
I42
VSimpleName: getSimpleName
p1265
tp1266
a(Vinsert
p1267
I42
VSimpleName: fromStream
p1268
tp1269
a(Vinsert
p1270
I42
VSimpleName: cast
p1271
tp1272
a(Vinsert
p1273
I42
VSimpleName: openConnection
p1274
tp1275
a(Vinsert
p1276
I42
VSimpleName: setDefaultAnimationId
p1277
tp1278
a(Vinsert
p1279
I42
VSimpleName: getCurrentFrame
p1280
tp1281
a(Vinsert
p1282
I42
VSimpleName: isWindows
p1283
tp1284
a(Vinsert
p1285
I42
VSimpleName: classBuilder
p1286
tp1287
a(Vinsert
p1288
I42
VSimpleName: setErrorResource
p1289
tp1290
a(Vinsert
p1291
I42
VSimpleName: override
p1292
tp1293
a(Vinsert
p1294
I42
VSimpleName: getUInt16
p1295
tp1296
a(Vinsert
p1297
I42
VSimpleName: setMemoryCache
p1298
tp1299
a(Vinsert
p1300
I42
VSimpleName: asDrawable
p1301
tp1302
a(Vinsert
p1303
I42
VSimpleName: fitCenter
p1304
tp1305
a(Vinsert
p1306
I42
VSimpleName: setProperty
p1307
tp1308
a(Vinsert
p1309
I42
VSimpleName: position
p1310
tp1311
a(Vinsert
p1312
I42
VSimpleName: setRequestManagerFactory
p1313
tp1314
a(Vinsert
p1315
I42
VSimpleName: setRetryPolicy
p1316
tp1317
a(Vinsert
p1318
I42
VSimpleName: decoder
p1319
tp1320
a(Vinsert
p1321
I42
VSimpleName: fromFile
p1322
tp1323
a(Vinsert
p1324
I42
VSimpleName: open
p1325
tp1326
a(Vinsert
p1327
I42
VSimpleName: placeholder
p1328
tp1329
a(Vinsert
p1330
I42
VSimpleName: setTranscoder
p1331
tp1332
a(Vinsert
p1333
I42
VSimpleName: getFrameAtTime
p1334
tp1335
a(Vinsert
p1336
I42
VSimpleName: charAt
p1337
tp1338
a(Vinsert
p1339
I42
VSimpleName: assertSame
p1340
tp1341
a(Vinsert
p1342
I42
VSimpleName: incrementAndGet
p1343
tp1344
a(Vinsert
p1345
I42
VSimpleName: wait
p1346
tp1347
a(Vinsert
p1348
I42
VSimpleName: trimMemory
p1349
tp1350
a(Vinsert
p1351
I42
VSimpleName: optionalCenterCrop
p1352
tp1353
a(Vinsert
p1354
I42
VSimpleName: checkCallingOrSelfPermission
p1355
tp1356
a(Vinsert
p1357
I42
VSimpleName: allowThreadDiskReads
p1358
tp1359
a(Vinsert
p1360
I42
VSimpleName: initBitmap
p1361
tp1362
a(Vinsert
p1363
I42
VSimpleName: setRequestManager
p1364
tp1365
a(Vinsert
p1366
I42
VSimpleName: onFrameRead
p1367
tp1368
a(Vinsert
p1369
I42
VSimpleName: onSizeReady
p1370
tp1371
a(Vinsert
p1372
I42
VSimpleName: ordinal
p1373
tp1374
a(Vinsert
p1375
I42
VSimpleName: w
p1376
tp1377
a(Vinsert
p1378
I42
VSimpleName: newDiskCacheExecutor
p1379
tp1380
a(Vinsert
p1381
I42
VSimpleName: skipMemoryCache
p1382
tp1383
a(Vinsert
p1384
I42
VSimpleName: getDiskCacheStrategy
p1385
tp1386
a(Vinsert
p1387
I42
VSimpleName: create
p1388
tp1389
a(Vinsert
p1390
I42
VSimpleName: getImageHeaderParsers
p1391
tp1392
a(Vinsert
p1393
I42
VSimpleName: setImageDrawable
p1394
tp1395
a(Vinsert
p1396
I42
VSimpleName: onPathReady
p1397
tp1398
a(Vinsert
p1399
I42
VSimpleName: setWeight
p1400
tp1401
a(Vinsert
p1402
I42
VSimpleName: getDataSource
p1403
tp1404
a(Vinsert
p1405
I42
VSimpleName: decodeStream
p1406
tp1407
a(Vinsert
p1408
I42
VSimpleName: asList
p1409
tp1410
a(Vinsert
p1411
I42
VSimpleName: onImageReady
p1412
tp1413
a(Vinsert
p1414
I42
VSimpleName: getEncodeStrategy
p1415
tp1416
a(Vinsert
p1417
I42
VSimpleName: setTransformationLoader
p1418
tp1419
a(Vinsert
p1420
I42
VSimpleName: addEqualityGroup
p1421
tp1422
a(Vinsert
p1423
I42
VSimpleName: getIntrinsicHeight
p1424
tp1425
a(Vinsert
p1426
I42
VSimpleName: getBitmapPoolSize
p1427
tp1428
a(Vinsert
p1429
I42
VSimpleName: onStop
p1430
tp1431
a(Vinsert
p1432
I42
VSimpleName: setParentFragmentHint
p1433
tp1434
a(Vinsert
p1435
I42
VSimpleName: openInputStream
p1436
tp1437
a(Vinsert
p1438
I42
VSimpleName: setTag
p1439
tp1440
a(Vinsert
p1441
I42
VSimpleName: getHeaders
p1442
tp1443
a(Vinsert
p1444
I42
VSimpleName: list
p1445
tp1446
a(Vinsert
p1447
I42
VSimpleName: resumeRequests
p1448
tp1449
a(Vinsert
p1450
I42
VSimpleName: getFetcher
p1451
tp1452
a(Vinsert
p1453
I42
VSimpleName: getDataClass
p1454
tp1455
a(Vinsert
p1456
I42
VSimpleName: getView
p1457
tp1458
a(Vinsert
p1459
I42
VSimpleName: withMessage
p1460
tp1461
a(Vinsert
p1462
I42
VSimpleName: using
p1463
tp1464
a(Vinsert
p1465
I42
VSimpleName: getValue
p1466
tp1467
a(Vinsert
p1468
I42
VSimpleName: openFd
p1469
tp1470
a(Vinsert
p1471
I42
VSimpleName: printStackTrace
p1472
tp1473
a(Vinsert
p1474
I42
VSimpleName: onScrollStateChanged
p1475
tp1476
a(Vinsert
p1477
I42
VSimpleName: onLoadCleared
p1478
tp1479
a(Vinsert
p1480
I42
VSimpleName: query
p1481
tp1482
a(Vinsert
p1483
I42
VSimpleName: verify
p1484
tp1485
a(Vinsert
p1486
I42
VSimpleName: addRequest
p1487
tp1488
a(Vinsert
p1489
I42
VSimpleName: setDataSource
p1490
tp1491
a(Vinsert
p1492
I42
VSimpleName: getDimensionPixelSize
p1493
tp1494
a(Vinsert
p1495
I42
VSimpleName: sha256BytesToHex
p1496
tp1497
a(Vinsert
p1498
I42
VSimpleName: of
p1499
tp1500
a(Vinsert
p1501
I42
VSimpleName: write
p1502
tp1503
a(Vinsert
p1504
I42
VSimpleName: onLoadCompleted
p1505
tp1506
a(Vinsert
p1507
I42
VSimpleName: buildActivity
p1508
tp1509
a(Vinsert
p1510
I42
VSimpleName: getBitmapResource
p1511
tp1512
a(Vinsert
p1513
I42
VSimpleName: getCacheDirectory
p1514
tp1515
a(Vinsert
p1516
I42
VSimpleName: toMillis
p1517
tp1518
a(Vinsert
p1519
I42
VSimpleName: compareTo
p1520
tp1521
a(Vinsert
p1522
I42
VSimpleName: getPartialUrl
p1523
tp1524
a(Vinsert
p1525
I42
VSimpleName: getRecentUrl
p1526
tp1527
a(Vinsert
p1528
I42
VSimpleName: addStatement
p1529
tp1530
a(Vinsert
p1531
I42
VSimpleName: removeLast
p1532
tp1533
a(Vinsert
p1534
I42
VSimpleName: onImageRemoved
p1535
tp1536
a(Vinsert
p1537
I42
VSimpleName: evaluate
p1538
tp1539
a(Vinsert
p1540
I42
VSimpleName: register
p1541
tp1542
a(Vinsert
p1543
I42
VSimpleName: setPriority
p1544
tp1545
a(Vinsert
p1546
I42
VSimpleName: when
p1547
tp1548
a(Vinsert
p1549
I42
VSimpleName: getScaleType
p1550
tp1551
a(Vinsert
p1552
I42
VSimpleName: addURI
p1553
tp1554
a(Vinsert
p1555
I42
VSimpleName: getRuntime
p1556
tp1557
a(Vinsert
p1558
I42
VSimpleName: d
p1559
tp1560
a(Vinsert
p1561
I42
VSimpleName: loadData
p1562
tp1563
a(Vinsert
p1564
I42
VSimpleName: getArrayPool
p1565
tp1566
a(Vinsert
p1567
I42
VSimpleName: transformBitmap
p1568
tp1569
a(Vinsert
p1570
I42
VSimpleName: openAssetFileDescriptor
p1571
tp1572
a(Vinsert
p1573
I42
VSimpleName: checkNotNull
p1574
tp1575
a(Vinsert
p1576
I42
VSimpleName: getSafeMemoryCacheSize
p1577
tp1578
a(Vinsert
p1579
I42
VSimpleName: addParameters
p1580
tp1581
a(Vinsert
p1582
I42
VSimpleName: getPackage
p1583
tp1584
a(Vinsert
p1585
I42
VSimpleName: code
p1586
tp1587
a(Vinsert
p1588
I42
VSimpleName: superclass
p1589
tp1590
a(Vinsert
p1591
I42
VSimpleName: doesNotContainKey
p1592
tp1593
a(Vinsert
p1594
I42
VSimpleName: availableProcessors
p1595
tp1596
a(Vinsert
p1597
I42
VSimpleName: createBitmap
p1598
tp1599
a(Vinsert
p1600
I42
VSimpleName: appendWriteDataToCache
p1601
tp1602
a(Vinsert
p1603
I42
VSimpleName: onScroll
p1604
tp1605
a(Vinsert
p1606
I42
VSimpleName: getDisplayMetrics
p1607
tp1608
a(Vinsert
p1609
I42
VSimpleName: onRequestFailed
p1610
tp1611
a(Vinsert
p1612
I42
VSimpleName: getType
p1613
tp1614
a(Vinsert
p1615
I42
VSimpleName: thenAnswer
p1616
tp1617
a(Vinsert
p1618
I42
VSimpleName: writeGraphicsControlExtension
p1619
tp1620
a(Vinsert
p1621
I42
VSimpleName: getResourceFetcher
p1622
tp1623
a(Vinsert
p1624
I42
VSimpleName: getConstantState
p1625
tp1626
a(Vinsert
p1627
I42
VSimpleName: getNumFrames
p1628
tp1629
a(Vinsert
p1630
I42
VSimpleName: setPlaceholderDrawable
p1631
tp1632
a(Vinsert
p1633
I42
VSimpleName: setRotate
p1634
tp1635
a(Vinsert
p1636
I42
VSimpleName: centerInside
p1637
tp1638
a(Vinsert
p1639
I42
VSimpleName: addAll
p1640
tp1641
a(Vinsert
p1642
I42
VSimpleName: getSupportRequestManagerFragment
p1643
tp1644
a(Vinsert
p1645
I42
VSimpleName: putAll
p1646
tp1647
a(Vinsert
p1648
I42
VSimpleName: pow
p1649
tp1650
a(Vinsert
p1651
I42
VSimpleName: onResourceDecoded
p1652
tp1653
a(Vinsert
p1654
I42
VSimpleName: now
p1655
tp1656
a(Vinsert
p1657
I42
VSimpleName: setBitmap
p1658
tp1659
a(Vinsert
p1660
I42
VSimpleName: transcoder
p1661
tp1662
a(Vinsert
p1663
I42
VSimpleName: toURI
p1664
tp1665
a(Vinsert
p1666
I42
VSimpleName: priority
p1667
tp1668
a(Vinsert
p1669
I42
VSimpleName: isOnBackgroundThread
p1670
tp1671
a(Vinsert
p1672
I42
VSimpleName: setImageRemovedListener
p1673
tp1674
a(Vinsert
p1675
I42
VSimpleName: generate
p1676
tp1677
a(Vinsert
p1678
I42
VSimpleName: getRunner
p1679
tp1680
a(Vinsert
p1681
I42
VSimpleName: exists
p1682
tp1683
a(Vinsert
p1684
I42
VSimpleName: getByteArrayPoolSize
p1685
tp1686
a(Vinsert
p1687
I42
VSimpleName: logBitmap
p1688
tp1689
a(Vinsert
p1690
I42
VSimpleName: getQueue
p1691
tp1692
a(Vinsert
p1693
I42
VSimpleName: build
p1694
tp1695
a(Vinsert
p1696
I42
VSimpleName: isRunning
p1697
tp1698
a(Vinsert
p1699
I42
VSimpleName: setFinalStaticField
p1700
tp1701
a(Vinsert
p1702
I42
VSimpleName: latestSupported
p1703
tp1704
a(Vinsert
p1705
I42
VSimpleName: setResourceListener
p1706
tp1707
a(Vinsert
p1708
I42
VSimpleName: apply
p1709
tp1710
a(Vinsert
p1711
I42
VSimpleName: forName
p1712
tp1713
a(Vinsert
p1714
I42
VSimpleName: getCoordinator
p1715
tp1716
a(Vinsert
p1717
I42
VSimpleName: drawBitmap
p1718
tp1719
a(Vinsert
p1720
I42
VSimpleName: setContext
p1721
tp1722
a(Vinsert
p1723
I42
VSimpleName: getTransformation
p1724
tp1725
a(Vinsert
p1726
I42
VSimpleName: getFileDescriptor
p1727
tp1728
a(Vinsert
p1729
I42
VSimpleName: deleteDirectory
p1730
tp1731
a(Vinsert
p1732
I42
VSimpleName: onItemRemoved
p1733
tp1734
a(Vinsert
p1735
I42
VSimpleName: readLong
p1736
tp1737
a(Vinsert
p1738
I42
VSimpleName: getEngine
p1739
tp1740
a(Vinsert
p1741
I42
VSimpleName: reschedule
p1742
tp1743
a(Vinsert
p1744
I42
VSimpleName: getGifByteSize
p1745
tp1746
a(Vinsert
p1747
I42
VSimpleName: addListener
p1748
tp1749
a(Vinsert
p1750
I42
VSimpleName: getCurrentFrameIndex
p1751
tp1752
a(Vinsert
p1753
I42
VSimpleName: writeImageDescriptor
p1754
tp1755
a(Vinsert
p1756
I42
VSimpleName: from
p1757
tp1758
a(Vinsert
p1759
I42
VSimpleName: crossFade
p1760
tp1761
a(Vinsert
p1762
I42
VSimpleName: getParameters
p1763
tp1764
a(Vinsert
p1765
I42
VSimpleName: isExifOrientationRequired
p1766
tp1767
a(Vinsert
p1768
I42
VSimpleName: get
p1769
tp1770
a(Vinsert
p1771
I42
VSimpleName: getSourceDecoder
p1772
tp1773
a(Vinsert
p1774
I42
VSimpleName: listFiles
p1775
tp1776
a(Vinsert
p1777
I42
VSimpleName: values
p1778
tp1779
a(Vinsert
p1780
I42
VSimpleName: i
p1781
tp1782
a(Vinsert
p1783
I42
VSimpleName: getStreamLoader
p1784
tp1785
a(Vinsert
p1786
I42
VSimpleName: clearCallbacksAndListener
p1787
tp1788
a(Vinsert
p1789
I42
VSimpleName: downloadOnly
p1790
tp1791
a(Vinsert
p1792
I42
VSimpleName: beginSection
p1793
tp1794
a(Vinsert
p1795
I42
VSimpleName: setDensity
p1796
tp1797
a(Vinsert
p1798
I42
VSimpleName: rewindAndGet
p1799
tp1800
a(Vinsert
p1801
I42
VSimpleName: buildModelLoader
p1802
tp1803
a(Vinsert
p1804
I42
VSimpleName: openStreams
p1805
tp1806
a(Vinsert
p1807
I42
VSimpleName: getId
p1808
tp1809
a(Vinsert
p1810
I42
VSimpleName: getLifecycle
p1811
tp1812
a(Vinsert
p1813
I42
VSimpleName: isAnyImageSet
p1814
tp1815
a(Vinsert
p1816
I42
VSimpleName: canLoad
p1817
tp1818
a(Vinsert
p1819
I42
VSimpleName: isValidOverride
p1820
tp1821
a(Vinsert
p1822
I42
VSimpleName: getCurrentIndex
p1823
tp1824
a(Vinsert
p1825
I42
VSimpleName: addEquivalenceGroup
p1826
tp1827
a(Vinsert
p1828
I42
VSimpleName: getPaddingLeft
p1829
tp1830
a(Vinsert
p1831
I42
VSimpleName: getTheme
p1832
tp1833
a(Vinsert
p1834
I42
VSimpleName: getElapsedMillis
p1835
tp1836
a(Vinsert
p1837
I42
VSimpleName: e
p1838
tp1839
a(Vinsert
p1840
I42
VSimpleName: getOrientation
p1841
tp1842
a(Vinsert
p1843
I42
VSimpleName: getString
p1844
tp1845
a(Vinsert
p1846
I42
VSimpleName: extract
p1847
tp1848
a(Vinsert
p1849
I42
VSimpleName: isFalse
p1850
tp1851
a(Vinsert
p1852
I42
VSimpleName: getMaxCacheSize
p1853
tp1854
a(Vinsert
p1855
I42
VSimpleName: getLooper
p1856
tp1857
a(Vinsert
p1858
I42
VSimpleName: getCurrentDrawable
p1859
tp1860
a(Vinsert
p1861
I42
VSimpleName: getBitmapByteSize
p1862
tp1863
a(Vinsert
p1864
I42
VSimpleName: releaseResource
p1865
tp1866
a(Vinsert
p1867
I42
VSimpleName: getPriority
p1868
tp1869
a(Vinsert
p1870
I42
VSimpleName: mutate
p1871
tp1872
a(Vinsert
p1873
I42
VSimpleName: setExceptionHandler
p1874
tp1875
a(Vinsert
p1876
I42
VSimpleName: assertClassHasValidId
p1877
tp1878
a(Vinsert
p1879
I42
VSimpleName: getBitmap
p1880
tp1881
a(Vinsert
p1882
I42
VSimpleName: setOnScrollListener
p1883
tp1884
a(Vinsert
p1885
I42
VSimpleName: isSourceCachable
p1886
tp1887
a(Vinsert
p1888
I42
VSimpleName: setOnClickListener
p1889
tp1890
a(Vinsert
p1891
I42
VSimpleName: fitInSpace
p1892
tp1893
a(Vinsert
p1894
I42
VSimpleName: setScaleType
p1895
tp1896
a(Vinsert
p1897
I42
VSimpleName: getJob
p1898
tp1899
a(Vinsert
p1900
I42
VSimpleName: setBackgroundHandler
p1901
tp1902
a(Vinsert
p1903
I42
VSimpleName: getPreloadSize
p1904
tp1905
a(Vinsert
p1906
I42
VSimpleName: onLoadFailed
p1907
tp1908
a(Vinsert
p1909
I42
VSimpleName: getInt32
p1910
tp1911
a(Vinsert
p1912
I42
VSimpleName: setPlaceholder
p1913
tp1914
a(Vinsert
p1915
I42
VSimpleName: squareThumb
p1916
tp1917
a(Vinsert
p1918
I42
VSimpleName: getAlternateUrls
p1919
tp1920
a(Vinsert
p1921
I42
VSimpleName: valueOf
p1922
tp1923
a(Vinsert
p1924
I42
VSimpleName: releaseBitmap
p1925
tp1926
a(Vinsert
p1927
I42
VSimpleName: initMocks
p1928
tp1929
a(Vinsert
p1930
I42
VSimpleName: getTitle
p1931
tp1932
a(Vinsert
p1933
I42
VSimpleName: onRequestSuccess
p1934
tp1935
a(Vinsert
p1936
I42
VSimpleName: isValidDimensions
p1937
tp1938
a(Vinsert
p1939
I42
VSimpleName: getName
p1940
tp1941
a(Vinsert
p1942
I42
VSimpleName: getPaddingEnd
p1943
tp1944
a(Vinsert
p1945
I42
VSimpleName: getFragments
p1946
tp1947
a(Vinsert
p1948
I42
VSimpleName: run
p1949
tp1950
a(Vinsert
p1951
I42
VSimpleName: getDefaultRequestOptions
p1952
tp1953
a(Vinsert
p1954
I42
VSimpleName: setSourceEncoder
p1955
tp1956
a(Vinsert
p1957
I42
VSimpleName: acquire
p1958
tp1959
a(Vinsert
p1960
I42
VSimpleName: getDefaultTransitionOptions
p1961
tp1962
a(Vinsert
p1963
I42
VSimpleName: findInstanceMethodsReturning
p1964
tp1965
a(Vinsert
p1966
I42
VSimpleName: getRequestManagerRetriever
p1967
tp1968
a(Vinsert
p1969
I42
VSimpleName: getDataClasses
p1970
tp1971
a(Vinsert
p1972
I42
VSimpleName: awaitTermination
p1973
tp1974
a(Vinsert
p1975
I42
VSimpleName: acquireBitmap
p1976
tp1977
a(Vinsert
p1978
I42
VSimpleName: getStatus
p1979
tp1980
a(Vinsert
p1981
I42
VSimpleName: compile
p1982
tp1983
a(Vinsert
p1984
I42
VSimpleName: putIfAbsent
p1985
tp1986
a(Vinsert
p1987
I42
VSimpleName: getParsers
p1988
tp1989
a(Vinsert
p1990
I42
VSimpleName: drawCircle
p1991
tp1992
a(Vinsert
p1993
I42
VSimpleName: isBitmapTransformationSet
p1994
tp1995
a(Vinsert
p1996
I42
VSimpleName: hasResourceToEncode
p1997
tp1998
a(Vinsert
p1999
I42
VSimpleName: with
p2000
tp2001
a(Vinsert
p2002
I42
VSimpleName: getUseAnimationPool
p2003
tp2004
a(Vinsert
p2005
I42
VSimpleName: centerCrop
p2006
tp2007
a(Vinsert
p2008
I42
VSimpleName: getIntent
p2009
tp2010
a(Vinsert
p2011
I42
VSimpleName: through
p2012
tp2013
a(Vinsert
p2014
I42
VSimpleName: fetchImage
p2015
tp2016
a(Vinsert
p2017
I42
VSimpleName: handles
p2018
tp2019
a(Vinsert
p2020
I42
VSimpleName: into
p2021
tp2022
a(Vinsert
p2023
I42
VSimpleName: getRequestContext
p2024
tp2025
a(Vinsert
p2026
I42
VSimpleName: cacheSource
p2027
tp2028
a(Vinsert
p2029
I42
VSimpleName: equals
p2030
tp2031
a(Vinsert
p2032
I42
VSimpleName: test
p2033
tp2034
a(Vinsert
p2035
I42
VSimpleName: newAnimationExecutor
p2036
tp2037
a(Vinsert
p2038
I42
VSimpleName: onImageLoadFailed
p2039
tp2040
a(Vinsert
p2041
I42
VSimpleName: obtain
p2042
tp2043
a(Vinsert
p2044
I42
VSimpleName: toFile
p2045
tp2046
a(Vinsert
p2047
I42
VSimpleName: put
p2048
tp2049
a(Vinsert
p2050
I42
VSimpleName: unsubscribeOn
p2051
tp2052
a(Vinsert
p2053
I42
VSimpleName: setDefaultRequestOptions
p2054
tp2055
a(Vinsert
p2056
I42
VSimpleName: isIdentity
p2057
tp2058
a(Vinsert
p2059
I42
VSimpleName: convert
p2060
tp2061
a(Vinsert
p2062
I42
VSimpleName: prepend
p2063
tp2064
a(Vinsert
p2065
I42
VSimpleName: getDirty
p2066
tp2067
a(Vinsert
p2068
I42
VSimpleName: getLayoutManager
p2069
tp2070
a(Vinsert
p2071
I42
VSimpleName: writeClass
p2072
tp2073
a(Vinsert
p2074
I42
VSimpleName: getHeight
p2075
tp2076
a(Vinsert
p2077
I42
VSimpleName: setRequests
p2078
tp2079
a(Vinsert
p2080
I42
VSimpleName: getArguments
p2081
tp2082
a(Vinsert
p2083
I42
VSimpleName: downsample
p2084
tp2085
a(Vinsert
p2086
I42
VSimpleName: autoLock
p2087
tp2088
a(Vinsert
p2089
I42
VSimpleName: emptyMap
p2090
tp2091
a(Vinsert
p2092
I42
VSimpleName: setPixels
p2093
tp2094
a(Vinsert
p2095
I42
VSimpleName: orientImage
p2096
tp2097
a(Vinsert
p2098
I42
VSimpleName: getFactory
p2099
tp2100
a(Vinsert
p2101
I42
VSimpleName: getHeaderField
p2102
tp2103
a(Vinsert
p2104
I42
VSimpleName: getEncoder
p2105
tp2106
a(Vinsert
p2107
I42
VSimpleName: animate
p2108
tp2109
a(Vinsert
p2110
I42
VSimpleName: isCancelled
p2111
tp2112
a(Vinsert
p2113
I42
VSimpleName: setVisible
p2114
tp2115
a(Vinsert
p2116
I42
VSimpleName: layout
p2117
tp2118
a(Vinsert
p2119
I42
VSimpleName: max
p2120
tp2121
a(Vinsert
p2122
I42
VSimpleName: getFirstVisiblePosition
p2123
tp2124
a(Vinsert
p2125
I42
VSimpleName: unsubscribe
p2126
tp2127
a(Vinsert
p2128
I42
VSimpleName: getImage
p2129
tp2130
a(Vinsert
p2131
I42
VSimpleName: setTarget
p2132
tp2133
a(Vinsert
p2134
I42
VSimpleName: isThumbnailSize
p2135
tp2136
a(Vinsert
p2137
I42
VSimpleName: dontAnimate
p2138
tp2139
a(Vinsert
p2140
I42
VSimpleName: handle
p2141
tp2142
a(Vinsert
p2143
I42
VSimpleName: getScaleFactor
p2144
tp2145
a(Vinsert
p2146
I42
VSimpleName: createPackageContext
p2147
tp2148
a(Vinsert
p2149
I42
VSimpleName: init
p2150
tp2151
a(Vinsert
p2152
I42
VSimpleName: forResource
p2153
tp2154
a(Vinsert
p2155
I42
VSimpleName: canSetPlaceholder
p2156
tp2157
a(Vinsert
p2158
I42
VSimpleName: isCacheable
p2159
tp2160
a(Vinsert
p2161
I42
VSimpleName: getLoadTask
p2162
tp2163
a(Vinsert
p2164
I42
VSimpleName: loadFromImage
p2165
tp2166
a(Vinsert
p2167
I42
VSimpleName: getStringExtra
p2168
tp2169
a(Vinsert
p2170
I42
VSimpleName: nextControlFlow
p2171
tp2172
a(Vinsert
p2173
I42
VSimpleName: transition
p2174
tp2175
a(Vinsert
p2176
I42
VSimpleName: simple
p2177
tp2178
a(Vinsert
p2179
I42
VSimpleName: skipDiskCache
p2180
tp2181
a(Vinsert
p2182
I42
VSimpleName: setUseCaches
p2183
tp2184
a(Vinsert
p2185
I42
VSimpleName: signature
p2186
tp2187
a(Vinsert
p2188
I42
VSimpleName: setDefaultDiskCacheOptions
p2189
tp2190
a(Vinsert
p2191
I42
VSimpleName: size
p2192
tp2193
a(Vinsert
p2194
I42
VSimpleName: setConfig
p2195
tp2196
a(Vinsert
p2197
I42
VSimpleName: getTypeUtils
p2198
tp2199
a(Vinsert
p2200
I42
VSimpleName: clone
p2201
tp2202
a(Vinsert
p2203
I42
VSimpleName: queue
p2204
tp2205
a(Vinsert
p2206
I42
VSimpleName: onDestroy
p2207
tp2208
a(Vinsert
p2209
I42
VSimpleName: getResource
p2210
tp2211
a(Vinsert
p2212
I42
VSimpleName: succeededWithoutWarnings
p2213
tp2214
a(Vinsert
p2215
I42
VSimpleName: setHasAlpha
p2216
tp2217
a(Vinsert
p2218
I42
VSimpleName: getDataFetcher
p2219
tp2220
a(Vinsert
p2221
I42
VSimpleName: setHeader
p2222
tp2223
a(Vinsert
p2224
I42
VSimpleName: addException
p2225
tp2226
a(Vinsert
p2227
I42
VSimpleName: newSingleThreadExecutor
p2228
tp2229
a(Vinsert
p2230
I42
VSimpleName: getDataFetchers
p2231
tp2232
a(Vinsert
p2233
I42
VSimpleName: hasRemaining
p2234
tp2235
a(Vinsert
p2236
I42
VSimpleName: thumbnail
p2237
tp2238
a.