(lp0
(Vinsert
p1
I42
VSimpleName: setDefaultButton
p2
tp3
a(Vinsert
p4
I42
VSimpleName: getJavaClass
p5
tp6
a(Vinsert
p7
I42
VSimpleName: and
p8
tp9
a(Vinsert
p10
I42
VSimpleName: getField
p11
tp12
a(Vinsert
p13
I42
VSimpleName: checkConnect
p14
tp15
a(Vinsert
p16
I42
VSimpleName: createNewFile
p17
tp18
a(Vinsert
p19
I42
VSimpleName: isStatic
p20
tp21
a(Vinsert
p22
I42
VSimpleName: unmodifiableList
p23
tp24
a(Vinsert
p25
I42
VSimpleName: getFailureCount
p26
tp27
a(Vinsert
p28
I42
VSimpleName: builder
p29
tp30
a(Vinsert
p31
I42
VSimpleName: indexOf
p32
tp33
a(Vinsert
p34
I42
VSimpleName: expect
p35
tp36
a(Vinsert
p37
I42
VSimpleName: sleep
p38
tp39
a(Vinsert
p40
I42
VSimpleName: isEmpty
p41
tp42
a(Vinsert
p43
I42
VSimpleName: currentTimeMillis
p44
tp45
a(Vinsert
p46
I42
VSimpleName: getParent
p47
tp48
a(Vinsert
p49
I42
VSimpleName: parseArgs
p50
tp51
a(Vinsert
p52
I42
VSimpleName: getTarget
p53
tp54
a(Vinsert
p55
I42
VSimpleName: getCause
p56
tp57
a(Vinsert
p58
I42
VSimpleName: assumeTrue
p59
tp60
a(Vinsert
p61
I42
VSimpleName: validatePublicVoidNoArg
p62
tp63
a(Vinsert
p64
I42
VSimpleName: println
p65
tp66
a(Vinsert
p67
I42
VSimpleName: testAssumptionFailure
p68
tp69
a(Vinsert
p70
I42
VSimpleName: isArray
p71
tp72
a(Vinsert
p73
I42
VSimpleName: countTestCases
p74
tp75
a(Vinsert
p76
I42
VSimpleName: describeMismatch
p77
tp78
a(Vinsert
p79
I42
VSimpleName: unmodifiableSet
p80
tp81
a(Vinsert
p82
I42
VSimpleName: validatePublicVoid
p83
tp84
a(Vinsert
p85
I42
VSimpleName: failure
p86
tp87
a(Vinsert
p88
I42
VSimpleName: setAccessible
p89
tp90
a(Vinsert
p91
I42
VSimpleName: createListener
p92
tp93
a(Vinsert
p94
I42
VSimpleName: classes
p95
tp96
a(Vinsert
p97
I42
VSimpleName: emptySet
p98
tp99
a(Vinsert
p100
I42
VSimpleName: delete
p101
tp102
a(Vinsert
p103
I42
VSimpleName: hasSuiteMethod
p104
tp105
a(Vinsert
p106
I42
VSimpleName: around
p107
tp108
a(Vinsert
p109
I42
VSimpleName: createFilter
p110
tp111
a(Vinsert
p112
I42
VSimpleName: isMemberClass
p113
tp114
a(Vinsert
p115
I42
VSimpleName: matches
p116
tp117
a(Vinsert
p118
I42
VSimpleName: applyTo
p119
tp120
a(Vinsert
p121
I42
VSimpleName: sharedInstance
p122
tp123
a(Vinsert
p124
I42
VSimpleName: describe
p125
tp126
a(Vinsert
p127
I42
VSimpleName: invoke
p128
tp129
a(Vinsert
p130
I42
VSimpleName: allUnassigned
p131
tp132
a(Vinsert
p133
I42
VSimpleName: expectMessage
p134
tp135
a(Vinsert
p136
I42
VSimpleName: setHorizontalAlignment
p137
tp138
a(Vinsert
p139
I42
VSimpleName: print
p140
tp141
a(Vinsert
p142
I42
VSimpleName: getRunner
p143
tp144
a(Vinsert
p145
I42
VSimpleName: addTestSuite
p146
tp147
a(Vinsert
p148
I42
VSimpleName: assertThat
p149
tp150
a(Vinsert
p151
I42
VSimpleName: checkThrows
p152
tp153
a(Vinsert
p154
I42
VSimpleName: set
p155
tp156
a(Vinsert
p157
I42
VSimpleName: remove
p158
tp159
a(Vinsert
p160
I42
VSimpleName: throwUnlessEmpty
p161
tp162
a(Vinsert
p163
I42
VSimpleName: out
p164
tp165
a(Vinsert
p166
I42
VSimpleName: removeElement
p167
tp168
a(Vinsert
p169
I42
VSimpleName: appendMoney
p170
tp171
a(Vinsert
p172
I42
VSimpleName: getName
p173
tp174
a(Vinsert
p175
I42
VSimpleName: getTrace
p176
tp177
a(Vinsert
p178
I42
VSimpleName: runBefores
p179
tp180
a(Vinsert
p181
I42
VSimpleName: rethrowAsException
p182
tp183
a(Vinsert
p184
I42
VSimpleName: readUnsignedShort
p185
tp186
a(Vinsert
p187
I42
VSimpleName: asTestList
p188
tp189
a(Vinsert
p190
I42
VSimpleName: getReturnType
p191
tp192
a(Vinsert
p193
I42
VSimpleName: split
p194
tp195
a(Vinsert
p196
I42
VSimpleName: getAnnotation
p197
tp198
a(Vinsert
p199
I42
VSimpleName: addFirstListener
p200
tp201
a(Vinsert
p202
I42
VSimpleName: addIgnorance
p203
tp204
a(Vinsert
p205
I42
VSimpleName: testAt
p206
tp207
a(Vinsert
p208
I42
VSimpleName: assertValid
p209
tp210
a(Vinsert
p211
I42
VSimpleName: value
p212
tp213
a(Vinsert
p214
I42
VSimpleName: testIgnoredReason
p215
tp216
a(Vinsert
p217
I42
VSimpleName: handleAssertionErrors
p218
tp219
a(Vinsert
p220
I42
VSimpleName: assertArrayEquals
p221
tp222
a(Vinsert
p223
I42
VSimpleName: hashCode
p224
tp225
a(Vinsert
p226
I42
VSimpleName: copyOf
p227
tp228
a(Vinsert
p229
I42
VSimpleName: getThread
p230
tp231
a(Vinsert
p232
I42
VSimpleName: lock
p233
tp234
a(Vinsert
p235
I42
VSimpleName: setLightWeightPopupEnabled
p236
tp237
a(Vinsert
p238
I42
VSimpleName: keySet
p239
tp240
a(Vinsert
p241
I42
VSimpleName: getClasses
p242
tp243
a(Vinsert
p244
I42
VSimpleName: getInvokedMethod
p245
tp246
a(Vinsert
p247
I42
VSimpleName: failureCountIs
p248
tp249
a(Vinsert
p250
I42
VSimpleName: invokeLater
p251
tp252
a(Vinsert
p253
I42
VSimpleName: getClassName
p254
tp255
a(Vinsert
p256
I42
VSimpleName: assertEmpty
p257
tp258
a(Vinsert
p259
I42
VSimpleName: enumerate
p260
tp261
a(Vinsert
p262
I42
VSimpleName: nanoTime
p263
tp264
a(Vinsert
p265
I42
VSimpleName: isPrimitive
p266
tp267
a(Vinsert
p268
I42
VSimpleName: compareTo
p269
tp270
a(Vinsert
p271
I42
VSimpleName: getBuffer
p272
tp273
a(Vinsert
p274
I42
VSimpleName: withTimeout
p275
tp276
a(Vinsert
p277
I42
VSimpleName: assertTrue
p278
tp279
a(Vinsert
p280
I42
VSimpleName: testCount
p281
tp282
a(Vinsert
p283
I42
VSimpleName: fireTestFinished
p284
tp285
a(Vinsert
p286
I42
VSimpleName: getActualTypeArguments
p287
tp288
a(Vinsert
p289
I42
VSimpleName: runMain
p290
tp291
a(Vinsert
p292
I42
VSimpleName: getPath
p293
tp294
a(Vinsert
p295
I42
VSimpleName: compare
p296
tp297
a(Vinsert
p298
I42
VSimpleName: addElement
p299
tp300
a(Vinsert
p301
I42
VSimpleName: getKey
p302
tp303
a(Vinsert
p304
I42
VSimpleName: addError
p305
tp306
a(Vinsert
p307
I42
VSimpleName: getClass
p308
tp309
a(Vinsert
p310
I42
VSimpleName: getTargetException
p311
tp312
a(Vinsert
p313
I42
VSimpleName: none
p314
tp315
a(Vinsert
p316
I42
VSimpleName: currentThread
p317
tp318
a(Vinsert
p319
I42
VSimpleName: safeRunnerForClass
p320
tp321
a(Vinsert
p322
I42
VSimpleName: imposterize
p323
tp324
a(Vinsert
p325
I42
VSimpleName: isSuite
p326
tp327
a(Vinsert
p328
I42
VSimpleName: setPrinter
p329
tp330
a(Vinsert
p331
I42
VSimpleName: isAbstract
p332
tp333
a(Vinsert
p334
I42
VSimpleName: getIconResource
p335
tp336
a(Vinsert
p337
I42
VSimpleName: initCause
p338
tp339
a(Vinsert
p340
I42
VSimpleName: calls
p341
tp342
a(Vinsert
p343
I42
VSimpleName: removeListener
p344
tp345
a(Vinsert
p346
I42
VSimpleName: runtime
p347
tp348
a(Vinsert
p349
I42
VSimpleName: forFolder
p350
tp351
a(Vinsert
p352
I42
VSimpleName: setTotal
p353
tp354
a(Vinsert
p355
I42
VSimpleName: withStacktrace
p356
tp357
a(Vinsert
p358
I42
VSimpleName: createRequest
p359
tp360
a(Vinsert
p361
I42
VSimpleName: shouldRun
p362
tp363
a(Vinsert
p364
I42
VSimpleName: clear
p365
tp366
a(Vinsert
p367
I42
VSimpleName: validate
p368
tp369
a(Vinsert
p370
I42
VSimpleName: toArray
p371
tp372
a(Vinsert
p373
I42
VSimpleName: each
p374
tp375
a(Vinsert
p376
I42
VSimpleName: newFile
p377
tp378
a(Vinsert
p379
I42
VSimpleName: getRunCount
p380
tp381
a(Vinsert
p382
I42
VSimpleName: getParameterTypes
p383
tp384
a(Vinsert
p385
I42
VSimpleName: containsKey
p386
tp387
a(Vinsert
p388
I42
VSimpleName: runner
p389
tp390
a(Vinsert
p391
I42
VSimpleName: getChannel
p392
tp393
a(Vinsert
p394
I42
VSimpleName: isException
p395
tp396
a(Vinsert
p397
I42
VSimpleName: exitValue
p398
tp399
a(Vinsert
p400
I42
VSimpleName: createTestDescription
p401
tp402
a(Vinsert
p403
I42
VSimpleName: annotationType
p404
tp405
a(Vinsert
p406
I42
VSimpleName: getProperty
p407
tp408
a(Vinsert
p409
I42
VSimpleName: append
p410
tp411
a(Vinsert
p412
I42
VSimpleName: asSubclass
p413
tp414
a(Vinsert
p415
I42
VSimpleName: getTrimmedStackTrace
p416
tp417
a(Vinsert
p418
I42
VSimpleName: getSize
p419
tp420
a(Vinsert
p421
I42
VSimpleName: filter
p422
tp423
a(Vinsert
p424
I42
VSimpleName: getAnnotatedFieldValues
p425
tp426
a(Vinsert
p427
I42
VSimpleName: store
p428
tp429
a(Vinsert
p430
I42
VSimpleName: appendText
p431
tp432
a(Vinsert
p433
I42
VSimpleName: findTest
p434
tp435
a(Vinsert
p436
I42
VSimpleName: fail
p437
tp438
a(Vinsert
p439
I42
VSimpleName: endTest
p440
tp441
a(Vinsert
p442
I42
VSimpleName: add
p443
tp444
a(Vinsert
p445
I42
VSimpleName: assertEquals
p446
tp447
a(Vinsert
p448
I42
VSimpleName: isAssignableFrom
p449
tp450
a(Vinsert
p451
I42
VSimpleName: testResult
p452
tp453
a(Vinsert
p454
I42
VSimpleName: execute
p455
tp456
a(Vinsert
p457
I42
VSimpleName: getConstructors
p458
tp459
a(Vinsert
p460
I42
VSimpleName: runCount
p461
tp462
a(Vinsert
p463
I42
VSimpleName: validateTestClass
p464
tp465
a(Vinsert
p466
I42
VSimpleName: getMethodArguments
p467
tp468
a(Vinsert
p469
I42
VSimpleName: getExpectedException
p470
tp471
a(Vinsert
p472
I42
VSimpleName: length
p473
tp474
a(Vinsert
p475
I42
VSimpleName: iterator
p476
tp477
a(Vinsert
p478
I42
VSimpleName: setMaximumSize
p479
tp480
a(Vinsert
p481
I42
VSimpleName: testRunFinished
p482
tp483
a(Vinsert
p484
I42
VSimpleName: getClassLoader
p485
tp486
a(Vinsert
p487
I42
VSimpleName: getAnnotations
p488
tp489
a(Vinsert
p490
I42
VSimpleName: shutdown
p491
tp492
a(Vinsert
p493
I42
VSimpleName: signatures
p494
tp495
a(Vinsert
p496
I42
VSimpleName: getFields
p497
tp498
a(Vinsert
p499
I42
VSimpleName: submit
p500
tp501
a(Vinsert
p502
I42
VSimpleName: getLength
p503
tp504
a(Vinsert
p505
I42
VSimpleName: runProtected
p506
tp507
a(Vinsert
p508
I42
VSimpleName: getEnumConstants
p509
tp510
a(Vinsert
p511
I42
VSimpleName: suite
p512
tp513
a(Vinsert
p514
I42
VSimpleName: getMethod
p515
tp516
a(Vinsert
p517
I42
VSimpleName: setStackTrace
p518
tp519
a(Vinsert
p520
I42
VSimpleName: compile
p521
tp522
a(Vinsert
p523
I42
VSimpleName: toString
p524
tp525
a(Vinsert
p526
I42
VSimpleName: centerWindow
p527
tp528
a(Vinsert
p529
I42
VSimpleName: charAt
p530
tp531
a(Vinsert
p532
I42
VSimpleName: elementAt
p533
tp534
a(Vinsert
p535
I42
VSimpleName: close
p536
tp537
a(Vinsert
p538
I42
VSimpleName: isInstance
p539
tp540
a(Vinsert
p541
I42
VSimpleName: format
p542
tp543
a(Vinsert
p544
I42
VSimpleName: fireTestIgnored
p545
tp546
a(Vinsert
p547
I42
VSimpleName: contains
p548
tp549
a(Vinsert
p550
I42
VSimpleName: emptyList
p551
tp552
a(Vinsert
p553
I42
VSimpleName: next
p554
tp555
a(Vinsert
p556
I42
VSimpleName: isSelected
p557
tp558
a(Vinsert
p559
I42
VSimpleName: min
p560
tp561
a(Vinsert
p562
I42
VSimpleName: compact
p563
tp564
a(Vinsert
p565
I42
VSimpleName: expectsThrowable
p566
tp567
a(Vinsert
p568
I42
VSimpleName: getAllArguments
p569
tp570
a(Vinsert
p571
I42
VSimpleName: fireTestStarted
p572
tp573
a(Vinsert
p574
I42
VSimpleName: runBare
p575
tp576
a(Vinsert
p577
I42
VSimpleName: getSupplierAnnotation
p578
tp579
a(Vinsert
p580
I42
VSimpleName: createTimeoutOnEachMethod
p581
tp582
a(Vinsert
p583
I42
VSimpleName: unmodifiableMap
p584
tp585
a(Vinsert
p586
I42
VSimpleName: setText
p587
tp588
a(Vinsert
p589
I42
VSimpleName: getTopLevelDescription
p590
tp591
a(Vinsert
p592
I42
VSimpleName: createTest
p593
tp594
a(Vinsert
p595
I42
VSimpleName: getException
p596
tp597
a(Vinsert
p598
I42
VSimpleName: isShadowedBy
p599
tp600
a(Vinsert
p601
I42
VSimpleName: start
p602
tp603
a(Vinsert
p604
I42
VSimpleName: toHexString
p605
tp606
a(Vinsert
p607
I42
VSimpleName: unmodifiableCollection
p608
tp609
a(Vinsert
p610
I42
VSimpleName: findLeaves
p611
tp612
a(Vinsert
p613
I42
VSimpleName: await
p614
tp615
a(Vinsert
p616
I42
VSimpleName: runWithParameters
p617
tp618
a(Vinsert
p619
I42
VSimpleName: synchronizedList
p620
tp621
a(Vinsert
p622
I42
VSimpleName: getAnnotationToFields
p623
tp624
a(Vinsert
p625
I42
VSimpleName: getSimpleName
p626
tp627
a(Vinsert
p628
I42
VSimpleName: nextDouble
p629
tp630
a(Vinsert
p631
I42
VSimpleName: getCauses
p632
tp633
a(Vinsert
p634
I42
VSimpleName: factoryMethodName
p635
tp636
a(Vinsert
p637
I42
VSimpleName: getIgnoreCount
p638
tp639
a(Vinsert
p640
I42
VSimpleName: addFailure
p641
tp642
a(Vinsert
p643
I42
VSimpleName: hasItems
p644
tp645
a(Vinsert
p646
I42
VSimpleName: anyOf
p647
tp648
a(Vinsert
p649
I42
VSimpleName: errors
p650
tp651
a(Vinsert
p652
I42
VSimpleName: include
p653
tp654
a(Vinsert
p655
I42
VSimpleName: intersect
p656
tp657
a(Vinsert
p658
I42
VSimpleName: storedLocally
p659
tp660
a(Vinsert
p661
I42
VSimpleName: isDebugging
p662
tp663
a(Vinsert
p664
I42
VSimpleName: internalArrayEquals
p665
tp666
a(Vinsert
p667
I42
VSimpleName: getBefores
p668
tp669
a(Vinsert
p670
I42
VSimpleName: expected
p671
tp672
a(Vinsert
p673
I42
VSimpleName: getDisplayName
p674
tp675
a(Vinsert
p676
I42
VSimpleName: gc
p677
tp678
a(Vinsert
p679
I42
VSimpleName: addFailedAssumption
p680
tp681
a(Vinsert
p682
I42
VSimpleName: getSortedRules
p683
tp684
a(Vinsert
p685
I42
VSimpleName: create
p686
tp687
a(Vinsert
p688
I42
VSimpleName: filterWith
p689
tp690
a(Vinsert
p691
I42
VSimpleName: testSuiteFinished
p692
tp693
a(Vinsert
p694
I42
VSimpleName: getAnnotatedFields
p695
tp696
a(Vinsert
p697
I42
VSimpleName: asList
p698
tp699
a(Vinsert
p700
I42
VSimpleName: fireTestFailure
p701
tp702
a(Vinsert
p703
I42
VSimpleName: expectsException
p704
tp705
a(Vinsert
p706
I42
VSimpleName: getComponentType
p707
tp708
a(Vinsert
p709
I42
VSimpleName: canAcceptValue
p710
tp711
a(Vinsert
p712
I42
VSimpleName: getValueSources
p713
tp714
a(Vinsert
p715
I42
VSimpleName: call
p716
tp717
a(Vinsert
p718
I42
VSimpleName: accept
p719
tp720
a(Vinsert
p721
I42
VSimpleName: printStackTrace
p722
tp723
a(Vinsert
p724
I42
VSimpleName: mkdirs
p725
tp726
a(Vinsert
p727
I42
VSimpleName: applyAll
p728
tp729
a(Vinsert
p730
I42
VSimpleName: getGenericParameterTypes
p731
tp732
a(Vinsert
p733
I42
VSimpleName: findDeepAnnotation
p734
tp735
a(Vinsert
p736
I42
VSimpleName: setBackground
p737
tp738
a(Vinsert
p739
I42
VSimpleName: getSecurityManager
p740
tp741
a(Vinsert
p742
I42
VSimpleName: evaluate
p743
tp744
a(Vinsert
p745
I42
VSimpleName: validateNoTypeParametersOnArgs
p746
tp747
a(Vinsert
p748
I42
VSimpleName: getDeclaredMethods
p749
tp750
a(Vinsert
p751
I42
VSimpleName: getRoot
p752
tp753
a(Vinsert
p754
I42
VSimpleName: empty
p755
tp756
a(Vinsert
p757
I42
VSimpleName: newProxyInstance
p758
tp759
a(Vinsert
p760
I42
VSimpleName: getRuntime
p761
tp762
a(Vinsert
p763
I42
VSimpleName: assertNoExceptionExpected
p764
tp765
a(Vinsert
p766
I42
VSimpleName: containsString
p767
tp768
a(Vinsert
p769
I42
VSimpleName: validateMethodsForDefaultRunner
p770
tp771
a(Vinsert
p772
I42
VSimpleName: singletonList
p773
tp774
a(Vinsert
p775
I42
VSimpleName: validateStaticMethods
p776
tp777
a(Vinsert
p778
I42
VSimpleName: getState
p779
tp780
a(Vinsert
p781
I42
VSimpleName: setLayout
p782
tp783
a(Vinsert
p784
I42
VSimpleName: getAbsolutePath
p785
tp786
a(Vinsert
p787
I42
VSimpleName: getDescription
p788
tp789
a(Vinsert
p790
I42
VSimpleName: childlessCopy
p791
tp792
a(Vinsert
p793
I42
VSimpleName: getCanonicalName
p794
tp795
a(Vinsert
p796
I42
VSimpleName: createFilterFromFilterSpec
p797
tp798
a(Vinsert
p799
I42
VSimpleName: setRunnerInterceptor
p800
tp801
a(Vinsert
p802
I42
VSimpleName: getType
p803
tp804
a(Vinsert
p805
I42
VSimpleName: fieldParameterSupplier
p806
tp807
a(Vinsert
p808
I42
VSimpleName: fireTestSuiteFinished
p809
tp810
a(Vinsert
p811
I42
VSimpleName: main
p812
tp813
a(Vinsert
p814
I42
VSimpleName: getMessage
p815
tp816
a(Vinsert
p817
I42
VSimpleName: addTest
p818
tp819
a(Vinsert
p820
I42
VSimpleName: addAll
p821
tp822
a(Vinsert
p823
I42
VSimpleName: getSuite
p824
tp825
a(Vinsert
p826
I42
VSimpleName: testRunStarted
p827
tp828
a(Vinsert
p829
I42
VSimpleName: isIgnored
p830
tp831
a(Vinsert
p832
I42
VSimpleName: getBeanObject
p833
tp834
a(Vinsert
p835
I42
VSimpleName: isPublic
p836
tp837
a(Vinsert
p838
I42
VSimpleName: abs
p839
tp840
a(Vinsert
p841
I42
VSimpleName: setParent
p842
tp843
a(Vinsert
p844
I42
VSimpleName: getStacktrace
p845
tp846
a(Vinsert
p847
I42
VSimpleName: getTest
p848
tp849
a(Vinsert
p850
I42
VSimpleName: exists
p851
tp852
a(Vinsert
p853
I42
VSimpleName: assumeNotNull
p854
tp855
a(Vinsert
p856
I42
VSimpleName: lookForStuckThread
p857
tp858
a(Vinsert
p859
I42
VSimpleName: build
p860
tp861
a(Vinsert
p862
I42
VSimpleName: substring
p863
tp864
a(Vinsert
p865
I42
VSimpleName: apply
p866
tp867
a(Vinsert
p868
I42
VSimpleName: forName
p869
tp870
a(Vinsert
p871
I42
VSimpleName: methods
p872
tp873
a(Vinsert
p874
I42
VSimpleName: getStackTrace
p875
tp876
a(Vinsert
p877
I42
VSimpleName: testFinished
p878
tp879
a(Vinsert
p880
I42
VSimpleName: validateAllMethods
p881
tp882
a(Vinsert
p883
I42
VSimpleName: invokeExplosively
p884
tp885
a(Vinsert
p886
I42
VSimpleName: runChild
p887
tp888
a(Vinsert
p889
I42
VSimpleName: from
p890
tp891
a(Vinsert
p892
I42
VSimpleName: asString
p893
tp894
a(Vinsert
p895
I42
VSimpleName: method
p896
tp897
a(Vinsert
p898
I42
VSimpleName: getTimeoutFromSuperclass
p899
tp900
a(Vinsert
p901
I42
VSimpleName: getParameters
p902
tp903
a(Vinsert
p904
I42
VSimpleName: get
p905
tp906
a(Vinsert
p907
I42
VSimpleName: failureCount
p908
tp909
a(Vinsert
p910
I42
VSimpleName: getTestClass
p911
tp912
a(Vinsert
p913
I42
VSimpleName: values
p914
tp915
a(Vinsert
p916
I42
VSimpleName: outContents
p917
tp918
a(Vinsert
p919
I42
VSimpleName: failureSeen
p920
tp921
a(Vinsert
p922
I42
VSimpleName: getInvokedTestClass
p923
tp924
a(Vinsert
p925
I42
VSimpleName: locallyStored
p926
tp927
a(Vinsert
p928
I42
VSimpleName: fireTestAssumptionFailed
p929
tp930
a(Vinsert
p931
I42
VSimpleName: doRun
p932
tp933
a(Vinsert
p934
I42
VSimpleName: createSuiteDescription
p935
tp936
a(Vinsert
p937
I42
VSimpleName: internalDescribeChild
p938
tp939
a(Vinsert
p940
I42
VSimpleName: assertArraysAreSameLength
p941
tp942
a(Vinsert
p943
I42
VSimpleName: getMethodName
p944
tp945
a(Vinsert
p946
I42
VSimpleName: nameAndDescriptor
p947
tp948
a(Vinsert
p949
I42
VSimpleName: errorReport
p950
tp951
a(Vinsert
p952
I42
VSimpleName: runClasses
p953
tp954
a(Vinsert
p955
I42
VSimpleName: appendDescriptionOf
p956
tp957
a(Vinsert
p958
I42
VSimpleName: getTests
p959
tp960
a(Vinsert
p961
I42
VSimpleName: defaultComputer
p962
tp963
a(Vinsert
p964
I42
VSimpleName: endsWith
p965
tp966
a(Vinsert
p967
I42
VSimpleName: getConstructor
p968
tp969
a(Vinsert
p970
I42
VSimpleName: exit
p971
tp972
a(Vinsert
p973
I42
VSimpleName: timeout
p974
tp975
a(Vinsert
p976
I42
VSimpleName: getRunnerAnnotations
p977
tp978
a(Vinsert
p979
I42
VSimpleName: wasSuccessful
p980
tp981
a(Vinsert
p982
I42
VSimpleName: isTest
p983
tp984
a(Vinsert
p985
I42
VSimpleName: emptySuite
p986
tp987
a(Vinsert
p988
I42
VSimpleName: valueOf
p989
tp990
a(Vinsert
p991
I42
VSimpleName: countDown
p992
tp993
a(Vinsert
p994
I42
VSimpleName: getDeclaringClass
p995
tp996
a(Vinsert
p997
I42
VSimpleName: getTimeout
p998
tp999
a(Vinsert
p1000
I42
VSimpleName: removeAll
p1001
tp1002
a(Vinsert
p1003
I42
VSimpleName: sort
p1004
tp1005
a(Vinsert
p1006
I42
VSimpleName: run
p1007
tp1008
a(Vinsert
p1009
I42
VSimpleName: getAnswer
p1010
tp1011
a(Vinsert
p1012
I42
VSimpleName: instanceOf
p1013
tp1014
a(Vinsert
p1015
I42
VSimpleName: assertThrownException
p1016
tp1017
a(Vinsert
p1018
I42
VSimpleName: newFolder
p1019
tp1020
a(Vinsert
p1021
I42
VSimpleName: isBridge
p1022
tp1023
a(Vinsert
p1024
I42
VSimpleName: flush
p1025
tp1026
a(Vinsert
p1027
I42
VSimpleName: getDeclaredAnnotations
p1028
tp1029
a(Vinsert
p1030
I42
VSimpleName: getChildren
p1031
tp1032
a(Vinsert
p1033
I42
VSimpleName: createFresh
p1034
tp1035
a(Vinsert
p1036
I42
VSimpleName: runnerForClass
p1037
tp1038
a(Vinsert
p1039
I42
VSimpleName: equals
p1040
tp1041
a(Vinsert
p1042
I42
VSimpleName: getAnnotatedMethodValues
p1043
tp1044
a(Vinsert
p1045
I42
VSimpleName: put
p1046
tp1047
a(Vinsert
p1048
I42
VSimpleName: convert
p1049
tp1050
a(Vinsert
p1051
I42
VSimpleName: getTestMethods
p1052
tp1053
a(Vinsert
p1054
I42
VSimpleName: collectFilesInPath
p1055
tp1056
a(Vinsert
p1057
I42
VSimpleName: checkSucceeds
p1058
tp1059
a(Vinsert
p1060
I42
VSimpleName: getAnnotatedMethods
p1061
tp1062
a(Vinsert
p1063
I42
VSimpleName: isZero
p1064
tp1065
a(Vinsert
p1066
I42
VSimpleName: canPotentiallyAcceptType
p1067
tp1068
a(Vinsert
p1069
I42
VSimpleName: matchDescription
p1070
tp1071
a(Vinsert
p1072
I42
VSimpleName: createAnnotationValidator
p1073
tp1074
a(Vinsert
p1075
I42
VSimpleName: isInfinite
p1076
tp1077
a(Vinsert
p1078
I42
VSimpleName: getDeclaredFields
p1079
tp1080
a(Vinsert
p1081
I42
VSimpleName: addListener
p1082
tp1083
a(Vinsert
p1084
I42
VSimpleName: asNaturalLanguage
p1085
tp1086
a(Vinsert
p1087
I42
VSimpleName: createRunners
p1088
tp1089
a(Vinsert
p1090
I42
VSimpleName: matcher
p1091
tp1092
a(Vinsert
p1093
I42
VSimpleName: fromDescription
p1094
tp1095
a(Vinsert
p1096
I42
VSimpleName: size
p1097
tp1098
a(Vinsert
p1099
I42
VSimpleName: both
p1100
tp1101
a(Vinsert
p1102
I42
VSimpleName: isANonStaticInnerClass
p1103
tp1104
a(Vinsert
p1105
I42
VSimpleName: getFailures
p1106
tp1107
a(Vinsert
p1108
I42
VSimpleName: currency
p1109
tp1110
a(Vinsert
p1111
I42
VSimpleName: aClass
p1112
tp1113
a(Vinsert
p1114
I42
VSimpleName: isEnum
p1115
tp1116
a(Vinsert
p1117
I42
VSimpleName: getIgnorances
p1118
tp1119
a(Vinsert
p1120
I42
VSimpleName: getChildrenInternal
p1121
tp1122
a(Vinsert
p1123
I42
VSimpleName: getAfters
p1124
tp1125
a(Vinsert
p1126
I42
VSimpleName: getModifiers
p1127
tp1128
a.