(lp0
(Vinsert
p1
I42
VSimpleName: build
p2
tp3
a(Vinsert
p4
I42
VSimpleName: shouldPostProcess
p5
tp6
a(Vinsert
p7
I42
VSimpleName: decode
p8
tp9
a(Vinsert
p10
I42
VSimpleName: createSimple
p11
tp12
a(Vinsert
p13
I42
VSimpleName: contains
p14
tp15
a(Vinsert
p16
I42
VSimpleName: setLoggingEnabled
p17
tp18
a(Vinsert
p19
I42
VSimpleName: encode
p20
tp21
a(Vinsert
p22
I42
VSimpleName: min
p23
tp24
a(Vinsert
p25
I42
VSimpleName: defineTargetSizeForView
p26
tp27
a(Vinsert
p28
I42
VSimpleName: delete
p29
tp30
a(Vinsert
p31
I42
VSimpleName: createReserveDiscCache
p32
tp33
a(Vinsert
p34
I42
VSimpleName: findViewById
p35
tp36
a(Vinsert
p37
I42
VSimpleName: shutdownNow
p38
tp39
a(Vinsert
p40
I42
VSimpleName: substring
p41
tp42
a(Vinsert
p43
I42
VSimpleName: addAndGet
p44
tp45
a(Vinsert
p46
I42
VSimpleName: add
p47
tp48
a(Vinsert
p49
I42
VSimpleName: reset
p50
tp51
a(Vinsert
p52
I42
VSimpleName: from
p53
tp54
a(Vinsert
p55
I42
VSimpleName: getExtraForListener
p56
tp57
a(Vinsert
p58
I42
VSimpleName: onLoadingFailed
p59
tp60
a(Vinsert
p61
I42
VSimpleName: setReserveCacheDir
p62
tp63
a(Vinsert
p64
I42
VSimpleName: denyNetworkDownloads
p65
tp66
a(Vinsert
p67
I42
VSimpleName: setShader
p68
tp69
a(Vinsert
p70
I42
VSimpleName: get
p71
tp72
a(Vinsert
p73
I42
VSimpleName: post
p74
tp75
a(Vinsert
p76
I42
VSimpleName: setText
p77
tp78
a(Vinsert
p79
I42
VSimpleName: setDither
p80
tp81
a(Vinsert
p82
I42
VSimpleName: listFiles
p83
tp84
a(Vinsert
p85
I42
VSimpleName: getContentResolver
p86
tp87
a(Vinsert
p88
I42
VSimpleName: newCachedThreadPool
p89
tp90
a(Vinsert
p91
I42
VSimpleName: read
p92
tp93
a(Vinsert
p94
I42
VSimpleName: getItemId
p95
tp96
a(Vinsert
p97
I42
VSimpleName: available
p98
tp99
a(Vinsert
p100
I42
VSimpleName: cacheOnDisc
p101
tp102
a(Vinsert
p103
I42
VSimpleName: getIndividualCacheDirectory
p104
tp105
a(Vinsert
p106
I42
VSimpleName: displayer
p107
tp108
a(Vinsert
p109
I42
VSimpleName: start
p110
tp111
a(Vinsert
p112
I42
VSimpleName: isConsiderExifParams
p113
tp114
a(Vinsert
p115
I42
VSimpleName: isEmpty
p116
tp117
a(Vinsert
p118
I42
VSimpleName: getResources
p119
tp120
a(Vinsert
p121
I42
VSimpleName: getImageScaleType
p122
tp123
a(Vinsert
p124
I42
VSimpleName: putBoolean
p125
tp126
a(Vinsert
p127
I42
VSimpleName: compress
p128
tp129
a(Vinsert
p130
I42
VSimpleName: getWrappedView
p131
tp132
a(Vinsert
p133
I42
VSimpleName: shouldShowImageResOnLoading
p134
tp135
a(Vinsert
p136
I42
VSimpleName: getTransformationMatrix
p137
tp138
a(Vinsert
p139
I42
VSimpleName: removeLast
p140
tp141
a(Vinsert
p142
I42
VSimpleName: shouldConsiderExifParams
p143
tp144
a(Vinsert
p145
I42
VSimpleName: i
p146
tp147
a(Vinsert
p148
I42
VSimpleName: getDrawable
p149
tp150
a(Vinsert
p151
I42
VSimpleName: isDelayBeforeLoading
p152
tp153
a(Vinsert
p154
I42
VSimpleName: computeImageSampleSize
p155
tp156
a(Vinsert
p157
I42
VSimpleName: getWidth
p158
tp159
a(Vinsert
p160
I42
VSimpleName: getSimpleName
p161
tp162
a(Vinsert
p163
I42
VSimpleName: entrySet
p164
tp165
a(Vinsert
p166
I42
VSimpleName: e
p167
tp168
a(Vinsert
p169
I42
VSimpleName: mark
p170
tp171
a(Vinsert
p172
I42
VSimpleName: openConnection
p173
tp174
a(Vinsert
p175
I42
VSimpleName: getScheme
p176
tp177
a(Vinsert
p178
I42
VSimpleName: resetViewBeforeLoading
p179
tp180
a(Vinsert
p181
I42
VSimpleName: setAnimation
p182
tp183
a(Vinsert
p184
I42
VSimpleName: equalsIgnoreCase
p185
tp186
a(Vinsert
p187
I42
VSimpleName: openStream
p188
tp189
a(Vinsert
p190
I42
VSimpleName: setPriority
p191
tp192
a(Vinsert
p193
I42
VSimpleName: setOnScrollListener
p194
tp195
a(Vinsert
p196
I42
VSimpleName: toLowerCase
p197
tp198
a(Vinsert
p199
I42
VSimpleName: createFuzzyKeyComparator
p200
tp201
a(Vinsert
p202
I42
VSimpleName: generateKey
p203
tp204
a(Vinsert
p205
I42
VSimpleName: currentTimeMillis
p206
tp207
a(Vinsert
p208
I42
VSimpleName: createMemoryCache
p209
tp210
a(Vinsert
p211
I42
VSimpleName: setImageResource
p212
tp213
a(Vinsert
p214
I42
VSimpleName: setConnectTimeout
p215
tp216
a(Vinsert
p217
I42
VSimpleName: makeText
p218
tp219
a(Vinsert
p220
I42
VSimpleName: stop
p221
tp222
a(Vinsert
p223
I42
VSimpleName: detectAll
p224
tp225
a(Vinsert
p226
I42
VSimpleName: getStubImage
p227
tp228
a(Vinsert
p229
I42
VSimpleName: clear
p230
tp231
a(Vinsert
p232
I42
VSimpleName: getBitmapConfig
p233
tp234
a(Vinsert
p235
I42
VSimpleName: valueOf
p236
tp237
a(Vinsert
p238
I42
VSimpleName: isSyncLoading
p239
tp240
a(Vinsert
p241
I42
VSimpleName: checkCallingOrSelfPermission
p242
tp243
a(Vinsert
p244
I42
VSimpleName: process
p245
tp246
a(Vinsert
p247
I42
VSimpleName: getResponseCode
p248
tp249
a(Vinsert
p250
I42
VSimpleName: myLooper
p251
tp252
a(Vinsert
p253
I42
VSimpleName: getPostProcessor
p254
tp255
a(Vinsert
p256
I42
VSimpleName: run
p257
tp258
a(Vinsert
p259
I42
VSimpleName: getExtraForDownloader
p260
tp261
a(Vinsert
p262
I42
VSimpleName: w
p263
tp264
a(Vinsert
p265
I42
VSimpleName: putInt
p266
tp267
a(Vinsert
p268
I42
VSimpleName: getPauseLock
p269
tp270
a(Vinsert
p271
I42
VSimpleName: toURL
p272
tp273
a(Vinsert
p274
I42
VSimpleName: addAll
p275
tp276
a(Vinsert
p277
I42
VSimpleName: keys
p278
tp279
a(Vinsert
p280
I42
VSimpleName: openContactPhotoInputStream
p281
tp282
a(Vinsert
p283
I42
VSimpleName: decodeStream
p284
tp285
a(Vinsert
p286
I42
VSimpleName: getStream
p287
tp288
a(Vinsert
p289
I42
VSimpleName: cancelDisplayTaskFor
p290
tp291
a(Vinsert
p292
I42
VSimpleName: asList
p293
tp294
a(Vinsert
p295
I42
VSimpleName: putExtra
p296
tp297
a(Vinsert
p298
I42
VSimpleName: setRectToRect
p299
tp300
a(Vinsert
p301
I42
VSimpleName: recycle
p302
tp303
a(Vinsert
p304
I42
VSimpleName: flush
p305
tp306
a(Vinsert
p307
I42
VSimpleName: toString
p308
tp309
a(Vinsert
p310
I42
VSimpleName: createImageDecoder
p311
tp312
a(Vinsert
p313
I42
VSimpleName: set
p314
tp315
a(Vinsert
p316
I42
VSimpleName: getDisplayer
p317
tp318
a(Vinsert
p319
I42
VSimpleName: postSkew
p320
tp321
a(Vinsert
p322
I42
VSimpleName: startsWith
p323
tp324
a(Vinsert
p325
I42
VSimpleName: setImageBitmap
p326
tp327
a(Vinsert
p328
I42
VSimpleName: append
p329
tp330
a(Vinsert
p331
I42
VSimpleName: readAndCloseStream
p332
tp333
a(Vinsert
p334
I42
VSimpleName: toByteArray
p335
tp336
a(Vinsert
p337
I42
VSimpleName: getExternalStorageState
p338
tp339
a(Vinsert
p340
I42
VSimpleName: loadAnimation
p341
tp342
a(Vinsert
p343
I42
VSimpleName: computeMinImageSampleSize
p344
tp345
a(Vinsert
p346
I42
VSimpleName: contentLength
p347
tp348
a(Vinsert
p349
I42
VSimpleName: getRowBytes
p350
tp351
a(Vinsert
p352
I42
VSimpleName: mkdirs
p353
tp354
a(Vinsert
p355
I42
VSimpleName: equals
p356
tp357
a(Vinsert
p358
I42
VSimpleName: getHandler
p359
tp360
a(Vinsert
p361
I42
VSimpleName: writeDebugLogs
p362
tp363
a(Vinsert
p364
I42
VSimpleName: cloneFrom
p365
tp366
a(Vinsert
p367
I42
VSimpleName: getPackageName
p368
tp369
a(Vinsert
p370
I42
VSimpleName: newFixedThreadPool
p371
tp372
a(Vinsert
p373
I42
VSimpleName: write
p374
tp375
a(Vinsert
p376
I42
VSimpleName: getSecurityManager
p377
tp378
a(Vinsert
p379
I42
VSimpleName: put
p380
tp381
a(Vinsert
p382
I42
VSimpleName: unlock
p383
tp384
a(Vinsert
p385
I42
VSimpleName: getCacheDirectory
p386
tp387
a(Vinsert
p388
I42
VSimpleName: onLoadingStarted
p389
tp390
a(Vinsert
p391
I42
VSimpleName: interrupted
p392
tp393
a(Vinsert
p394
I42
VSimpleName: isConsistent
p395
tp396
a(Vinsert
p397
I42
VSimpleName: closeSilently
p398
tp399
a(Vinsert
p400
I42
VSimpleName: url
p401
tp402
a(Vinsert
p403
I42
VSimpleName: setVisibility
p404
tp405
a(Vinsert
p406
I42
VSimpleName: execute
p407
tp408
a(Vinsert
p409
I42
VSimpleName: getDecodingType
p410
tp411
a(Vinsert
p412
I42
VSimpleName: getHeight
p413
tp414
a(Vinsert
p415
I42
VSimpleName: createExecutor
p416
tp417
a(Vinsert
p418
I42
VSimpleName: open
p419
tp420
a(Vinsert
p421
I42
VSimpleName: remove
p422
tp423
a(Vinsert
p424
I42
VSimpleName: getScaleType
p425
tp426
a(Vinsert
p427
I42
VSimpleName: getMaxImageSize
p428
tp429
a(Vinsert
p430
I42
VSimpleName: inflate
p431
tp432
a(Vinsert
p433
I42
VSimpleName: getRuntime
p434
tp435
a(Vinsert
p436
I42
VSimpleName: d
p437
tp438
a(Vinsert
p439
I42
VSimpleName: hasNext
p440
tp441
a(Vinsert
p442
I42
VSimpleName: getHeaderField
p443
tp444
a(Vinsert
p445
I42
VSimpleName: centerX
p446
tp447
a(Vinsert
p448
I42
VSimpleName: abort
p449
tp450
a(Vinsert
p451
I42
VSimpleName: length
p452
tp453
a(Vinsert
p454
I42
VSimpleName: isRecycled
p455
tp456
a(Vinsert
p457
I42
VSimpleName: copyStream
p458
tp459
a(Vinsert
p460
I42
VSimpleName: bitmapConfig
p461
tp462
a(Vinsert
p463
I42
VSimpleName: layout
p464
tp465
a(Vinsert
p466
I42
VSimpleName: max
p467
tp468
a(Vinsert
p469
I42
VSimpleName: isSlowNetwork
p470
tp471
a(Vinsert
p472
I42
VSimpleName: fireCallback
p473
tp474
a(Vinsert
p475
I42
VSimpleName: onLoadingComplete
p476
tp477
a(Vinsert
p478
I42
VSimpleName: ofUri
p479
tp480
a(Vinsert
p481
I42
VSimpleName: getAbsolutePath
p482
tp483
a(Vinsert
p484
I42
VSimpleName: lastModified
p485
tp486
a(Vinsert
p487
I42
VSimpleName: generate
p488
tp489
a(Vinsert
p490
I42
VSimpleName: createFileNameGenerator
p491
tp492
a(Vinsert
p493
I42
VSimpleName: isShutdown
p494
tp495
a(Vinsert
p496
I42
VSimpleName: createBitmap
p497
tp498
a(Vinsert
p499
I42
VSimpleName: showStubImage
p500
tp501
a(Vinsert
p502
I42
VSimpleName: submit
p503
tp504
a(Vinsert
p505
I42
VSimpleName: hashCode
p506
tp507
a(Vinsert
p508
I42
VSimpleName: onBytesCopied
p509
tp510
a(Vinsert
p511
I42
VSimpleName: getType
p512
tp513
a(Vinsert
p514
I42
VSimpleName: savePosition
p515
tp516
a(Vinsert
p517
I42
VSimpleName: mkdir
p518
tp519
a(Vinsert
p520
I42
VSimpleName: isResetViewBeforeLoading
p521
tp522
a(Vinsert
p523
I42
VSimpleName: wrap
p524
tp525
a(Vinsert
p526
I42
VSimpleName: markSupported
p527
tp528
a(Vinsert
p529
I42
VSimpleName: floor
p530
tp531
a(Vinsert
p532
I42
VSimpleName: getSystemService
p533
tp534
a(Vinsert
p535
I42
VSimpleName: createThreadFactory
p536
tp537
a(Vinsert
p538
I42
VSimpleName: getInstance
p539
tp540
a(Vinsert
p541
I42
VSimpleName: skip
p542
tp543
a(Vinsert
p544
I42
VSimpleName: edit
p545
tp546
a(Vinsert
p547
I42
VSimpleName: getApplicationInfo
p548
tp549
a(Vinsert
p550
I42
VSimpleName: close
p551
tp552
a(Vinsert
p553
I42
VSimpleName: considerExifParams
p554
tp555
a(Vinsert
p556
I42
VSimpleName: abs
p557
tp558
a(Vinsert
p559
I42
VSimpleName: maxImageWidthForMemoryCache
p560
tp561
a(Vinsert
p562
I42
VSimpleName: exists
p563
tp564
a(Vinsert
p565
I42
VSimpleName: format
p566
tp567
a(Vinsert
p568
I42
VSimpleName: setAccessible
p569
tp570
a(Vinsert
p571
I42
VSimpleName: createDefault
p572
tp573
a.