(dp0
(S'Token'
p1
I405
Ve
p2
tp3
I1
s(g1
I185
VIOException
p4
tp5
I1
s(g1
I161
VlastUsageDates
p6
tp7
I1
s(g1
I24
VBitmap
p8
tp9
I1
s(g1
I276
VnetworkDeniedDownloader
p10
tp11
I1
s(g1
I421
VimageResForEmptyUri
p12
tp13
I1
s(g1
I208
Vcurrent
p14
tp15
I1
s(g1
I612
VisSlowNetwork
p16
tp17
I1
s(g1
I73
VIOException
p18
tp19
I1
s(g1
I173
Vargs
p20
tp21
I1
s(g1
I1087
VphotoToLoad
p22
tp23
I1
s(g1
I1079
VInputStream
p24
tp25
I1
s(g1
I1887
VDisplayImageOptions
p26
tp27
I1
s(g1
I685
VdiscCache
p28
tp29
I1
s(g1
I184
Vvalue
p30
tp31
I1
s(g1
I416
VgetStreamFromNetwork
p32
tp33
I1
s(g1
I494
VfirstDisplay
p34
tp35
I1
s(g1
I651
VimageUri
p36
tp37
I1
s(g1
I113
Vextra
p38
tp39
I1
s(g1
I458
Voptions
p40
tp41
I1
s(g1
I240
Vread
p42
tp43
I1
s(g1
I1979
VOverride
p44
tp45
I1
s(g1
I836
VtargetImageSize
p46
tp47
I1
s(g1
I33
VhttpClient
p48
tp49
I1
s(g1
I104
VL
p50
tp51
I1
s(g1
I118
VcachedFiles
p52
tp53
I1
s(g1
I174
VisCollected
p54
tp55
I1
s(g1
I782
VimageLoadingExecutor
p56
tp57
I1
s(g1
I34
VgetApplicationContext
p58
tp59
I1
s(g1
I424
VImageLoaderEngine
p60
tp61
I1
s(g1
I505
VshutdownNow
p62
tp63
I1
s(g1
I394
VgetResponseCode
p64
tp65
I1
s(g1
I1127
Vget
p66
tp67
I1
s(g1
I193
VmView
p68
tp69
I1
s(g1
I160
Vposition
p70
tp71
I1
s(g1
I82
VsizeLimit
p72
tp73
I1
s(g1
I46
VInputStream
p74
tp75
I1
s(g1
I68
VgetIntent
p76
tp77
I3
s(g1
I1190
VReentrantLock
p78
tp79
I1
s(g1
I1103
VOutputStream
p80
tp81
I1
s(g1
I35
VthreadPriority
p82
tp83
I5
s(g1
I135
VdefaultDisplayImageOptions
p84
tp85
I1
s(g1
I95
VcacheOnDisc
p86
tp87
I1
s(g1
I607
VIOException
p88
tp89
I1
s(g1
I107
VshowImageForEmptyUri
p90
tp91
I2
s(g1
I1613
Veditor
p92
tp93
I2
s(g1
I1541
VsetImageResource
p94
tp95
I1
s(g1
I481
VBitmap
p96
tp97
I1
s(g1
I594
VgetHandler
p98
tp99
I1
s(g1
I11
VImageView
p100
tp101
I1
s(g1
I1677
Vdecoder
p102
tp103
I1
s(g1
I89
VshowImageForEmptyUri
p104
tp105
I2
s(g1
I90
VHttpGet
p106
tp107
I1
s(g1
I219
Vimage
p108
tp109
I1
s(g1
I681
Vhandler
p110
tp111
I1
s(g1
I363
Vpermission
p112
tp113
I1
s(g1
I126
VImageLoadingInfo
p114
tp115
I1
s(g1
I117
VString
p116
tp117
I1
s(g1
I187
VstartImagePagerActivity
p118
tp119
I1
s(g1
I429
VimageFile
p120
tp121
I1
s(g1
I239
VcloseSilently
p122
tp123
I1
s(g1
I539
VgetDecodingOptions
p124
tp125
I1
s(g1
I177
VconvertView
p126
tp127
I1
s(g1
I1167
Vis
p128
tp129
I1
s(g1
I570
VLooper
p130
tp131
I1
s(g1
I447
VonLoadingFailed
p132
tp133
I1
s(g1
I100
Voptions
p134
tp135
I1
s(g1
I1288
Vos
p136
tp137
I1
s(g1
I368
Vpause
p138
tp139
I1
s(g1
I685
VByteArrayOutputStream
p140
tp141
I1
s(g1
I149
VvalueSize
p142
tp143
I1
s(g1
I291
Vreset
p144
tp145
I1
s(g1
I1490
VfailCause
p146
tp147
I1
s(g1
I395
VFailReason
p148
tp149
I2
s(g1
I1468
VinitEmptyFiledsWithDefaultValues
p150
tp151
I1
s(g1
I62
VsetContentView
p152
tp153
I3
s(g1
I261
Vclear
p154
tp155
I1
s(g1
I573
Vremove
p156
tp157
I1
s(g1
I329
VRunnable
p158
tp159
I1
s(g1
I82
VshowStubImage
p160
tp161
I1
s(g1
I698
Vengine
p162
tp163
I1
s(g1
I698
Vdecoder
p164
tp165
I1
s(g1
I99
VfileNameGenerator
p166
tp167
I1
s(g1
I126
VV
p168
tp169
I1
s(g1
I408
Vconn
p170
tp171
I1
s(g1
I160
VBitmap
p172
tp173
I1
s(g1
I95
Vbundle
p174
tp175
I2
s(g1
I407
VNETWORK_DENIED
p176
tp177
I1
s(g1
I748
Vuri
p178
tp179
I1
s(g1
I172
VroundPixels
p180
tp181
I1
s(g1
I1272
VtargetFile
p182
tp183
I1
s(g1
I74
VString
p184
tp185
I1
s(g1
I414
Vpaused
p186
tp187
I1
s(g1
I1167
Vuri
p188
tp189
I1
s(g1
I133
Vvalue
p190
tp191
I2
s(g1
I206
VtargetSize
p192
tp193
I1
s(g1
I402
Vs
p194
tp195
I1
s(g1
I412
VpowerOf2
p196
tp197
I1
s(g1
I841
Vbmp
p198
tp199
I1
s(g1
I199
VIntent
p200
tp201
I1
s(g1
I618
VERROR_WRONG_ARGUMENTS
p202
tp203
I1
s(g1
I837
Vbmp
p204
tp205
I1
s(g1
I708
Vheight
p206
tp207
I1
s(g1
I196
Vid
p208
tp209
I1
s(g1
I119
Vgallery
p210
tp211
I1
s(g1
I190
Vuri
p212
tp213
I1
s(g1
I117
VpauseOnScroll
p214
tp215
I1
s(g1
I128
Voptions
p216
tp217
I2
s(g1
I246
Vintent
p218
tp219
I1
s(g1
I62
VImageView
p220
tp221
I1
s(g1
I209
Vremove
p222
tp223
I1
s(g1
I378
VnamePrefix
p224
tp225
I1
s(g1
I680
Vlistener
p226
tp227
I1
s(g1
I115
VBundle
p228
tp229
I1
s(g1
I790
VdecodeWithOOMHandling
p230
tp231
I1
s(g1
I1305
VnetworkDeniedDownloader
p232
tp233
I1
s(g1
I143
VshowImageOnFail
p234
tp235
I1
s(g1
I499
Voptions
p236
tp237
I1
s(g1
I80
VimageUrls
p238
tp239
I1
s(g1
I171
VObject
p240
tp241
I1
s(g1
I1639
VTAG
p242
tp243
I1
s(g1
I708
Vwidth
p244
tp245
I1
s(g1
I184
Vget
p246
tp247
I1
s(g1
I188
VContext
p248
tp249
I1
s(g1
I97
Voptions
p250
tp251
I1
s(g1
I144
Vi
p252
tp253
I1
s(g1
I314
VBlockingQueue
p254
tp255
I1
s(g1
I76
VonCreate
p256
tp257
I1
s(g1
I369
VsetImageResource
p258
tp259
I1
s(g1
I330
VbitmapCache
p260
tp261
I1
s(g1
I205
VcreateTaskExecutor
p262
tp263
I1
s(g1
I165
VexternalListener
p264
tp265
I1
s(g1
I175
Vpager
p266
tp267
I1
s(g1
I1629
VOutOfMemoryError
p268
tp269
I1
s(g1
I472
VmemoryCacheKey
p270
tp271
I1
s(g1
I1139
Voptions
p272
tp273
I1
s(g1
I1432
VString
p274
tp275
I1
s(g1
I39
VdisplayMetrics
p276
tp277
I1
s(g1
I136
VimageUrl
p278
tp279
I1
s(g1
I85
VgetItemId
p280
tp281
I1
s(g1
I35
VFile
p282
tp283
I2
s(g1
I372
VsetImageResource
p284
tp285
I1
s(g1
I214
VshouldContinue
p286
tp287
I1
s(g1
I183
VLong
p288
tp289
I1
s(g1
I93
VImageLoadingInfo
p290
tp291
I1
s(g1
I55
Vcontext
p292
tp293
I2
s(g1
I1511
Vinterrupted
p294
tp295
I1
s(g1
I393
Vrotation
p296
tp297
I1
s(g1
I371
VOptions
p298
tp299
I1
s(g1
I222
VString
p300
tp301
I1
s(g1
I231
Vlistener
p302
tp303
I1
s(g1
I96
VFile
p304
tp305
I1
s(g1
I788
Ve
p306
tp307
I1
s(g1
I435
VString
p308
tp309
I1
s(g1
I100
Vwriter
p310
tp311
I2
s(g1
I950
VString
p312
tp313
I1
s(g1
I245
VImageLoader
p314
tp315
I1
s(g1
I206
VrootView
p316
tp317
I1
s(g1
I321
VLIFOLinkedBlockingDeque
p318
tp319
I1
s(g1
I2617
Vstop
p320
tp321
I1
s(g1
I82
VcacheDir
p322
tp323
I1
s(g1
I1658
VLog
p324
tp325
I1
s(g1
I114
VthreadPriority
p326
tp327
I1
s(g1
I246
Vis
p328
tp329
I1
s(g1
I139
VtasksProcessingOrder
p330
tp331
I1
s(g1
I644
VRect
p332
tp333
I1
s(g1
I620
VimageUri
p334
tp335
I1
s(g1
I143
VString
p336
tp337
I1
s(g1
I74
VscaleType
p338
tp339
I1
s(g1
I9
VApplication
p340
tp341
I1
s(g1
I1285
VspecialOptions
p342
tp343
I1
s(g1
I453
VlastValueUsage
p344
tp345
I1
s(g1
I420
Voptions
p346
tp347
I1
s(g1
I195
VlastModified
p348
tp349
I1
s(g1
I159
VpauseOnFling
p350
tp351
I1
s(g1
I46
Vbitmap
p352
tp353
I1
s(g1
I132
Vkey
p354
tp355
I1
s(g1
I91
VgetStringArray
p356
tp357
I1
s(g1
I116
VcornerRadius
p358
tp359
I2
s(g1
I68
VroundBitmap
p360
tp361
I1
s(g1
I232
VimageStream
p362
tp363
I1
s(g1
I71
Vcount
p364
tp365
I2
s(g1
I1527
Vget
p366
tp367
I1
s(g1
I288
VView
p368
tp369
I1
s(g1
I1150
VshouldShowImageOnFail
p370
tp371
I1
s(g1
I382
VOverride
p372
tp373
I2
s(g1
I85
VIOException
p374
tp375
I1
s(g1
I271
VMatrix
p376
tp377
I1
s(g1
I37
VimageView
p378
tp379
I1
s(g1
I75
VString
p380
tp381
I3
s(g1
I57
VMemoryCacheUtil
p382
tp383
I1
s(g1
I189
Voptions
p384
tp385
I1
s(g1
I354
VonLoadingFailed
p386
tp387
I1
s(g1
I426
Vconfiguration
p388
tp389
I1
s(g1
I1317
VdiscCache
p390
tp391
I1
s(g1
I2425
VIllegalStateException
p392
tp393
I1
s(g1
I945
VallowCacheImageMultipleSizesInMemory
p394
tp395
I1
s(g1
I137
VBaseDiscCache
p396
tp397
I1
s(g1
I101
VlistFiles
p398
tp399
I1
s(g1
I639
Vbw
p400
tp401
I1
s(g1
I147
VRunnable
p402
tp403
I1
s(g1
I219
VcreateTaskExecutor
p404
tp405
I1
s(g1
I584
VdecodingOptions
p406
tp407
I1
s(g1
I261
VImageLoadingListener
p408
tp409
I1
s(g1
I705
Vmkdirs
p410
tp411
I1
s(g1
I172
VBitmap
p412
tp413
I1
s(g1
I975
VfireImageLoadingFailedEvent
p414
tp415
I1
s(g1
I915
VimageUri
p416
tp417
I1
s(g1
I1906
VImageLoaderEngine
p418
tp419
I1
s(g1
I78
VImageLoadingListener
p420
tp421
I1
s(g1
I1885
VtargetImageSize
p422
tp423
I1
s(g1
I456
VOverride
p424
tp425
I1
s(g1
I112
Vprotocol
p426
tp427
I1
s(g1
I558
Vdecoder
p428
tp429
I1
s(g1
I184
Vis
p430
tp431
I1
s(g1
I191
VcachedFile
p432
tp433
I1
s(g1
I259
VgetFile
p434
tp435
I1
s(g1
I231
Vfrom
p436
tp437
I1
s(g1
I377
Veditor
p438
tp439
I1
s(g1
I51
VimageUrl
p440
tp441
I1
s(g1
I413
Vflip
p442
tp443
I1
s(g1
I299
VgetImageUri
p444
tp445
I1
s(g1
I101
VnewCall
p446
tp447
I1
s(g1
I386
VgetFile
p448
tp449
I1
s(g1
I28
Vduration
p450
tp451
I1
s(g1
I154
VgetSizeLimit
p452
tp453
I1
s(g1
I93
VcacheInMemory
p454
tp455
I1
s(g1
I104
VgenerateKey
p456
tp457
I1
s(g1
I199
VlastModified
p458
tp459
I1
s(g1
I425
Vres
p460
tp461
I1
s(g1
I130
Vuri
p462
tp463
I1
s(g1
I82
Vvalue
p464
tp465
I1
s(g1
I126
Vkey
p466
tp467
I1
s(g1
I1886
VloadImageSync
p468
tp469
I1
s(g1
I140
Vvalue
p470
tp471
I1
s(g1
I92
VfileNameGenerator
p472
tp473
I1
s(g1
I1195
Vuri
p474
tp475
I1
s(g1
I357
VgetWidth
p476
tp477
I1
s(g1
I179
VL
p478
tp479
I1
s(g1
I107
VcloseSilently
p480
tp481
I1
s(g1
I1106
VphotoToLoadQueue
p482
tp483
I1
s(g1
I363
VLOG_WAITING_FOR_RESUME
p484
tp485
I1
s(g1
I92
VimageUrls
p486
tp487
I1
s(g1
I1133
VimageFile
p488
tp489
I1
s(g1
I351
Vimage
p490
tp491
I1
s(g1
I53
VdiscCacheFileNameGenerator
p492
tp493
I1
s(g1
I523
Vclear
p494
tp495
I1
s(g1
I239
VIoUtils
p496
tp497
I1
s(g1
I234
Vbmp
p498
tp499
I1
s(g1
I831
VtestComputeImageSampleSize_centerCrop
p500
tp501
I1
s(g1
I197
VgetExternalStorageDirectory
p502
tp503
I1
s(g1
I1160
Vis
p504
tp505
I1
s(g1
I244
Vwidth_tmp
p506
tp507
I1
s(g1
I170
VOverride
p508
tp509
I1
s(g1
I1131
Voptions
p510
tp511
I1
s(g1
I474
Vscale
p512
tp513
I1
s(g1
I212
Vget
p514
tp515
I1
s(g1
I753
Vargs
p516
tp517
I1
s(g1
I372
VsetProgress
p518
tp519
I2
s(g1
I147
Vparent
p520
tp521
I1
s(g1
I173
VMemoryCacheAware
p522
tp523
I1
s(g1
I83
Vclear
p524
tp525
I1
s(g1
I683
VIOException
p526
tp527
I1
s(g1
I87
VHttpGet
p528
tp529
I1
s(g1
I981
VcacheDir
p530
tp531
I1
s(g1
I66
VBitmap
p532
tp533
I1
s(g1
I120
VonLoadingCancelled
p534
tp535
I1
s(g1
I169
VheavyImages
p536
tp537
I1
s(g1
I130
VindividualCacheDir
p538
tp539
I2
s(g1
I136
VonStop
p540
tp541
I1
s(g1
I369
VimageView
p542
tp543
I2
s(g1
I109
Vcontext
p544
tp545
I1
s(g1
I67
Vconfig
p546
tp547
I1
s(g1
I93
VRoundedBitmapDisplayer
p548
tp549
I1
s(g1
I231
Vcontext
p550
tp551
I1
s(g1
I643
VTextUtils
p552
tp553
I1
s(g1
I154
VlastUsage
p554
tp555
I1
s(g1
I1132
VimageLoadingInfo
p556
tp557
I1
s(g1
I19
VDiscCacheAware
p558
tp559
I1
s(g1
I165
VfindViewById
p560
tp561
I1
s(g1
I1422
VLOG_CACHE_IMAGE_IN_MEMORY
p562
tp563
I1
s(g1
I1090
VphotoToLoadQueue
p564
tp565
I1
s(g1
I287
Vclose
p566
tp567
I2
s(g1
I179
VconsiderExifParams
p568
tp569
I2
s(g1
I307
Vloaded
p570
tp571
I1
s(g1
I1087
Vfield
p572
tp573
I1
s(g1
I182
VInputStream
p574
tp575
I1
s(g1
I1400
VcachedImageLoadingExecutor
p576
tp577
I1
s(g1
I230
VimageAware
p578
tp579
I1
s(g1
I385
Vcopied
p580
tp581
I1
s(g1
I487
Vscale
p582
tp583
I1
s(g1
I88
VdisplayMetrics
p584
tp585
I1
s(g1
I698
VgetPause
p586
tp587
I1
s(g1
I219
VgetOwnCacheDirectory
p588
tp589
I1
s(g1
I1493
VThread
p590
tp591
I1
s(g1
I382
Veditor
p592
tp593
I1
s(g1
I817
VBitmap
p594
tp595
I1
s(g1
I1759
VDefaultConfigurationFactory
p596
tp597
I1
s(g1
I172
VfreedSize
p598
tp599
I1
s(g1
I61
VMEMORY_CACHE_KEY_FORMAT
p600
tp601
I1
s(g1
I790
VimageView
p602
tp603
I1
s(g1
I214
VisLocked
p604
tp605
I1
s(g1
I329
Vmessage
p606
tp607
I1
s(g1
I196
VRunnable
p608
tp609
I1
s(g1
I513
VimageUri
p610
tp611
I2
s(g1
I235
Vexecute
p612
tp613
I1
s(g1
I1226
VuriLocks
p614
tp615
I1
s(g1
I555
VInputStream
p616
tp617
I1
s(g1
I129
Vkey
p618
tp619
I1
s(g1
I298
Vdrawable
p620
tp621
I1
s(g1
I835
VisCacheOnDisc
p622
tp623
I1
s(g1
I449
VLOG_CACHE_IMAGE_IN_MEMORY
p624
tp625
I1
s(g1
I61
VdisplayOptions
p626
tp627
I2
s(g1
I1123
Vbitmap
p628
tp629
I1
s(g1
I155
Vremove
p630
tp631
I1
s(g1
I1432
VLOG_CACHE_IMAGE_ON_DISC
p632
tp633
I1
s(g1
I181
VlightImages
p634
tp635
I1
s(g1
I36
VDefaultDiscCache
p636
tp637
I1
s(g1
I105
VgetStreamFromNetwork
p638
tp639
I1
s(g1
I29
Vbitmap
p640
tp641
I1
s(g1
I1090
VgetStream
p642
tp643
I1
s(g1
I326
VUNKNOWN
p644
tp645
I1
s(g1
I100
VcacheOnDisc
p646
tp647
I1
s(g1
I160
VstartImageGalleryActivity
p648
tp649
I1
s(g1
I1082
VImageView
p650
tp651
I1
s(g1
I82
VimageStream
p652
tp653
I1
s(g1
I54
VwrappedDownloader
p654
tp655
I1
s(g1
I603
Vreset
p656
tp657
I1
s(g1
I174
Vintent
p658
tp659
I1
s(g1
I153
VonLoadingCancelled
p660
tp661
I1
s(g1
I163
VofUri
p662
tp663
I1
s(g1
I176
Vscale
p664
tp665
I1
s(g1
I1415
VsetImageDrawable
p666
tp667
I1
s(g1
I315
VloadingDates
p668
tp669
I1
s(g1
I296
VscaleType
p670
tp671
I1
s(g1
I318
Vdownloader
p672
tp673
I1
s(g1
I159
VimageUri
p674
tp675
I1
s(g1
I700
VimageView
p676
tp677
I1
s(g1
I76
VImageLoaderConfiguration
p678
tp679
I1
s(g1
I1299
Vbmp
p680
tp681
I1
s(g1
I37
VFile
p682
tp683
I1
s(g1
I1167
VDisplayImageOptions
p684
tp685
I1
s(g1
I244
Vrun
p686
tp687
I1
s(g1
I262
Vhandler
p688
tp689
I1
s(g1
I511
Vbmp
p690
tp691
I2
s(g1
I185
Vbitmap
p692
tp693
I1
s(g1
I1179
Ve
p694
tp695
I1
s(g1
I690
VmemoryCacheKey
p696
tp697
I1
s(g1
I285
Vdownloader
p698
tp699
I1
s(g1
I121
VdiskCacheFileNameGenerator
p700
tp701
I1
s(g1
I152
Voptions
p702
tp703
I1
s(g1
I377
VsetVisibility
p704
tp705
I2
s(g1
I48
VImageLoader
p706
tp707
I2
s(g1
I831
VdiscCacheFileCount
p708
tp709
I1
s(g1
I32
VFile
p710
tp711
I3
s(g1
I234
Vpaint
p712
tp713
I1
s(g1
I304
VIOException
p714
tp715
I1
s(g1
I581
Voptions
p716
tp717
I1
s(g1
I508
VgetPreProcessor
p718
tp719
I1
s(g1
I401
VredirectCount
p720
tp721
I1
s(g1
I1092
Vfield
p722
tp723
I1
s(g1
I234
VsetAntiAlias
p724
tp725
I1
s(g1
I190
Vcontext
p726
tp727
I1
s(g1
I409
Vscale
p728
tp729
I1
s(g1
I328
VLog
p730
tp731
I1
s(g1
I231
Vlock
p732
tp733
I1
s(g1
I1336
VimageUrl
p734
tp735
I2
s(g1
I798
VonLoadingComplete
p736
tp737
I1
s(g1
I228
VString
p738
tp739
I1
s(g1
I1552
VimageView
p740
tp741
I1
s(g1
I418
VgetWidth
p742
tp743
I1
s(g1
I75
VBundle
p744
tp745
I1
s(g1
I1302
Vengine
p746
tp747
I1
s(g1
I1637
Ve
p748
tp749
I1
s(g1
I1451
VimageUrlForDecoding
p750
tp751
I1
s(g1
I195
VtoString
p752
tp753
I1
s(g1
I517
VshutdownNow
p754
tp755
I1
s(g1
I676
Vbitmap
p756
tp757
I1
s(g1
I216
VL
p758
tp759
I1
s(g1
I279
VslowNetworkDownloader
p760
tp761
I1
s(g1
I206
Vstream
p762
tp763
I1
s(g1
I148
Vcontext
p764
tp765
I1
s(g1
I123
VcontentLength
p766
tp767
I1
s(g1
I77
Vbundle
p768
tp769
I3
s(g1
I235
Vinflater
p770
tp771
I1
s(g1
I442
VMEDIA_MOUNTED
p772
tp773
I1
s(g1
I114
VappCacheDir
p774
tp775
I1
s(g1
I78
Vbundle
p776
tp777
I2
s(g1
I728
VImageSize
p778
tp779
I1
s(g1
I58
VonCreate
p780
tp781
I1
s(g1
I1754
Vdecoder
p782
tp783
I1
s(g1
I1141
VcacheDir
p784
tp785
I1
s(g1
I86
VFileNameGenerator
p786
tp787
I1
s(g1
I548
VsrcWidth
p788
tp789
I1
s(g1
I178
VvalueSize
p790
tp791
I1
s(g1
I103
Vlistener
p792
tp793
I1
s(g1
I133
VRadialGradient
p794
tp795
I2
s(g1
I148
VusageCount
p796
tp797
I1
s(g1
I78
VgetScheme
p798
tp799
I1
s(g1
I152
VusageCount
p800
tp801
I1
s(g1
I93
Vinflate
p802
tp803
I1
s(g1
I187
Vengine
p804
tp805
I1
s(g1
I161
VDisplayBitmapTask
p806
tp807
I2
s(g1
I293
VslowNetworkDownloader
p808
tp809
I1
s(g1
I76
VDisplayImageOptions
p810
tp811
I1
s(g1
I169
Vmessage
p812
tp813
I1
s(g1
I254
Vtask
p814
tp815
I1
s(g1
I1430
Vuri
p816
tp817
I1
s(g1
I84
VloggingEnabled
p818
tp819
I1
s(g1
I41
VUnlimitedDiscCache
p820
tp821
I1
s(g1
I212
VItemAdapter
p822
tp823
I1
s(g1
I408
VcacheSize
p824
tp825
I1
s(g1
I188
VtransformMatrix
p826
tp827
I1
s(g1
I55
VOverride
p828
tp829
I1
s(g1
I180
Vvalue
p830
tp831
I1
s(g1
I225
VleastUsedValue
p832
tp833
I1
s(g1
I651
VdisplayImageTask
p834
tp835
I1
s(g1
I1747
Vcontext
p836
tp837
I1
s(g1
I561
VgetDecodingOptions
p838
tp839
I1
s(g1
I1505
VimageAware
p840
tp841
I1
s(g1
I328
Vi
p842
tp843
I1
s(g1
I165
VcustomListener
p844
tp845
I1
s(g1
I368
Vview
p846
tp847
I2
s(g1
I156
Vread
p848
tp849
I1
s(g1
I184
VString
p850
tp851
I2
s(g1
I961
Vlistener
p852
tp853
I1
s(g1
I96
VshowImageOnLoading
p854
tp855
I1
s(g1
I732
Vbmp
p856
tp857
I1
s(g1
I126
VdiskCacheFileNameGenerator
p858
tp859
I1
s(g1
I186
VdecodingInfo
p860
tp861
I1
s(g1
I142
Vkey
p862
tp863
I1
s(g1
I57
VFile
p864
tp865
I1
s(g1
I388
VHttpURLConnection
p866
tp867
I1
s(g1
I841
VcachedImageLoadingExecutor
p868
tp869
I1
s(g1
I105
VcacheInMemory
p870
tp871
I1
s(g1
I31
VDisplayMetrics
p872
tp873
I1
s(g1
I274
VOptions
p874
tp875
I1
s(g1
I68
VonCreate
p876
tp877
I2
s(g1
I521
VL
p878
tp879
I1
s(g1
I353
Vlistener
p880
tp881
I1
s(g1
I60
VmaxAge
p882
tp883
I1
s(g1
I601
Vget
p884
tp885
I1
s(g1
I1140
VimageDownloader
p886
tp887
I1
s(g1
I215
Vopen
p888
tp889
I1
s(g1
I80
Vlistener
p890
tp891
I1
s(g1
I73
VimageUri
p892
tp893
I1
s(g1
I442
Ve
p894
tp895
I1
s(g1
I28
VgetResources
p896
tp897
I1
s(g1
I284
Vuri
p898
tp899
I1
s(g1
I385
VhashCode
p900
tp901
I1
s(g1
I737
VmaxHeightField
p902
tp903
I1
s(g1
I638
VContentResolver
p904
tp905
I1
s(g1
I66
VgetExtras
p906
tp907
I1
s(g1
I2643
VgetHandler
p908
tp909
I1
s(g1
I1137
VThread
p910
tp911
I1
s(g1
I308
VcustomExecutor
p912
tp913
I1
s(g1
I273
Vos
p914
tp915
I1
s(g1
I691
VLog
p916
tp917
I1
s(g1
I680
VisRecycled
p918
tp919
I1
s(g1
I324
VtrimToSize
p920
tp921
I1
s(g1
I80
VgetInt
p922
tp923
I1
s(g1
I1292
VImageLoaderConfiguration
p924
tp925
I1
s(g1
I73
Vbundle
p926
tp927
I2
s(g1
I39
VthreadPoolSize
p928
tp929
I1
s(g1
I627
VemptyListener
p930
tp931
I1
s(g1
I365
Vlistener
p932
tp933
I1
s(g1
I282
VinitExecutorsIfNeed
p934
tp935
I1
s(g1
I151
VOverride
p936
tp937
I1
s(g1
I226
VLayoutInflater
p938
tp939
I1
s(g1
I55
VfindInCache
p940
tp941
I1
s(g1
I231
VonLoadingCancelled
p942
tp943
I1
s(g1
I179
VcacheDir
p944
tp945
I2
s(g1
I292
VtargetSize
p946
tp947
I1
s(g1
I147
Vvalues
p948
tp949
I1
s(g1
I781
Vengine
p950
tp951
I1
s(g1
I460
Vwidth
p952
tp953
I1
s(g1
I365
VcopyStream
p954
tp955
I1
s(g1
I2609
Vengine
p956
tp957
I1
s(g1
I588
VimageStream
p958
tp959
I1
s(g1
I363
Vi
p960
tp961
I1
s(g1
I150
VlastUsage
p962
tp963
I1
s(g1
I402
VonLoadingFailed
p964
tp965
I1
s(g1
I445
VL
p966
tp967
I1
s(g1
I418
VimageFile
p968
tp969
I1
s(g1
I662
VMath
p970
tp971
I1
s(g1
I379
VcreateMemoryCache
p972
tp973
I1
s(g1
I170
VgetSize
p974
tp975
I1
s(g1
I138
Vdisplay
p976
tp977
I1
s(g1
I1739
VdenyCacheImageMultipleSizesInMemory
p978
tp979
I1
s(g1
I162
VgetCacheDir
p980
tp981
I1
s(g1
I1700
Vgc
p982
tp983
I1
s(g1
I106
VcacheInMemory
p984
tp985
I2
s(g1
I157
Vposition
p986
tp987
I1
s(g1
I1514
VimageAware
p988
tp989
I1
s(g1
I122
VIOException
p990
tp991
I1
s(g1
I1162
Voptions
p992
tp993
I1
s(g1
I421
Vpaused
p994
tp995
I1
s(g1
I207
Vpaint
p996
tp997
I2
s(g1
I633
Vresult
p998
tp999
I1
s(g1
I65
VOverride
p1000
tp1001
I1
s(g1
I415
VdisplayImage
p1002
tp1003
I1
s(g1
I78
VgetStringArray
p1004
tp1005
I2
s(g1
I236
VindividualCacheDir
p1006
tp1007
I1
s(g1
I99
VmaxCacheSize
p1008
tp1009
I1
s(g1
I506
Voptions
p1010
tp1011
I1
s(g1
I1159
Vuri
p1012
tp1013
I1
s(g1
I1718
Vattempt
p1014
tp1015
I1
s(g1
I883
VdecodeImage
p1016
tp1017
I1
s(g1
I180
VTest
p1018
tp1019
I1
s(g1
I119
VgetCacheDirectory
p1020
tp1021
I2
s(g1
I44
VImageLoader
p1022
tp1023
I1
s(g1
I115
VsizeLimit
p1024
tp1025
I1
s(g1
I85
Vskip
p1026
tp1027
I1
s(g1
I333
Vbmp
p1028
tp1029
I1
s(g1
I329
VImageView
p1030
tp1031
I1
s(g1
I1334
VURL
p1032
tp1033
I2
s(g1
I257
Vinflater
p1034
tp1035
I1
s(g1
I124
VsizeLimit
p1036
tp1037
I1
s(g1
I748
VdiscCache
p1038
tp1039
I1
s(g1
I366
VisShowStubImage
p1040
tp1041
I1
s(g1
I87
Vmenu
p1042
tp1043
I1
s(g1
I523
VscaleType
p1044
tp1045
I1
s(g1
I113
VdiscCacheFileCount
p1046
tp1047
I1
s(g1
I519
VBufferedInputStream
p1048
tp1049
I2
s(g1
I388
Vconn
p1050
tp1051
I2
s(g1
I1921
Vengine
p1052
tp1053
I1
s(g1
I234
VExecutors
p1054
tp1055
I1
s(g1
I789
Vis
p1056
tp1057
I1
s(g1
I267
Vmargin
p1058
tp1059
I1
s(g1
I276
VcreateTaskExecutor
p1060
tp1061
I1
s(g1
I65
VURL
p1062
tp1063
I1
s(g1
I268
Vmargin
p1064
tp1065
I2
s(g1
I130
VimageLoader
p1066
tp1067
I1
s(g1
I253
VimageFile
p1068
tp1069
I1
s(g1
I298
Vitem
p1070
tp1071
I1
s(g1
I157
VviewScaleType
p1072
tp1073
I2
s(g1
I166
Vengine
p1074
tp1075
I2
s(g1
I156
Vcontainer
p1076
tp1077
I1
s(g1
I166
VgridView
p1078
tp1079
I1
s(g1
I212
VsetAntiAlias
p1080
tp1081
I2
s(g1
I98
VcacheOnDisc
p1082
tp1083
I1
s(g1
I198
VL
p1084
tp1085
I1
s(g1
I1508
VfireProgressEvent
p1086
tp1087
I1
s(g1
I252
Vbounds
p1088
tp1089
I1
s(g1
I117
VpauseOnFling
p1090
tp1091
I1
s(g1
I140
VthreadPoolSize
p1092
tp1093
I2
s(g1
I802
Vis
p1094
tp1095
I1
s(g1
I172
VIMAGE_URLS
p1096
tp1097
I1
s(g1
I1079
VphotoToLoad
p1098
tp1099
I1
s(g1
I463
VmemoryCacheKey
p1100
tp1101
I1
s(g1
I127
VonSaveInstanceState
p1102
tp1103
I1
s(g1
I286
VcurrentCacheKey
p1104
tp1105
I1
s(g1
I188
VusingCounts
p1106
tp1107
I1
s(g1
I201
VinitExecutorsIfNeed
p1108
tp1109
I1
s(g1
I412
VLOG_CACHE_IMAGE_ON_DISC
p1110
tp1111
I1
s(g1
I526
Vlength
p1112
tp1113
I1
s(g1
I113
VPauseOnScrollListener
p1114
tp1115
I1
s(g1
I45
Vimage
p1116
tp1117
I1
s(g1
I419
Vrotation
p1118
tp1119
I1
s(g1
I646
VIMAGE_TAG_KEY
p1120
tp1121
I1
s(g1
I624
Vlistener
p1122
tp1123
I1
s(g1
I41
VhttpReadTimeout
p1124
tp1125
I1
s(g1
I162
Vwidth
p1126
tp1127
I2
s(g1
I283
VNetworkDeniedImageDownloader
p1128
tp1129
I1
s(g1
I374
VImageLoadingListener
p1130
tp1131
I2
s(g1
I124
Vpager
p1132
tp1133
I1
s(g1
I115
Vmark
p1134
tp1135
I2
s(g1
I106
Vgallery
p1136
tp1137
I1
s(g1
I97
VshowImageOnLoading
p1138
tp1139
I2
s(g1
I1546
VString
p1140
tp1141
I1
s(g1
I186
VcachedFile
p1142
tp1143
I1
s(g1
I135
VputSuccesfully
p1144
tp1145
I1
s(g1
I20
VonCreate
p1146
tp1147
I1
s(g1
I97
VV
p1148
tp1149
I1
s(g1
I142
VCopyListener
p1150
tp1151
I1
s(g1
I184
Vbmp
p1152
tp1153
I1
s(g1
I163
VsizeLimit
p1154
tp1155
I1
s(g1
I27
VcacheDir
p1156
tp1157
I1
s(g1
I209
VImageView
p1158
tp1159
I1
s(g1
I212
Vpaint
p1160
tp1161
I2
s(g1
I521
VFileInputStream
p1162
tp1163
I2
s(g1
I275
Vis
p1164
tp1165
I2
s(g1
I1648
VThrowable
p1166
tp1167
I1
s(g1
I532
VimageView
p1168
tp1169
I1
s(g1
I955
VexecutorForCachedImages
p1170
tp1171
I1
s(g1
I105
VFile
p1172
tp1173
I1
s(g1
I1437
Vf
p1174
tp1175
I1
s(g1
I609
Ve
p1176
tp1177
I1
s(g1
I58
Vconfig
p1178
tp1179
I2
s(g1
I48
VContext
p1180
tp1181
I1
s(g1
I245
VcustomListener
p1182
tp1183
I1
s(g1
I438
VwriteLogs
p1184
tp1185
I1
s(g1
I72
Vconfig
p1186
tp1187
I1
s(g1
I228
VEntry
p1188
tp1189
I1
s(g1
I99
VcacheDir
p1190
tp1191
I2
s(g1
I120
Vlistener
p1192
tp1193
I1
s(g1
I55
VenableLogging
p1194
tp1195
I1
s(g1
I139
VAbsListView
p1196
tp1197
I1
s(g1
I204
VgetActivity
p1198
tp1199
I1
s(g1
I63
VOverride
p1200
tp1201
I1
s(g1
I381
Vview
p1202
tp1203
I1
s(g1
I1295
Vbmp
p1204
tp1205
I1
s(g1
I65
VsizeLimit
p1206
tp1207
I1
s(g1
I178
VdisplayOptions
p1208
tp1209
I2
s(g1
I78
Vconn
p1210
tp1211
I1
s(g1
I690
VLOG_LOAD_IMAGE_FROM_MEMORY_CACHE
p1212
tp1213
I1
s(g1
I216
VdiscCacheFileCount
p1214
tp1215
I1
s(g1
I166
Vview
p1216
tp1217
I1
s(g1
I279
Vin
p1218
tp1219
I1
s(g1
I223
Vcached
p1220
tp1221
I1
s(g1
I797
VdecodeImageStream
p1222
tp1223
I1
s(g1
I143
VwriteDebugLogs
p1224
tp1225
I1
s(g1
I742
VmaxWidthField
p1226
tp1227
I1
s(g1
I212
VgetAssets
p1228
tp1229
I1
s(g1
I1128
VimageFile
p1230
tp1231
I1
s(g1
I499
VshouldPreProcess
p1232
tp1233
I1
s(g1
I143
Vcontainer
p1234
tp1235
I1
s(g1
I435
VexifOrientation
p1236
tp1237
I1
s(g1
I393
Vsnapshot
p1238
tp1239
I1
s(g1
I366
VView
p1240
tp1241
I2
s(g1
I364
VimageUri
p1242
tp1243
I2
s(g1
I681
Vpost
p1244
tp1245
I1
s(g1
I316
VtargetSize
p1246
tp1247
I1
s(g1
I184
Vintent
p1248
tp1249
I1
s(g1
I437
VgetPreProcessor
p1250
tp1251
I1
s(g1
I1465
Vpaused
p1252
tp1253
I1
s(g1
I617
VdecodingInfo
p1254
tp1255
I1
s(g1
I774
VimageLoadingExecutor
p1256
tp1257
I1
s(g1
I84
Vcount
p1258
tp1259
I2
s(g1
I180
VmemoryCache
p1260
tp1261
I1
s(g1
I1167
VgetExtraForDownloader
p1262
tp1263
I1
s(g1
I577
VonLoadingStarted
p1264
tp1265
I1
s(g1
I1441
Vbmp
p1266
tp1267
I1
s(g1
I748
VL
p1268
tp1269
I1
s(g1
I804
VBuilder
p1270
tp1271
I1
s(g1
I145
VRemoteViews
p1272
tp1273
I1
s(g1
I1435
VgetLoadingUri
p1274
tp1275
I1
s(g1
I295
Vbytes
p1276
tp1277
I2
s(g1
I1145
VLog
p1278
tp1279
I1
s(g1
I1433
Vrun
p1280
tp1281
I1
s(g1
I104
VbitmapConfig
p1282
tp1283
I1
s(g1
I89
VappCacheDir
p1284
tp1285
I1
s(g1
I296
VinitExecutorsIfNeed
p1286
tp1287
I1
s(g1
I287
VconvertView
p1288
tp1289
I1
s(g1
I237
VdiscCache
p1290
tp1291
I1
s(g1
I1889
Voptions
p1292
tp1293
I1
s(g1
I239
VcheckTaskIsNotActual
p1294
tp1295
I2
s(g1
I603
VImageDecoder
p1296
tp1297
I1
s(g1
I207
VIOException
p1298
tp1299
I1
s(g1
I221
VimageView
p1300
tp1301
I1
s(g1
I101
VindividualCacheDir
p1302
tp1303
I1
s(g1
I172
VImagePagerAdapter
p1304
tp1305
I1
s(g1
I1735
VDefaultConfigurationFactory
p1306
tp1307
I1
s(g1
I607
VresetStream
p1308
tp1309
I1
s(g1
I75
VgetInt
p1310
tp1311
I1
s(g1
I51
VenableLogging
p1312
tp1313
I1
s(g1
I1062
VIoUtils
p1314
tp1315
I1
s(g1
I92
Vget
p1316
tp1317
I1
s(g1
I117
VisViewWasReused
p1318
tp1319
I1
s(g1
I112
VBitmap
p1320
tp1321
I1
s(g1
I151
Vput
p1322
tp1323
I1
s(g1
I15
VFileNameGenerator
p1324
tp1325
I1
s(g1
I947
VfailReason
p1326
tp1327
I1
s(g1
I547
VImageDecoder
p1328
tp1329
I1
s(g1
I596
VImageDecodingInfo
p1330
tp1331
I1
s(g1
I21
VImageLoaderConfiguration
p1332
tp1333
I5
s(g1
I55
VFile
p1334
tp1335
I1
s(g1
I674
Vuri
p1336
tp1337
I1
s(g1
I265
Vheight
p1338
tp1339
I1
s(g1
I710
VInputStream
p1340
tp1341
I1
s(g1
I62
VgetApplicationContext
p1342
tp1343
I1
s(g1
I327
VLOG_CACHE_IMAGE_ON_DISC
p1344
tp1345
I1
s(g1
I169
VcustomListener
p1346
tp1347
I1
s(g1
I1741
Vheight
p1348
tp1349
I1
s(g1
I446
VmemoryCacheKey
p1350
tp1351
I1
s(g1
I83
Vprivate
p1352
tp1353
I60
s(g1
I363
VL
p1354
tp1355
I1
s(g1
I205
VLOG_TASK_CANCELLED_IMAGEVIEW_LOST
p1356
tp1357
I1
s(g1
I179
VcacheDirPath
p1358
tp1359
I1
s(g1
I401
VSystem
p1360
tp1361
I1
s(g1
I125
VOverride
p1362
tp1363
I1
s(g1
I90
VImageLoader
p1364
tp1365
I1
s(g1
I215
VmBitmapRect
p1366
tp1367
I1
s(g1
I1268
VL
p1368
tp1369
I1
s(g1
I111
VconsiderExifParams
p1370
tp1371
I1
s(g1
I219
VFile
p1372
tp1373
I1
s(g1
I286
VnetworkDeniedDownloader
p1374
tp1375
I1
s(g1
I108
VdiscCacheFileNameGenerator
p1376
tp1377
I1
s(g1
I1072
VfieldName
p1378
tp1379
I1
s(g1
I674
VgetStubImage
p1380
tp1381
I1
s(g1
I184
Ve
p1382
tp1383
I2
s(g1
I95
VbitmapConfig
p1384
tp1385
I1
s(g1
I199
VString
p1386
tp1387
I1
s(g1
I77
VgetInstance
p1388
tp1389
I1
s(g1
I147
VIMAGE_URLS
p1390
tp1391
I1
s(g1
I216
Vmargin
p1392
tp1393
I1
s(g1
I774
VTotalSizeLimitedDiscCache
p1394
tp1395
I1
s(g1
I747
VmaxHeightField
p1396
tp1397
I1
s(g1
I221
Vmargin
p1398
tp1399
I1
s(g1
I51
S''
p1400
tp1401
I11
s(g1
I927
VcacheDir
p1402
tp1403
I1
s(g1
I1571
VdenyNetworkDownloads
p1404
tp1405
I1
s(g1
I43
Vheight
p1406
tp1407
I1
s(g1
I196
VInputStream
p1408
tp1409
I1
s(g1
I171
VvalueSize
p1410
tp1411
I1
s(g1
I196
VObject
p1412
tp1413
I1
s(g1
I382
VFile
p1414
tp1415
I1
s(g1
I557
VimageUri
p1416
tp1417
I1
s(g1
I134
Vput
p1418
tp1419
I1
s(g1
I14
VLimitedDiscCache
p1420
tp1421
I2
s(g1
I47
VString
p1422
tp1423
I2
s(g1
I130
VloggingEnabled
p1424
tp1425
I2
s(g1
I1158
Voptions
p1426
tp1427
I1
s(g1
I209
VloadingDate
p1428
tp1429
I1
s(g1
I182
VList
p1430
tp1431
I1
s(g1
I777
VString
p1432
tp1433
I1
s(g1
I138
VOutputStream
p1434
tp1435
I1
s(g1
I974
Vwidth
p1436
tp1437
I1
s(g1
I1169
Vpost
p1438
tp1439
I1
s(g1
I404
VIllegalArgumentException
p1440
tp1441
I1
s(g1
I797
VdecodeOptions
p1442
tp1443
I1
s(g1
I178
Vintent
p1444
tp1445
I1
s(g1
I36
VAppWidgetProvider
p1446
tp1447
I1
s(g1
I1891
VImageLoadingListener
p1448
tp1449
I1
s(g1
I92
VpagerPosition
p1450
tp1451
I1
s(g1
I519
Vscale
p1452
tp1453
I1
s(g1
I160
VcacheDir
p1454
tp1455
I1
s(g1
I393
Vview
p1456
tp1457
I2
s(g1
I463
VimageUri
p1458
tp1459
I1
s(g1
I60
Vbitmap
p1460
tp1461
I1
s(g1
I216
VgetCount
p1462
tp1463
I1
s(g1
I234
VBitmap
p1464
tp1465
I1
s(g1
I680
Voptions
p1466
tp1467
I2
s(g1
I193
VOnScrollSmartOptions
p1468
tp1469
I1
s(g1
I1448
VL
p1470
tp1471
I1
s(g1
I455
VimageWidth
p1472
tp1473
I1
s(g1
I144
Vlistener
p1474
tp1475
I2
s(g1
I258
VbitmapConfig
p1476
tp1477
I1
s(g1
I159
VviewScaleType
p1478
tp1479
I2
s(g1
I155
VsoftMap
p1480
tp1481
I1
s(g1
I241
Vlog
p1482
tp1483
I1
s(g1
I133
VgetStreamFromOtherSource
p1484
tp1485
I1
s(g1
I773
VgetParentFile
p1486
tp1487
I1
s(g1
I222
VV
p1488
tp1489
I1
s(g1
I270
VlastUsageDates
p1490
tp1491
I1
s(g1
I650
VdestRect
p1492
tp1493
I1
s(g1
I587
VsetImageResource
p1494
tp1495
I1
s(g1
I279
VDrawable
p1496
tp1497
I1
s(g1
I70
VString
p1498
tp1499
I1
s(g1
I1355
VOutOfMemoryError
p1500
tp1501
I1
s(g1
I65
VfileNameGenerator
p1502
tp1503
I1
s(g1
I19
VBaseDiscCache
p1504
tp1505
I1
s(g1
I285
VgetLoadingUrlForView
p1506
tp1507
I1
s(g1
I512
Vbmp
p1508
tp1509
I1
s(g1
I1425
VloggingEnabled
p1510
tp1511
I1
s(g1
I430
VDefaultThreadFactory
p1512
tp1513
I1
s(g1
I268
VlastUsageDates
p1514
tp1515
I1
s(g1
I724
VString
p1516
tp1517
I1
s(g1
I300
Vcache
p1518
tp1519
I1
s(g1
I118
Vcontext
p1520
tp1521
I2
s(g1
I207
VcacheSize
p1522
tp1523
I1
s(g1
I1552
VFailReason
p1524
tp1525
I1
s(g1
I1173
Vsaved
p1526
tp1527
I1
s(g1
I223
Vi
p1528
tp1529
I1
s(g1
I370
VgetHeaderField
p1530
tp1531
I2
s(g1
I30
VFile
p1532
tp1533
I2
s(g1
I2660
Vdestroy
p1534
tp1535
I1
s(g1
I1518
VOverride
p1536
tp1537
I1
s(g1
I380
VInputStream
p1538
tp1539
I1
s(g1
I680
VtargetSize
p1540
tp1541
I1
s(g1
I441
VUri
p1542
tp1543
I1
s(g1
I135
Vget
p1544
tp1545
I1
s(g1
I840
VnewSingleThreadExecutor
p1546
tp1547
I1
s(g1
I264
Vhandler
p1548
tp1549
I1
s(g1
I526
Vbmp
p1550
tp1551
I1
s(g1
I157
Vcontext
p1552
tp1553
I1
s(g1
I39
Vbyte
p1554
tp1555
I12
s(g1
I259
VdelayBeforeLoading
p1556
tp1557
I1
s(g1
I726
VfireImageLoadingFailedEvent
p1558
tp1559
I1
s(g1
I291
VcacheMaxSize
p1560
tp1561
I1
s(g1
I981
VtaskExecutorForCachedImages
p1562
tp1563
I1
s(g1
I422
VContext
p1564
tp1565
I1
s(g1
I201
Vcached
p1566
tp1567
I1
s(g1
I667
VdiscCacheDir
p1568
tp1569
I1
s(g1
I165
VImagePagerActivity
p1570
tp1571
I1
s(g1
I748
Vput
p1572
tp1573
I1
s(g1
I67
VimageUrls
p1574
tp1575
I1
s(g1
I63
VV
p1576
tp1577
I1
s(g1
I186
Vuri
p1578
tp1579
I2
s(g1
I82
Vbundle
p1580
tp1581
I3
s(g1
I462
VLOG_GET_IMAGE_FROM_MEMORY_CACHE_AFTER_WAITING
p1582
tp1583
I1
s(g1
I367
Vscale
p1584
tp1585
I1
s(g1
I490
Vbmp
p1586
tp1587
I1
s(g1
I134
VInputStream
p1588
tp1589
I1
s(g1
I641
Voptions
p1590
tp1591
I1
s(g1
I228
Vinflater
p1592
tp1593
I1
s(g1
I30
VgetDisplayMetrics
p1594
tp1595
I1
s(g1
I148
VrootView
p1596
tp1597
I1
s(g1
I504
VloadFromUriLock
p1598
tp1599
I1
s(g1
I103
VscaleType
p1600
tp1601
I1
s(g1
I258
VDisplayBitmapTask
p1602
tp1603
I1
s(g1
I100
VheavyImages
p1604
tp1605
I1
s(g1
I51
Vkey
p1606
tp1607
I1
s(g1
I70
VimageView
p1608
tp1609
I1
s(g1
I96
VgetApplicationContext
p1610
tp1611
I1
s(g1
I640
VsrcRect
p1612
tp1613
I1
s(g1
I103
VimageScaleType
p1614
tp1615
I1
s(g1
I651
Vparse
p1616
tp1617
I1
s(g1
I163
VThrowable
p1618
tp1619
I1
s(g1
I335
VStorageUtils
p1620
tp1621
I1
s(g1
I308
VDisplayImageOptions
p1622
tp1623
I1
s(g1
I21
VimageLoader
p1624
tp1625
I1
s(g1
I189
Vmin
p1626
tp1627
I1
s(g1
I46
VFile
p1628
tp1629
I1
s(g1
I388
VOverride
p1630
tp1631
I2
s(g1
I59
Vbuffer_size
p1632
tp1633
I1
s(g1
I303
VcreateReserveDiscCacheDir
p1634
tp1635
I1
s(g1
I42
VOutputStream
p1636
tp1637
I1
s(g1
I1117
VLog
p1638
tp1639
I1
s(g1
I1464
Vcurrent
p1640
tp1641
I1
s(g1
I265
Vscale
p1642
tp1643
I1
s(g1
I149
VimageScaleType
p1644
tp1645
I2
s(g1
I420
Vsnapshot
p1646
tp1647
I1
s(g1
I162
VlruCache
p1648
tp1649
I1
s(g1
I46
VhttpReadTimeout
p1650
tp1651
I1
s(g1
I74
VcacheDir
p1652
tp1653
I1
s(g1
I108
VIterator
p1654
tp1655
I1
s(g1
I134
Vcache
p1656
tp1657
I1
s(g1
I112
VimageView
p1658
tp1659
I1
s(g1
I80
Vbytes
p1660
tp1661
I1
s(g1
I99
VshowImageForEmptyUri
p1662
tp1663
I1
s(g1
I706
VIOException
p1664
tp1665
I1
s(g1
I688
VObject
p1666
tp1667
I1
s(g1
I80
Vwrite
p1668
tp1669
I1
s(g1
I260
Vtoken
p1670
tp1671
I1
s(g1
I937
VUsingFreqLimitedCache
p1672
tp1673
I1
s(g1
I94
VBitmap
p1674
tp1675
I1
s(g1
I175
VsetAdapter
p1676
tp1677
I1
s(g1
I734
VtargetSize
p1678
tp1679
I1
s(g1
I504
Vlock
p1680
tp1681
I1
s(g1
I299
Vopen
p1682
tp1683
I1
s(g1
I2105
VimageView
p1684
tp1685
I1
s(g1
I80
Vkey
p1686
tp1687
I1
s(g1
I90
VV
p1688
tp1689
I1
s(g1
I385
VHttpURLConnection
p1690
tp1691
I1
s(g1
I1117
VimageView
p1692
tp1693
I1
s(g1
I586
Voptions
p1694
tp1695
I1
s(g1
I626
Vvw
p1696
tp1697
I1
s(g1
I898
VimageLoadingInfo
p1698
tp1699
I1
s(g1
I78
VimageUrls
p1700
tp1701
I3
s(g1
I222
VFileOutputStream
p1702
tp1703
I1
s(g1
I483
VimageUrl
p1704
tp1705
I1
s(g1
I169
VString
p1706
tp1707
I1
s(g1
I25
g1400
tp1708
I241
s(g1
I644
VimageLoadingInfo
p1709
tp1710
I1
s(g1
I91
VcacheOnDisc
p1711
tp1712
I1
s(g1
I61
VString
p1713
tp1714
I1
s(g1
I222
VLOG_TASK_CANCELLED_IMAGEAWARE_REUSED
p1715
tp1716
I1
s(g1
I1468
Vtotal
p1717
tp1718
I1
s(g1
I947
Vwidth
p1719
tp1720
I1
s(g1
I136
Vis
p1721
tp1722
I1
s(g1
I311
VDisplayImageOptions
p1723
tp1724
I1
s(g1
I245
Vwidth
p1725
tp1726
I1
s(g1
I107
VgetExternalCacheDir
p1727
tp1728
I1
s(g1
I170
VtestSchemeAssets
p1729
tp1730
I1
s(g1
I169
VextraForDownloader
p1731
tp1732
I2
s(g1
I178
Vis
p1733
tp1734
I1
s(g1
I315
Vanim
p1735
tp1736
I1
s(g1
I261
Vbuild
p1737
tp1738
I1
s(g1
I321
Vexpected
p1739
tp1740
I1
s(g1
I640
VThread
p1741
tp1742
I1
s(g1
I339
VToast
p1743
tp1744
I1
s(g1
I362
Vscale
p1745
tp1746
I1
s(g1
I104
VonDestroy
p1747
tp1748
I1
s(g1
I85
VscaleType
p1749
tp1750
I1
s(g1
I96
VResponseBody
p1751
tp1752
I1
s(g1
I219
VFileOutputStream
p1753
tp1754
I1
s(g1
I286
VsavedSuccessfully
p1755
tp1756
I1
s(g1
I922
Vos
p1757
tp1758
I1
s(g1
I597
Vwidth
p1759
tp1760
I1
s(g1
I51
Vvalue
p1761
tp1762
I1
s(g1
I203
VIntent
p1763
tp1764
I1
s(g1
I1509
Vuri
p1765
tp1766
I1
s(g1
I216
VrootView
p1767
tp1768
I1
s(g1
I127
VString
p1769
tp1770
I1
s(g1
I75
VgetExternalStorageState
p1771
tp1772
I1
s(g1
I99
VbitmapConfig
p1773
tp1774
I1
s(g1
I202
Vpath
p1775
tp1776
I1
s(g1
I368
VinitEmptyFiledsWithDefaultValues
p1777
tp1778
I1
s(g1
I612
VscaleType
p1779
tp1780
I1
s(g1
I365
VtargetHeight
p1781
tp1782
I1
s(g1
I106
VresponseBody
p1783
tp1784
I1
s(g1
I466
VimageWidth
p1785
tp1786
I1
s(g1
I87
Vcontext
p1787
tp1788
I1
s(g1
I333
Vf
p1789
tp1790
I1
s(g1
I230
Vparams
p1791
tp1792
I1
s(g1
I144
VView
p1793
tp1794
I1
s(g1
I316
VscaleType
p1795
tp1796
I1
s(g1
I1087
Vwait
p1797
tp1798
I1
s(g1
I210
VimageView
p1799
tp1800
I1
s(g1
I57
VUILApplication
p1801
tp1802
I2
s(g1
I175
Vcontext
p1803
tp1804
I1
s(g1
I76
VsavedInstanceState
p1805
tp1806
I2
s(g1
I139
VThreadFactory
p1807
tp1808
I1
s(g1
I76
VListView
p1809
tp1810
I1
s(g1
I90
VStorageUtils
p1811
tp1812
I1
s(g1
I425
VimageFile
p1813
tp1814
I1
s(g1
I142
VBitmap
p1815
tp1816
I1
s(g1
I133
VAppWidgetManager
p1817
tp1818
I1
s(g1
I542
VviewScaleType
p1819
tp1820
I1
s(g1
I88
VshowStubImage
p1821
tp1822
I1
s(g1
I698
VcacheDir
p1823
tp1824
I1
s(g1
I385
VimageView
p1825
tp1826
I1
s(g1
I180
VscrollState
p1827
tp1828
I1
s(g1
I79
VimageUrls
p1829
tp1830
I3
s(g1
I93
Vcloseable
p1831
tp1832
I1
s(g1
I702
VImageSize
p1833
tp1834
I1
s(g1
I2643
Voptions
p1835
tp1836
I1
s(g1
I60
VgetApplicationContext
p1837
tp1838
I1
s(g1
I682
VByteArrayOutputStream
p1839
tp1840
I1
s(g1
I366
Voptions
p1841
tp1842
I1
s(g1
I365
VbufferSize
p1843
tp1844
I1
s(g1
I187
VonOptionsItemSelected
p1845
tp1846
I1
s(g1
I1559
VNETWORK_DENIED
p1847
tp1848
I1
s(g1
I309
VimageUri
p1849
tp1850
I1
s(g1
I99
Vbitmap
p1851
tp1852
I1
s(g1
I1329
VDefaultConfigurationFactory
p1853
tp1854
I1
s(g1
I696
Vwidth
p1855
tp1856
I1
s(g1
I128
VBundle
p1857
tp1858
I1
s(g1
I53
VV
p1859
tp1860
I1
s(g1
I356
Vget
p1861
tp1862
I1
s(g1
I592
VInputStream
p1863
tp1864
I1
s(g1
I99
VimageSize
p1865
tp1866
I1
s(g1
I87
Vbitmap
p1867
tp1868
I1
s(g1
I1904
Vr
p1869
tp1870
I1
s(g1
I178
VInputStream
p1871
tp1872
I1
s(g1
I264
VContext
p1873
tp1874
I1
s(g1
I1118
Vmkdirs
p1875
tp1876
I1
s(g1
I739
VmemoryCacheKey
p1877
tp1878
I1
s(g1
I215
VmView
p1879
tp1880
I1
s(g1
I149
Vvalue
p1881
tp1882
I1
s(g1
I136
VBundle
p1883
tp1884
I1
s(g1
I627
VDiscCache
p1885
tp1886
I1
s(g1
I132
VwriteDebugLogs
p1887
tp1888
I1
s(g1
I134
VTest
p1889
tp1890
I1
s(g1
I599
VmemoryCache
p1891
tp1892
I1
s(g1
I664
VimageView
p1893
tp1894
I1
s(g1
I380
Vbuild
p1895
tp1896
I1
s(g1
I11
VApplication
p1897
tp1898
I4
s(g1
I240
Vcharset
p1899
tp1900
I2
s(g1
I116
VgetStream
p1901
tp1902
I1
s(g1
I476
VOverride
p1903
tp1904
I1
s(g1
I212
VImageView
p1905
tp1906
I1
s(g1
I95
VbitmapDisplayer
p1907
tp1908
I1
s(g1
I192
Vtask
p1909
tp1910
I1
s(g1
I70
Vbi
p1911
tp1912
I1
s(g1
I815
VStorageUtils
p1913
tp1914
I1
s(g1
I394
VString
p1915
tp1916
I1
s(g1
I110
Vcompare
p1917
tp1918
I1
s(g1
I172
VContentResolver
p1919
tp1920
I1
s(g1
I1838
VtargetImageSize
p1921
tp1922
I1
s(g1
I723
VUnsupportedOperationException
p1923
tp1924
I1
s(g1
I2612
Vstop
p1925
tp1926
I1
s(g1
I205
VuriPrefix
p1927
tp1928
I1
s(g1
I585
VresetStream
p1929
tp1930
I1
s(g1
I39
Vfloat
p1931
tp1932
I4
s(g1
I44
VString
p1933
tp1934
I2
s(g1
I522
VOverride
p1935
tp1936
I1
s(g1
I684
VURL
p1937
tp1938
I1
s(g1
I615
VDEFAULT_CACHE_DIRECTORY
p1939
tp1940
I1
s(g1
I662
Vbmp
p1941
tp1942
I1
s(g1
I480
VEXACT
p1943
tp1944
I1
s(g1
I498
VmemoryCacheKey
p1945
tp1946
I1
s(g1
I1118
VcompressedSuccessfully
p1947
tp1948
I1
s(g1
I395
VInputStream
p1949
tp1950
I1
s(g1
I180
VdecodingInfo
p1951
tp1952
I1
s(g1
I31
VgetApplicationContext
p1953
tp1954
I1
s(g1
I90
VString
p1955
tp1956
I1
s(g1
I416
Vremoved
p1957
tp1958
I1
s(g1
I48
VStorageUtils
p1959
tp1960
I1
s(g1
I16
VonCreate
p1961
tp1962
I1
s(g1
I437
Vbh
p1963
tp1964
I1
s(g1
I229
Vdrawable
p1965
tp1966
I1
s(g1
I635
VimageStream
p1967
tp1968
I1
s(g1
I138
VsavedInstanceState
p1969
tp1970
I1
s(g1
I1127
Vuri
p1971
tp1972
I1
s(g1
I103
Vfr
p1973
tp1974
I1
s(g1
I28
VImageLoaderConfiguration
p1975
tp1976
I1
s(g1
I1167
Vsave
p1977
tp1978
I1
s(g1
I181
Vmargin
p1979
tp1980
I2
s(g1
I248
VdiscCacheFileNameGenerator
p1981
tp1982
I1
s(g1
I200
VcachedFile
p1983
tp1984
I1
s(g1
I1408
VshouldShowImageOnFail
p1985
tp1986
I1
s(g1
I738
VLOG_CACHE_IMAGE_ON_DISC
p1987
tp1988
I1
s(g1
I179
VimageLoadingExecutor
p1989
tp1990
I1
s(g1
I223
VLog
p1991
tp1992
I1
s(g1
I781
Vsubmit
p1993
tp1994
I1
s(g1
I245
VImageView
p1995
tp1996
I1
s(g1
I337
VcomputeImageScale
p1997
tp1998
I1
s(g1
I199
Vposition
p1999
tp2000
I1
s(g1
I2645
Vstop
p2001
tp2002
I1
s(g1
I634
VRect
p2003
tp2004
I1
s(g1
I43
VtotalBytesSkipped
p2005
tp2006
I1
s(g1
I55
VHttpGet
p2007
tp2008
I1
s(g1
I1040
VtryLoadBitmap
p2009
tp2010
I1
s(g1
I455
VmemoryCacheKey
p2011
tp2012
I1
s(g1
I169
Vwidth
p2013
tp2014
I1
s(g1
I152
VScheme
p2015
tp2016
I1
s(g1
I374
Ve
p2017
tp2018
I1
s(g1
I154
Vposition
p2019
tp2020
I1
s(g1
I97
VimageUri
p2021
tp2022
I2
s(g1
I1420
Vdownloader
p2023
tp2024
I1
s(g1
I160
Vput
p2025
tp2026
I1
s(g1
I179
VString
p2027
tp2028
I1
s(g1
I156
Vkey
p2029
tp2030
I1
s(g1
I50
VmemoryCacheSize
p2031
tp2032
I1
s(g1
I362
VInputStream
p2033
tp2034
I1
s(g1
I57
VdiscCacheFileNameGenerator
p2035
tp2036
I1
s(g1
I701
Vurl
p2037
tp2038
I1
s(g1
I200
Vinflater
p2039
tp2040
I1
s(g1
I367
VdecodingType
p2041
tp2042
I1
s(g1
I906
Vresult
p2043
tp2044
I1
s(g1
I696
VOverride
p2045
tp2046
I1
s(g1
I116
VcacheOnDisc
p2047
tp2048
I2
s(g1
I984
VdownloadSizedImage
p2049
tp2050
I1
s(g1
I93
VhttpRequest
p2051
tp2052
I1
s(g1
I39
Vint
p2053
tp2054
I111
s(g1
I719
Vextra
p2055
tp2056
I1
s(g1
I48
VImageView
p2057
tp2058
I1
s(g1
I53
Vurl
p2059
tp2060
I1
s(g1
I178
VcomputeImageScale
p2061
tp2062
I1
s(g1
I299
VDiskLruCache
p2063
tp2064
I1
s(g1
I39
VcacheDir
p2065
tp2066
I1
s(g1
I144
VLong
p2067
tp2068
I1
s(g1
I624
VImageLoadingInfo
p2069
tp2070
I1
s(g1
I103
Voptions
p2071
tp2072
I1
s(g1
I143
VtargetSize
p2073
tp2074
I2
s(g1
I669
Voptions
p2075
tp2076
I1
s(g1
I1426
Vd
p2077
tp2078
I1
s(g1
I597
VsrcRect
p2079
tp2080
I1
s(g1
I249
VtestGetImageSizeScaleTo_dontUseImageActualSizeWithWrapContent
p2081
tp2082
I1
s(g1
I597
VgetRoundedCornerBitmap
p2083
tp2084
I1
s(g1
I115
Vput
p2085
tp2086
I1
s(g1
I1232
VmemoryCachePercent
p2087
tp2088
I1
s(g1
I398
VonLoadingFailed
p2089
tp2090
I1
s(g1
I287
VBitmapFactory
p2091
tp2092
I1
s(g1
I968
VLoadAndDisplayImageTask
p2093
tp2094
I1
s(g1
I372
VcloseSilently
p2095
tp2096
I1
s(g1
I808
VmaxFileCount
p2097
tp2098
I1
s(g1
I200
VIntent
p2099
tp2100
I1
s(g1
I556
Viterator
p2101
tp2102
I1
s(g1
I212
VisImageCachedOnDisc
p2103
tp2104
I1
s(g1
I1423
VLog
p2105
tp2106
I1
s(g1
I974
Vengine
p2107
tp2108
I1
s(g1
I97
VdiscCache
p2109
tp2110
I2
s(g1
I107
VmemClass
p2111
tp2112
I1
s(g1
I856
VimageView
p2113
tp2114
I1
s(g1
I458
Ventry
p2115
tp2116
I1
s(g1
I41
VFileNameGenerator
p2117
tp2118
I3
s(g1
I51
VCollections
p2119
tp2120
I1
s(g1
I160
VViewPager
p2121
tp2122
I1
s(g1
I167
VdisplayBitmapTask
p2123
tp2124
I2
s(g1
I120
VSuppressWarnings
p2125
tp2126
I1
s(g1
I957
VMemoryCacheKeyUtil
p2127
tp2128
I1
s(g1
I228
VimageStream
p2129
tp2130
I1
s(g1
I634
Vextra
p2131
tp2132
I1
s(g1
I455
Vbmp
p2133
tp2134
I1
s(g1
I266
VtaskExecutor
p2135
tp2136
I1
s(g1
I94
Vclear
p2137
tp2138
I1
s(g1
I1712
Vwidth
p2139
tp2140
I1
s(g1
I182
VDisplayImageOptions
p2141
tp2142
I1
s(g1
I2115
VcancelDisplayTask
p2143
tp2144
I1
s(g1
I342
VsetImageBitmap
p2145
tp2146
I1
s(g1
I59
VgenerateKey
p2147
tp2148
I1
s(g1
I944
VdiscCacheFileCount
p2149
tp2150
I1
s(g1
I231
Vview
p2151
tp2152
I1
s(g1
I1117
VImageLoadingInfo
p2153
tp2154
I1
s(g1
I314
VAnimationUtils
p2155
tp2156
I1
s(g1
I622
Vscale
p2157
tp2158
I1
s(g1
I100
Vput
p2159
tp2160
I1
s(g1
I195
Vstream
p2161
tp2162
I1
s(g1
I1430
VImageView
p2163
tp2164
I1
s(g1
I736
VgetDeclaredField
p2165
tp2166
I1
s(g1
I226
VtaskDistributor
p2167
tp2168
I1
s(g1
I89
VfindViewById
p2169
tp2170
I1
s(g1
I72
VImageLoader
p2171
tp2172
I1
s(g1
I566
VimageStream
p2173
tp2174
I1
s(g1
I214
VshouldStopLoading
p2175
tp2176
I1
s(g1
I976
VgetParentFile
p2177
tp2178
I1
s(g1
I102
Vimage
p2179
tp2180
I2
s(g1
I119
Vconfig
p2181
tp2182
I1
s(g1
I414
VsrcHeight
p2183
tp2184
I1
s(g1
I553
VgetImageScaleType
p2185
tp2186
I1
s(g1
I147
VScheme
p2187
tp2188
I1
s(g1
I1677
Vresume
p2189
tp2190
I1
s(g1
I251
Vi
p2191
tp2192
I1
s(g1
I126
Vconfig
p2193
tp2194
I1
s(g1
I939
VLog
p2195
tp2196
I1
s(g1
I1129
Voptions
p2197
tp2198
I1
s(g1
I132
VBitmap
p2199
tp2200
I1
s(g1
I107
VsizeLimit
p2201
tp2202
I1
s(g1
I168
VOverride
p2203
tp2204
I1
s(g1
I1295
VinitEmptyFiledsWithDefaultValues
p2205
tp2206
I1
s(g1
I798
Vuri
p2207
tp2208
I2
s(g1
I257
Vwidth_tmp
p2209
tp2210
I1
s(g1
I113
VsizeLimit
p2211
tp2212
I1
s(g1
I119
VsetSelection
p2213
tp2214
I1
s(g1
I927
VLog
p2215
tp2216
I1
s(g1
I105
Vpager
p2217
tp2218
I1
s(g1
I72
VIOException
p2219
tp2220
I1
s(g1
I72
VsavedInstanceState
p2221
tp2222
I1
s(g1
I84
VPROTOCOL_HTTP
p2223
tp2224
I1
s(g1
I218
VOverride
p2225
tp2226
I1
s(g1
I148
VImageView
p2227
tp2228
I1
s(g1
I86
Vtag
p2229
tp2230
I1
s(g1
I83
VBundle
p2231
tp2232
I2
s(g1
I660
VonLoadingStarted
p2233
tp2234
I1
s(g1
I1172
VdownloadSizedImage
p2235
tp2236
I1
s(g1
I116
Vmargin
p2237
tp2238
I2
s(g1
I683
Vput
p2239
tp2240
I1
s(g1
I465
VimageUri
p2241
tp2242
I1
s(g1
I2644
Vhandler
p2243
tp2244
I1
s(g1
I49
VwrappedDownloader
p2245
tp2246
I1
s(g1
I246
Vwidth
p2247
tp2248
I1
s(g1
I31
Vduration
p2249
tp2250
I1
s(g1
I23
Vcontext
p2251
tp2252
I1
s(g1
I81
Vbundle
p2253
tp2254
I1
s(g1
I64
VK
p2255
tp2256
I1
s(g1
I1114
Vexists
p2257
tp2258
I1
s(g1
I105
VpagerPosition
p2259
tp2260
I1
s(g1
I888
VsrcSize
p2261
tp2262
I1
s(g1
I336
VisRecycled
p2263
tp2264
I1
s(g1
I376
VOverride
p2265
tp2266
I2
s(g1
I98
Vbitmap
p2267
tp2268
I1
s(g1
I109
VsizeLimit
p2269
tp2270
I1
s(g1
I81
VRequest
p2271
tp2272
I1
s(g1
I1133
VgetParentFile
p2273
tp2274
I1
s(g1
I1591
Vput
p2275
tp2276
I2
s(g1
I880
VisEqualTo
p2277
tp2278
I1
s(g1
I165
VBitmap
p2279
tp2280
I1
s(g1
I89
VroundBitmap
p2281
tp2282
I1
s(g1
I127
VdiskCacheSize
p2283
tp2284
I1
s(g1
I44
VdiscCacheSize
p2285
tp2286
I1
s(g1
I298
VViewScaleType
p2287
tp2288
I1
s(g1
I304
VdecodingInfo
p2289
tp2290
I1
s(g1
I206
VimageLoadingExecutor
p2291
tp2292
I1
s(g1
I75
VEnvironment
p2293
tp2294
I1
s(g1
I1166
Vheight
p2295
tp2296
I1
s(g1
I214
Vtotal
p2297
tp2298
I1
s(g1
I403
VIOException
p2299
tp2300
I1
s(g1
I959
VmemoryCache
p2301
tp2302
I1
s(g1
I101
Voptions
p2303
tp2304
I1
s(g1
I303
VfailReason
p2305
tp2306
I1
s(g1
I268
VFileOutputStream
p2307
tp2308
I1
s(g1
I33
VimageView
p2309
tp2310
I1
s(g1
I276
Vbuf
p2311
tp2312
I2
s(g1
I547
VgetWidth
p2313
tp2314
I1
s(g1
I230
Vkey
p2315
tp2316
I1
s(g1
I200
VDisplayImageOptions
p2317
tp2318
I1
s(g1
I116
VOverride
p2319
tp2320
I1
s(g1
I630
Vheight
p2321
tp2322
I1
s(g1
I112
VFile
p2323
tp2324
I1
s(g1
I170
VLayoutInflater
p2325
tp2326
I1
s(g1
I364
VsetVisibility
p2327
tp2328
I1
s(g1
I83
Vurl
p2329
tp2330
I1
s(g1
I156
Vinflate
p2331
tp2332
I1
s(g1
I63
VimageLoadingInfo
p2333
tp2334
I1
s(g1
I213
Vimage
p2335
tp2336
I1
s(g1
I437
VshutdownNow
p2337
tp2338
I1
s(g1
I614
VimageView
p2339
tp2340
I1
s(g1
I510
Vlistener
p2341
tp2342
I1
s(g1
I557
VimageStream
p2343
tp2344
I1
s(g1
I1172
Voptions
p2345
tp2346
I1
s(g1
I1535
Voptions
p2347
tp2348
I1
s(g1
I66
VgetFile
p2349
tp2350
I1
s(g1
I574
VInputStream
p2351
tp2352
I1
s(g1
I161
VvalueSize
p2353
tp2354
I1
s(g1
I251
Vwidth
p2355
tp2356
I1
s(g1
I190
Vmargin
p2357
tp2358
I2
s(g1
I295
VcreateTaskExecutor
p2359
tp2360
I1
s(g1
I384
VthreadPriority
p2361
tp2362
I1
s(g1
I1452
Vresume
p2363
tp2364
I1
s(g1
I35
Vwidth
p2365
tp2366
I1
s(g1
I1148
VLog
p2367
tp2368
I1
s(g1
I255
VDisplayBitmapTask
p2369
tp2370
I1
s(g1
I384
VgetHeaderField
p2371
tp2372
I1
s(g1
I197
VindividualDir
p2373
tp2374
I1
s(g1
I167
VOverride
p2375
tp2376
I1
s(g1
I295
VrememberUsage
p2377
tp2378
I1
s(g1
I92
VimageUri
p2379
tp2380
I1
s(g1
I1678
Vbmp
p2381
tp2382
I1
s(g1
I21
VFile
p2383
tp2384
I1
s(g1
I41
Vheight
p2385
tp2386
I1
s(g1
I626
VsrcSize
p2387
tp2388
I1
s(g1
I2405
VDeprecated
p2389
tp2390
I1
s(g1
I63
VonCreate
p2391
tp2392
I1
s(g1
I330
VdisplayImage
p2393
tp2394
I1
s(g1
I44
VcacheDir
p2395
tp2396
I1
s(g1
I227
VLayoutInflater
p2397
tp2398
I1
s(g1
I266
VcreateTaskExecutor
p2399
tp2400
I1
s(g1
I30
VOverride
p2401
tp2402
I1
s(g1
I791
Voptions
p2403
tp2404
I1
s(g1
I675
VMalformedURLException
p2405
tp2406
I1
s(g1
I198
VSEPARATOR
p2407
tp2408
I1
s(g1
I120
VscaleType
p2409
tp2410
I1
s(g1
I173
Vtask
p2411
tp2412
I1
s(g1
I797
Voptions
p2413
tp2414
I1
s(g1
I56
VcacheDir
p2415
tp2416
I1
s(g1
I463
VLOG_GET_IMAGE_FROM_MEMORY_CACHE_AFTER_WAITING
p2417
tp2418
I1
s(g1
I219
Vfile
p2419
tp2420
I2
s(g1
I349
VcreateTaskExecutor
p2421
tp2422
I1
s(g1
I441
Vprocess
p2423
tp2424
I1
s(g1
I1637
VgetMessage
p2425
tp2426
I1
s(g1
I358
Vcxt
p2427
tp2428
I1
s(g1
I89
VContext
p2429
tp2430
I1
s(g1
I1422
VString
p2431
tp2432
I1
s(g1
I618
VnewFixedThreadPool
p2433
tp2434
I1
s(g1
I1316
VcreateDiscCache
p2435
tp2436
I1
s(g1
I939
VWARNING_DISC_CACHE_ALREADY_SET
p2437
tp2438
I1
s(g1
I234
Vput
p2439
tp2440
I1
s(g1
I133
VOverride
p2441
tp2442
I1
s(g1
I706
VUnsupportedOperationException
p2443
tp2444
I1
s(g1
I606
VimageUri
p2445
tp2446
I1
s(g1
I104
VkeyToRemove
p2447
tp2448
I1
s(g1
I437
VsrcHeight
p2449
tp2450
I1
s(g1
I38
VgetDisplayMetrics
p2451
tp2452
I1
s(g1
I239
VBuilder
p2453
tp2454
I1
s(g1
I241
VloadingDelayOnFling
p2455
tp2456
I1
s(g1
I539
VdecodingInfo
p2457
tp2458
I1
s(g1
I511
Vprocess
p2459
tp2460
I1
s(g1
I759
VL
p2461
tp2462
I1
s(g1
I207
VAnimateFirstDisplayListener
p2463
tp2464
I1
s(g1
I98
VsizeLimit
p2465
tp2466
I1
s(g1
I177
VsizeLimit
p2467
tp2468
I1
s(g1
I601
VnetworkDenied
p2469
tp2470
I1
s(g1
I1180
VdownloadImage
p2471
tp2472
I1
s(g1
I1430
VonLoadingFailed
p2473
tp2474
I1
s(g1
I41
VmemoryCacheSize
p2475
tp2476
I3
s(g1
I636
VFileNotFoundException
p2477
tp2478
I1
s(g1
I280
VloggingEnabled
p2479
tp2480
I1
s(g1
I939
VDEFAULT_MEMORY_CACHE_SIZE
p2481
tp2482
I1
s(g1
I1153
VminImageSize
p2483
tp2484
I1
s(g1
I119
VimageUri
p2485
tp2486
I1
s(g1
I90
VcacheOnDisc
p2487
tp2488
I1
s(g1
I933
Vbitmap
p2489
tp2490
I1
s(g1
I871
VtargetSize
p2491
tp2492
I1
s(g1
I88
VDiscCacheAware
p2493
tp2494
I2
s(g1
I186
Vview
p2495
tp2496
I1
s(g1
I532
VURI
p2497
tp2498
I1
s(g1
I97
Vmatrix
p2499
tp2500
I1
s(g1
I654
VsetImageDrawable
p2501
tp2502
I1
s(g1
I297
VAnimationDrawable
p2503
tp2504
I1
s(g1
I1748
Vdownloader
p2505
tp2506
I1
s(g1
I1895
VImageLoadingProgressListener
p2507
tp2508
I1
s(g1
I999
VthreadPoolSize
p2509
tp2510
I1
s(g1
I519
Vbmp
p2511
tp2512
I1
s(g1
I353
VDisplayImageOptions
p2513
tp2514
I1
s(g1
I64
VonCreate
p2515
tp2516
I1
s(g1
I920
VrunOnUiThread
p2517
tp2518
I1
s(g1
I717
VURL
p2519
tp2520
I1
s(g1
I28
VApplication
p2521
tp2522
I1
s(g1
I703
Vget
p2523
tp2524
I1
s(g1
I1099
VtargetImageSize
p2525
tp2526
I1
s(g1
I232
VFrameLayout
p2527
tp2528
I1
s(g1
I44
VhttpReadTimeout
p2529
tp2530
I2
s(g1
I669
VimageUrl
p2531
tp2532
I1
s(g1
I238
VloadingDelayOnScroll
p2533
tp2534
I1
s(g1
I1142
VRunnable
p2535
tp2536
I1
s(g1
I133
VBufferedInputStream
p2537
tp2538
I1
s(g1
I185
VstartImageGalleryActivity
p2539
tp2540
I1
s(g1
I182
VStringBuilder
p2541
tp2542
I1
s(g1
I266
VBufferedOutputStream
p2543
tp2544
I1
s(g1
I961
Vuri
p2545
tp2546
I1
s(g1
I201
VImageView
p2547
tp2548
I1
s(g1
I205
VimageStream
p2549
tp2550
I1
s(g1
I244
VcachedFiles
p2551
tp2552
I1
s(g1
I494
Vsave
p2553
tp2554
I1
s(g1
I213
VimageAware
p2555
tp2556
I1
s(g1
I843
VUri
p2557
tp2558
I1
s(g1
I168
VImageDecodingInfo
p2559
tp2560
I1
s(g1
I1756
VmemoryCache
p2561
tp2562
I1
s(g1
I1355
VimageUrl
p2563
tp2564
I1
s(g1
I284
VL
p2565
tp2566
I1
s(g1
I783
VMemoryCacheUtil
p2567
tp2568
I1
s(g1
I97
Vcontext
p2569
tp2570
I1
s(g1
I103
VshowImageOnFail
p2571
tp2572
I3
s(g1
I200
VOverride
p2573
tp2574
I2
s(g1
I185
VException
p2575
tp2576
I1
s(g1
I705
VImageSize
p2577
tp2578
I1
s(g1
I484
VgetOwnCacheDirectory
p2579
tp2580
I1
s(g1
I385
Vconn
p2581
tp2582
I1
s(g1
I1430
Vlistener
p2583
tp2584
I1
s(g1
I114
VimageSize
p2585
tp2586
I1
s(g1
I136
VString
p2587
tp2588
I1
s(g1
I790
VmemoryCacheKey
p2589
tp2590
I1
s(g1
I476
Vcache
p2591
tp2592
I1
s(g1
I646
VsetTag
p2593
tp2594
I1
s(g1
I124
VMd5FileNameGenerator
p2595
tp2596
I1
s(g1
I37
Vwidth
p2597
tp2598
I1
s(g1
I214
VString
p2599
tp2600
I1
s(g1
I1882
Vmessage
p2601
tp2602
I1
s(g1
I158
VdisplayOptions
p2603
tp2604
I1
s(g1
I538
VscaleType
p2605
tp2606
I1
s(g1
I604
VisNetworkDenied
p2607
tp2608
I1
s(g1
I162
Vt
p2609
tp2610
I1
s(g1
I1086
VfieldName
p2611
tp2612
I1
s(g1
I206
VimageView
p2613
tp2614
I1
s(g1
I1422
Vformat
p2615
tp2616
I1
s(g1
I1198
VReentrantLock
p2617
tp2618
I1
s(g1
I862
VImageView
p2619
tp2620
I1
s(g1
I426
VcacheDir
p2621
tp2622
I1
s(g1
I1157
VIOException
p2623
tp2624
I1
s(g1
I105
Vimage
p2625
tp2626
I2
s(g1
I102
VshowImageOnFail
p2627
tp2628
I1
s(g1
I88
VfileName
p2629
tp2630
I1
s(g1
I1305
VdiscCacheFileNameGenerator
p2631
tp2632
I1
s(g1
I34
Vgenerate
p2633
tp2634
I1
s(g1
I183
VcacheSize
p2635
tp2636
I1
s(g1
I30
VthreadPoolSize
p2637
tp2638
I5
s(g1
I2420
VImageLoaderConfiguration
p2639
tp2640
I1
s(g1
I102
VImageLoaderConfiguration
p2641
tp2642
I1
s(g1
I79
VimageSize
p2643
tp2644
I1
s(g1
I108
VindividualCacheDir
p2645
tp2646
I1
s(g1
I89
VimageUrls
p2647
tp2648
I2
s(g1
I200
Vput
p2649
tp2650
I1
s(g1
I322
VcheckTaskIsNotActual
p2651
tp2652
I1
s(g1
I199
Vremove
p2653
tp2654
I1
s(g1
I1848
Voptions
p2655
tp2656
I1
s(g1
I2304
VgetKey
p2657
tp2658
I1
s(g1
I748
VisTaskNotActual
p2659
tp2660
I1
s(g1
I1103
VphotoToLoad
p2661
tp2662
I1
s(g1
I957
Vresult
p2663
tp2664
I1
s(g1
I103
Vcache
p2665
tp2666
I1
s(g1
I798
VonLoadingStarted
p2667
tp2668
I1
s(g1
I206
VSimpleImageActivity
p2669
tp2670
I1
s(g1
I46
VBitmap
p2671
tp2672
I1
s(g1
I197
Vremove
p2673
tp2674
I1
s(g1
I301
VgetFile
p2675
tp2676
I1
s(g1
I362
VcreateForListView
p2677
tp2678
I1
s(g1
I1832
VString
p2679
tp2680
I1
s(g1
I214
Vcurrent
p2681
tp2682
I1
s(g1
I200
VappCacheDir
p2683
tp2684
I1
s(g1
I85
VMenu
p2685
tp2686
I1
s(g1
I39
VViewScaleType
p2687
tp2688
I1
s(g1
I124
VInputStream
p2689
tp2690
I1
s(g1
I233
VDisplayImageOptions
p2691
tp2692
I1
s(g1
I1279
Vuri
p2693
tp2694
I1
s(g1
I655
VTAG
p2695
tp2696
I1
s(g1
I165
VgetResources
p2697
tp2698
I1
s(g1
I278
Vdownloader
p2699
tp2700
I1
s(g1
I198
VimageStream
p2701
tp2702
I1
s(g1
I1897
Vr
p2703
tp2704
I1
s(g1
I609
VViewScaleType
p2705
tp2706
I1
s(g1
I434
VappCacheDir
p2707
tp2708
I1
s(g1
I223
Vheight
p2709
tp2710
I1
s(g1
I94
Vwriter
p2711
tp2712
I2
s(g1
I168
VfreedSize
p2713
tp2714
I1
s(g1
I98
Vfr
p2715
tp2716
I1
s(g1
I300
VAnimationDrawable
p2717
tp2718
I1
s(g1
I144
VK
p2719
tp2720
I1
s(g1
I16
VOverride
p2721
tp2722
I1
s(g1
I773
VimageView
p2723
tp2724
I1
s(g1
I1917
Vhandler
p2725
tp2726
I1
s(g1
I43
VdenyCacheImageMultipleSizesInMemory
p2727
tp2728
I2
s(g1
I1178
Vsaved
p2729
tp2730
I1
s(g1
I84
Vequals
p2731
tp2732
I1
s(g1
I188
Vintent
p2733
tp2734
I1
s(g1
I798
VL
p2735
tp2736
I1
s(g1
I344
VgetHeight
p2737
tp2738
I1
s(g1
I171
VIntent
p2739
tp2740
I1
s(g1
I271
Vt
p2741
tp2742
I1
s(g1
I87
VgetDisplayMetrics
p2743
tp2744
I1
s(g1
I96
VfileNameGenerator
p2745
tp2746
I1
s(g1
I320
Vos
p2747
tp2748
I1
s(g1
I248
Voptions
p2749
tp2750
I1
s(g1
I160
VbmpRef
p2751
tp2752
I1
s(g1
I93
VCollections
p2753
tp2754
I1
s(g1
I212
Vparams
p2755
tp2756
I1
s(g1
I97
VtargetSize
p2757
tp2758
I1
s(g1
I227
VcurCacheSize
p2759
tp2760
I1
s(g1
I35
VgetApplicationContext
p2761
tp2762
I1
s(g1
I153
Vwidth
p2763
tp2764
I1
s(g1
I240
VimageView
p2765
tp2766
I1
s(g1
I540
VtaskDistributor
p2767
tp2768
I1
s(g1
I693
Vconfiguration
p2769
tp2770
I1
s(g1
I28
VonCreate
p2771
tp2772
I1
s(g1
I680
Ve
p2773
tp2774
I1
s(g1
I221
VBitmapDrawable
p2775
tp2776
I1
s(g1
I130
Vbounds
p2777
tp2778
I2
s(g1
I90
VOverride
p2779
tp2780
I1
s(g1
I88
VcacheDir
p2781
tp2782
I2
s(g1
I462
VtargetHeight
p2783
tp2784
I1
s(g1
I636
VimageAware
p2785
tp2786
I1
s(g1
I711
VimageUriForDecoding
p2787
tp2788
I1
s(g1
I675
VsetImageResource
p2789
tp2790
I1
s(g1
I172
VdisplayOptions
p2791
tp2792
I2
s(g1
I208
VgetLoadingUri
p2793
tp2794
I1
s(g1
I1506
VThrowable
p2795
tp2796
I1
s(g1
I305
VString
p2797
tp2798
I1
s(g1
I184
VcornerRadius
p2799
tp2800
I2
s(g1
I691
Vcache
p2801
tp2802
I1
s(g1
I230
VFrameLayout
p2803
tp2804
I1
s(g1
I43
VmemoryCacheSize
p2805
tp2806
I1
s(g1
I673
VLog
p2807
tp2808
I1
s(g1
I195
Vwidth
p2809
tp2810
I1
s(g1
I1631
Ve
p2811
tp2812
I1
s(g1
I728
VString
p2813
tp2814
I1
s(g1
I593
VimageView
p2815
tp2816
I1
s(g1
I228
VloadingDates
p2817
tp2818
I1
s(g1
I253
Vdownloader
p2819
tp2820
I1
s(g1
I549
VIterator
p2821
tp2822
I1
s(g1
I141
VOverride
p2823
tp2824
I1
s(g1
I763
Vlog
p2825
tp2826
I1
s(g1
I528
VImageSizeUtils
p2827
tp2828
I1
s(g1
I70
VIOException
p2829
tp2830
I1
s(g1
I33
Vduration
p2831
tp2832
I1
s(g1
I1508
VfailCause
p2833
tp2834
I1
s(g1
I426
VnetworkDeniedDownloader
p2835
tp2836
I1
s(g1
I685
Vbitmapdata
p2837
tp2838
I1
s(g1
I1982
VInputStream
p2839
tp2840
I1
s(g1
I432
Vrotation
p2841
tp2842
I1
s(g1
I70
Vmenu
p2843
tp2844
I1
s(g1
I1167
Vrun
p2845
tp2846
I1
s(g1
I616
Vattempt
p2847
tp2848
I1
s(g1
I19
VBitmapDisplayer
p2849
tp2850
I1
s(g1
I116
Vpager
p2851
tp2852
I1
s(g1
I95
VonCreate
p2853
tp2854
I1
s(g1
I1985
VString
p2855
tp2856
I1
s(g1
I1520
Vuri
p2857
tp2858
I1
s(g1
I189
VMath
p2859
tp2860
I1
s(g1
I46
VconnectTimeout
p2861
tp2862
I2
s(g1
I246
VstartActivity
p2863
tp2864
I1
s(g1
I1381
VimageLoadingExecutor
p2865
tp2866
I1
s(g1
I1735
VmemoryCacheSize
p2867
tp2868
I1
s(g1
I191
VimageStream
p2869
tp2870
I1
s(g1
I777
VmaxCacheSize
p2871
tp2872
I1
s(g1
I35
VHashCodeFileNameGenerator
p2873
tp2874
I1
s(g1
I1316
Vcontext
p2875
tp2876
I1
s(g1
I1248
VL
p2877
tp2878
I1
s(g1
I54
g1400
tp2879
I36
s(g1
I74
VFileNameGenerator
p2880
tp2881
I1
s(g1
I296
Vposition
p2882
tp2883
I1
s(g1
I262
VIOException
p2884
tp2885
I1
s(g1
I487
VBitmap
p2886
tp2887
I1
s(g1
I690
Vconn
p2888
tp2889
I1
s(g1
I665
VonLoadingComplete
p2890
tp2891
I1
s(g1
I369
Voptions
p2892
tp2893
I1
s(g1
I1717
Vwidth
p2894
tp2895
I1
s(g1
I257
Vdecoder
p2896
tp2897
I1
s(g1
I107
VmemoryCacheKey
p2898
tp2899
I1
s(g1
I43
VSimpleBitmapDisplayer
p2900
tp2901
I1
s(g1
I498
Vd
p2902
tp2903
I1
s(g1
I206
VDisplayImageOptions
p2904
tp2905
I1
s(g1
I96
VimageUrls
p2906
tp2907
I2
s(g1
I96
VimageSize
p2908
tp2909
I1
s(g1
I56
VimageUrl
p2910
tp2911
I1
s(g1
I205
VmemoryCacheKey
p2912
tp2913
I1
s(g1
I240
Vinflater
p2914
tp2915
I1
s(g1
I327
VLinkedBlockingQueue
p2916
tp2917
I1
s(g1
I186
VFile
p2918
tp2919
I1
s(g1
I1993
VIOException
p2920
tp2921
I1
s(g1
I31
VsizeLimit
p2922
tp2923
I1
s(g1
I386
VonLoadingStarted
p2924
tp2925
I2
s(g1
I39
VUILApplication
p2926
tp2927
I1
s(g1
I115
VimageUri
p2928
tp2929
I1
s(g1
I1715
VpeekLast
p2930
tp2931
I1
s(g1
I510
Vdecoder
p2932
tp2933
I1
s(g1
I60
VDisplayImageOptions
p2934
tp2935
I2
s(g1
I412
VString
p2936
tp2937
I1
s(g1
I370
Vposition
p2938
tp2939
I2
s(g1
I1446
VcacheKeysForImageViews
p2940
tp2941
I1
s(g1
I58
VIOException
p2942
tp2943
I1
s(g1
I100
Vpager
p2944
tp2945
I1
s(g1
I1134
VcacheDir
p2946
tp2947
I1
s(g1
I233
VBitmap
p2948
tp2949
I1
s(g1
I634
VimageLoadingInfo
p2950
tp2951
I1
s(g1
I1365
VLog
p2952
tp2953
I1
s(g1
I1294
VdecodingInfo
p2954
tp2955
I1
s(g1
I257
VImageLoader
p2956
tp2957
I1
s(g1
I122
Vdisplayer
p2958
tp2959
I1
s(g1
I394
Vpause
p2960
tp2961
I1
s(g1
I1137
VDisplayBitmapTask
p2962
tp2963
I1
s(g1
I440
VIOException
p2964
tp2965
I1
s(g1
I630
VInputStream
p2966
tp2967
I1
s(g1
I224
VView
p2968
tp2969
I1
s(g1
I508
VString
p2970
tp2971
I2
s(g1
I871
VsrcSize
p2972
tp2973
I1
s(g1
I1168
Vuri
p2974
tp2975
I1
s(g1
I217
Vpaint
p2976
tp2977
I2
s(g1
I65
VBitmap
p2978
tp2979
I1
s(g1
I168
Vintent
p2980
tp2981
I1
s(g1
I100
VappCacheDir
p2982
tp2983
I1
s(g1
I39
VImageCache
p2984
tp2985
I1
s(g1
I75
Vfiles
p2986
tp2987
I1
s(g1
I173
Vposition
p2988
tp2989
I1
s(g1
I278
VString
p2990
tp2991
I1
s(g1
I169
VInputStream
p2992
tp2993
I1
s(g1
I178
VcornerRadius
p2994
tp2995
I2
s(g1
I79
VgetStringArray
p2996
tp2997
I1
s(g1
I203
VOverride
p2998
tp2999
I1
s(g1
I128
VContext
p3000
tp3001
I1
s(g1
I426
Vbh
p3002
tp3003
I1
s(g1
I536
VIOException
p3004
tp3005
I1
s(g1
I312
VcustomExecutorForCachedImages
p3006
tp3007
I1
s(g1
I592
VisSyncLoading
p3008
tp3009
I1
s(g1
I771
Vbmp
p3010
tp3011
I1
s(g1
I387
VimageUri
p3012
tp3013
I1
s(g1
I159
VgetStreamFromOtherSource
p3014
tp3015
I1
s(g1
I695
VonLoadingStarted
p3016
tp3017
I1
s(g1
I309
VdecodeOptions
p3018
tp3019
I1
s(g1
I60
VImageLoader
p3020
tp3021
I1
s(g1
I139
Vinflater
p3022
tp3023
I1
s(g1
I101
VInputStream
p3024
tp3025
I1
s(g1
I25
VimageUrl
p3026
tp3027
I1
s(g1
I56
VMEMORY_CACHE_KEY_FORMAT
p3028
tp3029
I1
s(g1
I204
Vcount
p3030
tp3031
I1
s(g1
I656
Vbmp
p3032
tp3033
I1
s(g1
I33
VgetMenuInflater
p3034
tp3035
I1
s(g1
I965
Vheight
p3036
tp3037
I1
s(g1
I469
Voptions
p3038
tp3039
I1
s(g1
I215
VcachedImageLoadingExecutor
p3040
tp3041
I1
s(g1
I38
VcacheDir
p3042
tp3043
I1
s(g1
I1883
VImageSize
p3044
tp3045
I1
s(g1
I199
VgetWidth
p3046
tp3047
I1
s(g1
I268
Vtoken
p3048
tp3049
I1
s(g1
I49
VURL
p3050
tp3051
I1
s(g1
I589
VInputStream
p3052
tp3053
I1
s(g1
I544
VImageDecoder
p3054
tp3055
I1
s(g1
I139
Vuri
p3056
tp3057
I1
s(g1
I72
VImageSize
p3058
tp3059
I1
s(g1
I78
VOutOfMemoryError
p3060
tp3061
I1
s(g1
I370
Vconn
p3062
tp3063
I3
s(g1
I179
Vkey
p3064
tp3065
I1
s(g1
I103
Vdisplay
p3066
tp3067
I1
s(g1
I765
VBitmap
p3068
tp3069
I1
s(g1
I85
Vbundle
p3070
tp3071
I1
s(g1
I175
VView
p3072
tp3073
I1
s(g1
I895
VDisplayBitmapTask
p3074
tp3075
I1
s(g1
I147
VsavedInstanceState
p3076
tp3077
I1
s(g1
I788
VcachedImageLoadingExecutor
p3078
tp3079
I1
s(g1
I1459
Vbitmap
p3080
tp3081
I1
s(g1
I372
VIoUtils
p3082
tp3083
I1
s(g1
I249
VonFragmentsClick
p3084
tp3085
I1
s(g1
I699
Vheight
p3086
tp3087
I1
s(g1
I792
VBitmap
p3088
tp3089
I1
s(g1
I462
Vdelete
p3090
tp3091
I1
s(g1
I803
VcheckExecutors
p3092
tp3093
I1
s(g1
I58
VBitmap
p3094
tp3095
I1
s(g1
I122
VvalueSize
p3096
tp3097
I1
s(g1
I67
VtasksProcessingOrder
p3098
tp3099
I1
s(g1
I131
VIOException
p3100
tp3101
I1
s(g1
I68
VInputStream
p3102
tp3103
I1
s(g1
I365
VsetVisibility
p3104
tp3105
I1
s(g1
I1704
Vresume
p3106
tp3107
I1
s(g1
I360
VshowStubImage
p3108
tp3109
I1
s(g1
I204
Vwidth
p3110
tp3111
I1
s(g1
I583
VdecodeImage
p3112
tp3113
I1
s(g1
I439
VL
p3114
tp3115
I1
s(g1
I234
Vheight
p3116
tp3117
I1
s(g1
I266
Vt
p3118
tp3119
I1
s(g1
I247
Vexecute
p3120
tp3121
I1
s(g1
I778
VtargetImageSize
p3122
tp3123
I1
s(g1
I39
VString
p3124
tp3125
I1
s(g1
I984
Vwidth
p3126
tp3127
I1
s(g1
I814
VisConsistent
p3128
tp3129
I1
s(g1
I38
VonCreate
p3130
tp3131
I1
s(g1
I717
VObject
p3132
tp3133
I1
s(g1
I961
VdiscCacheSize
p3134
tp3135
I1
s(g1
I263
VIOException
p3136
tp3137
I2
s(g1
I73
Vresult
p3138
tp3139
I1
s(g1
I118
Voptions
p3140
tp3141
I2
s(g1
I43
VImageSize
p3142
tp3143
I1
s(g1
I1742
Vdownloader
p3144
tp3145
I1
s(g1
I719
Vbitmap
p3146
tp3147
I1
s(g1
I300
Vdownloader
p3148
tp3149
I1
s(g1
I185
Vvalue
p3150
tp3151
I1
s(g1
I691
Vi
p3152
tp3153
I1
s(g1
I418
VsaveImageOnDisc
p3154
tp3155
I1
s(g1
I1279
VfailReason
p3156
tp3157
I1
s(g1
I203
VcachedFiles
p3158
tp3159
I1
s(g1
I205
VRectF
p3160
tp3161
I1
s(g1
I391
VAnimationUtils
p3162
tp3163
I1
s(g1
I251
VOverride
p3164
tp3165
I1
s(g1
I1125
VtargetSize
p3166
tp3167
I1
s(g1
I1435
VDisplayBitmapTask
p3168
tp3169
I1
s(g1
I383
VimageUri
p3170
tp3171
I1
s(g1
I679
VHttpURLConnection
p3172
tp3173
I1
s(g1
I547
VdecodingOptions
p3174
tp3175
I1
s(g1
I516
Vbmp
p3176
tp3177
I1
s(g1
I368
VOptions
p3178
tp3179
I1
s(g1
I196
VbelongsTo
p3180
tp3181
I1
s(g1
I50
Vcontext
p3182
tp3183
I1
s(g1
I261
VFile
p3184
tp3185
I1
s(g1
I498
VLOG_WAITING_FOR_IMAGE_LOADED
p3186
tp3187
I1
s(g1
I168
VgetStringArray
p3188
tp3189
I1
s(g1
I244
VBaseDiscCache
p3190
tp3191
I1
s(g1
I222
Vformat
p3192
tp3193
I1
s(g1
I210
Vbitmap
p3194
tp3195
I1
s(g1
I64
VimageUri
p3196
tp3197
I1
s(g1
I1203
VuriLocks
p3198
tp3199
I1
s(g1
I293
Vdrawable
p3200
tp3201
I1
s(g1
I205
Vd
p3202
tp3203
I1
s(g1
I1083
VisEmpty
p3204
tp3205
I1
s(g1
I126
VassertThat
p3206
tp3207
I1
s(g1
I174
VMarkableInputStream
p3208
tp3209
I1
s(g1
I568
VsetImageDrawable
p3210
tp3211
I1
s(g1
I19
VDisplayMetrics
p3212
tp3213
I1
s(g1
I1144
VOverride
p3214
tp3215
I1
s(g1
I702
Vcache
p3216
tp3217
I1
s(g1
I378
VHttpURLConnection
p3218
tp3219
I1
s(g1
I502
VImageSize
p3220
tp3221
I1
s(g1
I201
VimageUri
p3222
tp3223
I1
s(g1
I545
VImageView
p3224
tp3225
I1
s(g1
I252
Vdecode
p3226
tp3227
I1
s(g1
I48
VString
p3228
tp3229
I1
s(g1
I251
Vheight
p3230
tp3231
I1
s(g1
I654
Vformat
p3232
tp3233
I1
s(g1
I205
VgetRoundedCornerBitmap
p3234
tp3235
I1
s(g1
I335
VviewScaleType
p3236
tp3237
I1
s(g1
I86
VLog
p3238
tp3239
I1
s(g1
I98
VresetViewBeforeLoading
p3240
tp3241
I1
s(g1
I74
VInputStream
p3242
tp3243
I1
s(g1
I1275
Vos
p3244
tp3245
I1
s(g1
I1438
VImageView
p3246
tp3247
I1
s(g1
I155
VsizeLimit
p3248
tp3249
I1
s(g1
I90
VcacheInMemory
p3250
tp3251
I1
s(g1
I312
VURL
p3252
tp3253
I1
s(g1
I79
VfileNameGenerator
p3254
tp3255
I1
s(g1
I938
VByteArrayOutputStream
p3256
tp3257
I1
s(g1
I1591
Ventry
p3258
tp3259
I2
s(g1
I627
Ve
p3260
tp3261
I1
s(g1
I155
VstartImageGalleryActivity
p3262
tp3263
I1
s(g1
I248
VcacheDir
p3264
tp3265
I1
s(g1
I168
Vexpected
p3266
tp3267
I1
s(g1
I496
Vrun
p3268
tp3269
I1
s(g1
I618
Vattempt
p3270
tp3271
I1
s(g1
I114
VbitmapDisplayer
p3272
tp3273
I1
s(g1
I1073
VcompressedSuccessfully
p3274
tp3275
I1
s(g1
I115
VcreateFuzzyKeyComparator
p3276
tp3277
I1
s(g1
I426
VmaxBitmapSize
p3278
tp3279
I1
s(g1
I406
VsrcHeight
p3280
tp3281
I1
s(g1
I40
VthreadPriority
p3282
tp3283
I1
s(g1
I134
VdiskCacheSize
p3284
tp3285
I1
s(g1
I507
VBitmap
p3286
tp3287
I1
s(g1
I1378
VimageLoadingExecutor
p3288
tp3289
I1
s(g1
I792
VException
p3290
tp3291
I1
s(g1
I274
Vt
p3292
tp3293
I1
s(g1
I285
VExecutor
p3294
tp3295
I1
s(g1
I824
VgetImageSizeScaleTo
p3296
tp3297
I1
s(g1
I379
VExecutors
p3298
tp3299
I1
s(g1
I630
VimageUri
p3300
tp3301
I1
s(g1
I798
Vbmp
p3302
tp3303
I1
s(g1
I639
VdecodingInfo
p3304
tp3305
I1
s(g1
I142
VstartImagePagerActivity
p3306
tp3307
I1
s(g1
I206
VappCacheDir
p3308
tp3309
I1
s(g1
I167
Voptions
p3310
tp3311
I1
s(g1
I183
Voptions
p3312
tp3313
I1
s(g1
I147
VgetInstance
p3314
tp3315
I1
s(g1
I8
VBitmap
p3316
tp3317
I1
s(g1
I67
VimageUri
p3318
tp3319
I2
s(g1
I109
VmemoryCacheKey
p3320
tp3321
I1
s(g1
I727
VBitmap
p3322
tp3323
I1
s(g1
I66
Vkey
p3324
tp3325
I1
s(g1
I1468
Vpause
p3326
tp3327
I1
s(g1
I413
VhasHoneycomb
p3328
tp3329
I1
s(g1
I580
VRect
p3330
tp3331
I1
s(g1
I947
Vbitmap
p3332
tp3333
I1
s(g1
I947
Vw
p3334
tp3335
I1
s(g1
I82
VImageListFragment
p3336
tp3337
I1
s(g1
I38
VhttpClient
p3338
tp3339
I1
s(g1
I394
Vconn
p3340
tp3341
I1
s(g1
I211
VgetStreamFromContent
p3342
tp3343
I1
s(g1
I1584
Vkey
p3344
tp3345
I2
s(g1
I504
Vdecoder
p3346
tp3347
I1
s(g1
I446
VpreferExternal
p3348
tp3349
I1
s(g1
I138
Vkey
p3350
tp3351
I1
s(g1
I532
VLooper
p3352
tp3353
I1
s(g1
I667
VByteArrayOutputStream
p3354
tp3355
I1
s(g1
I78
VString
p3356
tp3357
I1
s(g1
I1676
Vlock
p3358
tp3359
I1
s(g1
I66
VgetStringArray
p3360
tp3361
I1
s(g1
I1443
VimageUrlForDecoding
p3362
tp3363
I1
s(g1
I41
VFile
p3364
tp3365
I1
s(g1
I277
VsavedSuccessfully
p3366
tp3367
I1
s(g1
I715
Vheight
p3368
tp3369
I1
s(g1
I18
VonCreate
p3370
tp3371
I4
s(g1
I75
VcacheDir
p3372
tp3373
I1
s(g1
I130
Vremove
p3374
tp3375
I1
s(g1
I214
Vfile
p3376
tp3377
I2
s(g1
I124
VoutState
p3378
tp3379
I1
s(g1
I142
Vposition
p3380
tp3381
I1
s(g1
I1255
VActivityManager
p3382
tp3383
I1
s(g1
I80
Vbitmap
p3384
tp3385
I1
s(g1
I152
Vinit
p3386
tp3387
I1
s(g1
I657
VvalueOf
p3388
tp3389
I1
s(g1
I201
VString
p3390
tp3391
I1
s(g1
I693
VgetParentFile
p3392
tp3393
I1
s(g1
I380
VimageView
p3394
tp3395
I1
s(g1
I116
VmemoryCacheKey
p3396
tp3397
I1
s(g1
I168
VinitImageLoader
p3398
tp3399
I1
s(g1
I284
Vis
p3400
tp3401
I2
s(g1
I43
VreadTimeout
p3402
tp3403
I2
s(g1
I391
VView
p3404
tp3405
I2
s(g1
I155
VprocessedBitmap
p3406
tp3407
I2
s(g1
I95
VgetStringArray
p3408
tp3409
I2
s(g1
I222
Vos
p3410
tp3411
I1
s(g1
I577
VInputStream
p3412
tp3413
I1
s(g1
I158
VV
p3414
tp3415
I1
s(g1
I336
Vbmp
p3416
tp3417
I1
s(g1
I704
Vlistener
p3418
tp3419
I1
s(g1
I99
VOverride
p3420
tp3421
I1
s(g1
I113
Vbuild
p3422
tp3423
I1
s(g1
I84
Vscheme
p3424
tp3425
I1
s(g1
I123
Vkey
p3426
tp3427
I2
s(g1
I88
VpagerPosition
p3428
tp3429
I2
s(g1
I828
VFile
p3430
tp3431
I1
s(g1
I159
VsizeLimit
p3432
tp3433
I1
s(g1
I247
VIoUtils
p3434
tp3435
I1
s(g1
I260
VimageFile
p3436
tp3437
I1
s(g1
I62
VBigInteger
p3438
tp3439
I1
s(g1
I1066
VObject
p3440
tp3441
I1
s(g1
I9
VScaleType
p3442
tp3443
I1
s(g1
I1350
VimageUrl
p3444
tp3445
I1
s(g1
I230
Vinflater
p3446
tp3447
I1
s(g1
I508
VImageLoadingListener
p3448
tp3449
I1
s(g1
I56
Vconfig
p3450
tp3451
I1
s(g1
I1677
VdecodeFile
p3452
tp3453
I1
s(g1
I333
VtaskQueue
p3454
tp3455
I1
s(g1
I239
VbitmapShader
p3456
tp3457
I1
s(g1
I1882
Vargs
p3458
tp3459
I1
s(g1
I207
Vheight
p3460
tp3461
I1
s(g1
I742
VsaveImageOnDisc
p3462
tp3463
I1
s(g1
I204
Vos
p3464
tp3465
I1
s(g1
I483
Vdestroy
p3466
tp3467
I1
s(g1
I128
Vclear
p3468
tp3469
I1
s(g1
I483
VloadedImage
p3470
tp3471
I1
s(g1
I165
Vheight
p3472
tp3473
I1
s(g1
I630
Vvh
p3474
tp3475
I1
s(g1
I409
VconnectTo
p3476
tp3477
I1
s(g1
I187
Vintent
p3478
tp3479
I1
s(g1
I93
Vcontext
p3480
tp3481
I1
s(g1
I1349
VImageDecoder
p3482
tp3483
I1
s(g1
I1423
VTAG
p3484
tp3485
I1
s(g1
I190
Vmark
p3486
tp3487
I1
s(g1
I70
VgetExtras
p3488
tp3489
I3
s(g1
I116
VMemoryCacheKeyUtil
p3490
tp3491
I1
s(g1
I327
Vformat
p3492
tp3493
I1
s(g1
I205
VFile
p3494
tp3495
I1
s(g1
I56
Vinit
p3496
tp3497
I1
s(g1
I173
Vsubmit
p3498
tp3499
I1
s(g1
I296
VimageUrls
p3500
tp3501
I1
s(g1
I781
VExecutors
p3502
tp3503
I1
s(g1
I655
Vi
p3504
tp3505
I1
s(g1
I1441
VimageLoadingInfo
p3506
tp3507
I1
s(g1
I58
VAssetsImageDownloader
p3508
tp3509
I2
s(g1
I86
Vappend
p3510
tp3511
I1
s(g1
I742
VsetAccessible
p3512
tp3513
I1
s(g1
I188
VstartActivity
p3514
tp3515
I1
s(g1
I708
VURI
p3516
tp3517
I1
s(g1
I228
VonScrollStateChanged
p3518
tp3519
I1
s(g1
I594
Vpaused
p3520
tp3521
I1
s(g1
I1820
VImageLoaderConfiguration
p3522
tp3523
I1
s(g1
I176
VLayoutInflater
p3524
tp3525
I1
s(g1
I654
VonLoadingComplete
p3526
tp3527
I1
s(g1
I419
VdenyNetworkDownloads
p3528
tp3529
I1
s(g1
I466
VprogressListener
p3530
tp3531
I1
s(g1
I321
VisEqualsToByComparingFields
p3532
tp3533
I1
s(g1
I654
VimageAware
p3534
tp3535
I1
s(g1
I50
VimageLoader
p3536
tp3537
I1
s(g1
I151
VcustomListener
p3538
tp3539
I1
s(g1
I183
VimageStream
p3540
tp3541
I1
s(g1
I115
Vcache
p3542
tp3543
I1
s(g1
I73
VgetRoundedCornerBitmap
p3544
tp3545
I1
s(g1
I350
Vlistener
p3546
tp3547
I1
s(g1
I159
VIntent
p3548
tp3549
I1
s(g1
I1900
Vhandler
p3550
tp3551
I1
s(g1
I383
VsetText
p3552
tp3553
I2
s(g1
I313
VBufferedOutputStream
p3554
tp3555
I1
s(g1
I176
VK
p3556
tp3557
I1
s(g1
I2081
Vengine
p3558
tp3559
I1
s(g1
I668
VString
p3560
tp3561
I1
s(g1
I156
Vinflater
p3562
tp3563
I1
s(g1
I1111
Vurl
p3564
tp3565
I1
s(g1
I791
Vbmp
p3566
tp3567
I1
s(g1
I118
VInputStream
p3568
tp3569
I1
s(g1
I1538
Vengine
p3570
tp3571
I1
s(g1
I95
VFile
p3572
tp3573
I1
s(g1
I342
Vholder
p3574
tp3575
I1
s(g1
I128
VBitmap
p3576
tp3577
I1
s(g1
I126
VFile
p3578
tp3579
I2
s(g1
I1408
Voptions
p3580
tp3581
I1
s(g1
I703
Vdecoder
p3582
tp3583
I1
s(g1
I1509
VonLoadingFailed
p3584
tp3585
I1
s(g1
I1414
Voptions
p3586
tp3587
I1
s(g1
I275
Vinflater
p3588
tp3589
I1
s(g1
I68
Vkey
p3590
tp3591
I1
s(g1
I538
VLog
p3592
tp3593
I1
s(g1
I708
Ve
p3594
tp3595
I1
s(g1
I260
Vbounds
p3596
tp3597
I1
s(g1
I1106
VBufferedOutputStream
p3598
tp3599
I1
s(g1
I523
Vurl
p3600
tp3601
I1
s(g1
I433
VsrcWidth
p3602
tp3603
I1
s(g1
I211
VgetLoadingUri
p3604
tp3605
I1
s(g1
I659
Vbmp
p3606
tp3607
I1
s(g1
I276
Voptions
p3608
tp3609
I1
s(g1
I67
VgetExtras
p3610
tp3611
I1
s(g1
I905
VImageSizeUtils
p3612
tp3613
I1
s(g1
I119
VdataDir
p3614
tp3615
I1
s(g1
I161
Vpriority
p3616
tp3617
I1
s(g1
I147
Vget
p3618
tp3619
I1
s(g1
I199
VcachedFile
p3620
tp3621
I1
s(g1
I1316
VdiscCacheFileCount
p3622
tp3623
I1
s(g1
I113
VMAX_NORMAL_CACHE_SIZE
p3624
tp3625
I1
s(g1
I1450
VloggingEnabled
p3626
tp3627
I1
s(g1
I663
VimageAware
p3628
tp3629
I1
s(g1
I286
VwidthScale
p3630
tp3631
I1
s(g1
I127
Vvalue
p3632
tp3633
I2
s(g1
I514
VfilePath
p3634
tp3635
I2
s(g1
I1090
Vdownloader
p3636
tp3637
I1
s(g1
I121
VapplyScrollListener
p3638
tp3639
I1
s(g1
I430
Vvw
p3640
tp3641
I1
s(g1
I681
VimageUri
p3642
tp3643
I1
s(g1
I265
Vbmp
p3644
tp3645
I1
s(g1
I1720
Vwidth
p3646
tp3647
I1
s(g1
I138
VOverride
p3648
tp3649
I1
s(g1
I602
VroundBitmap
p3650
tp3651
I1
s(g1
I158
VappCacheDir
p3652
tp3653
I1
s(g1
I5
VhashCode
p3654
tp3655
I1
s(g1
I99
VgetWidth
p3656
tp3657
I1
s(g1
I102
VcachedFiles
p3658
tp3659
I1
s(g1
I86
VimageUri
p3660
tp3661
I2
s(g1
I16
VImageLoader
p3662
tp3663
I1
s(g1
I340
VL
p3664
tp3665
I1
s(g1
I231
VImageAdapter
p3666
tp3667
I1
s(g1
I245
VmemoryCache
p3668
tp3669
I1
s(g1
I111
VgetStreamFromOtherSource
p3670
tp3671
I1
s(g1
I102
Vresponse
p3672
tp3673
I1
s(g1
I748
VimageFile
p3674
tp3675
I1
s(g1
I384
VHttpURLConnection
p3676
tp3677
I1
s(g1
I1134
VimageLoadingInfo
p3678
tp3679
I1
s(g1
I50
g1400
tp3680
I10
s(g1
I51
VMd5FileNameGenerator
p3681
tp3682
I1
s(g1
I1150
VInputStream
p3683
tp3684
I1
s(g1
I392
VthreadPriority
p3685
tp3686
I1
s(g1
I98
VIllegalArgumentException
p3687
tp3688
I1
s(g1
I1316
VFileNameGenerator
p3689
tp3690
I1
s(g1
I916
Vcontext
p3691
tp3692
I1
s(g1
I101
VBitmap
p3693
tp3694
I1
s(g1
I1159
Voptions
p3695
tp3696
I1
s(g1
I664
VByteArrayOutputStream
p3697
tp3698
I1
s(g1
I513
Vconfiguration
p3699
tp3700
I1
s(g1
I654
VLOG_LOAD_IMAGE_FROM_MEMORY_CACHE
p3701
tp3702
I1
s(g1
I213
VOptions
p3703
tp3704
I1
s(g1
I62
VimageDownloader
p3705
tp3706
I1
s(g1
I148
VAbsListView
p3707
tp3708
I1
s(g1
I109
VaddAll
p3709
tp3710
I1
s(g1
I2635
Vconfiguration
p3711
tp3712
I1
s(g1
I1406
VtaskDistributor
p3713
tp3714
I1
s(g1
I1172
Vwidth
p3715
tp3716
I1
s(g1
I874
VgetContactPhotoStream
p3717
tp3718
I1
s(g1
I486
VloadedImage
p3719
tp3720
I1
s(g1
I620
VgetKey
p3721
tp3722
I1
s(g1
I1087
VphotoToLoadQueue
p3723
tp3724
I1
s(g1
I174
VdecodedBitmap
p3725
tp3726
I1
s(g1
I211
VgetCount
p3727
tp3728
I1
s(g1
I190
VStringBuilder
p3729
tp3730
I1
s(g1
I1138
VcacheDir
p3731
tp3732
I1
s(g1
I97
VbitmapDisplayer
p3733
tp3734
I1
s(g1
I1757
VmemoryCache
p3735
tp3736
I1
s(g1
I356
Vlistener
p3737
tp3738
I1
s(g1
I348
VappCacheDir
p3739
tp3740
I1
s(g1
I1063
Vwait
p3741
tp3742
I1
s(g1
I181
VFile
p3743
tp3744
I2
s(g1
I134
VUILApplication
p3745
tp3746
I1
s(g1
I739
VLOG_RESUME_AFTER_PAUSE
p3747
tp3748
I1
s(g1
I98
VimageLoader
p3749
tp3750
I1
s(g1
I290
Vbitmap
p3751
tp3752
I1
s(g1
I1448
VURL
p3753
tp3754
I1
s(g1
I28
VFile
p3755
tp3756
I1
s(g1
I401
Vremoved
p3757
tp3758
I1
s(g1
I1424
VimageAware
p3759
tp3760
I1
s(g1
I35
VIOException
p3761
tp3762
I1
s(g1
I37
VmaxFileCount
p3763
tp3764
I1
s(g1
I101
Vrequest
p3765
tp3766
I1
s(g1
I64
VimageView
p3767
tp3768
I1
s(g1
I52
VDisplayImageOptions
p3769
tp3770
I2
s(g1
I172
Vintent
p3771
tp3772
I1
s(g1
I1622
Vdelete
p3773
tp3774
I1
s(g1
I232
VIoUtils
p3775
tp3776
I1
s(g1
I2391
VImageLoaderConfiguration
p3777
tp3778
I1
s(g1
I964
VFile
p3779
tp3780
I1
s(g1
I87
VlistView
p3781
tp3782
I1
s(g1
I285
Vview
p3783
tp3784
I1
s(g1
I198
VimageLoader
p3785
tp3786
I1
s(g1
I1257
VtargetFile
p3787
tp3788
I1
s(g1
I293
VsetImageDrawable
p3789
tp3790
I1
s(g1
I146
VonStop
p3791
tp3792
I1
s(g1
I163
VImageGalleryActivity
p3793
tp3794
I1
s(g1
I25
VsizeLimit
p3795
tp3796
I1
s(g1
I183
VdecodeStream
p3797
tp3798
I1
s(g1
I41
VBitmap
p3799
tp3800
I1
s(g1
I206
Vlistener
p3801
tp3802
I1
s(g1
I199
VisCollected
p3803
tp3804
I1
s(g1
I71
VOverride
p3805
tp3806
I1
s(g1
I73
VgetStringArray
p3807
tp3808
I1
s(g1
I1204
Vlock
p3809
tp3810
I1
s(g1
I734
VloggingEnabled
p3811
tp3812
I1
s(g1
I140
VView
p3813
tp3814
I1
s(g1
I42
VFile
p3815
tp3816
I1
s(g1
I138
VimageView
p3817
tp3818
I1
s(g1
I204
Vview
p3819
tp3820
I1
s(g1
I330
VimageLoader
p3821
tp3822
I1
s(g1
I119
VdenyCacheImageMultipleSizesInMemory
p3823
tp3824
I1
s(g1
I2305
Vremove
p3825
tp3826
I1
s(g1
I1493
Vinterrupted
p3827
tp3828
I1
s(g1
I140
VBitmap
p3829
tp3830
I1
s(g1
I307
VcheckTaskIsNotActual
p3831
tp3832
I1
s(g1
I1084
VURI
p3833
tp3834
I1
s(g1
I291
VUri
p3835
tp3836
I1
s(g1
I51
Vfile
p3837
tp3838
I1
s(g1
I644
VdiscCacheDirPath
p3839
tp3840
I1
s(g1
I1162
VgetDownloader
p3841
tp3842
I1
s(g1
I1549
VView
p3843
tp3844
I1
s(g1
I430
VimageUriForDecoding
p3845
tp3846
I1
s(g1
I1497
Voptions
p3847
tp3848
I1
s(g1
I655
Vbmp
p3849
tp3850
I1
s(g1
I643
VisRecycled
p3851
tp3852
I1
s(g1
I192
VcacheDir
p3853
tp3854
I1
s(g1
I430
VslowNetworkDownloader
p3855
tp3856
I1
s(g1
I737
VloggingEnabled
p3857
tp3858
I1
s(g1
I282
VImageLoader
p3859
tp3860
I1
s(g1
I2438
VclearDiskCache
p3861
tp3862
I1
s(g1
I680
Vbmp
p3863
tp3864
I1
s(g1
I468
VshouldPostProcess
p3865
tp3866
I1
s(g1
I680
VimageView
p3867
tp3868
I1
s(g1
I83
VimageUri
p3869
tp3870
I1
s(g1
I193
Vrun
p3871
tp3872
I1
s(g1
I89
Vbundle
p3873
tp3874
I2
s(g1
I551
VBitmapDisplayer
p3875
tp3876
I1
s(g1
I433
Vconfiguration
p3877
tp3878
I1
s(g1
I166
VImageDecodingInfo
p3879
tp3880
I1
s(g1
I77
VImageLoader
p3881
tp3882
I1
s(g1
I184
Vclose
p3883
tp3884
I1
s(g1
I72
VgetInstance
p3885
tp3886
I1
s(g1
I239
Vpaint
p3887
tp3888
I1
s(g1
I204
VonBackPressed
p3889
tp3890
I1
s(g1
I282
VgetInstance
p3891
tp3892
I1
s(g1
I51
Vin
p3893
tp3894
I1
s(g1
I368
VredirectCount
p3895
tp3896
I1
s(g1
I119
VreserveCacheDir
p3897
tp3898
I1
s(g1
I78
Vgenerate
p3899
tp3900
I1
s(g1
I56
Vformat
p3901
tp3902
I1
s(g1
I416
VnetworkDenied
p3903
tp3904
I1
s(g1
I119
Vcontext
p3905
tp3906
I2
s(g1
I1445
VhashCode
p3907
tp3908
I1
s(g1
I110
VK
p3909
tp3910
I1
s(g1
I739
VL
p3911
tp3912
I1
s(g1
I157
Vid
p3913
tp3914
I1
s(g1
I28
VFileNameGenerator
p3915
tp3916
I1
s(g1
I939
Vw
p3917
tp3918
I1
s(g1
I264
VAnimateFirstDisplayListener
p3919
tp3920
I1
s(g1
I712
VImageDecoder
p3921
tp3922
I1
s(g1
I1070
VString
p3923
tp3924
I1
s(g1
I968
VIOException
p3925
tp3926
I1
s(g1
I1899
VcheckConfiguration
p3927
tp3928
I1
s(g1
I252
VcachedFile
p3929
tp3930
I1
s(g1
I884
Vbitmap
p3931
tp3932
I1
s(g1
I1458
VdecodeImage
p3933
tp3934
I1
s(g1
I124
VOverride
p3935
tp3936
I1
s(g1
I39
VwrappedDownloader
p3937
tp3938
I1
s(g1
I166
VimageLoadingInfo
p3939
tp3940
I2
s(g1
I145
VtargetSize
p3941
tp3942
I2
s(g1
I559
VHandler
p3943
tp3944
I1
s(g1
I427
VmaxHeight
p3945
tp3946
I1
s(g1
I2318
VfileCount
p3947
tp3948
I1
s(g1
I1110
VtargetFile
p3949
tp3950
I1
s(g1
I157
VIntent
p3951
tp3952
I1
s(g1
I191
Vequals
p3953
tp3954
I1
s(g1
I128
VLOG_DISPLAY_IMAGE_IN_IMAGEVIEW
p3955
tp3956
I1
s(g1
I1520
VonLoadingFailed
p3957
tp3958
I1
s(g1
I50
VdenyCacheImageMultipleSizesInMemory
p3959
tp3960
I1
s(g1
I136
VRadialGradient
p3961
tp3962
I2
s(g1
I24
g1400
tp3963
I2
s(g1
I831
VopenInputStream
p3964
tp3965
I1
s(g1
I58
VsavedInstanceState
p3966
tp3967
I2
s(g1
I231
VString
p3968
tp3969
I1
s(g1
I177
VString
p3970
tp3971
I2
s(g1
I512
VL
p3972
tp3973
I1
s(g1
I154
Vrun
p3974
tp3975
I1
s(g1
I290
VImageSize
p3976
tp3977
I1
s(g1
I192
VOverride
p3978
tp3979
I1
s(g1
I419
VmaxWidth
p3980
tp3981
I1
s(g1
I775
Vmkdirs
p3982
tp3983
I1
s(g1
I462
Vcache
p3984
tp3985
I1
s(g1
I810
VFile
p3986
tp3987
I1
s(g1
I281
VmemoryCacheKey
p3988
tp3989
I1
s(g1
I633
VInputStream
p3990
tp3991
I1
s(g1
I364
VtargetSize
p3992
tp3993
I1
s(g1
I365
Vos
p3994
tp3995
I1
s(g1
I90
VgetInstance
p3996
tp3997
I1
s(g1
I214
VonLoadingCancelled
p3998
tp3999
I1
s(g1
I187
VContentResolver
p4000
tp4001
I1
s(g1
I128
VLayoutInflater
p4002
tp4003
I1
s(g1
I38
VOverride
p4004
tp4005
I2
s(g1
I132
VonOptionsItemSelected
p4006
tp4007
I1
s(g1
I132
VL
p4008
tp4009
I1
s(g1
I158
VonItemClick
p4010
tp4011
I1
s(g1
I651
VUri
p4012
tp4013
I1
s(g1
I316
VcomputeImageScale
p4014
tp4015
I1
s(g1
I180
VpagerPosition
p4016
tp4017
I1
s(g1
I177
VgetResources
p4018
tp4019
I1
s(g1
I747
VString
p4020
tp4021
I1
s(g1
I71
VgetExtras
p4022
tp4023
I1
s(g1
I616
VIllegalArgumentException
p4024
tp4025
I1
s(g1
I1167
Voptions
p4026
tp4027
I1
s(g1
I865
VString
p4028
tp4029
I1
s(g1
I198
VbelongsTo
p4030
tp4031
I1
s(g1
I947
Vheight
p4032
tp4033
I1
s(g1
I647
VgetImageForEmptyUri
p4034
tp4035
I1
s(g1
I1736
VmemoryCache
p4036
tp4037
I1
s(g1
I330
VimageView
p4038
tp4039
I1
s(g1
I636
VgetWrappedView
p4040
tp4041
I1
s(g1
I307
VLOG_LOAD_IMAGE_FROM_INTERNET
p4042
tp4043
I1
s(g1
I139
VappWidgetId
p4044
tp4045
I1
s(g1
I387
Vconn
p4046
tp4047
I1
s(g1
I69
Vfiles
p4048
tp4049
I1
s(g1
I100
VsetAdapter
p4050
tp4051
I1
s(g1
I631
Ve
p4052
tp4053
I2
s(g1
I454
VmemoryCacheKey
p4054
tp4055
I1
s(g1
I195
VCopyingListener
p4056
tp4057
I1
s(g1
I156
Vr
p4058
tp4059
I1
s(g1
I503
VimageUrl
p4060
tp4061
I1
s(g1
I142
VRemoteViews
p4062
tp4063
I1
s(g1
I370
VimageUrls
p4064
tp4065
I2
s(g1
I112
VPROTOCOL_ASSETS
p4066
tp4067
I1
s(g1
I235
Vwidth
p4068
tp4069
I1
s(g1
I85
VItemAdapter
p4070
tp4071
I1
s(g1
I1122
VdiscCacheFileNameGenerator
p4072
tp4073
I1
s(g1
I1896
Vsync
p4074
tp4075
I1
s(g1
I375
VImageLoaderConfiguration
p4076
tp4077
I1
s(g1
I128
VURI
p4078
tp4079
I1
s(g1
I1747
VDefaultConfigurationFactory
p4080
tp4081
I1
s(g1
I91
VimageLoadingInfo
p4082
tp4083
I1
s(g1
I17
VOverride
p4084
tp4085
I1
s(g1
I108
VFile
p4086
tp4087
I2
s(g1
I791
Vdisplay
p4088
tp4089
I1
s(g1
I591
VAtomicBoolean
p4090
tp4091
I1
s(g1
I1095
VisEmpty
p4092
tp4093
I1
s(g1
I153
VimageUri
p4094
tp4095
I1
s(g1
I534
VFile
p4096
tp4097
I1
s(g1
I89
VgetMenuInflater
p4098
tp4099
I1
s(g1
I1357
Ve
p4100
tp4101
I1
s(g1
I173
VContext
p4102
tp4103
I1
s(g1
I376
Vconn
p4104
tp4105
I1
s(g1
I102
VhasExternalStoragePermission
p4106
tp4107
I1
s(g1
I77
VonCreate
p4108
tp4109
I1
s(g1
I953
VtaskExecutorForCachedImages
p4110
tp4111
I1
s(g1
I262
VImageAdapter
p4112
tp4113
I2
s(g1
I157
VDisplayImageOptions
p4114
tp4115
I1
s(g1
I791
VcachedImageLoadingExecutor
p4116
tp4117
I1
s(g1
I419
VFile
p4118
tp4119
I1
s(g1
I1689
Vengine
p4120
tp4121
I1
s(g1
I175
VAbsListView
p4122
tp4123
I1
s(g1
I454
Vput
p4124
tp4125
I1
s(g1
I527
VFile
p4126
tp4127
I2
s(g1
I231
VLayoutInflater
p4128
tp4129
I1
s(g1
I29
VFIT_INSIDE
p4130
tp4131
I1
s(g1
I318
VisCacheOnDisc
p4132
tp4133
I1
s(g1
I418
VmaxBitmapSize
p4134
tp4135
I1
s(g1
I760
VshouldDelayBeforeLoading
p4136
tp4137
I1
s(g1
I102
VMIN_NORMAL_CACHE_SIZE
p4138
tp4139
I1
s(g1
I1505
VsetImageDrawable
p4140
tp4141
I1
s(g1
I619
VImageSize
p4142
tp4143
I1
s(g1
I127
VURL
p4144
tp4145
I1
s(g1
I161
Vtotal
p4146
tp4147
I1
s(g1
I238
VhardCache
p4148
tp4149
I1
s(g1
I34
VsizeLimit
p4150
tp4151
I1
s(g1
I311
Vlifo
p4152
tp4153
I1
s(g1
I236
Vbmp
p4154
tp4155
I1
s(g1
I243
VOnScrollListener
p4156
tp4157
I1
s(g1
I713
Vclear
p4158
tp4159
I1
s(g1
I227
Vheight
p4160
tp4161
I1
s(g1
I108
VmemoryCacheKey
p4162
tp4163
I1
s(g1
I1091
Vis
p4164
tp4165
I1
s(g1
I155
VimageUrls
p4166
tp4167
I1
s(g1
I681
VimageView
p4168
tp4169
I1
s(g1
I178
VFile
p4170
tp4171
I1
s(g1
I1308
Vlog
p4172
tp4173
I1
s(g1
I255
VconsiderExifParams
p4174
tp4175
I1
s(g1
I459
VMath
p4176
tp4177
I1
s(g1
I332
VsetTag
p4178
tp4179
I1
s(g1
I78
Vkey
p4180
tp4181
I1
s(g1
I209
Vintent
p4182
tp4183
I2
s(g1
I268
Vreset
p4184
tp4185
I1
s(g1
I292
Vexif
p4186
tp4187
I1
s(g1
I1879
VString
p4188
tp4189
I1
s(g1
I1711
VimageView
p4190
tp4191
I1
s(g1
I276
VSlowNetworkImageDownloader
p4192
tp4193
I1
s(g1
I945
VFailReason
p4194
tp4195
I1
s(g1
I134
Vcontainer
p4196
tp4197
I1
s(g1
I36
VFadeInBitmapDisplayer
p4198
tp4199
I1
s(g1
I194
VOverride
p4200
tp4201
I1
s(g1
I52
VimageUri
p4202
tp4203
I1
s(g1
I325
Vdownloader
p4204
tp4205
I1
s(g1
I53
VIOException
p4206
tp4207
I1
s(g1
I150
VExecutor
p4208
tp4209
I1
s(g1
I134
VgetWidth
p4210
tp4211
I1
s(g1
I58
Vfile
p4212
tp4213
I1
s(g1
I33
VimageUri
p4214
tp4215
I1
s(g1
I684
Vbos
p4216
tp4217
I1
s(g1
I1693
VTAG
p4218
tp4219
I1
s(g1
I108
VdiscCacheSize
p4220
tp4221
I1
s(g1
I113
VresponseBody
p4222
tp4223
I1
s(g1
I295
VimageUri
p4224
tp4225
I1
s(g1
I193
VbufferSize
p4226
tp4227
I1
s(g1
I138
Vbitmap
p4228
tp4229
I1
s(g1
I405
VimageResOnLoading
p4230
tp4231
I1
s(g1
I288
VreserveCacheDir
p4232
tp4233
I1
s(g1
I68
VFile
p4234
tp4235
I1
s(g1
I365
VIoUtils
p4236
tp4237
I1
s(g1
I86
Vkey
p4238
tp4239
I1
s(g1
I235
VFrameLayout
p4240
tp4241
I1
s(g1
I154
Vprocess
p4242
tp4243
I2
s(g1
I1606
VEditor
p4244
tp4245
I2
s(g1
I192
Vuri
p4246
tp4247
I1
s(g1
I148
Vvalue
p4248
tp4249
I1
s(g1
I116
VdenyCacheImageMultipleSizesInMemory
p4250
tp4251
I1
s(g1
I70
Vconfiguration
p4252
tp4253
I1
s(g1
I429
VpreferExternal
p4254
tp4255
I1
s(g1
I283
VMath
p4256
tp4257
I1
s(g1
I202
VonSaveInstanceState
p4258
tp4259
I1
s(g1
I573
VimageView
p4260
tp4261
I1
s(g1
I226
Vcontext
p4262
tp4263
I1
s(g1
I329
VImageSize
p4264
tp4265
I1
s(g1
I136
Vvalue
p4266
tp4267
I1
s(g1
I214
Vbuild
p4268
tp4269
I1
s(g1
I37
VcacheDir
p4270
tp4271
I1
s(g1
I798
Vresult
p4272
tp4273
I1
s(g1
I245
Vheight
p4274
tp4275
I1
s(g1
I523
VfilePath
p4276
tp4277
I2
s(g1
I2635
VDisplayImageOptions
p4278
tp4279
I1
s(g1
I229
Vposition
p4280
tp4281
I1
s(g1
I606
VException
p4282
tp4283
I1
s(g1
I1177
Ve
p4284
tp4285
I1
s(g1
I1283
VgetDownloader
p4286
tp4287
I1
s(g1
I121
VImagePagerAdapter
p4288
tp4289
I1
s(g1
I385
VfailReason
p4290
tp4291
I1
s(g1
I182
VgetCacheDir
p4292
tp4293
I1
s(g1
I485
VIOException
p4294
tp4295
I1
s(g1
I709
VCONTENT_CONTACTS_URI_PREFIX
p4296
tp4297
I1
s(g1
I105
VresetViewBeforeLoading
p4298
tp4299
I1
s(g1
I975
VthreadPoolSize
p4300
tp4301
I1
s(g1
I389
Vurl
p4302
tp4303
I1
s(g1
I241
Vwidth
p4304
tp4305
I1
s(g1
I613
VIoUtils
p4306
tp4307
I1
s(g1
I1591
VlruEntries
p4308
tp4309
I2
s(g1
I198
Vkey
p4310
tp4311
I1
s(g1
I89
VgetCacheDirectory
p4312
tp4313
I1
s(g1
I1158
VgetExtraForDownloader
p4314
tp4315
I1
s(g1
I55
Vfile
p4316
tp4317
I2
s(g1
I161
VgetMapSize
p4318
tp4319
I1
s(g1
I61
g1400
tp4320
I16
s(g1
I327
Vbmp
p4321
tp4322
I1
s(g1
I152
VimageScaleType
p4323
tp4324
I1
s(g1
I646
VdisplayImageTask
p4325
tp4326
I1
s(g1
I315
Vmessage
p4327
tp4328
I1
s(g1
I215
Voptions
p4329
tp4330
I2
s(g1
I1305
Vd
p4331
tp4332
I1
s(g1
I2677
VdefineHandler
p4333
tp4334
I1
s(g1
I729
VField
p4335
tp4336
I1
s(g1
I676
VBitmap
p4337
tp4338
I1
s(g1
I84
VshowImageForEmptyUri
p4339
tp4340
I1
s(g1
I184
VcurCacheSize
p4341
tp4342
I1
s(g1
I400
Vflip
p4343
tp4344
I1
s(g1
I287
VdecodeStream
p4345
tp4346
I1
s(g1
I1725
Vwidth
p4347
tp4348
I1
s(g1
I1760
Vdecoder
p4349
tp4350
I1
s(g1
I196
VView
p4351
tp4352
I1
s(g1
I2637
Voptions
p4353
tp4354
I1
s(g1
I1504
Voptions
p4355
tp4356
I1
s(g1
I144
VOnScrollListener
p4357
tp4358
I1
s(g1
I200
Vwidth
p4359
tp4360
I1
s(g1
I77
VBaseActivity
p4361
tp4362
I1
s(g1
I187
Vitem
p4363
tp4364
I1
s(g1
I820
VImageSize
p4365
tp4366
I1
s(g1
I146
VloggingEnabled
p4367
tp4368
I1
s(g1
I769
Ve
p4369
tp4370
I2
s(g1
I1095
VphotoToLoadQueue
p4371
tp4372
I1
s(g1
I781
VdisplayTask
p4373
tp4374
I1
s(g1
I60
VAssetsImageDownloader
p4375
tp4376
I1
s(g1
I100
Vbitmap
p4377
tp4378
I1
s(g1
I190
VLoadAndDisplayImageTask
p4379
tp4380
I1
s(g1
I106
Vkey
p4381
tp4382
I1
s(g1
I1235
VmemoryCacheSize
p4383
tp4384
I1
s(g1
I1146
VminImageSize
p4385
tp4386
I1
s(g1
I1298
Vd
p4387
tp4388
I1
s(g1
I160
Vvalue
p4389
tp4390
I1
s(g1
I1733
VmemoryCache
p4391
tp4392
I1
s(g1
I33
VthreadPoolSize
p4393
tp4394
I1
s(g1
I1893
Vlistener
p4395
tp4396
I1
s(g1
I186
VImageLoader
p4397
tp4398
I1
s(g1
I664
VgetImageSizeScaleTo
p4399
tp4400
I1
s(g1
I398
Vres
p4401
tp4402
I1
s(g1
I135
VString
p4403
tp4404
I1
s(g1
I93
VFile
p4405
tp4406
I1
s(g1
I585
Vheight
p4407
tp4408
I1
s(g1
I268
VmRect
p4409
tp4410
I1
s(g1
I76
Vbitmap
p4411
tp4412
I1
s(g1
I1177
VgetMessage
p4413
tp4414
I1
s(g1
I46
VmaxImageHeightForMemoryCache
p4415
tp4416
I1
s(g1
I1068
Vobject
p4417
tp4418
I1
s(g1
I922
VURISyntaxException
p4419
tp4420
I1
s(g1
I222
VonImagePagerClick
p4421
tp4422
I1
s(g1
I320
VString
p4423
tp4424
I1
s(g1
I359
Vscale
p4425
tp4426
I1
s(g1
I246
VshowImageOnFail
p4427
tp4428
I1
s(g1
I731
Vdecoder
p4429
tp4430
I1
s(g1
I986
VL
p4431
tp4432
I1
s(g1
I131
VLimitedAgeDiscCache
p4433
tp4434
I1
s(g1
I87
VshowStubImage
p4435
tp4436
I1
s(g1
I120
VOverride
p4437
tp4438
I2
s(g1
I170
VFile
p4439
tp4440
I1
s(g1
I1137
VDisplayImageOptions
p4441
tp4442
I1
s(g1
I222
Vimage
p4443
tp4444
I1
s(g1
I1492
VOverride
p4445
tp4446
I1
s(g1
I307
Vformat
p4447
tp4448
I1
s(g1
I186
VcornerRadius
p4449
tp4450
I2
s(g1
I726
VimageUrl
p4451
tp4452
I1
s(g1
I142
VlruCache
p4453
tp4454
I1
s(g1
I51
VV
p4455
tp4456
I1
s(g1
I55
VsavedInstanceState
p4457
tp4458
I1
s(g1
I508
Voptions
p4459
tp4460
I1
s(g1
I446
VtaskExecutorForCachedImages
p4461
tp4462
I1
s(g1
I224
VgetIndividualCacheDirectory
p4463
tp4464
I1
s(g1
I403
VonLoadingFailed
p4465
tp4466
I1
s(g1
I91
VshowImageForEmptyUri
p4467
tp4468
I1
s(g1
I129
VimageUrl
p4469
tp4470
I1
s(g1
I1399
VcreateTaskExecutor
p4471
tp4472
I1
s(g1
I304
VOptions
p4473
tp4474
I1
s(g1
I70
Vis
p4475
tp4476
I1
s(g1
I342
Vbmp
p4477
tp4478
I1
s(g1
I107
VFadeInBitmapDisplayer
p4479
tp4480
I1
s(g1
I207
VmView
p4481
tp4482
I1
s(g1
I378
VBUFFER_SIZE
p4483
tp4484
I1
s(g1
I1185
Vvalue
p4485
tp4486
I1
s(g1
I379
VView
p4487
tp4488
I1
s(g1
I105
Vbody
p4489
tp4490
I1
s(g1
I400
Vuri
p4491
tp4492
I1
s(g1
I322
VdisplayOptions
p4493
tp4494
I1
s(g1
I1381
VisShutdown
p4495
tp4496
I1
s(g1
I101
VgetStreamFromNetwork
p4497
tp4498
I1
s(g1
I44
VdiscCache
p4499
tp4500
I1
s(g1
I207
VSystem
p4501
tp4502
I1
s(g1
I1447
Vhandler
p4503
tp4504
I1
s(g1
I57
VimageUrl
p4505
tp4506
I1
s(g1
I113
VcacheInMemory
p4507
tp4508
I2
s(g1
I783
Vuri
p4509
tp4510
I1
s(g1
I209
VanimateFirstListener
p4511
tp4512
I1
s(g1
I183
VTextUtils
p4513
tp4514
I1
s(g1
I198
Vview
p4515
tp4516
I1
s(g1
I1714
Vengine
p4517
tp4518
I1
s(g1
I179
VViewGroup
p4519
tp4520
I1
s(g1
I53
VMd5FileNameGenerator
p4521
tp4522
I1
s(g1
I56
VfileName
p4523
tp4524
I1
s(g1
I336
VThreadPoolExecutor
p4525
tp4526
I1
s(g1
I825
Vbitmap
p4527
tp4528
I1
s(g1
I276
VMenu
p4529
tp4530
I1
s(g1
I394
VthreadPriority
p4531
tp4532
I1
s(g1
I113
VimageUrls
p4533
tp4534
I1
s(g1
I207
VcurrentTimeMillis
p4535
tp4536
I1
s(g1
I322
Vmessage
p4537
tp4538
I1
s(g1
I98
VRoundedBitmapDisplayer
p4539
tp4540
I1
s(g1
I80
Vreference
p4541
tp4542
I1
s(g1
I55
VBitmap
p4543
tp4544
I1
s(g1
I162
Vvalue
p4545
tp4546
I1
s(g1
I508
VdecodingInfo
p4547
tp4548
I1
s(g1
I788
VimageUrl
p4549
tp4550
I1
s(g1
I694
Vbitmap
p4551
tp4552
I1
s(g1
I79
VimageUri
p4553
tp4554
I1
s(g1
I153
Vcurrent
p4555
tp4556
I1
s(g1
I1126
Vbitmap
p4557
tp4558
I1
s(g1
I182
VimageStream
p4559
tp4560
I1
s(g1
I57
VgetBytes
p4561
tp4562
I1
s(g1
I247
VcloseSilently
p4563
tp4564
I1
s(g1
I554
Vdisplayer
p4565
tp4566
I1
s(g1
I204
VImageLoadingListener
p4567
tp4568
I1
s(g1
I828
VBitmap
p4569
tp4570
I1
s(g1
I327
VonOptionsItemSelected
p4571
tp4572
I1
s(g1
I142
VInteger
p4573
tp4574
I1
s(g1
I110
VURL
p4575
tp4576
I1
s(g1
I1554
VonLoadingFailed
p4577
tp4578
I1
s(g1
I1134
VfailReason
p4579
tp4580
I1
s(g1
I112
Vstream
p4581
tp4582
I2
s(g1
I228
VLruDiscCache
p4583
tp4584
I1
s(g1
I282
VFile
p4585
tp4586
I1
s(g1
I273
VcreateTaskExecutor
p4587
tp4588
I1
s(g1
I1438
VDisplayBitmapTask
p4589
tp4590
I1
s(g1
I419
VL
p4591
tp4592
I1
s(g1
I1523
Vrun
p4593
tp4594
I1
s(g1
I1062
Vos
p4595
tp4596
I1
s(g1
I85
Vitem
p4597
tp4598
I1
s(g1
I448
VCENTER_INSIDE
p4599
tp4600
I1
s(g1
I71
Vextra
p4601
tp4602
I1
s(g1
I871
VcancelDisplayTask
p4603
tp4604
I1
s(g1
I1561
Vpost
p4605
tp4606
I1
s(g1
I93
VreadTimeout
p4607
tp4608
I1
s(g1
I280
Vrun
p4609
tp4610
I1
s(g1
I42
VoptionsWithFakeDisplayer
p4611
tp4612
I1
s(g1
I186
VgetImageStream
p4613
tp4614
I1
s(g1
I165
Vdownloader
p4615
tp4616
I2
s(g1
I1463
VisCacheOnDisc
p4617
tp4618
I1
s(g1
I82
VgetExternalCacheDir
p4619
tp4620
I1
s(g1
I31
VImageView
p4621
tp4622
I1
s(g1
I108
VimageUri
p4623
tp4624
I2
s(g1
I165
Vbitmap
p4625
tp4626
I1
s(g1
I54
VdisplayOptions
p4627
tp4628
I2
s(g1
I168
Vheight
p4629
tp4630
I1
s(g1
I1192
Vrun
p4631
tp4632
I1
s(g1
I1864
Voptions
p4633
tp4634
I1
s(g1
I951
VDisplayImageOptions
p4635
tp4636
I1
s(g1
I123
VimageUrls
p4637
tp4638
I1
s(g1
I1126
Vos
p4639
tp4640
I1
s(g1
I67
Vbundle
p4641
tp4642
I1
s(g1
I1603
VEditor
p4643
tp4644
I2
s(g1
I214
Vlistener
p4645
tp4646
I2
s(g1
I236
VIntent
p4647
tp4648
I1
s(g1
I118
VlistView
p4649
tp4650
I1
s(g1
I31
Vmenu
p4651
tp4652
I1
s(g1
I197
Vlistener
p4653
tp4654
I1
s(g1
I158
VExecutors
p4655
tp4656
I1
s(g1
I252
VcacheOnDisk
p4657
tp4658
I1
s(g1
I1568
Vengine
p4659
tp4660
I1
s(g1
I379
Vexif
p4661
tp4662
I1
s(g1
I1415
VimageAware
p4663
tp4664
I1
s(g1
I1177
VgetImageOnFail
p4665
tp4666
I1
s(g1
I86
VimageView
p4667
tp4668
I1
s(g1
I65
VInputStream
p4669
tp4670
I1
s(g1
I131
VmemoryCache
p4671
tp4672
I1
s(g1
I523
Vbmp
p4673
tp4674
I1
s(g1
I92
VclearMemoryCache
p4675
tp4676
I1
s(g1
I654
VString
p4677
tp4678
I1
s(g1
I59
Vmd5
p4679
tp4680
I1
s(g1
I247
Vbuilder
p4681
tp4682
I1
s(g1
I735
VimageUrl
p4683
tp4684
I1
s(g1
I302
VOverride
p4685
tp4686
I3
s(g1
I577
Vlistener
p4687
tp4688
I1
s(g1
I148
VgetSize
p4689
tp4690
I1
s(g1
I184
VBitmap
p4691
tp4692
I1
s(g1
I422
Vcontext
p4693
tp4694
I1
s(g1
I193
VhardCache
p4695
tp4696
I1
s(g1
I90
VLimitedDiscCache
p4697
tp4698
I1
s(g1
I281
VExecutorService
p4699
tp4700
I1
s(g1
I272
VBUFFER_SIZE
p4701
tp4702
I1
s(g1
I181
Vget
p4703
tp4704
I1
s(g1
I372
Vcontext
p4705
tp4706
I1
s(g1
I209
VDisplayImageOptions
p4707
tp4708
I1
s(g1
I403
VimageUri
p4709
tp4710
I1
s(g1
I940
VmemoryCache
p4711
tp4712
I1
s(g1
I502
VgetDecodingType
p4713
tp4714
I1
s(g1
I165
VsizeLimit
p4715
tp4716
I1
s(g1
I175
VString
p4717
tp4718
I1
s(g1
I198
VLayoutInflater
p4719
tp4720
I1
s(g1
I569
VdecodingOptions
p4721
tp4722
I1
s(g1
I704
VisImageCachedOnDisc
p4723
tp4724
I1
s(g1
I1685
Ve
p4725
tp4726
I1
s(g1
I142
VString
p4727
tp4728
I1
s(g1
I145
Vkey
p4729
tp4730
I1
s(g1
I187
VstartActivity
p4731
tp4732
I1
s(g1
I1173
Voptions
p4733
tp4734
I1
s(g1
I218
Voptions
p4735
tp4736
I1
s(g1
I247
Vcapacity
p4737
tp4738
I2
s(g1
I656
VgetLastPathSegment
p4739
tp4740
I1
s(g1
I1706
Vwidth
p4741
tp4742
I1
s(g1
I371
Voptions
p4743
tp4744
I1
s(g1
I400
VFailReason
p4745
tp4746
I1
s(g1
I140
Vos
p4747
tp4748
I1
s(g1
I413
Vi
p4749
tp4750
I1
s(g1
I142
Vparent
p4751
tp4752
I1
s(g1
I160
Vis
p4753
tp4754
I1
s(g1
I2322
VString
p4755
tp4756
I1
s(g1
I70
VimageUri
p4757
tp4758
I1
s(g1
I627
Vlistener
p4759
tp4760
I1
s(g1
I647
Vcache
p4761
tp4762
I1
s(g1
I645
VImageSizeUtils
p4763
tp4764
I1
s(g1
I192
VoutState
p4765
tp4766
I1
s(g1
I191
VIOException
p4767
tp4768
I1
s(g1
I247
Vimage
p4769
tp4770
I1
s(g1
I235
VtaskDistributor
p4771
tp4772
I2
s(g1
I83
VimageUrls
p4773
tp4774
I1
s(g1
I478
VmostLongUsedFile
p4775
tp4776
I1
s(g1
I112
Vkey
p4777
tp4778
I1
s(g1
I778
VgetBitmapOptionsForImageDecoding
p4779
tp4780
I1
s(g1
I934
Vclose
p4781
tp4782
I1
s(g1
I172
VputExtra
p4783
tp4784
I1
s(g1
I665
VtargetSize
p4785
tp4786
I1
s(g1
I302
Vdrawable
p4787
tp4788
I1
s(g1
I92
VcacheOnDisc
p4789
tp4790
I1
s(g1
I38
VdiscCacheDir
p4791
tp4792
I2
s(g1
I1546
VshouldShowBitmapOnFail
p4793
tp4794
I1
s(g1
I92
Vclose
p4795
tp4796
I2
s(g1
I274
Vrun
p4797
tp4798
I1
s(g1
I1150
Vloaded
p4799
tp4800
I1
s(g1
I167
VString
p4801
tp4802
I2
s(g1
I91
Vbitmap
p4803
tp4804
I1
s(g1
I104
Vbitmap
p4805
tp4806
I1
s(g1
I875
VimageUriForDecoding
p4807
tp4808
I1
s(g1
I295
VimageViewWasReused
p4809
tp4810
I1
s(g1
I60
VgetExtras
p4811
tp4812
I1
s(g1
I600
VIOException
p4813
tp4814
I1
s(g1
I95
Vkey
p4815
tp4816
I1
s(g1
I271
VOptions
p4817
tp4818
I1
s(g1
I1540
Voptions
p4819
tp4820
I1
s(g1
I163
Vdownloader
p4821
tp4822
I2
s(g1
I77
Vcount
p4823
tp4824
I2
s(g1
I268
Vput
p4825
tp4826
I1
s(g1
I322
VreadAndCloseStream
p4827
tp4828
I2
s(g1
I210
VLayoutInflater
p4829
tp4830
I1
s(g1
I239
Vheight_tmp
p4831
tp4832
I1
s(g1
I129
VsavedInstanceState
p4833
tp4834
I1
s(g1
I159
VhardCache
p4835
tp4836
I1
s(g1
I280
Vput
p4837
tp4838
I1
s(g1
I721
VString
p4839
tp4840
I1
s(g1
I244
Vcrop
p4841
tp4842
I1
s(g1
I600
Vlistener
p4843
tp4844
I1
s(g1
I84
VMatrix
p4845
tp4846
I1
s(g1
I405
Vres
p4847
tp4848
I1
s(g1
I1106
VImageLoadingListener
p4849
tp4850
I1
s(g1
I171
VString
p4851
tp4852
I2
s(g1
I1483
VFailType
p4853
tp4854
I1
s(g1
I2648
Voptions
p4855
tp4856
I1
s(g1
I61
VComparator
p4857
tp4858
I1
s(g1
I119
VappCacheDir
p4859
tp4860
I1
s(g1
I1173
Vis
p4861
tp4862
I1
s(g1
I273
VtaskExecutorForCachedImages
p4863
tp4864
I1
s(g1
I647
Voptions
p4865
tp4866
I1
s(g1
I621
Vremove
p4867
tp4868
I1
s(g1
I370
VOverride
p4869
tp4870
I1
s(g1
I197
VEnvironment
p4871
tp4872
I1
s(g1
I108
VcacheInMemory
p4873
tp4874
I1
s(g1
I250
VString
p4875
tp4876
I1
s(g1
I146
Vview
p4877
tp4878
I1
s(g1
I387
VdisplayOptions
p4879
tp4880
I1
s(g1
I88
VimageUrls
p4881
tp4882
I1
s(g1
I119
VOverride
p4883
tp4884
I1
s(g1
I278
VimageView
p4885
tp4886
I1
s(g1
I11
VOverride
p4887
tp4888
I1
s(g1
I2639
VHandler
p4889
tp4890
I1
s(g1
I44
VBaseDiscCache
p4891
tp4892
I1
s(g1
I749
Vmessage
p4893
tp4894
I1
s(g1
I255
VFile
p4895
tp4896
I1
s(g1
I660
VgetThumbnail
p4897
tp4898
I1
s(g1
I166
VOverride
p4899
tp4900
I1
s(g1
I78
Vequals
p4901
tp4902
I1
s(g1
I673
VTAG
p4903
tp4904
I1
s(g1
I103
VinputStream
p4905
tp4906
I1
s(g1
I274
VLayoutInflater
p4907
tp4908
I1
s(g1
I2075
VImageAware
p4909
tp4910
I1
s(g1
I964
VDEFAULT_THREAD_POOL_SIZE
p4911
tp4912
I1
s(g1
I958
VmemoryCache
p4913
tp4914
I1
s(g1
I43
VmaxImageWidthForMemoryCache
p4915
tp4916
I1
s(g1
I333
VsaveImageOnDisc
p4917
tp4918
I1
s(g1
I300
VreserveDiscCache
p4919
tp4920
I1
s(g1
I145
VinitImageLoader
p4921
tp4922
I1
s(g1
I97
Vhandler
p4923
tp4924
I1
s(g1
I265
Vlimit
p4925
tp4926
I1
s(g1
I144
VdisplayedBitmap
p4927
tp4928
I1
s(g1
I397
VSecurityManager
p4929
tp4930
I1
s(g1
I1189
Vuri
p4931
tp4932
I1
s(g1
I417
VFile
p4933
tp4934
I1
s(g1
I594
VimageStream
p4935
tp4936
I1
s(g1
I372
VInterruptedException
p4937
tp4938
I1
s(g1
I302
VIOException
p4939
tp4940
I1
s(g1
I255
VcacheSize
p4941
tp4942
I1
s(g1
I78
VimageLoader
p4943
tp4944
I1
s(g1
I42
Vdisplay
p4945
tp4946
I1
s(g1
I948
VFuzzyKeyCache
p4947
tp4948
I1
s(g1
I1187
Voptions
p4949
tp4950
I1
s(g1
I67
VcacheDir
p4951
tp4952
I1
s(g1
I188
VcurrentTime
p4953
tp4954
I1
s(g1
I25
VonCreate
p4955
tp4956
I1
s(g1
I90
VFileNameGenerator
p4957
tp4958
I1
s(g1
I646
VmemoryCacheKey
p4959
tp4960
I1
s(g1
I326
VbitmapCache
p4961
tp4962
I1
s(g1
I424
VString
p4963
tp4964
I1
s(g1
I177
VUNKNOWN
p4965
tp4966
I2
s(g1
I131
Vkey
p4967
tp4968
I1
s(g1
I377
VsrcSize
p4969
tp4970
I1
s(g1
I515
VscaleType
p4971
tp4972
I1
s(g1
I36
VFile
p4973
tp4974
I1
s(g1
I686
VimageFile
p4975
tp4976
I1
s(g1
I144
VonSaveInstanceState
p4977
tp4978
I1
s(g1
I377
VMAX_REDIRECT_COUNT
p4979
tp4980
I1
s(g1
I892
VImageSize
p4981
tp4982
I1
s(g1
I597
Vbitmap
p4983
tp4984
I1
s(g1
I102
VString
p4985
tp4986
I1
s(g1
I1282
Vstart
p4987
tp4988
I1
s(g1
I1691
Ve
p4989
tp4990
I1
s(g1
I113
Voutput
p4991
tp4992
I1
s(g1
I597
Vheight
p4993
tp4994
I1
s(g1
I342
VimageView
p4995
tp4996
I1
s(g1
I137
VLayoutInflater
p4997
tp4998
I1
s(g1
I240
Vsize
p4999
tp5000
I1
s(g1
I413
VDrawable
p5001
tp5002
I1
s(g1
I41
VsizeLimit
p5003
tp5004
I1
s(g1
I369
Vurl
p5005
tp5006
I1
s(g1
I101
VK
p5007
tp5008
I1
s(g1
I222
VmemoryCacheKey
p5009
tp5010
I1
s(g1
I907
Vcontext
p5011
tp5012
I1
s(g1
I1279
VimageView
p5013
tp5014
I1
s(g1
I1285
VtargetImageSize
p5015
tp5016
I1
s(g1
I71
VReference
p5017
tp5018
I1
s(g1
I163
VViewPager
p5019
tp5020
I1
s(g1
I1498
VshouldShowImageOnFail
p5021
tp5022
I1
s(g1
I71
VURLConnection
p5023
tp5024
I2
s(g1
I357
VimageView
p5025
tp5026
I1
s(g1
I31
VHttpClient
p5027
tp5028
I1
s(g1
I1159
VgetStream
p5029
tp5030
I1
s(g1
I383
VFailReason
p5031
tp5032
I1
s(g1
I139
Vid
p5033
tp5034
I1
s(g1
I375
VURI
p5035
tp5036
I1
s(g1
I292
VviewRef
p5037
tp5038
I1
s(g1
I1251
VtargetFile
p5039
tp5040
I1
s(g1
I990
Vsaved
p5041
tp5042
I1
s(g1
I625
VdecodingOptions
p5043
tp5044
I1
s(g1
I1083
VphotoToLoadQueue
p5045
tp5046
I1
s(g1
I254
Vparams
p5047
tp5048
I1
s(g1
I233
VIntent
p5049
tp5050
I1
s(g1
I1446
Vremove
p5051
tp5052
I1
s(g1
I1166
VOverride
p5053
tp5054
I1
s(g1
I117
VmemoryCacheKey
p5055
tp5056
I1
s(g1
I517
VContentLengthInputStream
p5057
tp5058
I2
s(g1
I48
Vvalue
p5059
tp5060
I1
s(g1
I69
VObject
p5061
tp5062
I1
s(g1
I1692
Vlock
p5063
tp5064
I1
s(g1
I52
VdiscCacheDir
p5065
tp5066
I1
s(g1
I39
Vlong
p5067
tp5068
I20
s(g1
I55
VmemoryCacheSize
p5069
tp5070
I1
s(g1
I374
VimageLoadingExecutor
p5071
tp5072
I1
s(g1
I563
VsrcWidth
p5073
tp5074
I1
s(g1
I53
VImageLoader
p5075
tp5076
I1
s(g1
I694
VImageDecoder
p5077
tp5078
I1
s(g1
I104
VImageLoaderConfiguration
p5079
tp5080
I1
s(g1
I87
VgetInt
p5081
tp5082
I2
s(g1
I473
VmostLongUsedFile
p5083
tp5084
I1
s(g1
I406
Vrotation
p5085
tp5086
I1
s(g1
I1248
Vw
p5087
tp5088
I1
s(g1
I370
VgetResponseCode
p5089
tp5090
I1
s(g1
I112
Vget
p5091
tp5092
I1
s(g1
I1178
VsetImageResource
p5093
tp5094
I1
s(g1
I37
VmaxCacheSize
p5095
tp5096
I1
s(g1
I552
VInputStream
p5097
tp5098
I1
s(g1
I172
VString
p5099
tp5100
I1
s(g1
I2002
VimageStream
p5101
tp5102
I1
s(g1
I114
VinputStream
p5103
tp5104
I1
s(g1
I1430
Vbmp
p5105
tp5106
I1
s(g1
I39
Vvoid
p5107
tp5108
I123
s(g1
I1302
VisNetworkDenied
p5109
tp5110
I1
s(g1
I527
VuriLocks
p5111
tp5112
I1
s(g1
I83
Vfinal
p5113
tp5114
I30
s(g1
I1172
VshouldShowImageOnFail
p5115
tp5116
I1
s(g1
I244
Vpaint
p5117
tp5118
I1
s(g1
I973
Voptions
p5119
tp5120
I1
s(g1
I70
VgetIntent
p5121
tp5122
I1
s(g1
I739
VloggingEnabled
p5123
tp5124
I1
s(g1
I694
Vcompress
p5125
tp5126
I1
s(g1
I85
Vuri
p5127
tp5128
I1
s(g1
I430
VinitEmptyFiledsWithDefaultValues
p5129
tp5130
I1
s(g1
I196
VBitmapShader
p5131
tp5132
I3
s(g1
I140
VimageLoader
p5133
tp5134
I1
s(g1
I72
VsizeLimit
p5135
tp5136
I1
s(g1
I1445
VimageView
p5137
tp5138
I1
s(g1
I593
VsetImageBitmap
p5139
tp5140
I1
s(g1
I91
Vrequest
p5141
tp5142
I1
s(g1
I205
Vpath
p5143
tp5144
I1
s(g1
I331
VException
p5145
tp5146
I1
s(g1
I80
Vcount
p5147
tp5148
I1
s(g1
I734
Ve
p5149
tp5150
I1
s(g1
I181
Vkey
p5151
tp5152
I1
s(g1
I1497
VisSyncLoading
p5153
tp5154
I1
s(g1
I173
Vheight
p5155
tp5156
I1
s(g1
I556
VgetDisplayer
p5157
tp5158
I1
s(g1
I277
VupdateAppWidget
p5159
tp5160
I1
s(g1
I356
VContext
p5161
tp5162
I1
s(g1
I98
VFile
p5163
tp5164
I1
s(g1
I784
VmemoryCacheKey
p5165
tp5166
I1
s(g1
I257
VImageView
p5167
tp5168
I1
s(g1
I49
VK
p5169
tp5170
I1
s(g1
I1558
Vrun
p5171
tp5172
I1
s(g1
I1969
VwrappedDownloader
p5173
tp5174
I1
s(g1
I1141
VImageLoadingListener
p5175
tp5176
I1
s(g1
I173
Vrun
p5177
tp5178
I1
s(g1
I44
Vos
p5179
tp5180
I1
s(g1
I515
VRuntimeException
p5181
tp5182
I1
s(g1
I348
Vimage
p5183
tp5184
I1
s(g1
I256
VcloneFrom
p5185
tp5186
I1
s(g1
I301
VFailReason
p5187
tp5188
I1
s(g1
I146
VhasExternalStoragePermission
p5189
tp5190
I1
s(g1
I101
VhttpClient
p5191
tp5192
I1
s(g1
I414
Vset
p5193
tp5194
I1
s(g1
I1295
Vfinish
p5195
tp5196
I1
s(g1
I641
VIOException
p5197
tp5198
I1
s(g1
I36
VhttpClient
p5199
tp5200
I1
s(g1
I319
VOUT_OF_MEMORY
p5201
tp5202
I1
s(g1
I1897
VprogressListener
p5203
tp5204
I1
s(g1
I1102
VphotoToLoadQueue
p5205
tp5206
I1
s(g1
I54
VFileNameGenerator
p5207
tp5208
I1
s(g1
I262
VscrollOptions
p5209
tp5210
I1
s(g1
I65
VBundle
p5211
tp5212
I3
s(g1
I123
VRunnable
p5213
tp5214
I1
s(g1
I110
Vdisplayer
p5215
tp5216
I1
s(g1
I1748
VString
p5217
tp5218
I1
s(g1
I744
Ve
p5219
tp5220
I1
s(g1
I307
VOptions
p5221
tp5222
I1
s(g1
I1294
Vdecode
p5223
tp5224
I1
s(g1
I133
VcreateReference
p5225
tp5226
I1
s(g1
I216
VDisplayImageOptions
p5227
tp5228
I1
s(g1
I91
VFile
p5229
tp5230
I1
s(g1
I89
VBitmap
p5231
tp5232
I1
s(g1
I92
VFile
p5233
tp5234
I2
s(g1
I837
VTargetApi
p5235
tp5236
I1
s(g1
I416
VTargetApi
p5237
tp5238
I1
s(g1
I236
VdiscCacheFileNameGenerator
p5239
tp5240
I1
s(g1
I174
VContext
p5241
tp5242
I1
s(g1
I102
Vbitmap
p5243
tp5244
I1
s(g1
I129
VgetInt
p5245
tp5246
I1
s(g1
I91
VimageView
p5247
tp5248
I2
s(g1
I364
VcacheOnDisc
p5249
tp5250
I1
s(g1
I194
VBitmapFactory
p5251
tp5252
I1
s(g1
I95
Vclose
p5253
tp5254
I2
s(g1
I158
Vheight
p5255
tp5256
I1
s(g1
I140
VshowImageForEmptyUri
p5257
tp5258
I1
s(g1
I115
VFile
p5259
tp5260
I3
s(g1
I340
Vexpected
p5261
tp5262
I1
s(g1
I656
VMATRIX
p5263
tp5264
I1
s(g1
I75
VObject
p5265
tp5266
I1
s(g1
I1402
VOverride
p5267
tp5268
I1
s(g1
I1086
Vuri
p5269
tp5270
I1
s(g1
I44
VOverride
p5271
tp5272
I1
s(g1
I134
VOverride
p5273
tp5274
I1
s(g1
I433
VconnectTo
p5275
tp5276
I1
s(g1
I41
VimageUrl
p5277
tp5278
I1
s(g1
I227
VimageView
p5279
tp5280
I1
s(g1
I261
Vheight_tmp
p5281
tp5282
I1
s(g1
I401
VimageResOnFail
p5283
tp5284
I1
s(g1
I732
VImageView
p5285
tp5286
I1
s(g1
I1275
VtargetFile
p5287
tp5288
I1
s(g1
I674
VgenerateKey
p5289
tp5290
I1
s(g1
I1554
VImageLoadingListener
p5291
tp5292
I1
s(g1
I139
VdisplayedBitmap
p5293
tp5294
I1
s(g1
I1701
Vlast
p5295
tp5296
I1
s(g1
I69
Vkey
p5297
tp5298
I2
s(g1
I73
VsavedInstanceState
p5299
tp5300
I1
s(g1
I200
Vbitmap
p5301
tp5302
I3
s(g1
I82
VString
p5303
tp5304
I1
s(g1
I1991
Vextra
p5305
tp5306
I1
s(g1
I326
VslowNetworkDownloader
p5307
tp5308
I1
s(g1
I697
VInputStream
p5309
tp5310
I1
s(g1
I59
VonCreate
p5311
tp5312
I1
s(g1
I188
Vbitmap
p5313
tp5314
I1
s(g1
I823
Vuri
p5315
tp5316
I1
s(g1
I779
Vuri
p5317
tp5318
I1
s(g1
I88
VgetStringArray
p5319
tp5320
I2
s(g1
I201
VmemoryCache
p5321
tp5322
I1
s(g1
I642
VDisplayImageTask
p5323
tp5324
I1
s(g1
I323
VSlowNetworkImageDownloader
p5325
tp5326
I1
s(g1
I290
VExifInfo
p5327
tp5328
I1
s(g1
I43
VOverride
p5329
tp5330
I1
s(g1
I1281
VSystem
p5331
tp5332
I1
s(g1
I226
Vview
p5333
tp5334
I1
s(g1
I271
VMEMORY_SAVING
p5335
tp5336
I1
s(g1
I673
VtargetFile
p5337
tp5338
I1
s(g1
I227
VPaint
p5339
tp5340
I1
s(g1
I162
VcustomListener
p5341
tp5342
I1
s(g1
I205
Vget
p5343
tp5344
I1
s(g1
I825
VtargetImageSize
p5345
tp5346
I1
s(g1
I161
VpauseOnFling
p5347
tp5348
I1
s(g1
I72
VonCreate
p5349
tp5350
I1
s(g1
I163
VvalueSize
p5351
tp5352
I1
s(g1
I684
VL
p5353
tp5354
I1
s(g1
I86
VsetImageBitmap
p5355
tp5356
I1
s(g1
I778
VisRecycled
p5357
tp5358
I1
s(g1
I786
Vi
p5359
tp5360
I1
s(g1
I80
VgetRoundedCornerBitmap
p5361
tp5362
I1
s(g1
I219
VgetSize
p5363
tp5364
I1
s(g1
I80
VgetExtras
p5365
tp5366
I1
s(g1
I82
VimageLoadingInfo
p5367
tp5368
I1
s(g1
I168
VgetHeight
p5369
tp5370
I1
s(g1
I1108
VFileOutputStream
p5371
tp5372
I1
s(g1
I94
VbitmapConfig
p5373
tp5374
I1
s(g1
I135
VhardCache
p5375
tp5376
I1
s(g1
I191
VloadedFrom
p5377
tp5378
I1
s(g1
I245
VOverride
p5379
tp5380
I1
s(g1
I703
Vpause
p5381
tp5382
I1
s(g1
I115
VgetStreamFromNetwork
p5383
tp5384
I1
s(g1
I641
VshouldShowImageForEmptyUri
p5385
tp5386
I1
s(g1
I217
Veditor
p5387
tp5388
I1
s(g1
I167
VImageView
p5389
tp5390
I1
s(g1
I161
VcreateTaskDistributor
p5391
tp5392
I1
s(g1
I1316
VdiscCacheFileNameGenerator
p5393
tp5394
I1
s(g1
I786
Ve
p5395
tp5396
I1
s(g1
I126
VAssertions
p5397
tp5398
I1
s(g1
I151
Vcontext
p5399
tp5400
I1
s(g1
I643
Vres
p5401
tp5402
I1
s(g1
I264
VExecutorService
p5403
tp5404
I1
s(g1
I381
VInputStream
p5405
tp5406
I2
s(g1
I187
VSystem
p5407
tp5408
I1
s(g1
I206
VmakeMeasureSpec
p5409
tp5410
I1
s(g1
I230
VV
p5411
tp5412
I1
s(g1
I31
VdisplayMetrics
p5413
tp5414
I1
s(g1
I156
VbmpRef
p5415
tp5416
I1
s(g1
I204
Vwrite
p5417
tp5418
I1
s(g1
I114
VbitmapConfig
p5419
tp5420
I1
s(g1
I144
VonLoadingComplete
p5421
tp5422
I1
s(g1
I155
VbitmapConfig
p5423
tp5424
I1
s(g1
I78
VV
p5425
tp5426
I1
s(g1
I149
Vr
p5427
tp5428
I1
s(g1
I178
VOptions
p5429
tp5430
I1
s(g1
I777
VindividualCacheDir
p5431
tp5432
I1
s(g1
I676
Vcompress
p5433
tp5434
I1
s(g1
I1178
VdownloadImage
p5435
tp5436
I1
s(g1
I115
VgetStreamFromAssets
p5437
tp5438
I1
s(g1
I71
Vbundle
p5439
tp5440
I4
s(g1
I77
VsetContentView
p5441
tp5442
I1
s(g1
I109
Vurls
p5443
tp5444
I1
s(g1
I964
VspecialOptions
p5445
tp5446
I1
s(g1
I157
VrootView
p5447
tp5448
I1
s(g1
I257
VgetSize
p5449
tp5450
I1
s(g1
I172
VIOException
p5451
tp5452
I1
s(g1
I232
Vinflater
p5453
tp5454
I1
s(g1
I219
VloadingDates
p5455
tp5456
I1
s(g1
I184
Vwidth
p5457
tp5458
I1
s(g1
I1090
VphotoToLoad
p5459
tp5460
I1
s(g1
I343
VsrcSize
p5461
tp5462
I1
s(g1
I74
VroundBitmap
p5463
tp5464
I1
s(g1
I422
Vdownloader
p5465
tp5466
I1
s(g1
I183
VimageUri
p5467
tp5468
I1
s(g1
I116
VImageGridFragment
p5469
tp5470
I1
s(g1
I186
Vvalue
p5471
tp5472
I1
s(g1
I213
VV
p5473
tp5474
I1
s(g1
I156
VDisplayImageOptions
p5475
tp5476
I1
s(g1
I342
VBuilder
p5477
tp5478
I1
s(g1
I1323
VmemoryCache
p5479
tp5480
I1
s(g1
I62
VFile
p5481
tp5482
I1
s(g1
I120
VStorageUtils
p5483
tp5484
I1
s(g1
I93
Vmenu
p5485
tp5486
I1
s(g1
I274
VMatrix
p5487
tp5488
I1
s(g1
I401
VMAX_REDIRECT_COUNT
p5489
tp5490
I1
s(g1
I50
VimageView
p5491
tp5492
I1
s(g1
I834
VcachedImageLoadingExecutor
p5493
tp5494
I1
s(g1
I207
VloggingEnabled
p5495
tp5496
I1
s(g1
I250
Vengine
p5497
tp5498
I1
s(g1
I119
Vbundle
p5499
tp5500
I1
s(g1
I213
VDisplayImageOptions
p5501
tp5502
I1
s(g1
I135
VDisplayBitmapTask
p5503
tp5504
I1
s(g1
I585
VIOException
p5505
tp5506
I1
s(g1
I1079
VField
p5507
tp5508
I1
s(g1
I1442
VtoURL
p5509
tp5510
I1
s(g1
I292
VencodedUri
p5511
tp5512
I1
s(g1
I386
Vremove
p5513
tp5514
I1
s(g1
I84
VIllegalArgumentException
p5515
tp5516
I1
s(g1
I158
VDisplayBitmapTask
p5517
tp5518
I2
s(g1
I62
VCollections
p5519
tp5520
I1
s(g1
I77
VgetStringArray
p5521
tp5522
I3
s(g1
I135
Vclear
p5523
tp5524
I1
s(g1
I53
VsetThreadPolicy
p5525
tp5526
I1
s(g1
I183
VdecodeOptions
p5527
tp5528
I1
s(g1
I167
VnewThread
p5529
tp5530
I1
s(g1
I1169
VoptionsWithFakeDisplayer
p5531
tp5532
I1
s(g1
I24
VcacheDir
p5533
tp5534
I1
s(g1
I153
Vlistener
p5535
tp5536
I1
s(g1
I132
VViewGroup
p5537
tp5538
I1
s(g1
I67
Vbitmap
p5539
tp5540
I1
s(g1
I212
VimageUri
p5541
tp5542
I1
s(g1
I155
Vposition
p5543
tp5544
I2
s(g1
I427
Vengine
p5545
tp5546
I1
s(g1
I227
VimageDownloader
p5547
tp5548
I1
s(g1
I409
Ve
p5549
tp5550
I2
s(g1
I96
VshowImageForEmptyUri
p5551
tp5552
I2
s(g1
I541
Vbmp
p5553
tp5554
I1
s(g1
I26
VgetApplicationContext
p5555
tp5556
I6
s(g1
I128
Vbuffer
p5557
tp5558
I1
s(g1
I639
Vbh
p5559
tp5560
I1
s(g1
I289
Vview
p5561
tp5562
I1
s(g1
I1138
VImageDownloader
p5563
tp5564
I1
s(g1
I993
VtargetFile
p5565
tp5566
I1
s(g1
I1430
Vput
p5567
tp5568
I1
s(g1
I67
VimageUrl
p5569
tp5570
I1
s(g1
I44
Vconfig
p5571
tp5572
I1
s(g1
I98
VgetSupportFragmentManager
p5573
tp5574
I1
s(g1
I78
Voptions
p5575
tp5576
I1
s(g1
I53
Vput
p5577
tp5578
I1
s(g1
I133
Vuri
p5579
tp5580
I1
s(g1
I104
VgetDisplayer
p5581
tp5582
I1
s(g1
I104
VsizeLimit
p5583
tp5584
I1
s(g1
I1902
VHandler
p5585
tp5586
I1
s(g1
I21
VonCreate
p5587
tp5588
I1
s(g1
I201
VisShutdown
p5589
tp5590
I1
s(g1
I1442
Vmessage
p5591
tp5592
I1
s(g1
I633
VDiscCache
p5593
tp5594
I1
s(g1
I264
Vdisplayer
p5595
tp5596
I1
s(g1
I229
VisShutdown
p5597
tp5598
I1
s(g1
I163
VappCacheDir
p5599
tp5600
I1
s(g1
I1693
Vlock
p5601
tp5602
I1
s(g1
I258
Vsize
p5603
tp5604
I1
s(g1
I107
Vpos
p5605
tp5606
I2
s(g1
I1076
Vvalue
p5607
tp5608
I1
s(g1
I76
VimageUri
p5609
tp5610
I1
s(g1
I1137
Vinterrupted
p5611
tp5612
I1
s(g1
I332
Vview
p5613
tp5614
I1
s(g1
I265
VonBackPressed
p5615
tp5616
I1
s(g1
I61
VtoString
p5617
tp5618
I1
s(g1
I235
Ventry
p5619
tp5620
I1
s(g1
I362
VcacheInMemory
p5621
tp5622
I1
s(g1
I192
Vradius
p5623
tp5624
I1
s(g1
I329
VFile
p5625
tp5626
I1
s(g1
I2097
VimageView
p5627
tp5628
I1
s(g1
I13
VActivity
p5629
tp5630
I1
s(g1
I1528
VimageView
p5631
tp5632
I1
s(g1
I141
VViewGroup
p5633
tp5634
I1
s(g1
I292
VDefaultConfigurationFactory
p5635
tp5636
I1
s(g1
I2641
VLOG_DESTROY
p5637
tp5638
I1
s(g1
I688
VopenConnection
p5639
tp5640
I1
s(g1
I1710
Vlock
p5641
tp5642
I1
s(g1
I152
Vcache
p5643
tp5644
I1
s(g1
I373
Vconn
p5645
tp5646
I2
s(g1
I188
VgetHeight
p5647
tp5648
I1
s(g1
I419
Vd
p5649
tp5650
I1
s(g1
I345
VDefaultConfigurationFactory
p5651
tp5652
I1
s(g1
I934
VdiscCache
p5653
tp5654
I1
s(g1
I121
VK
p5655
tp5656
I1
s(g1
I190
VBundle
p5657
tp5658
I1
s(g1
I89
VimageView
p5659
tp5660
I2
s(g1
I23
VString
p5661
tp5662
I1
s(g1
I1440
VimageView
p5663
tp5664
I1
s(g1
I141
VString
p5665
tp5666
I1
s(g1
I1315
Vbmp
p5667
tp5668
I1
s(g1
I117
VFile
p5669
tp5670
I1
s(g1
I207
Vset
p5671
tp5672
I1
s(g1
I1974
VwrappedDownloader
p5673
tp5674
I1
s(g1
I637
VThread
p5675
tp5676
I1
s(g1
I94
Vfr
p5677
tp5678
I1
s(g1
I335
VRuntime
p5679
tp5680
I1
s(g1
I107
Vcontext
p5681
tp5682
I1
s(g1
I1119
VimageView
p5683
tp5684
I1
s(g1
I86
VgetIntent
p5685
tp5686
I2
s(g1
I12
VFIT_INSIDE
p5687
tp5688
I1
s(g1
I1148
VIOException
p5689
tp5690
I1
s(g1
I53
VgetInstance
p5691
tp5692
I1
s(g1
I377
VimageUri
p5693
tp5694
I2
s(g1
I248
VcachedFiles
p5695
tp5696
I1
s(g1
I581
VImageDecodingInfo
p5697
tp5698
I1
s(g1
I349
Vposition
p5699
tp5700
I1
s(g1
I676
Vbos
p5701
tp5702
I1
s(g1
I1078
Vremove
p5703
tp5704
I1
s(g1
I1062
VcloseSilently
p5705
tp5706
I1
s(g1
I24
VOverride
p5707
tp5708
I1
s(g1
I154
VgetSize
p5709
tp5710
I1
s(g1
I327
VonLoadingComplete
p5711
tp5712
I1
s(g1
I83
Vstatic
p5713
tp5714
I39
s(g1
I113
Voptions
p5715
tp5716
I1
s(g1
I208
VrootView
p5717
tp5718
I1
s(g1
I110
Vitem
p5719
tp5720
I1
s(g1
I109
VtitleRes
p5721
tp5722
I1
s(g1
I198
Vskip
p5723
tp5724
I1
s(g1
I199
VoutState
p5725
tp5726
I1
s(g1
I370
Voptions
p5727
tp5728
I1
s(g1
I799
VDiscCacheAware
p5729
tp5730
I1
s(g1
I1735
VdenyCacheImageMultipleSizesInMemory
p5731
tp5732
I1
s(g1
I840
VExecutors
p5733
tp5734
I1
s(g1
I455
Vput
p5735
tp5736
I1
s(g1
I970
Vsaved
p5737
tp5738
I1
s(g1
I32
VcacheDir
p5739
tp5740
I1
s(g1
I124
VsavedInstanceState
p5741
tp5742
I1
s(g1
I80
VImageLoadingListener
p5743
tp5744
I1
s(g1
I192
VgetId
p5745
tp5746
I1
s(g1
I40
VFile
p5747
tp5748
I1
s(g1
I2345
VtrimToFileCount
p5749
tp5750
I1
s(g1
I252
VBaseAdapter
p5751
tp5752
I1
s(g1
I225
VIllegalArgumentException
p5753
tp5754
I1
s(g1
I301
VimageUri
p5755
tp5756
I1
s(g1
I1538
VimageView
p5757
tp5758
I1
s(g1
I387
VString
p5759
tp5760
I4
s(g1
I249
Vpaint
p5761
tp5762
I1
s(g1
I740
VsaveImageFromUrl
p5763
tp5764
I1
s(g1
I922
VBitmap
p5765
tp5766
I1
s(g1
I80
Vos
p5767
tp5768
I1
s(g1
I131
VBitmap
p5769
tp5770
I1
s(g1
I153
Vremove
p5771
tp5772
I1
s(g1
I170
VdecodingInfo
p5773
tp5774
I1
s(g1
I709
VstartsWith
p5775
tp5776
I1
s(g1
I367
VtestGetImageSizeScaleTo_useImageConfigMaxSize
p5777
tp5778
I1
s(g1
I188
VgetExternalStorageState
p5779
tp5780
I1
s(g1
I177
VMarkableInputStream
p5781
tp5782
I1
s(g1
I1740
VmemoryCache
p5783
tp5784
I1
s(g1
I137
VOverride
p5785
tp5786
I2
s(g1
I424
VimageFile
p5787
tp5788
I1
s(g1
I394
VvalueSize
p5789
tp5790
I1
s(g1
I197
VProcessAndDisplayImageTask
p5791
tp5792
I1
s(g1
I61
VV
p5793
tp5794
I1
s(g1
I597
Vresult
p5795
tp5796
I1
s(g1
I518
Vget
p5797
tp5798
I1
s(g1
I1684
VE
p5799
tp5800
I1
s(g1
I316
VNetworkDeniedImageDownloader
p5801
tp5802
I1
s(g1
I65
VBUFFER_SIZE
p5803
tp5804
I1
s(g1
I1561
Vhandler
p5805
tp5806
I1
s(g1
I600
VImageDecoder
p5807
tp5808
I1
s(g1
I914
VActivity
p5809
tp5810
I1
s(g1
I1454
Vcurrent
p5811
tp5812
I1
s(g1
I1912
Vr
p5813
tp5814
I1
s(g1
I169
Vremove
p5815
tp5816
I1
s(g1
I462
VmemoryCacheKey
p5817
tp5818
I1
s(g1
I2623
Vinit
p5819
tp5820
I1
s(g1
I41
VdiscCacheSize
p5821
tp5822
I2
s(g1
I73
Vkey1
p5823
tp5824
I1
s(g1
I83
VscaleType
p5825
tp5826
I1
s(g1
I151
VgetExternalCacheDir
p5827
tp5828
I1
s(g1
I674
Voptions
p5829
tp5830
I1
s(g1
I537
VcacheDir
p5831
tp5832
I1
s(g1
I667
Voptions
p5833
tp5834
I1
s(g1
I104
VString
p5835
tp5836
I1
s(g1
I391
VimageUri
p5837
tp5838
I1
s(g1
I199
VgetLayoutInflater
p5839
tp5840
I1
s(g1
I136
Vposition
p5841
tp5842
I1
s(g1
I176
VBitmap
p5843
tp5844
I1
s(g1
I693
VimageFile
p5845
tp5846
I1
s(g1
I201
Vappend
p5847
tp5848
I1
s(g1
I142
Vget
p5849
tp5850
I1
s(g1
I71
VgetStringArray
p5851
tp5852
I1
s(g1
I397
VView
p5853
tp5854
I1
s(g1
I169
Vs
p5855
tp5856
I2
s(g1
I270
VonLoadingCancelled
p5857
tp5858
I1
s(g1
I700
VtoByteArray
p5859
tp5860
I1
s(g1
I1585
Ventry
p5861
tp5862
I2
s(g1
I55
VUILApplication
p5863
tp5864
I1
s(g1
I232
VLong
p5865
tp5866
I1
s(g1
I147
VReference
p5867
tp5868
I1
s(g1
I72
VkeyToFileName
p5869
tp5870
I1
s(g1
I83
Vabstract
p5871
tp5872
I2
s(g1
I556
VphotoToLoadQueue
p5873
tp5874
I1
s(g1
I718
VField
p5875
tp5876
I1
s(g1
I683
VcacheKeysForImageViews
p5877
tp5878
I1
s(g1
I660
VonLoadingComplete
p5879
tp5880
I1
s(g1
I293
Voptions
p5881
tp5882
I1
s(g1
I75
VgetApplicationContext
p5883
tp5884
I1
s(g1
I662
VisRecycled
p5885
tp5886
I1
s(g1
I89
VString
p5887
tp5888
I1
s(g1
I235
Vvalue
p5889
tp5890
I1
s(g1
I1834
Vuri
p5891
tp5892
I1
s(g1
I203
VtargetSize
p5893
tp5894
I1
s(g1
I55
VHashMap
p5895
tp5896
I1
s(g1
I2304
VtoEvict
p5897
tp5898
I1
s(g1
I398
Vsnapshot
p5899
tp5900
I1
s(g1
I65
VgetIntent
p5901
tp5902
I1
s(g1
I296
VwriteLogs
p5903
tp5904
I1
s(g1
I211
Vtask
p5905
tp5906
I1
s(g1
I672
VdisplayedBitmap
p5907
tp5908
I1
s(g1
I225
VmaxSize
p5909
tp5910
I1
s(g1
I221
VObject
p5911
tp5912
I1
s(g1
I64
VimageDownloader
p5913
tp5914
I1
s(g1
I596
VgetPause
p5915
tp5916
I1
s(g1
I984
Vheight
p5917
tp5918
I1
s(g1
I215
VisShutdown
p5919
tp5920
I1
s(g1
I525
VBUFFER_SIZE
p5921
tp5922
I2
s(g1
I427
Vcontext
p5923
tp5924
I1
s(g1
I405
VgetDrawable
p5925
tp5926
I1
s(g1
I1488
VThrowable
p5927
tp5928
I1
s(g1
I1121
VBitmap
p5929
tp5930
I1
s(g1
I237
VtasksProcessingType
p5931
tp5932
I1
s(g1
I278
VImageAdapter
p5933
tp5934
I1
s(g1
I120
Vtag
p5935
tp5936
I1
s(g1
I64
VsetContentView
p5937
tp5938
I1
s(g1
I783
VtargetSize
p5939
tp5940
I1
s(g1
I89
VERROR_ARG_NULL
p5941
tp5942
I1
s(g1
I1069
Vbmp
p5943
tp5944
I1
s(g1
I1288
Vis
p5945
tp5946
I1
s(g1
I307
VAnimation
p5947
tp5948
I1
s(g1
I1540
VgetImageResOnFail
p5949
tp5950
I1
s(g1
I700
Vbos
p5951
tp5952
I1
s(g1
I68
VURI
p5953
tp5954
I1
s(g1
I1433
Vuri
p5955
tp5956
I1
s(g1
I370
VimageLoadingInfo
p5957
tp5958
I1
s(g1
I167
VremoveNext
p5959
tp5960
I1
s(g1
I28
VcacheDir
p5961
tp5962
I1
s(g1
I617
VgetDecodingOptions
p5963
tp5964
I1
s(g1
I49
Vbuffer_size
p5965
tp5966
I1
s(g1
I710
Vconfiguration
p5967
tp5968
I1
s(g1
I653
VcacheDir
p5969
tp5970
I1
s(g1
I184
VL
p5971
tp5972
I1
s(g1
I462
Vlistener
p5973
tp5974
I1
s(g1
I160
VOnScrollListener
p5975
tp5976
I1
s(g1
I1262
VIOException
p5977
tp5978
I1
s(g1
I99
Vvalue
p5979
tp5980
I1
s(g1
I37
VthreadPoolSize
p5981
tp5982
I1
s(g1
I138
VAdapterView
p5983
tp5984
I1
s(g1
I518
Vbmp
p5985
tp5986
I1
s(g1
I283
VOverride
p5987
tp5988
I1
s(g1
I174
VimageUrls
p5989
tp5990
I1
s(g1
I1069
Vrecycle
p5991
tp5992
I1
s(g1
I194
VIOException
p5993
tp5994
I1
s(g1
I176
Vheight
p5995
tp5996
I1
s(g1
I1691
VgetMessage
p5997
tp5998
I1
s(g1
I81
VgetExtras
p5999
tp6000
I2
s(g1
I176
VOverride
p6001
tp6002
I2
s(g1
I1293
VImageDownloader
p6003
tp6004
I1
s(g1
I44
VimageView
p6005
tp6006
I1
s(g1
I61
VImageLoadingInfo
p6007
tp6008
I1
s(g1
I1582
VEntry
p6009
tp6010
I2
s(g1
I627
VImageLoadingInfo
p6011
tp6012
I1
s(g1
I147
Vvalue
p6013
tp6014
I2
s(g1
I376
VString
p6015
tp6016
I1
s(g1
I114
VIOException
p6017
tp6018
I1
s(g1
I211
VmaxFileAge
p6019
tp6020
I1
s(g1
I116
VTotalSizeLimitedDiscCache
p6021
tp6022
I1
s(g1
I1409
VtaskDistributor
p6023
tp6024
I1
s(g1
I281
VUILWidgetProvider
p6025
tp6026
I1
s(g1
I1304
VcreateFileNameGenerator
p6027
tp6028
I1
s(g1
I179
Vtask
p6029
tp6030
I1
s(g1
I841
VimageFile
p6031
tp6032
I1
s(g1
I219
VoldestUsage
p6033
tp6034
I1
s(g1
I694
VcacheDir
p6035
tp6036
I1
s(g1
I1166
Vrun
p6037
tp6038
I1
s(g1
I202
VIntent
p6039
tp6040
I1
s(g1
I1071
VisEmpty
p6041
tp6042
I1
s(g1
I723
VtargetImageSize
p6043
tp6044
I1
s(g1
I648
VsetImageDrawable
p6045
tp6046
I1
s(g1
I691
VHandler
p6047
tp6048
I1
s(g1
I392
Vanim
p6049
tp6050
I1
s(g1
I922
VcopyStream
p6051
tp6052
I1
s(g1
I566
Vscale
p6053
tp6054
I1
s(g1
I97
VconnectTimeout
p6055
tp6056
I1
s(g1
I1150
Voptions
p6057
tp6058
I1
s(g1
I171
VlistView
p6059
tp6060
I1
s(g1
I69
VcontainsKey
p6061
tp6062
I1
s(g1
I160
VIntent
p6063
tp6064
I1
s(g1
I1755
VMemoryCacheUtil
p6065
tp6066
I1
s(g1
I379
VhasExternalPermission
p6067
tp6068
I1
s(g1
I198
VOverride
p6069
tp6070
I1
s(g1
I175
Vkey
p6071
tp6072
I1
s(g1
I601
VmemoryCache
p6073
tp6074
I1
s(g1
I287
VimageStream
p6075
tp6076
I1
s(g1
I262
Vmargin
p6077
tp6078
I1
s(g1
I76
Vhandler
p6079
tp6080
I1
s(g1
I292
VdefaultDisplayImageOptions
p6081
tp6082
I1
s(g1
I154
Vprocessor
p6083
tp6084
I2
s(g1
I118
Vrun
p6085
tp6086
I1
s(g1
I215
VscrollState
p6087
tp6088
I1
s(g1
I67
VfileNameGenerator
p6089
tp6090
I1
s(g1
I184
Vkey
p6091
tp6092
I1
s(g1
I168
Vremove
p6093
tp6094
I1
s(g1
I35
VCROP
p6095
tp6096
I1
s(g1
I76
VinitImageLoader
p6097
tp6098
I1
s(g1
I208
Vtask
p6099
tp6100
I1
s(g1
I113
VgetStream
p6101
tp6102
I1
s(g1
I102
Voptions
p6103
tp6104
I2
s(g1
I113
VFile
p6105
tp6106
I1
s(g1
I798
Vlistener
p6107
tp6108
I2
s(g1
I679
VURI
p6109
tp6110
I1
s(g1
I114
VFile
p6111
tp6112
I1
s(g1
I441
Vbmp
p6113
tp6114
I1
s(g1
I353
VImageSizeUtils
p6115
tp6116
I1
s(g1
I139
VmRect
p6117
tp6118
I2
s(g1
I395
VcacheDir
p6119
tp6120
I1
s(g1
I277
VtaskExecutorForCachedImages
p6121
tp6122
I1
s(g1
I80
Vbundle
p6123
tp6124
I1
s(g1
I86
Vdisplay
p6125
tp6126
I1
s(g1
I296
VMenuItem
p6127
tp6128
I1
s(g1
I184
VappCacheDir
p6129
tp6130
I2
s(g1
I128
Vi
p6131
tp6132
I1
s(g1
I783
VgenerateKey
p6133
tp6134
I1
s(g1
I1156
VimageView
p6135
tp6136
I1
s(g1
I54
VonCreate
p6137
tp6138
I1
s(g1
I115
VJpegClosedInputStream
p6139
tp6140
I1
s(g1
I74
VimageUrls
p6141
tp6142
I1
s(g1
I1717
Vstop
p6143
tp6144
I1
s(g1
I667
Vclose
p6145
tp6146
I1
s(g1
I72
VimageUrls
p6147
tp6148
I1
s(g1
I1259
Vcontext
p6149
tp6150
I1
s(g1
I207
Vclear
p6151
tp6152
I1
s(g1
I768
VL
p6153
tp6154
I1
s(g1
I151
Vview
p6155
tp6156
I1
s(g1
I285
Vin
p6157
tp6158
I2
s(g1
I125
VappCacheDir
p6159
tp6160
I1
s(g1
I527
Vclear
p6161
tp6162
I1
s(g1
I934
VmemoryCache
p6163
tp6164
I1
s(g1
I2081
VimageAware
p6165
tp6166
I1
s(g1
I355
Vbuilder
p6167
tp6168
I1
s(g1
I172
VimageUrls
p6169
tp6170
I1
s(g1
I91
Vcontext
p6171
tp6172
I1
s(g1
I182
Vvalue
p6173
tp6174
I1
s(g1
I636
Voptions
p6175
tp6176
I1
s(g1
I1168
VgetStream
p6177
tp6178
I1
s(g1
I298
Vsaved
p6179
tp6180
I1
s(g1
I397
VimageStream
p6181
tp6182
I1
s(g1
I170
Vvalue
p6183
tp6184
I1
s(g1
I151
Vconfig
p6185
tp6186
I1
s(g1
I699
Vpause
p6187
tp6188
I1
s(g1
I426
Vflip
p6189
tp6190
I1
s(g1
I250
VFile
p6191
tp6192
I1
s(g1
I239
VComplexImageActivity
p6193
tp6194
I1
s(g1
I73
VV
p6195
tp6196
I1
s(g1
I20
VgetInstance
p6197
tp6198
I1
s(g1
I534
VimageUri
p6199
tp6200
I1
s(g1
I419
VLOG_INIT_CONFIG
p6201
tp6202
I1
s(g1
I162
Vcontext
p6203
tp6204
I1
s(g1
I271
VcachedFiles
p6205
tp6206
I1
s(g1
I284
Vinflate
p6207
tp6208
I1
s(g1
I1701
Vwidth
p6209
tp6210
I1
s(g1
I573
VcacheKeyForImageView
p6211
tp6212
I1
s(g1
I928
VThumbnailUtils
p6213
tp6214
I1
s(g1
I79
VsoftMap
p6215
tp6216
I1
s(g1
I376
VgetInputStream
p6217
tp6218
I1
s(g1
I734
VisCacheOnDisc
p6219
tp6220
I1
s(g1
I1619
Vexists
p6221
tp6222
I1
s(g1
I730
VtargetSize
p6223
tp6224
I1
s(g1
I629
VImageSize
p6225
tp6226
I1
s(g1
I1135
Vlistener
p6227
tp6228
I1
s(g1
I33
VgetApplicationContext
p6229
tp6230
I1
s(g1
I49
VcacheDir
p6231
tp6232
I1
s(g1
I95
VmaxCacheSize
p6233
tp6234
I1
s(g1
I147
VImageLoader
p6235
tp6236
I1
s(g1
I373
Voptions
p6237
tp6238
I1
s(g1
I198
Vobject
p6239
tp6240
I1
s(g1
I454
VtargetSize
p6241
tp6242
I1
s(g1
I154
VimageUri
p6243
tp6244
I1
s(g1
I701
VcacheDir
p6245
tp6246
I1
s(g1
I81
VwrappedDownloader
p6247
tp6248
I1
s(g1
I48
VOverride
p6249
tp6250
I3
s(g1
I312
Voptions
p6251
tp6252
I1
s(g1
I75
VimageUri
p6253
tp6254
I2
s(g1
I779
VdecodeOptions
p6255
tp6256
I1
s(g1
I362
VinstantiateItem
p6257
tp6258
I1
s(g1
I504
VimageSize
p6259
tp6260
I1
s(g1
I607
Vdecoder
p6261
tp6262
I1
s(g1
I200
Vcurrent
p6263
tp6264
I1
s(g1
I106
VinputStream
p6265
tp6266
I1
s(g1
I88
VPROTOCOL_HTTPS
p6267
tp6268
I1
s(g1
I126
Vresult
p6269
tp6270
I1
s(g1
I1760
VdenyCacheImageMultipleSizesInMemory
p6271
tp6272
I1
s(g1
I1193
VString
p6273
tp6274
I1
s(g1
I90
VmemoryCacheSize
p6275
tp6276
I1
s(g1
I107
Vprotocol
p6277
tp6278
I1
s(g1
I665
Vuri
p6279
tp6280
I1
s(g1
I53
g1400
tp6281
I11
s(g1
I603
VimageStream
p6282
tp6283
I1
s(g1
I119
VvalueSize
p6284
tp6285
I1
s(g1
I168
VIntent
p6286
tp6287
I1
s(g1
I75
Vbundle
p6288
tp6289
I1
s(g1
I208
VString
p6290
tp6291
I1
s(g1
I27
VmaxCacheSize
p6292
tp6293
I1
s(g1
I261
VcustomExecutor
p6294
tp6295
I1
s(g1
I193
VindividualDir
p6296
tp6297
I1
s(g1
I173
Vkey
p6298
tp6299
I1
s(g1
I1829
VBitmap
p6300
tp6301
I1
s(g1
I214
VBaseAdapter
p6302
tp6303
I1
s(g1
I293
Vequals
p6304
tp6305
I1
s(g1
I757
VimageUriForDecoding
p6306
tp6307
I1
s(g1
I1728
Vwidth
p6308
tp6309
I1
s(g1
I274
VtaskExecutor
p6310
tp6311
I1
s(g1
I105
Vreader
p6312
tp6313
I2
s(g1
I55
VgetExtras
p6314
tp6315
I1
s(g1
I164
VFile
p6316
tp6317
I1
s(g1
I172
VdisplayBitmapTask
p6318
tp6319
I2
s(g1
I40
VDisplayImageOptions
p6320
tp6321
I1
s(g1
I925
VmaxCacheSize
p6322
tp6323
I1
s(g1
I326
Vget
p6324
tp6325
I1
s(g1
I390
VredirectCount
p6326
tp6327
I2
s(g1
I338
VpowerOf2Scale
p6328
tp6329
I1
s(g1
I61
VBundle
p6330
tp6331
I1
s(g1
I416
VResources
p6332
tp6333
I1
s(g1
I883
VimageUriForDecoding
p6334
tp6335
I1
s(g1
I1257
VgetAbsolutePath
p6336
tp6337
I1
s(g1
I310
VOutputStream
p6338
tp6339
I1
s(g1
I61
VgetSize
p6340
tp6341
I1
s(g1
I95
VimageLoadingInfo
p6342
tp6343
I1
s(g1
I1338
VIOException
p6344
tp6345
I2
s(g1
I269
VisShutdown
p6346
tp6347
I1
s(g1
I53
VFile
p6348
tp6349
I2
s(g1
I73
Vbitmap
p6350
tp6351
I1
s(g1
I64
VgetIntent
p6352
tp6353
I1
s(g1
I1458
VimageUrlForDecoding
p6354
tp6355
I1
s(g1
I2410
VclearDiskCache
p6356
tp6357
I1
s(g1
I167
VbelongsTo
p6358
tp6359
I2
s(g1
I221
Vview
p6360
tp6361
I1
s(g1
I98
VimageUri
p6362
tp6363
I1
s(g1
I1898
VHandler
p6364
tp6365
I1
s(g1
I407
Vbitmap
p6366
tp6367
I1
s(g1
I2298
Vnext
p6368
tp6369
I1
s(g1
I217
VString
p6370
tp6371
I1
s(g1
I831
VcachedImageLoadingExecutor
p6372
tp6373
I1
s(g1
I587
Vlock
p6374
tp6375
I1
s(g1
I270
VimageFile
p6376
tp6377
I1
s(g1
I587
VimageView
p6378
tp6379
I1
s(g1
I283
VView
p6380
tp6381
I1
s(g1
I158
Vkey
p6382
tp6383
I1
s(g1
I702
Vdelete
p6384
tp6385
I1
s(g1
I454
Vbmp
p6386
tp6387
I1
s(g1
I114
VsetAdapter
p6388
tp6389
I1
s(g1
I267
Voptions
p6390
tp6391
I1
s(g1
I527
VDrawable
p6392
tp6393
I1
s(g1
I563
VIOException
p6394
tp6395
I1
s(g1
I184
VOverride
p6396
tp6397
I1
s(g1
I23
VcacheDir
p6398
tp6399
I2
s(g1
I153
Vinflater
p6400
tp6401
I1
s(g1
I48
VAppWidgetProvider
p6402
tp6403
I2
s(g1
I847
VContentResolver
p6404
tp6405
I1
s(g1
I239
Vos
p6406
tp6407
I1
s(g1
I1908
VtargetImageSize
p6408
tp6409
I1
s(g1
I940
Vbos
p6410
tp6411
I1
s(g1
I101
VgetExternalStorageDirectory
p6412
tp6413
I1
s(g1
I186
VconvertView
p6414
tp6415
I1
s(g1
I19
VLimitedDiscCache
p6416
tp6417
I2
s(g1
I706
Vengine
p6418
tp6419
I1
s(g1
I49
VimageLoader
p6420
tp6421
I1
s(g1
I247
Vread
p6422
tp6423
I1
s(g1
I1538
VcancelDisplayTaskFor
p6424
tp6425
I1
s(g1
I302
Vis
p6426
tp6427
I2
s(g1
I161
VUnsupportedOperationException
p6428
tp6429
I1
s(g1
I833
Vuri
p6430
tp6431
I1
s(g1
I165
VgetWrappedView
p6432
tp6433
I1
s(g1
I30
VImageLoaderConfiguration
p6434
tp6435
I1
s(g1
I431
VFile
p6436
tp6437
I1
s(g1
I1146
VcacheDir
p6438
tp6439
I1
s(g1
I101
VOverride
p6440
tp6441
I1
s(g1
I184
VimageUrls
p6442
tp6443
I1
s(g1
I960
Vuri
p6444
tp6445
I1
s(g1
I101
Vget
p6446
tp6447
I1
s(g1
I44
VBitmap
p6448
tp6449
I1
s(g1
I463
Vlog
p6450
tp6451
I1
s(g1
I1177
Voptions
p6452
tp6453
I1
s(g1
I173
VString
p6454
tp6455
I1
s(g1
I173
VcachedImageLoadingExecutor
p6456
tp6457
I1
s(g1
I1126
Vcompress
p6458
tp6459
I1
s(g1
I180
Vpager
p6460
tp6461
I1
s(g1
I72
VOverride
p6462
tp6463
I1
s(g1
I216
VisViewWasReused
p6464
tp6465
I1
s(g1
I632
Vdecoder
p6466
tp6467
I1
s(g1
I21
VApplication
p6468
tp6469
I1
s(g1
I99
Vhandler
p6470
tp6471
I1
s(g1
I325
VImageSize
p6472
tp6473
I1
s(g1
I51
VkeyToFileName
p6474
tp6475
I1
s(g1
I90
VgetSupportFragmentManager
p6476
tp6477
I1
s(g1
I192
Vmargin
p6478
tp6479
I2
s(g1
I88
Vkey1
p6480
tp6481
I1
s(g1
I111
VContext
p6482
tp6483
I2
s(g1
I189
VFile
p6484
tp6485
I1
s(g1
I2112
Vengine
p6486
tp6487
I1
s(g1
I171
Vinflater
p6488
tp6489
I1
s(g1
I509
Vbmp
p6490
tp6491
I1
s(g1
I649
Vwidth
p6492
tp6493
I1
s(g1
I232
VBUFFER_SIZE
p6494
tp6495
I1
s(g1
I518
VmemoryCacheKey
p6496
tp6497
I1
s(g1
I646
VUri
p6498
tp6499
I1
s(g1
I99
VmaxAge
p6500
tp6501
I1
s(g1
I270
Vdecode
p6502
tp6503
I1
s(g1
I68
VimageUri
p6504
tp6505
I1
s(g1
I86
VroundBitmap
p6506
tp6507
I1
s(g1
I98
VActivityManager
p6508
tp6509
I1
s(g1
I750
VwaitIfPaused
p6510
tp6511
I1
s(g1
I53
VOverride
p6512
tp6513
I1
s(g1
I734
Voptions
p6514
tp6515
I1
s(g1
I172
VimageDownloader
p6516
tp6517
I1
s(g1
I213
VdiscCacheSize
p6518
tp6519
I1
s(g1
I118
VscaleType
p6520
tp6521
I1
s(g1
I121
VImageLoader
p6522
tp6523
I1
s(g1
I2334
VtoEvict
p6524
tp6525
I1
s(g1
I72
VString
p6526
tp6527
I2
s(g1
I222
VLOG_WAITING
p6528
tp6529
I1
s(g1
I368
VIOException
p6530
tp6531
I1
s(g1
I283
VshaderMatrix
p6532
tp6533
I1
s(g1
I43
VcacheDir
p6534
tp6535
I2
s(g1
I544
Vscale
p6536
tp6537
I1
s(g1
I471
Voptions
p6538
tp6539
I1
s(g1
I561
Vit
p6540
tp6541
I1
s(g1
I175
VBitmap
p6542
tp6543
I1
s(g1
I86
VFile
p6544
tp6545
I1
s(g1
I579
VimageStream
p6546
tp6547
I1
s(g1
I477
Voptions
p6548
tp6549
I1
s(g1
I1972
VwrappedDownloader
p6550
tp6551
I1
s(g1
I113
VL
p6552
tp6553
I1
s(g1
I192
VTO_STRING_MAX_LENGHT
p6554
tp6555
I1
s(g1
I504
VDisplayImageOptions
p6556
tp6557
I1
s(g1
I697
VimageUri
p6558
tp6559
I1
s(g1
I164
Vvalue
p6560
tp6561
I1
s(g1
I72
Vconfiguration
p6562
tp6563
I1
s(g1
I872
VtryCacheImageOnDisc
p6564
tp6565
I1
s(g1
I797
Vis
p6566
tp6567
I1
s(g1
I798
VimageView
p6568
tp6569
I1
s(g1
I204
Vbytes
p6570
tp6571
I1
s(g1
I90
Vqueue
p6572
tp6573
I1
s(g1
I248
VreserveCacheDir
p6574
tp6575
I1
s(g1
I183
VIMAGES
p6576
tp6577
I1
s(g1
I388
VgetInputStream
p6578
tp6579
I2
s(g1
I290
VSlowNetworkImageDownloader
p6580
tp6581
I1
s(g1
I74
VtargetSize
p6582
tp6583
I1
s(g1
I40
Vis
p6584
tp6585
I1
s(g1
I100
VStorageUtils
p6586
tp6587
I1
s(g1
I193
VimageUrls
p6588
tp6589
I1
s(g1
I244
VgetImageViewFieldValue
p6590
tp6591
I1
s(g1
I33
VContext
p6592
tp6593
I1
s(g1
I646
VFile
p6594
tp6595
I1
s(g1
I151
VThread
p6596
tp6597
I1
s(g1
I125
VView
p6598
tp6599
I1
s(g1
I111
VonOptionsItemSelected
p6600
tp6601
I1
s(g1
I164
VbmpRef
p6602
tp6603
I1
s(g1
I1509
Vlistener
p6604
tp6605
I1
s(g1
I1082
VphotoToLoadQueue
p6606
tp6607
I1
s(g1
I386
VImageSize
p6608
tp6609
I1
s(g1
I701
Vexists
p6610
tp6611
I1
s(g1
I88
VFakeImageAware
p6612
tp6613
I1
s(g1
I98
Vimage
p6614
tp6615
I2
s(g1
I792
VDiscCacheAware
p6616
tp6617
I1
s(g1
I502
VtaskExecutor
p6618
tp6619
I1
s(g1
I534
VRunnable
p6620
tp6621
I1
s(g1
I353
VObject
p6622
tp6623
I1
s(g1
I1893
Vr
p6624
tp6625
I1
s(g1
I1312
VdiscCacheFileNameGenerator
p6626
tp6627
I1
s(g1
I72
VViewScaleType
p6628
tp6629
I2
s(g1
I150
Vremove
p6630
tp6631
I1
s(g1
I654
VCENTER
p6632
tp6633
I1
s(g1
I177
VBitmap
p6634
tp6635
I2
s(g1
I115
VIOException
p6636
tp6637
I1
s(g1
I1650
Ve
p6638
tp6639
I1
s(g1
I224
Vposition
p6640
tp6641
I1
s(g1
I224
VBitmapDrawable
p6642
tp6643
I1
s(g1
I1836
VImageSize
p6644
tp6645
I1
s(g1
I687
VLoadAndDisplayImageTask
p6646
tp6647
I1
s(g1
I1735
VcreateMemoryCache
p6648
tp6649
I1
s(g1
I129
VremoveNext
p6650
tp6651
I1
s(g1
I2318
VmaxFileCount
p6652
tp6653
I1
s(g1
I380
VimageLoadingExecutor
p6654
tp6655
I1
s(g1
I84
VString
p6656
tp6657
I3
s(g1
I677
VIOException
p6658
tp6659
I1
s(g1
I822
VBitmap
p6660
tp6661
I1
s(g1
I725
VgetDeclaredField
p6662
tp6663
I1
s(g1
I483
VImageAdapter
p6664
tp6665
I1
s(g1
I129
VpagerPosition
p6666
tp6667
I1
s(g1
I1264
Ve
p6668
tp6669
I1
s(g1
I88
VLinkedList
p6670
tp6671
I1
s(g1
I721
VImageView
p6672
tp6673
I1
s(g1
I816
VindividualCacheDir
p6674
tp6675
I1
s(g1
I543
VfireCallback
p6676
tp6677
I1
s(g1
I927
VIllegalArgumentException
p6678
tp6679
I1
s(g1
I673
Vi
p6680
tp6681
I1
s(g1
I91
VcacheInMemory
p6682
tp6683
I1
s(g1
I786
VgetDisplayer
p6684
tp6685
I1
s(g1
I316
VRunnable
p6686
tp6687
I1
s(g1
I726
VmaxWidthField
p6688
tp6689
I1
s(g1
I1693
VLog
p6690
tp6691
I1
s(g1
I108
VinputStream
p6692
tp6693
I1
s(g1
I1326
Vbitmap
p6694
tp6695
I1
s(g1
I213
Vlistener
p6696
tp6697
I1
s(g1
I172
VimageUri
p6698
tp6699
I1
s(g1
I49
Vconfig
p6700
tp6701
I2
s(g1
I448
VmemoryCacheKey
p6702
tp6703
I1
s(g1
I144
Vuri
p6704
tp6705
I1
s(g1
I2084
VcancelDisplayTask
p6706
tp6707
I1
s(g1
I65
Vscheme
p6708
tp6709
I1
s(g1
I100
VgetIndividualCacheDirectory
p6710
tp6711
I1
s(g1
I13
VOverride
p6712
tp6713
I4
s(g1
I110
VshowImageOnFail
p6714
tp6715
I2
s(g1
I709
VtargetImageSize
p6716
tp6717
I1
s(g1
I299
VdecodingInfo
p6718
tp6719
I1
s(g1
I1693
Ve
p6720
tp6721
I2
s(g1
I146
Vcontext
p6722
tp6723
I1
s(g1
I83
Vextra
p6724
tp6725
I1
s(g1
I778
Vis
p6726
tp6727
I1
s(g1
I395
Ve
p6728
tp6729
I2
s(g1
I299
VDefaultConfigurationFactory
p6730
tp6731
I1
s(g1
I205
VPaint
p6732
tp6733
I2
s(g1
I401
VIoUtils
p6734
tp6735
I2
s(g1
I472
VsyncLoading
p6736
tp6737
I1
s(g1
I265
VcustomExecutorForCachedImages
p6738
tp6739
I1
s(g1
I205
VL
p6740
tp6741
I1
s(g1
I77
Vprotocol
p6742
tp6743
I1
s(g1
I343
VImageSize
p6744
tp6745
I1
s(g1
I96
VHttpResponse
p6746
tp6747
I1
s(g1
I266
Vcontext
p6748
tp6749
I1
s(g1
I183
Vmessage
p6750
tp6751
I1
s(g1
I781
VnewFixedThreadPool
p6752
tp6753
I1
s(g1
I263
VtaskExecutor
p6754
tp6755
I1
s(g1
I118
Vlistener
p6756
tp6757
I1
s(g1
I354
Vresult
p6758
tp6759
I1
s(g1
I36
VString
p6760
tp6761
I1
s(g1
I179
VimageInfo
p6762
tp6763
I1
s(g1
I1503
VimageAware
p6764
tp6765
I1
s(g1
I101
VEnvironment
p6766
tp6767
I1
s(g1
I43
VEnvironment
p6768
tp6769
I1
s(g1
I1504
VgetImageOnFail
p6770
tp6771
I1
s(g1
I2609
Vstop
p6772
tp6773
I1
s(g1
I823
VgetContactPhotoStream
p6774
tp6775
I1
s(g1
I314
VimageUrlForDecoding
p6776
tp6777
I1
s(g1
I268
VFile
p6778
tp6779
I1
s(g1
I80
VDisplayMetrics
p6780
tp6781
I1
s(g1
I79
VString
p6782
tp6783
I1
s(g1
I985
Vsaved
p6784
tp6785
I1
s(g1
I1750
VBitmap
p6786
tp6787
I1
s(g1
I251
Vbmp
p6788
tp6789
I1
s(g1
I788
VopenStream
p6790
tp6791
I1
s(g1
I97
Vdisplayer
p6792
tp6793
I1
s(g1
I674
VMemoryCacheUtil
p6794
tp6795
I1
s(g1
I23
VDisplayMetrics
p6796
tp6797
I1
s(g1
I49
VdenyCacheImageMultipleSizesInMemory
p6798
tp6799
I1
s(g1
I790
VprepareDisplayTaskFor
p6800
tp6801
I1
s(g1
I667
VString
p6802
tp6803
I1
s(g1
I222
VfrIndex
p6804
tp6805
I1
s(g1
I920
VisSDCardVideoUri
p6806
tp6807
I1
s(g1
I35
Vcontext
p6808
tp6809
I1
s(g1
I59
VString
p6810
tp6811
I1
s(g1
I254
VUILWidgetProvider
p6812
tp6813
I2
s(g1
I112
Vequals
p6814
tp6815
I1
s(g1
I845
VimageFile
p6816
tp6817
I1
s(g1
I61
VOverride
p6818
tp6819
I1
s(g1
I637
VImageDecodingInfo
p6820
tp6821
I1
s(g1
I1442
VdisplayBitmapTask
p6822
tp6823
I1
s(g1
I410
VUILActivity
p6824
tp6825
I1
s(g1
I42
VthreadPriority
p6826
tp6827
I1
s(g1
I791
VimageView
p6828
tp6829
I1
s(g1
I19
VStorageUtils
p6830
tp6831
I1
s(g1
I416
VimageFile
p6832
tp6833
I1
s(g1
I58
VgetMD5
p6834
tp6835
I1
s(g1
I446
VL
p6836
tp6837
I1
s(g1
I379
VL
p6838
tp6839
I1
s(g1
I85
Vreference
p6840
tp6841
I1
s(g1
I231
VimageUri
p6842
tp6843
I1
s(g1
I372
Vextra
p6844
tp6845
I2
s(g1
I598
VdecodingInfo
p6846
tp6847
I1
s(g1
I418
Vres
p6848
tp6849
I1
s(g1
I85
VgetSimpleName
p6850
tp6851
I1
s(g1
I212
VcachedImageLoadingExecutor
p6852
tp6853
I1
s(g1
I287
VImageView
p6854
tp6855
I1
s(g1
I429
VtmpFile
p6856
tp6857
I1
s(g1
I524
Vbitmap
p6858
tp6859
I1
s(g1
I350
VsetText
p6860
tp6861
I1
s(g1
I1739
VDefaultConfigurationFactory
p6862
tp6863
I1
s(g1
I950
VThread
p6864
tp6865
I1
s(g1
I690
Vformat
p6866
tp6867
I1
s(g1
I111
VLog
p6868
tp6869
I1
s(g1
I174
VImageGalleryActivity
p6870
tp6871
I1
s(g1
I82
VList
p6872
tp6873
I1
s(g1
I200
VlastUsageDates
p6874
tp6875
I1
s(g1
I339
VDisplayImageOptions
p6876
tp6877
I1
s(g1
I139
VcreateThreadFactory
p6878
tp6879
I1
s(g1
I82
VgetStringArray
p6880
tp6881
I1
s(g1
I442
Vuri
p6882
tp6883
I2
s(g1
I267
VtaskExecutor
p6884
tp6885
I1
s(g1
I434
Vdecoder
p6886
tp6887
I1
s(g1
I163
VBitmap
p6888
tp6889
I1
s(g1
I22
VgetApplicationContext
p6890
tp6891
I1
s(g1
I977
Vheight
p6892
tp6893
I1
s(g1
I47
Vkey
p6894
tp6895
I1
s(g1
I34
VImageLoaderConfiguration
p6896
tp6897
I1
s(g1
I85
VContext
p6898
tp6899
I1
s(g1
I961
VimageView
p6900
tp6901
I1
s(g1
I1281
VcurrentTimeMillis
p6902
tp6903
I1
s(g1
I75
VOverride
p6904
tp6905
I1
s(g1
I387
Vflip
p6906
tp6907
I1
s(g1
I87
VfileNameGenerator
p6908
tp6909
I1
s(g1
I37
VdiscCache
p6910
tp6911
I1
s(g1
I503
VLOG_PREPROCESS_IMAGE
p6912
tp6913
I1
s(g1
I1535
VshouldShowImageResOnFail
p6914
tp6915
I1
s(g1
I94
Vbuffer
p6916
tp6917
I2
s(g1
I259
VimageUri
p6918
tp6919
I1
s(g1
I134
VsoftMap
p6920
tp6921
I1
s(g1
I228
VImageAdapter
p6922
tp6923
I1
s(g1
I214
Vdelete
p6924
tp6925
I1
s(g1
I89
VcacheInMemory
p6926
tp6927
I1
s(g1
I2413
VclearDiscCache
p6928
tp6929
I1
s(g1
I56
VString
p6930
tp6931
I1
s(g1
I718
VimageUriForDecoding
p6932
tp6933
I1
s(g1
I329
VIoUtils
p6934
tp6935
I1
s(g1
I159
VvalueSize
p6936
tp6937
I1
s(g1
I1244
VmemoryCache
p6938
tp6939
I1
s(g1
I212
Vinflater
p6940
tp6941
I1
s(g1
I1316
VDefaultConfigurationFactory
p6942
tp6943
I1
s(g1
I125
VV
p6944
tp6945
I2
s(g1
I224
VStorageUtils
p6946
tp6947
I1
s(g1
I1113
Vos
p6948
tp6949
I1
s(g1
I751
VObject
p6950
tp6951
I1
s(g1
I89
VIOException
p6952
tp6953
I2
s(g1
I657
VLong
p6954
tp6955
I1
s(g1
I112
VimageUrl
p6956
tp6957
I1
s(g1
I1485
VfailType
p6958
tp6959
I1
s(g1
I154
VThread
p6960
tp6961
I1
s(g1
I27
VOverride
p6962
tp6963
I1
s(g1
I168
VhardCache
p6964
tp6965
I1
s(g1
I888
Vbitmap
p6966
tp6967
I1
s(g1
I320
VListView
p6968
tp6969
I1
s(g1
I224
VisImageCachedOnDisc
p6970
tp6971
I1
s(g1
I97
VOverride
p6972
tp6973
I2
s(g1
I468
Voptions
p6974
tp6975
I1
s(g1
I203
VView
p6976
tp6977
I1
s(g1
I95
VimageView
p6978
tp6979
I1
s(g1
I642
VString
p6980
tp6981
I1
s(g1
I332
VfailReason
p6982
tp6983
I1
s(g1
I106
VgetScheme
p6984
tp6985
I1
s(g1
I2103
VImageView
p6986
tp6987
I1
s(g1
I219
VgetHeight
p6988
tp6989
I1
s(g1
I134
VloggingEnabled
p6990
tp6991
I1
s(g1
I83
Vreader
p6992
tp6993
I2
s(g1
I1343
Vbmp
p6994
tp6995
I2
s(g1
I121
VresponseBody
p6996
tp6997
I1
s(g1
I37
VwrappedDownloader
p6998
tp6999
I1
s(g1
I102
Vcontext
p7000
tp7001
I3
s(g1
I176
VgetSizeLimit
p7002
tp7003
I1
s(g1
I224
Vcontext
p7004
tp7005
I2
s(g1
I627
VresetStream
p7006
tp7007
I1
s(g1
I236
Vbuffer
p7008
tp7009
I1
s(g1
I171
VOverride
p7010
tp7011
I1
s(g1
I1609
Veditor
p7012
tp7013
I2
s(g1
I1170
VimageDownloader
p7014
tp7015
I1
s(g1
I49
VReference
p7016
tp7017
I1
s(g1
I185
VgetWidth
p7018
tp7019
I1
s(g1
I871
VImageSizeUtils
p7020
tp7021
I1
s(g1
I1995
VInputStream
p7022
tp7023
I1
s(g1
I1701
Vresume
p7024
tp7025
I1
s(g1
I86
VshowStubImage
p7026
tp7027
I3
s(g1
I121
VindividualCacheDir
p7028
tp7029
I1
s(g1
I1153
VgetDownloader
p7030
tp7031
I1
s(g1
I160
VString
p7032
tp7033
I1
s(g1
I1119
VimageLoadingInfo
p7034
tp7035
I1
s(g1
I695
Vlistener
p7036
tp7037
I1
s(g1
I209
Vsubmit
p7038
tp7039
I1
s(g1
I342
VmemoryCacheSize
p7040
tp7041
I1
s(g1
I838
VimageFile
p7042
tp7043
I1
s(g1
I56
VonCreate
p7044
tp7045
I2
s(g1
I391
VIOException
p7046
tp7047
I1
s(g1
I271
VsetPriority
p7048
tp7049
I1
s(g1
I47
VK
p7050
tp7051
I1
s(g1
I471
VimageView
p7052
tp7053
I1
s(g1
I374
VOverride
p7054
tp7055
I1
s(g1
I310
VLRULimitedMemoryCache
p7056
tp7057
I1
s(g1
I83
Vbuffer
p7058
tp7059
I2
s(g1
I33
Vn
p7060
tp7061
I1
s(g1
I193
Vbytes
p7062
tp7063
I1
s(g1
I506
VIOException
p7064
tp7065
I2
s(g1
I761
VloggingEnabled
p7066
tp7067
I1
s(g1
I123
VOverride
p7068
tp7069
I2
s(g1
I393
VString
p7070
tp7071
I1
s(g1
I695
Vconn
p7072
tp7073
I1
s(g1
I113
Vcontext
p7074
tp7075
I2
s(g1
I151
Vviews
p7076
tp7077
I1
s(g1
I364
VgetHeight
p7078
tp7079
I1
s(g1
I119
VgalleryPosition
p7080
tp7081
I1
s(g1
I115
VcachedFile
p7082
tp7083
I1
s(g1
I244
VgetWidth
p7084
tp7085
I1
s(g1
I45
VtargetSize
p7086
tp7087
I1
s(g1
I122
Voptions
p7088
tp7089
I1
s(g1
I582
VremoveFromQueue
p7090
tp7091
I1
s(g1
I282
VInputStream
p7092
tp7093
I2
s(g1
I16
VCROP
p7094
tp7095
I1
s(g1
I104
VInputStream
p7096
tp7097
I1
s(g1
I247
Vhandler
p7098
tp7099
I1
s(g1
I291
VOverride
p7100
tp7101
I1
s(g1
I446
Ve
p7102
tp7103
I2
s(g1
I1516
VRunnable
p7104
tp7105
I1
s(g1
I26
VDiscCache
p7106
tp7107
I1
s(g1
I252
Vengine
p7108
tp7109
I1
s(g1
I49
VthreadPoolSize
p7110
tp7111
I1
s(g1
I1147
VsaveImageOnDisc
p7112
tp7113
I1
s(g1
I1063
VphotoToLoadQueue
p7114
tp7115
I1
s(g1
I153
Vresult
p7116
tp7117
I1
s(g1
I393
VgetSize
p7118
tp7119
I1
s(g1
I2329
VlruEntries
p7120
tp7121
I1
s(g1
I44
VHashMap
p7122
tp7123
I1
s(g1
I418
Vpaused
p7124
tp7125
I1
s(g1
I99
VgetStreamFromNetwork
p7126
tp7127
I1
s(g1
I79
Vbundle
p7128
tp7129
I1
s(g1
I2431
VcheckConfiguration
p7130
tp7131
I1
s(g1
I723
Vbitmap
p7132
tp7133
I1
s(g1
I249
VcacheInMemory
p7134
tp7135
I1
s(g1
I112
VimageSize
p7136
tp7137
I1
s(g1
I88
VshowImageOnFail
p7138
tp7139
I1
s(g1
I276
VflingOptions
p7140
tp7141
I1
s(g1
I1895
VRunnable
p7142
tp7143
I1
s(g1
I1432
Vformat
p7144
tp7145
I1
s(g1
I232
Vlistener
p7146
tp7147
I1
s(g1
I1442
Vf
p7148
tp7149
I1
s(g1
I46
Vconfig
p7150
tp7151
I2
s(g1
I529
VBitmap
p7152
tp7153
I1
s(g1
I340
Vview
p7154
tp7155
I1
s(g1
I379
VObject
p7156
tp7157
I1
s(g1
I112
VbytesPastEnd
p7158
tp7159
I1
s(g1
I55
VString
p7160
tp7161
I1
s(g1
I182
VString
p7162
tp7163
I1
s(g1
I518
Vvalue
p7164
tp7165
I1
s(g1
I79
Vengine
p7166
tp7167
I1
s(g1
I299
VcacheDir
p7168
tp7169
I1
s(g1
I389
VimageUri
p7170
tp7171
I2
s(g1
I1118
VcacheDir
p7172
tp7173
I1
s(g1
I365
VloggingEnabled
p7174
tp7175
I1
s(g1
I97
VBitmap
p7176
tp7177
I1
s(g1
I449
Vlog
p7178
tp7179
I1
s(g1
I135
VappWidgetManager
p7180
tp7181
I1
s(g1
I75
VInputStream
p7182
tp7183
I1
s(g1
I409
VIOException
p7184
tp7185
I1
s(g1
I1272
VFileOutputStream
p7186
tp7187
I1
s(g1
I1392
VdecodeImage
p7188
tp7189
I1
s(g1
I23
VonCreate
p7190
tp7191
I1
s(g1
I622
VImageSize
p7192
tp7193
I1
s(g1
I162
Vscale
p7194
tp7195
I1
s(g1
I415
VimageUri
p7196
tp7197
I1
s(g1
I152
VdisplayOptions
p7198
tp7199
I2
s(g1
I109
VimageUri
p7200
tp7201
I1
s(g1
I97
Vget
p7202
tp7203
I3
s(g1
I29
VgetApplicationContext
p7204
tp7205
I1
s(g1
I149
VView
p7206
tp7207
I2
s(g1
I1608
Ventry
p7208
tp7209
I2
s(g1
I35
VDiscCacheAware
p7210
tp7211
I1
s(g1
I1310
Vengine
p7212
tp7213
I1
s(g1
I83
Vread
p7214
tp7215
I2
s(g1
I113
VbyteStream
p7216
tp7217
I1
s(g1
I1316
VdiscCacheSize
p7218
tp7219
I1
s(g1
I333
VImageSize
p7220
tp7221
I1
s(g1
I389
VimageStream
p7222
tp7223
I3
s(g1
I386
VdiscCache
p7224
tp7225
I1
s(g1
I869
VisCacheOnDisc
p7226
tp7227
I1
s(g1
I64
VString
p7228
tp7229
I3
s(g1
I758
VsetImageBitmap
p7230
tp7231
I1
s(g1
I52
VfileName
p7232
tp7233
I1
s(g1
I58
VcacheDir
p7234
tp7235
I1
s(g1
I76
VgalleryPosition
p7236
tp7237
I1
s(g1
I1190
Vget
p7238
tp7239
I1
s(g1
I185
VOverride
p7240
tp7241
I1
s(g1
I154
Vbitmap
p7242
tp7243
I2
s(g1
I192
Vholder
p7244
tp7245
I1
s(g1
I82
Vitem
p7246
tp7247
I1
s(g1
I557
Vit
p7248
tp7249
I1
s(g1
I966
VtargetFile
p7250
tp7251
I1
s(g1
I81
VgalleryPosition
p7252
tp7253
I1
s(g1
I222
VContext
p7254
tp7255
I1
s(g1
I2315
VIOException
p7256
tp7257
I1
s(g1
I77
VimageSize
p7258
tp7259
I1
s(g1
I381
Vextra
p7260
tp7261
I1
s(g1
I438
VIOException
p7262
tp7263
I1
s(g1
I459
VmostLongUsedFile
p7264
tp7265
I1
s(g1
I712
VL
p7266
tp7267
I1
s(g1
I48
VLong
p7268
tp7269
I1
s(g1
I83
VgetApplicationContext
p7270
tp7271
I1
s(g1
I1471
Voptions
p7272
tp7273
I1
s(g1
I58
VgetIntent
p7274
tp7275
I1
s(g1
I195
Vappend
p7276
tp7277
I1
s(g1
I632
Vdecode
p7278
tp7279
I1
s(g1
I189
VbyteCount
p7280
tp7281
I1
s(g1
I1739
VmemoryCacheSize
p7282
tp7283
I1
s(g1
I243
VshowImageForEmptyUri
p7284
tp7285
I1
s(g1
I69
VString
p7286
tp7287
I1
s(g1
I473
VgetSize
p7288
tp7289
I1
s(g1
I31
VString
p7290
tp7291
I2
s(g1
I149
VcacheOnDisc
p7292
tp7293
I1
s(g1
I278
Vmenu
p7294
tp7295
I1
s(g1
I151
VLayoutInflater
p7296
tp7297
I1
s(g1
I200
VView
p7298
tp7299
I1
s(g1
I554
VsubsampledBitmap
p7300
tp7301
I1
s(g1
I1881
Vuri
p7302
tp7303
I1
s(g1
I1294
VSystem
p7304
tp7305
I1
s(g1
I225
Vfos
p7306
tp7307
I1
s(g1
I257
VcachedFile
p7308
tp7309
I1
s(g1
I108
VBitmap
p7310
tp7311
I1
s(g1
I181
Vparent
p7312
tp7313
I1
s(g1
I453
VoldestUsage
p7314
tp7315
I1
s(g1
I450
VimageAware
p7316
tp7317
I1
s(g1
I336
VreserveCacheDir
p7318
tp7319
I1
s(g1
I199
VstartImagePagerActivity
p7320
tp7321
I1
s(g1
I179
VstrokeColor
p7322
tp7323
I1
s(g1
I682
VHttpURLConnection
p7324
tp7325
I1
s(g1
I1228
VgetLockForUri
p7326
tp7327
I1
s(g1
I39
VappCacheDir
p7328
tp7329
I1
s(g1
I118
Vit
p7330
tp7331
I1
s(g1
I1532
VimageView
p7332
tp7333
I1
s(g1
I100
Vcontext
p7334
tp7335
I1
s(g1
I100
VshowImageForEmptyUri
p7336
tp7337
I3
s(g1
I381
VsetVisibility
p7338
tp7339
I1
s(g1
I504
Vextra
p7340
tp7341
I2
s(g1
I1128
Vbitmap
p7342
tp7343
I1
s(g1
I76
VReference
p7344
tp7345
I1
s(g1
I256
Voptions
p7346
tp7347
I1
s(g1
I490
VscaleType
p7348
tp7349
I1
s(g1
I388
VimageUri
p7350
tp7351
I1
s(g1
I79
VIOException
p7352
tp7353
I1
s(g1
I138
VisViewWasReused
p7354
tp7355
I1
s(g1
I669
Vbos
p7356
tp7357
I1
s(g1
I99
Vengine
p7358
tp7359
I1
s(g1
I145
Vs
p7360
tp7361
I1
s(g1
I437
VisLargeHeap
p7362
tp7363
I1
s(g1
I100
VContext
p7364
tp7365
I1
s(g1
I116
Vbitmap
p7366
tp7367
I2
s(g1
I187
VSEPARATOR
p7368
tp7369
I1
s(g1
I48
VFile
p7370
tp7371
I1
s(g1
I709
Vwidth
p7372
tp7373
I1
s(g1
I2022
VgetStream
p7374
tp7375
I1
s(g1
I450
VlastValueUsage
p7376
tp7377
I1
s(g1
I232
VcopyStream
p7378
tp7379
I1
s(g1
I277
Vuri
p7380
tp7381
I1
s(g1
I366
Vcopied
p7382
tp7383
I1
s(g1
I970
VURISyntaxException
p7384
tp7385
I1
s(g1
I407
VimageOnLoading
p7386
tp7387
I1
s(g1
I1520
Vlistener
p7388
tp7389
I1
s(g1
I77
VFile
p7390
tp7391
I1
s(g1
I111
VObject
p7392
tp7393
I1
s(g1
I253
VL
p7394
tp7395
I1
s(g1
I87
VsetAdapter
p7396
tp7397
I1
s(g1
I41
VListActivity
p7398
tp7399
I1
s(g1
I1172
Vheight
p7400
tp7401
I1
s(g1
I1700
VSystem
p7402
tp7403
I1
s(g1
I146
Vkey
p7404
tp7405
I2
s(g1
I373
VBufferedInputStream
p7406
tp7407
I1
s(g1
I971
VBuilder
p7408
tp7409
I1
s(g1
I370
Vget
p7410
tp7411
I2
s(g1
I2641
VL
p7412
tp7413
I1
s(g1
I66
Vbundle
p7414
tp7415
I1
s(g1
I48
VconnectTimeout
p7416
tp7417
I2
s(g1
I896
VtargetSize
p7418
tp7419
I1
s(g1
I319
VbufferSize
p7420
tp7421
I1
s(g1
I928
VimageUri
p7422
tp7423
I1
s(g1
I394
VStorageUtils
p7424
tp7425
I1
s(g1
I820
VTaskCancelledException
p7426
tp7427
I1
s(g1
I216
VObject
p7428
tp7429
I1
s(g1
I680
Vurl
p7430
tp7431
I1
s(g1
I642
VgetContentResolver
p7432
tp7433
I1
s(g1
I469
VimageView
p7434
tp7435
I1
s(g1
I1189
Vlistener
p7436
tp7437
I1
s(g1
I78
VLimitedAgeDiscCache
p7438
tp7439
I1
s(g1
I112
VconsiderExifParams
p7440
tp7441
I2
s(g1
I129
VisEqualTo
p7442
tp7443
I1
s(g1
I39
Vboolean
p7444
tp7445
I48
s(g1
I739
Vd
p7446
tp7447
I1
s(g1
I526
Vurl
p7448
tp7449
I1
s(g1
I395
VsetText
p7450
tp7451
I1
s(g1
I1141
Vexists
p7452
tp7453
I1
s(g1
I1912
Vrun
p7454
tp7455
I1
s(g1
I79
VBundle
p7456
tp7457
I1
s(g1
I199
Vtask
p7458
tp7459
I1
s(g1
I1268
Ve
p7460
tp7461
I2
s(g1
I318
VimageViewWasReused
p7462
tp7463
I1
s(g1
I88
VcacheInMemory
p7464
tp7465
I1
s(g1
I300
VSimpleImageLoadingListener
p7466
tp7467
I1
s(g1
I1144
VMemoryCacheKeyUtil
p7468
tp7469
I1
s(g1
I147
Vinflater
p7470
tp7471
I1
s(g1
I58
VString
p7472
tp7473
I2
s(g1
I254
Vexecute
p7474
tp7475
I1
s(g1
I106
VshowImageOnFail
p7476
tp7477
I1
s(g1
I76
VcacheDir
p7478
tp7479
I1
s(g1
I84
VgetExtras
p7480
tp7481
I1
s(g1
I92
VOverride
p7482
tp7483
I1
s(g1
I20
VString
p7484
tp7485
I1
s(g1
I400
Vremove
p7486
tp7487
I1
s(g1
I289
VonCreateOptionsMenu
p7488
tp7489
I1
s(g1
I536
Vr
p7490
tp7491
I1
s(g1
I209
VmarkSupported
p7492
tp7493
I1
s(g1
I346
VtaskQueue
p7494
tp7495
I1
s(g1
I117
VimageLoader
p7496
tp7497
I1
s(g1
I82
VgetIntent
p7498
tp7499
I1
s(g1
I379
VgetAttributeInt
p7500
tp7501
I1
s(g1
I29
Vwidth
p7502
tp7503
I1
s(g1
I43
Vn
p7504
tp7505
I1
s(g1
I370
Vcxt
p7506
tp7507
I1
s(g1
I393
VIOException
p7508
tp7509
I2
s(g1
I210
Vkey
p7510
tp7511
I1
s(g1
I648
VimageAware
p7512
tp7513
I1
s(g1
I406
VERROR_INIT_CONFIG_WITH_NULL
p7514
tp7515
I1
s(g1
I283
VtaskExecutorForCachedImages
p7516
tp7517
I1
s(g1
I333
VViewScaleType
p7518
tp7519
I1
s(g1
I1523
VImageView
p7520
tp7521
I1
s(g1
I2077
VimageAware
p7522
tp7523
I1
s(g1
I115
Voptions
p7524
tp7525
I1
s(g1
I424
VImageAdapter
p7526
tp7527
I1
s(g1
I452
VPOWER_OF_2
p7528
tp7529
I1
s(g1
I284
VcacheDir
p7530
tp7531
I1
s(g1
I107
VgetApplicationContext
p7532
tp7533
I1
s(g1
I1189
VonLoadingFailed
p7534
tp7535
I1
s(g1
I65
VURI
p7536
tp7537
I2
s(g1
I147
VhardCache
p7538
tp7539
I1
s(g1
I241
Vfile
p7540
tp7541
I1
s(g1
I734
VgetStreamFromOtherSource
p7542
tp7543
I1
s(g1
I78
VimageUri
p7544
tp7545
I1
s(g1
I316
Vresult
p7546
tp7547
I1
s(g1
I410
Vconn
p7548
tp7549
I1
s(g1
I450
VoldestUsage
p7550
tp7551
I1
s(g1
I245
VHandler
p7552
tp7553
I1
s(g1
I790
Vengine
p7554
tp7555
I1
s(g1
I244
VsetFilterBitmap
p7556
tp7557
I1
s(g1
I480
VcomputeImageSampleSize
p7558
tp7559
I1
s(g1
I1135
VBuilder
p7560
tp7561
I1
s(g1
I285
VimageView
p7562
tp7563
I1
s(g1
I185
VArrayList
p7564
tp7565
I1
s(g1
I198
Vappend
p7566
tp7567
I1
s(g1
I59
VcacheDir
p7568
tp7569
I1
s(g1
I293
Vview
p7570
tp7571
I1
s(g1
I146
VonDestroy
p7572
tp7573
I1
s(g1
I691
VImageDecoder
p7574
tp7575
I1
s(g1
I854
VImageView
p7576
tp7577
I1
s(g1
I978
VtaskExecutor
p7578
tp7579
I1
s(g1
I222
VInputStream
p7580
tp7581
I1
s(g1
I194
VFile
p7582
tp7583
I1
s(g1
I184
VputExtra
p7584
tp7585
I1
s(g1
I841
Vexists
p7586
tp7587
I1
s(g1
I794
Ve
p7588
tp7589
I1
s(g1
I146
Vget
p7590
tp7591
I1
s(g1
I1326
VgetDownloader
p7592
tp7593
I1
s(g1
I369
Vlistener
p7594
tp7595
I1
s(g1
I551
VPhotoToLoad
p7596
tp7597
I1
s(g1
I149
VlastUsageDates
p7598
tp7599
I1
s(g1
I135
VoutState
p7600
tp7601
I1
s(g1
I211
VgetWrappedView
p7602
tp7603
I1
s(g1
I81
VObject
p7604
tp7605
I1
s(g1
I1423
Vi
p7606
tp7607
I1
s(g1
I1127
VcompressedSuccessfully
p7608
tp7609
I1
s(g1
I66
Vuri
p7610
tp7611
I1
s(g1
I66
VOverride
p7612
tp7613
I1
s(g1
I127
VLimitedMemoryCache
p7614
tp7615
I1
s(g1
I20
VImageLoader
p7616
tp7617
I1
s(g1
I45
VFileCountLimitedDiscCache
p7618
tp7619
I1
s(g1
I193
VsetLayoutParams
p7620
tp7621
I1
s(g1
I165
Vcontext
p7622
tp7623
I1
s(g1
I412
Vconfiguration
p7624
tp7625
I1
s(g1
I82
Vcontext
p7626
tp7627
I1
s(g1
I127
Vbounds
p7628
tp7629
I2
s(g1
I386
VcacheKeysForImageViews
p7630
tp7631
I1
s(g1
I196
VconvertView
p7632
tp7633
I1
s(g1
I145
VBundle
p7634
tp7635
I1
s(g1
I86
Vput
p7636
tp7637
I1
s(g1
I65
VBigInteger
p7638
tp7639
I1
s(g1
I386
Vextra
p7640
tp7641
I1
s(g1
I1882
Vd
p7642
tp7643
I1
s(g1
I1639
VLog
p7644
tp7645
I1
s(g1
I1117
VWARNING_DISC_CACHE_ALREADY_SET
p7646
tp7647
I1
s(g1
I1931
Vsync
p7648
tp7649
I1
s(g1
I146
VresetViewBeforeLoading
p7650
tp7651
I1
s(g1
I874
Vuri
p7652
tp7653
I1
s(g1
I372
Vos
p7654
tp7655
I1
s(g1
I961
Voptions
p7656
tp7657
I1
s(g1
I130
VonBoundsChange
p7658
tp7659
I2
s(g1
I400
VmemoryCacheSize
p7660
tp7661
I1
s(g1
I13
VDiscCacheAware
p7662
tp7663
I1
s(g1
I172
VgetExtraForDownloader
p7664
tp7665
I2
s(g1
I48
VmemoryCacheSize
p7666
tp7667
I1
s(g1
I555
VsrcHeight
p7668
tp7669
I1
s(g1
I1907
Vconfiguration
p7670
tp7671
I1
s(g1
I926
Vwidth
p7672
tp7673
I1
s(g1
I76
Voptions
p7674
tp7675
I1
s(g1
I529
VfilePath
p7676
tp7677
I2
s(g1
I1351
Vbmp
p7678
tp7679
I1
s(g1
I452
VcomputeMinImageSampleSize
p7680
tp7681
I1
s(g1
I1294
Vdecoder
p7682
tp7683
I1
s(g1
I374
VisShutdown
p7684
tp7685
I1
s(g1
I365
VimageStream
p7686
tp7687
I1
s(g1
I310
VsetImageDrawableInto
p7688
tp7689
I1
s(g1
I143
VScheme
p7690
tp7691
I1
s(g1
I1692
Vpause
p7692
tp7693
I1
s(g1
I87
VMatrix
p7694
tp7695
I1
s(g1
I669
VisShowStubImage
p7696
tp7697
I1
s(g1
I198
VRunnable
p7698
tp7699
I1
s(g1
I1112
VimageLoadingInfo
p7700
tp7701
I1
s(g1
I97
VcreateFileNameGenerator
p7702
tp7703
I1
s(g1
I46
VTotalSizeLimitedDiscCache
p7704
tp7705
I1
s(g1
I90
VUri
p7706
tp7707
I1
s(g1
I201
VbitmapShader
p7708
tp7709
I3
s(g1
I88
VDiscCacheUtil
p7710
tp7711
I1
s(g1
I180
VgetStringArray
p7712
tp7713
I1
s(g1
I122
VcacheSize
p7714
tp7715
I1
s(g1
I356
VonLoadingStarted
p7716
tp7717
I1
s(g1
I144
VL
p7718
tp7719
I1
s(g1
I153
VroundPixels
p7720
tp7721
I1
s(g1
I675
VimageView
p7722
tp7723
I1
s(g1
I1296
VImageDownloader
p7724
tp7725
I1
s(g1
I184
VFile
p7726
tp7727
I1
s(g1
I169
Vpager
p7728
tp7729
I1
s(g1
I730
VString
p7730
tp7731
I1
s(g1
I63
VsavedInstanceState
p7732
tp7733
I1
s(g1
I88
Vbundle
p7734
tp7735
I2
s(g1
I646
Vresult
p7736
tp7737
I1
s(g1
I108
VArrays
p7738
tp7739
I1
s(g1
I207
Vmeasure
p7740
tp7741
I1
s(g1
I561
VdecodingInfo
p7742
tp7743
I2
s(g1
I502
VObject
p7744
tp7745
I2
s(g1
I187
VString
p7746
tp7747
I2
s(g1
I218
VimageView
p7748
tp7749
I1
s(g1
I738
Vlog
p7750
tp7751
I1
s(g1
I111
VImagePagerAdapter
p7752
tp7753
I1
s(g1
I517
Vdecoder
p7754
tp7755
I1
s(g1
I83
VappCacheDir
p7756
tp7757
I1
s(g1
I206
VtoString
p7758
tp7759
I1
s(g1
I1908
Vengine
p7760
tp7761
I1
s(g1
I79
VUnlimitedDiscCache
p7762
tp7763
I1
s(g1
I229
VView
p7764
tp7765
I1
s(g1
I94
VFile
p7766
tp7767
I1
s(g1
I100
VOverride
p7768
tp7769
I1
s(g1
I183
VBitmapFactory
p7770
tp7771
I1
s(g1
I63
VInputStream
p7772
tp7773
I1
s(g1
I2632
VHandler
p7774
tp7775
I1
s(g1
I1237
VIllegalArgumentException
p7776
tp7777
I1
s(g1
I1683
VOutOfMemoryError
p7778
tp7779
I1
s(g1
I430
VgetImageForEmptyUri
p7780
tp7781
I1
s(g1
I1430
VString
p7782
tp7783
I1
s(g1
I170
VdisplayImageThreadFactory
p7784
tp7785
I1
s(g1
I42
VImageView
p7786
tp7787
I1
s(g1
I180
VsetCurrentItem
p7788
tp7789
I1
s(g1
I326
Vurl
p7790
tp7791
I1
s(g1
I191
Vcontext
p7792
tp7793
I1
s(g1
I642
Vcontext
p7794
tp7795
I1
s(g1
I633
VimageView
p7796
tp7797
I1
s(g1
I56
VoptionsWithFakeDisplayer
p7798
tp7799
I1
s(g1
I239
VsetShader
p7800
tp7801
I1
s(g1
I242
Vtext
p7802
tp7803
I1
s(g1
I169
VappCacheDir
p7804
tp7805
I1
s(g1
I906
VgetContext
p7806
tp7807
I1
s(g1
I1739
VcreateMemoryCache
p7808
tp7809
I1
s(g1
I101
Vlistener
p7810
tp7811
I1
s(g1
I66
VURI
p7812
tp7813
I1
s(g1
I384
VconnectTo
p7814
tp7815
I1
s(g1
I1117
Vw
p7816
tp7817
I1
s(g1
I60
Vbytes
p7818
tp7819
I1
s(g1
I2621
Vengine
p7820
tp7821
I1
s(g1
I927
Vclose
p7822
tp7823
I1
s(g1
I132
Vget
p7824
tp7825
I1
s(g1
I786
VLOG_LOAD_IMAGE_FROM_MEMORY_CACHE
p7826
tp7827
I1
s(g1
I1386
VimageLoadingExecutor
p7828
tp7829
I1
s(g1
I672
VString
p7830
tp7831
I1
s(g1
I1454
VfireProgressEvent
p7832
tp7833
I1
s(g1
I42
VonCreateOptionsMenu
p7834
tp7835
I1
s(g1
I718
VclearDiscCache
p7836
tp7837
I1
s(g1
I277
VimageViewRef
p7838
tp7839
I1
s(g1
I660
Vres
p7840
tp7841
I1
s(g1
I41
VOverride
p7842
tp7843
I2
s(g1
I203
VInputStream
p7844
tp7845
I1
s(g1
I1440
VString
p7846
tp7847
I1
s(g1
I76
Vconn
p7848
tp7849
I1
s(g1
I103
VString
p7850
tp7851
I1
s(g1
I976
VtargetFile
p7852
tp7853
I1
s(g1
I244
VimageView
p7854
tp7855
I1
s(g1
I376
VredirectCount
p7856
tp7857
I2
s(g1
I180
VgetImageStream
p7858
tp7859
I1
s(g1
I48
VdenyCacheImageMultipleSizesInMemory
p7860
tp7861
I1
s(g1
I188
VArrayList
p7862
tp7863
I1
s(g1
I90
VgetStream
p7864
tp7865
I1
s(g1
I1169
Vis
p7866
tp7867
I1
s(g1
I67
VsizeLimit
p7868
tp7869
I1
s(g1
I878
VcheckTaskIsNotActual
p7870
tp7871
I1
s(g1
I1124
VfileNameGenerator
p7872
tp7873
I1
s(g1
I2625
Vconfiguration
p7874
tp7875
I1
s(g1
I927
Vos
p7876
tp7877
I1
s(g1
I1987
VimageUri
p7878
tp7879
I1
s(g1
I77
VFileNameGenerator
p7880
tp7881
I1
s(g1
I93
VgetCacheDir
p7882
tp7883
I1
s(g1
I960
Vengine
p7884
tp7885
I1
s(g1
I84
VsoftMap
p7886
tp7887
I1
s(g1
I318
VMemoryCacheAware
p7888
tp7889
I1
s(g1
I833
Vget
p7890
tp7891
I1
s(g1
I140
VgetStreamFromFile
p7892
tp7893
I1
s(g1
I88
VgetExtras
p7894
tp7895
I2
s(g1
I540
VViewScaleType
p7896
tp7897
I1
s(g1
I441
VimageView
p7898
tp7899
I1
s(g1
I107
VString
p7900
tp7901
I1
s(g1
I52
VwrappedDownloader
p7902
tp7903
I1
s(g1
I211
VimageAware
p7904
tp7905
I1
s(g1
I85
VgetResources
p7906
tp7907
I1
s(g1
I219
VContext
p7908
tp7909
I1
s(g1
I219
Vinflater
p7910
tp7911
I1
s(g1
I193
VloadedFrom
p7912
tp7913
I1
s(g1
I157
Vt
p7914
tp7915
I1
s(g1
I1264
VmemClass
p7916
tp7917
I1
s(g1
I172
VcacheSize
p7918
tp7919
I1
s(g1
I265
Voffset
p7920
tp7921
I1
s(g1
I326
VTest
p7922
tp7923
I1
s(g1
I1304
VDefaultConfigurationFactory
p7924
tp7925
I1
s(g1
I2614
Vstop
p7926
tp7927
I1
s(g1
I783
Vclose
p7928
tp7929
I1
s(g1
I1178
VimageView
p7930
tp7931
I1
s(g1
I58
Vclient
p7932
tp7933
I1
s(g1
I738
VgetMemoryCacheKey
p7934
tp7935
I1
s(g1
I60
VsavedInstanceState
p7936
tp7937
I1
s(g1
I50
VURI
p7938
tp7939
I1
s(g1
I949
VLog
p7940
tp7941
I1
s(g1
I965
VLoadAndDisplayImageTask
p7942
tp7943
I1
s(g1
I119
VgetInt
p7944
tp7945
I1
s(g1
I243
VlistFiles
p7946
tp7947
I1
s(g1
I237
VimageLayout
p7948
tp7949
I1
s(g1
I265
Vbounds
p7950
tp7951
I1
s(g1
I196
VString
p7952
tp7953
I1
s(g1
I96
Vcloseable
p7954
tp7955
I1
s(g1
I94
Vcount
p7956
tp7957
I2
s(g1
I255
VLayoutInflater
p7958
tp7959
I1
s(g1
I247
VimageStream
p7960
tp7961
I1
s(g1
I660
Vlistener
p7962
tp7963
I2
s(g1
I1842
Voptions
p7964
tp7965
I1
s(g1
I364
VImageLoadingInfo
p7966
tp7967
I1
s(g1
I73
VString
p7968
tp7969
I1
s(g1
I178
Vinflater
p7970
tp7971
I1
s(g1
I362
VphotoToLoad
p7972
tp7973
I1
s(g1
I58
VBundle
p7974
tp7975
I1
s(g1
I128
VL
p7976
tp7977
I2
s(g1
I290
Vquality
p7978
tp7979
I1
s(g1
I1904
Vhandler
p7980
tp7981
I1
s(g1
I165
VdisplayOptions
p7982
tp7983
I1
s(g1
I877
VassertThat
p7984
tp7985
I1
s(g1
I920
Vuri
p7986
tp7987
I1
s(g1
I1330
VmemoryCache
p7988
tp7989
I1
s(g1
I107
Vlistener
p7990
tp7991
I1
s(g1
I220
VcachedImageLoadingExecutor
p7992
tp7993
I1
s(g1
I204
VcacheSize
p7994
tp7995
I1
s(g1
I171
VDiscCacheAware
p7996
tp7997
I1
s(g1
I1688
VReentrantLock
p7998
tp7999
I1
s(g1
I508
Ve
p8000
tp8001
I1
s(g1
I1900
Vsync
p8002
tp8003
I1
s(g1
I128
VmemoryCacheKey
p8004
tp8005
I1
s(g1
I974
VimageLoadingInfo
p8006
tp8007
I1
s(g1
I1331
VBitmap
p8008
tp8009
I2
s(g1
I158
VsizeLimit
p8010
tp8011
I1
s(g1
I379
VremoveNext
p8012
tp8013
I1
s(g1
I409
VL
p8014
tp8015
I1
s(g1
I125
VcurrentCacheKey
p8016
tp8017
I1
s(g1
I360
VString
p8018
tp8019
I1
s(g1
I72
VgetExtras
p8020
tp8021
I1
s(g1
I583
VdecodingInfo
p8022
tp8023
I1
s(g1
I1989
VObject
p8024
tp8025
I1
s(g1
I377
Vcommit
p8026
tp8027
I1
s(g1
I130
VremovedValue
p8028
tp8029
I1
s(g1
I375
VString
p8030
tp8031
I1
s(g1
I691
VTAG
p8032
tp8033
I1
s(g1
I114
VgetSizeLimit
p8034
tp8035
I1
s(g1
I79
VtargetSize
p8036
tp8037
I1
s(g1
I697
VByteArrayInputStream
p8038
tp8039
I1
s(g1
I70
VV
p8040
tp8041
I1
s(g1
I105
VMenuItem
p8042
tp8043
I1
s(g1
I429
VtoURI
p8044
tp8045
I1
s(g1
I1201
VdownloadImage
p8046
tp8047
I1
s(g1
I53
Vclient
p8048
tp8049
I1
s(g1
I121
VLinkedBlockingQueue
p8050
tp8051
I1
s(g1
I251
VLog
p8052
tp8053
I1
s(g1
I49
VFile
p8054
tp8055
I1
s(g1
I101
VimageScaleType
p8056
tp8057
I1
s(g1
I506
VImageDecodingInfo
p8058
tp8059
I1
s(g1
I327
VString
p8060
tp8061
I1
s(g1
I196
Vinflater
p8062
tp8063
I1
s(g1
I688
Vresult
p8064
tp8065
I1
s(g1
I109
VFile
p8066
tp8067
I1
s(g1
I205
Vobject
p8068
tp8069
I1
s(g1
I721
VIOException
p8070
tp8071
I1
s(g1
I93
VK
p8072
tp8073
I1
s(g1
I54
Vconfig
p8074
tp8075
I1
s(g1
I864
VimageView
p8076
tp8077
I1
s(g1
I654
VmemoryCacheKey
p8078
tp8079
I2
s(g1
I222
VL
p8080
tp8081
I1
s(g1
I307
VString
p8082
tp8083
I2
s(g1
I397
VfailReason
p8084
tp8085
I2
s(g1
I616
VATTEMPT_COUNT_TO_DECODE_BITMAP
p8086
tp8087
I1
s(g1
I125
VRect
p8088
tp8089
I2
s(g1
I462
Vlog
p8090
tp8091
I1
s(g1
I952
VBitmap
p8092
tp8093
I1
s(g1
I36
VgetResources
p8094
tp8095
I1
s(g1
I78
Vbitmap
p8096
tp8097
I1
s(g1
I458
VgetKey
p8098
tp8099
I1
s(g1
I245
VdefaultMark
p8100
tp8101
I1
s(g1
I671
VresetStream
p8102
tp8103
I1
s(g1
I206
VImagePagerActivity
p8104
tp8105
I1
s(g1
I166
Vexists
p8106
tp8107
I1
s(g1
I851
Vcontext
p8108
tp8109
I1
s(g1
I83
Vpublic
p8110
tp8111
I191
s(g1
I236
VdiscCacheSize
p8112
tp8113
I1
s(g1
I685
Vuri
p8114
tp8115
I1
s(g1
I139
VgetScheme
p8116
tp8117
I1
s(g1
I68
VImageView
p8118
tp8119
I1
s(g1
I135
Vkey
p8120
tp8121
I1
s(g1
I1126
Vbmp
p8122
tp8123
I1
s(g1
I183
Vintent
p8124
tp8125
I1
s(g1
I54
VreadTimeout
p8126
tp8127
I2
s(g1
I47
VhttpReadTimeout
p8128
tp8129
I1
s(g1
I422
VFile
p8130
tp8131
I1
s(g1
I249
VdefaultDisplayImageOptions
p8132
tp8133
I1
s(g1
I26
VImageLoaderConfiguration
p8134
tp8135
I1
s(g1
I2324
VEntry
p8136
tp8137
I1
s(g1
I52
VtargetSize
p8138
tp8139
I1
s(g1
I223
VImageView
p8140
tp8141
I1
s(g1
I1149
VImageSize
p8142
tp8143
I1
s(g1
I300
VimageUri
p8144
tp8145
I1
s(g1
I784
VOutOfMemoryError
p8146
tp8147
I1
s(g1
I134
Vkey
p8148
tp8149
I1
s(g1
I304
Vdecoder
p8150
tp8151
I1
s(g1
I315
VFileOutputStream
p8152
tp8153
I1
s(g1
I925
VDefaultDiscCache
p8154
tp8155
I1
s(g1
I236
VBuilder
p8156
tp8157
I1
s(g1
I130
VtasksProcessingOrder
p8158
tp8159
I1
s(g1
I129
VINDIVIDUAL_DIR_NAME
p8160
tp8161
I2
s(g1
I537
VfileName
p8162
tp8163
I1
s(g1
I214
VgetWidth
p8164
tp8165
I1
s(g1
I632
VObject
p8166
tp8167
I1
s(g1
I101
Vurls
p8168
tp8169
I1
s(g1
I53
VStrictMode
p8170
tp8171
I1
s(g1
I948
VtargetImageSize
p8172
tp8173
I1
s(g1
I1449
VcancelDisplayTask
p8174
tp8175
I1
s(g1
I899
VdisplayBitmapTask
p8176
tp8177
I1
s(g1
I195
VLayoutInflater
p8178
tp8179
I1
s(g1
I64
VenableLogging
p8180
tp8181
I1
s(g1
I45
VHashMap
p8182
tp8183
I1
s(g1
I1498
Voptions
p8184
tp8185
I1
s(g1
I177
Vintent
p8186
tp8187
I1
s(g1
I929
Vbitmap
p8188
tp8189
I1
s(g1
I510
VdecodeWithOOMHandling
p8190
tp8191
I1
s(g1
I931
Vheight
p8192
tp8193
I1
s(g1
I398
VgetFile
p8194
tp8195
I1
s(g1
I492
Vclear
p8196
tp8197
I1
s(g1
I315
Vhandler
p8198
tp8199
I1
s(g1
I330
Voptions
p8200
tp8201
I1
s(g1
I63
VString
p8202
tp8203
I1
s(g1
I420
VContext
p8204
tp8205
I1
s(g1
I104
VOverride
p8206
tp8207
I1
s(g1
I276
VshaderMatrix
p8208
tp8209
I1
s(g1
I529
Vdrawable
p8210
tp8211
I1
s(g1
I1527
VimageViewRef
p8212
tp8213
I2
s(g1
I75
VFile
p8214
tp8215
I1
s(g1
I248
Vbuf
p8216
tp8217
I2
s(g1
I45
VTotalSizeLimitedDiscCache
p8218
tp8219
I1
s(g1
I758
VimageView
p8220
tp8221
I1
s(g1
I182
VisImageCachedOnDisc
p8222
tp8223
I1
s(g1
I849
VImageView
p8224
tp8225
I1
s(g1
I248
VdisplayOptions
p8226
tp8227
I1
s(g1
I258
VimageLoadingInfo
p8228
tp8229
I1
s(g1
I209
Vget
p8230
tp8231
I1
s(g1
I76
VsetContentView
p8232
tp8233
I1
s(g1
I993
VdownloadImage
p8234
tp8235
I1
s(g1
I290
Vformat
p8236
tp8237
I1
s(g1
I59
VOverride
p8238
tp8239
I3
s(g1
I1414
VgetImageOnFail
p8240
tp8241
I1
s(g1
I306
Ve
p8242
tp8243
I1
s(g1
I412
Vformat
p8244
tp8245
I1
s(g1
I685
VBitmap
p8246
tp8247
I1
s(g1
I192
Vres
p8248
tp8249
I1
s(g1
I1258
Vwrap
p8250
tp8251
I1
s(g1
I129
VsetCurrentItem
p8252
tp8253
I1
s(g1
I111
VViewPager
p8254
tp8255
I1
s(g1
I35
VthreadPoolSize
p8256
tp8257
I1
s(g1
I91
VgetInt
p8258
tp8259
I1
s(g1
I840
VInputStream
p8260
tp8261
I1
s(g1
I261
VRoundedBitmapDisplayer
p8262
tp8263
I1
s(g1
I229
VLayoutInflater
p8264
tp8265
I1
s(g1
I388
VimageDownloader
p8266
tp8267
I1
s(g1
I633
VtargetSize
p8268
tp8269
I1
s(g1
I872
VimageFile
p8270
tp8271
I1
s(g1
I85
VshowImageForEmptyUri
p8272
tp8273
I1
s(g1
I103
VshowImageForEmptyUri
p8274
tp8275
I1
s(g1
I281
Vdrawable
p8276
tp8277
I1
s(g1
I474
VfileSize
p8278
tp8279
I1
s(g1
I181
VURI
p8280
tp8281
I1
s(g1
I951
VImageLoadingInfo
p8282
tp8283
I1
s(g1
I88
VArrayList
p8284
tp8285
I1
s(g1
I446
Vx
p8286
tp8287
I1
s(g1
I62
VInputStream
p8288
tp8289
I3
s(g1
I337
VinstantiateItem
p8290
tp8291
I1
s(g1
I1822
Vinit
p8292
tp8293
I1
s(g1
I201
Vheight
p8294
tp8295
I1
s(g1
I52
VbytesSkipped
p8296
tp8297
I1
s(g1
I93
VUILApplication
p8298
tp8299
I1
s(g1
I143
Vconfig
p8300
tp8301
I2
s(g1
I86
VURI_AND_SIZE_SEPARATOR
p8302
tp8303
I1
s(g1
I24
VBaseDiscCache
p8304
tp8305
I1
s(g1
I205
VimageViewRef
p8306
tp8307
I1
s(g1
I77
Vkey2
p8308
tp8309
I1
s(g1
I172
VgetStream
p8310
tp8311
I1
s(g1
I633
Voptions
p8312
tp8313
I2
s(g1
I56
VfileNameGenerator
p8314
tp8315
I1
s(g1
I96
VImagePagerAdapter
p8316
tp8317
I1
s(g1
I938
Vheight
p8318
tp8319
I1
s(g1
I308
Vmessage
p8320
tp8321
I1
s(g1
I46
VImageSize
p8322
tp8323
I1
s(g1
I89
Vformat
p8324
tp8325
I1
s(g1
I760
Voptions
p8326
tp8327
I1
s(g1
I109
VInputStream
p8328
tp8329
I1
s(g1
I179
Vsubmit
p8330
tp8331
I1
s(g1
I131
VimageSize
p8332
tp8333
I1
s(g1
I44
VthreadPriority
p8334
tp8335
I1
s(g1
I149
VIOException
p8336
tp8337
I1
s(g1
I294
VDEFAULT_BUFFER_SIZE
p8338
tp8339
I2
s(g1
I115
VcacheDir
p8340
tp8341
I1
s(g1
I164
VputSuccessfully
p8342
tp8343
I1
s(g1
I503
Vlog
p8344
tp8345
I1
s(g1
I686
VimageUrl
p8346
tp8347
I1
s(g1
I60
Vclient
p8348
tp8349
I1
s(g1
I268
VOverride
p8350
tp8351
I1
s(g1
I113
VremoveFromCache
p8352
tp8353
I2
s(g1
I961
VtargetSize
p8354
tp8355
I1
s(g1
I449
VmemoryCacheKey
p8356
tp8357
I1
s(g1
I657
VimageUri
p8358
tp8359
I1
s(g1
I183
VputExtra
p8360
tp8361
I1
s(g1
I122
VLog
p8362
tp8363
I1
s(g1
I612
Vattempt
p8364
tp8365
I1
s(g1
I79
Vscheme
p8366
tp8367
I1
s(g1
I101
VGallery
p8368
tp8369
I1
s(g1
I27
VmaxFileCount
p8370
tp8371
I1
s(g1
I102
VmaxCacheSize
p8372
tp8373
I1
s(g1
I152
VgetImageScaleType
p8374
tp8375
I2
s(g1
I783
Vis
p8376
tp8377
I1
s(g1
I100
VshowStubImage
p8378
tp8379
I1
s(g1
I1185
VFile
p8380
tp8381
I1
s(g1
I715
VimageUri
p8382
tp8383
I1
s(g1
I41
g1400
tp8384
I127
s(g1
I486
VMath
p8385
tp8386
I1
s(g1
I47
VimageView
p8387
tp8388
I1
s(g1
I258
Vclear
p8389
tp8390
I1
s(g1
I251
VlastUsageDates
p8391
tp8392
I1
s(g1
I220
VvalueSize
p8393
tp8394
I1
s(g1
I94
Vwrite
p8395
tp8396
I2
s(g1
I206
VgetHeight
p8397
tp8398
I1
s(g1
I105
VsetCurrentItem
p8399
tp8400
I1
s(g1
I1927
VrunTask
p8401
tp8402
I1
s(g1
I92
Vstream
p8403
tp8404
I2
s(g1
I287
Voptions
p8405
tp8406
I1
s(g1
I118
VgetCacheDir
p8407
tp8408
I1
s(g1
I110
VimageScaleType
p8409
tp8410
I1
s(g1
I319
VnetworkDeniedDownloader
p8411
tp8412
I1
s(g1
I960
VgetLockForUri
p8413
tp8414
I1
s(g1
I134
Vconfig
p8415
tp8416
I1
s(g1
I285
Vbitmap
p8417
tp8418
I1
s(g1
I715
VimageFile
p8419
tp8420
I1
s(g1
I176
Vcontext
p8421
tp8422
I2
s(g1
I117
VOverride
p8423
tp8424
I1
s(g1
I273
VImageView
p8425
tp8426
I1
s(g1
I122
VmaxAge
p8427
tp8428
I1
s(g1
I562
VtargetSize
p8429
tp8430
I1
s(g1
I98
VStorageUtils
p8431
tp8432
I1
s(g1
I272
Vdownloader
p8433
tp8434
I1
s(g1
I210
VOptions
p8435
tp8436
I1
s(g1
I87
Vbundle
p8437
tp8438
I3
s(g1
I93
Vurls
p8439
tp8440
I1
s(g1
I122
VappCacheDir
p8441
tp8442
I1
s(g1
I163
VContext
p8443
tp8444
I1
s(g1
I1173
VIoUtils
p8445
tp8446
I1
s(g1
I115
VbitmapConfig
p8447
tp8448
I2
s(g1
I22
VFile
p8449
tp8450
I1
s(g1
I275
VcacheDir
p8451
tp8452
I1
s(g1
I225
VindividualCacheDir
p8453
tp8454
I1
s(g1
I715
VImageDecoder
p8455
tp8456
I1
s(g1
I1622
VjournalWriter
p8457
tp8458
I2
s(g1
I228
VstartImagePagerActivity
p8459
tp8460
I1
s(g1
I393
Vfile
p8461
tp8462
I1
s(g1
I78
VkeyToFileName
p8463
tp8464
I1
s(g1
I361
VImageLoadingInfo
p8465
tp8466
I1
s(g1
I388
VsrcSize
p8467
tp8468
I1
s(g1
I387
Vfile
p8469
tp8470
I1
s(g1
I269
VIOException
p8471
tp8472
I2
s(g1
I140
VuriScheme
p8473
tp8474
I1
s(g1
I137
Vkey
p8475
tp8476
I1
s(g1
I493
VImageDecoder
p8477
tp8478
I1
s(g1
I332
Vlifo
p8479
tp8480
I1
s(g1
I1697
Vlock
p8481
tp8482
I2
s(g1
I117
Vvalue
p8483
tp8484
I1
s(g1
I59
VgetSize
p8485
tp8486
I1
s(g1
I884
VImageSize
p8487
tp8488
I1
s(g1
I1701
Vengine
p8489
tp8490
I1
s(g1
I76
VBundle
p8491
tp8492
I2
s(g1
I400
VencodedUrl
p8493
tp8494
I1
s(g1
I348
VgetHeight
p8495
tp8496
I1
s(g1
I265
Vr
p8497
tp8498
I1
s(g1
I35
VonCreate
p8499
tp8500
I1
s(g1
I514
VdecodingInfo
p8501
tp8502
I1
s(g1
I143
Vstop
p8503
tp8504
I1
s(g1
I681
VdisplayBitmapTask
p8505
tp8506
I1
s(g1
I206
VtransformedBmp
p8507
tp8508
I1
s(g1
I169
VimageView
p8509
tp8510
I1
s(g1
I641
VOverride
p8511
tp8512
I1
s(g1
I126
VgetStreamFromNetwork
p8513
tp8514
I1
s(g1
I104
VshowImageOnLoading
p8515
tp8516
I2
s(g1
I605
Vbitmap
p8517
tp8518
I1
s(g1
I602
Vbitmap
p8519
tp8520
I1
s(g1
I67
VString
p8521
tp8522
I1
s(g1
I771
VimageLoadingExecutor
p8523
tp8524
I1
s(g1
I684
Ve
p8525
tp8526
I2
s(g1
I177
VException
p8527
tp8528
I1
s(g1
I786
VmemoryCacheKey
p8529
tp8530
I1
s(g1
I114
VcachedFile
p8531
tp8532
I1
s(g1
I284
Vmenu
p8533
tp8534
I1
s(g1
I1298
VImageLoaderConfiguration
p8535
tp8536
I1
s(g1
I331
VtargetSize
p8537
tp8538
I1
s(g1
I184
Voptions
p8539
tp8540
I1
s(g1
I242
VdiscCache
p8541
tp8542
I1
s(g1
I213
VOverride
p8543
tp8544
I1
s(g1
I1377
VdecodeImage
p8545
tp8546
I1
s(g1
I656
Vuri
p8547
tp8548
I1
s(g1
I1113
Vurl
p8549
tp8550
I1
s(g1
I53
Vcontext
p8551
tp8552
I1
s(g1
I310
VL
p8553
tp8554
I1
s(g1
I181
VOptions
p8555
tp8556
I1
s(g1
I92
VshowImageOnFail
p8557
tp8558
I1
s(g1
I90
VdiscCache
p8559
tp8560
I2
s(g1
I85
Vurl
p8561
tp8562
I1
s(g1
I1123
VtargetSize
p8563
tp8564
I1
s(g1
I428
Vvh
p8565
tp8566
I1
s(g1
I728
VmemoryCacheKey
p8567
tp8568
I1
s(g1
I199
VtargetSize
p8569
tp8570
I1
s(g1
I1191
VimageFile
p8571
tp8572
I1
s(g1
I212
VFile
p8573
tp8574
I1
s(g1
I675
VmemoryCacheKey
p8575
tp8576
I1
s(g1
I151
VgetIndividualCacheDirectory
p8577
tp8578
I1
s(g1
I547
VsubsampledBitmap
p8579
tp8580
I1
s(g1
I177
VInteger
p8581
tp8582
I1
s(g1
I142
Vvalue
p8583
tp8584
I1
s(g1
I55
VdiscCacheFileNameGenerator
p8585
tp8586
I1
s(g1
I1112
VBUFFER_SIZE
p8587
tp8588
I1
s(g1
I219
Vremove
p8589
tp8590
I1
s(g1
I475
VDiskLruCache
p8591
tp8592
I1
s(g1
I770
VmemoryCacheKey
p8593
tp8594
I1
s(g1
I119
VMd5FileNameGenerator
p8595
tp8596
I1
s(g1
I891
Vbitmap
p8597
tp8598
I1
s(g1
I512
Ve
p8599
tp8600
I2
s(g1
I1114
VcacheDir
p8601
tp8602
I1
s(g1
I79
VgetIntent
p8603
tp8604
I2
s(g1
I266
VanimateFirstListener
p8605
tp8606
I1
s(g1
I332
Vholder
p8607
tp8608
I1
s(g1
I636
VtargetSize
p8609
tp8610
I1
s(g1
I710
Vuri
p8611
tp8612
I1
s(g1
I100
VArrays
p8613
tp8614
I1
s(g1
I94
VcacheInMemory
p8615
tp8616
I1
s(g1
I357
VsetImageBitmap
p8617
tp8618
I1
s(g1
I705
VcacheDir
p8619
tp8620
I1
s(g1
I947
VWARNING_OVERLAP_EXECUTOR
p8621
tp8622
I1
s(g1
I274
VStorageUtils
p8623
tp8624
I1
s(g1
I101
VImageListFragment
p8625
tp8626
I1
s(g1
I1689
Vpause
p8627
tp8628
I1
s(g1
I167
Vs
p8629
tp8630
I2
s(g1
I97
VImageLoaderEngine
p8631
tp8632
I1
s(g1
I297
Vlistener
p8633
tp8634
I1
s(g1
I218
VListView
p8635
tp8636
I1
s(g1
I1169
Vhandler
p8637
tp8638
I1
s(g1
I92
VonCreate
p8639
tp8640
I1
s(g1
I372
VimageView
p8641
tp8642
I1
s(g1
I1066
VphotoToLoadQueue
p8643
tp8644
I1
s(g1
I130
VpagerPosition
p8645
tp8646
I1
s(g1
I69
VIOException
p8647
tp8648
I2
s(g1
I1308
VLOG_PROCESS_IMAGE_BEFORE_CACHE_ON_DISC
p8649
tp8650
I1
s(g1
I218
VmaxSize
p8651
tp8652
I1
s(g1
I1559
VFailReason
p8653
tp8654
I1
s(g1
I34
VImageLoader
p8655
tp8656
I1
s(g1
I90
VFileCountLimitedDiscCache
p8657
tp8658
I1
s(g1
I323
VRunnable
p8659
tp8660
I1
s(g1
I150
VsoftMap
p8661
tp8662
I1
s(g1
I71
VUILActivity
p8663
tp8664
I1
s(g1
I42
VcacheDir
p8665
tp8666
I1
s(g1
I271
Vdownloader
p8667
tp8668
I1
s(g1
I216
Vcache
p8669
tp8670
I1
s(g1
I652
Vuri
p8671
tp8672
I1
s(g1
I649
Vheight
p8673
tp8674
I1
s(g1
I639
VBuilder
p8675
tp8676
I1
s(g1
I383
VimageStream
p8677
tp8678
I2
s(g1
I445
VgetValue
p8679
tp8680
I1
s(g1
I109
Vlistener
p8681
tp8682
I2
s(g1
I61
Vbundle
p8683
tp8684
I1
s(g1
I217
VLayoutInflater
p8685
tp8686
I1
s(g1
I103
Vexecute
p8687
tp8688
I1
s(g1
I93
Vtag
p8689
tp8690
I1
s(g1
I123
VFile
p8691
tp8692
I2
s(g1
I243
Vmap
p8693
tp8694
I1
s(g1
I122
VOverride
p8695
tp8696
I1
s(g1
I70
VimageSize
p8697
tp8698
I1
s(g1
I38
VmemoryCacheSize
p8699
tp8700
I3
s(g1
I472
VLOG_POSTPROCESS_IMAGE
p8701
tp8702
I1
s(g1
I77
VString
p8703
tp8704
I1
s(g1
I318
VisNotNull
p8705
tp8706
I1
s(g1
I405
VBitmap
p8707
tp8708
I1
s(g1
I417
Vsnapshot
p8709
tp8710
I1
s(g1
I1356
Vdecoder
p8711
tp8712
I1
s(g1
I137
Vvalue
p8713
tp8714
I1
s(g1
I316
VviewScaleType
p8715
tp8716
I1
s(g1
I38
VFileNameGenerator
p8717
tp8718
I1
s(g1
I1454
Vtotal
p8719
tp8720
I1
s(g1
I219
Vbitmap
p8721
tp8722
I1
s(g1
I170
VgetExternalCacheDir
p8723
tp8724
I1
s(g1
I1132
Vos
p8725
tp8726
I1
s(g1
I167
Vuri
p8727
tp8728
I2
s(g1
I58
VfileName
p8729
tp8730
I1
s(g1
I1272
Vexists
p8731
tp8732
I1
s(g1
I625
VIOException
p8733
tp8734
I1
s(g1
I139
Vconfig
p8735
tp8736
I1
s(g1
I1395
VcachedImageLoadingExecutor
p8737
tp8738
I1
s(g1
I99
VmemoryCacheKey
p8739
tp8740
I1
s(g1
I85
Vbitmap
p8741
tp8742
I2
s(g1
I327
VsrcSize
p8743
tp8744
I1
s(g1
I80
VBitmap
p8745
tp8746
I1
s(g1
I117
Voptions
p8747
tp8748
I1
s(g1
I700
VsetImageBitmap
p8749
tp8750
I1
s(g1
I46
VdenyCacheImageMultipleSizesInMemory
p8751
tp8752
I2
s(g1
I94
VTotalSizeLimitedDiscCache
p8753
tp8754
I1
s(g1
I121
Vqueue
p8755
tp8756
I1
s(g1
I1104
Voptions
p8757
tp8758
I1
s(g1
I1452
Vlog
p8759
tp8760
I1
s(g1
I834
VimageFile
p8761
tp8762
I1
s(g1
I911
VActivity
p8763
tp8764
I1
s(g1
I442
Vbw
p8765
tp8766
I1
s(g1
I742
VimageFile
p8767
tp8768
I1
s(g1
I685
Vget
p8769
tp8770
I1
s(g1
I104
VimageView
p8771
tp8772
I1
s(g1
I394
VfailReason
p8773
tp8774
I1
s(g1
I737
VfireImageLoadingFailedEvent
p8775
tp8776
I1
s(g1
I1288
VFileUtils
p8777
tp8778
I1
s(g1
I39
VgetApplicationContext
p8779
tp8780
I1
s(g1
I86
Vvalue
p8781
tp8782
I1
s(g1
I155
Vrun
p8783
tp8784
I1
s(g1
I236
VshouldStopLoading
p8785
tp8786
I1
s(g1
I18
VDiscCacheUtil
p8787
tp8788
I1
s(g1
I512
VExecutorService
p8789
tp8790
I1
s(g1
I152
Vid
p8791
tp8792
I1
s(g1
I97
VreadTimeout
p8793
tp8794
I1
s(g1
I138
VbitmapDisplayer
p8795
tp8796
I1
s(g1
I1108
Vlistener
p8797
tp8798
I1
s(g1
I1288
VcopyStream
p8799
tp8800
I1
s(g1
I133
VBitmap
p8801
tp8802
I1
s(g1
I742
VUnsupportedOperationException
p8803
tp8804
I1
s(g1
I166
Vintent
p8805
tp8806
I1
s(g1
I107
VcachedFile
p8807
tp8808
I1
s(g1
I66
VK
p8809
tp8810
I1
s(g1
I179
Vget
p8811
tp8812
I1
s(g1
I243
VcacheDir
p8813
tp8814
I1
s(g1
I523
VcacheKeysForImageAwares
p8815
tp8816
I1
s(g1
I144
VThread
p8817
tp8818
I1
s(g1
I110
VOverride
p8819
tp8820
I1
s(g1
I190
VViewHolder
p8821
tp8822
I1
s(g1
I67
VsetContentView
p8823
tp8824
I1
s(g1
I132
Vcontext
p8825
tp8826
I1
s(g1
I55
VMd5FileNameGenerator
p8827
tp8828
I1
s(g1
I424
Vput
p8829
tp8830
I1
s(g1
I984
VtargetFile
p8831
tp8832
I1
s(g1
I101
Vcache
p8833
tp8834
I1
s(g1
I1511
VThread
p8835
tp8836
I1
s(g1
I845
Vuri
p8837
tp8838
I1
s(g1
I377
VredirectCount
p8839
tp8840
I1
s(g1
I644
VimageStream
p8841
tp8842
I1
s(g1
I273
Vbuf
p8843
tp8844
I2
s(g1
I935
Vwidth
p8845
tp8846
I1
s(g1
I632
VImageSize
p8847
tp8848
I1
s(g1
I1392
VcachedImageLoadingExecutor
p8849
tp8850
I1
s(g1
I71
VfromImageView
p8851
tp8852
I1
s(g1
I1840
VDisplayImageOptions
p8853
tp8854
I1
s(g1
I144
Vvalue
p8855
tp8856
I1
s(g1
I79
VcacheDir
p8857
tp8858
I1
s(g1
I104
VcacheDir
p8859
tp8860
I1
s(g1
I514
VtaskExecutorForCachedImages
p8861
tp8862
I1
s(g1
I1143
VDEFAULT_HTTP_CONNECT_TIMEOUT
p8863
tp8864
I1
s(g1
I663
Vwidth
p8865
tp8866
I1
s(g1
I1395
VisShutdown
p8867
tp8868
I1
s(g1
I216
VLong
p8869
tp8870
I1
s(g1
I345
VBuilder
p8871
tp8872
I1
s(g1
I444
VExecutorService
p8873
tp8874
I1
s(g1
I29
VMenu
p8875
tp8876
I1
s(g1
I63
Vkey
p8877
tp8878
I1
s(g1
I2621
VImageLoaderConfiguration
p8879
tp8880
I1
s(g1
I121
VPROTOCOL_DRAWABLE
p8881
tp8882
I1
s(g1
I387
VgetKey
p8883
tp8884
I1
s(g1
I975
VdisplayTask
p8885
tp8886
I1
s(g1
I222
VbelongsTo
p8887
tp8888
I1
s(g1
I127
VDefaultConfigurationFactory
p8889
tp8890
I1
s(g1
I149
Vposition
p8891
tp8892
I1
s(g1
I1303
Vbuild
p8893
tp8894
I1
s(g1
I383
VIOException
p8895
tp8896
I1
s(g1
I80
VsetContentView
p8897
tp8898
I2
s(g1
I129
VreserveCacheDir
p8899
tp8900
I1
s(g1
I59
VLong
p8901
tp8902
I1
s(g1
I386
VcreateConnection
p8903
tp8904
I1
s(g1
I240
VshowImageOnLoading
p8905
tp8906
I1
s(g1
I226
VcacheSize
p8907
tp8908
I1
s(g1
I232
Vrun
p8909
tp8910
I1
s(g1
I397
VimageView
p8911
tp8912
I1
s(g1
I134
VindividualCacheDir
p8913
tp8914
I2
s(g1
I209
VImageAdapter
p8915
tp8916
I1
s(g1
I1138
VgetFieldValue
p8917
tp8918
I1
s(g1
I219
VView
p8919
tp8920
I1
s(g1
I655
VLog
p8921
tp8922
I1
s(g1
I381
Vspinner
p8923
tp8924
I1
s(g1
I101
Vclient
p8925
tp8926
I1
s(g1
I418
Vconfiguration
p8927
tp8928
I1
s(g1
I1747
VcreateImageDownloader
p8929
tp8930
I1
s(g1
I258
Vwidth
p8931
tp8932
I1
s(g1
I564
VwidthScale
p8933
tp8934
I1
s(g1
I67
Vmd5
p8935
tp8936
I1
s(g1
I786
VL
p8937
tp8938
I1
s(g1
I149
VtargetImageSize
p8939
tp8940
I1
s(g1
I145
VgetIndividualCacheDirectory
p8941
tp8942
I1
s(g1
I674
VtargetSize
p8943
tp8944
I1
s(g1
I2393
Vinit
p8945
tp8946
I1
s(g1
I227
Vinflater
p8947
tp8948
I1
s(g1
I654
Vget
p8949
tp8950
I1
s(g1
I1350
VImageDecoder
p8951
tp8952
I1
s(g1
I344
VsrcWidth
p8953
tp8954
I1
s(g1
I113
Vvalue
p8955
tp8956
I1
s(g1
I30
VURL_AND_SIZE_SEPARATOR
p8957
tp8958
I1
s(g1
I36
VsizeLimit
p8959
tp8960
I1
s(g1
I149
Vrun
p8961
tp8962
I1
s(g1
I732
VIllegalStateException
p8963
tp8964
I1
s(g1
I178
VcacheSize
p8965
tp8966
I1
s(g1
I510
VImageScaleType
p8967
tp8968
I1
s(g1
I293
VcurrentCacheKey
p8969
tp8970
I1
s(g1
I1248
VWARNING_OVERLAP_MEMORY_CACHE
p8971
tp8972
I1
s(g1
I2641
Vd
p8973
tp8974
I1
s(g1
I365
VImageLoaderConfiguration
p8975
tp8976
I1
s(g1
I773
VimageFile
p8977
tp8978
I1
s(g1
I190
VBitmap
p8979
tp8980
I2
s(g1
I81
VStringBuilder
p8981
tp8982
I1
s(g1
I224
VloggingEnabled
p8983
tp8984
I1
s(g1
I389
VthreadPriority
p8985
tp8986
I1
s(g1
I163
VonItemClick
p8987
tp8988
I1
s(g1
I117
VoutState
p8989
tp8990
I1
s(g1
I61
VimageUrl
p8991
tp8992
I1
s(g1
I744
Vclear
p8993
tp8994
I1
s(g1
I432
VExecutorService
p8995
tp8996
I1
s(g1
I1739
VimageView
p8997
tp8998
I1
s(g1
I124
VString
p8999
tp9000
I1
s(g1
I120
VcacheDir
p9001
tp9002
I2
s(g1
I1346
VImageDecoder
p9003
tp9004
I1
s(g1
I1622
Vf
p9005
tp9006
I1
s(g1
I104
VfindViewById
p9007
tp9008
I1
s(g1
I58
VgetSize
p9009
tp9010
I1
s(g1
I775
Vbmp
p9011
tp9012
I1
s(g1
I506
VException
p9013
tp9014
I1
s(g1
I442
VsrcWidth
p9015
tp9016
I1
s(g1
I597
VdestRect
p9017
tp9018
I1
s(g1
I312
VIO_ERROR
p9019
tp9020
I1
s(g1
I129
Vpager
p9021
tp9022
I1
s(g1
I207
VonCreateView
p9023
tp9024
I1
s(g1
I633
Vurl
p9025
tp9026
I1
s(g1
I165
Vex
p9027
tp9028
I1
s(g1
I189
Vvalue
p9029
tp9030
I1
s(g1
I59
Vlistener
p9031
tp9032
I1
s(g1
I694
VdisplayImageTask
p9033
tp9034
I1
s(g1
I34
VcacheDir
p9035
tp9036
I4
s(g1
I96
VgetStreamFromNetwork
p9037
tp9038
I1
s(g1
I208
Vcount
p9039
tp9040
I1
s(g1
I82
Vlistener
p9041
tp9042
I1
s(g1
I268
Vset
p9043
tp9044
I1
s(g1
I219
Vuri
p9045
tp9046
I1
s(g1
I63
VhttpRequest
p9047
tp9048
I1
s(g1
I5
VString
p9049
tp9050
I1
s(g1
I643
Vbmp
p9051
tp9052
I1
s(g1
I98
VgetCacheDirectory
p9053
tp9054
I1
s(g1
I340
VgetTag
p9055
tp9056
I1
s(g1
I738
VroundCorners
p9057
tp9058
I1
s(g1
I388
VFile
p9059
tp9060
I1
s(g1
I203
Vtotal
p9061
tp9062
I1
s(g1
I98
VonCreateOptionsMenu
p9063
tp9064
I1
s(g1
I977
VcacheDir
p9065
tp9066
I1
s(g1
I609
VslowNetwork
p9067
tp9068
I1
s(g1
I144
VmemoryCacheKey
p9069
tp9070
I1
s(g1
I513
Vcrop
p9071
tp9072
I2
s(g1
I216
VfindViewById
p9073
tp9074
I1
s(g1
I197
Vposition
p9075
tp9076
I1
s(g1
I188
VEnvironment
p9077
tp9078
I2
s(g1
I115
VloadingDates
p9079
tp9080
I1
s(g1
I357
VtargetSize
p9081
tp9082
I1
s(g1
I51
VsynchronizedMap
p9083
tp9084
I1
s(g1
I132
Vclear
p9085
tp9086
I1
s(g1
I167
VputSuccessfully
p9087
tp9088
I1
s(g1
I183
VcacheDir
p9089
tp9090
I1
s(g1
I215
Vintent
p9091
tp9092
I2
s(g1
I652
VStorageUtils
p9093
tp9094
I1
s(g1
I68
VcacheDir
p9095
tp9096
I2
s(g1
I1437
VsaveImageOnDisc
p9097
tp9098
I1
s(g1
I99
VgetCacheDir
p9099
tp9100
I1
s(g1
I852
Vres
p9101
tp9102
I1
s(g1
I327
VmemoryCacheSize
p9103
tp9104
I1
s(g1
I357
Vimage
p9105
tp9106
I1
s(g1
I253
Vsave
p9107
tp9108
I1
s(g1
I180
VV
p9109
tp9110
I1
s(g1
I801
VdelayIfNeed
p9111
tp9112
I1
s(g1
I108
VcacheOnDisc
p9113
tp9114
I1
s(g1
I301
Vitem
p9115
tp9116
I1
s(g1
I89
VimageUrl1
p9117
tp9118
I1
s(g1
I384
VAnimation
p9119
tp9120
I1
s(g1
I149
Vget
p9121
tp9122
I1
s(g1
I49
VimageUrl
p9123
tp9124
I1
s(g1
I259
VloadingDelayOnScroll
p9125
tp9126
I1
s(g1
I222
Vuri
p9127
tp9128
I1
s(g1
I232
Vos
p9129
tp9130
I1
s(g1
I1925
Vsync
p9131
tp9132
I1
s(g1
I224
VtestImageOnSdCard
p9133
tp9134
I1
s(g1
I440
Ve
p9135
tp9136
I1
s(g1
I701
Vget
p9137
tp9138
I1
s(g1
I205
VBitmap
p9139
tp9140
I1
s(g1
I118
VsetOnScrollListener
p9141
tp9142
I1
s(g1
I401
VString
p9143
tp9144
I1
s(g1
I656
VsetImageBitmap
p9145
tp9146
I1
s(g1
I254
VcreateForListView
p9147
tp9148
I1
s(g1
I84
VimageLoadingInfo
p9149
tp9150
I1
s(g1
I660
VImageSize
p9151
tp9152
I1
s(g1
I724
Vdecoder
p9153
tp9154
I1
s(g1
I104
Vreadlimit
p9155
tp9156
I2
s(g1
I260
Vwidth
p9157
tp9158
I1
s(g1
I1891
VRunnable
p9159
tp9160
I1
s(g1
I166
VprocessedBitmap
p9161
tp9162
I2
s(g1
I135
Vconfig
p9163
tp9164
I1
s(g1
I351
VisRecycled
p9165
tp9166
I1
s(g1
I868
VcacheKeyForImageView
p9167
tp9168
I1
s(g1
I616
Vresult
p9169
tp9170
I1
s(g1
I941
VImageSize
p9171
tp9172
I1
s(g1
I93
VsynchronizedList
p9173
tp9174
I1
s(g1
I289
VtargetSize
p9175
tp9176
I1
s(g1
I512
VcheckTaskNotActual
p9177
tp9178
I1
s(g1
I1676
Vunlock
p9179
tp9180
I1
s(g1
I1534
VimageView
p9181
tp9182
I1
s(g1
I78
VgetIntent
p9183
tp9184
I1
s(g1
I384
Vconn
p9185
tp9186
I1
s(g1
I170
Vvignette
p9187
tp9188
I2
s(g1
I1071
VphotoToLoadQueue
p9189
tp9190
I1
s(g1
I1289
VBitmap
p9191
tp9192
I1
s(g1
I80
VlistView
p9193
tp9194
I1
s(g1
I730
VimageUriForDecoding
p9195
tp9196
I1
s(g1
I77
Vextra
p9197
tp9198
I1
s(g1
I2001
VwrappedDownloader
p9199
tp9200
I1
s(g1
I114
Vgallery
p9201
tp9202
I1
s(g1
I67
VBundle
p9203
tp9204
I1
s(g1
I81
Vengine
p9205
tp9206
I1
s(g1
I1159
VInputStream
p9207
tp9208
I1
s(g1
I168
VdecodingInfo
p9209
tp9210
I1
s(g1
I770
Vget
p9211
tp9212
I1
s(g1
I106
VimageUri
p9213
tp9214
I2
s(g1
I107
VmaxAge
p9215
tp9216
I1
s(g1
I519
VonLoadingComplete
p9217
tp9218
I1
s(g1
I1143
VhttpConnectTimeout
p9219
tp9220
I1
s(g1
I120
VreadLoadingDates
p9221
tp9222
I1
s(g1
I202
VonBoundsChange
p9223
tp9224
I2
s(g1
I119
Voptions
p9225
tp9226
I1
s(g1
I834
VisShutdown
p9227
tp9228
I1
s(g1
I54
VimageView
p9229
tp9230
I1
s(g1
I709
VimageUri
p9231
tp9232
I1
s(g1
I38
VthreadPriority
p9233
tp9234
I1
s(g1
I1541
VimageView
p9235
tp9236
I1
s(g1
I119
VsizeLimit
p9237
tp9238
I1
s(g1
I62
VsynchronizedMap
p9239
tp9240
I1
s(g1
I671
Vbmp
p9241
tp9242
I1
s(g1
I155
Vkey
p9243
tp9244
I1
s(g1
I183
VflingOptions
p9245
tp9246
I1
s(g1
I610
VcheckConfiguration
p9247
tp9248
I1
s(g1
I928
VcreateVideoThumbnail
p9249
tp9250
I1
s(g1
I388
VgetStream
p9251
tp9252
I1
s(g1
I2399
VclearDiskCache
p9253
tp9254
I1
s(g1
I902
VContext
p9255
tp9256
I1
s(g1
I91
Vbundle
p9257
tp9258
I2
s(g1
I124
VsetAdapter
p9259
tp9260
I1
s(g1
I48
Vbuild
p9261
tp9262
I1
s(g1
I935
VByteArrayOutputStream
p9263
tp9264
I1
s(g1
I934
Vis
p9265
tp9266
I1
s(g1
I256
VimageLoadingInfo
p9267
tp9268
I1
s(g1
I159
Voptions
p9269
tp9270
I1
s(g1
I56
Vextra
p9271
tp9272
I1
s(g1
I2081
VcancelDisplayTaskFor
p9273
tp9274
I1
s(g1
I80
VMenuItem
p9275
tp9276
I1
s(g1
I294
VImageScaleType
p9277
tp9278
I1
s(g1
I554
VgetHeight
p9279
tp9280
I1
s(g1
I187
Vappend
p9281
tp9282
I1
s(g1
I690
VString
p9283
tp9284
I1
s(g1
I178
Vkey
p9285
tp9286
I1
s(g1
I786
Voptions
p9287
tp9288
I1
s(g1
I44
VsizeLimit
p9289
tp9290
I1
s(g1
I139
VimageUri
p9291
tp9292
I2
s(g1
I286
VFile
p9293
tp9294
I1
s(g1
I139
VException
p9295
tp9296
I1
s(g1
I418
VnotifyAll
p9297
tp9298
I1
s(g1
I107
Vitem
p9299
tp9300
I1
s(g1
I60
VOverride
p9301
tp9302
I1
s(g1
I665
Vlistener
p9303
tp9304
I2
s(g1
I241
VdiskCache
p9305
tp9306
I1
s(g1
I2422
Vinit
p9307
tp9308
I1
s(g1
I23
VOverride
p9309
tp9310
I1
s(g1
I199
VcacheDir
p9311
tp9312
I1
s(g1
I362
VqueuePhoto
p9313
tp9314
I1
s(g1
I254
VtaskExecutorForCachedImages
p9315
tp9316
I1
s(g1
I404
VonLoadingComplete
p9317
tp9318
I1
s(g1
I165
Voptions
p9319
tp9320
I1
s(g1
I1300
VdiscCacheFileNameGenerator
p9321
tp9322
I1
s(g1
I141
VvalueSizes
p9323
tp9324
I1
s(g1
I250
Vloaded
p9325
tp9326
I1
s(g1
I144
VLOG_TASK_CANCELLED
p9327
tp9328
I1
s(g1
I107
VInputStream
p9329
tp9330
I1
s(g1
I1195
VimageFile
p9331
tp9332
I1
s(g1
I713
VURI
p9333
tp9334
I1
s(g1
I290
VremoveMostLongUsed
p9335
tp9336
I1
s(g1
I218
VcreateReserveDiscCache
p9337
tp9338
I1
s(g1
I503
VmemoryCacheKey
p9339
tp9340
I1
s(g1
I249
Vheight_tmp
p9341
tp9342
I1
s(g1
I89
Vmatrix
p9343
tp9344
I1
s(g1
I307
VLruMemoryCache
p9345
tp9346
I1
s(g1
I920
VdisplayBitmapTask
p9347
tp9348
I1
s(g1
I383
VtoString
p9349
tp9350
I1
s(g1
I871
VscaleType
p9351
tp9352
I1
s(g1
I629
VdiscCache
p9353
tp9354
I1
s(g1
I693
VimageLoadingInfo
p9355
tp9356
I1
s(g1
I738
VmemoryCacheKey
p9357
tp9358
I1
s(g1
I1350
VdecodeFile
p9359
tp9360
I1
s(g1
I1198
VimageFile
p9361
tp9362
I1
s(g1
I106
VdataDir
p9363
tp9364
I1
s(g1
I264
VcachedFile
p9365
tp9366
I1
s(g1
I77
VImageSize
p9367
tp9368
I1
s(g1
I236
VdiscCacheFileCount
p9369
tp9370
I1
s(g1
I69
VenableLogging
p9371
tp9372
I1
s(g1
I299
VcacheMaxSize
p9373
tp9374
I1
s(g1
I262
Vwidth
p9375
tp9376
I1
s(g1
I250
Vformat
p9377
tp9378
I1
s(g1
I316
Vbuild
p9379
tp9380
I1
s(g1
I394
VsrcWidth
p9381
tp9382
I1
s(g1
I91
VCloseable
p9383
tp9384
I1
s(g1
I877
Vresult
p9385
tp9386
I1
s(g1
I1137
Vlistener
p9387
tp9388
I1
s(g1
I481
Vbmp
p9389
tp9390
I1
s(g1
I1089
Voptions
p9391
tp9392
I1
s(g1
I239
Vheight
p9393
tp9394
I1
s(g1
I177
VImageFileInfo
p9395
tp9396
I1
s(g1
I39
VtotalBytesSkipped
p9397
tp9398
I1
s(g1
I687
Vbos
p9399
tp9400
I1
s(g1
I363
VmemoryCacheKey
p9401
tp9402
I1
s(g1
I108
VmaxAge
p9403
tp9404
I1
s(g1
I175
VimageView
p9405
tp9406
I1
s(g1
I395
Vconn
p9407
tp9408
I1
s(g1
I325
VImageView
p9409
tp9410
I1
s(g1
I794
VdiscCache
p9411
tp9412
I1
s(g1
I1190
Vuri
p9413
tp9414
I1
s(g1
I108
VappCacheDir
p9415
tp9416
I1
s(g1
I663
VBitmap
p9417
tp9418
I1
s(g1
I101
VaddAll
p9419
tp9420
I1
s(g1
I206
VcachedImageLoadingExecutor
p9421
tp9422
I1
s(g1
I58
VsetContentView
p9423
tp9424
I1
s(g1
I407
VFailReason
p9425
tp9426
I1
s(g1
I242
Vintent
p9427
tp9428
I1
s(g1
I831
Vuri
p9429
tp9430
I1
s(g1
I156
VString
p9431
tp9432
I1
s(g1
I105
VbitmapDisplayer
p9433
tp9434
I1
s(g1
I671
VFile
p9435
tp9436
I1
s(g1
I27
VonCreate
p9437
tp9438
I1
s(g1
I272
VnetworkDeniedDownloader
p9439
tp9440
I1
s(g1
I135
VcacheDirPath
p9441
tp9442
I1
s(g1
I266
VdisplayBitmapTask
p9443
tp9444
I1
s(g1
I1385
VcreateTaskExecutor
p9445
tp9446
I1
s(g1
I192
Vsize
p9447
tp9448
I1
s(g1
I94
VappCacheDir
p9449
tp9450
I1
s(g1
I271
VIOException
p9451
tp9452
I1
s(g1
I424
Vcontext
p9453
tp9454
I1
s(g1
I402
VImageLoadingListener
p9455
tp9456
I1
s(g1
I1643
VfireImageLoadingFailedEvent
p9457
tp9458
I1
s(g1
I240
Vcontext
p9459
tp9460
I1
s(g1
I460
VimageHeight
p9461
tp9462
I1
s(g1
I129
VcacheDir
p9463
tp9464
I3
s(g1
I404
VonLoadingFailed
p9465
tp9466
I2
s(g1
I263
VOutputStream
p9467
tp9468
I1
s(g1
I1145
VmemoryCacheKey
p9469
tp9470
I1
s(g1
I597
VprepareDecodingOptions
p9471
tp9472
I1
s(g1
I148
VImageLoader
p9473
tp9474
I1
s(g1
I769
VL
p9475
tp9476
I1
s(g1
I201
VimageUrls
p9477
tp9478
I1
s(g1
I129
VSTATE_POSITION
p9479
tp9480
I1
s(g1
I399
VUri
p9481
tp9482
I1
s(g1
I76
VString
p9483
tp9484
I1
s(g1
I1746
VFuzzyKeyMemoryCache
p9485
tp9486
I1
s(g1
I187
VimageStream
p9487
tp9488
I1
s(g1
I585
Vwidth
p9489
tp9490
I1
s(g1
I263
VThread
p9491
tp9492
I1
s(g1
I113
VgetDisplayer
p9493
tp9494
I1
s(g1
I100
VIOException
p9495
tp9496
I1
s(g1
I450
Vy
p9497
tp9498
I1
s(g1
I182
Vcontext
p9499
tp9500
I1
s(g1
I218
VloggingEnabled
p9501
tp9502
I1
s(g1
I1711
VgetFieldValue
p9503
tp9504
I1
s(g1
I922
Vis
p9505
tp9506
I1
s(g1
I195
VbyteCount
p9507
tp9508
I1
s(g1
I51
VString
p9509
tp9510
I2
s(g1
I27
VdisplayMetrics
p9511
tp9512
I1
s(g1
I268
Vconfiguration
p9513
tp9514
I1
s(g1
I280
VgetMenuInflater
p9515
tp9516
I1
s(g1
I127
VinputStream
p9517
tp9518
I1
s(g1
I161
VcacheSize
p9519
tp9520
I1
s(g1
I221
Vcontext
p9521
tp9522
I1
s(g1
I93
VimageLoadingInfo
p9523
tp9524
I2
s(g1
I401
Vconn
p9525
tp9526
I1
s(g1
I869
Voptions
p9527
tp9528
I1
s(g1
I130
VThreadPoolExecutor
p9529
tp9530
I1
s(g1
I100
VImageLoader
p9531
tp9532
I1
s(g1
I1078
VphotoToLoadQueue
p9533
tp9534
I1
s(g1
I177
Vview
p9535
tp9536
I1
s(g1
I183
VView
p9537
tp9538
I1
s(g1
I83
Vprotected
p9539
tp9540
I26
s(g1
I390
Vmessage
p9541
tp9542
I1
s(g1
I34
VwrappedDownloader
p9543
tp9544
I1
s(g1
I21
VOverride
p9545
tp9546
I1
s(g1
I368
Vwait
p9547
tp9548
I1
s(g1
I130
VoutState
p9549
tp9550
I1
s(g1
I70
g1400
tp9551
I6
s(g1
I206
VIMAGE_URLS
p9552
tp9553
I1
s(g1
I1143
Vlistener
p9554
tp9555
I1
s(g1
I129
Vexpected
p9556
tp9557
I1
s(g1
I898
Vbmp
p9558
tp9559
I1
s(g1
I229
VtaskDistributor
p9560
tp9561
I1
s(g1
I415
VgetFile
p9562
tp9563
I1
s(g1
I107
Vreadlimit
p9564
tp9565
I2
s(g1
I46
Vurl
p9566
tp9567
I1
s(g1
I87
VgetStringArray
p9568
tp9569
I1
s(g1
I93
VfindFragmentByTag
p9570
tp9571
I1
s(g1
I70
VmaxAge
p9572
tp9573
I1
s(g1
I104
Voptions
p9574
tp9575
I1
s(g1
I598
VroundBitmap
p9576
tp9577
I1
s(g1
I152
VappCacheDir
p9578
tp9579
I1
s(g1
I139
VthreadPriority
p9580
tp9581
I1
s(g1
I104
VTotalSizeLimitedDiscCache
p9582
tp9583
I1
s(g1
I1317
VdiscCacheFileNameGenerator
p9584
tp9585
I1
s(g1
I227
VFrameLayout
p9586
tp9587
I1
s(g1
I389
VImagePagerActivity
p9588
tp9589
I1
s(g1
I300
VviewScaleType
p9590
tp9591
I1
s(g1
I330
Vloaded
p9592
tp9593
I1
s(g1
I71
VString
p9594
tp9595
I4
s(g1
I80
Ve
p9596
tp9597
I1
s(g1
I774
VisShutdown
p9598
tp9599
I1
s(g1
I201
VmakeMeasureSpec
p9600
tp9601
I1
s(g1
I805
Voptions
p9602
tp9603
I1
s(g1
I54
VgetFile
p9604
tp9605
I1
s(g1
I79
VgetListView
p9606
tp9607
I1
s(g1
I340
Vi
p9608
tp9609
I1
s(g1
I517
VERROR_NOT_INIT
p9610
tp9611
I1
s(g1
I61
VcacheDir
p9612
tp9613
I1
s(g1
I944
VImageSize
p9614
tp9615
I1
s(g1
I665
VonLoadingStarted
p9616
tp9617
I1
s(g1
I529
Vscale
p9618
tp9619
I1
s(g1
I24
VImageLoaderConfiguration
p9620
tp9621
I1
s(g1
I411
VFile
p9622
tp9623
I1
s(g1
I742
VsetLoggingEnabled
p9624
tp9625
I1
s(g1
I586
VgetImageForEmptyUri
p9626
tp9627
I1
s(g1
I149
VBitmap
p9628
tp9629
I3
s(g1
I171
VimageUri
p9630
tp9631
I1
s(g1
I871
VcomputeImageSampleSize
p9632
tp9633
I1
s(g1
I107
VcacheOnDisc
p9634
tp9635
I1
s(g1
I240
VgetImageViewFieldValue
p9636
tp9637
I1
s(g1
I109
VcacheOnDisc
p9638
tp9639
I2
s(g1
I138
Vvalue
p9640
tp9641
I1
s(g1
I207
Vsize
p9642
tp9643
I1
s(g1
I229
Vpaint
p9644
tp9645
I1
s(g1
I649
VBitmap
p9646
tp9647
I1
s(g1
I73
VimageLoader
p9648
tp9649
I1
s(g1
I322
Vremove
p9650
tp9651
I1
s(g1
I538
VBitmap
p9652
tp9653
I1
s(g1
I137
Vget
p9654
tp9655
I1
s(g1
I222
Vd
p9656
tp9657
I1
s(g1
I1546
Voptions
p9658
tp9659
I1
s(g1
I169
VexternalListener
p9660
tp9661
I1
s(g1
I130
Vcontext
p9662
tp9663
I1
s(g1
I496
VImageDecoder
p9664
tp9665
I1
s(g1
I317
VimageFile
p9666
tp9667
I1
s(g1
I110
VmaxAge
p9668
tp9669
I1
s(g1
I101
Vdisplayer
p9670
tp9671
I1
s(g1
I251
Vclear
p9672
tp9673
I1
s(g1
I371
Vres
p9674
tp9675
I1
s(g1
I199
VimageAware
p9676
tp9677
I1
s(g1
I694
VAtomicBoolean
p9678
tp9679
I1
s(g1
I130
Vinflater
p9680
tp9681
I1
s(g1
I922
VmaxCacheSize
p9682
tp9683
I1
s(g1
I172
VsetLoggingEnabled
p9684
tp9685
I2
s(g1
I972
VFile
p9686
tp9687
I1
s(g1
I250
VLOG_DISPLAY_IMAGE_IN_IMAGEVIEW
p9688
tp9689
I1
s(g1
I96
VcacheOnDisc
p9690
tp9691
I1
s(g1
I492
VdisplayedImages
p9692
tp9693
I1
s(g1
I779
VimageUriForDecoding
p9694
tp9695
I1
s(g1
I877
VAssertions
p9696
tp9697
I1
s(g1
I75
VimageUrl
p9698
tp9699
I1
s(g1
I415
Voptions
p9700
tp9701
I1
s(g1
I54
VObject
p9702
tp9703
I1
s(g1
I1251
Vuri
p9704
tp9705
I1
s(g1
I214
VimageUri
p9706
tp9707
I1
s(g1
I168
Vscale
p9708
tp9709
I1
s(g1
I100
VtoString
p9710
tp9711
I2
s(g1
I912
Vcontext
p9712
tp9713
I1
s(g1
I32
Vheight
p9714
tp9715
I1
s(g1
I147
VImageSize
p9716
tp9717
I1
s(g1
I700
Vbmp
p9718
tp9719
I1
s(g1
I221
VgetHeight
p9720
tp9721
I1
s(g1
I631
VL
p9722
tp9723
I1
s(g1
I162
VIntent
p9724
tp9725
I1
s(g1
I58
VHttpGet
p9726
tp9727
I1
s(g1
I242
VimageLayout
p9728
tp9729
I1
s(g1
I125
VScheme
p9730
tp9731
I1
s(g1
I51
VReference
p9732
tp9733
I1
s(g1
I292
Vdownloader
p9734
tp9735
I1
s(g1
I195
Vskip
p9736
tp9737
I1
s(g1
I65
VFile
p9738
tp9739
I1
s(g1
I702
VIOException
p9740
tp9741
I1
s(g1
I143
VAdapterView
p9742
tp9743
I1
s(g1
I114
VfindViewById
p9744
tp9745
I1
s(g1
I1845
Voptions
p9746
tp9747
I1
s(g1
I39
VFile
p9748
tp9749
I1
s(g1
I457
VtargetWidth
p9750
tp9751
I1
s(g1
I393
VsrcSize
p9752
tp9753
I1
s(g1
I386
Vuri
p9754
tp9755
I1
s(g1
I689
VFile
p9756
tp9757
I1
s(g1
I167
VrootView
p9758
tp9759
I1
s(g1
I231
VLruDiscCache
p9760
tp9761
I1
s(g1
I514
VgetImageScaleType
p9762
tp9763
I1
s(g1
I581
VisShowImageForEmptyUri
p9764
tp9765
I1
s(g1
I27
VBitmap
p9766
tp9767
I1
s(g1
I95
VtargetSize
p9768
tp9769
I1
s(g1
I718
VdecodeImage
p9770
tp9771
I1
s(g1
I170
VIOException
p9772
tp9773
I1
s(g1
I126
VisViewWasReused
p9774
tp9775
I1
s(g1
I372
VcreateConnection
p9776
tp9777
I2
s(g1
I694
Vbos
p9778
tp9779
I1
s(g1
I391
VloadAnimation
p9780
tp9781
I1
s(g1
I190
VlastUsageDates
p9782
tp9783
I1
s(g1
I1309
VdiscCache
p9784
tp9785
I1
s(g1
I47
VInputStream
p9786
tp9787
I1
s(g1
I189
VimageStream
p9788
tp9789
I1
s(g1
I101
VViewScaleType
p9790
tp9791
I1
s(g1
I567
Vhandler
p9792
tp9793
I1
s(g1
I831
Vres
p9794
tp9795
I1
s(g1
I472
Vlog
p9796
tp9797
I1
s(g1
I52
VreadTimeout
p9798
tp9799
I2
s(g1
I1178
VL
p9800
tp9801
I1
s(g1
I1274
VtargetFile
p9802
tp9803
I1
s(g1
I1639
Ve
p9804
tp9805
I2
s(g1
I633
Vlistener
p9806
tp9807
I1
s(g1
I193
Vvalues
p9808
tp9809
I1
s(g1
I98
Voptions
p9810
tp9811
I1
s(g1
I470
VimageHeight
p9812
tp9813
I1
s(g1
I684
VLoadAndDisplayImageTask
p9814
tp9815
I1
s(g1
I814
VimageLoadingInfo
p9816
tp9817
I1
s(g1
I347
Vlistener
p9818
tp9819
I1
s(g1
I295
VString
p9820
tp9821
I1
s(g1
I160
VView
p9822
tp9823
I1
s(g1
I191
VgetSize
p9824
tp9825
I1
s(g1
I100
VasList
p9826
tp9827
I1
s(g1
I322
VBitmap
p9828
tp9829
I1
s(g1
I45
VString
p9830
tp9831
I1
s(g1
I1340
VBitmap
p9832
tp9833
I2
s(g1
I1903
VtargetImageSize
p9834
tp9835
I1
s(g1
I269
VNetworkDeniedImageDownloader
p9836
tp9837
I1
s(g1
I336
VImageSize
p9838
tp9839
I1
s(g1
I302
VimageFile
p9840
tp9841
I1
s(g1
I330
VmemoryCacheSize
p9842
tp9843
I1
s(g1
I836
VgetBitmap
p9844
tp9845
I1
s(g1
I132
VvalueSizes
p9846
tp9847
I1
s(g1
I280
Vin
p9848
tp9849
I2
s(g1
I140
VtaskQueue
p9850
tp9851
I1
s(g1
I147
VbufferSize
p9852
tp9853
I1
s(g1
I68
VImageSize
p9854
tp9855
I1
s(g1
I434
VtaskExecutor
p9856
tp9857
I1
s(g1
I778
Vbmp
p9858
tp9859
I1
s(g1
I372
VInputStream
p9860
tp9861
I1
s(g1
I52
VdenyCacheImageMultipleSizesInMemory
p9862
tp9863
I1
s(g1
I290
VimageUri
p9864
tp9865
I1
s(g1
I431
Vconfiguration
p9866
tp9867
I1
s(g1
I1591
Vkey
p9868
tp9869
I2
s(g1
I559
VImageDecodingInfo
p9870
tp9871
I1
s(g1
I1086
VgetDeclaredField
p9872
tp9873
I1
s(g1
I30
VfileNameGenerator
p9874
tp9875
I1
s(g1
I547
Vimage
p9876
tp9877
I1
s(g1
I337
VViewHolder
p9878
tp9879
I1
s(g1
I60
VString
p9880
tp9881
I1
s.