(lp0
(Vinsert
p1
I42
VSimpleName: parseFromLine
p2
tp3
a(Vinsert
p4
I42
VSimpleName: sqrt
p5
tp6
a(Vinsert
p7
I42
VSimpleName: isAvailable
p8
tp9
a(Vinsert
p10
I42
VSimpleName: setIUpdater
p11
tp12
a(Vinsert
p13
I42
VSimpleName: getOutputs
p14
tp15
a(Vinsert
p16
I42
VSimpleName: policyLearning
p17
tp18
a(Vinsert
p19
I42
VSimpleName: getAggregationsCount
p20
tp21
a(Vinsert
p22
I42
VSimpleName: setMasterHost
p23
tp24
a(Vinsert
p25
I42
VSimpleName: registerCustomLayer
p26
tp27
a(Vinsert
p28
I42
VSimpleName: linear
p29
tp30
a(Vinsert
p31
I42
VSimpleName: isStatic
p32
tp33
a(Vinsert
p34
I42
VSimpleName: unsafeDuplication
p35
tp36
a(Vinsert
p37
I42
VSimpleName: getScoreSum
p38
tp39
a(Vinsert
p40
I42
VSimpleName: gradientForVariable
p41
tp42
a(Vinsert
p43
I42
VSimpleName: export
p44
tp45
a(Vinsert
p46
I42
VSimpleName: loadTxtVectors
p47
tp48
a(Vinsert
p49
I42
VSimpleName: getBatch
p50
tp51
a(Vinsert
p52
I42
VSimpleName: getObject
p53
tp54
a(Vinsert
p55
I42
VSimpleName: addPreProcessor
p56
tp57
a(Vinsert
p58
I42
VSimpleName: path
p59
tp60
a(Vinsert
p61
I42
VSimpleName: getModelFieldOutputLayers
p62
tp63
a(Vinsert
p64
I42
VSimpleName: randn
p65
tp66
a(Vinsert
p67
I42
VSimpleName: setScale
p68
tp69
a(Vinsert
p70
I42
VSimpleName: iterateSample
p71
tp72
a(Vinsert
p73
I42
VSimpleName: policySpill
p74
tp75
a(Vinsert
p76
I42
VSimpleName: totalWordOccurrences
p77
tp78
a(Vinsert
p79
I42
VSimpleName: testFetchBatchSize
p80
tp81
a(Vinsert
p82
I42
VSimpleName: rdiv
p83
tp84
a(Vinsert
p85
I42
VSimpleName: setSampleHiddenActivationsByLayer
p86
tp87
a(Vinsert
p88
I42
VSimpleName: randomUUID
p89
tp90
a(Vinsert
p91
I42
VSimpleName: getParentFile
p92
tp93
a(Vinsert
p94
I42
VSimpleName: poll
p95
tp96
a(Vinsert
p97
I42
VSimpleName: unzipFileTo
p98
tp99
a(Vinsert
p100
I42
VSimpleName: getActivationFunction
p101
tp102
a(Vinsert
p103
I42
VSimpleName: setListener
p104
tp105
a(Vinsert
p106
I42
VSimpleName: println
p107
tp108
a(Vinsert
p109
I42
VSimpleName: getRow
p110
tp111
a(Vinsert
p112
I42
VSimpleName: getConnection
p113
tp114
a(Vinsert
p115
I42
VSimpleName: unmodifiableSet
p116
tp117
a(Vinsert
p118
I42
VSimpleName: withActivation
p119
tp120
a(Vinsert
p121
I42
VSimpleName: isCollectTrainingStats
p122
tp123
a(Vinsert
p124
I42
VSimpleName: getLossFunction
p125
tp126
a(Vinsert
p127
I42
VSimpleName: getUNK
p128
tp129
a(Vinsert
p130
I42
VSimpleName: getLAYER_FIELD_KERAS_VERSION
p131
tp132
a(Vinsert
p133
I42
VSimpleName: doSliceWise
p134
tp135
a(Vinsert
p136
I42
VSimpleName: mapper
p137
tp138
a(Vinsert
p139
I42
VSimpleName: matches
p140
tp141
a(Vinsert
p142
I42
VSimpleName: isShouldBackProp
p143
tp144
a(Vinsert
p145
I42
VSimpleName: getL1ByParam
p146
tp147
a(Vinsert
p148
I42
VSimpleName: getIfNotExists
p149
tp150
a(Vinsert
p151
I42
VSimpleName: getBroadCastVocabCache
p152
tp153
a(Vinsert
p154
I42
VSimpleName: isCompressedFilename
p155
tp156
a(Vinsert
p157
I42
VSimpleName: setRoundCodeLayerInput
p158
tp159
a(Vinsert
p160
I42
VSimpleName: getConvolutionMode
p161
tp162
a(Vinsert
p163
I42
VSimpleName: makePair
p164
tp165
a(Vinsert
p166
I42
VSimpleName: setCacheMode
p167
tp168
a(Vinsert
p169
I42
VSimpleName: setPaint
p170
tp171
a(Vinsert
p172
I42
VSimpleName: print
p173
tp174
a(Vinsert
p175
I42
VSimpleName: mul
p176
tp177
a(Vinsert
p178
I42
VSimpleName: getLearningRateAfter
p179
tp180
a(Vinsert
p181
I42
VSimpleName: getUpdaterStateViewArray
p182
tp183
a(Vinsert
p184
I42
VSimpleName: buildTree
p185
tp186
a(Vinsert
p187
I42
VSimpleName: decodeBase64
p188
tp189
a(Vinsert
p190
I42
VSimpleName: setUseRegularization
p191
tp192
a(Vinsert
p193
I42
VSimpleName: loadGoogleModel
p194
tp195
a(Vinsert
p196
I42
VSimpleName: set
p197
tp198
a(Vinsert
p199
I42
VSimpleName: offset
p200
tp201
a(Vinsert
p202
I42
VSimpleName: addSourceFolder
p203
tp204
a(Vinsert
p205
I42
VSimpleName: featureMapSize
p206
tp207
a(Vinsert
p208
I42
VSimpleName: scoreExamplesDataSet
p209
tp210
a(Vinsert
p211
I42
VSimpleName: getScalar
p212
tp213
a(Vinsert
p214
I42
VSimpleName: writeLines
p215
tp216
a(Vinsert
p217
I42
VSimpleName: remove
p218
tp219
a(Vinsert
p220
I42
VSimpleName: exampleNegLogProbability
p221
tp222
a(Vinsert
p223
I42
VSimpleName: getCurrentLocation
p224
tp225
a(Vinsert
p226
I42
VSimpleName: getIUpdater
p227
tp228
a(Vinsert
p229
I42
VSimpleName: getNextEntry
p230
tp231
a(Vinsert
p232
I42
VSimpleName: removeElement
p233
tp234
a(Vinsert
p235
I42
VSimpleName: withVisibleBias
p236
tp237
a(Vinsert
p238
I42
VSimpleName: setVisibleUnitByLayer
p239
tp240
a(Vinsert
p241
I42
VSimpleName: getMomentum
p242
tp243
a(Vinsert
p244
I42
VSimpleName: sample
p245
tp246
a(Vinsert
p247
I42
VSimpleName: toSeconds
p248
tp249
a(Vinsert
p250
I42
VSimpleName: getOptimizer
p251
tp252
a(Vinsert
p253
I42
VSimpleName: toOutcomeVector
p254
tp255
a(Vinsert
p256
I42
VSimpleName: oneMinus
p257
tp258
a(Vinsert
p259
I42
VSimpleName: split
p260
tp261
a(Vinsert
p262
I42
VSimpleName: setnIn
p263
tp264
a(Vinsert
p265
I42
VSimpleName: shutdownAll
p266
tp267
a(Vinsert
p268
I42
VSimpleName: getType
p269
tp270
a(Vinsert
p271
I42
VSimpleName: createDouble
p272
tp273
a(Vinsert
p274
I42
VSimpleName: isMatrix
p275
tp276
a(Vinsert
p277
I42
VSimpleName: weightInit
p278
tp279
a(Vinsert
p280
I42
VSimpleName: createFloat
p281
tp282
a(Vinsert
p283
I42
VSimpleName: parseDouble
p284
tp285
a(Vinsert
p286
I42
VSimpleName: getInputPreProcessors
p287
tp288
a(Vinsert
p289
I42
VSimpleName: value
p290
tp291
a(Vinsert
p292
I42
VSimpleName: isNormalizeZeroMeanAndUnitVariance
p293
tp294
a(Vinsert
p295
I42
VSimpleName: updateExternalGradient
p296
tp297
a(Vinsert
p298
I42
VSimpleName: addShard
p299
tp300
a(Vinsert
p301
I42
VSimpleName: setLayerType
p302
tp303
a(Vinsert
p304
I42
VSimpleName: addRoutes
p305
tp306
a(Vinsert
p307
I42
VSimpleName: singleton
p308
tp309
a(Vinsert
p310
I42
VSimpleName: newCAS
p311
tp312
a(Vinsert
p313
I42
VSimpleName: getJVMUID
p314
tp315
a(Vinsert
p316
I42
VSimpleName: createTransform
p317
tp318
a(Vinsert
p319
I42
VSimpleName: activateScavenger
p320
tp321
a(Vinsert
p322
I42
VSimpleName: getGamma
p323
tp324
a(Vinsert
p325
I42
VSimpleName: setResetAdaGradIterations
p326
tp327
a(Vinsert
p328
I42
VSimpleName: setFeaturesCol
p329
tp330
a(Vinsert
p331
I42
VSimpleName: keySet
p332
tp333
a(Vinsert
p334
I42
VSimpleName: getClasses
p335
tp336
a(Vinsert
p337
I42
VSimpleName: modelJsonFilename
p338
tp339
a(Vinsert
p340
I42
VSimpleName: getAndActivateWorkspace
p341
tp342
a(Vinsert
p343
I42
VSimpleName: toUpperCase
p344
tp345
a(Vinsert
p346
I42
VSimpleName: buildMergedVocabulary
p347
tp348
a(Vinsert
p349
I42
VSimpleName: scoreCalculator
p350
tp351
a(Vinsert
p352
I42
VSimpleName: fromFloat
p353
tp354
a(Vinsert
p355
I42
VSimpleName: hasInvalidNumber
p356
tp357
a(Vinsert
p358
I42
VSimpleName: putDouble
p359
tp360
a(Vinsert
p361
I42
VSimpleName: setModelSaver
p362
tp363
a(Vinsert
p364
I42
VSimpleName: getResults
p365
tp366
a(Vinsert
p367
I42
VSimpleName: addLabel
p368
tp369
a(Vinsert
p370
I42
VSimpleName: stringWithLabels
p371
tp372
a(Vinsert
p373
I42
VSimpleName: applyWhere
p374
tp375
a(Vinsert
p376
I42
VSimpleName: lastIndexOf
p377
tp378
a(Vinsert
p379
I42
VSimpleName: compareTo
p380
tp381
a(Vinsert
p382
I42
VSimpleName: touch
p383
tp384
a(Vinsert
p385
I42
VSimpleName: setMaxIter
p386
tp387
a(Vinsert
p388
I42
VSimpleName: iterationTerminationConditions
p389
tp390
a(Vinsert
p391
I42
VSimpleName: plotNetworkGradient
p392
tp393
a(Vinsert
p394
I42
VSimpleName: learningRateForLayer
p395
tp396
a(Vinsert
p397
I42
VSimpleName: setDescription
p398
tp399
a(Vinsert
p400
I42
VSimpleName: setK
p401
tp402
a(Vinsert
p403
I42
VSimpleName: collect
p404
tp405
a(Vinsert
p406
I42
VSimpleName: writeWord2VecModel
p407
tp408
a(Vinsert
p409
I42
VSimpleName: getStateViewArray
p410
tp411
a(Vinsert
p412
I42
VSimpleName: buildVocab
p413
tp414
a(Vinsert
p415
I42
VSimpleName: putFloat
p416
tp417
a(Vinsert
p418
I42
VSimpleName: setActivationFunction
p419
tp420
a(Vinsert
p421
I42
VSimpleName: addAndGet
p422
tp423
a(Vinsert
p424
I42
VSimpleName: clearVertex
p425
tp426
a(Vinsert
p427
I42
VSimpleName: lineSearchBackProp
p428
tp429
a(Vinsert
p430
I42
VSimpleName: compare
p431
tp432
a(Vinsert
p433
I42
VSimpleName: addElement
p434
tp435
a(Vinsert
p436
I42
VSimpleName: squeeze
p437
tp438
a(Vinsert
p439
I42
VSimpleName: isMinimize
p440
tp441
a(Vinsert
p442
I42
VSimpleName: writeStartArray
p443
tp444
a(Vinsert
p445
I42
VSimpleName: normalizeZeroMeanZeroUnitVariance
p446
tp447
a(Vinsert
p448
I42
VSimpleName: addReader
p449
tp450
a(Vinsert
p451
I42
VSimpleName: getClass
p452
tp453
a(Vinsert
p454
I42
VSimpleName: getUpdaterState
p455
tp456
a(Vinsert
p457
I42
VSimpleName: cache
p458
tp459
a(Vinsert
p460
I42
VSimpleName: getTreesWithLabels
p461
tp462
a(Vinsert
p463
I42
VSimpleName: getIupdater
p464
tp465
a(Vinsert
p466
I42
VSimpleName: setIndex
p467
tp468
a(Vinsert
p469
I42
VSimpleName: interval
p470
tp471
a(Vinsert
p472
I42
VSimpleName: isInputPreProcessor
p473
tp474
a(Vinsert
p475
I42
VSimpleName: search
p476
tp477
a(Vinsert
p478
I42
VSimpleName: getMemoryFootprint
p479
tp480
a(Vinsert
p481
I42
VSimpleName: synchonrizeRng
p482
tp483
a(Vinsert
p484
I42
VSimpleName: _2
p485
tp486
a(Vinsert
p487
I42
VSimpleName: normal
p488
tp489
a(Vinsert
p490
I42
VSimpleName: toMultiDataSetIterator
p491
tp492
a(Vinsert
p493
I42
VSimpleName: isPretrainLayer
p494
tp495
a(Vinsert
p496
I42
VSimpleName: loadModel
p497
tp498
a(Vinsert
p499
I42
VSimpleName: getSTOP
p500
tp501
a(Vinsert
p502
I42
VSimpleName: withImageId
p503
tp504
a(Vinsert
p505
I42
VSimpleName: initializeLayers
p506
tp507
a(Vinsert
p508
I42
VSimpleName: getConvolutionType
p509
tp510
a(Vinsert
p511
I42
VSimpleName: getModelJson
p512
tp513
a(Vinsert
p514
I42
VSimpleName: overrideLayerShape
p515
tp516
a(Vinsert
p517
I42
VSimpleName: getRecordReaders
p518
tp519
a(Vinsert
p520
I42
VSimpleName: registerConfWithZooKeeper
p521
tp522
a(Vinsert
p523
I42
VSimpleName: processMinibatch
p524
tp525
a(Vinsert
p526
I42
VSimpleName: rsub
p527
tp528
a(Vinsert
p529
I42
VSimpleName: setUpdater
p530
tp531
a(Vinsert
p532
I42
VSimpleName: withVisible
p533
tp534
a(Vinsert
p535
I42
VSimpleName: getListBuilder
p536
tp537
a(Vinsert
p538
I42
VSimpleName: getX
p539
tp540
a(Vinsert
p541
I42
VSimpleName: applyDropConnect
p542
tp543
a(Vinsert
p544
I42
VSimpleName: getSequencesCount
p545
tp546
a(Vinsert
p547
I42
VSimpleName: setGradients
p548
tp549
a(Vinsert
p550
I42
VSimpleName: setTokenizerFactory
p551
tp552
a(Vinsert
p553
I42
VSimpleName: toInts
p554
tp555
a(Vinsert
p556
I42
VSimpleName: getRenderEpochs
p557
tp558
a(Vinsert
p559
I42
VSimpleName: getHottestNetworkA
p560
tp561
a(Vinsert
p562
I42
VSimpleName: process
p563
tp564
a(Vinsert
p565
I42
VSimpleName: capitalizeFully
p566
tp567
a(Vinsert
p568
I42
VSimpleName: getStaticInfoClass
p569
tp570
a(Vinsert
p571
I42
VSimpleName: transform
p572
tp573
a(Vinsert
p574
I42
VSimpleName: getLabelsMaskArray
p575
tp576
a(Vinsert
p577
I42
VSimpleName: writeDouble
p578
tp579
a(Vinsert
p580
I42
VSimpleName: setPort
p581
tp582
a(Vinsert
p583
I42
VSimpleName: getIterationTerminationConditions
p584
tp585
a(Vinsert
p586
I42
VSimpleName: getEmptyConstructor
p587
tp588
a(Vinsert
p589
I42
VSimpleName: getEdgesOut
p590
tp591
a(Vinsert
p592
I42
VSimpleName: logSplitStart
p593
tp594
a(Vinsert
p595
I42
VSimpleName: getParameterValue
p596
tp597
a(Vinsert
p598
I42
VSimpleName: putAll
p599
tp600
a(Vinsert
p601
I42
VSimpleName: putShort
p602
tp603
a(Vinsert
p604
I42
VSimpleName: hasHardwareInfo
p605
tp606
a(Vinsert
p607
I42
VSimpleName: writeTxt
p608
tp609
a(Vinsert
p610
I42
VSimpleName: getDepth
p611
tp612
a(Vinsert
p613
I42
VSimpleName: getValueGradient
p614
tp615
a(Vinsert
p616
I42
VSimpleName: sampling
p617
tp618
a(Vinsert
p619
I42
VSimpleName: newBuilder
p620
tp621
a(Vinsert
p622
I42
VSimpleName: setHiddenType
p623
tp624
a(Vinsert
p625
I42
VSimpleName: getURI
p626
tp627
a(Vinsert
p628
I42
VSimpleName: accumulate
p629
tp630
a(Vinsert
p631
I42
VSimpleName: intValue
p632
tp633
a(Vinsert
p634
I42
VSimpleName: getCacheMode
p635
tp636
a(Vinsert
p637
I42
VSimpleName: info
p638
tp639
a(Vinsert
p640
I42
VSimpleName: setBatchSize
p641
tp642
a(Vinsert
p643
I42
VSimpleName: modelBuilder
p644
tp645
a(Vinsert
p646
I42
VSimpleName: buildVocabWordListRDD
p647
tp648
a(Vinsert
p649
I42
VSimpleName: setStopList
p650
tp651
a(Vinsert
p652
I42
VSimpleName: getControllerAddress
p653
tp654
a(Vinsert
p655
I42
VSimpleName: getWeights
p656
tp657
a(Vinsert
p658
I42
VSimpleName: getSparsity
p659
tp660
a(Vinsert
p661
I42
VSimpleName: routeTo
p662
tp663
a(Vinsert
p664
I42
VSimpleName: isAssignableFrom
p665
tp666
a(Vinsert
p667
I42
VSimpleName: getDecoder
p668
tp669
a(Vinsert
p670
I42
VSimpleName: complainAboutMissMatchedMatrices
p671
tp672
a(Vinsert
p673
I42
VSimpleName: getParametersSum
p674
tp675
a(Vinsert
p676
I42
VSimpleName: enableScavenger
p677
tp678
a(Vinsert
p679
I42
VSimpleName: setElementFrequency
p680
tp681
a(Vinsert
p682
I42
VSimpleName: getScheme
p683
tp684
a(Vinsert
p685
I42
VSimpleName: listSessionIDs
p686
tp687
a(Vinsert
p688
I42
VSimpleName: createBinomial
p689
tp690
a(Vinsert
p691
I42
VSimpleName: index
p692
tp693
a(Vinsert
p694
I42
VSimpleName: writeModel
p695
tp696
a(Vinsert
p697
I42
VSimpleName: argMax
p698
tp699
a(Vinsert
p700
I42
VSimpleName: foreach
p701
tp702
a(Vinsert
p703
I42
VSimpleName: setOutputCol
p704
tp705
a(Vinsert
p706
I42
VSimpleName: getClassLoader
p707
tp708
a(Vinsert
p709
I42
VSimpleName: sequenceAlignmentMode
p710
tp711
a(Vinsert
p712
I42
VSimpleName: createComplex
p713
tp714
a(Vinsert
p715
I42
VSimpleName: find
p716
tp717
a(Vinsert
p718
I42
VSimpleName: isAttached
p719
tp720
a(Vinsert
p721
I42
VSimpleName: reconEntropy
p722
tp723
a(Vinsert
p724
I42
VSimpleName: getPredictedTotal
p725
tp726
a(Vinsert
p727
I42
VSimpleName: minGain
p728
tp729
a(Vinsert
p730
I42
VSimpleName: floatToIntBits
p731
tp732
a(Vinsert
p733
I42
VSimpleName: getVisibleUnit
p734
tp735
a(Vinsert
p736
I42
VSimpleName: removeWorker
p737
tp738
a(Vinsert
p739
I42
VSimpleName: submit
p740
tp741
a(Vinsert
p742
I42
VSimpleName: runPreTrainIterations
p743
tp744
a(Vinsert
p745
I42
VSimpleName: momentum
p746
tp747
a(Vinsert
p748
I42
VSimpleName: getHSBColor
p749
tp750
a(Vinsert
p751
I42
VSimpleName: newInstance
p752
tp753
a(Vinsert
p754
I42
VSimpleName: getCudnnBwdFilterAlgo
p755
tp756
a(Vinsert
p757
I42
VSimpleName: replace
p758
tp759
a(Vinsert
p760
I42
VSimpleName: setCurrentWorkspace
p761
tp762
a(Vinsert
p763
I42
VSimpleName: setRegion
p764
tp765
a(Vinsert
p766
I42
VSimpleName: setSplit
p767
tp768
a(Vinsert
p769
I42
VSimpleName: convolutionalFlat
p770
tp771
a(Vinsert
p772
I42
VSimpleName: setUserInfo
p773
tp774
a(Vinsert
p775
I42
VSimpleName: hasToken
p776
tp777
a(Vinsert
p778
I42
VSimpleName: registerModule
p779
tp780
a(Vinsert
p781
I42
VSimpleName: charAt
p782
tp783
a(Vinsert
p784
I42
VSimpleName: accuracy
p785
tp786
a(Vinsert
p787
I42
VSimpleName: setMasterUrl
p788
tp789
a(Vinsert
p790
I42
VSimpleName: corruptionLevel
p791
tp792
a(Vinsert
p793
I42
VSimpleName: execAndReturn
p794
tp795
a(Vinsert
p796
I42
VSimpleName: addWorker
p797
tp798
a(Vinsert
p799
I42
VSimpleName: getRenderWeightEpochs
p800
tp801
a(Vinsert
p802
I42
VSimpleName: getTime
p803
tp804
a(Vinsert
p805
I42
VSimpleName: dataType
p806
tp807
a(Vinsert
p808
I42
VSimpleName: getFrequencyShift
p809
tp810
a(Vinsert
p811
I42
VSimpleName: getExtraArgs
p812
tp813
a(Vinsert
p814
I42
VSimpleName: next
p815
tp816
a(Vinsert
p817
I42
VSimpleName: getCompressor
p818
tp819
a(Vinsert
p820
I42
VSimpleName: tokenFor
p821
tp822
a(Vinsert
p823
I42
VSimpleName: setEnabled
p824
tp825
a(Vinsert
p826
I42
VSimpleName: padding
p827
tp828
a(Vinsert
p829
I42
VSimpleName: distributionVariationRateLessThan
p830
tp831
a(Vinsert
p832
I42
VSimpleName: setNetworkType
p833
tp834
a(Vinsert
p835
I42
VSimpleName: reverseCopy
p836
tp837
a(Vinsert
p838
I42
VSimpleName: isUseRegularization
p839
tp840
a(Vinsert
p841
I42
VSimpleName: validateEvent
p842
tp843
a(Vinsert
p844
I42
VSimpleName: scaleByMax
p845
tp846
a(Vinsert
p847
I42
VSimpleName: sampleHiddenGivenVisible
p848
tp849
a(Vinsert
p850
I42
VSimpleName: addSentenceIterator
p851
tp852
a(Vinsert
p853
I42
VSimpleName: getConf
p854
tp855
a(Vinsert
p856
I42
VSimpleName: words
p857
tp858
a(Vinsert
p859
I42
VSimpleName: fromLabeledPoint
p860
tp861
a(Vinsert
p862
I42
VSimpleName: withClazz
p863
tp864
a(Vinsert
p865
I42
VSimpleName: getHiddenLayerSizes
p866
tp867
a(Vinsert
p868
I42
VSimpleName: paramNames
p869
tp870
a(Vinsert
p871
I42
VSimpleName: read
p872
tp873
a(Vinsert
p874
I42
VSimpleName: getElementByIndex
p875
tp876
a(Vinsert
p877
I42
VSimpleName: sortWithIndices
p878
tp879
a(Vinsert
p880
I42
VSimpleName: cumsum
p881
tp882
a(Vinsert
p883
I42
VSimpleName: validateCnnKernelStridePadding
p884
tp885
a(Vinsert
p886
I42
VSimpleName: calculateAUC
p887
tp888
a(Vinsert
p889
I42
VSimpleName: classCount
p890
tp891
a(Vinsert
p892
I42
VSimpleName: actorOf
p893
tp894
a(Vinsert
p895
I42
VSimpleName: getInputPreProcess
p896
tp897
a(Vinsert
p898
I42
VSimpleName: wordChars
p899
tp900
a(Vinsert
p901
I42
VSimpleName: unSafeLinearIndex
p902
tp903
a(Vinsert
p904
I42
VSimpleName: l1
p905
tp906
a(Vinsert
p907
I42
VSimpleName: getWidth
p908
tp909
a(Vinsert
p910
I42
VSimpleName: nextLabel
p911
tp912
a(Vinsert
p913
I42
VSimpleName: getStore
p914
tp915
a(Vinsert
p916
I42
VSimpleName: deleteDirectory
p917
tp918
a(Vinsert
p919
I42
VSimpleName: children
p920
tp921
a(Vinsert
p922
I42
VSimpleName: enableDebug
p923
tp924
a(Vinsert
p925
I42
VSimpleName: reconstructionDistribution
p926
tp927
a(Vinsert
p928
I42
VSimpleName: getRng
p929
tp930
a(Vinsert
p931
I42
VSimpleName: setFetchSize
p932
tp933
a(Vinsert
p934
I42
VSimpleName: getLogisticSolverNet
p935
tp936
a(Vinsert
p937
I42
VSimpleName: getCodec
p938
tp939
a(Vinsert
p940
I42
VSimpleName: getTotalWordCount
p941
tp942
a(Vinsert
p943
I42
VSimpleName: isLockGammaBeta
p944
tp945
a(Vinsert
p946
I42
VSimpleName: setSlice
p947
tp948
a(Vinsert
p949
I42
VSimpleName: position
p950
tp951
a(Vinsert
p952
I42
VSimpleName: createTempFile
p953
tp954
a(Vinsert
p955
I42
VSimpleName: dgesv
p956
tp957
a(Vinsert
p958
I42
VSimpleName: fanIn
p959
tp960
a(Vinsert
p961
I42
VSimpleName: buildVpTree
p962
tp963
a(Vinsert
p964
I42
VSimpleName: numParamsBackprop
p965
tp966
a(Vinsert
p967
I42
VSimpleName: preProcess
p968
tp969
a(Vinsert
p970
I42
VSimpleName: isAlive
p971
tp972
a(Vinsert
p973
I42
VSimpleName: uploadFileList
p974
tp975
a(Vinsert
p976
I42
VSimpleName: setCache
p977
tp978
a(Vinsert
p979
I42
VSimpleName: getLayerSize
p980
tp981
a(Vinsert
p982
I42
VSimpleName: parseInt
p983
tp984
a(Vinsert
p985
I42
VSimpleName: isColumnVector
p986
tp987
a(Vinsert
p988
I42
VSimpleName: combine
p989
tp990
a(Vinsert
p991
I42
VSimpleName: setNGrams
p992
tp993
a(Vinsert
p994
I42
VSimpleName: averagingFrequency
p995
tp996
a(Vinsert
p997
I42
VSimpleName: layerWiseCOnfiguration
p998
tp999
a(Vinsert
p1000
I42
VSimpleName: getMemoryReport
p1001
tp1002
a(Vinsert
p1003
I42
VSimpleName: randomDoubleBetween
p1004
tp1005
a(Vinsert
p1006
I42
VSimpleName: cublasZscal
p1007
tp1008
a(Vinsert
p1009
I42
VSimpleName: resetWeights
p1010
tp1011
a(Vinsert
p1012
I42
VSimpleName: multi
p1013
tp1014
a(Vinsert
p1015
I42
VSimpleName: numDims
p1016
tp1017
a(Vinsert
p1018
I42
VSimpleName: to
p1019
tp1020
a(Vinsert
p1021
I42
VSimpleName: master
p1022
tp1023
a(Vinsert
p1024
I42
VSimpleName: getDeclaredField
p1025
tp1026
a(Vinsert
p1027
I42
VSimpleName: getSecond
p1028
tp1029
a(Vinsert
p1030
I42
VSimpleName: numWorkers
p1031
tp1032
a(Vinsert
p1033
I42
VSimpleName: getGraphNodes
p1034
tp1035
a(Vinsert
p1036
I42
VSimpleName: setTolerance
p1037
tp1038
a(Vinsert
p1039
I42
VSimpleName: getBeanClass
p1040
tp1041
a(Vinsert
p1042
I42
VSimpleName: getPoints
p1043
tp1044
a(Vinsert
p1045
I42
VSimpleName: repeat
p1046
tp1047
a(Vinsert
p1048
I42
VSimpleName: getLogger
p1049
tp1050
a(Vinsert
p1051
I42
VSimpleName: trainTillConverge
p1052
tp1053
a(Vinsert
p1054
I42
VSimpleName: maxOutcomeForRow
p1055
tp1056
a(Vinsert
p1057
I42
VSimpleName: getINIT_ORTHOGONAL
p1058
tp1059
a(Vinsert
p1060
I42
VSimpleName: getRowIndicesForSlice
p1061
tp1062
a(Vinsert
p1063
I42
VSimpleName: asyncSupported
p1064
tp1065
a(Vinsert
p1066
I42
VSimpleName: testReset
p1067
tp1068
a(Vinsert
p1069
I42
VSimpleName: keepBottomNKeys
p1070
tp1071
a(Vinsert
p1072
I42
VSimpleName: mkdirs
p1073
tp1074
a(Vinsert
p1075
I42
VSimpleName: addVariable
p1076
tp1077
a(Vinsert
p1078
I42
VSimpleName: useHierarchicSoftmax
p1079
tp1080
a(Vinsert
p1081
I42
VSimpleName: getSourceGraph
p1082
tp1083
a(Vinsert
p1084
I42
VSimpleName: divRowVector
p1085
tp1086
a(Vinsert
p1087
I42
VSimpleName: subColumnVector
p1088
tp1089
a(Vinsert
p1090
I42
VSimpleName: getSliceOfTensor
p1091
tp1092
a(Vinsert
p1093
I42
VSimpleName: asMatrix
p1094
tp1095
a(Vinsert
p1096
I42
VSimpleName: calcStridesFortran
p1097
tp1098
a(Vinsert
p1099
I42
VSimpleName: withWord2Vec
p1100
tp1101
a(Vinsert
p1102
I42
VSimpleName: writeStringField
p1103
tp1104
a(Vinsert
p1105
I42
VSimpleName: register
p1106
tp1107
a(Vinsert
p1108
I42
VSimpleName: backWard
p1109
tp1110
a(Vinsert
p1111
I42
VSimpleName: reseedRandomGenerator
p1112
tp1113
a(Vinsert
p1114
I42
VSimpleName: setCurrentIteration
p1115
tp1116
a(Vinsert
p1117
I42
VSimpleName: setNOut
p1118
tp1119
a(Vinsert
p1120
I42
VSimpleName: getStateTrackerConnectionString
p1121
tp1122
a(Vinsert
p1123
I42
VSimpleName: setModelUtils
p1124
tp1125
a(Vinsert
p1126
I42
VSimpleName: reportingFrequency
p1127
tp1128
a(Vinsert
p1129
I42
VSimpleName: checkKryoConfiguration
p1130
tp1131
a(Vinsert
p1132
I42
VSimpleName: assertMultiplies
p1133
tp1134
a(Vinsert
p1135
I42
VSimpleName: getMnistExampleBatches
p1136
tp1137
a(Vinsert
p1138
I42
VSimpleName: setPretrainLearningRate
p1139
tp1140
a(Vinsert
p1141
I42
VSimpleName: getSubIterator
p1142
tp1143
a(Vinsert
p1144
I42
VSimpleName: calcGradient
p1145
tp1146
a(Vinsert
p1147
I42
VSimpleName: request
p1148
tp1149
a(Vinsert
p1150
I42
VSimpleName: getDataSetPath
p1151
tp1152
a(Vinsert
p1153
I42
VSimpleName: daxpy
p1154
tp1155
a(Vinsert
p1156
I42
VSimpleName: getResetAdaGradIterations
p1157
tp1158
a(Vinsert
p1159
I42
VSimpleName: updates
p1160
tp1161
a(Vinsert
p1162
I42
VSimpleName: vectorAlongDimension
p1163
tp1164
a(Vinsert
p1165
I42
VSimpleName: getEmbeddingLayer
p1166
tp1167
a(Vinsert
p1168
I42
VSimpleName: getShortNameForKey
p1169
tp1170
a(Vinsert
p1171
I42
VSimpleName: withClassification
p1172
tp1173
a(Vinsert
p1174
I42
VSimpleName: wordFrequency
p1175
tp1176
a(Vinsert
p1177
I42
VSimpleName: getKERAS_LOSS_SQUARED_HINGE
p1178
tp1179
a(Vinsert
p1180
I42
VSimpleName: vstack
p1181
tp1182
a(Vinsert
p1183
I42
VSimpleName: setFinetuneLearningRate
p1184
tp1185
a(Vinsert
p1186
I42
VSimpleName: sc
p1187
tp1188
a(Vinsert
p1189
I42
VSimpleName: maxNumber
p1190
tp1191
a(Vinsert
p1192
I42
VSimpleName: getMessage
p1193
tp1194
a(Vinsert
p1195
I42
VSimpleName: f1
p1196
tp1197
a(Vinsert
p1198
I42
VSimpleName: addAll
p1199
tp1200
a(Vinsert
p1201
I42
VSimpleName: parkNanos
p1202
tp1203
a(Vinsert
p1204
I42
VSimpleName: setInputMiniBatchSize
p1205
tp1206
a(Vinsert
p1207
I42
VSimpleName: combineUpdaters
p1208
tp1209
a(Vinsert
p1210
I42
VSimpleName: stats
p1211
tp1212
a(Vinsert
p1213
I42
VSimpleName: incrementBatchesRan
p1214
tp1215
a(Vinsert
p1216
I42
VSimpleName: getLossFn
p1217
tp1218
a(Vinsert
p1219
I42
VSimpleName: gradientLookupTable
p1220
tp1221
a(Vinsert
p1222
I42
VSimpleName: calculateAUCPR
p1223
tp1224
a(Vinsert
p1225
I42
VSimpleName: setEpochs
p1226
tp1227
a(Vinsert
p1228
I42
VSimpleName: setNoEdgeHandling
p1229
tp1230
a(Vinsert
p1231
I42
VSimpleName: arraycopy
p1232
tp1233
a(Vinsert
p1234
I42
VSimpleName: abs
p1235
tp1236
a(Vinsert
p1237
I42
VSimpleName: divi
p1238
tp1239
a(Vinsert
p1240
I42
VSimpleName: getWord
p1241
tp1242
a(Vinsert
p1243
I42
VSimpleName: putStaticInfo
p1244
tp1245
a(Vinsert
p1246
I42
VSimpleName: getSorted
p1247
tp1248
a(Vinsert
p1249
I42
VSimpleName: getUpdater
p1250
tp1251
a(Vinsert
p1252
I42
VSimpleName: getEps
p1253
tp1254
a(Vinsert
p1255
I42
VSimpleName: visibleUnit
p1256
tp1257
a(Vinsert
p1258
I42
VSimpleName: getStackTrace
p1259
tp1260
a(Vinsert
p1261
I42
VSimpleName: rename
p1262
tp1263
a(Vinsert
p1264
I42
VSimpleName: cublasShutdown
p1265
tp1266
a(Vinsert
p1267
I42
VSimpleName: uploadForDeployment
p1268
tp1269
a(Vinsert
p1270
I42
VSimpleName: nextInt
p1271
tp1272
a(Vinsert
p1273
I42
VSimpleName: applyConstraints
p1274
tp1275
a(Vinsert
p1276
I42
VSimpleName: isRedistributeParams
p1277
tp1278
a(Vinsert
p1279
I42
VSimpleName: readValue
p1280
tp1281
a(Vinsert
p1282
I42
VSimpleName: variables
p1283
tp1284
a(Vinsert
p1285
I42
VSimpleName: clearCounts
p1286
tp1287
a(Vinsert
p1288
I42
VSimpleName: from
p1289
tp1290
a(Vinsert
p1291
I42
VSimpleName: setEpsilon
p1292
tp1293
a(Vinsert
p1294
I42
VSimpleName: isHasWeightConstraints
p1295
tp1296
a(Vinsert
p1297
I42
VSimpleName: setAvailable
p1298
tp1299
a(Vinsert
p1300
I42
VSimpleName: stripPunct
p1301
tp1302
a(Vinsert
p1303
I42
VSimpleName: getParamOffsetStart
p1304
tp1305
a(Vinsert
p1306
I42
VSimpleName: trace
p1307
tp1308
a(Vinsert
p1309
I42
VSimpleName: evaluateRegression
p1310
tp1311
a(Vinsert
p1312
I42
VSimpleName: fromJavaRDD
p1313
tp1314
a(Vinsert
p1315
I42
VSimpleName: getMnistExampleBatch
p1316
tp1317
a(Vinsert
p1318
I42
VSimpleName: normalizeZeroMeanAndUnitVariance
p1319
tp1320
a(Vinsert
p1321
I42
VSimpleName: setVisible
p1322
tp1323
a(Vinsert
p1324
I42
VSimpleName: predict
p1325
tp1326
a(Vinsert
p1327
I42
VSimpleName: parallelCounterMap
p1328
tp1329
a(Vinsert
p1330
I42
VSimpleName: flatMapToPair
p1331
tp1332
a(Vinsert
p1333
I42
VSimpleName: buildVocabCache
p1334
tp1335
a(Vinsert
p1336
I42
VSimpleName: getForeignGradients
p1337
tp1338
a(Vinsert
p1339
I42
VSimpleName: incrementDocCount
p1340
tp1341
a(Vinsert
p1342
I42
VSimpleName: isScopeActive
p1343
tp1344
a(Vinsert
p1345
I42
VSimpleName: setBlockWhenExhausted
p1346
tp1347
a(Vinsert
p1348
I42
VSimpleName: getFinalResult
p1349
tp1350
a(Vinsert
p1351
I42
VSimpleName: rnnSetPreviousState
p1352
tp1353
a(Vinsert
p1354
I42
VSimpleName: sparsity
p1355
tp1356
a(Vinsert
p1357
I42
VSimpleName: zeros
p1358
tp1359
a(Vinsert
p1360
I42
VSimpleName: getCaffeSchema
p1361
tp1362
a(Vinsert
p1363
I42
VSimpleName: cond
p1364
tp1365
a(Vinsert
p1366
I42
VSimpleName: setnLayers
p1367
tp1368
a(Vinsert
p1369
I42
VSimpleName: intersection
p1370
tp1371
a(Vinsert
p1372
I42
VSimpleName: nextPowOf2
p1373
tp1374
a(Vinsert
p1375
I42
VSimpleName: getNodeTags
p1376
tp1377
a(Vinsert
p1378
I42
VSimpleName: copyURLToFile
p1379
tp1380
a(Vinsert
p1381
I42
VSimpleName: getWordVectors
p1382
tp1383
a(Vinsert
p1384
I42
VSimpleName: workerData
p1385
tp1386
a(Vinsert
p1387
I42
VSimpleName: eye
p1388
tp1389
a(Vinsert
p1390
I42
VSimpleName: fromBinary
p1391
tp1392
a(Vinsert
p1393
I42
VSimpleName: setConstraints
p1394
tp1395
a(Vinsert
p1396
I42
VSimpleName: getDefaultDenoisingAutoEncoderParams
p1397
tp1398
a(Vinsert
p1399
I42
VSimpleName: getDistributions
p1400
tp1401
a(Vinsert
p1402
I42
VSimpleName: getBatchSize
p1403
tp1404
a(Vinsert
p1405
I42
VSimpleName: numParams
p1406
tp1407
a(Vinsert
p1408
I42
VSimpleName: workerUpdates
p1409
tp1410
a(Vinsert
p1411
I42
VSimpleName: getKERAS_ACTIVATION_TANH
p1412
tp1413
a(Vinsert
p1414
I42
VSimpleName: valueOf
p1415
tp1416
a(Vinsert
p1417
I42
VSimpleName: setMaxStep
p1418
tp1419
a(Vinsert
p1420
I42
VSimpleName: cudnnAlgoMode
p1421
tp1422
a(Vinsert
p1423
I42
VSimpleName: setMinWordFrequency
p1424
tp1425
a(Vinsert
p1426
I42
VSimpleName: getStopWords
p1427
tp1428
a(Vinsert
p1429
I42
VSimpleName: getTo
p1430
tp1431
a(Vinsert
p1432
I42
VSimpleName: getIDropout
p1433
tp1434
a(Vinsert
p1435
I42
VSimpleName: getModelSaver
p1436
tp1437
a(Vinsert
p1438
I42
VSimpleName: randomSplit
p1439
tp1440
a(Vinsert
p1441
I42
VSimpleName: setInputIndex
p1442
tp1443
a(Vinsert
p1444
I42
VSimpleName: getConfiguration
p1445
tp1446
a(Vinsert
p1447
I42
VSimpleName: layer
p1448
tp1449
a(Vinsert
p1450
I42
VSimpleName: getWeightInit
p1451
tp1452
a(Vinsert
p1453
I42
VSimpleName: setNumFeatures
p1454
tp1455
a(Vinsert
p1456
I42
VSimpleName: iterationCountLessThan
p1457
tp1458
a(Vinsert
p1459
I42
VSimpleName: awaitTermination
p1460
tp1461
a(Vinsert
p1462
I42
VSimpleName: applyIndexes
p1463
tp1464
a(Vinsert
p1465
I42
VSimpleName: setTokenPreProcessor
p1466
tp1467
a(Vinsert
p1468
I42
VSimpleName: getOptimizationAlgo
p1469
tp1470
a(Vinsert
p1471
I42
VSimpleName: run
p1472
tp1473
a(Vinsert
p1474
I42
VSimpleName: hiddenUnit
p1475
tp1476
a(Vinsert
p1477
I42
VSimpleName: incrementWordCounter
p1478
tp1479
a(Vinsert
p1480
I42
VSimpleName: newRecord
p1481
tp1482
a(Vinsert
p1483
I42
VSimpleName: getElements
p1484
tp1485
a(Vinsert
p1486
I42
VSimpleName: random
p1487
tp1488
a(Vinsert
p1489
I42
VSimpleName: batch
p1490
tp1491
a(Vinsert
p1492
I42
VSimpleName: useExistingWordVectors
p1493
tp1494
a(Vinsert
p1495
I42
VSimpleName: getLAYER_FIELD_INIT_SCALE
p1496
tp1497
a(Vinsert
p1498
I42
VSimpleName: score
p1499
tp1500
a(Vinsert
p1501
I42
VSimpleName: gibbhVh
p1502
tp1503
a(Vinsert
p1504
I42
VSimpleName: test
p1505
tp1506
a(Vinsert
p1507
I42
VSimpleName: getVisibleType
p1508
tp1509
a(Vinsert
p1510
I42
VSimpleName: setBegin
p1511
tp1512
a(Vinsert
p1513
I42
VSimpleName: readOnly
p1514
tp1515
a(Vinsert
p1516
I42
VSimpleName: pack
p1517
tp1518
a(Vinsert
p1519
I42
VSimpleName: queueReport
p1520
tp1521
a(Vinsert
p1522
I42
VSimpleName: stopFit
p1523
tp1524
a(Vinsert
p1525
I42
VSimpleName: weightKeys
p1526
tp1527
a(Vinsert
p1528
I42
VSimpleName: getTrees
p1529
tp1530
a(Vinsert
p1531
I42
VSimpleName: reportDataSetMetaData
p1532
tp1533
a(Vinsert
p1534
I42
VSimpleName: muli
p1535
tp1536
a(Vinsert
p1537
I42
VSimpleName: open
p1538
tp1539
a(Vinsert
p1540
I42
VSimpleName: applySubsampling
p1541
tp1542
a(Vinsert
p1543
I42
VSimpleName: getNetworkMask
p1544
tp1545
a(Vinsert
p1546
I42
VSimpleName: createTempDirectory
p1547
tp1548
a(Vinsert
p1549
I42
VSimpleName: getInput
p1550
tp1551
a(Vinsert
p1552
I42
VSimpleName: assign
p1553
tp1554
a(Vinsert
p1555
I42
VSimpleName: numVertices
p1556
tp1557
a(Vinsert
p1558
I42
VSimpleName: createDistribution
p1559
tp1560
a(Vinsert
p1561
I42
VSimpleName: configure
p1562
tp1563
a(Vinsert
p1564
I42
VSimpleName: getTimeSeriesLength
p1565
tp1566
a(Vinsert
p1567
I42
VSimpleName: parseBoolean
p1568
tp1569
a(Vinsert
p1570
I42
VSimpleName: isInfinite
p1571
tp1572
a(Vinsert
p1573
I42
VSimpleName: init
p1574
tp1575
a(Vinsert
p1576
I42
VSimpleName: pooling2D
p1577
tp1578
a(Vinsert
p1579
I42
VSimpleName: setMode
p1580
tp1581
a(Vinsert
p1582
I42
VSimpleName: setAddress
p1583
tp1584
a(Vinsert
p1585
I42
VSimpleName: logRepartitionEnd
p1586
tp1587
a(Vinsert
p1588
I42
VSimpleName: getDeviceForCurrentThread
p1589
tp1590
a(Vinsert
p1591
I42
VSimpleName: matcher
p1592
tp1593
a(Vinsert
p1594
I42
VSimpleName: getTerminationCondition
p1595
tp1596
a(Vinsert
p1597
I42
VSimpleName: replaceWhere
p1598
tp1599
a(Vinsert
p1600
I42
VSimpleName: size
p1601
tp1602
a(Vinsert
p1603
I42
VSimpleName: doForward
p1604
tp1605
a(Vinsert
p1606
I42
VSimpleName: calculateAverageAuc
p1607
tp1608
a(Vinsert
p1609
I42
VSimpleName: getHwDeviceTotalMemory
p1610
tp1611
a(Vinsert
p1612
I42
VSimpleName: model
p1613
tp1614
a(Vinsert
p1615
I42
VSimpleName: getNumberOfWorkersPerNode
p1616
tp1617
a(Vinsert
p1618
I42
VSimpleName: isFinetune
p1619
tp1620
a(Vinsert
p1621
I42
VSimpleName: getTree
p1622
tp1623
a(Vinsert
p1624
I42
VSimpleName: setSampleOrActivate
p1625
tp1626
a(Vinsert
p1627
I42
VSimpleName: batchIter
p1628
tp1629
a(Vinsert
p1630
I42
VSimpleName: getGradientsViewArray
p1631
tp1632
a(Vinsert
p1633
I42
VSimpleName: initNegative
p1634
tp1635
a(Vinsert
p1636
I42
VSimpleName: toApplicationId
p1637
tp1638
a(Vinsert
p1639
I42
VSimpleName: assertExportSupported
p1640
tp1641
a(Vinsert
p1642
I42
VSimpleName: totalNumberOfDocs
p1643
tp1644
a(Vinsert
p1645
I42
VSimpleName: getnLayers
p1646
tp1647
a(Vinsert
p1648
I42
VSimpleName: getActivationFn
p1649
tp1650
a(Vinsert
p1651
I42
VSimpleName: getNumFilters
p1652
tp1653
a(Vinsert
p1654
I42
VSimpleName: getModel
p1655
tp1656
a(Vinsert
p1657
I42
VSimpleName: getScoreCalculator
p1658
tp1659
a(Vinsert
p1660
I42
VSimpleName: modelJson
p1661
tp1662
a(Vinsert
p1663
I42
VSimpleName: getAvailableDevices
p1664
tp1665
a(Vinsert
p1666
I42
VSimpleName: getReal
p1667
tp1668
a(Vinsert
p1669
I42
VSimpleName: vocab
p1670
tp1671
a(Vinsert
p1672
I42
VSimpleName: applySchedules
p1673
tp1674
a(Vinsert
p1675
I42
VSimpleName: leverageTo
p1676
tp1677
a(Vinsert
p1678
I42
VSimpleName: reset
p1679
tp1680
a(Vinsert
p1681
I42
VSimpleName: openAttribute
p1682
tp1683
a(Vinsert
p1684
I42
VSimpleName: getAggregator
p1685
tp1686
a(Vinsert
p1687
I42
VSimpleName: getLabel
p1688
tp1689
a(Vinsert
p1690
I42
VSimpleName: getWordVectorMatrix
p1691
tp1692
a(Vinsert
p1693
I42
VSimpleName: inputColumns
p1694
tp1695
a(Vinsert
p1696
I42
VSimpleName: POST
p1697
tp1698
a(Vinsert
p1699
I42
VSimpleName: builder
p1700
tp1701
a(Vinsert
p1702
I42
VSimpleName: hasMoreTokens
p1703
tp1704
a(Vinsert
p1705
I42
VSimpleName: isSaveLastModel
p1706
tp1707
a(Vinsert
p1708
I42
VSimpleName: normallize
p1709
tp1710
a(Vinsert
p1711
I42
VSimpleName: sleep
p1712
tp1713
a(Vinsert
p1714
I42
VSimpleName: isEmpty
p1715
tp1716
a(Vinsert
p1717
I42
VSimpleName: name
p1718
tp1719
a(Vinsert
p1720
I42
VSimpleName: addiRowVector
p1721
tp1722
a(Vinsert
p1723
I42
VSimpleName: k
p1724
tp1725
a(Vinsert
p1726
I42
VSimpleName: getCountFalsePositive
p1727
tp1728
a(Vinsert
p1729
I42
VSimpleName: setIterationListeners
p1730
tp1731
a(Vinsert
p1732
I42
VSimpleName: loadIris
p1733
tp1734
a(Vinsert
p1735
I42
VSimpleName: readCaffeWithWeights
p1736
tp1737
a(Vinsert
p1738
I42
VSimpleName: putLong
p1739
tp1740
a(Vinsert
p1741
I42
VSimpleName: totalCount
p1742
tp1743
a(Vinsert
p1744
I42
VSimpleName: rnnTimeStep
p1745
tp1746
a(Vinsert
p1747
I42
VSimpleName: getNegative
p1748
tp1749
a(Vinsert
p1750
I42
VSimpleName: containsWord
p1751
tp1752
a(Vinsert
p1753
I42
VSimpleName: isNull
p1754
tp1755
a(Vinsert
p1756
I42
VSimpleName: isNaN
p1757
tp1758
a(Vinsert
p1759
I42
VSimpleName: parallelizePairs
p1760
tp1761
a(Vinsert
p1762
I42
VSimpleName: workerEnabled
p1763
tp1764
a(Vinsert
p1765
I42
VSimpleName: getVariables
p1766
tp1767
a(Vinsert
p1768
I42
VSimpleName: isSplitOnNakaguro
p1769
tp1770
a(Vinsert
p1771
I42
VSimpleName: getSyn1
p1772
tp1773
a(Vinsert
p1774
I42
VSimpleName: getMap
p1775
tp1776
a(Vinsert
p1777
I42
VSimpleName: isVector
p1778
tp1779
a(Vinsert
p1780
I42
VSimpleName: getInitialModel
p1781
tp1782
a(Vinsert
p1783
I42
VSimpleName: isScale
p1784
tp1785
a(Vinsert
p1786
I42
VSimpleName: createTempDir
p1787
tp1788
a(Vinsert
p1789
I42
VSimpleName: getKerasLayerFromConfig
p1790
tp1791
a(Vinsert
p1792
I42
VSimpleName: cacheModeMapFor
p1793
tp1794
a(Vinsert
p1795
I42
VSimpleName: invoke
p1796
tp1797
a(Vinsert
p1798
I42
VSimpleName: writeObjectField
p1799
tp1800
a(Vinsert
p1801
I42
VSimpleName: getTrainingJson
p1802
tp1803
a(Vinsert
p1804
I42
VSimpleName: negativeLoglikelihood
p1805
tp1806
a(Vinsert
p1807
I42
VSimpleName: getNOut
p1808
tp1809
a(Vinsert
p1810
I42
VSimpleName: workers
p1811
tp1812
a(Vinsert
p1813
I42
VSimpleName: getInt
p1814
tp1815
a(Vinsert
p1816
I42
VSimpleName: renderFilters
p1817
tp1818
a(Vinsert
p1819
I42
VSimpleName: setStateTrackerConnectionString
p1820
tp1821
a(Vinsert
p1822
I42
VSimpleName: getConstraintsFromConfig
p1823
tp1824
a(Vinsert
p1825
I42
VSimpleName: count
p1826
tp1827
a(Vinsert
p1828
I42
VSimpleName: reportStdev
p1829
tp1830
a(Vinsert
p1831
I42
VSimpleName: encodeUpdates
p1832
tp1833
a(Vinsert
p1834
I42
VSimpleName: saveAsFile
p1835
tp1836
a(Vinsert
p1837
I42
VSimpleName: writeLock
p1838
tp1839
a(Vinsert
p1840
I42
VSimpleName: column
p1841
tp1842
a(Vinsert
p1843
I42
VSimpleName: getClustersInfos
p1844
tp1845
a(Vinsert
p1846
I42
VSimpleName: startsWith
p1847
tp1848
a(Vinsert
p1849
I42
VSimpleName: accumulator
p1850
tp1851
a(Vinsert
p1852
I42
VSimpleName: renderFilter
p1853
tp1854
a(Vinsert
p1855
I42
VSimpleName: loadAsciiFile
p1856
tp1857
a(Vinsert
p1858
I42
VSimpleName: withRng
p1859
tp1860
a(Vinsert
p1861
I42
VSimpleName: down
p1862
tp1863
a(Vinsert
p1864
I42
VSimpleName: registerSubtypes
p1865
tp1866
a(Vinsert
p1867
I42
VSimpleName: getConfs
p1868
tp1869
a(Vinsert
p1870
I42
VSimpleName: setLabelNames
p1871
tp1872
a(Vinsert
p1873
I42
VSimpleName: vocabCache
p1874
tp1875
a(Vinsert
p1876
I42
VSimpleName: fill
p1877
tp1878
a(Vinsert
p1879
I42
VSimpleName: floor
p1880
tp1881
a(Vinsert
p1882
I42
VSimpleName: getBranch
p1883
tp1884
a(Vinsert
p1885
I42
VSimpleName: getPointer
p1886
tp1887
a(Vinsert
p1888
I42
VSimpleName: setShardAddresses
p1889
tp1890
a(Vinsert
p1891
I42
VSimpleName: getDist
p1892
tp1893
a(Vinsert
p1894
I42
VSimpleName: clearInput
p1895
tp1896
a(Vinsert
p1897
I42
VSimpleName: getSparkContext
p1898
tp1899
a(Vinsert
p1900
I42
VSimpleName: getWriteMethod
p1901
tp1902
a(Vinsert
p1903
I42
VSimpleName: buildModel
p1904
tp1905
a(Vinsert
p1906
I42
VSimpleName: buildSets
p1907
tp1908
a(Vinsert
p1909
I42
VSimpleName: getK
p1910
tp1911
a(Vinsert
p1912
I42
VSimpleName: getTokenizerFactory
p1913
tp1914
a(Vinsert
p1915
I42
VSimpleName: setS
p1916
tp1917
a(Vinsert
p1918
I42
VSimpleName: getFalsePositiveRate
p1919
tp1920
a(Vinsert
p1921
I42
VSimpleName: getDropOut
p1922
tp1923
a(Vinsert
p1924
I42
VSimpleName: fromString
p1925
tp1926
a(Vinsert
p1927
I42
VSimpleName: isUseUnknown
p1928
tp1929
a(Vinsert
p1930
I42
VSimpleName: getStrings
p1931
tp1932
a(Vinsert
p1933
I42
VSimpleName: commit
p1934
tp1935
a(Vinsert
p1936
I42
VSimpleName: copy
p1937
tp1938
a(Vinsert
p1939
I42
VSimpleName: log
p1940
tp1941
a(Vinsert
p1942
I42
VSimpleName: setLossFunctionByLayer
p1943
tp1944
a(Vinsert
p1945
I42
VSimpleName: setStats
p1946
tp1947
a(Vinsert
p1948
I42
VSimpleName: setPretrainEpochs
p1949
tp1950
a(Vinsert
p1951
I42
VSimpleName: constrainGradientToUnitNorm
p1952
tp1953
a(Vinsert
p1954
I42
VSimpleName: usePreciseWeightInit
p1955
tp1956
a(Vinsert
p1957
I42
VSimpleName: getnIn
p1958
tp1959
a(Vinsert
p1960
I42
VSimpleName: getTrainingStats
p1961
tp1962
a(Vinsert
p1963
I42
VSimpleName: subiRowVector
p1964
tp1965
a(Vinsert
p1966
I42
VSimpleName: getLookupTable
p1967
tp1968
a(Vinsert
p1969
I42
VSimpleName: writeInt
p1970
tp1971
a(Vinsert
p1972
I42
VSimpleName: parse
p1973
tp1974
a(Vinsert
p1975
I42
VSimpleName: getUpdateTypeClass
p1976
tp1977
a(Vinsert
p1978
I42
VSimpleName: getY
p1979
tp1980
a(Vinsert
p1981
I42
VSimpleName: getTokenPreProcessor
p1982
tp1983
a(Vinsert
p1984
I42
VSimpleName: all
p1985
tp1986
a(Vinsert
p1987
I42
VSimpleName: reportMean
p1988
tp1989
a(Vinsert
p1990
I42
VSimpleName: saveObject
p1991
tp1992
a(Vinsert
p1993
I42
VSimpleName: copyFile
p1994
tp1995
a(Vinsert
p1996
I42
VSimpleName: externalCache
p1997
tp1998
a(Vinsert
p1999
I42
VSimpleName: withL2
p2000
tp2001
a(Vinsert
p2002
I42
VSimpleName: getInstance
p2003
tp2004
a(Vinsert
p2005
I42
VSimpleName: getSolverNet
p2006
tp2007
a(Vinsert
p2008
I42
VSimpleName: receiveUpdate
p2009
tp2010
a(Vinsert
p2011
I42
VSimpleName: nanoTime
p2012
tp2013
a(Vinsert
p2014
I42
VSimpleName: isPrimitive
p2015
tp2016
a(Vinsert
p2017
I42
VSimpleName: getVector
p2018
tp2019
a(Vinsert
p2020
I42
VSimpleName: getLr
p2021
tp2022
a(Vinsert
p2023
I42
VSimpleName: getIndex
p2024
tp2025
a(Vinsert
p2026
I42
VSimpleName: backpropGradient
p2027
tp2028
a(Vinsert
p2029
I42
VSimpleName: range
p2030
tp2031
a(Vinsert
p2032
I42
VSimpleName: error
p2033
tp2034
a(Vinsert
p2035
I42
VSimpleName: finetune
p2036
tp2037
a(Vinsert
p2038
I42
VSimpleName: setDocumentText
p2039
tp2040
a(Vinsert
p2041
I42
VSimpleName: setLayerName
p2042
tp2043
a(Vinsert
p2044
I42
VSimpleName: getOldStream
p2045
tp2046
a(Vinsert
p2047
I42
VSimpleName: setPrediction
p2048
tp2049
a(Vinsert
p2050
I42
VSimpleName: getLayerLearningRates
p2051
tp2052
a(Vinsert
p2053
I42
VSimpleName: conv2d
p2054
tp2055
a(Vinsert
p2056
I42
VSimpleName: setMomentumSchedule
p2057
tp2058
a(Vinsert
p2059
I42
VSimpleName: numTensors
p2060
tp2061
a(Vinsert
p2062
I42
VSimpleName: arrayElementsPerExample
p2063
tp2064
a(Vinsert
p2065
I42
VSimpleName: getAdminContext
p2066
tp2067
a(Vinsert
p2068
I42
VSimpleName: readWord2VecFromText
p2069
tp2070
a(Vinsert
p2071
I42
VSimpleName: setRenderEpochs
p2072
tp2073
a(Vinsert
p2074
I42
VSimpleName: preOutput
p2075
tp2076
a(Vinsert
p2077
I42
VSimpleName: addSourceIterator
p2078
tp2079
a(Vinsert
p2080
I42
VSimpleName: buildTask
p2081
tp2082
a(Vinsert
p2083
I42
VSimpleName: cublasFree
p2084
tp2085
a(Vinsert
p2086
I42
VSimpleName: readFromPath
p2087
tp2088
a(Vinsert
p2089
I42
VSimpleName: setDaemon
p2090
tp2091
a(Vinsert
p2092
I42
VSimpleName: putRow
p2093
tp2094
a(Vinsert
p2095
I42
VSimpleName: offer
p2096
tp2097
a(Vinsert
p2098
I42
VSimpleName: gt
p2099
tp2100
a(Vinsert
p2101
I42
VSimpleName: consumeOnce
p2102
tp2103
a(Vinsert
p2104
I42
VSimpleName: controllerAddress
p2105
tp2106
a(Vinsert
p2107
I42
VSimpleName: getLayer
p2108
tp2109
a(Vinsert
p2110
I42
VSimpleName: determineKerasMajorVersion
p2111
tp2112
a(Vinsert
p2113
I42
VSimpleName: file
p2114
tp2115
a(Vinsert
p2116
I42
VSimpleName: doubleValue
p2117
tp2118
a(Vinsert
p2119
I42
VSimpleName: setCollectTrainingStats
p2120
tp2121
a(Vinsert
p2122
I42
VSimpleName: getColumnNames
p2123
tp2124
a(Vinsert
p2125
I42
VSimpleName: setConf
p2126
tp2127
a(Vinsert
p2128
I42
VSimpleName: withHiddenUnits
p2129
tp2130
a(Vinsert
p2131
I42
VSimpleName: withHidden
p2132
tp2133
a(Vinsert
p2134
I42
VSimpleName: getInputHeight
p2135
tp2136
a(Vinsert
p2137
I42
VSimpleName: getWeightNoise
p2138
tp2139
a(Vinsert
p2140
I42
VSimpleName: openStream
p2141
tp2142
a(Vinsert
p2143
I42
VSimpleName: inferVector
p2144
tp2145
a(Vinsert
p2146
I42
VSimpleName: layerType
p2147
tp2148
a(Vinsert
p2149
I42
VSimpleName: toArray
p2150
tp2151
a(Vinsert
p2152
I42
VSimpleName: getNetworkInputs
p2153
tp2154
a(Vinsert
p2155
I42
VSimpleName: addInput
p2156
tp2157
a(Vinsert
p2158
I42
VSimpleName: unitVec
p2159
tp2160
a(Vinsert
p2161
I42
VSimpleName: feedForwardMaskArray
p2162
tp2163
a(Vinsert
p2164
I42
VSimpleName: getListeners
p2165
tp2166
a(Vinsert
p2167
I42
VSimpleName: getEpochCount
p2168
tp2169
a(Vinsert
p2170
I42
VSimpleName: buildSequential
p2171
tp2172
a(Vinsert
p2173
I42
VSimpleName: containsKey
p2174
tp2175
a(Vinsert
p2176
I42
VSimpleName: isDone
p2177
tp2178
a(Vinsert
p2179
I42
VSimpleName: endWhenDistributionVariationRateLessThan
p2180
tp2181
a(Vinsert
p2182
I42
VSimpleName: batchBy
p2183
tp2184
a(Vinsert
p2185
I42
VSimpleName: scale
p2186
tp2187
a(Vinsert
p2188
I42
VSimpleName: extractNonMaskedTimeSteps
p2189
tp2190
a(Vinsert
p2191
I42
VSimpleName: getChannel
p2192
tp2193
a(Vinsert
p2194
I42
VSimpleName: buildEnvironment
p2195
tp2196
a(Vinsert
p2197
I42
VSimpleName: setParent
p2198
tp2199
a(Vinsert
p2200
I42
VSimpleName: filterAndStrip
p2201
tp2202
a(Vinsert
p2203
I42
VSimpleName: getNetworkConfig
p2204
tp2205
a(Vinsert
p2206
I42
VSimpleName: status
p2207
tp2208
a(Vinsert
p2209
I42
VSimpleName: setMasterStepSize
p2210
tp2211
a(Vinsert
p2212
I42
VSimpleName: numFeatureMap
p2213
tp2214
a(Vinsert
p2215
I42
VSimpleName: summary
p2216
tp2217
a(Vinsert
p2218
I42
VSimpleName: append
p2219
tp2220
a(Vinsert
p2221
I42
VSimpleName: getNumLayers
p2222
tp2223
a(Vinsert
p2224
I42
VSimpleName: getMeanMagnitudes
p2225
tp2226
a(Vinsert
p2227
I42
VSimpleName: nIn
p2228
tp2229
a(Vinsert
p2230
I42
VSimpleName: getStorageRouter
p2231
tp2232
a(Vinsert
p2233
I42
VSimpleName: deepCopy
p2234
tp2235
a(Vinsert
p2236
I42
VSimpleName: getStrides
p2237
tp2238
a(Vinsert
p2239
I42
VSimpleName: incrementWordCount
p2240
tp2241
a(Vinsert
p2242
I42
VSimpleName: getCurrentWorkspace
p2243
tp2244
a(Vinsert
p2245
I42
VSimpleName: store
p2246
tp2247
a(Vinsert
p2248
I42
VSimpleName: setInputType
p2249
tp2250
a(Vinsert
p2251
I42
VSimpleName: getvBias
p2252
tp2253
a(Vinsert
p2254
I42
VSimpleName: maxVertexInputs
p2255
tp2256
a(Vinsert
p2257
I42
VSimpleName: patienceIncrease
p2258
tp2259
a(Vinsert
p2260
I42
VSimpleName: getNetwork
p2261
tp2262
a(Vinsert
p2263
I42
VSimpleName: GET
p2264
tp2265
a(Vinsert
p2266
I42
VSimpleName: setDone
p2267
tp2268
a(Vinsert
p2269
I42
VSimpleName: flushQueue
p2270
tp2271
a(Vinsert
p2272
I42
VSimpleName: getInputStream
p2273
tp2274
a(Vinsert
p2275
I42
VSimpleName: execute
p2276
tp2277
a(Vinsert
p2278
I42
VSimpleName: getThreshold
p2279
tp2280
a(Vinsert
p2281
I42
VSimpleName: pullRows
p2282
tp2283
a(Vinsert
p2284
I42
VSimpleName: setCollectMetaData
p2285
tp2286
a(Vinsert
p2287
I42
VSimpleName: discretizeColumns
p2288
tp2289
a(Vinsert
p2290
I42
VSimpleName: renderGraph
p2291
tp2292
a(Vinsert
p2293
I42
VSimpleName: getAndIncrement
p2294
tp2295
a(Vinsert
p2296
I42
VSimpleName: addPaths
p2297
tp2298
a(Vinsert
p2299
I42
VSimpleName: l2
p2300
tp2301
a(Vinsert
p2302
I42
VSimpleName: incrementCount
p2303
tp2304
a(Vinsert
p2305
I42
VSimpleName: toOffsetZero
p2306
tp2307
a(Vinsert
p2308
I42
VSimpleName: length
p2309
tp2310
a(Vinsert
p2311
I42
VSimpleName: hasMoreRecords
p2312
tp2313
a(Vinsert
p2314
I42
VSimpleName: jobFor
p2315
tp2316
a(Vinsert
p2317
I42
VSimpleName: getLAYER_FIELD_INPUT_DIM
p2318
tp2319
a(Vinsert
p2320
I42
VSimpleName: retrieve
p2321
tp2322
a(Vinsert
p2323
I42
VSimpleName: getLayerConf
p2324
tp2325
a(Vinsert
p2326
I42
VSimpleName: confs
p2327
tp2328
a(Vinsert
p2329
I42
VSimpleName: step
p2330
tp2331
a(Vinsert
p2332
I42
VSimpleName: tokenize
p2333
tp2334
a(Vinsert
p2335
I42
VSimpleName: getDummyValue
p2336
tp2337
a(Vinsert
p2338
I42
VSimpleName: getL2
p2339
tp2340
a(Vinsert
p2341
I42
VSimpleName: setOffset
p2342
tp2343
a(Vinsert
p2344
I42
VSimpleName: getMethod
p2345
tp2346
a(Vinsert
p2347
I42
VSimpleName: nrm2
p2348
tp2349
a(Vinsert
p2350
I42
VSimpleName: logExportEnd
p2351
tp2352
a(Vinsert
p2353
I42
VSimpleName: DISK_ONLY
p2354
tp2355
a(Vinsert
p2356
I42
VSimpleName: compile
p2357
tp2358
a(Vinsert
p2359
I42
VSimpleName: startTraining
p2360
tp2361
a(Vinsert
p2362
I42
VSimpleName: getIndices
p2363
tp2364
a(Vinsert
p2365
I42
VSimpleName: getWorkspaceForCurrentThread
p2366
tp2367
a(Vinsert
p2368
I42
VSimpleName: center
p2369
tp2370
a(Vinsert
p2371
I42
VSimpleName: setRandomFeatureVectors
p2372
tp2373
a(Vinsert
p2374
I42
VSimpleName: getAffinityManager
p2375
tp2376
a(Vinsert
p2377
I42
VSimpleName: incrementEpochCount
p2378
tp2379
a(Vinsert
p2380
I42
VSimpleName: noContent
p2381
tp2382
a(Vinsert
p2383
I42
VSimpleName: join
p2384
tp2385
a(Vinsert
p2386
I42
VSimpleName: validateInput
p2387
tp2388
a(Vinsert
p2389
I42
VSimpleName: getAllStaticInfos
p2390
tp2391
a(Vinsert
p2392
I42
VSimpleName: setLayerNames
p2393
tp2394
a(Vinsert
p2395
I42
VSimpleName: getProcessors
p2396
tp2397
a(Vinsert
p2398
I42
VSimpleName: mse
p2399
tp2400
a(Vinsert
p2401
I42
VSimpleName: warn
p2402
tp2403
a(Vinsert
p2404
I42
VSimpleName: format
p2405
tp2406
a(Vinsert
p2407
I42
VSimpleName: setInt
p2408
tp2409
a(Vinsert
p2410
I42
VSimpleName: optimizationAlgo
p2411
tp2412
a(Vinsert
p2413
I42
VSimpleName: textFile
p2414
tp2415
a(Vinsert
p2416
I42
VSimpleName: onUpdate
p2417
tp2418
a(Vinsert
p2419
I42
VSimpleName: getSentence
p2420
tp2421
a(Vinsert
p2422
I42
VSimpleName: setInputs
p2423
tp2424
a(Vinsert
p2425
I42
VSimpleName: outcomes
p2426
tp2427
a(Vinsert
p2428
I42
VSimpleName: epochDone
p2429
tp2430
a(Vinsert
p2431
I42
VSimpleName: logBroadcastEnd
p2432
tp2433
a(Vinsert
p2434
I42
VSimpleName: getLemma
p2435
tp2436
a(Vinsert
p2437
I42
VSimpleName: toYaml
p2438
tp2439
a(Vinsert
p2440
I42
VSimpleName: getReconstructedInput
p2441
tp2442
a(Vinsert
p2443
I42
VSimpleName: logFitEnd
p2444
tp2445
a(Vinsert
p2446
I42
VSimpleName: props
p2447
tp2448
a(Vinsert
p2449
I42
VSimpleName: hugeModelExpected
p2450
tp2451
a(Vinsert
p2452
I42
VSimpleName: createUninitialized
p2453
tp2454
a(Vinsert
p2455
I42
VSimpleName: rnnClearPreviousState
p2456
tp2457
a(Vinsert
p2458
I42
VSimpleName: colorToHex
p2459
tp2460
a(Vinsert
p2461
I42
VSimpleName: toNDArray
p2462
tp2463
a(Vinsert
p2464
I42
VSimpleName: setStateTracker
p2465
tp2466
a(Vinsert
p2467
I42
VSimpleName: activation
p2468
tp2469
a(Vinsert
p2470
I42
VSimpleName: writeWordVectors
p2471
tp2472
a(Vinsert
p2473
I42
VSimpleName: epochCompleted
p2474
tp2475
a(Vinsert
p2476
I42
VSimpleName: nOut
p2477
tp2478
a(Vinsert
p2479
I42
VSimpleName: start
p2480
tp2481
a(Vinsert
p2482
I42
VSimpleName: ifft
p2483
tp2484
a(Vinsert
p2485
I42
VSimpleName: getStateTracker
p2486
tp2487
a(Vinsert
p2488
I42
VSimpleName: isNoBias
p2489
tp2490
a(Vinsert
p2491
I42
VSimpleName: ger
p2492
tp2493
a(Vinsert
p2494
I42
VSimpleName: trim
p2495
tp2496
a(Vinsert
p2497
I42
VSimpleName: getEpochId
p2498
tp2499
a(Vinsert
p2500
I42
VSimpleName: getOwnOriginatorId
p2501
tp2502
a(Vinsert
p2503
I42
VSimpleName: restoreMultiLayerNetwork
p2504
tp2505
a(Vinsert
p2506
I42
VSimpleName: getDimOrder
p2507
tp2508
a(Vinsert
p2509
I42
VSimpleName: setUseAdaGrad
p2510
tp2511
a(Vinsert
p2512
I42
VSimpleName: syncOldStream
p2513
tp2514
a(Vinsert
p2515
I42
VSimpleName: fft
p2516
tp2517
a(Vinsert
p2518
I42
VSimpleName: shuffle
p2519
tp2520
a(Vinsert
p2521
I42
VSimpleName: getIterator
p2522
tp2523
a(Vinsert
p2524
I42
VSimpleName: logReturnTime
p2525
tp2526
a(Vinsert
p2527
I42
VSimpleName: docs
p2528
tp2529
a(Vinsert
p2530
I42
VSimpleName: getMetadataAdapter
p2531
tp2532
a(Vinsert
p2533
I42
VSimpleName: withHiddenUnitsByLayer
p2534
tp2535
a(Vinsert
p2536
I42
VSimpleName: getLayerUpdaters
p2537
tp2538
a(Vinsert
p2539
I42
VSimpleName: setGradientFor
p2540
tp2541
a(Vinsert
p2542
I42
VSimpleName: getILossFunction
p2543
tp2544
a(Vinsert
p2545
I42
VSimpleName: stopWords
p2546
tp2547
a(Vinsert
p2548
I42
VSimpleName: isPreProcessed
p2549
tp2550
a(Vinsert
p2551
I42
VSimpleName: addNewClusterWithCenter
p2552
tp2553
a(Vinsert
p2554
I42
VSimpleName: getwGradient
p2555
tp2556
a(Vinsert
p2557
I42
VSimpleName: updateGraphDirectory
p2558
tp2559
a(Vinsert
p2560
I42
VSimpleName: isColumnVectorShape
p2561
tp2562
a(Vinsert
p2563
I42
VSimpleName: gradient
p2564
tp2565
a(Vinsert
p2566
I42
VSimpleName: setRenderWeightEpochs
p2567
tp2568
a(Vinsert
p2569
I42
VSimpleName: newAxis
p2570
tp2571
a(Vinsert
p2572
I42
VSimpleName: toCharArray
p2573
tp2574
a(Vinsert
p2575
I42
VSimpleName: getWorkspaceMode
p2576
tp2577
a(Vinsert
p2578
I42
VSimpleName: getDilation
p2579
tp2580
a(Vinsert
p2581
I42
VSimpleName: linearView
p2582
tp2583
a(Vinsert
p2584
I42
VSimpleName: logMapPartitionsStart
p2585
tp2586
a(Vinsert
p2587
I42
VSimpleName: createBucket
p2588
tp2589
a(Vinsert
p2590
I42
VSimpleName: getUpdaterViewOffsetEnd
p2591
tp2592
a(Vinsert
p2593
I42
VSimpleName: getTokenizerVarMap
p2594
tp2595
a(Vinsert
p2596
I42
VSimpleName: getLayerInfoByName
p2597
tp2598
a(Vinsert
p2599
I42
VSimpleName: getDecoderLayerSizes
p2600
tp2601
a(Vinsert
p2602
I42
VSimpleName: isSpecial
p2603
tp2604
a(Vinsert
p2605
I42
VSimpleName: resetAdaGrad
p2606
tp2607
a(Vinsert
p2608
I42
VSimpleName: loadSequenceFromMetaData
p2609
tp2610
a(Vinsert
p2611
I42
VSimpleName: setAbsTolx
p2612
tp2613
a(Vinsert
p2614
I42
VSimpleName: setPixels
p2615
tp2616
a(Vinsert
p2617
I42
VSimpleName: realComponent
p2618
tp2619
a(Vinsert
p2620
I42
VSimpleName: create
p2621
tp2622
a(Vinsert
p2623
I42
VSimpleName: loadConfigGuess
p2624
tp2625
a(Vinsert
p2626
I42
VSimpleName: getSolver
p2627
tp2628
a(Vinsert
p2629
I42
VSimpleName: getResourceAsStream
p2630
tp2631
a(Vinsert
p2632
I42
VSimpleName: momentumAfter
p2633
tp2634
a(Vinsert
p2635
I42
VSimpleName: axpy
p2636
tp2637
a(Vinsert
p2638
I42
VSimpleName: matchesAnyStopWord
p2639
tp2640
a(Vinsert
p2641
I42
VSimpleName: plot
p2642
tp2643
a(Vinsert
p2644
I42
VSimpleName: getRecord
p2645
tp2646
a(Vinsert
p2647
I42
VSimpleName: listeners
p2648
tp2649
a(Vinsert
p2650
I42
VSimpleName: aggregate
p2651
tp2652
a(Vinsert
p2653
I42
VSimpleName: setAppName
p2654
tp2655
a(Vinsert
p2656
I42
VSimpleName: forceMerge
p2657
tp2658
a(Vinsert
p2659
I42
VSimpleName: useAdGrad
p2660
tp2661
a(Vinsert
p2662
I42
VSimpleName: hasMoreObjects
p2663
tp2664
a(Vinsert
p2665
I42
VSimpleName: onBackwardPass
p2666
tp2667
a(Vinsert
p2668
I42
VSimpleName: subi
p2669
tp2670
a(Vinsert
p2671
I42
VSimpleName: getRmsDecay
p2672
tp2673
a(Vinsert
p2674
I42
VSimpleName: call
p2675
tp2676
a(Vinsert
p2677
I42
VSimpleName: diag
p2678
tp2679
a(Vinsert
p2680
I42
VSimpleName: intBitsToFloat
p2681
tp2682
a(Vinsert
p2683
I42
VSimpleName: setUseHierarchicSoftmax
p2684
tp2685
a(Vinsert
p2686
I42
VSimpleName: getBroadcastConfiguration
p2687
tp2688
a(Vinsert
p2689
I42
VSimpleName: asScalaBuffer
p2690
tp2691
a(Vinsert
p2692
I42
VSimpleName: incrementIterationCount
p2693
tp2694
a(Vinsert
p2695
I42
VSimpleName: optimize
p2696
tp2697
a(Vinsert
p2698
I42
VSimpleName: putByte
p2699
tp2700
a(Vinsert
p2701
I42
VSimpleName: normalizeMatrix
p2702
tp2703
a(Vinsert
p2704
I42
VSimpleName: addSeries
p2705
tp2706
a(Vinsert
p2707
I42
VSimpleName: of
p2708
tp2709
a(Vinsert
p2710
I42
VSimpleName: getContent
p2711
tp2712
a(Vinsert
p2713
I42
VSimpleName: div
p2714
tp2715
a(Vinsert
p2716
I42
VSimpleName: setPolicyMirroring
p2717
tp2718
a(Vinsert
p2719
I42
VSimpleName: setCodeLength
p2720
tp2721
a(Vinsert
p2722
I42
VSimpleName: enable
p2723
tp2724
a(Vinsert
p2725
I42
VSimpleName: getGradientNormalization
p2726
tp2727
a(Vinsert
p2728
I42
VSimpleName: getWorkspaceManager
p2729
tp2730
a(Vinsert
p2731
I42
VSimpleName: setLabel
p2732
tp2733
a(Vinsert
p2734
I42
VSimpleName: vectorize
p2735
tp2736
a(Vinsert
p2737
I42
VSimpleName: getExampleMetaData
p2738
tp2739
a(Vinsert
p2740
I42
VSimpleName: empty
p2741
tp2742
a(Vinsert
p2743
I42
VSimpleName: getB
p2744
tp2745
a(Vinsert
p2746
I42
VSimpleName: getAndSet
p2747
tp2748
a(Vinsert
p2749
I42
VSimpleName: defaultIncludeInPlots
p2750
tp2751
a(Vinsert
p2752
I42
VSimpleName: setW
p2753
tp2754
a(Vinsert
p2755
I42
VSimpleName: _1
p2756
tp2757
a(Vinsert
p2758
I42
VSimpleName: getWordVector
p2759
tp2760
a(Vinsert
p2761
I42
VSimpleName: newClient
p2762
tp2763
a(Vinsert
p2764
I42
VSimpleName: getDescription
p2765
tp2766
a(Vinsert
p2767
I42
VSimpleName: evalTimeSeries
p2768
tp2769
a(Vinsert
p2770
I42
VSimpleName: element
p2771
tp2772
a(Vinsert
p2773
I42
VSimpleName: future
p2774
tp2775
a(Vinsert
p2776
I42
VSimpleName: eps
p2777
tp2778
a(Vinsert
p2779
I42
VSimpleName: newHashBackedMap
p2780
tp2781
a(Vinsert
p2782
I42
VSimpleName: factory
p2783
tp2784
a(Vinsert
p2785
I42
VSimpleName: getLocation
p2786
tp2787
a(Vinsert
p2788
I42
VSimpleName: getElementsLearningAlgorithm
p2789
tp2790
a(Vinsert
p2791
I42
VSimpleName: serialize
p2792
tp2793
a(Vinsert
p2794
I42
VSimpleName: zsAndActivations
p2795
tp2796
a(Vinsert
p2797
I42
VSimpleName: setNormalizeZeroMeanAndUnitVariance
p2798
tp2799
a(Vinsert
p2800
I42
VSimpleName: load
p2801
tp2802
a(Vinsert
p2803
I42
VSimpleName: getRows
p2804
tp2805
a(Vinsert
p2806
I42
VSimpleName: main
p2807
tp2808
a(Vinsert
p2809
I42
VSimpleName: renderWeights
p2810
tp2811
a(Vinsert
p2812
I42
VSimpleName: validateShapes
p2813
tp2814
a(Vinsert
p2815
I42
VSimpleName: nextDocument
p2816
tp2817
a(Vinsert
p2818
I42
VSimpleName: putScalar
p2819
tp2820
a(Vinsert
p2821
I42
VSimpleName: setNormalizeByInputRows
p2822
tp2823
a(Vinsert
p2824
I42
VSimpleName: sampleVisibleGivenHidden
p2825
tp2826
a(Vinsert
p2827
I42
VSimpleName: mapPartitionsToDouble
p2828
tp2829
a(Vinsert
p2830
I42
VSimpleName: isEpochReset
p2831
tp2832
a(Vinsert
p2833
I42
VSimpleName: biasInit
p2834
tp2835
a(Vinsert
p2836
I42
VSimpleName: isTerminated
p2837
tp2838
a(Vinsert
p2839
I42
VSimpleName: getBestModel
p2840
tp2841
a(Vinsert
p2842
I42
VSimpleName: exists
p2843
tp2844
a(Vinsert
p2845
I42
VSimpleName: substring
p2846
tp2847
a(Vinsert
p2848
I42
VSimpleName: outputMatrix
p2849
tp2850
a(Vinsert
p2851
I42
VSimpleName: newChannel
p2852
tp2853
a(Vinsert
p2854
I42
VSimpleName: getBins
p2855
tp2856
a(Vinsert
p2857
I42
VSimpleName: getParameter
p2858
tp2859
a(Vinsert
p2860
I42
VSimpleName: getMaxIter
p2861
tp2862
a(Vinsert
p2863
I42
VSimpleName: nextLine
p2864
tp2865
a(Vinsert
p2866
I42
VSimpleName: getSigmoidLayers
p2867
tp2868
a(Vinsert
p2869
I42
VSimpleName: putBytes
p2870
tp2871
a(Vinsert
p2872
I42
VSimpleName: getNumInFeatureMaps
p2873
tp2874
a(Vinsert
p2875
I42
VSimpleName: addListener
p2876
tp2877
a(Vinsert
p2878
I42
VSimpleName: getUpdaterStateSum
p2879
tp2880
a(Vinsert
p2881
I42
VSimpleName: getLAYER_FIELD_CONVOLUTION_STRIDES
p2882
tp2883
a(Vinsert
p2884
I42
VSimpleName: disableLogging
p2885
tp2886
a(Vinsert
p2887
I42
VSimpleName: hiddenLayerSizes
p2888
tp2889
a(Vinsert
p2890
I42
VSimpleName: corporaLocations
p2891
tp2892
a(Vinsert
p2893
I42
VSimpleName: setRho
p2894
tp2895
a(Vinsert
p2896
I42
VSimpleName: numberOfInputs
p2897
tp2898
a(Vinsert
p2899
I42
VSimpleName: listFiles
p2900
tp2901
a(Vinsert
p2902
I42
VSimpleName: values
p2903
tp2904
a(Vinsert
p2905
I42
VSimpleName: getCanonicalPath
p2906
tp2907
a(Vinsert
p2908
I42
VSimpleName: setDampingFactor
p2909
tp2910
a(Vinsert
p2911
I42
VSimpleName: point
p2912
tp2913
a(Vinsert
p2914
I42
VSimpleName: copyOfRange
p2915
tp2916
a(Vinsert
p2917
I42
VSimpleName: permutei
p2918
tp2919
a(Vinsert
p2920
I42
VSimpleName: addNode
p2921
tp2922
a(Vinsert
p2923
I42
VSimpleName: mock
p2924
tp2925
a(Vinsert
p2926
I42
VSimpleName: compareAndSet
p2927
tp2928
a(Vinsert
p2929
I42
VSimpleName: standardMemory
p2930
tp2931
a(Vinsert
p2932
I42
VSimpleName: exportStats
p2933
tp2934
a(Vinsert
p2935
I42
VSimpleName: setSequenceId
p2936
tp2937
a(Vinsert
p2938
I42
VSimpleName: averagePointDistanceToClusterCenterLessThan
p2939
tp2940
a(Vinsert
p2941
I42
VSimpleName: flushQueueBlocking
p2942
tp2943
a(Vinsert
p2944
I42
VSimpleName: putColumn
p2945
tp2946
a(Vinsert
p2947
I42
VSimpleName: getLAYER_FIELD_INIT
p2948
tp2949
a(Vinsert
p2950
I42
VSimpleName: getConstructor
p2951
tp2952
a(Vinsert
p2953
I42
VSimpleName: asFloat
p2954
tp2955
a(Vinsert
p2956
I42
VSimpleName: getTimeStamp
p2957
tp2958
a(Vinsert
p2959
I42
VSimpleName: applyDropout
p2960
tp2961
a(Vinsert
p2962
I42
VSimpleName: isDirectory
p2963
tp2964
a(Vinsert
p2965
I42
VSimpleName: getTrainingFilesFilename_unzipped
p2966
tp2967
a(Vinsert
p2968
I42
VSimpleName: getHistoricalGradient
p2969
tp2970
a(Vinsert
p2971
I42
VSimpleName: union
p2972
tp2973
a(Vinsert
p2974
I42
VSimpleName: initWeights
p2975
tp2976
a(Vinsert
p2977
I42
VSimpleName: body
p2978
tp2979
a(Vinsert
p2980
I42
VSimpleName: getDouble
p2981
tp2982
a(Vinsert
p2983
I42
VSimpleName: getNumPasses
p2984
tp2985
a(Vinsert
p2986
I42
VSimpleName: transpose
p2987
tp2988
a(Vinsert
p2989
I42
VSimpleName: getNumVertices
p2990
tp2991
a(Vinsert
p2992
I42
VSimpleName: assertNInNOutSet
p2993
tp2994
a(Vinsert
p2995
I42
VSimpleName: getUpdateId
p2996
tp2997
a(Vinsert
p2998
I42
VSimpleName: getMeta
p2999
tp3000
a(Vinsert
p3001
I42
VSimpleName: getFinalResultWithStats
p3002
tp3003
a(Vinsert
p3004
I42
VSimpleName: l2Bias
p3005
tp3006
a(Vinsert
p3007
I42
VSimpleName: getName
p3008
tp3009
a(Vinsert
p3010
I42
VSimpleName: withActivationType
p3011
tp3012
a(Vinsert
p3013
I42
VSimpleName: putUpdate
p3014
tp3015
a(Vinsert
p3016
I42
VSimpleName: withSecurityGroupIds
p3017
tp3018
a(Vinsert
p3019
I42
VSimpleName: getListenerUpdates
p3020
tp3021
a(Vinsert
p3022
I42
VSimpleName: getObjectSummaries
p3023
tp3024
a(Vinsert
p3025
I42
VSimpleName: moveToFinetune
p3026
tp3027
a(Vinsert
p3028
I42
VSimpleName: document
p3029
tp3030
a(Vinsert
p3031
I42
VSimpleName: setXMax
p3032
tp3033
a(Vinsert
p3034
I42
VSimpleName: getLAYER_FIELD_RETURN_SEQUENCES
p3035
tp3036
a(Vinsert
p3037
I42
VSimpleName: setVisibleUnit
p3038
tp3039
a(Vinsert
p3040
I42
VSimpleName: policyReset
p3041
tp3042
a(Vinsert
p3043
I42
VSimpleName: setListeners
p3044
tp3045
a(Vinsert
p3046
I42
VSimpleName: setPolicyLearning
p3047
tp3048
a(Vinsert
p3049
I42
VSimpleName: getLAYER_CLASS_NAME_INPUT
p3050
tp3051
a(Vinsert
p3052
I42
VSimpleName: computeLossFunctionScoreArray
p3053
tp3054
a(Vinsert
p3055
I42
VSimpleName: list
p3056
tp3057
a(Vinsert
p3058
I42
VSimpleName: getProbabilityHistogramAllClasses
p3059
tp3060
a(Vinsert
p3061
I42
VSimpleName: toByteArray
p3062
tp3063
a(Vinsert
p3064
I42
VSimpleName: instantiate
p3065
tp3066
a(Vinsert
p3067
I42
VSimpleName: getLevel
p3068
tp3069
a(Vinsert
p3070
I42
VSimpleName: lrPolicyDecayRate
p3071
tp3072
a(Vinsert
p3073
I42
VSimpleName: meanAbsoluteError
p3074
tp3075
a(Vinsert
p3076
I42
VSimpleName: coOccurrenceList
p3077
tp3078
a(Vinsert
p3079
I42
VSimpleName: resetSupported
p3080
tp3081
a(Vinsert
p3082
I42
VSimpleName: getWorkerFlatMapDataSetGetTimesMs
p3083
tp3084
a(Vinsert
p3085
I42
VSimpleName: lookupTable
p3086
tp3087
a(Vinsert
p3088
I42
VSimpleName: getVertexIndex
p3089
tp3090
a(Vinsert
p3091
I42
VSimpleName: clearJob
p3092
tp3093
a(Vinsert
p3094
I42
VSimpleName: scaleFactor
p3095
tp3096
a(Vinsert
p3097
I42
VSimpleName: addSequenceLabel
p3098
tp3099
a(Vinsert
p3100
I42
VSimpleName: getWordVectorMatrixNormalized
p3101
tp3102
a(Vinsert
p3103
I42
VSimpleName: getDenseLayer
p3104
tp3105
a(Vinsert
p3106
I42
VSimpleName: setFunction
p3107
tp3108
a(Vinsert
p3109
I42
VSimpleName: emptyMap
p3110
tp3111
a(Vinsert
p3112
I42
VSimpleName: getWordCounts
p3113
tp3114
a(Vinsert
p3115
I42
VSimpleName: getComplex
p3116
tp3117
a(Vinsert
p3118
I42
VSimpleName: hasLayer
p3119
tp3120
a(Vinsert
p3121
I42
VSimpleName: getSyn0
p3122
tp3123
a(Vinsert
p3124
I42
VSimpleName: getBackPropGradient2
p3125
tp3126
a(Vinsert
p3127
I42
VSimpleName: valueAt
p3128
tp3129
a(Vinsert
p3130
I42
VSimpleName: getTokens
p3131
tp3132
a(Vinsert
p3133
I42
VSimpleName: averageMeanAbsoluteError
p3134
tp3135
a(Vinsert
p3136
I42
VSimpleName: getUpper
p3137
tp3138
a(Vinsert
p3139
I42
VSimpleName: createWithPath
p3140
tp3141
a(Vinsert
p3142
I42
VSimpleName: concat
p3143
tp3144
a(Vinsert
p3145
I42
VSimpleName: ones
p3146
tp3147
a(Vinsert
p3148
I42
VSimpleName: onEpochStart
p3149
tp3150
a(Vinsert
p3151
I42
VSimpleName: reload
p3152
tp3153
a(Vinsert
p3154
I42
VSimpleName: addIpAddress
p3155
tp3156
a(Vinsert
p3157
I42
VSimpleName: convolutional
p3158
tp3159
a(Vinsert
p3160
I42
VSimpleName: setTrainingEvaluator
p3161
tp3162
a(Vinsert
p3163
I42
VSimpleName: isUseBatchMean
p3164
tp3165
a(Vinsert
p3166
I42
VSimpleName: getResource
p3167
tp3168
a(Vinsert
p3169
I42
VSimpleName: seriesColors
p3170
tp3171
a(Vinsert
p3172
I42
VSimpleName: defaultReadObject
p3173
tp3174
a(Vinsert
p3175
I42
VSimpleName: getSlice
p3176
tp3177
a(Vinsert
p3178
I42
VSimpleName: setBiasLearningRate
p3179
tp3180
a(Vinsert
p3181
I42
VSimpleName: getDistanceFunction
p3182
tp3183
a(Vinsert
p3184
I42
VSimpleName: getLatestUpdateAllWorkers
p3185
tp3186
a(Vinsert
p3187
I42
VSimpleName: getStdev
p3188
tp3189
a(Vinsert
p3190
I42
VSimpleName: resetAdaGradIterations
p3191
tp3192
a(Vinsert
p3193
I42
VSimpleName: addi
p3194
tp3195
a(Vinsert
p3196
I42
VSimpleName: getCountActualPositive
p3197
tp3198
a(Vinsert
p3199
I42
VSimpleName: getActualTotal
p3200
tp3201
a(Vinsert
p3202
I42
VSimpleName: getAlpha
p3203
tp3204
a(Vinsert
p3205
I42
VSimpleName: withEncoder
p3206
tp3207
a(Vinsert
p3208
I42
VSimpleName: getLAYER_FIELD_NAME
p3209
tp3210
a(Vinsert
p3211
I42
VSimpleName: getResourceObject
p3212
tp3213
a(Vinsert
p3214
I42
VSimpleName: seed
p3215
tp3216
a(Vinsert
p3217
I42
VSimpleName: isUseDropConnect
p3218
tp3219
a(Vinsert
p3220
I42
VSimpleName: trainTillConvergence
p3221
tp3222
a(Vinsert
p3223
I42
VSimpleName: scheduler
p3224
tp3225
a(Vinsert
p3226
I42
VSimpleName: getNetworkOutputs
p3227
tp3228
a(Vinsert
p3229
I42
VSimpleName: getData
p3230
tp3231
a(Vinsert
p3232
I42
VSimpleName: zerosLike
p3233
tp3234
a(Vinsert
p3235
I42
VSimpleName: getSplits
p3236
tp3237
a(Vinsert
p3238
I42
VSimpleName: getOriginatorId
p3239
tp3240
a(Vinsert
p3241
I42
VSimpleName: consume
p3242
tp3243
a(Vinsert
p3244
I42
VSimpleName: weightNoise
p3245
tp3246
a(Vinsert
p3247
I42
VSimpleName: setRequestMethod
p3248
tp3249
a(Vinsert
p3250
I42
VSimpleName: permute
p3251
tp3252
a(Vinsert
p3253
I42
VSimpleName: getL1Bias
p3254
tp3255
a(Vinsert
p3256
I42
VSimpleName: getUpdaterAggregatorGraph
p3257
tp3258
a(Vinsert
p3259
I42
VSimpleName: binomial
p3260
tp3261
a(Vinsert
p3262
I42
VSimpleName: available
p3263
tp3264
a(Vinsert
p3265
I42
VSimpleName: singletonMap
p3266
tp3267
a(Vinsert
p3268
I42
VSimpleName: getInferenceWorkspaceMode
p3269
tp3270
a(Vinsert
p3271
I42
VSimpleName: softMaxRows
p3272
tp3273
a(Vinsert
p3274
I42
VSimpleName: trainingWorkspaceMode
p3275
tp3276
a(Vinsert
p3277
I42
VSimpleName: dataSetBatches
p3278
tp3279
a(Vinsert
p3280
I42
VSimpleName: hasMoreSequences
p3281
tp3282
a(Vinsert
p3283
I42
VSimpleName: rddTrainingApproach
p3284
tp3285
a(Vinsert
p3286
I42
VSimpleName: saveAsTextFile
p3287
tp3288
a(Vinsert
p3289
I42
VSimpleName: softmax
p3290
tp3291
a(Vinsert
p3292
I42
VSimpleName: getLeaf
p3293
tp3294
a(Vinsert
p3295
I42
VSimpleName: setParamsViewArray
p3296
tp3297
a(Vinsert
p3298
I42
VSimpleName: getDefaultConfiguration
p3299
tp3300
a(Vinsert
p3301
I42
VSimpleName: setFeatureExtractor
p3302
tp3303
a(Vinsert
p3304
I42
VSimpleName: entrySet
p3305
tp3306
a(Vinsert
p3307
I42
VSimpleName: getDeviceTotalMemory
p3308
tp3309
a(Vinsert
p3310
I42
VSimpleName: getCenter
p3311
tp3312
a(Vinsert
p3313
I42
VSimpleName: negativeSample
p3314
tp3315
a(Vinsert
p3316
I42
VSimpleName: setArchitectureType
p3317
tp3318
a(Vinsert
p3319
I42
VSimpleName: getDeclaredConstructors
p3320
tp3321
a(Vinsert
p3322
I42
VSimpleName: getEvaluateEveryNEpochs
p3323
tp3324
a(Vinsert
p3325
I42
VSimpleName: getBeta
p3326
tp3327
a(Vinsert
p3328
I42
VSimpleName: equalsIgnoreCase
p3329
tp3330
a(Vinsert
p3331
I42
VSimpleName: inputPreProcessor
p3332
tp3333
a(Vinsert
p3334
I42
VSimpleName: toOutcomeMatrix
p3335
tp3336
a(Vinsert
p3337
I42
VSimpleName: getStopList
p3338
tp3339
a(Vinsert
p3340
I42
VSimpleName: getFloat
p3341
tp3342
a(Vinsert
p3343
I42
VSimpleName: delete
p3344
tp3345
a(Vinsert
p3346
I42
VSimpleName: getFile
p3347
tp3348
a(Vinsert
p3349
I42
VSimpleName: hasMaskArrays
p3350
tp3351
a(Vinsert
p3352
I42
VSimpleName: updateHuffmanCodes
p3353
tp3354
a(Vinsert
p3355
I42
VSimpleName: tBPTTBackwardLength
p3356
tp3357
a(Vinsert
p3358
I42
VSimpleName: iterateBucket
p3359
tp3360
a(Vinsert
p3361
I42
VSimpleName: getFirstPart
p3362
tp3363
a(Vinsert
p3364
I42
VSimpleName: distinct
p3365
tp3366
a(Vinsert
p3367
I42
VSimpleName: toPoints
p3368
tp3369
a(Vinsert
p3370
I42
VSimpleName: setDefaultCloseOperation
p3371
tp3372
a(Vinsert
p3373
I42
VSimpleName: addEdge
p3374
tp3375
a(Vinsert
p3376
I42
VSimpleName: setResult
p3377
tp3378
a(Vinsert
p3379
I42
VSimpleName: iterate
p3380
tp3381
a(Vinsert
p3382
I42
VSimpleName: getMax
p3383
tp3384
a(Vinsert
p3385
I42
VSimpleName: columnStd
p3386
tp3387
a(Vinsert
p3388
I42
VSimpleName: newShapeNoCopy
p3389
tp3390
a(Vinsert
p3391
I42
VSimpleName: rank
p3392
tp3393
a(Vinsert
p3394
I42
VSimpleName: getClusters
p3395
tp3396
a(Vinsert
p3397
I42
VSimpleName: wordFor
p3398
tp3399
a(Vinsert
p3400
I42
VSimpleName: toJson
p3401
tp3402
a(Vinsert
p3403
I42
VSimpleName: getCache
p3404
tp3405
a(Vinsert
p3406
I42
VSimpleName: round
p3407
tp3408
a(Vinsert
p3409
I42
VSimpleName: normalizeByColumnSums
p3410
tp3411
a(Vinsert
p3412
I42
VSimpleName: mapToPair
p3413
tp3414
a(Vinsert
p3415
I42
VSimpleName: tryAcquire
p3416
tp3417
a(Vinsert
p3418
I42
VSimpleName: getDIM_ORDERING_TENSORFLOW
p3419
tp3420
a(Vinsert
p3421
I42
VSimpleName: decrementAndGet
p3422
tp3423
a(Vinsert
p3424
I42
VSimpleName: lineIterator
p3425
tp3426
a(Vinsert
p3427
I42
VSimpleName: strideDescendingCAscendingF
p3428
tp3429
a(Vinsert
p3430
I42
VSimpleName: gateActivationFunction
p3431
tp3432
a(Vinsert
p3433
I42
VSimpleName: getUploadPath
p3434
tp3435
a(Vinsert
p3436
I42
VSimpleName: toInt
p3437
tp3438
a(Vinsert
p3439
I42
VSimpleName: wordAtIndex
p3440
tp3441
a(Vinsert
p3442
I42
VSimpleName: createInMemoryLookupCache
p3443
tp3444
a(Vinsert
p3445
I42
VSimpleName: in
p3446
tp3447
a(Vinsert
p3448
I42
VSimpleName: overrideLayer
p3449
tp3450
a(Vinsert
p3451
I42
VSimpleName: merge
p3452
tp3453
a(Vinsert
p3454
I42
VSimpleName: getLayers
p3455
tp3456
a(Vinsert
p3457
I42
VSimpleName: windows
p3458
tp3459
a(Vinsert
p3460
I42
VSimpleName: setLayerSizes
p3461
tp3462
a(Vinsert
p3463
I42
VSimpleName: batchSize
p3464
tp3465
a(Vinsert
p3466
I42
VSimpleName: createPrimitiveDescription
p3467
tp3468
a(Vinsert
p3469
I42
VSimpleName: getKERAS_PARAM_NAME_B
p3470
tp3471
a(Vinsert
p3472
I42
VSimpleName: getNet
p3473
tp3474
a(Vinsert
p3475
I42
VSimpleName: schedule
p3476
tp3477
a(Vinsert
p3478
I42
VSimpleName: setPretrain
p3479
tp3480
a(Vinsert
p3481
I42
VSimpleName: getLayersSize
p3482
tp3483
a(Vinsert
p3484
I42
VSimpleName: toFlattened
p3485
tp3486
a(Vinsert
p3487
I42
VSimpleName: indexOf
p3488
tp3489
a(Vinsert
p3490
I42
VSimpleName: toOffsetZeroCopy
p3491
tp3492
a(Vinsert
p3493
I42
VSimpleName: gradientNormalization
p3494
tp3495
a(Vinsert
p3496
I42
VSimpleName: convn
p3497
tp3498
a(Vinsert
p3499
I42
VSimpleName: hasAttribute
p3500
tp3501
a(Vinsert
p3502
I42
VSimpleName: train
p3503
tp3504
a(Vinsert
p3505
I42
VSimpleName: averaged
p3506
tp3507
a(Vinsert
p3508
I42
VSimpleName: slice
p3509
tp3510
a(Vinsert
p3511
I42
VSimpleName: isOutputVertex
p3512
tp3513
a(Vinsert
p3514
I42
VSimpleName: synchronizedMap
p3515
tp3516
a(Vinsert
p3517
I42
VSimpleName: createAppendingOutputStream
p3518
tp3519
a(Vinsert
p3520
I42
VSimpleName: getTotalMemoryBytes
p3521
tp3522
a(Vinsert
p3523
I42
VSimpleName: getVertexVector
p3524
tp3525
a(Vinsert
p3526
I42
VSimpleName: getCount
p3527
tp3528
a(Vinsert
p3529
I42
VSimpleName: getReferencedContent
p3530
tp3531
a(Vinsert
p3532
I42
VSimpleName: setLearningRate
p3533
tp3534
a(Vinsert
p3535
I42
VSimpleName: norm2Number
p3536
tp3537
a(Vinsert
p3538
I42
VSimpleName: negativeLogLikelihood
p3539
tp3540
a(Vinsert
p3541
I42
VSimpleName: numHidden
p3542
tp3543
a(Vinsert
p3544
I42
VSimpleName: constructTempDir
p3545
tp3546
a(Vinsert
p3547
I42
VSimpleName: getdWeights
p3548
tp3549
a(Vinsert
p3550
I42
VSimpleName: getSubTypesOf
p3551
tp3552
a(Vinsert
p3553
I42
VSimpleName: getIn
p3554
tp3555
a(Vinsert
p3556
I42
VSimpleName: getTrimmedStrings
p3557
tp3558
a(Vinsert
p3559
I42
VSimpleName: increment
p3560
tp3561
a(Vinsert
p3562
I42
VSimpleName: isConstrainGradientToUnitNorm
p3563
tp3564
a(Vinsert
p3565
I42
VSimpleName: createRandom
p3566
tp3567
a(Vinsert
p3568
I42
VSimpleName: copyOf
p3569
tp3570
a(Vinsert
p3571
I42
VSimpleName: setInput
p3572
tp3573
a(Vinsert
p3574
I42
VSimpleName: toPath
p3575
tp3576
a(Vinsert
p3577
I42
VSimpleName: encodeB64
p3578
tp3579
a(Vinsert
p3580
I42
VSimpleName: setMaxIterations
p3581
tp3582
a(Vinsert
p3583
I42
VSimpleName: setDropOut
p3584
tp3585
a(Vinsert
p3586
I42
VSimpleName: getWeightAdaGrad
p3587
tp3588
a(Vinsert
p3589
I42
VSimpleName: fromYaml
p3590
tp3591
a(Vinsert
p3592
I42
VSimpleName: isUseAdaGrad
p3593
tp3594
a(Vinsert
p3595
I42
VSimpleName: testCursorPosition
p3596
tp3597
a(Vinsert
p3598
I42
VSimpleName: reverse
p3599
tp3600
a(Vinsert
p3601
I42
VSimpleName: minNumber
p3602
tp3603
a(Vinsert
p3604
I42
VSimpleName: listTypeIDsForSession
p3605
tp3606
a(Vinsert
p3607
I42
VSimpleName: trainNetwork
p3608
tp3609
a(Vinsert
p3610
I42
VSimpleName: pretrainedAvailable
p3611
tp3612
a(Vinsert
p3613
I42
VSimpleName: getInboundLayerNames
p3614
tp3615
a(Vinsert
p3616
I42
VSimpleName: asDouble
p3617
tp3618
a(Vinsert
p3619
I42
VSimpleName: putInt
p3620
tp3621
a(Vinsert
p3622
I42
VSimpleName: fetch
p3623
tp3624
a(Vinsert
p3625
I42
VSimpleName: renderByLayer
p3626
tp3627
a(Vinsert
p3628
I42
VSimpleName: setDTypeForContext
p3629
tp3630
a(Vinsert
p3631
I42
VSimpleName: ready
p3632
tp3633
a(Vinsert
p3634
I42
VSimpleName: restoreNormalizerFromFile
p3635
tp3636
a(Vinsert
p3637
I42
VSimpleName: cublasAlloc
p3638
tp3639
a(Vinsert
p3640
I42
VSimpleName: findNearbyPoints
p3641
tp3642
a(Vinsert
p3643
I42
VSimpleName: isConcatBiases
p3644
tp3645
a(Vinsert
p3646
I42
VSimpleName: getErrors
p3647
tp3648
a(Vinsert
p3649
I42
VSimpleName: portTaken
p3650
tp3651
a(Vinsert
p3652
I42
VSimpleName: ravel
p3653
tp3654
a(Vinsert
p3655
I42
VSimpleName: fit
p3656
tp3657
a(Vinsert
p3658
I42
VSimpleName: getMasterAbsPath
p3659
tp3660
a(Vinsert
p3661
I42
VSimpleName: getNumOutputArrays
p3662
tp3663
a(Vinsert
p3664
I42
VSimpleName: addVertex
p3665
tp3666
a(Vinsert
p3667
I42
VSimpleName: loadConfigFile
p3668
tp3669
a(Vinsert
p3670
I42
VSimpleName: setUseGaussNewtonVectorProductBackProp
p3671
tp3672
a(Vinsert
p3673
I42
VSimpleName: minWordFrequency
p3674
tp3675
a(Vinsert
p3676
I42
VSimpleName: setLR
p3677
tp3678
a(Vinsert
p3679
I42
VSimpleName: maxMemory
p3680
tp3681
a(Vinsert
p3682
I42
VSimpleName: stride
p3683
tp3684
a(Vinsert
p3685
I42
VSimpleName: rand
p3686
tp3687
a(Vinsert
p3688
I42
VSimpleName: pzxActivationFunction
p3689
tp3690
a(Vinsert
p3691
I42
VSimpleName: currentWorkers
p3692
tp3693
a(Vinsert
p3694
I42
VSimpleName: setExternalSource
p3695
tp3696
a(Vinsert
p3697
I42
VSimpleName: getCoveredText
p3698
tp3699
a(Vinsert
p3700
I42
VSimpleName: iterationCountGreaterThan
p3701
tp3702
a(Vinsert
p3703
I42
VSimpleName: setIterations
p3704
tp3705
a(Vinsert
p3706
I42
VSimpleName: getFeaturesMaskArrays
p3707
tp3708
a(Vinsert
p3709
I42
VSimpleName: getKey
p3710
tp3711
a(Vinsert
p3712
I42
VSimpleName: columnStdDeviation
p3713
tp3714
a(Vinsert
p3715
I42
VSimpleName: vectorLength
p3716
tp3717
a(Vinsert
p3718
I42
VSimpleName: pointer
p3719
tp3720
a(Vinsert
p3721
I42
VSimpleName: writeString
p3722
tp3723
a(Vinsert
p3724
I42
VSimpleName: isPreTerminal
p3725
tp3726
a(Vinsert
p3727
I42
VSimpleName: modelJsonInputStream
p3728
tp3729
a(Vinsert
p3730
I42
VSimpleName: take
p3731
tp3732
a(Vinsert
p3733
I42
VSimpleName: getThresholdStep
p3734
tp3735
a(Vinsert
p3736
I42
VSimpleName: balancedRandomSplit
p3737
tp3738
a(Vinsert
p3739
I42
VSimpleName: binarize
p3740
tp3741
a(Vinsert
p3742
I42
VSimpleName: context
p3743
tp3744
a(Vinsert
p3745
I42
VSimpleName: getVarLenType
p3746
tp3747
a(Vinsert
p3748
I42
VSimpleName: readDouble
p3749
tp3750
a(Vinsert
p3751
I42
VSimpleName: getLAYER_FIELD_NB_FILTER
p3752
tp3753
a(Vinsert
p3754
I42
VSimpleName: getStepFunction
p3755
tp3756
a(Vinsert
p3757
I42
VSimpleName: memset
p3758
tp3759
a(Vinsert
p3760
I42
VSimpleName: reportIterationCount
p3761
tp3762
a(Vinsert
p3763
I42
VSimpleName: setMinCount
p3764
tp3765
a(Vinsert
p3766
I42
VSimpleName: testInit
p3767
tp3768
a(Vinsert
p3769
I42
VSimpleName: forFileName
p3770
tp3771
a(Vinsert
p3772
I42
VSimpleName: unlock
p3773
tp3774
a(Vinsert
p3775
I42
VSimpleName: tags
p3776
tp3777
a(Vinsert
p3778
I42
VSimpleName: type
p3779
tp3780
a(Vinsert
p3781
I42
VSimpleName: reconstruct
p3782
tp3783
a(Vinsert
p3784
I42
VSimpleName: select
p3785
tp3786
a(Vinsert
p3787
I42
VSimpleName: registerConsumers
p3788
tp3789
a(Vinsert
p3790
I42
VSimpleName: getBiasInit
p3791
tp3792
a(Vinsert
p3793
I42
VSimpleName: limit
p3794
tp3795
a(Vinsert
p3796
I42
VSimpleName: getList
p3797
tp3798
a(Vinsert
p3799
I42
VSimpleName: distributionInputSize
p3800
tp3801
a(Vinsert
p3802
I42
VSimpleName: setParameters
p3803
tp3804
a(Vinsert
p3805
I42
VSimpleName: getParam
p3806
tp3807
a(Vinsert
p3808
I42
VSimpleName: gethBias
p3809
tp3810
a(Vinsert
p3811
I42
VSimpleName: needsReplicate
p3812
tp3813
a(Vinsert
p3814
I42
VSimpleName: getRouter
p3815
tp3816
a(Vinsert
p3817
I42
VSimpleName: group
p3818
tp3819
a(Vinsert
p3820
I42
VSimpleName: computeGradientAndScore
p3821
tp3822
a(Vinsert
p3823
I42
VSimpleName: dispose
p3824
tp3825
a(Vinsert
p3826
I42
VSimpleName: clear
p3827
tp3828
a(Vinsert
p3829
I42
VSimpleName: setParamTable
p3830
tp3831
a(Vinsert
p3832
I42
VSimpleName: withLossFunction
p3833
tp3834
a(Vinsert
p3835
I42
VSimpleName: dznrm2
p3836
tp3837
a(Vinsert
p3838
I42
VSimpleName: getExtension
p3839
tp3840
a(Vinsert
p3841
I42
VSimpleName: addDeserializer
p3842
tp3843
a(Vinsert
p3844
I42
VSimpleName: dist
p3845
tp3846
a(Vinsert
p3847
I42
VSimpleName: addiColumnVector
p3848
tp3849
a(Vinsert
p3850
I42
VSimpleName: setB
p3851
tp3852
a(Vinsert
p3853
I42
VSimpleName: setStrings
p3854
tp3855
a(Vinsert
p3856
I42
VSimpleName: readLabel
p3857
tp3858
a(Vinsert
p3859
I42
VSimpleName: drawImage
p3860
tp3861
a(Vinsert
p3862
I42
VSimpleName: activate
p3863
tp3864
a(Vinsert
p3865
I42
VSimpleName: getSequenceLearningAlgorithm
p3866
tp3867
a(Vinsert
p3868
I42
VSimpleName: indexDir
p3869
tp3870
a(Vinsert
p3871
I42
VSimpleName: fromPair
p3872
tp3873
a(Vinsert
p3874
I42
VSimpleName: createEngineDescription
p3875
tp3876
a(Vinsert
p3877
I42
VSimpleName: sample_h_given_v
p3878
tp3879
a(Vinsert
p3880
I42
VSimpleName: setLogin
p3881
tp3882
a(Vinsert
p3883
I42
VSimpleName: setEpochCount
p3884
tp3885
a(Vinsert
p3886
I42
VSimpleName: normalizeByRowSums
p3887
tp3888
a(Vinsert
p3889
I42
VSimpleName: loadFromFile
p3890
tp3891
a(Vinsert
p3892
I42
VSimpleName: setMaster
p3893
tp3894
a(Vinsert
p3895
I42
VSimpleName: isClusteringOptimizationType
p3896
tp3897
a(Vinsert
p3898
I42
VSimpleName: asSubclass
p3899
tp3900
a(Vinsert
p3901
I42
VSimpleName: setLayersSize
p3902
tp3903
a(Vinsert
p3904
I42
VSimpleName: clearNoiseWeightParams
p3905
tp3906
a(Vinsert
p3907
I42
VSimpleName: match
p3908
tp3909
a(Vinsert
p3910
I42
VSimpleName: withRandom
p3911
tp3912
a(Vinsert
p3913
I42
VSimpleName: getLayerName
p3914
tp3915
a(Vinsert
p3916
I42
VSimpleName: zgemm
p3917
tp3918
a(Vinsert
p3919
I42
VSimpleName: numExamples
p3920
tp3921
a(Vinsert
p3922
I42
VSimpleName: logFitStart
p3923
tp3924
a(Vinsert
p3925
I42
VSimpleName: getFieldClassNameSequential
p3926
tp3927
a(Vinsert
p3928
I42
VSimpleName: skipDueToPretrainConfig
p3929
tp3930
a(Vinsert
p3931
I42
VSimpleName: addPreProcessors
p3932
tp3933
a(Vinsert
p3934
I42
VSimpleName: labels
p3935
tp3936
a(Vinsert
p3937
I42
VSimpleName: getPreProcessorForInputTypeCnnLayers
p3938
tp3939
a(Vinsert
p3940
I42
VSimpleName: setName
p3941
tp3942
a(Vinsert
p3943
I42
VSimpleName: getSentences
p3944
tp3945
a(Vinsert
p3946
I42
VSimpleName: getLearningRateByParam
p3947
tp3948
a(Vinsert
p3949
I42
VSimpleName: filter
p3950
tp3951
a(Vinsert
p3952
I42
VSimpleName: getIndexes
p3953
tp3954
a(Vinsert
p3955
I42
VSimpleName: setNumIterations
p3956
tp3957
a(Vinsert
p3958
I42
VSimpleName: getGradientFor
p3959
tp3960
a(Vinsert
p3961
I42
VSimpleName: isPretrain
p3962
tp3963
a(Vinsert
p3964
I42
VSimpleName: readFileToString
p3965
tp3966
a(Vinsert
p3967
I42
VSimpleName: getResult
p3968
tp3969
a(Vinsert
p3970
I42
VSimpleName: hasNext
p3971
tp3972
a(Vinsert
p3973
I42
VSimpleName: getPoolingType
p3974
tp3975
a(Vinsert
p3976
I42
VSimpleName: iterator
p3977
tp3978
a(Vinsert
p3979
I42
VSimpleName: setLabels
p3980
tp3981
a(Vinsert
p3982
I42
VSimpleName: outcome
p3983
tp3984
a(Vinsert
p3985
I42
VSimpleName: getLrPolicySteps
p3986
tp3987
a(Vinsert
p3988
I42
VSimpleName: conf
p3989
tp3990
a(Vinsert
p3991
I42
VSimpleName: numberOfKnownClients
p3992
tp3993
a(Vinsert
p3994
I42
VSimpleName: params
p3995
tp3996
a(Vinsert
p3997
I42
VSimpleName: coOccurrenceIteratorVocabBatch
p3998
tp3999
a(Vinsert
p4000
I42
VSimpleName: getINIT_VARIANCE_SCALING
p4001
tp4002
a(Vinsert
p4003
I42
VSimpleName: getFeatures
p4004
tp4005
a(Vinsert
p4006
I42
VSimpleName: createGraphics
p4007
tp4008
a(Vinsert
p4009
I42
VSimpleName: linspace
p4010
tp4011
a(Vinsert
p4012
I42
VSimpleName: loadFullModel
p4013
tp4014
a(Vinsert
p4015
I42
VSimpleName: setNumPasses
p4016
tp4017
a(Vinsert
p4018
I42
VSimpleName: downloadDirectory
p4019
tp4020
a(Vinsert
p4021
I42
VSimpleName: toString
p4022
tp4023
a(Vinsert
p4024
I42
VSimpleName: epochComplete
p4025
tp4026
a(Vinsert
p4027
I42
VSimpleName: getIUpdaterByParam
p4028
tp4029
a(Vinsert
p4030
I42
VSimpleName: getFeatureMatrix
p4031
tp4032
a(Vinsert
p4033
I42
VSimpleName: vertexID
p4034
tp4035
a(Vinsert
p4036
I42
VSimpleName: close
p4037
tp4038
a(Vinsert
p4039
I42
VSimpleName: getCorruptionLevel
p4040
tp4041
a(Vinsert
p4042
I42
VSimpleName: broadcast
p4043
tp4044
a(Vinsert
p4045
I42
VSimpleName: currentLabel
p4046
tp4047
a(Vinsert
p4048
I42
VSimpleName: setAccessible
p4049
tp4050
a(Vinsert
p4051
I42
VSimpleName: toIndices
p4052
tp4053
a(Vinsert
p4054
I42
VSimpleName: splitTestAndTrain
p4055
tp4056
a(Vinsert
p4057
I42
VSimpleName: getMean
p4058
tp4059
a(Vinsert
p4060
I42
VSimpleName: getConfusionMatrixAtPoint
p4061
tp4062
a(Vinsert
p4063
I42
VSimpleName: contains
p4064
tp4065
a(Vinsert
p4066
I42
VSimpleName: asCommonFG
p4067
tp4068
a(Vinsert
p4069
I42
VSimpleName: checkExists
p4070
tp4071
a(Vinsert
p4072
I42
VSimpleName: writeObject
p4073
tp4074
a(Vinsert
p4075
I42
VSimpleName: getMemoryBytes
p4076
tp4077
a(Vinsert
p4078
I42
VSimpleName: first
p4079
tp4080
a(Vinsert
p4081
I42
VSimpleName: jobIds
p4082
tp4083
a(Vinsert
p4084
I42
VSimpleName: negative
p4085
tp4086
a(Vinsert
p4087
I42
VSimpleName: getCodes
p4088
tp4089
a(Vinsert
p4090
I42
VSimpleName: getTrainFeaturesDirectory
p4091
tp4092
a(Vinsert
p4093
I42
VSimpleName: computeScoreArray
p4094
tp4095
a(Vinsert
p4096
I42
VSimpleName: getLayersAndVariablesInBlock
p4097
tp4098
a(Vinsert
p4099
I42
VSimpleName: triggerGradientEvents
p4100
tp4101
a(Vinsert
p4102
I42
VSimpleName: getLossPositionScale
p4103
tp4104
a(Vinsert
p4105
I42
VSimpleName: rows
p4106
tp4107
a(Vinsert
p4108
I42
VSimpleName: distance1
p4109
tp4110
a(Vinsert
p4111
I42
VSimpleName: shapeEquals
p4112
tp4113
a(Vinsert
p4114
I42
VSimpleName: isRowVectorShape
p4115
tp4116
a(Vinsert
p4117
I42
VSimpleName: getArray
p4118
tp4119
a(Vinsert
p4120
I42
VSimpleName: output
p4121
tp4122
a(Vinsert
p4123
I42
VSimpleName: update
p4124
tp4125
a(Vinsert
p4126
I42
VSimpleName: restoreComputationGraph
p4127
tp4128
a(Vinsert
p4129
I42
VSimpleName: toLabelMatrix
p4130
tp4131
a(Vinsert
p4132
I42
VSimpleName: paramsBackprop
p4133
tp4134
a(Vinsert
p4135
I42
VSimpleName: withVisibleSize
p4136
tp4137
a(Vinsert
p4138
I42
VSimpleName: initiateMultipartUpload
p4139
tp4140
a(Vinsert
p4141
I42
VSimpleName: synchronizedList
p4142
tp4143
a(Vinsert
p4144
I42
VSimpleName: getInputs
p4145
tp4146
a(Vinsert
p4147
I42
VSimpleName: getListenerStaticInfo
p4148
tp4149
a(Vinsert
p4150
I42
VSimpleName: rsubi
p4151
tp4152
a(Vinsert
p4153
I42
VSimpleName: getLrScoreDecay
p4154
tp4155
a(Vinsert
p4156
I42
VSimpleName: nextDouble
p4157
tp4158
a(Vinsert
p4159
I42
VSimpleName: printUsage
p4160
tp4161
a(Vinsert
p4162
I42
VSimpleName: assertSquare
p4163
tp4164
a(Vinsert
p4165
I42
VSimpleName: cublasDger
p4166
tp4167
a(Vinsert
p4168
I42
VSimpleName: allocateDirect
p4169
tp4170
a(Vinsert
p4171
I42
VSimpleName: setUseHS
p4172
tp4173
a(Vinsert
p4174
I42
VSimpleName: setNewNumberOfLabels
p4175
tp4176
a(Vinsert
p4177
I42
VSimpleName: getNumInputArrays
p4178
tp4179
a(Vinsert
p4180
I42
VSimpleName: inverseDistanceCalculation
p4181
tp4182
a(Vinsert
p4183
I42
VSimpleName: slices
p4184
tp4185
a(Vinsert
p4186
I42
VSimpleName: getSparkTrainingStats
p4187
tp4188
a(Vinsert
p4189
I42
VSimpleName: setL2
p4190
tp4191
a(Vinsert
p4192
I42
VSimpleName: getTerminationReason
p4193
tp4194
a(Vinsert
p4195
I42
VSimpleName: getZeroPaddingLayer
p4196
tp4197
a(Vinsert
p4198
I42
VSimpleName: logRepartitionStart
p4199
tp4200
a(Vinsert
p4201
I42
VSimpleName: std
p4202
tp4203
a(Vinsert
p4204
I42
VSimpleName: skipGram
p4205
tp4206
a(Vinsert
p4207
I42
VSimpleName: currentResult
p4208
tp4209
a(Vinsert
p4210
I42
VSimpleName: unknownElement
p4211
tp4212
a(Vinsert
p4213
I42
VSimpleName: flatteningOrderForVariable
p4214
tp4215
a(Vinsert
p4216
I42
VSimpleName: getLrSchedule
p4217
tp4218
a(Vinsert
p4219
I42
VSimpleName: hasMoreElements
p4220
tp4221
a(Vinsert
p4222
I42
VSimpleName: windowSize
p4223
tp4224
a(Vinsert
p4225
I42
VSimpleName: getColumn
p4226
tp4227
a(Vinsert
p4228
I42
VSimpleName: getBestModelEpoch
p4229
tp4230
a(Vinsert
p4231
I42
VSimpleName: initGradientsView
p4232
tp4233
a(Vinsert
p4234
I42
VSimpleName: addConnection
p4235
tp4236
a(Vinsert
p4237
I42
VSimpleName: diviColumnVector
p4238
tp4239
a(Vinsert
p4240
I42
VSimpleName: hstack
p4241
tp4242
a(Vinsert
p4243
I42
VSimpleName: toBinary
p4244
tp4245
a(Vinsert
p4246
I42
VSimpleName: addSerializer
p4247
tp4248
a(Vinsert
p4249
I42
VSimpleName: getWork
p4250
tp4251
a(Vinsert
p4252
I42
VSimpleName: sumPooling
p4253
tp4254
a(Vinsert
p4255
I42
VSimpleName: addInputs
p4256
tp4257
a(Vinsert
p4258
I42
VSimpleName: elementAtIndex
p4259
tp4260
a(Vinsert
p4261
I42
VSimpleName: getValue
p4262
tp4263
a(Vinsert
p4264
I42
VSimpleName: partitions
p4265
tp4266
a(Vinsert
p4267
I42
VSimpleName: tBPTTForwardLength
p4268
tp4269
a(Vinsert
p4270
I42
VSimpleName: getNIn
p4271
tp4272
a(Vinsert
p4273
I42
VSimpleName: setUNK
p4274
tp4275
a(Vinsert
p4276
I42
VSimpleName: getLAYER_FIELD_INIT_MEAN
p4277
tp4278
a(Vinsert
p4279
I42
VSimpleName: nextMeta
p4280
tp4281
a(Vinsert
p4282
I42
VSimpleName: getDeclaredConstructor
p4283
tp4284
a(Vinsert
p4285
I42
VSimpleName: sampleOrActivateByLayer
p4286
tp4287
a(Vinsert
p4288
I42
VSimpleName: getDataBufferFactory
p4289
tp4290
a(Vinsert
p4291
I42
VSimpleName: getCas
p4292
tp4293
a(Vinsert
p4294
I42
VSimpleName: system
p4295
tp4296
a(Vinsert
p4297
I42
VSimpleName: awaitTerminationOrTimeout
p4298
tp4299
a(Vinsert
p4300
I42
VSimpleName: getLayerWiseConfigurations
p4301
tp4302
a(Vinsert
p4303
I42
VSimpleName: evaluate
p4304
tp4305
a(Vinsert
p4306
I42
VSimpleName: remainingCapacity
p4307
tp4308
a(Vinsert
p4309
I42
VSimpleName: layerSize
p4310
tp4311
a(Vinsert
p4312
I42
VSimpleName: negi
p4313
tp4314
a(Vinsert
p4315
I42
VSimpleName: getPreProcessor
p4316
tp4317
a(Vinsert
p4318
I42
VSimpleName: removeIndex
p4319
tp4320
a(Vinsert
p4321
I42
VSimpleName: getRuntime
p4322
tp4323
a(Vinsert
p4324
I42
VSimpleName: getFinetuneEpochs
p4325
tp4326
a(Vinsert
p4327
I42
VSimpleName: rebuildTree
p4328
tp4329
a(Vinsert
p4330
I42
VSimpleName: readByte
p4331
tp4332
a(Vinsert
p4333
I42
VSimpleName: plotWeights
p4334
tp4335
a(Vinsert
p4336
I42
VSimpleName: fromJson
p4337
tp4338
a(Vinsert
p4339
I42
VSimpleName: floatValue
p4340
tp4341
a(Vinsert
p4342
I42
VSimpleName: isInverse
p4343
tp4344
a(Vinsert
p4345
I42
VSimpleName: readLock
p4346
tp4347
a(Vinsert
p4348
I42
VSimpleName: getState
p4349
tp4350
a(Vinsert
p4351
I42
VSimpleName: buildCumSum
p4352
tp4353
a(Vinsert
p4354
I42
VSimpleName: getSequenceLabel
p4355
tp4356
a(Vinsert
p4357
I42
VSimpleName: toBytes
p4358
tp4359
a(Vinsert
p4360
I42
VSimpleName: numberOfShards
p4361
tp4362
a(Vinsert
p4363
I42
VSimpleName: getMasterResults
p4364
tp4365
a(Vinsert
p4366
I42
VSimpleName: setLineSearchBackProp
p4367
tp4368
a(Vinsert
p4369
I42
VSimpleName: incrementNumTimesPreTrainRan
p4370
tp4371
a(Vinsert
p4372
I42
VSimpleName: getScavengerActivationThreshold
p4373
tp4374
a(Vinsert
p4375
I42
VSimpleName: getPredictions
p4376
tp4377
a(Vinsert
p4378
I42
VSimpleName: readTextFormatSolver
p4379
tp4380
a(Vinsert
p4381
I42
VSimpleName: getConnections
p4382
tp4383
a(Vinsert
p4384
I42
VSimpleName: order
p4385
tp4386
a(Vinsert
p4387
I42
VSimpleName: getLayerNames
p4388
tp4389
a(Vinsert
p4390
I42
VSimpleName: getLrPolicyPower
p4391
tp4392
a(Vinsert
p4393
I42
VSimpleName: getPartition
p4394
tp4395
a(Vinsert
p4396
I42
VSimpleName: pow
p4397
tp4398
a(Vinsert
p4399
I42
VSimpleName: getAllCalls
p4400
tp4401
a(Vinsert
p4402
I42
VSimpleName: perform
p4403
tp4404
a(Vinsert
p4405
I42
VSimpleName: computeZ
p4406
tp4407
a(Vinsert
p4408
I42
VSimpleName: sequenceRecord
p4409
tp4410
a(Vinsert
p4411
I42
VSimpleName: initPretrained
p4412
tp4413
a(Vinsert
p4414
I42
VSimpleName: activateHelper
p4415
tp4416
a(Vinsert
p4417
I42
VSimpleName: readLabels
p4418
tp4419
a(Vinsert
p4420
I42
VSimpleName: tanh
p4421
tp4422
a(Vinsert
p4423
I42
VSimpleName: allFalse
p4424
tp4425
a(Vinsert
p4426
I42
VSimpleName: createEngine
p4427
tp4428
a(Vinsert
p4429
I42
VSimpleName: calcStrides
p4430
tp4431
a(Vinsert
p4432
I42
VSimpleName: apply
p4433
tp4434
a(Vinsert
p4435
I42
VSimpleName: forName
p4436
tp4437
a(Vinsert
p4438
I42
VSimpleName: setInitialMomentum
p4439
tp4440
a(Vinsert
p4441
I42
VSimpleName: activationFunction
p4442
tp4443
a(Vinsert
p4444
I42
VSimpleName: dot
p4445
tp4446
a(Vinsert
p4447
I42
VSimpleName: fineTuneConfiguration
p4448
tp4449
a(Vinsert
p4450
I42
VSimpleName: getVocab
p4451
tp4452
a(Vinsert
p4453
I42
VSimpleName: setUseHiddenActivationsForwardProp
p4454
tp4455
a(Vinsert
p4456
I42
VSimpleName: calculateScore
p4457
tp4458
a(Vinsert
p4459
I42
VSimpleName: getColumnStds
p4460
tp4461
a(Vinsert
p4462
I42
VSimpleName: getOptimalBufferSize
p4463
tp4464
a(Vinsert
p4465
I42
VSimpleName: getInnerNodeVector
p4466
tp4467
a(Vinsert
p4468
I42
VSimpleName: iterateFiles
p4469
tp4470
a(Vinsert
p4471
I42
VSimpleName: getAtomicLong
p4472
tp4473
a(Vinsert
p4474
I42
VSimpleName: get
p4475
tp4476
a(Vinsert
p4477
I42
VSimpleName: getPairIterator
p4478
tp4479
a(Vinsert
p4480
I42
VSimpleName: withByteOffset
p4481
tp4482
a(Vinsert
p4483
I42
VSimpleName: withHBias
p4484
tp4485
a(Vinsert
p4486
I42
VSimpleName: gte
p4487
tp4488
a(Vinsert
p4489
I42
VSimpleName: shape
p4490
tp4491
a(Vinsert
p4492
I42
VSimpleName: cosineSim
p4493
tp4494
a(Vinsert
p4495
I42
VSimpleName: getPointAtThreshold
p4496
tp4497
a(Vinsert
p4498
I42
VSimpleName: getMomentumAfter
p4499
tp4500
a(Vinsert
p4501
I42
VSimpleName: findSerializerFor
p4502
tp4503
a(Vinsert
p4504
I42
VSimpleName: layerName
p4505
tp4506
a(Vinsert
p4507
I42
VSimpleName: getFileName
p4508
tp4509
a(Vinsert
p4510
I42
VSimpleName: bypassMode
p4511
tp4512
a(Vinsert
p4513
I42
VSimpleName: insert
p4514
tp4515
a(Vinsert
p4516
I42
VSimpleName: markAsLabel
p4517
tp4518
a(Vinsert
p4519
I42
VSimpleName: cacheMemory
p4520
tp4521
a(Vinsert
p4522
I42
VSimpleName: reshapeTimeSeriesMaskToVector
p4523
tp4524
a(Vinsert
p4525
I42
VSimpleName: getLambda
p4526
tp4527
a(Vinsert
p4528
I42
VSimpleName: readObject
p4529
tp4530
a(Vinsert
p4531
I42
VSimpleName: tensorMmul
p4532
tp4533
a(Vinsert
p4534
I42
VSimpleName: sumNumber
p4535
tp4536
a(Vinsert
p4537
I42
VSimpleName: getString
p4538
tp4539
a(Vinsert
p4540
I42
VSimpleName: getBoolean
p4541
tp4542
a(Vinsert
p4543
I42
VSimpleName: save
p4544
tp4545
a(Vinsert
p4546
I42
VSimpleName: resetModel
p4547
tp4548
a(Vinsert
p4549
I42
VSimpleName: exec
p4550
tp4551
a(Vinsert
p4552
I42
VSimpleName: incrementAll
p4553
tp4554
a(Vinsert
p4555
I42
VSimpleName: getObjectMapper
p4556
tp4557
a(Vinsert
p4558
I42
VSimpleName: columnSums
p4559
tp4560
a(Vinsert
p4561
I42
VSimpleName: hasBegun
p4562
tp4563
a(Vinsert
p4564
I42
VSimpleName: setPreProcessor
p4565
tp4566
a(Vinsert
p4567
I42
VSimpleName: setUseDropConnect
p4568
tp4569
a(Vinsert
p4570
I42
VSimpleName: withVisibleUnits
p4571
tp4572
a(Vinsert
p4573
I42
VSimpleName: decoderLayerSizes
p4574
tp4575
a(Vinsert
p4576
I42
VSimpleName: var
p4577
tp4578
a(Vinsert
p4579
I42
VSimpleName: getFeatureMap
p4580
tp4581
a(Vinsert
p4582
I42
VSimpleName: setAdaGrad
p4583
tp4584
a(Vinsert
p4585
I42
VSimpleName: numDocuments
p4586
tp4587
a(Vinsert
p4588
I42
VSimpleName: Setup
p4589
tp4590
a(Vinsert
p4591
I42
VSimpleName: id
p4592
tp4593
a(Vinsert
p4594
I42
VSimpleName: acquire
p4595
tp4596
a(Vinsert
p4597
I42
VSimpleName: getConnectedVertices
p4598
tp4599
a(Vinsert
p4600
I42
VSimpleName: draw
p4601
tp4602
a(Vinsert
p4603
I42
VSimpleName: setLayerMaskArrays
p4604
tp4605
a(Vinsert
p4606
I42
VSimpleName: tbpttBackpropGradient
p4607
tp4608
a(Vinsert
p4609
I42
VSimpleName: sentencesAlongHeight
p4610
tp4611
a(Vinsert
p4612
I42
VSimpleName: putIfAbsent
p4613
tp4614
a(Vinsert
p4615
I42
VSimpleName: listSteps
p4616
tp4617
a(Vinsert
p4618
I42
VSimpleName: padWithZeros
p4619
tp4620
a(Vinsert
p4621
I42
VSimpleName: parseArgument
p4622
tp4623
a(Vinsert
p4624
I42
VSimpleName: getLabelsSource
p4625
tp4626
a(Vinsert
p4627
I42
VSimpleName: classifyPoint
p4628
tp4629
a(Vinsert
p4630
I42
VSimpleName: epochTerminationConditions
p4631
tp4632
a(Vinsert
p4633
I42
VSimpleName: getTableId
p4634
tp4635
a(Vinsert
p4636
I42
VSimpleName: activationFromPrevLayer
p4637
tp4638
a(Vinsert
p4639
I42
VSimpleName: equalsWithEps
p4640
tp4641
a(Vinsert
p4642
I42
VSimpleName: setLastEtlTime
p4643
tp4644
a(Vinsert
p4645
I42
VSimpleName: getAccumulator
p4646
tp4647
a(Vinsert
p4648
I42
VSimpleName: sum
p4649
tp4650
a(Vinsert
p4651
I42
VSimpleName: getPort
p4652
tp4653
a(Vinsert
p4654
I42
VSimpleName: hasWord
p4655
tp4656
a(Vinsert
p4657
I42
VSimpleName: setHost
p4658
tp4659
a(Vinsert
p4660
I42
VSimpleName: equals
p4661
tp4662
a(Vinsert
p4663
I42
VSimpleName: getModelClassName
p4664
tp4665
a(Vinsert
p4666
I42
VSimpleName: getChannels
p4667
tp4668
a(Vinsert
p4669
I42
VSimpleName: getSeed
p4670
tp4671
a(Vinsert
p4672
I42
VSimpleName: setOptimizationAlgorithm
p4673
tp4674
a(Vinsert
p4675
I42
VSimpleName: convert
p4676
tp4677
a(Vinsert
p4678
I42
VSimpleName: readLine
p4679
tp4680
a(Vinsert
p4681
I42
VSimpleName: row
p4682
tp4683
a(Vinsert
p4684
I42
VSimpleName: removeElements
p4685
tp4686
a(Vinsert
p4687
I42
VSimpleName: featureIndexFromLabelIndex
p4688
tp4689
a(Vinsert
p4690
I42
VSimpleName: getLayerSizes
p4691
tp4692
a(Vinsert
p4693
I42
VSimpleName: getDate
p4694
tp4695
a(Vinsert
p4696
I42
VSimpleName: addMapConfig
p4697
tp4698
a(Vinsert
p4699
I42
VSimpleName: markAsPreProcessed
p4700
tp4701
a(Vinsert
p4702
I42
VSimpleName: onCompletion
p4703
tp4704
a(Vinsert
p4705
I42
VSimpleName: loadFromMetaData
p4706
tp4707
a(Vinsert
p4708
I42
VSimpleName: getFactory
p4709
tp4710
a(Vinsert
p4711
I42
VSimpleName: getDl4jLayer
p4712
tp4713
a(Vinsert
p4714
I42
VSimpleName: getCodeLength
p4715
tp4716
a(Vinsert
p4717
I42
VSimpleName: iterations
p4718
tp4719
a(Vinsert
p4720
I42
VSimpleName: inverse
p4721
tp4722
a(Vinsert
p4723
I42
VSimpleName: setChanged
p4724
tp4725
a(Vinsert
p4726
I42
VSimpleName: getCodeName
p4727
tp4728
a(Vinsert
p4729
I42
VSimpleName: max
p4730
tp4731
a(Vinsert
p4732
I42
VSimpleName: sub
p4733
tp4734
a(Vinsert
p4735
I42
VSimpleName: getFlattenedSize
p4736
tp4737
a(Vinsert
p4738
I42
VSimpleName: getVertices
p4739
tp4740
a(Vinsert
p4741
I42
VSimpleName: getCollectionCount
p4742
tp4743
a(Vinsert
p4744
I42
VSimpleName: detach
p4745
tp4746
a(Vinsert
p4747
I42
VSimpleName: endsWith
p4748
tp4749
a(Vinsert
p4750
I42
VSimpleName: readFloat
p4751
tp4752
a(Vinsert
p4753
I42
VSimpleName: clone
p4754
tp4755
a(Vinsert
p4756
I42
VSimpleName: workerId
p4757
tp4758
a(Vinsert
p4759
I42
VSimpleName: readNumpy
p4760
tp4761
a(Vinsert
p4762
I42
VSimpleName: hasMore
p4763
tp4764
a(Vinsert
p4765
I42
VSimpleName: alpha
p4766
tp4767
a(Vinsert
p4768
I42
VSimpleName: setWorkspaceMode
p4769
tp4770
a(Vinsert
p4771
I42
VSimpleName: toVocabDouble
p4772
tp4773
a(Vinsert
p4774
I42
VSimpleName: backpropType
p4775
tp4776
a(Vinsert
p4777
I42
VSimpleName: exit
p4778
tp4779
a(Vinsert
p4780
I42
VSimpleName: getConvolution1DLayer
p4781
tp4782
a(Vinsert
p4783
I42
VSimpleName: asExample
p4784
tp4785
a(Vinsert
p4786
I42
VSimpleName: openOutputStream
p4787
tp4788
a(Vinsert
p4789
I42
VSimpleName: useRegularization
p4790
tp4791
a(Vinsert
p4792
I42
VSimpleName: deserialize
p4793
tp4794
a(Vinsert
p4795
I42
VSimpleName: lastChild
p4796
tp4797
a(Vinsert
p4798
I42
VSimpleName: numWords
p4799
tp4800
a(Vinsert
p4801
I42
VSimpleName: setFeatures
p4802
tp4803
a(Vinsert
p4804
I42
VSimpleName: setElementsLearningAlgorithm
p4805
tp4806
a(Vinsert
p4807
I42
VSimpleName: getBlasWrapper
p4808
tp4809
a(Vinsert
p4810
I42
VSimpleName: mediator
p4811
tp4812
a(Vinsert
p4813
I42
VSimpleName: getLAYER_FIELD_NB_ROW
p4814
tp4815
a(Vinsert
p4816
I42
VSimpleName: getConfig
p4817
tp4818
a(Vinsert
p4819
I42
VSimpleName: symmetric
p4820
tp4821
a(Vinsert
p4822
I42
VSimpleName: createNewFile
p4823
tp4824
a(Vinsert
p4825
I42
VSimpleName: checkArgument
p4826
tp4827
a(Vinsert
p4828
I42
VSimpleName: addElements
p4829
tp4830
a(Vinsert
p4831
I42
VSimpleName: withMomentum
p4832
tp4833
a(Vinsert
p4834
I42
VSimpleName: height
p4835
tp4836
a(Vinsert
p4837
I42
VSimpleName: level1
p4838
tp4839
a(Vinsert
p4840
I42
VSimpleName: enumToConfigWithDefaults
p4841
tp4842
a(Vinsert
p4843
I42
VSimpleName: setSize
p4844
tp4845
a(Vinsert
p4846
I42
VSimpleName: fBeta
p4847
tp4848
a(Vinsert
p4849
I42
VSimpleName: addLayer
p4850
tp4851
a(Vinsert
p4852
I42
VSimpleName: aggregationsCount
p4853
tp4854
a(Vinsert
p4855
I42
VSimpleName: variance
p4856
tp4857
a(Vinsert
p4858
I42
VSimpleName: complexOnes
p4859
tp4860
a(Vinsert
p4861
I42
VSimpleName: writeValueAsString
p4862
tp4863
a(Vinsert
p4864
I42
VSimpleName: textValue
p4865
tp4866
a(Vinsert
p4867
I42
VSimpleName: whitespaceChars
p4868
tp4869
a(Vinsert
p4870
I42
VSimpleName: usePca
p4871
tp4872
a(Vinsert
p4873
I42
VSimpleName: flatten
p4874
tp4875
a(Vinsert
p4876
I42
VSimpleName: addWordsToDoc
p4877
tp4878
a(Vinsert
p4879
I42
VSimpleName: setParams
p4880
tp4881
a(Vinsert
p4882
I42
VSimpleName: plotVocab
p4883
tp4884
a(Vinsert
p4885
I42
VSimpleName: getCountTrueNegative
p4886
tp4887
a(Vinsert
p4888
I42
VSimpleName: getWordFrequency
p4889
tp4890
a(Vinsert
p4891
I42
VSimpleName: collectMeanMagnitudesUpdates
p4892
tp4893
a(Vinsert
p4894
I42
VSimpleName: newArrayList
p4895
tp4896
a(Vinsert
p4897
I42
VSimpleName: dup
p4898
tp4899
a(Vinsert
p4900
I42
VSimpleName: nextObject
p4901
tp4902
a(Vinsert
p4903
I42
VSimpleName: graphBuilder
p4904
tp4905
a(Vinsert
p4906
I42
VSimpleName: constrainWeights
p4907
tp4908
a(Vinsert
p4909
I42
VSimpleName: loadGoogleBinary
p4910
tp4911
a(Vinsert
p4912
I42
VSimpleName: withGradientListeners
p4913
tp4914
a(Vinsert
p4915
I42
VSimpleName: countTokens
p4916
tp4917
a(Vinsert
p4918
I42
VSimpleName: cudaMalloc
p4919
tp4920
a(Vinsert
p4921
I42
VSimpleName: getVertex
p4922
tp4923
a(Vinsert
p4924
I42
VSimpleName: isUseHierarchicSoftmax
p4925
tp4926
a(Vinsert
p4927
I42
VSimpleName: propsFor
p4928
tp4929
a(Vinsert
p4930
I42
VSimpleName: columns
p4931
tp4932
a(Vinsert
p4933
I42
VSimpleName: offsets
p4934
tp4935
a(Vinsert
p4936
I42
VSimpleName: subList
p4937
tp4938
a(Vinsert
p4939
I42
VSimpleName: getDtypeFromContext
p4940
tp4941
a(Vinsert
p4942
I42
VSimpleName: getShort
p4943
tp4944
a(Vinsert
p4945
I42
VSimpleName: collectHistograms
p4946
tp4947
a(Vinsert
p4948
I42
VSimpleName: getNumIterations
p4949
tp4950
a(Vinsert
p4951
I42
VSimpleName: doubleCopyOf
p4952
tp4953
a(Vinsert
p4954
I42
VSimpleName: getOriginalVertexName
p4955
tp4956
a(Vinsert
p4957
I42
VSimpleName: maxNumLineSearchIterations
p4958
tp4959
a(Vinsert
p4960
I42
VSimpleName: getConstraints
p4961
tp4962
a(Vinsert
p4963
I42
VSimpleName: setCapacityPerFlow
p4964
tp4965
a(Vinsert
p4966
I42
VSimpleName: onGradientCalculation
p4967
tp4968
a(Vinsert
p4969
I42
VSimpleName: initFromData
p4970
tp4971
a(Vinsert
p4972
I42
VSimpleName: truncate
p4973
tp4974
a(Vinsert
p4975
I42
VSimpleName: hadoopConfiguration
p4976
tp4977
a(Vinsert
p4978
I42
VSimpleName: setBackpropGradientsViewArray
p4979
tp4980
a(Vinsert
p4981
I42
VSimpleName: vectorsAlongDimension
p4982
tp4983
a(Vinsert
p4984
I42
VSimpleName: setVariableWindows
p4985
tp4986
a(Vinsert
p4987
I42
VSimpleName: wordsNearest
p4988
tp4989
a(Vinsert
p4990
I42
VSimpleName: keys
p4991
tp4992
a(Vinsert
p4993
I42
VSimpleName: getGlobal
p4994
tp4995
a(Vinsert
p4996
I42
VSimpleName: getLearningRates
p4997
tp4998
a(Vinsert
p4999
I42
VSimpleName: isUpperCase
p5000
tp5001
a(Vinsert
p5002
I42
VSimpleName: nextSentence
p5003
tp5004
a(Vinsert
p5005
I42
VSimpleName: setCount
p5006
tp5007
a(Vinsert
p5008
I42
VSimpleName: unpersist
p5009
tp5010
a(Vinsert
p5011
I42
VSimpleName: getMemoryManager
p5012
tp5013
a(Vinsert
p5014
I42
VSimpleName: getIterationCount
p5015
tp5016
a(Vinsert
p5017
I42
VSimpleName: setSequenceLabel
p5018
tp5019
a(Vinsert
p5020
I42
VSimpleName: initialize
p5021
tp5022
a(Vinsert
p5023
I42
VSimpleName: isLeaf
p5024
tp5025
a(Vinsert
p5026
I42
VSimpleName: numberOfOutPuts
p5027
tp5028
a(Vinsert
p5029
I42
VSimpleName: getThird
p5030
tp5031
a(Vinsert
p5032
I42
VSimpleName: setVocab
p5033
tp5034
a(Vinsert
p5035
I42
VSimpleName: setLossFn
p5036
tp5037
a(Vinsert
p5038
I42
VSimpleName: reshapeWeights
p5039
tp5040
a(Vinsert
p5041
I42
VSimpleName: putVector
p5042
tp5043
a(Vinsert
p5044
I42
VSimpleName: setWindow
p5045
tp5046
a(Vinsert
p5047
I42
VSimpleName: out
p5048
tp5049
a(Vinsert
p5050
I42
VSimpleName: getBufferSize
p5051
tp5052
a(Vinsert
p5053
I42
VSimpleName: reportHardwareInfo
p5054
tp5055
a(Vinsert
p5056
I42
VSimpleName: getMeanPredictedValueX
p5057
tp5058
a(Vinsert
p5059
I42
VSimpleName: data
p5060
tp5061
a(Vinsert
p5062
I42
VSimpleName: setLookupTable
p5063
tp5064
a(Vinsert
p5065
I42
VSimpleName: isEligible
p5066
tp5067
a(Vinsert
p5068
I42
VSimpleName: setMomentum
p5069
tp5070
a(Vinsert
p5071
I42
VSimpleName: pretrain
p5072
tp5073
a(Vinsert
p5074
I42
VSimpleName: getRandomConnectedVertex
p5075
tp5076
a(Vinsert
p5077
I42
VSimpleName: getPadding
p5078
tp5079
a(Vinsert
p5080
I42
VSimpleName: paramTable
p5081
tp5082
a(Vinsert
p5083
I42
VSimpleName: activationMean
p5084
tp5085
a(Vinsert
p5086
I42
VSimpleName: getCurrent
p5087
tp5088
a(Vinsert
p5089
I42
VSimpleName: sampleHGivenV
p5090
tp5091
a(Vinsert
p5092
I42
VSimpleName: input
p5093
tp5094
a(Vinsert
p5095
I42
VSimpleName: getInstrumentation
p5096
tp5097
a(Vinsert
p5098
I42
VSimpleName: getKERAS_ACTIVATION_SIGMOID
p5099
tp5100
a(Vinsert
p5101
I42
VSimpleName: readInt
p5102
tp5103
a(Vinsert
p5104
I42
VSimpleName: numberOfKnownShards
p5105
tp5106
a(Vinsert
p5107
I42
VSimpleName: overallocationLimit
p5108
tp5109
a(Vinsert
p5110
I42
VSimpleName: lossFunction
p5111
tp5112
a(Vinsert
p5113
I42
VSimpleName: setSeed
p5114
tp5115
a(Vinsert
p5116
I42
VSimpleName: getLifecycleService
p5117
tp5118
a(Vinsert
p5119
I42
VSimpleName: getRecordReader
p5120
tp5121
a(Vinsert
p5122
I42
VSimpleName: iterateInParallel
p5123
tp5124
a(Vinsert
p5125
I42
VSimpleName: deleteOnExit
p5126
tp5127
a(Vinsert
p5128
I42
VSimpleName: filterSize
p5129
tp5130
a(Vinsert
p5131
I42
VSimpleName: scalar
p5132
tp5133
a(Vinsert
p5134
I42
VSimpleName: hashCode
p5135
tp5136
a(Vinsert
p5137
I42
VSimpleName: persist
p5138
tp5139
a(Vinsert
p5140
I42
VSimpleName: wrap
p5141
tp5142
a(Vinsert
p5143
I42
VSimpleName: setColor
p5144
tp5145
a(Vinsert
p5146
I42
VSimpleName: getRho
p5147
tp5148
a(Vinsert
p5149
I42
VSimpleName: toBytesSerializable
p5150
tp5151
a(Vinsert
p5152
I42
VSimpleName: getAdamVarDecay
p5153
tp5154
a(Vinsert
p5155
I42
VSimpleName: keepTopNKeys
p5156
tp5157
a(Vinsert
p5158
I42
VSimpleName: getIntValue
p5159
tp5160
a(Vinsert
p5161
I42
VSimpleName: getSwJvmUID
p5162
tp5163
a(Vinsert
p5164
I42
VSimpleName: MEMORY_ONLY
p5165
tp5166
a(Vinsert
p5167
I42
VSimpleName: cleanup
p5168
tp5169
a(Vinsert
p5170
I42
VSimpleName: lessThan
p5171
tp5172
a(Vinsert
p5173
I42
VSimpleName: withOutputActivationFunction
p5174
tp5175
a(Vinsert
p5176
I42
VSimpleName: interrupt
p5177
tp5178
a(Vinsert
p5179
I42
VSimpleName: getLayerType
p5180
tp5181
a(Vinsert
p5182
I42
VSimpleName: parseModelConfig
p5183
tp5184
a(Vinsert
p5185
I42
VSimpleName: getTensor
p5186
tp5187
a(Vinsert
p5188
I42
VSimpleName: getINIT_CONSTANT
p5189
tp5190
a(Vinsert
p5191
I42
VSimpleName: concatHorizontally
p5192
tp5193
a(Vinsert
p5194
I42
VSimpleName: exp
p5195
tp5196
a(Vinsert
p5197
I42
VSimpleName: getHiddenValues
p5198
tp5199
a(Vinsert
p5200
I42
VSimpleName: setup
p5201
tp5202
a(Vinsert
p5203
I42
VSimpleName: readImagesUnsafe
p5204
tp5205
a(Vinsert
p5206
I42
VSimpleName: runMain
p5207
tp5208
a(Vinsert
p5209
I42
VSimpleName: getPath
p5210
tp5211
a(Vinsert
p5212
I42
VSimpleName: addObserver
p5213
tp5214
a(Vinsert
p5215
I42
VSimpleName: eval
p5216
tp5217
a(Vinsert
p5218
I42
VSimpleName: setExecutionMode
p5219
tp5220
a(Vinsert
p5221
I42
VSimpleName: readLines
p5222
tp5223
a(Vinsert
p5224
I42
VSimpleName: getCumSize
p5225
tp5226
a(Vinsert
p5227
I42
VSimpleName: cyclesBeforeInitialization
p5228
tp5229
a(Vinsert
p5230
I42
VSimpleName: getMeanSquareError
p5231
tp5232
a(Vinsert
p5233
I42
VSimpleName: cancel
p5234
tp5235
a(Vinsert
p5236
I42
VSimpleName: getResourceManager
p5237
tp5238
a(Vinsert
p5239
I42
VSimpleName: diviRowVector
p5240
tp5241
a(Vinsert
p5242
I42
VSimpleName: currentThread
p5243
tp5244
a(Vinsert
p5245
I42
VSimpleName: getSyn1Neg
p5246
tp5247
a(Vinsert
p5248
I42
VSimpleName: totalOutcomes
p5249
tp5250
a(Vinsert
p5251
I42
VSimpleName: dropOut
p5252
tp5253
a(Vinsert
p5254
I42
VSimpleName: floatData
p5255
tp5256
a(Vinsert
p5257
I42
VSimpleName: getWorkerId
p5258
tp5259
a(Vinsert
p5260
I42
VSimpleName: dcopy
p5261
tp5262
a(Vinsert
p5263
I42
VSimpleName: getStatsStorage
p5264
tp5265
a(Vinsert
p5266
I42
VSimpleName: getLAYER_CLASS_NAME_MAX_POOLING_1D
p5267
tp5268
a(Vinsert
p5269
I42
VSimpleName: flush
p5270
tp5271
a(Vinsert
p5272
I42
VSimpleName: numRows
p5273
tp5274
a(Vinsert
p5275
I42
VSimpleName: falseNegativeRate
p5276
tp5277
a(Vinsert
p5278
I42
VSimpleName: setBiasUpdater
p5279
tp5280
a(Vinsert
p5281
I42
VSimpleName: migrate
p5282
tp5283
a(Vinsert
p5284
I42
VSimpleName: kernelSize
p5285
tp5286
a(Vinsert
p5287
I42
VSimpleName: deepHashCode
p5288
tp5289
a(Vinsert
p5290
I42
VSimpleName: unSafeGet
p5291
tp5292
a(Vinsert
p5293
I42
VSimpleName: aeronDirectoryName
p5294
tp5295
a(Vinsert
p5296
I42
VSimpleName: getLAYER_FIELD_INIT_VALUE
p5297
tp5298
a(Vinsert
p5299
I42
VSimpleName: getAllUpdatesAfter
p5300
tp5301
a(Vinsert
p5302
I42
VSimpleName: currentTimeMillis
p5303
tp5304
a(Vinsert
p5305
I42
VSimpleName: toDouble
p5306
tp5307
a(Vinsert
p5308
I42
VSimpleName: toByteBuffer
p5309
tp5310
a(Vinsert
p5311
I42
VSimpleName: stop
p5312
tp5313
a(Vinsert
p5314
I42
VSimpleName: checkGradients
p5315
tp5316
a(Vinsert
p5317
I42
VSimpleName: getEpsilon
p5318
tp5319
a(Vinsert
p5320
I42
VSimpleName: setWeightInit
p5321
tp5322
a(Vinsert
p5323
I42
VSimpleName: getRocCurve
p5324
tp5325
a(Vinsert
p5326
I42
VSimpleName: hasNextDocument
p5327
tp5328
a(Vinsert
p5329
I42
VSimpleName: getStepDelay
p5330
tp5331
a(Vinsert
p5332
I42
VSimpleName: getSameModeTopLeftPadding
p5333
tp5334
a(Vinsert
p5335
I42
VSimpleName: getPretrainEpochs
p5336
tp5337
a(Vinsert
p5338
I42
VSimpleName: backward
p5339
tp5340
a(Vinsert
p5341
I42
VSimpleName: rollAxis
p5342
tp5343
a(Vinsert
p5344
I42
VSimpleName: replaceAll
p5345
tp5346
a(Vinsert
p5347
I42
VSimpleName: feedForward
p5348
tp5349
a(Vinsert
p5350
I42
VSimpleName: getProtocol
p5351
tp5352
a(Vinsert
p5353
I42
VSimpleName: readCaffeWithoutWeights
p5354
tp5355
a(Vinsert
p5356
I42
VSimpleName: toArrayDouble
p5357
tp5358
a(Vinsert
p5359
I42
VSimpleName: addWordToIndex
p5360
tp5361
a(Vinsert
p5362
I42
VSimpleName: getLocalPort
p5363
tp5364
a(Vinsert
p5365
I42
VSimpleName: getGradient
p5366
tp5367
a(Vinsert
p5368
I42
VSimpleName: epsilon
p5369
tp5370
a(Vinsert
p5371
I42
VSimpleName: setIterationCount
p5372
tp5373
a(Vinsert
p5374
I42
VSimpleName: transformWeightsAt
p5375
tp5376
a(Vinsert
p5377
I42
VSimpleName: setCol
p5378
tp5379
a(Vinsert
p5380
I42
VSimpleName: getVertexDegree
p5381
tp5382
a(Vinsert
p5383
I42
VSimpleName: setSyn1
p5384
tp5385
a(Vinsert
p5386
I42
VSimpleName: getSampleOrActivate
p5387
tp5388
a(Vinsert
p5389
I42
VSimpleName: sequenceLength
p5390
tp5391
a(Vinsert
p5392
I42
VSimpleName: shuffleArray
p5393
tp5394
a(Vinsert
p5395
I42
VSimpleName: setScore
p5396
tp5397
a(Vinsert
p5398
I42
VSimpleName: withDistribution
p5399
tp5400
a(Vinsert
p5401
I42
VSimpleName: getMaxBatchesPerWorker
p5402
tp5403
a(Vinsert
p5404
I42
VSimpleName: getSwHostName
p5405
tp5406
a(Vinsert
p5407
I42
VSimpleName: addToken
p5408
tp5409
a(Vinsert
p5410
I42
VSimpleName: valueArrayOf
p5411
tp5412
a(Vinsert
p5413
I42
VSimpleName: getSize
p5414
tp5415
a(Vinsert
p5416
I42
VSimpleName: getFullAddress
p5417
tp5418
a(Vinsert
p5419
I42
VSimpleName: rdivi
p5420
tp5421
a(Vinsert
p5422
I42
VSimpleName: render
p5423
tp5424
a(Vinsert
p5425
I42
VSimpleName: nextBytes
p5426
tp5427
a(Vinsert
p5428
I42
VSimpleName: getComplexStrides
p5429
tp5430
a(Vinsert
p5431
I42
VSimpleName: typeForFactory
p5432
tp5433
a(Vinsert
p5434
I42
VSimpleName: getLabels
p5435
tp5436
a(Vinsert
p5437
I42
VSimpleName: numberOfVisible
p5438
tp5439
a(Vinsert
p5440
I42
VSimpleName: add
p5441
tp5442
a(Vinsert
p5443
I42
VSimpleName: assertEquals
p5444
tp5445
a(Vinsert
p5446
I42
VSimpleName: getLAYER_FIELD_W_REGULARIZER
p5447
tp5448
a(Vinsert
p5449
I42
VSimpleName: rng
p5450
tp5451
a(Vinsert
p5452
I42
VSimpleName: readParagraphVectorsFromText
p5453
tp5454
a(Vinsert
p5455
I42
VSimpleName: readImage
p5456
tp5457
a(Vinsert
p5458
I42
VSimpleName: getLabelsMaskArrays
p5459
tp5460
a(Vinsert
p5461
I42
VSimpleName: norm2
p5462
tp5463
a(Vinsert
p5464
I42
VSimpleName: cacheInRam
p5465
tp5466
a(Vinsert
p5467
I42
VSimpleName: isView
p5468
tp5469
a(Vinsert
p5470
I42
VSimpleName: setSparsity
p5471
tp5472
a(Vinsert
p5473
I42
VSimpleName: _3
p5474
tp5475
a(Vinsert
p5476
I42
VSimpleName: consumeWhileHasNext
p5477
tp5478
a(Vinsert
p5479
I42
VSimpleName: getMasterAddress
p5480
tp5481
a(Vinsert
p5482
I42
VSimpleName: setTrainElementsVectors
p5483
tp5484
a(Vinsert
p5485
I42
VSimpleName: setUpdateConfig
p5486
tp5487
a(Vinsert
p5488
I42
VSimpleName: getStorageLevel
p5489
tp5490
a(Vinsert
p5491
I42
VSimpleName: getBytes
p5492
tp5493
a(Vinsert
p5494
I42
VSimpleName: getFirst
p5495
tp5496
a(Vinsert
p5497
I42
VSimpleName: testSet
p5498
tp5499
a(Vinsert
p5500
I42
VSimpleName: imag
p5501
tp5502
a(Vinsert
p5503
I42
VSimpleName: getInputMiniBatchSize
p5504
tp5505
a(Vinsert
p5506
I42
VSimpleName: shutdown
p5507
tp5508
a(Vinsert
p5509
I42
VSimpleName: getPreprocessorForInputTypeRnnLayers
p5510
tp5511
a(Vinsert
p5512
I42
VSimpleName: setFlattenedGradient
p5513
tp5514
a(Vinsert
p5515
I42
VSimpleName: override
p5516
tp5517
a(Vinsert
p5518
I42
VSimpleName: singletonList
p5519
tp5520
a(Vinsert
p5521
I42
VSimpleName: normalizeArray
p5522
tp5523
a(Vinsert
p5524
I42
VSimpleName: sigmoid
p5525
tp5526
a(Vinsert
p5527
I42
VSimpleName: reportIDs
p5528
tp5529
a(Vinsert
p5530
I42
VSimpleName: dilation
p5531
tp5532
a(Vinsert
p5533
I42
VSimpleName: getForgetGateBiasInit
p5534
tp5535
a(Vinsert
p5536
I42
VSimpleName: currentJobs
p5537
tp5538
a(Vinsert
p5539
I42
VSimpleName: cursor
p5540
tp5541
a(Vinsert
p5542
I42
VSimpleName: contrastiveDivergence
p5543
tp5544
a(Vinsert
p5545
I42
VSimpleName: layerFactory
p5546
tp5547
a(Vinsert
p5548
I42
VSimpleName: muliColumnVector
p5549
tp5550
a(Vinsert
p5551
I42
VSimpleName: getImageNetNet
p5552
tp5553
a(Vinsert
p5554
I42
VSimpleName: uniform
p5555
tp5556
a(Vinsert
p5557
I42
VSimpleName: setProperty
p5558
tp5559
a(Vinsert
p5560
I42
VSimpleName: scal
p5561
tp5562
a(Vinsert
p5563
I42
VSimpleName: sequence
p5564
tp5565
a(Vinsert
p5566
I42
VSimpleName: getProperty
p5567
tp5568
a(Vinsert
p5569
I42
VSimpleName: getGradients
p5570
tp5571
a(Vinsert
p5572
I42
VSimpleName: getFlowController
p5573
tp5574
a(Vinsert
p5575
I42
VSimpleName: decode
p5576
tp5577
a(Vinsert
p5578
I42
VSimpleName: dense
p5579
tp5580
a(Vinsert
p5581
I42
VSimpleName: emptyList
p5582
tp5583
a(Vinsert
p5584
I42
VSimpleName: getKernelSize
p5585
tp5586
a(Vinsert
p5587
I42
VSimpleName: setPreciseWeightInit
p5588
tp5589
a(Vinsert
p5590
I42
VSimpleName: setMultiLayerClazz
p5591
tp5592
a(Vinsert
p5593
I42
VSimpleName: backgroundColor
p5594
tp5595
a(Vinsert
p5596
I42
VSimpleName: min
p5597
tp5598
a(Vinsert
p5599
I42
VSimpleName: zipWithUniqueId
p5600
tp5601
a(Vinsert
p5602
I42
VSimpleName: setTrainingWorkspaceMode
p5603
tp5604
a(Vinsert
p5605
I42
VSimpleName: doneReplicating
p5606
tp5607
a(Vinsert
p5608
I42
VSimpleName: iterationListener
p5609
tp5610
a(Vinsert
p5611
I42
VSimpleName: mseRecon
p5612
tp5613
a(Vinsert
p5614
I42
VSimpleName: getWordIndex
p5615
tp5616
a(Vinsert
p5617
I42
VSimpleName: falsePositiveRate
p5618
tp5619
a(Vinsert
p5620
I42
VSimpleName: ok
p5621
tp5622
a(Vinsert
p5623
I42
VSimpleName: isMiniBatch
p5624
tp5625
a(Vinsert
p5626
I42
VSimpleName: post
p5627
tp5628
a(Vinsert
p5629
I42
VSimpleName: errorSum
p5630
tp5631
a(Vinsert
p5632
I42
VSimpleName: getIter
p5633
tp5634
a(Vinsert
p5635
I42
VSimpleName: getBackpropType
p5636
tp5637
a(Vinsert
p5638
I42
VSimpleName: getCudnnAlgoMode
p5639
tp5640
a(Vinsert
p5641
I42
VSimpleName: doubleToLongBits
p5642
tp5643
a(Vinsert
p5644
I42
VSimpleName: activateForLayer
p5645
tp5646
a(Vinsert
p5647
I42
VSimpleName: updateAndReturnAccumulatorVal
p5648
tp5649
a(Vinsert
p5650
I42
VSimpleName: getResidualPlotAllClasses
p5651
tp5652
a(Vinsert
p5653
I42
VSimpleName: debug
p5654
tp5655
a(Vinsert
p5656
I42
VSimpleName: mapPartitions
p5657
tp5658
a(Vinsert
p5659
I42
VSimpleName: getByte
p5660
tp5661
a(Vinsert
p5662
I42
VSimpleName: tokenizerFactory
p5663
tp5664
a(Vinsert
p5665
I42
VSimpleName: getLAYER_FIELD_CLASS_NAME
p5666
tp5667
a(Vinsert
p5668
I42
VSimpleName: miniBatch
p5669
tp5670
a(Vinsert
p5671
I42
VSimpleName: downloadAndUntar
p5672
tp5673
a(Vinsert
p5674
I42
VSimpleName: getSimpleName
p5675
tp5676
a(Vinsert
p5677
I42
VSimpleName: getStd
p5678
tp5679
a(Vinsert
p5680
I42
VSimpleName: toMultiDataSet
p5681
tp5682
a(Vinsert
p5683
I42
VSimpleName: getEntryLength
p5684
tp5685
a(Vinsert
p5686
I42
VSimpleName: readSequenceVectors
p5687
tp5688
a(Vinsert
p5689
I42
VSimpleName: nextToken
p5690
tp5691
a(Vinsert
p5692
I42
VSimpleName: setCurrent
p5693
tp5694
a(Vinsert
p5695
I42
VSimpleName: addData
p5696
tp5697
a(Vinsert
p5698
I42
VSimpleName: getOffe
p5699
tp5700
a(Vinsert
p5701
I42
VSimpleName: perplexity
p5702
tp5703
a(Vinsert
p5704
I42
VSimpleName: fine
p5705
tp5706
a(Vinsert
p5707
I42
VSimpleName: allowParallelTokenization
p5708
tp5709
a(Vinsert
p5710
I42
VSimpleName: getLongHash
p5711
tp5712
a(Vinsert
p5713
I42
VSimpleName: getNestedTrainingStats
p5714
tp5715
a(Vinsert
p5716
I42
VSimpleName: calcL2
p5717
tp5718
a(Vinsert
p5719
I42
VSimpleName: getTrainingWorkspaceMode
p5720
tp5721
a(Vinsert
p5722
I42
VSimpleName: flipDim
p5723
tp5724
a(Vinsert
p5725
I42
VSimpleName: isScalar
p5726
tp5727
a(Vinsert
p5728
I42
VSimpleName: incrementAndGet
p5729
tp5730
a(Vinsert
p5731
I42
VSimpleName: wait
p5732
tp5733
a(Vinsert
p5734
I42
VSimpleName: getScoreVsEpoch
p5735
tp5736
a(Vinsert
p5737
I42
VSimpleName: getVec
p5738
tp5739
a(Vinsert
p5740
I42
VSimpleName: outputLayerDropout
p5741
tp5742
a(Vinsert
p5743
I42
VSimpleName: learnSequence
p5744
tp5745
a(Vinsert
p5746
I42
VSimpleName: checkNotNull
p5747
tp5748
a(Vinsert
p5749
I42
VSimpleName: getSequenceLabels
p5750
tp5751
a(Vinsert
p5752
I42
VSimpleName: getJSONFileName
p5753
tp5754
a(Vinsert
p5755
I42
VSimpleName: gc
p5756
tp5757
a(Vinsert
p5758
I42
VSimpleName: jersey
p5759
tp5760
a(Vinsert
p5761
I42
VSimpleName: defaultThreadFactory
p5762
tp5763
a(Vinsert
p5764
I42
VSimpleName: ordering
p5765
tp5766
a(Vinsert
p5767
I42
VSimpleName: isDebugEnabled
p5768
tp5769
a(Vinsert
p5770
I42
VSimpleName: iterationDone
p5771
tp5772
a(Vinsert
p5773
I42
VSimpleName: asList
p5774
tp5775
a(Vinsert
p5776
I42
VSimpleName: getVertexName
p5777
tp5778
a(Vinsert
p5779
I42
VSimpleName: tensorAlongDimension
p5780
tp5781
a(Vinsert
p5782
I42
VSimpleName: scoreExamples
p5783
tp5784
a(Vinsert
p5785
I42
VSimpleName: getFeaturesMaskArray
p5786
tp5787
a(Vinsert
p5788
I42
VSimpleName: getHistograms
p5789
tp5790
a(Vinsert
p5791
I42
VSimpleName: getLong
p5792
tp5793
a(Vinsert
p5794
I42
VSimpleName: addJobToCurrent
p5795
tp5796
a(Vinsert
p5797
I42
VSimpleName: getUpdaterAggregator
p5798
tp5799
a(Vinsert
p5800
I42
VSimpleName: reshape
p5801
tp5802
a(Vinsert
p5803
I42
VSimpleName: inputPreProcessors
p5804
tp5805
a(Vinsert
p5806
I42
VSimpleName: printStackTrace
p5807
tp5808
a(Vinsert
p5809
I42
VSimpleName: getFrom
p5810
tp5811
a(Vinsert
p5812
I42
VSimpleName: fromByteArray
p5813
tp5814
a(Vinsert
p5815
I42
VSimpleName: learningRate
p5816
tp5817
a(Vinsert
p5818
I42
VSimpleName: setLength
p5819
tp5820
a(Vinsert
p5821
I42
VSimpleName: newFixedThreadPool
p5822
tp5823
a(Vinsert
p5824
I42
VSimpleName: write
p5825
tp5826
a(Vinsert
p5827
I42
VSimpleName: col2im
p5828
tp5829
a(Vinsert
p5830
I42
VSimpleName: similarity
p5831
tp5832
a(Vinsert
p5833
I42
VSimpleName: getenv
p5834
tp5835
a(Vinsert
p5836
I42
VSimpleName: parallelize
p5837
tp5838
a(Vinsert
p5839
I42
VSimpleName: getRandom
p5840
tp5841
a(Vinsert
p5842
I42
VSimpleName: getSessionID
p5843
tp5844
a(Vinsert
p5845
I42
VSimpleName: mean
p5846
tp5847
a(Vinsert
p5848
I42
VSimpleName: gemm
p5849
tp5850
a(Vinsert
p5851
I42
VSimpleName: toPoolingType
p5852
tp5853
a(Vinsert
p5854
I42
VSimpleName: poolingType
p5855
tp5856
a(Vinsert
p5857
I42
VSimpleName: fetchFutures
p5858
tp5859
a(Vinsert
p5860
I42
VSimpleName: setControllerAddress
p5861
tp5862
a(Vinsert
p5863
I42
VSimpleName: width
p5864
tp5865
a(Vinsert
p5866
I42
VSimpleName: euclidean
p5867
tp5868
a(Vinsert
p5869
I42
VSimpleName: getUpdateable
p5870
tp5871
a(Vinsert
p5872
I42
VSimpleName: getAbsolutePath
p5873
tp5874
a(Vinsert
p5875
I42
VSimpleName: workerPrefetchNumBatches
p5876
tp5877
a(Vinsert
p5878
I42
VSimpleName: complexRangeVector
p5879
tp5880
a(Vinsert
p5881
I42
VSimpleName: modelInfo
p5882
tp5883
a(Vinsert
p5884
I42
VSimpleName: putObject
p5885
tp5886
a(Vinsert
p5887
I42
VSimpleName: mapperYaml
p5888
tp5889
a(Vinsert
p5890
I42
VSimpleName: updateTag
p5891
tp5892
a(Vinsert
p5893
I42
VSimpleName: neg
p5894
tp5895
a(Vinsert
p5896
I42
VSimpleName: regularization
p5897
tp5898
a(Vinsert
p5899
I42
VSimpleName: isFile
p5900
tp5901
a(Vinsert
p5902
I42
VSimpleName: ensureValidOutcomeMatrix
p5903
tp5904
a(Vinsert
p5905
I42
VSimpleName: setLayerWiseConfigurations
p5906
tp5907
a(Vinsert
p5908
I42
VSimpleName: getBiasLearningRate
p5909
tp5910
a(Vinsert
p5911
I42
VSimpleName: repmat
p5912
tp5913
a(Vinsert
p5914
I42
VSimpleName: stateSizeForLayer
p5915
tp5916
a(Vinsert
p5917
I42
VSimpleName: getConnectionInfo
p5918
tp5919
a(Vinsert
p5920
I42
VSimpleName: addWord
p5921
tp5922
a(Vinsert
p5923
I42
VSimpleName: backprop
p5924
tp5925
a(Vinsert
p5926
I42
VSimpleName: isRowVector
p5927
tp5928
a(Vinsert
p5929
I42
VSimpleName: normalizeByInputRows
p5930
tp5931
a(Vinsert
p5932
I42
VSimpleName: vocabWords
p5933
tp5934
a(Vinsert
p5935
I42
VSimpleName: layerConf
p5936
tp5937
a(Vinsert
p5938
I42
VSimpleName: setRng
p5939
tp5940
a(Vinsert
p5941
I42
VSimpleName: getOutputType
p5942
tp5943
a(Vinsert
p5944
I42
VSimpleName: getNumClasses
p5945
tp5946
a(Vinsert
p5947
I42
VSimpleName: build
p5948
tp5949
a(Vinsert
p5950
I42
VSimpleName: getNumTensor
p5951
tp5952
a(Vinsert
p5953
I42
VSimpleName: importKerasSequentialModelAndWeights
p5954
tp5955
a(Vinsert
p5956
I42
VSimpleName: recurrent
p5957
tp5958
a(Vinsert
p5959
I42
VSimpleName: getURL
p5960
tp5961
a(Vinsert
p5962
I42
VSimpleName: floatCopyOf
p5963
tp5964
a(Vinsert
p5965
I42
VSimpleName: hasBias
p5966
tp5967
a(Vinsert
p5968
I42
VSimpleName: getPreProcessorForInputType
p5969
tp5970
a(Vinsert
p5971
I42
VSimpleName: setInitDone
p5972
tp5973
a(Vinsert
p5974
I42
VSimpleName: has
p5975
tp5976
a(Vinsert
p5977
I42
VSimpleName: biasConstraints
p5978
tp5979
a(Vinsert
p5980
I42
VSimpleName: getLearningRate
p5981
tp5982
a(Vinsert
p5983
I42
VSimpleName: runRemoteCommand
p5984
tp5985
a(Vinsert
p5986
I42
VSimpleName: vectorForDimensionAndOffset
p5987
tp5988
a(Vinsert
p5989
I42
VSimpleName: stabilizeInput
p5990
tp5991
a(Vinsert
p5992
I42
VSimpleName: zcopy
p5993
tp5994
a(Vinsert
p5995
I42
VSimpleName: initializer
p5996
tp5997
a(Vinsert
p5998
I42
VSimpleName: getOutputPostProcess
p5999
tp6000
a(Vinsert
p6001
I42
VSimpleName: averagePrecision
p6002
tp6003
a(Vinsert
p6004
I42
VSimpleName: executeTraining
p6005
tp6006
a(Vinsert
p6007
I42
VSimpleName: readTree
p6008
tp6009
a(Vinsert
p6010
I42
VSimpleName: writeSwappedDouble
p6011
tp6012
a(Vinsert
p6013
I42
VSimpleName: insertStopRegexes
p6014
tp6015
a(Vinsert
p6016
I42
VSimpleName: gMeasure
p6017
tp6018
a(Vinsert
p6019
I42
VSimpleName: getDataSets
p6020
tp6021
a(Vinsert
p6022
I42
VSimpleName: propDown
p6023
tp6024
a(Vinsert
p6025
I42
VSimpleName: getExpTable
p6026
tp6027
a(Vinsert
p6028
I42
VSimpleName: startWorker
p6029
tp6030
a(Vinsert
p6031
I42
VSimpleName: withWeights
p6032
tp6033
a(Vinsert
p6034
I42
VSimpleName: isParallel
p6035
tp6036
a(Vinsert
p6037
I42
VSimpleName: columnVariance
p6038
tp6039
a(Vinsert
p6040
I42
VSimpleName: setGradientsAccumulator
p6041
tp6042
a(Vinsert
p6043
I42
VSimpleName: getId
p6044
tp6045
a(Vinsert
p6046
I42
VSimpleName: getVertexTypes
p6047
tp6048
a(Vinsert
p6049
I42
VSimpleName: nextLong
p6050
tp6051
a(Vinsert
p6052
I42
VSimpleName: listObjects
p6053
tp6054
a(Vinsert
p6055
I42
VSimpleName: getnOut
p6056
tp6057
a(Vinsert
p6058
I42
VSimpleName: rawifftn
p6059
tp6060
a(Vinsert
p6061
I42
VSimpleName: getL2ByParam
p6062
tp6063
a(Vinsert
p6064
I42
VSimpleName: setNIn
p6065
tp6066
a(Vinsert
p6067
I42
VSimpleName: setParam
p6068
tp6069
a(Vinsert
p6070
I42
VSimpleName: stateSize
p6071
tp6072
a(Vinsert
p6073
I42
VSimpleName: replaceFirst
p6074
tp6075
a(Vinsert
p6076
I42
VSimpleName: dispatcher
p6077
tp6078
a(Vinsert
p6079
I42
VSimpleName: setValue
p6080
tp6081
a(Vinsert
p6082
I42
VSimpleName: function
p6083
tp6084
a(Vinsert
p6085
I42
VSimpleName: getDecay
p6086
tp6087
a(Vinsert
p6088
I42
VSimpleName: asInt
p6089
tp6090
a(Vinsert
p6091
I42
VSimpleName: setElement2
p6092
tp6093
a(Vinsert
p6094
I42
VSimpleName: toLowerCase
p6095
tp6096
a(Vinsert
p6097
I42
VSimpleName: target
p6098
tp6099
a(Vinsert
p6100
I42
VSimpleName: SimulateRun
p6101
tp6102
a(Vinsert
p6103
I42
VSimpleName: setGradientNormalization
p6104
tp6105
a(Vinsert
p6106
I42
VSimpleName: getLAYER_FIELD_BATCHNORMALIZATION_GAMMA_CONSTRAINT
p6107
tp6108
a(Vinsert
p6109
I42
VSimpleName: updater
p6110
tp6111
a(Vinsert
p6112
I42
VSimpleName: withInput
p6113
tp6114
a(Vinsert
p6115
I42
VSimpleName: batchSizePerWorker
p6116
tp6117
a(Vinsert
p6118
I42
VSimpleName: setLegacyLr
p6119
tp6120
a(Vinsert
p6121
I42
VSimpleName: ceil
p6122
tp6123
a(Vinsert
p6124
I42
VSimpleName: mmul
p6125
tp6126
a(Vinsert
p6127
I42
VSimpleName: isLocked
p6128
tp6129
a(Vinsert
p6130
I42
VSimpleName: setStateViewArray
p6131
tp6132
a(Vinsert
p6133
I42
VSimpleName: setLabelsList
p6134
tp6135
a(Vinsert
p6136
I42
VSimpleName: axisStrokeWidth
p6137
tp6138
a(Vinsert
p6139
I42
VSimpleName: sort
p6140
tp6141
a(Vinsert
p6142
I42
VSimpleName: getExecutioner
p6143
tp6144
a(Vinsert
p6145
I42
VSimpleName: getLAYER_FIELD_BATCHNORMALIZATION_MOVING_VARIANCE
p6146
tp6147
a(Vinsert
p6148
I42
VSimpleName: withSparsity
p6149
tp6150
a(Vinsert
p6151
I42
VSimpleName: getOutputSize
p6152
tp6153
a(Vinsert
p6154
I42
VSimpleName: getvBiasGradient
p6155
tp6156
a(Vinsert
p6157
I42
VSimpleName: getRegularizationType
p6158
tp6159
a(Vinsert
p6160
I42
VSimpleName: vector
p6161
tp6162
a(Vinsert
p6163
I42
VSimpleName: matthewsCorrelation
p6164
tp6165
a(Vinsert
p6166
I42
VSimpleName: toBinaryString
p6167
tp6168
a(Vinsert
p6169
I42
VSimpleName: mnist
p6170
tp6171
a(Vinsert
p6172
I42
VSimpleName: asText
p6173
tp6174
a(Vinsert
p6175
I42
VSimpleName: writeStringToFile
p6176
tp6177
a(Vinsert
p6178
I42
VSimpleName: meanNumber
p6179
tp6180
a(Vinsert
p6181
I42
VSimpleName: createStepFunction
p6182
tp6183
a(Vinsert
p6184
I42
VSimpleName: useAdaGrad
p6185
tp6186
a(Vinsert
p6187
I42
VSimpleName: setGradientListeners
p6188
tp6189
a(Vinsert
p6190
I42
VSimpleName: getGradientList
p6191
tp6192
a(Vinsert
p6193
I42
VSimpleName: putVocabWord
p6194
tp6195
a(Vinsert
p6196
I42
VSimpleName: createArrayFromShapeBuffer
p6197
tp6198
a(Vinsert
p6199
I42
VSimpleName: getInnerLayerConfigFromConfig
p6200
tp6201
a(Vinsert
p6202
I42
VSimpleName: addOutputOneHot
p6203
tp6204
a(Vinsert
p6205
I42
VSimpleName: getReConstructionCrossEntropy
p6206
tp6207
a(Vinsert
p6208
I42
VSimpleName: readFromDisk
p6209
tp6210
a(Vinsert
p6211
I42
VSimpleName: getCountActualNegative
p6212
tp6213
a(Vinsert
p6214
I42
VSimpleName: prod
p6215
tp6216
a(Vinsert
p6217
I42
VSimpleName: getIUpdaterWithDefaultConfig
p6218
tp6219
a(Vinsert
p6220
I42
VSimpleName: addRowVector
p6221
tp6222
a(Vinsert
p6223
I42
VSimpleName: policyMirroring
p6224
tp6225
a(Vinsert
p6226
I42
VSimpleName: put
p6227
tp6228
a(Vinsert
p6229
I42
VSimpleName: extractLabels
p6230
tp6231
a(Vinsert
p6232
I42
VSimpleName: distance2
p6233
tp6234
a(Vinsert
p6235
I42
VSimpleName: modelParamNames
p6236
tp6237
a(Vinsert
p6238
I42
VSimpleName: hasHistograms
p6239
tp6240
a(Vinsert
p6241
I42
VSimpleName: xorData
p6242
tp6243
a(Vinsert
p6244
I42
VSimpleName: numInputs
p6245
tp6246
a(Vinsert
p6247
I42
VSimpleName: tell
p6248
tp6249
a(Vinsert
p6250
I42
VSimpleName: getHeight
p6251
tp6252
a(Vinsert
p6253
I42
VSimpleName: convolutionMode
p6254
tp6255
a(Vinsert
p6256
I42
VSimpleName: cublasSetVector
p6257
tp6258
a(Vinsert
p6259
I42
VSimpleName: finish
p6260
tp6261
a(Vinsert
p6262
I42
VSimpleName: getWindow
p6263
tp6264
a(Vinsert
p6265
I42
VSimpleName: setInputTypes
p6266
tp6267
a(Vinsert
p6268
I42
VSimpleName: hwDeviceInfoGroupCount
p6269
tp6270
a(Vinsert
p6271
I42
VSimpleName: getOutputLayer
p6272
tp6273
a(Vinsert
p6274
I42
VSimpleName: averagingRequired
p6275
tp6276
a(Vinsert
p6277
I42
VSimpleName: getEntry
p6278
tp6279
a(Vinsert
p6280
I42
VSimpleName: setPopularitySpread
p6281
tp6282
a(Vinsert
p6283
I42
VSimpleName: numWordsEncountered
p6284
tp6285
a(Vinsert
p6286
I42
VSimpleName: usage
p6287
tp6288
a(Vinsert
p6289
I42
VSimpleName: setY
p6290
tp6291
a(Vinsert
p6292
I42
VSimpleName: getLAYER_FIELD_EMBEDDING_INIT
p6293
tp6294
a(Vinsert
p6295
I42
VSimpleName: logCountEnd
p6296
tp6297
a(Vinsert
p6298
I42
VSimpleName: backProp
p6299
tp6300
a(Vinsert
p6301
I42
VSimpleName: toMatrix
p6302
tp6303
a(Vinsert
p6304
I42
VSimpleName: getOpFactory
p6305
tp6306
a(Vinsert
p6307
I42
VSimpleName: processSentence
p6308
tp6309
a(Vinsert
p6310
I42
VSimpleName: toVector
p6311
tp6312
a(Vinsert
p6313
I42
VSimpleName: getLogLayer
p6314
tp6315
a(Vinsert
p6316
I42
VSimpleName: ifftn
p6317
tp6318
a(Vinsert
p6319
I42
VSimpleName: repartition
p6320
tp6321
a(Vinsert
p6322
I42
VSimpleName: getActivation
p6323
tp6324
a(Vinsert
p6325
I42
VSimpleName: coalesce
p6326
tp6327
a(Vinsert
p6328
I42
VSimpleName: normalize
p6329
tp6330
a(Vinsert
p6331
I42
VSimpleName: z
p6332
tp6333
a(Vinsert
p6334
I42
VSimpleName: map
p6335
tp6336
a(Vinsert
p6337
I42
VSimpleName: rowSums
p6338
tp6339
a(Vinsert
p6340
I42
VSimpleName: notifyScopeEntered
p6341
tp6342
a(Vinsert
p6343
I42
VSimpleName: imaginaryComponent
p6344
tp6345
a(Vinsert
p6346
I42
VSimpleName: getW
p6347
tp6348
a(Vinsert
p6349
I42
VSimpleName: addFirst
p6350
tp6351
a(Vinsert
p6352
I42
VSimpleName: lossFunctionByLayer
p6353
tp6354
a(Vinsert
p6355
I42
VSimpleName: iamax
p6356
tp6357
a(Vinsert
p6358
I42
VSimpleName: isEarlyTerminationHit
p6359
tp6360
a(Vinsert
p6361
I42
VSimpleName: backPropStep
p6362
tp6363
a(Vinsert
p6364
I42
VSimpleName: columnMeans
p6365
tp6366
a.